	.cpu cortex-m4
	.eabi_attribute 27, 1
	.eabi_attribute 28, 1
	.eabi_attribute 20, 1
	.eabi_attribute 21, 1
	.eabi_attribute 23, 3
	.eabi_attribute 24, 1
	.eabi_attribute 25, 1
	.eabi_attribute 26, 1
	.eabi_attribute 30, 1
	.eabi_attribute 34, 1
	.eabi_attribute 38, 1
	.eabi_attribute 18, 4
	.file	"fatal.c"
	.text
.Ltext0:
	.cfi_sections	.debug_frame
	.section	.rodata.esf_dump.str1.4,"aMS",%progbits,1
	.align	2
.LC0:
	.ascii	"r0/a1:  0x%08x  r1/a2:  0x%08x  r2/a3:  0x%08x\000"
	.align	2
.LC1:
	.ascii	"r3/a4:  0x%08x r12/ip:  0x%08x r14/lr:  0x%08x\000"
	.align	2
.LC2:
	.ascii	" xpsr:  0x%08x\000"
	.align	2
.LC3:
	.ascii	"s[%2d]:  0x%08x  s[%2d]:  0x%08x  s[%2d]:  0x%08x  "
	.ascii	"s[%2d]:  0x%08x\000"
	.align	2
.LC4:
	.ascii	"fpscr:  0x%08x\000"
	.align	2
.LC5:
	.ascii	"Faulting instruction address (r15/pc): 0x%08x\000"
	.section	.text.esf_dump,"ax",%progbits
	.align	1
	.arch armv7e-m
	.syntax unified
	.thumb
	.thumb_func
	.fpu fpv4-sp-d16
	.type	esf_dump, %function
esf_dump:
.LVL0:
.LFB539:
	.file 1 "/home/sebin/thesis/zephyrproject/zephyr/arch/arm/core/aarch32/fatal.c"
	.loc 1 21 1 view -0
	.cfi_startproc
	@ args = 0, pretend = 0, frame = 80
	@ frame_needed = 1, uses_anonymous_args = 0
	.loc 1 21 1 is_stmt 0 view .LVU1
	push	{r4, r5, r6, r7, r8, r9, r10, lr}
	.cfi_def_cfa_offset 32
	.cfi_offset 4, -32
	.cfi_offset 5, -28
	.cfi_offset 6, -24
	.cfi_offset 7, -20
	.cfi_offset 8, -16
	.cfi_offset 9, -12
	.cfi_offset 10, -8
	.cfi_offset 14, -4
	sub	sp, sp, #80
	.cfi_def_cfa_offset 112
	add	r7, sp, #0
	.cfi_def_cfa_register 7
	mov	r6, r0
	.loc 1 22 2 is_stmt 1 view .LVU2
.LBB169:
	.loc 1 22 7 view .LVU3
	.loc 1 22 56 view .LVU4
	.loc 1 22 13 view .LVU5
	.loc 1 22 1 view .LVU6
.LBE169:
	.file 2 "/home/sebin/thesis/zephyrproject/zephyr/include/syscall.h"
	.loc 2 120 2 view .LVU7
.LVL1:
.LBB191:
	.loc 1 22 40 view .LVU8
	.loc 1 22 106 view .LVU9
	.loc 1 22 205 view .LVU10
.LBB170:
	.loc 1 22 214 view .LVU11
	.loc 1 22 225 view .LVU12
	.loc 1 22 313 view .LVU13
	.loc 1 22 318 view .LVU14
	.loc 1 22 320 view .LVU15
.LBE170:
.LBE191:
	.loc 1 22 2 view .LVU16
	.loc 1 22 2 view .LVU17
.LBB192:
.LBB187:
	.loc 1 22 144 view .LVU18
.LBB171:
	.loc 1 22 149 view .LVU19
	.loc 1 22 160 view .LVU20
.LBE171:
.LBE187:
.LBE192:
	.loc 1 22 2 view .LVU21
	.loc 1 22 216 view .LVU22
	.loc 1 22 1 view .LVU23
	.loc 1 22 30 view .LVU24
	.loc 1 22 3 view .LVU25
	.loc 1 22 23 view .LVU26
	.loc 1 22 47 view .LVU27
	.loc 1 22 22 view .LVU28
	.loc 1 22 40 view .LVU29
	.loc 1 22 60 view .LVU30
	.loc 1 22 107 view .LVU31
	.loc 1 22 139 view .LVU32
	.loc 1 22 12 view .LVU33
	.loc 1 22 54 view .LVU34
	.loc 1 22 96 view .LVU35
	.loc 1 22 141 view .LVU36
	.loc 1 22 146 view .LVU37
	.loc 1 22 416 view .LVU38
	.loc 1 22 422 view .LVU39
	.loc 1 22 1607 view .LVU40
	.loc 1 22 1631 view .LVU41
	.loc 1 22 1704 view .LVU42
	.loc 1 22 1834 view .LVU43
	.loc 1 22 1849 view .LVU44
	.loc 1 22 2152 view .LVU45
	.loc 1 22 2200 view .LVU46
	.loc 1 22 3628 view .LVU47
	.loc 1 22 3635 view .LVU48
	.loc 1 22 3658 view .LVU49
	.loc 1 22 3692 view .LVU50
	.loc 1 22 3698 view .LVU51
	.loc 1 22 3703 view .LVU52
	.loc 1 22 3938 view .LVU53
	.loc 1 22 3944 view .LVU54
	.loc 1 22 0 view .LVU55
	.loc 1 22 0 view .LVU56
	.loc 1 22 0 view .LVU57
	.loc 1 22 0 view .LVU58
	.loc 1 22 0 view .LVU59
	.loc 1 22 0 view .LVU60
	.loc 1 22 0 view .LVU61
	.loc 1 22 0 view .LVU62
	.loc 1 22 0 view .LVU63
	.loc 1 22 0 view .LVU64
	.loc 1 22 0 view .LVU65
	.loc 1 22 0 view .LVU66
	.loc 1 22 0 view .LVU67
	.loc 1 22 0 view .LVU68
	.loc 1 22 0 view .LVU69
	.loc 1 22 0 view .LVU70
	.loc 1 22 0 view .LVU71
	.loc 1 22 0 view .LVU72
	.loc 1 22 0 view .LVU73
	.loc 1 22 0 view .LVU74
	.loc 1 22 0 view .LVU75
	.loc 1 22 0 view .LVU76
	.loc 1 22 0 view .LVU77
	.loc 1 22 0 view .LVU78
	.loc 1 22 0 view .LVU79
	.loc 1 22 0 view .LVU80
	.loc 1 22 0 view .LVU81
	.loc 1 22 0 view .LVU82
	.loc 1 22 0 view .LVU83
	.loc 1 22 0 view .LVU84
	.loc 1 22 0 view .LVU85
	.loc 1 22 0 view .LVU86
	.loc 1 22 0 view .LVU87
	.loc 1 22 0 view .LVU88
	.loc 1 22 0 view .LVU89
	.loc 1 22 0 view .LVU90
	.loc 1 22 0 view .LVU91
	.loc 1 22 0 view .LVU92
	.loc 1 22 0 view .LVU93
	.loc 1 22 0 view .LVU94
	.loc 1 22 0 view .LVU95
	.loc 1 22 15 view .LVU96
.LBB193:
.LBB188:
.LBB184:
	.loc 1 22 10 view .LVU97
	.loc 1 22 15 view .LVU98
	.loc 1 22 38 view .LVU99
	.loc 1 22 74 is_stmt 0 view .LVU100
	mov	r4, sp
.LVL2:
	.loc 1 22 158 is_stmt 1 view .LVU101
	.loc 1 22 170 is_stmt 0 view .LVU102
	sub	sp, sp, #32
	mov	r0, sp
.LVL3:
	.loc 1 22 284 is_stmt 1 view .LVU103
	.loc 1 22 487 view .LVU104
	.loc 1 22 4 view .LVU105
	.loc 1 22 6 view .LVU106
	.loc 1 22 19 view .LVU107
.LBB172:
	.loc 1 22 2 view .LVU108
	.loc 1 22 216 view .LVU109
	.loc 1 22 1 view .LVU110
	.loc 1 22 30 view .LVU111
	.loc 1 22 59 view .LVU112
	.loc 1 22 79 view .LVU113
	.loc 1 22 103 view .LVU114
	.loc 1 22 11 is_stmt 0 view .LVU115
	adds	r3, r0, #12
.LVL4:
	.loc 1 22 11 view .LVU116
	beq	.L30
	movs	r2, #20
.L2:
	.loc 1 22 12 is_stmt 1 discriminator 108 view .LVU117
.LVL5:
	.loc 1 22 54 discriminator 108 view .LVU118
	.loc 1 22 96 discriminator 108 view .LVU119
	.loc 1 22 141 discriminator 108 view .LVU120
.LBB173:
	.loc 1 22 146 discriminator 108 view .LVU121
	.loc 1 22 416 discriminator 108 view .LVU122
	.loc 1 22 422 discriminator 108 view .LVU123
	.loc 1 22 1607 discriminator 108 view .LVU124
.LBE173:
.LBE172:
.LBE184:
.LBE188:
.LBE193:
	.loc 1 22 1631 discriminator 108 view .LVU125
	.loc 1 22 1704 discriminator 108 view .LVU126
	.loc 1 22 1834 discriminator 108 view .LVU127
.LBB194:
.LBB189:
.LBB185:
.LBB182:
.LBB174:
	.loc 1 22 1849 discriminator 108 view .LVU128
	.loc 1 22 2152 discriminator 108 view .LVU129
	.loc 1 22 2200 discriminator 108 view .LVU130
	.loc 1 22 2203 is_stmt 0 discriminator 108 view .LVU131
	cbz	r3, .L3
	.loc 1 22 2210 discriminator 112 view .LVU132
	cmp	r2, #4
	ble	.L3
	.loc 1 22 2238 is_stmt 1 discriminator 117 view .LVU133
	.loc 1 22 2243 discriminator 117 view .LVU134
	.loc 1 22 2922 discriminator 117 view .LVU135
	.loc 1 22 3566 is_stmt 0 discriminator 117 view .LVU136
	ldr	r1, .L40
	str	r1, [r0, #16]
.LVL6:
.L3:
	.loc 1 22 3628 is_stmt 1 discriminator 118 view .LVU137
	.loc 1 22 3635 discriminator 118 view .LVU138
	.loc 1 22 3658 discriminator 118 view .LVU139
	.loc 1 22 3658 is_stmt 0 discriminator 118 view .LVU140
.LBE174:
	.loc 1 22 3692 is_stmt 1 discriminator 118 view .LVU141
	.loc 1 22 3698 discriminator 118 view .LVU142
.LBB175:
	.loc 1 22 3703 discriminator 118 view .LVU143
	.loc 1 22 3938 discriminator 118 view .LVU144
	.loc 1 22 3944 discriminator 118 view .LVU145
	.loc 1 22 0 discriminator 118 view .LVU146
.LBB176:
	.loc 1 22 0 discriminator 118 view .LVU147
	ldr	r1, [r6]
.LVL7:
	.loc 1 22 0 discriminator 118 view .LVU148
	.loc 1 22 0 discriminator 118 view .LVU149
	.loc 1 22 0 is_stmt 0 discriminator 118 view .LVU150
.LBE176:
	.loc 1 22 0 is_stmt 1 discriminator 118 view .LVU151
	.loc 1 22 0 discriminator 118 view .LVU152
	cbz	r3, .L4
	.loc 1 22 0 is_stmt 0 discriminator 126 view .LVU153
	cmp	r2, #8
	ble	.L4
	.loc 1 22 0 is_stmt 1 discriminator 131 view .LVU154
	.loc 1 22 0 discriminator 131 view .LVU155
	.loc 1 22 0 discriminator 131 view .LVU156
	str	r1, [r0, #20]
.L4:
	.loc 1 22 0 discriminator 132 view .LVU157
	.loc 1 22 0 discriminator 132 view .LVU158
.LVL8:
	.loc 1 22 0 discriminator 132 view .LVU159
	.loc 1 22 0 is_stmt 0 discriminator 132 view .LVU160
.LBE175:
	.loc 1 22 0 is_stmt 1 discriminator 132 view .LVU161
	.loc 1 22 0 discriminator 132 view .LVU162
.LBB177:
	.loc 1 22 0 discriminator 132 view .LVU163
	.loc 1 22 0 discriminator 132 view .LVU164
	.loc 1 22 0 discriminator 132 view .LVU165
	.loc 1 22 0 discriminator 132 view .LVU166
.LBB178:
	.loc 1 22 0 discriminator 132 view .LVU167
	ldr	r1, [r6, #4]
.LVL9:
	.loc 1 22 0 discriminator 132 view .LVU168
	.loc 1 22 0 discriminator 132 view .LVU169
	.loc 1 22 0 is_stmt 0 discriminator 132 view .LVU170
.LBE178:
	.loc 1 22 0 is_stmt 1 discriminator 132 view .LVU171
	.loc 1 22 0 discriminator 132 view .LVU172
	cbz	r3, .L5
	.loc 1 22 0 is_stmt 0 discriminator 140 view .LVU173
	cmp	r2, #12
	ble	.L5
	.loc 1 22 0 is_stmt 1 discriminator 145 view .LVU174
	.loc 1 22 0 discriminator 145 view .LVU175
	.loc 1 22 0 discriminator 145 view .LVU176
	str	r1, [r0, #24]
.L5:
	.loc 1 22 0 discriminator 146 view .LVU177
	.loc 1 22 0 discriminator 146 view .LVU178
.LVL10:
	.loc 1 22 0 discriminator 146 view .LVU179
	.loc 1 22 0 is_stmt 0 discriminator 146 view .LVU180
.LBE177:
	.loc 1 22 0 is_stmt 1 discriminator 146 view .LVU181
	.loc 1 22 0 discriminator 146 view .LVU182
.LBB179:
	.loc 1 22 0 discriminator 146 view .LVU183
	.loc 1 22 0 discriminator 146 view .LVU184
	.loc 1 22 0 discriminator 146 view .LVU185
	.loc 1 22 0 discriminator 146 view .LVU186
.LBB180:
	.loc 1 22 0 discriminator 146 view .LVU187
	ldr	r1, [r6, #8]
.LVL11:
	.loc 1 22 0 discriminator 146 view .LVU188
	.loc 1 22 0 discriminator 146 view .LVU189
	.loc 1 22 0 is_stmt 0 discriminator 146 view .LVU190
.LBE180:
	.loc 1 22 0 is_stmt 1 discriminator 146 view .LVU191
	.loc 1 22 0 discriminator 146 view .LVU192
	cbz	r3, .L6
	.loc 1 22 0 is_stmt 0 discriminator 154 view .LVU193
	cmp	r2, #16
	ble	.L6
	.loc 1 22 0 is_stmt 1 discriminator 159 view .LVU194
	.loc 1 22 0 discriminator 159 view .LVU195
	.loc 1 22 0 discriminator 159 view .LVU196
	str	r1, [r0, #28]
.L6:
	.loc 1 22 0 discriminator 160 view .LVU197
	.loc 1 22 0 discriminator 160 view .LVU198
.LVL12:
	.loc 1 22 0 discriminator 160 view .LVU199
	.loc 1 22 0 is_stmt 0 discriminator 160 view .LVU200
.LBE179:
	.loc 1 22 0 is_stmt 1 discriminator 160 view .LVU201
	.loc 1 22 0 discriminator 160 view .LVU202
	.loc 1 22 0 discriminator 160 view .LVU203
	.loc 1 22 0 discriminator 160 view .LVU204
	.loc 1 22 1 is_stmt 0 discriminator 160 view .LVU205
	cmp	r2, #19
	ble	.L31
	.loc 1 22 1 view .LVU206
	movs	r1, #20
.LVL13:
.L7:
	.loc 1 22 15 is_stmt 1 discriminator 172 view .LVU207
	.loc 1 22 18 is_stmt 0 discriminator 172 view .LVU208
	cbz	r3, .L8
.LBB181:
	.loc 1 22 28 is_stmt 1 discriminator 173 view .LVU209
	.loc 1 22 49 is_stmt 0 discriminator 173 view .LVU210
	movs	r3, #0
.LVL14:
	.loc 1 22 49 discriminator 173 view .LVU211
	strh	r3, [r7, #5]	@ unaligned
	strb	r3, [r7, #7]
	movs	r2, #5
	strb	r2, [r7, #4]
	strb	r3, [r7, #6]
	.loc 1 22 174 is_stmt 1 discriminator 173 view .LVU212
	.loc 1 22 184 is_stmt 0 discriminator 173 view .LVU213
	ldr	r3, [r7, #4]
	str	r3, [r0, #12]
.L8:
	.loc 1 22 184 discriminator 173 view .LVU214
.LBE181:
.LBE182:
	.loc 1 22 10 is_stmt 1 discriminator 2 view .LVU215
	.loc 1 22 17 discriminator 2 view .LVU216
	.loc 1 22 38 is_stmt 0 discriminator 2 view .LVU217
	movs	r2, #0
.LVL15:
	.loc 1 22 38 discriminator 2 view .LVU218
	bfc	r2, #0, #1
.LVL16:
	.loc 1 22 38 discriminator 2 view .LVU219
	bfc	r2, #1, #1
	bfc	r2, #2, #1
	bfc	r2, #3, #3
	movs	r3, #1
	bfi	r2, r3, #6, #3
	.loc 1 22 123 discriminator 2 view .LVU220
	and	r3, r1, #1012
	.loc 1 22 38 discriminator 2 view .LVU221
	bfi	r2, r3, #9, #10
	.loc 1 22 173 is_stmt 1 discriminator 2 view .LVU222
	movs	r3, #0
	ubfx	r2, r2, #0, #19
.LVL17:
	.loc 1 22 173 is_stmt 0 discriminator 2 view .LVU223
	ldr	r1, .L40+4
.LVL18:
	.loc 1 22 173 discriminator 2 view .LVU224
	bl	z_log_msg2_finalize
.LVL19:
	.loc 1 22 173 discriminator 2 view .LVU225
	mov	sp, r4
.LVL20:
	.loc 1 22 173 discriminator 2 view .LVU226
.LBE185:
	.loc 1 22 12 is_stmt 1 discriminator 2 view .LVU227
	.loc 1 22 17 discriminator 2 view .LVU228
	.loc 1 22 57 discriminator 2 view .LVU229
.LBE189:
	.loc 1 22 12 discriminator 2 view .LVU230
	.loc 1 22 19 discriminator 2 view .LVU231
	.loc 1 22 19 is_stmt 0 discriminator 2 view .LVU232
.LBE194:
	.loc 1 22 136 is_stmt 1 discriminator 2 view .LVU233
	.loc 1 24 2 discriminator 2 view .LVU234
.LBB195:
	.loc 1 24 7 discriminator 2 view .LVU235
	.loc 1 24 56 discriminator 2 view .LVU236
	.loc 1 24 13 discriminator 2 view .LVU237
	.loc 1 24 1 discriminator 2 view .LVU238
.LBE195:
	.loc 2 120 2 discriminator 2 view .LVU239
.LBB217:
	.loc 1 24 40 discriminator 2 view .LVU240
	.loc 1 24 106 discriminator 2 view .LVU241
	.loc 1 24 205 discriminator 2 view .LVU242
.LBB196:
	.loc 1 24 214 discriminator 2 view .LVU243
	.loc 1 24 225 discriminator 2 view .LVU244
	.loc 1 24 313 discriminator 2 view .LVU245
	.loc 1 24 318 discriminator 2 view .LVU246
	.loc 1 24 320 discriminator 2 view .LVU247
.LBE196:
.LBE217:
	.loc 1 24 2 discriminator 2 view .LVU248
	.loc 1 24 2 discriminator 2 view .LVU249
.LBB218:
.LBB213:
	.loc 1 24 144 discriminator 2 view .LVU250
.LBB197:
	.loc 1 24 149 discriminator 2 view .LVU251
	.loc 1 24 160 discriminator 2 view .LVU252
.LBE197:
.LBE213:
.LBE218:
	.loc 1 24 2 discriminator 2 view .LVU253
	.loc 1 24 216 discriminator 2 view .LVU254
	.loc 1 24 1 discriminator 2 view .LVU255
	.loc 1 24 30 discriminator 2 view .LVU256
	.loc 1 24 3 discriminator 2 view .LVU257
	.loc 1 24 23 discriminator 2 view .LVU258
	.loc 1 24 47 discriminator 2 view .LVU259
	.loc 1 24 22 discriminator 2 view .LVU260
	.loc 1 24 40 discriminator 2 view .LVU261
	.loc 1 24 60 discriminator 2 view .LVU262
	.loc 1 24 107 discriminator 2 view .LVU263
	.loc 1 24 139 discriminator 2 view .LVU264
	.loc 1 24 12 discriminator 2 view .LVU265
	.loc 1 24 54 discriminator 2 view .LVU266
	.loc 1 24 96 discriminator 2 view .LVU267
	.loc 1 24 141 discriminator 2 view .LVU268
	.loc 1 24 146 discriminator 2 view .LVU269
	.loc 1 24 416 discriminator 2 view .LVU270
	.loc 1 24 422 discriminator 2 view .LVU271
	.loc 1 24 1607 discriminator 2 view .LVU272
	.loc 1 24 1631 discriminator 2 view .LVU273
	.loc 1 24 1704 discriminator 2 view .LVU274
	.loc 1 24 1834 discriminator 2 view .LVU275
	.loc 1 24 1849 discriminator 2 view .LVU276
	.loc 1 24 2152 discriminator 2 view .LVU277
	.loc 1 24 2200 discriminator 2 view .LVU278
	.loc 1 24 3628 discriminator 2 view .LVU279
	.loc 1 24 3635 discriminator 2 view .LVU280
	.loc 1 24 3658 discriminator 2 view .LVU281
	.loc 1 24 3692 discriminator 2 view .LVU282
	.loc 1 24 3698 discriminator 2 view .LVU283
	.loc 1 24 3703 discriminator 2 view .LVU284
	.loc 1 24 3938 discriminator 2 view .LVU285
	.loc 1 24 3944 discriminator 2 view .LVU286
	.loc 1 24 0 discriminator 2 view .LVU287
	.loc 1 24 0 discriminator 2 view .LVU288
	.loc 1 24 0 discriminator 2 view .LVU289
	.loc 1 24 0 discriminator 2 view .LVU290
	.loc 1 24 0 discriminator 2 view .LVU291
	.loc 1 24 0 discriminator 2 view .LVU292
	.loc 1 24 0 discriminator 2 view .LVU293
	.loc 1 24 0 discriminator 2 view .LVU294
	.loc 1 24 0 discriminator 2 view .LVU295
	.loc 1 24 0 discriminator 2 view .LVU296
	.loc 1 24 0 discriminator 2 view .LVU297
	.loc 1 24 0 discriminator 2 view .LVU298
	.loc 1 24 0 discriminator 2 view .LVU299
	.loc 1 24 0 discriminator 2 view .LVU300
	.loc 1 24 0 discriminator 2 view .LVU301
	.loc 1 24 0 discriminator 2 view .LVU302
	.loc 1 24 0 discriminator 2 view .LVU303
	.loc 1 24 0 discriminator 2 view .LVU304
	.loc 1 24 0 discriminator 2 view .LVU305
	.loc 1 24 0 discriminator 2 view .LVU306
	.loc 1 24 0 discriminator 2 view .LVU307
	.loc 1 24 0 discriminator 2 view .LVU308
	.loc 1 24 0 discriminator 2 view .LVU309
	.loc 1 24 0 discriminator 2 view .LVU310
	.loc 1 24 0 discriminator 2 view .LVU311
	.loc 1 24 0 discriminator 2 view .LVU312
	.loc 1 24 0 discriminator 2 view .LVU313
	.loc 1 24 0 discriminator 2 view .LVU314
	.loc 1 24 0 discriminator 2 view .LVU315
	.loc 1 24 0 discriminator 2 view .LVU316
	.loc 1 24 0 discriminator 2 view .LVU317
	.loc 1 24 0 discriminator 2 view .LVU318
	.loc 1 24 0 discriminator 2 view .LVU319
	.loc 1 24 0 discriminator 2 view .LVU320
	.loc 1 24 0 discriminator 2 view .LVU321
	.loc 1 24 0 discriminator 2 view .LVU322
	.loc 1 24 0 discriminator 2 view .LVU323
	.loc 1 24 0 discriminator 2 view .LVU324
	.loc 1 24 0 discriminator 2 view .LVU325
	.loc 1 24 0 discriminator 2 view .LVU326
	.loc 1 24 0 discriminator 2 view .LVU327
	.loc 1 24 15 discriminator 2 view .LVU328
.LBB219:
.LBB214:
.LBB210:
	.loc 1 24 10 discriminator 2 view .LVU329
	.loc 1 24 15 discriminator 2 view .LVU330
	.loc 1 24 38 discriminator 2 view .LVU331
	.loc 1 24 74 is_stmt 0 discriminator 2 view .LVU332
	mov	r4, sp
.LVL21:
	.loc 1 24 158 is_stmt 1 discriminator 2 view .LVU333
	.loc 1 24 170 is_stmt 0 discriminator 2 view .LVU334
	sub	sp, sp, #32
	mov	r0, sp
.LVL22:
	.loc 1 24 284 is_stmt 1 discriminator 2 view .LVU335
	.loc 1 24 487 discriminator 2 view .LVU336
	.loc 1 24 4 discriminator 2 view .LVU337
	.loc 1 24 6 discriminator 2 view .LVU338
	.loc 1 24 19 discriminator 2 view .LVU339
.LBB198:
	.loc 1 24 2 discriminator 2 view .LVU340
	.loc 1 24 216 discriminator 2 view .LVU341
	.loc 1 24 1 discriminator 2 view .LVU342
	.loc 1 24 30 discriminator 2 view .LVU343
	.loc 1 24 59 discriminator 2 view .LVU344
	.loc 1 24 79 discriminator 2 view .LVU345
	.loc 1 24 103 discriminator 2 view .LVU346
	.loc 1 24 11 is_stmt 0 discriminator 2 view .LVU347
	adds	r3, r0, #12
.LVL23:
	.loc 1 24 11 discriminator 2 view .LVU348
	beq	.L37
	.loc 1 24 11 view .LVU349
	movs	r2, #20
.L9:
	.loc 1 24 12 is_stmt 1 discriminator 108 view .LVU350
.LVL24:
	.loc 1 24 54 discriminator 108 view .LVU351
	.loc 1 24 96 discriminator 108 view .LVU352
	.loc 1 24 141 discriminator 108 view .LVU353
.LBB199:
	.loc 1 24 146 discriminator 108 view .LVU354
	.loc 1 24 416 discriminator 108 view .LVU355
	.loc 1 24 422 discriminator 108 view .LVU356
	.loc 1 24 1607 discriminator 108 view .LVU357
.LBE199:
.LBE198:
.LBE210:
.LBE214:
.LBE219:
	.loc 1 24 1631 discriminator 108 view .LVU358
	.loc 1 24 1704 discriminator 108 view .LVU359
	.loc 1 24 1834 discriminator 108 view .LVU360
.LBB220:
.LBB215:
.LBB211:
.LBB208:
.LBB200:
	.loc 1 24 1849 discriminator 108 view .LVU361
	.loc 1 24 2152 discriminator 108 view .LVU362
	.loc 1 24 2200 discriminator 108 view .LVU363
	.loc 1 24 2203 is_stmt 0 discriminator 108 view .LVU364
	cbz	r3, .L10
	.loc 1 24 2210 discriminator 112 view .LVU365
	cmp	r2, #4
	ble	.L10
	.loc 1 24 2238 is_stmt 1 discriminator 117 view .LVU366
	.loc 1 24 2243 discriminator 117 view .LVU367
	.loc 1 24 2922 discriminator 117 view .LVU368
	.loc 1 24 3566 is_stmt 0 discriminator 117 view .LVU369
	ldr	r1, .L40+8
	str	r1, [r0, #16]
.LVL25:
.L10:
	.loc 1 24 3628 is_stmt 1 discriminator 118 view .LVU370
	.loc 1 24 3635 discriminator 118 view .LVU371
	.loc 1 24 3658 discriminator 118 view .LVU372
	.loc 1 24 3658 is_stmt 0 discriminator 118 view .LVU373
.LBE200:
	.loc 1 24 3692 is_stmt 1 discriminator 118 view .LVU374
	.loc 1 24 3698 discriminator 118 view .LVU375
.LBB201:
	.loc 1 24 3703 discriminator 118 view .LVU376
	.loc 1 24 3938 discriminator 118 view .LVU377
	.loc 1 24 3944 discriminator 118 view .LVU378
	.loc 1 24 0 discriminator 118 view .LVU379
.LBB202:
	.loc 1 24 0 discriminator 118 view .LVU380
	ldr	r1, [r6, #12]
.LVL26:
	.loc 1 24 0 discriminator 118 view .LVU381
	.loc 1 24 0 discriminator 118 view .LVU382
	.loc 1 24 0 is_stmt 0 discriminator 118 view .LVU383
.LBE202:
	.loc 1 24 0 is_stmt 1 discriminator 118 view .LVU384
	.loc 1 24 0 discriminator 118 view .LVU385
	cbz	r3, .L11
	.loc 1 24 0 is_stmt 0 discriminator 126 view .LVU386
	cmp	r2, #8
	ble	.L11
	.loc 1 24 0 is_stmt 1 discriminator 131 view .LVU387
	.loc 1 24 0 discriminator 131 view .LVU388
	.loc 1 24 0 discriminator 131 view .LVU389
	str	r1, [r0, #20]
.L11:
	.loc 1 24 0 discriminator 132 view .LVU390
	.loc 1 24 0 discriminator 132 view .LVU391
.LVL27:
	.loc 1 24 0 discriminator 132 view .LVU392
	.loc 1 24 0 is_stmt 0 discriminator 132 view .LVU393
.LBE201:
	.loc 1 24 0 is_stmt 1 discriminator 132 view .LVU394
	.loc 1 24 0 discriminator 132 view .LVU395
.LBB203:
	.loc 1 24 0 discriminator 132 view .LVU396
	.loc 1 24 0 discriminator 132 view .LVU397
	.loc 1 24 0 discriminator 132 view .LVU398
	.loc 1 24 0 discriminator 132 view .LVU399
.LBB204:
	.loc 1 24 0 discriminator 132 view .LVU400
	ldr	r1, [r6, #16]
.LVL28:
	.loc 1 24 0 discriminator 132 view .LVU401
	.loc 1 24 0 discriminator 132 view .LVU402
	.loc 1 24 0 is_stmt 0 discriminator 132 view .LVU403
.LBE204:
	.loc 1 24 0 is_stmt 1 discriminator 132 view .LVU404
	.loc 1 24 0 discriminator 132 view .LVU405
	cbz	r3, .L12
	.loc 1 24 0 is_stmt 0 discriminator 140 view .LVU406
	cmp	r2, #12
	ble	.L12
	.loc 1 24 0 is_stmt 1 discriminator 145 view .LVU407
	.loc 1 24 0 discriminator 145 view .LVU408
	.loc 1 24 0 discriminator 145 view .LVU409
	str	r1, [r0, #24]
.L12:
	.loc 1 24 0 discriminator 146 view .LVU410
	.loc 1 24 0 discriminator 146 view .LVU411
.LVL29:
	.loc 1 24 0 discriminator 146 view .LVU412
	.loc 1 24 0 is_stmt 0 discriminator 146 view .LVU413
.LBE203:
	.loc 1 24 0 is_stmt 1 discriminator 146 view .LVU414
	.loc 1 24 0 discriminator 146 view .LVU415
.LBB205:
	.loc 1 24 0 discriminator 146 view .LVU416
	.loc 1 24 0 discriminator 146 view .LVU417
	.loc 1 24 0 discriminator 146 view .LVU418
	.loc 1 24 0 discriminator 146 view .LVU419
.LBB206:
	.loc 1 24 0 discriminator 146 view .LVU420
	ldr	r1, [r6, #20]
.LVL30:
	.loc 1 24 0 discriminator 146 view .LVU421
	.loc 1 24 0 discriminator 146 view .LVU422
	.loc 1 24 0 is_stmt 0 discriminator 146 view .LVU423
.LBE206:
	.loc 1 24 0 is_stmt 1 discriminator 146 view .LVU424
	.loc 1 24 0 discriminator 146 view .LVU425
	cbz	r3, .L13
	.loc 1 24 0 is_stmt 0 discriminator 154 view .LVU426
	cmp	r2, #16
	ble	.L13
	.loc 1 24 0 is_stmt 1 discriminator 159 view .LVU427
	.loc 1 24 0 discriminator 159 view .LVU428
	.loc 1 24 0 discriminator 159 view .LVU429
	str	r1, [r0, #28]
.L13:
	.loc 1 24 0 discriminator 160 view .LVU430
	.loc 1 24 0 discriminator 160 view .LVU431
.LVL31:
	.loc 1 24 0 discriminator 160 view .LVU432
	.loc 1 24 0 is_stmt 0 discriminator 160 view .LVU433
.LBE205:
	.loc 1 24 0 is_stmt 1 discriminator 160 view .LVU434
	.loc 1 24 0 discriminator 160 view .LVU435
	.loc 1 24 0 discriminator 160 view .LVU436
	.loc 1 24 0 discriminator 160 view .LVU437
	.loc 1 24 1 is_stmt 0 discriminator 160 view .LVU438
	cmp	r2, #19
	ble	.L33
	.loc 1 24 1 view .LVU439
	movs	r1, #20
.LVL32:
.L14:
	.loc 1 24 15 is_stmt 1 discriminator 172 view .LVU440
	.loc 1 24 18 is_stmt 0 discriminator 172 view .LVU441
	cbz	r3, .L15
.LBB207:
	.loc 1 24 28 is_stmt 1 discriminator 173 view .LVU442
	.loc 1 24 49 is_stmt 0 discriminator 173 view .LVU443
	movs	r3, #0
.LVL33:
	.loc 1 24 49 discriminator 173 view .LVU444
	strh	r3, [r7, #5]	@ unaligned
	strb	r3, [r7, #7]
	movs	r2, #5
	strb	r2, [r7, #4]
	strb	r3, [r7, #6]
	.loc 1 24 174 is_stmt 1 discriminator 173 view .LVU445
	.loc 1 24 184 is_stmt 0 discriminator 173 view .LVU446
	ldr	r3, [r7, #4]
	str	r3, [r0, #12]
.L15:
	.loc 1 24 184 discriminator 173 view .LVU447
.LBE207:
.LBE208:
	.loc 1 24 10 is_stmt 1 discriminator 4 view .LVU448
	.loc 1 24 17 discriminator 4 view .LVU449
	.loc 1 24 38 is_stmt 0 discriminator 4 view .LVU450
	movs	r2, #0
.LVL34:
	.loc 1 24 38 discriminator 4 view .LVU451
	bfc	r2, #0, #1
.LVL35:
	.loc 1 24 38 discriminator 4 view .LVU452
	bfc	r2, #1, #1
	bfc	r2, #2, #1
	bfc	r2, #3, #3
	mov	r9, #1
	bfi	r2, r9, #6, #3
	.loc 1 24 123 discriminator 4 view .LVU453
	and	r3, r1, #1012
	.loc 1 24 38 discriminator 4 view .LVU454
	bfi	r2, r3, #9, #10
	.loc 1 24 173 is_stmt 1 discriminator 4 view .LVU455
	ldr	r8, .L40+4
	movs	r3, #0
	ubfx	r2, r2, #0, #19
.LVL36:
	.loc 1 24 173 is_stmt 0 discriminator 4 view .LVU456
	mov	r1, r8
.LVL37:
	.loc 1 24 173 discriminator 4 view .LVU457
	bl	z_log_msg2_finalize
.LVL38:
	.loc 1 24 173 discriminator 4 view .LVU458
	mov	sp, r4
.LVL39:
	.loc 1 24 173 discriminator 4 view .LVU459
.LBE211:
	.loc 1 24 12 is_stmt 1 discriminator 4 view .LVU460
	.loc 1 24 17 discriminator 4 view .LVU461
	.loc 1 24 57 discriminator 4 view .LVU462
.LBE215:
	.loc 1 24 12 discriminator 4 view .LVU463
	.loc 1 24 19 discriminator 4 view .LVU464
	.loc 1 24 19 is_stmt 0 discriminator 4 view .LVU465
.LBE220:
	.loc 1 24 136 is_stmt 1 discriminator 4 view .LVU466
	.loc 1 26 2 discriminator 4 view .LVU467
.LBB221:
	.loc 1 26 7 discriminator 4 view .LVU468
	.loc 1 26 56 discriminator 4 view .LVU469
	.loc 1 26 13 discriminator 4 view .LVU470
	.loc 1 26 1 discriminator 4 view .LVU471
.LBE221:
	.loc 2 120 2 discriminator 4 view .LVU472
.LBB243:
	.loc 1 26 40 discriminator 4 view .LVU473
	.loc 1 26 106 discriminator 4 view .LVU474
	.loc 1 26 205 discriminator 4 view .LVU475
.LBB222:
	.loc 1 26 214 discriminator 4 view .LVU476
	.loc 1 26 225 discriminator 4 view .LVU477
	.loc 1 26 313 discriminator 4 view .LVU478
	.loc 1 26 318 discriminator 4 view .LVU479
	.loc 1 26 320 discriminator 4 view .LVU480
.LBE222:
.LBE243:
	.loc 1 26 2 discriminator 4 view .LVU481
	.loc 1 26 2 discriminator 4 view .LVU482
.LBB244:
.LBB239:
	.loc 1 26 84 discriminator 4 view .LVU483
.LBB223:
	.loc 1 26 89 discriminator 4 view .LVU484
	.loc 1 26 100 discriminator 4 view .LVU485
.LBB224:
	.loc 1 26 2 discriminator 4 view .LVU486
	.loc 1 26 216 discriminator 4 view .LVU487
	.loc 1 26 1 discriminator 4 view .LVU488
	.loc 1 26 30 discriminator 4 view .LVU489
	.loc 1 26 3 discriminator 4 view .LVU490
	.loc 1 26 23 discriminator 4 view .LVU491
	.loc 1 26 47 discriminator 4 view .LVU492
	.loc 1 26 22 discriminator 4 view .LVU493
	.loc 1 26 40 discriminator 4 view .LVU494
	.loc 1 26 60 discriminator 4 view .LVU495
	.loc 1 26 107 discriminator 4 view .LVU496
	.loc 1 26 139 discriminator 4 view .LVU497
	.loc 1 26 12 discriminator 4 view .LVU498
	.loc 1 26 54 discriminator 4 view .LVU499
	.loc 1 26 96 discriminator 4 view .LVU500
	.loc 1 26 141 discriminator 4 view .LVU501
.LBE224:
.LBE223:
.LBE239:
.LBE244:
	.loc 1 26 146 discriminator 4 view .LVU502
	.loc 1 26 384 discriminator 4 view .LVU503
	.loc 1 26 390 discriminator 4 view .LVU504
	.loc 1 26 1447 discriminator 4 view .LVU505
	.loc 1 26 1471 discriminator 4 view .LVU506
	.loc 1 26 1512 discriminator 4 view .LVU507
	.loc 1 26 1610 discriminator 4 view .LVU508
	.loc 1 26 1625 discriminator 4 view .LVU509
	.loc 1 26 1896 discriminator 4 view .LVU510
	.loc 1 26 1944 discriminator 4 view .LVU511
	.loc 1 26 3116 discriminator 4 view .LVU512
	.loc 1 26 3123 discriminator 4 view .LVU513
	.loc 1 26 3146 discriminator 4 view .LVU514
.LBB245:
.LBB240:
.LBB236:
.LBB227:
	.loc 1 26 3180 discriminator 4 view .LVU515
	.loc 1 26 3186 discriminator 4 view .LVU516
.LBB225:
	.loc 1 26 3191 discriminator 4 view .LVU517
	.loc 1 26 3428 discriminator 4 view .LVU518
	.loc 1 26 3434 discriminator 4 view .LVU519
	.loc 1 26 0 discriminator 4 view .LVU520
.LBB226:
	.loc 1 26 0 discriminator 4 view .LVU521
	ldr	r3, [r6, #28]
.LVL40:
	.loc 1 26 0 discriminator 4 view .LVU522
	.loc 1 26 0 discriminator 4 view .LVU523
	.loc 1 26 0 is_stmt 0 discriminator 4 view .LVU524
.LBE226:
	.loc 1 26 0 is_stmt 1 discriminator 4 view .LVU525
	.loc 1 26 0 discriminator 4 view .LVU526
	.loc 1 26 0 discriminator 4 view .LVU527
	.loc 1 26 0 discriminator 4 view .LVU528
	.loc 1 26 0 discriminator 4 view .LVU529
	.loc 1 26 0 is_stmt 0 discriminator 4 view .LVU530
.LBE225:
	.loc 1 26 0 is_stmt 1 discriminator 4 view .LVU531
	.loc 1 26 0 discriminator 4 view .LVU532
	.loc 1 26 0 discriminator 4 view .LVU533
	.loc 1 26 0 discriminator 4 view .LVU534
	.loc 1 26 15 discriminator 4 view .LVU535
	.loc 1 26 15 is_stmt 0 discriminator 4 view .LVU536
.LBE227:
	.loc 1 26 10 is_stmt 1 discriminator 4 view .LVU537
	.loc 1 26 15 discriminator 4 view .LVU538
	.loc 1 26 38 discriminator 4 view .LVU539
	.loc 1 26 158 discriminator 4 view .LVU540
	.loc 1 26 284 discriminator 4 view .LVU541
	.loc 1 26 487 discriminator 4 view .LVU542
	.loc 1 26 4 discriminator 4 view .LVU543
	.loc 1 26 6 discriminator 4 view .LVU544
	.loc 1 26 19 discriminator 4 view .LVU545
.LBB228:
	.loc 1 26 2 discriminator 4 view .LVU546
	.loc 1 26 216 discriminator 4 view .LVU547
	.loc 1 26 1 discriminator 4 view .LVU548
	.loc 1 26 30 discriminator 4 view .LVU549
	.loc 1 26 59 discriminator 4 view .LVU550
	.loc 1 26 79 discriminator 4 view .LVU551
	.loc 1 26 103 discriminator 4 view .LVU552
	.loc 1 26 26 discriminator 4 view .LVU553
	.loc 1 26 44 discriminator 4 view .LVU554
	.loc 1 26 64 discriminator 4 view .LVU555
	.loc 1 26 111 discriminator 4 view .LVU556
	.loc 1 26 143 discriminator 4 view .LVU557
	.loc 1 26 12 discriminator 4 view .LVU558
	.loc 1 26 54 discriminator 4 view .LVU559
	.loc 1 26 96 discriminator 4 view .LVU560
	.loc 1 26 141 discriminator 4 view .LVU561
.LBB229:
	.loc 1 26 146 discriminator 4 view .LVU562
	.loc 1 26 384 discriminator 4 view .LVU563
	.loc 1 26 390 discriminator 4 view .LVU564
	.loc 1 26 1447 discriminator 4 view .LVU565
.LBE229:
.LBE228:
.LBE236:
.LBE240:
.LBE245:
	.loc 1 26 1471 discriminator 4 view .LVU566
	.loc 1 26 1512 discriminator 4 view .LVU567
	.loc 1 26 1610 discriminator 4 view .LVU568
.LBB246:
.LBB241:
.LBB237:
.LBB234:
.LBB230:
	.loc 1 26 1625 discriminator 4 view .LVU569
	.loc 1 26 1896 discriminator 4 view .LVU570
	.loc 1 26 1944 discriminator 4 view .LVU571
	.loc 1 26 1982 discriminator 4 view .LVU572
	.loc 1 26 1987 discriminator 4 view .LVU573
	.loc 1 26 2474 discriminator 4 view .LVU574
	.loc 1 26 3086 is_stmt 0 discriminator 4 view .LVU575
	ldr	r2, .L40+12
	str	r2, [r7, #24]
	.loc 1 26 3116 is_stmt 1 discriminator 4 view .LVU576
	.loc 1 26 3123 discriminator 4 view .LVU577
.LVL41:
	.loc 1 26 3146 discriminator 4 view .LVU578
	.loc 1 26 3146 is_stmt 0 discriminator 4 view .LVU579
.LBE230:
	.loc 1 26 3180 is_stmt 1 discriminator 4 view .LVU580
	.loc 1 26 3186 discriminator 4 view .LVU581
.LBB231:
	.loc 1 26 3191 discriminator 4 view .LVU582
	.loc 1 26 3428 discriminator 4 view .LVU583
	.loc 1 26 3434 discriminator 4 view .LVU584
	.loc 1 26 0 discriminator 4 view .LVU585
.LBE231:
.LBE234:
.LBE237:
.LBE241:
.LBE246:
	.loc 1 26 0 discriminator 4 view .LVU586
	.loc 1 26 0 discriminator 4 view .LVU587
	.loc 1 26 0 discriminator 4 view .LVU588
.LBB247:
.LBB242:
.LBB238:
.LBB235:
.LBB232:
	.loc 1 26 0 discriminator 4 view .LVU589
	.loc 1 26 0 discriminator 4 view .LVU590
	.loc 1 26 0 discriminator 4 view .LVU591
	.loc 1 26 0 discriminator 4 view .LVU592
	.loc 1 26 0 discriminator 4 view .LVU593
	str	r3, [r7, #28]
	.loc 1 26 0 discriminator 4 view .LVU594
	.loc 1 26 0 discriminator 4 view .LVU595
.LVL42:
	.loc 1 26 0 discriminator 4 view .LVU596
	.loc 1 26 0 is_stmt 0 discriminator 4 view .LVU597
.LBE232:
	.loc 1 26 0 is_stmt 1 discriminator 4 view .LVU598
	.loc 1 26 0 discriminator 4 view .LVU599
	.loc 1 26 0 discriminator 4 view .LVU600
	.loc 1 26 0 discriminator 4 view .LVU601
	.loc 1 26 15 discriminator 4 view .LVU602
.LBB233:
	.loc 1 26 28 discriminator 4 view .LVU603
	.loc 1 26 49 is_stmt 0 discriminator 4 view .LVU604
	movs	r4, #0
.LVL43:
	.loc 1 26 49 discriminator 4 view .LVU605
	strh	r4, [r7, #5]	@ unaligned
	strb	r4, [r7, #7]
	movs	r3, #3
.LVL44:
	.loc 1 26 49 discriminator 4 view .LVU606
	strb	r3, [r7, #4]
	strb	r4, [r7, #6]
	.loc 1 26 174 is_stmt 1 discriminator 4 view .LVU607
	.loc 1 26 184 is_stmt 0 discriminator 4 view .LVU608
	ldr	r3, [r7, #4]
	str	r3, [r7, #20]
	.loc 1 26 184 discriminator 4 view .LVU609
.LBE233:
.LBE235:
	.loc 1 26 10 is_stmt 1 discriminator 4 view .LVU610
	.loc 1 26 17 discriminator 4 view .LVU611
	.loc 1 26 38 is_stmt 0 discriminator 4 view .LVU612
	mov	r2, r4
.LVL45:
	.loc 1 26 38 discriminator 4 view .LVU613
	bfi	r2, r4, #0, #1
.LVL46:
	.loc 1 26 38 discriminator 4 view .LVU614
	bfi	r2, r4, #1, #1
	bfi	r2, r4, #2, #1
	bfi	r2, r4, #3, #3
	bfi	r2, r9, #6, #3
	movs	r3, #12
	bfi	r2, r3, #9, #10
	.loc 1 26 173 is_stmt 1 discriminator 4 view .LVU615
	mov	r3, r4
	ubfx	r2, r2, #0, #19
.LVL47:
	.loc 1 26 173 is_stmt 0 discriminator 4 view .LVU616
	mov	r1, r8
	add	r0, r7, #8
.LVL48:
	.loc 1 26 173 discriminator 4 view .LVU617
	bl	z_log_msg2_finalize
.LVL49:
	.loc 1 26 173 discriminator 4 view .LVU618
.LBE238:
	.loc 1 26 12 is_stmt 1 discriminator 4 view .LVU619
	.loc 1 26 17 discriminator 4 view .LVU620
.LVL50:
	.loc 1 26 57 discriminator 4 view .LVU621
.LBE242:
	.loc 1 26 12 discriminator 4 view .LVU622
	.loc 1 26 19 discriminator 4 view .LVU623
	.loc 1 26 19 is_stmt 0 discriminator 4 view .LVU624
.LBE247:
	.loc 1 26 76 is_stmt 1 discriminator 4 view .LVU625
	.loc 1 28 2 discriminator 4 view .LVU626
.LBB248:
	.loc 1 28 7 discriminator 4 view .LVU627
	.loc 1 28 2 is_stmt 0 discriminator 4 view .LVU628
	b	.L16
.LVL51:
.L30:
	.loc 1 28 2 discriminator 4 view .LVU629
.LBE248:
.LBB331:
.LBB190:
.LBB186:
.LBB183:
	.loc 1 22 11 view .LVU630
	mvn	r2, #-2147483648
	b	.L2
.LVL52:
.L31:
	.loc 1 22 1 view .LVU631
	mvn	r1, #27
.LVL53:
	.loc 1 22 1 view .LVU632
	b	.L7
.LVL54:
.L37:
	.loc 1 22 1 view .LVU633
.LBE183:
.LBE186:
.LBE190:
.LBE331:
.LBB332:
.LBB216:
.LBB212:
.LBB209:
	.loc 1 24 11 view .LVU634
	mvn	r2, #-2147483648
	b	.L9
.LVL55:
.L33:
	.loc 1 24 1 view .LVU635
	mvn	r1, #27
.LVL56:
	.loc 1 24 1 view .LVU636
	b	.L14
.LVL57:
.L39:
	.loc 1 24 1 view .LVU637
.LBE209:
.LBE212:
.LBE216:
.LBE332:
.LBB333:
.LBB249:
.LBB250:
.LBB251:
.LBB252:
	.loc 1 29 12 view .LVU638
	mvn	r3, #-2147483648
	b	.L17
.LVL58:
.L26:
.LBB253:
	.loc 1 29 0 is_stmt 1 discriminator 300 view .LVU639
	.loc 1 29 0 discriminator 300 view .LVU640
	.loc 1 29 0 discriminator 300 view .LVU641
	.loc 1 29 0 is_stmt 0 discriminator 300 view .LVU642
.LBE253:
	.loc 1 29 0 is_stmt 1 discriminator 300 view .LVU643
	.loc 1 29 0 discriminator 300 view .LVU644
	.loc 1 29 0 discriminator 300 view .LVU645
	.loc 1 29 0 discriminator 300 view .LVU646
	.loc 1 29 2 is_stmt 0 discriminator 300 view .LVU647
	cmp	r3, #39
	ble	.L35
	.loc 1 29 2 view .LVU648
	movs	r3, #40
.L27:
.LVL59:
	.loc 1 29 16 is_stmt 1 discriminator 312 view .LVU649
	.loc 1 29 19 is_stmt 0 discriminator 312 view .LVU650
	cbz	r2, .L28
.LBB255:
	.loc 1 29 29 is_stmt 1 discriminator 313 view .LVU651
	.loc 1 29 50 is_stmt 0 discriminator 313 view .LVU652
	movs	r2, #0
.LVL60:
	.loc 1 29 50 discriminator 313 view .LVU653
	strh	r2, [r7, #5]	@ unaligned
	strb	r2, [r7, #7]
	movs	r1, #10
	strb	r1, [r7, #4]
	strb	r2, [r7, #6]
	.loc 1 29 175 is_stmt 1 discriminator 313 view .LVU654
	.loc 1 29 185 is_stmt 0 discriminator 313 view .LVU655
	ldr	r2, [r7, #4]
	str	r2, [r0, #12]
.L28:
	.loc 1 29 185 discriminator 313 view .LVU656
.LBE255:
.LBE252:
	.loc 1 29 11 is_stmt 1 discriminator 8 view .LVU657
	.loc 1 29 18 discriminator 8 view .LVU658
	.loc 1 29 39 is_stmt 0 discriminator 8 view .LVU659
	bfc	r5, #0, #1
	bfc	r5, #1, #1
	bfc	r5, #2, #1
	bfc	r5, #3, #3
	movs	r2, #1
	bfi	r5, r2, #6, #3
	.loc 1 29 124 discriminator 8 view .LVU660
	and	r3, r3, #1004
.LVL61:
	.loc 1 29 39 discriminator 8 view .LVU661
	bfi	r5, r3, #9, #10
	bfc	r5, #19, #12
	bfc	r5, #31, #1
	.loc 1 29 174 is_stmt 1 discriminator 8 view .LVU662
	movs	r3, #0
	mov	r2, r5
	ldr	r1, .L40+4
	bl	z_log_msg2_finalize
.LVL62:
	.loc 1 29 174 is_stmt 0 discriminator 8 view .LVU663
	mov	sp, r8
.LVL63:
	.loc 1 29 174 discriminator 8 view .LVU664
.LBE251:
	.loc 1 29 13 is_stmt 1 discriminator 8 view .LVU665
	.loc 1 29 18 discriminator 8 view .LVU666
	.loc 1 29 58 discriminator 8 view .LVU667
.LBE250:
	.loc 1 29 13 discriminator 8 view .LVU668
	.loc 1 29 20 discriminator 8 view .LVU669
	.loc 1 29 20 is_stmt 0 discriminator 8 view .LVU670
.LBE249:
	.loc 1 29 235 is_stmt 1 discriminator 8 view .LVU671
	.loc 1 28 188 discriminator 8 view .LVU672
	.loc 1 28 190 is_stmt 0 discriminator 8 view .LVU673
	adds	r4, r4, #4
.LVL64:
.L16:
	.loc 1 28 18 is_stmt 1 discriminator 1 view .LVU674
	.loc 1 28 2 is_stmt 0 discriminator 1 view .LVU675
	cmp	r4, #15
	bgt	.L38
	.loc 1 29 3 is_stmt 1 view .LVU676
.LBB317:
	.loc 1 29 8 view .LVU677
	.loc 1 29 57 view .LVU678
	.loc 1 29 14 view .LVU679
	.loc 1 29 2 view .LVU680
.LBE317:
.LBE333:
	.loc 2 120 2 view .LVU681
.LVL65:
.LBB334:
.LBB318:
	.loc 1 29 41 view .LVU682
	.loc 1 29 107 view .LVU683
	.loc 1 29 206 view .LVU684
.LBB304:
	.loc 1 29 215 view .LVU685
	.loc 1 29 226 view .LVU686
	.loc 1 29 314 view .LVU687
	.loc 1 29 319 view .LVU688
	.loc 1 29 321 view .LVU689
.LBE304:
.LBE318:
.LBE334:
	.loc 1 29 3 view .LVU690
	.loc 1 29 3 view .LVU691
.LBB335:
.LBB319:
.LBB305:
	.loc 1 29 243 view .LVU692
.LBB292:
	.loc 1 29 248 view .LVU693
	.loc 1 29 259 view .LVU694
.LBB273:
	.loc 1 29 3 view .LVU695
	.loc 1 29 217 view .LVU696
	.loc 1 29 2 view .LVU697
	.loc 1 29 31 view .LVU698
	.loc 1 29 4 view .LVU699
	.loc 1 29 24 view .LVU700
	.loc 1 29 48 view .LVU701
	.loc 1 29 23 view .LVU702
	.loc 1 29 41 view .LVU703
	.loc 1 29 61 view .LVU704
	.loc 1 29 108 view .LVU705
	.loc 1 29 140 view .LVU706
	.loc 1 29 13 view .LVU707
	.loc 1 29 55 view .LVU708
	.loc 1 29 97 view .LVU709
	.loc 1 29 142 view .LVU710
.LBE273:
.LBE292:
.LBE305:
.LBE319:
.LBE335:
	.loc 1 29 147 view .LVU711
	.loc 1 29 440 view .LVU712
	.loc 1 29 446 view .LVU713
	.loc 1 29 1723 view .LVU714
	.loc 1 29 1747 view .LVU715
	.loc 1 29 1843 view .LVU716
	.loc 1 29 1996 view .LVU717
	.loc 1 29 2011 view .LVU718
	.loc 1 29 2337 view .LVU719
	.loc 1 29 2385 view .LVU720
	.loc 1 29 3997 view .LVU721
	.loc 1 29 4004 view .LVU722
	.loc 1 29 4027 view .LVU723
.LBB336:
.LBB320:
.LBB306:
.LBB293:
.LBB280:
	.loc 1 29 4061 view .LVU724
	.loc 1 29 4067 view .LVU725
.LBE280:
.LBE293:
.LBE306:
.LBE320:
.LBE336:
	.loc 1 29 4072 view .LVU726
	.loc 1 29 0 view .LVU727
	.loc 1 29 0 view .LVU728
	.loc 1 29 0 view .LVU729
	.loc 1 29 0 view .LVU730
	.loc 1 29 0 view .LVU731
	.loc 1 29 0 view .LVU732
	.loc 1 29 0 view .LVU733
	.loc 1 29 0 view .LVU734
	.loc 1 29 0 view .LVU735
	.loc 1 29 0 view .LVU736
	.loc 1 29 0 view .LVU737
.LBB337:
.LBB321:
.LBB307:
.LBB294:
.LBB281:
	.loc 1 29 0 view .LVU738
	.loc 1 29 0 view .LVU739
.LBE281:
.LBE294:
.LBE307:
.LBE321:
.LBE337:
	.loc 1 29 0 view .LVU740
	.loc 1 29 0 view .LVU741
	.loc 1 29 0 view .LVU742
	.loc 1 29 0 view .LVU743
	.loc 1 29 0 view .LVU744
	.loc 1 29 0 view .LVU745
	.loc 1 29 0 view .LVU746
	.loc 1 29 0 view .LVU747
	.loc 1 29 0 view .LVU748
	.loc 1 29 0 view .LVU749
	.loc 1 29 0 view .LVU750
	.loc 1 29 0 view .LVU751
.LBB338:
.LBB322:
.LBB308:
.LBB295:
.LBB282:
	.loc 1 29 0 view .LVU752
	.loc 1 29 0 view .LVU753
.LBB274:
	.loc 1 29 0 view .LVU754
	.loc 1 29 0 view .LVU755
	.loc 1 29 0 view .LVU756
	.loc 1 29 0 view .LVU757
.LBB275:
	.loc 1 29 0 view .LVU758
	add	lr, r4, #1
.LVL66:
	.loc 1 29 0 view .LVU759
	.loc 1 29 0 view .LVU760
	.loc 1 29 0 is_stmt 0 view .LVU761
.LBE275:
	.loc 1 29 0 is_stmt 1 view .LVU762
	.loc 1 29 0 view .LVU763
	.loc 1 29 0 view .LVU764
	.loc 1 29 0 view .LVU765
	.loc 1 29 0 view .LVU766
	.loc 1 29 0 is_stmt 0 view .LVU767
.LBE274:
	.loc 1 29 0 is_stmt 1 view .LVU768
	.loc 1 29 0 view .LVU769
.LBE282:
.LBE295:
.LBE308:
.LBE322:
.LBE338:
	.loc 1 29 0 view .LVU770
	.loc 1 29 0 view .LVU771
	.loc 1 29 0 view .LVU772
	.loc 1 29 0 view .LVU773
	.loc 1 29 0 view .LVU774
	.loc 1 29 0 view .LVU775
	.loc 1 29 0 view .LVU776
	.loc 1 29 0 view .LVU777
	.loc 1 29 0 view .LVU778
	.loc 1 29 0 view .LVU779
	.loc 1 29 0 view .LVU780
	.loc 1 29 0 view .LVU781
.LBB339:
.LBB323:
.LBB309:
.LBB296:
.LBB283:
	.loc 1 29 0 view .LVU782
	.loc 1 29 0 view .LVU783
.LBB276:
	.loc 1 29 0 view .LVU784
	.loc 1 29 0 view .LVU785
	.loc 1 29 0 view .LVU786
	.loc 1 29 0 view .LVU787
.LBB277:
	.loc 1 29 0 view .LVU788
	add	ip, r4, #2
.LVL67:
	.loc 1 29 0 view .LVU789
	.loc 1 29 0 view .LVU790
	.loc 1 29 0 is_stmt 0 view .LVU791
.LBE277:
	.loc 1 29 0 is_stmt 1 view .LVU792
	.loc 1 29 0 view .LVU793
	.loc 1 29 0 view .LVU794
	.loc 1 29 0 view .LVU795
	.loc 1 29 0 view .LVU796
	.loc 1 29 0 is_stmt 0 view .LVU797
.LBE276:
	.loc 1 29 0 is_stmt 1 view .LVU798
	.loc 1 29 0 view .LVU799
.LBE283:
.LBE296:
.LBE309:
.LBE323:
.LBE339:
	.loc 1 29 0 view .LVU800
	.loc 1 29 0 view .LVU801
	.loc 1 29 0 view .LVU802
	.loc 1 29 0 view .LVU803
	.loc 1 29 0 view .LVU804
	.loc 1 29 0 view .LVU805
	.loc 1 29 0 view .LVU806
	.loc 1 29 0 view .LVU807
	.loc 1 29 0 view .LVU808
	.loc 1 29 0 view .LVU809
	.loc 1 29 0 view .LVU810
	.loc 1 29 0 view .LVU811
.LBB340:
.LBB324:
.LBB310:
.LBB297:
.LBB284:
	.loc 1 29 0 view .LVU812
	.loc 1 29 0 view .LVU813
.LBB278:
	.loc 1 29 0 view .LVU814
	.loc 1 29 0 view .LVU815
	.loc 1 29 0 view .LVU816
	.loc 1 29 0 view .LVU817
.LBB279:
	.loc 1 29 0 view .LVU818
	adds	r1, r4, #3
.LVL68:
	.loc 1 29 0 view .LVU819
	.loc 1 29 0 view .LVU820
	.loc 1 29 0 is_stmt 0 view .LVU821
.LBE279:
	.loc 1 29 0 is_stmt 1 view .LVU822
	.loc 1 29 0 view .LVU823
	.loc 1 29 0 view .LVU824
	.loc 1 29 0 view .LVU825
	.loc 1 29 0 view .LVU826
	.loc 1 29 0 is_stmt 0 view .LVU827
.LBE278:
	.loc 1 29 0 is_stmt 1 view .LVU828
	.loc 1 29 0 view .LVU829
.LBE284:
.LBE297:
.LBE310:
.LBE324:
.LBE340:
	.loc 1 29 0 view .LVU830
	.loc 1 29 0 view .LVU831
	.loc 1 29 0 view .LVU832
	.loc 1 29 0 view .LVU833
	.loc 1 29 0 view .LVU834
	.loc 1 29 0 view .LVU835
	.loc 1 29 0 view .LVU836
	.loc 1 29 0 view .LVU837
	.loc 1 29 0 view .LVU838
	.loc 1 29 0 view .LVU839
	.loc 1 29 0 view .LVU840
	.loc 1 29 0 view .LVU841
.LBB341:
.LBB325:
.LBB311:
.LBB298:
.LBB285:
	.loc 1 29 0 view .LVU842
	.loc 1 29 0 view .LVU843
	.loc 1 29 0 view .LVU844
	.loc 1 29 0 view .LVU845
	.loc 1 29 16 view .LVU846
	.loc 1 29 16 is_stmt 0 view .LVU847
.LBE285:
	.loc 1 29 11 is_stmt 1 view .LVU848
	.loc 1 29 16 view .LVU849
	.loc 1 29 39 view .LVU850
	.loc 1 29 75 is_stmt 0 view .LVU851
	mov	r8, sp
.LVL69:
	.loc 1 29 159 is_stmt 1 view .LVU852
	.loc 1 29 171 is_stmt 0 view .LVU853
	sub	sp, sp, #56
.LVL70:
	.loc 1 29 171 view .LVU854
	mov	r0, sp
.LVL71:
	.loc 1 29 285 is_stmt 1 view .LVU855
	.loc 1 29 488 view .LVU856
	.loc 1 29 5 view .LVU857
	.loc 1 29 7 view .LVU858
	.loc 1 29 20 view .LVU859
.LBB286:
	.loc 1 29 3 view .LVU860
	.loc 1 29 217 view .LVU861
	.loc 1 29 2 view .LVU862
	.loc 1 29 31 view .LVU863
	.loc 1 29 60 view .LVU864
	.loc 1 29 80 view .LVU865
	.loc 1 29 104 view .LVU866
	.loc 1 29 12 is_stmt 0 view .LVU867
	adds	r2, r0, #12
.LVL72:
	.loc 1 29 12 view .LVU868
	beq	.L39
	.loc 1 29 12 view .LVU869
	movs	r3, #40
.L17:
	.loc 1 29 13 is_stmt 1 discriminator 178 view .LVU870
.LVL73:
	.loc 1 29 55 discriminator 178 view .LVU871
	.loc 1 29 97 discriminator 178 view .LVU872
	.loc 1 29 142 discriminator 178 view .LVU873
.LBB256:
	.loc 1 29 147 discriminator 178 view .LVU874
	.loc 1 29 440 discriminator 178 view .LVU875
	.loc 1 29 446 discriminator 178 view .LVU876
	.loc 1 29 1723 discriminator 178 view .LVU877
.LBE256:
.LBE286:
.LBE298:
.LBE311:
.LBE325:
.LBE341:
	.loc 1 29 1747 discriminator 178 view .LVU878
	.loc 1 29 1843 discriminator 178 view .LVU879
	.loc 1 29 1996 discriminator 178 view .LVU880
.LBB342:
.LBB326:
.LBB312:
.LBB299:
.LBB287:
.LBB257:
	.loc 1 29 2011 discriminator 178 view .LVU881
	.loc 1 29 2337 discriminator 178 view .LVU882
	.loc 1 29 2385 discriminator 178 view .LVU883
	.loc 1 29 2388 is_stmt 0 discriminator 178 view .LVU884
	cbz	r2, .L18
	.loc 1 29 2395 discriminator 182 view .LVU885
	cmp	r3, #4
	ble	.L18
	.loc 1 29 2423 is_stmt 1 discriminator 187 view .LVU886
	.loc 1 29 2428 discriminator 187 view .LVU887
	.loc 1 29 3245 discriminator 187 view .LVU888
	.loc 1 29 3912 is_stmt 0 discriminator 187 view .LVU889
	ldr	r9, .L40+16
	str	r9, [r0, #16]
.LVL74:
.L18:
	.loc 1 29 3997 is_stmt 1 discriminator 188 view .LVU890
	.loc 1 29 4004 discriminator 188 view .LVU891
	.loc 1 29 4027 discriminator 188 view .LVU892
	.loc 1 29 4027 is_stmt 0 discriminator 188 view .LVU893
.LBE257:
	.loc 1 29 4061 is_stmt 1 discriminator 188 view .LVU894
	.loc 1 29 4067 discriminator 188 view .LVU895
.LBB258:
	.loc 1 29 4072 discriminator 188 view .LVU896
	.loc 1 29 0 discriminator 188 view .LVU897
	.loc 1 29 0 discriminator 188 view .LVU898
	.loc 1 29 0 discriminator 188 view .LVU899
.LBE258:
.LBE287:
.LBE299:
.LBE312:
.LBE326:
.LBE342:
	.loc 1 29 0 discriminator 188 view .LVU900
	.loc 1 29 0 discriminator 188 view .LVU901
	.loc 1 29 0 discriminator 188 view .LVU902
.LBB343:
.LBB327:
.LBB313:
.LBB300:
.LBB288:
.LBB259:
	.loc 1 29 0 discriminator 188 view .LVU903
	.loc 1 29 0 discriminator 188 view .LVU904
	cbz	r2, .L19
	.loc 1 29 0 is_stmt 0 discriminator 196 view .LVU905
	cmp	r3, #8
	ble	.L19
	.loc 1 29 0 is_stmt 1 discriminator 201 view .LVU906
	.loc 1 29 0 discriminator 201 view .LVU907
	.loc 1 29 0 discriminator 201 view .LVU908
	str	r4, [r0, #20]
.L19:
	.loc 1 29 0 discriminator 202 view .LVU909
	.loc 1 29 0 discriminator 202 view .LVU910
.LVL75:
	.loc 1 29 0 discriminator 202 view .LVU911
	.loc 1 29 0 is_stmt 0 discriminator 202 view .LVU912
.LBE259:
	.loc 1 29 0 is_stmt 1 discriminator 202 view .LVU913
	.loc 1 29 0 discriminator 202 view .LVU914
.LBB260:
	.loc 1 29 0 discriminator 202 view .LVU915
	.loc 1 29 0 discriminator 202 view .LVU916
	.loc 1 29 0 discriminator 202 view .LVU917
	.loc 1 29 0 discriminator 202 view .LVU918
.LBB261:
	.loc 1 29 0 discriminator 202 view .LVU919
	add	r9, r4, #8
	add	r9, r6, r9, lsl #2
	vldr.32	s15, [r9]
	vcvt.u32.f32	s15, s15
.LVL76:
	.loc 1 29 0 discriminator 202 view .LVU920
	.loc 1 29 0 discriminator 202 view .LVU921
	.loc 1 29 0 is_stmt 0 discriminator 202 view .LVU922
.LBE261:
	.loc 1 29 0 is_stmt 1 discriminator 202 view .LVU923
	.loc 1 29 0 discriminator 202 view .LVU924
	cbz	r2, .L20
	.loc 1 29 0 is_stmt 0 discriminator 210 view .LVU925
	cmp	r3, #12
	ble	.L20
	.loc 1 29 0 is_stmt 1 discriminator 215 view .LVU926
	.loc 1 29 0 discriminator 215 view .LVU927
	.loc 1 29 0 discriminator 215 view .LVU928
	vstr.32	s15, [r0, #24]	@ int
.L20:
	.loc 1 29 0 discriminator 216 view .LVU929
	.loc 1 29 0 discriminator 216 view .LVU930
.LVL77:
	.loc 1 29 0 discriminator 216 view .LVU931
	.loc 1 29 0 is_stmt 0 discriminator 216 view .LVU932
.LBE260:
	.loc 1 29 0 is_stmt 1 discriminator 216 view .LVU933
	.loc 1 29 0 discriminator 216 view .LVU934
.LBB262:
	.loc 1 29 0 discriminator 216 view .LVU935
	.loc 1 29 0 discriminator 216 view .LVU936
	.loc 1 29 0 discriminator 216 view .LVU937
	.loc 1 29 0 discriminator 216 view .LVU938
.LBE262:
.LBE288:
.LBE300:
.LBE313:
.LBE327:
.LBE343:
	.loc 1 29 0 discriminator 216 view .LVU939
	.loc 1 29 0 discriminator 216 view .LVU940
	.loc 1 29 0 discriminator 216 view .LVU941
.LBB344:
.LBB328:
.LBB314:
.LBB301:
.LBB289:
.LBB263:
	.loc 1 29 0 discriminator 216 view .LVU942
	.loc 1 29 0 discriminator 216 view .LVU943
	cbz	r2, .L21
	.loc 1 29 0 is_stmt 0 discriminator 224 view .LVU944
	cmp	r3, #16
	ble	.L21
	.loc 1 29 0 is_stmt 1 discriminator 229 view .LVU945
	.loc 1 29 0 discriminator 229 view .LVU946
	.loc 1 29 0 discriminator 229 view .LVU947
	str	lr, [r0, #28]
.L21:
	.loc 1 29 0 discriminator 230 view .LVU948
	.loc 1 29 0 discriminator 230 view .LVU949
.LVL78:
	.loc 1 29 0 discriminator 230 view .LVU950
	.loc 1 29 0 is_stmt 0 discriminator 230 view .LVU951
.LBE263:
	.loc 1 29 0 is_stmt 1 discriminator 230 view .LVU952
	.loc 1 29 0 discriminator 230 view .LVU953
.LBB264:
	.loc 1 29 0 discriminator 230 view .LVU954
	.loc 1 29 0 discriminator 230 view .LVU955
	.loc 1 29 0 discriminator 230 view .LVU956
	.loc 1 29 0 discriminator 230 view .LVU957
.LBB265:
	.loc 1 29 0 discriminator 230 view .LVU958
	add	lr, lr, #8
.LVL79:
	.loc 1 29 0 is_stmt 0 discriminator 230 view .LVU959
	add	lr, r6, lr, lsl #2
.LVL80:
	.loc 1 29 0 discriminator 230 view .LVU960
	vldr.32	s15, [lr]
.LVL81:
	.loc 1 29 0 discriminator 230 view .LVU961
	vcvt.u32.f32	s15, s15
.LVL82:
	.loc 1 29 0 is_stmt 1 discriminator 230 view .LVU962
	.loc 1 29 0 discriminator 230 view .LVU963
	.loc 1 29 0 is_stmt 0 discriminator 230 view .LVU964
.LBE265:
	.loc 1 29 0 is_stmt 1 discriminator 230 view .LVU965
	.loc 1 29 0 discriminator 230 view .LVU966
	cbz	r2, .L22
	.loc 1 29 0 is_stmt 0 discriminator 238 view .LVU967
	cmp	r3, #20
	ble	.L22
	.loc 1 29 0 is_stmt 1 discriminator 243 view .LVU968
	.loc 1 29 0 discriminator 243 view .LVU969
	.loc 1 29 0 discriminator 243 view .LVU970
	vstr.32	s15, [r0, #32]	@ int
.L22:
	.loc 1 29 0 discriminator 244 view .LVU971
	.loc 1 29 0 discriminator 244 view .LVU972
.LVL83:
	.loc 1 29 0 discriminator 244 view .LVU973
	.loc 1 29 0 is_stmt 0 discriminator 244 view .LVU974
.LBE264:
	.loc 1 29 0 is_stmt 1 discriminator 244 view .LVU975
	.loc 1 29 0 discriminator 244 view .LVU976
.LBB266:
	.loc 1 29 0 discriminator 244 view .LVU977
	.loc 1 29 0 discriminator 244 view .LVU978
	.loc 1 29 0 discriminator 244 view .LVU979
	.loc 1 29 0 discriminator 244 view .LVU980
.LBE266:
.LBE289:
.LBE301:
.LBE314:
.LBE328:
.LBE344:
	.loc 1 29 0 discriminator 244 view .LVU981
	.loc 1 29 0 discriminator 244 view .LVU982
	.loc 1 29 0 discriminator 244 view .LVU983
.LBB345:
.LBB329:
.LBB315:
.LBB302:
.LBB290:
.LBB267:
	.loc 1 29 0 discriminator 244 view .LVU984
	.loc 1 29 0 discriminator 244 view .LVU985
	cbz	r2, .L23
	.loc 1 29 0 is_stmt 0 discriminator 252 view .LVU986
	cmp	r3, #24
	ble	.L23
	.loc 1 29 0 is_stmt 1 discriminator 257 view .LVU987
	.loc 1 29 0 discriminator 257 view .LVU988
	.loc 1 29 0 discriminator 257 view .LVU989
	str	ip, [r0, #36]
.L23:
	.loc 1 29 0 discriminator 258 view .LVU990
	.loc 1 29 0 discriminator 258 view .LVU991
.LVL84:
	.loc 1 29 0 discriminator 258 view .LVU992
	.loc 1 29 0 is_stmt 0 discriminator 258 view .LVU993
.LBE267:
	.loc 1 29 0 is_stmt 1 discriminator 258 view .LVU994
	.loc 1 29 0 discriminator 258 view .LVU995
.LBB268:
	.loc 1 29 0 discriminator 258 view .LVU996
	.loc 1 29 0 discriminator 258 view .LVU997
	.loc 1 29 0 discriminator 258 view .LVU998
	.loc 1 29 0 discriminator 258 view .LVU999
.LBB269:
	.loc 1 29 0 discriminator 258 view .LVU1000
	add	ip, ip, #8
.LVL85:
	.loc 1 29 0 is_stmt 0 discriminator 258 view .LVU1001
	add	ip, r6, ip, lsl #2
.LVL86:
	.loc 1 29 0 discriminator 258 view .LVU1002
	vldr.32	s15, [ip]
.LVL87:
	.loc 1 29 0 discriminator 258 view .LVU1003
	vcvt.u32.f32	s15, s15
.LVL88:
	.loc 1 29 0 is_stmt 1 discriminator 258 view .LVU1004
	.loc 1 29 0 discriminator 258 view .LVU1005
	.loc 1 29 0 is_stmt 0 discriminator 258 view .LVU1006
.LBE269:
	.loc 1 29 0 is_stmt 1 discriminator 258 view .LVU1007
	.loc 1 29 0 discriminator 258 view .LVU1008
	cbz	r2, .L24
	.loc 1 29 0 is_stmt 0 discriminator 266 view .LVU1009
	cmp	r3, #28
	ble	.L24
	.loc 1 29 0 is_stmt 1 discriminator 271 view .LVU1010
	.loc 1 29 0 discriminator 271 view .LVU1011
	.loc 1 29 0 discriminator 271 view .LVU1012
	vstr.32	s15, [r0, #40]	@ int
.L24:
	.loc 1 29 0 discriminator 272 view .LVU1013
	.loc 1 29 0 discriminator 272 view .LVU1014
.LVL89:
	.loc 1 29 0 discriminator 272 view .LVU1015
	.loc 1 29 0 is_stmt 0 discriminator 272 view .LVU1016
.LBE268:
	.loc 1 29 0 is_stmt 1 discriminator 272 view .LVU1017
	.loc 1 29 0 discriminator 272 view .LVU1018
.LBB270:
	.loc 1 29 0 discriminator 272 view .LVU1019
	.loc 1 29 0 discriminator 272 view .LVU1020
	.loc 1 29 0 discriminator 272 view .LVU1021
	.loc 1 29 0 discriminator 272 view .LVU1022
.LBE270:
.LBE290:
.LBE302:
.LBE315:
.LBE329:
.LBE345:
	.loc 1 29 0 discriminator 272 view .LVU1023
	.loc 1 29 0 discriminator 272 view .LVU1024
	.loc 1 29 0 discriminator 272 view .LVU1025
.LBB346:
.LBB330:
.LBB316:
.LBB303:
.LBB291:
.LBB271:
	.loc 1 29 0 discriminator 272 view .LVU1026
	.loc 1 29 0 discriminator 272 view .LVU1027
	cbz	r2, .L25
	.loc 1 29 0 is_stmt 0 discriminator 280 view .LVU1028
	cmp	r3, #32
	ble	.L25
	.loc 1 29 0 is_stmt 1 discriminator 285 view .LVU1029
	.loc 1 29 0 discriminator 285 view .LVU1030
	.loc 1 29 0 discriminator 285 view .LVU1031
	str	r1, [r0, #44]
.L25:
	.loc 1 29 0 discriminator 286 view .LVU1032
	.loc 1 29 0 discriminator 286 view .LVU1033
.LVL90:
	.loc 1 29 0 discriminator 286 view .LVU1034
	.loc 1 29 0 is_stmt 0 discriminator 286 view .LVU1035
.LBE271:
	.loc 1 29 0 is_stmt 1 discriminator 286 view .LVU1036
	.loc 1 29 0 discriminator 286 view .LVU1037
.LBB272:
	.loc 1 29 0 discriminator 286 view .LVU1038
	.loc 1 29 0 discriminator 286 view .LVU1039
	.loc 1 29 0 discriminator 286 view .LVU1040
	.loc 1 29 0 discriminator 286 view .LVU1041
.LBB254:
	.loc 1 29 0 discriminator 286 view .LVU1042
	adds	r1, r1, #8
.LVL91:
	.loc 1 29 0 is_stmt 0 discriminator 286 view .LVU1043
	add	r1, r6, r1, lsl #2
.LVL92:
	.loc 1 29 0 discriminator 286 view .LVU1044
	vldr.32	s15, [r1]
.LVL93:
	.loc 1 29 0 discriminator 286 view .LVU1045
	vcvt.u32.f32	s15, s15
.LVL94:
	.loc 1 29 0 is_stmt 1 discriminator 286 view .LVU1046
	.loc 1 29 0 discriminator 286 view .LVU1047
	.loc 1 29 0 is_stmt 0 discriminator 286 view .LVU1048
.LBE254:
	.loc 1 29 0 is_stmt 1 discriminator 286 view .LVU1049
	.loc 1 29 0 discriminator 286 view .LVU1050
	cmp	r2, #0
	beq	.L26
	.loc 1 29 0 is_stmt 0 discriminator 294 view .LVU1051
	cmp	r3, #36
	ble	.L26
	.loc 1 29 0 is_stmt 1 discriminator 299 view .LVU1052
	.loc 1 29 0 discriminator 299 view .LVU1053
	.loc 1 29 0 discriminator 299 view .LVU1054
	vstr.32	s15, [r0, #48]	@ int
	b	.L26
.LVL95:
.L35:
	.loc 1 29 0 is_stmt 0 discriminator 299 view .LVU1055
.LBE272:
	.loc 1 29 2 view .LVU1056
	mvn	r3, #27
	b	.L27
.L41:
	.align	2
.L40:
	.word	.LC0
	.word	log_const_os
	.word	.LC1
	.word	.LC2
	.word	.LC3
.LVL96:
.L38:
	.loc 1 29 2 view .LVU1057
.LBE291:
.LBE303:
.LBE316:
.LBE330:
.LBE346:
	.loc 1 36 2 is_stmt 1 view .LVU1058
.LBB347:
	.loc 1 36 7 view .LVU1059
	.loc 1 36 56 view .LVU1060
	.loc 1 36 13 view .LVU1061
	.loc 1 36 1 view .LVU1062
.LBE347:
	.loc 2 120 2 view .LVU1063
.LBB369:
	.loc 1 36 40 view .LVU1064
	.loc 1 36 106 view .LVU1065
	.loc 1 36 205 view .LVU1066
.LBB348:
	.loc 1 36 214 view .LVU1067
	.loc 1 36 225 view .LVU1068
	.loc 1 36 313 view .LVU1069
	.loc 1 36 318 view .LVU1070
	.loc 1 36 320 view .LVU1071
.LBE348:
.LBE369:
	.loc 1 36 2 view .LVU1072
	.loc 1 36 2 view .LVU1073
.LBB370:
.LBB365:
	.loc 1 36 79 view .LVU1074
.LBB349:
	.loc 1 36 84 view .LVU1075
	.loc 1 36 95 view .LVU1076
.LBB350:
	.loc 1 36 2 view .LVU1077
	.loc 1 36 216 view .LVU1078
	.loc 1 36 1 view .LVU1079
	.loc 1 36 30 view .LVU1080
	.loc 1 36 3 view .LVU1081
	.loc 1 36 23 view .LVU1082
	.loc 1 36 47 view .LVU1083
	.loc 1 36 22 view .LVU1084
	.loc 1 36 40 view .LVU1085
	.loc 1 36 60 view .LVU1086
	.loc 1 36 107 view .LVU1087
	.loc 1 36 139 view .LVU1088
	.loc 1 36 12 view .LVU1089
	.loc 1 36 54 view .LVU1090
	.loc 1 36 96 view .LVU1091
	.loc 1 36 141 view .LVU1092
.LBE350:
.LBE349:
.LBE365:
.LBE370:
	.loc 1 36 146 view .LVU1093
	.loc 1 36 384 view .LVU1094
	.loc 1 36 390 view .LVU1095
	.loc 1 36 1447 view .LVU1096
	.loc 1 36 1471 view .LVU1097
	.loc 1 36 1512 view .LVU1098
	.loc 1 36 1610 view .LVU1099
	.loc 1 36 1625 view .LVU1100
	.loc 1 36 1896 view .LVU1101
	.loc 1 36 1944 view .LVU1102
	.loc 1 36 3116 view .LVU1103
	.loc 1 36 3123 view .LVU1104
	.loc 1 36 3146 view .LVU1105
.LBB371:
.LBB366:
.LBB362:
.LBB353:
	.loc 1 36 3180 view .LVU1106
	.loc 1 36 3186 view .LVU1107
.LBB351:
	.loc 1 36 3191 view .LVU1108
	.loc 1 36 3423 view .LVU1109
	.loc 1 36 3429 view .LVU1110
	.loc 1 36 0 view .LVU1111
.LBB352:
	.loc 1 36 0 view .LVU1112
	ldr	r3, [r6, #96]
.LVL97:
	.loc 1 36 0 view .LVU1113
	.loc 1 36 0 view .LVU1114
	.loc 1 36 0 is_stmt 0 view .LVU1115
.LBE352:
	.loc 1 36 0 is_stmt 1 view .LVU1116
	.loc 1 36 0 view .LVU1117
	.loc 1 36 0 view .LVU1118
	.loc 1 36 0 view .LVU1119
	.loc 1 36 0 view .LVU1120
	.loc 1 36 0 is_stmt 0 view .LVU1121
.LBE351:
	.loc 1 36 0 is_stmt 1 view .LVU1122
	.loc 1 36 0 view .LVU1123
	.loc 1 36 0 view .LVU1124
	.loc 1 36 0 view .LVU1125
	.loc 1 36 15 view .LVU1126
	.loc 1 36 15 is_stmt 0 view .LVU1127
.LBE353:
	.loc 1 36 10 is_stmt 1 view .LVU1128
	.loc 1 36 15 view .LVU1129
	.loc 1 36 38 view .LVU1130
	.loc 1 36 158 view .LVU1131
	.loc 1 36 284 view .LVU1132
	.loc 1 36 487 view .LVU1133
	.loc 1 36 4 view .LVU1134
	.loc 1 36 6 view .LVU1135
	.loc 1 36 19 view .LVU1136
.LBB354:
	.loc 1 36 2 view .LVU1137
	.loc 1 36 216 view .LVU1138
	.loc 1 36 1 view .LVU1139
	.loc 1 36 30 view .LVU1140
	.loc 1 36 59 view .LVU1141
	.loc 1 36 79 view .LVU1142
	.loc 1 36 103 view .LVU1143
	.loc 1 36 26 view .LVU1144
	.loc 1 36 44 view .LVU1145
	.loc 1 36 64 view .LVU1146
	.loc 1 36 111 view .LVU1147
	.loc 1 36 143 view .LVU1148
	.loc 1 36 12 view .LVU1149
	.loc 1 36 54 view .LVU1150
	.loc 1 36 96 view .LVU1151
	.loc 1 36 141 view .LVU1152
.LBB355:
	.loc 1 36 146 view .LVU1153
	.loc 1 36 384 view .LVU1154
	.loc 1 36 390 view .LVU1155
	.loc 1 36 1447 view .LVU1156
.LBE355:
.LBE354:
.LBE362:
.LBE366:
.LBE371:
	.loc 1 36 1471 view .LVU1157
	.loc 1 36 1512 view .LVU1158
	.loc 1 36 1610 view .LVU1159
.LBB372:
.LBB367:
.LBB363:
.LBB360:
.LBB356:
	.loc 1 36 1625 view .LVU1160
	.loc 1 36 1896 view .LVU1161
	.loc 1 36 1944 view .LVU1162
	.loc 1 36 1982 view .LVU1163
	.loc 1 36 1987 view .LVU1164
	.loc 1 36 2474 view .LVU1165
	.loc 1 36 3086 is_stmt 0 view .LVU1166
	ldr	r2, .L42
	str	r2, [r7, #48]
	.loc 1 36 3116 is_stmt 1 view .LVU1167
	.loc 1 36 3123 view .LVU1168
.LVL98:
	.loc 1 36 3146 view .LVU1169
	.loc 1 36 3146 is_stmt 0 view .LVU1170
.LBE356:
	.loc 1 36 3180 is_stmt 1 view .LVU1171
	.loc 1 36 3186 view .LVU1172
.LBB357:
	.loc 1 36 3191 view .LVU1173
	.loc 1 36 3423 view .LVU1174
	.loc 1 36 3429 view .LVU1175
	.loc 1 36 0 view .LVU1176
.LBE357:
.LBE360:
.LBE363:
.LBE367:
.LBE372:
	.loc 1 36 0 view .LVU1177
	.loc 1 36 0 view .LVU1178
	.loc 1 36 0 view .LVU1179
.LBB373:
.LBB368:
.LBB364:
.LBB361:
.LBB358:
	.loc 1 36 0 view .LVU1180
	.loc 1 36 0 view .LVU1181
	.loc 1 36 0 view .LVU1182
	.loc 1 36 0 view .LVU1183
	.loc 1 36 0 view .LVU1184
	str	r3, [r7, #52]
	.loc 1 36 0 view .LVU1185
	.loc 1 36 0 view .LVU1186
.LVL99:
	.loc 1 36 0 view .LVU1187
	.loc 1 36 0 is_stmt 0 view .LVU1188
.LBE358:
	.loc 1 36 0 is_stmt 1 view .LVU1189
	.loc 1 36 0 view .LVU1190
	.loc 1 36 0 view .LVU1191
	.loc 1 36 0 view .LVU1192
	.loc 1 36 15 view .LVU1193
.LBB359:
	.loc 1 36 28 view .LVU1194
	.loc 1 36 49 is_stmt 0 view .LVU1195
	movs	r4, #0
.LVL100:
	.loc 1 36 49 view .LVU1196
	strh	r4, [r7, #5]	@ unaligned
	strb	r4, [r7, #7]
	mov	r10, #3
	strb	r10, [r7, #4]
	strb	r4, [r7, #6]
	.loc 1 36 174 is_stmt 1 view .LVU1197
	.loc 1 36 184 is_stmt 0 view .LVU1198
	ldr	r3, [r7, #4]
.LVL101:
	.loc 1 36 184 view .LVU1199
	str	r3, [r7, #44]
	.loc 1 36 184 view .LVU1200
.LBE359:
.LBE361:
	.loc 1 36 10 is_stmt 1 view .LVU1201
	.loc 1 36 17 view .LVU1202
	.loc 1 36 38 is_stmt 0 view .LVU1203
	mov	r2, r4
.LVL102:
	.loc 1 36 38 view .LVU1204
	bfi	r2, r4, #0, #1
.LVL103:
	.loc 1 36 38 view .LVU1205
	bfi	r2, r4, #1, #1
	bfi	r2, r4, #2, #1
	bfi	r2, r4, #3, #3
	mov	r9, #1
	bfi	r2, r9, #6, #3
	mov	r8, #12
	bfi	r2, r8, #9, #10
	.loc 1 36 173 is_stmt 1 view .LVU1206
	ldr	r5, .L42+4
.LVL104:
	.loc 1 36 173 is_stmt 0 view .LVU1207
	mov	r3, r4
	ubfx	r2, r2, #0, #19
.LVL105:
	.loc 1 36 173 view .LVU1208
	mov	r1, r5
	add	r0, r7, #32
.LVL106:
	.loc 1 36 173 view .LVU1209
	bl	z_log_msg2_finalize
.LVL107:
	.loc 1 36 173 view .LVU1210
.LBE364:
	.loc 1 36 12 is_stmt 1 view .LVU1211
	.loc 1 36 17 view .LVU1212
.LVL108:
	.loc 1 36 57 view .LVU1213
.LBE368:
	.loc 1 36 12 view .LVU1214
	.loc 1 36 19 view .LVU1215
	.loc 1 36 19 is_stmt 0 view .LVU1216
.LBE373:
	.loc 1 36 71 is_stmt 1 view .LVU1217
	.loc 1 53 2 view .LVU1218
.LBB374:
	.loc 1 53 7 view .LVU1219
	.loc 1 53 56 view .LVU1220
	.loc 1 53 13 view .LVU1221
	.loc 1 53 1 view .LVU1222
.LBE374:
	.loc 2 120 2 view .LVU1223
.LBB396:
	.loc 1 53 40 view .LVU1224
	.loc 1 53 106 view .LVU1225
	.loc 1 53 205 view .LVU1226
.LBB375:
	.loc 1 53 214 view .LVU1227
	.loc 1 53 225 view .LVU1228
	.loc 1 53 313 view .LVU1229
	.loc 1 53 318 view .LVU1230
	.loc 1 53 320 view .LVU1231
.LBE375:
.LBE396:
	.loc 1 53 2 view .LVU1232
	.loc 1 53 2 view .LVU1233
.LBB397:
.LBB392:
	.loc 1 53 113 view .LVU1234
.LBB376:
	.loc 1 53 118 view .LVU1235
	.loc 1 53 129 view .LVU1236
.LBB377:
	.loc 1 53 2 view .LVU1237
	.loc 1 53 216 view .LVU1238
	.loc 1 53 1 view .LVU1239
	.loc 1 53 30 view .LVU1240
	.loc 1 53 3 view .LVU1241
	.loc 1 53 23 view .LVU1242
	.loc 1 53 47 view .LVU1243
	.loc 1 53 22 view .LVU1244
	.loc 1 53 40 view .LVU1245
	.loc 1 53 60 view .LVU1246
	.loc 1 53 107 view .LVU1247
	.loc 1 53 139 view .LVU1248
	.loc 1 53 12 view .LVU1249
	.loc 1 53 54 view .LVU1250
	.loc 1 53 96 view .LVU1251
	.loc 1 53 141 view .LVU1252
.LBE377:
.LBE376:
.LBE392:
.LBE397:
	.loc 1 53 146 view .LVU1253
	.loc 1 53 415 view .LVU1254
	.loc 1 53 421 view .LVU1255
	.loc 1 53 1602 view .LVU1256
	.loc 1 53 1626 view .LVU1257
	.loc 1 53 1698 view .LVU1258
	.loc 1 53 1827 view .LVU1259
	.loc 1 53 1842 view .LVU1260
	.loc 1 53 2144 view .LVU1261
	.loc 1 53 2192 view .LVU1262
	.loc 1 53 3612 view .LVU1263
	.loc 1 53 3619 view .LVU1264
	.loc 1 53 3642 view .LVU1265
.LBB398:
.LBB393:
.LBB389:
.LBB380:
	.loc 1 53 3676 view .LVU1266
	.loc 1 53 3682 view .LVU1267
.LBB378:
	.loc 1 53 3687 view .LVU1268
	.loc 1 53 3922 view .LVU1269
	.loc 1 53 3928 view .LVU1270
	.loc 1 53 0 view .LVU1271
.LBB379:
	.loc 1 53 0 view .LVU1272
	ldr	r3, [r6, #24]
.LVL109:
	.loc 1 53 0 view .LVU1273
	.loc 1 53 0 view .LVU1274
	.loc 1 53 0 is_stmt 0 view .LVU1275
.LBE379:
	.loc 1 53 0 is_stmt 1 view .LVU1276
	.loc 1 53 0 view .LVU1277
	.loc 1 53 0 view .LVU1278
	.loc 1 53 0 view .LVU1279
	.loc 1 53 0 view .LVU1280
	.loc 1 53 0 is_stmt 0 view .LVU1281
.LBE378:
	.loc 1 53 0 is_stmt 1 view .LVU1282
	.loc 1 53 0 view .LVU1283
	.loc 1 53 0 view .LVU1284
	.loc 1 53 0 view .LVU1285
	.loc 1 53 15 view .LVU1286
	.loc 1 53 15 is_stmt 0 view .LVU1287
.LBE380:
	.loc 1 53 10 is_stmt 1 view .LVU1288
	.loc 1 53 15 view .LVU1289
	.loc 1 53 38 view .LVU1290
	.loc 1 53 158 view .LVU1291
	.loc 1 53 284 view .LVU1292
	.loc 1 53 487 view .LVU1293
	.loc 1 53 4 view .LVU1294
	.loc 1 53 6 view .LVU1295
	.loc 1 53 19 view .LVU1296
.LBB381:
	.loc 1 53 2 view .LVU1297
	.loc 1 53 216 view .LVU1298
	.loc 1 53 1 view .LVU1299
	.loc 1 53 30 view .LVU1300
	.loc 1 53 59 view .LVU1301
	.loc 1 53 79 view .LVU1302
	.loc 1 53 103 view .LVU1303
	.loc 1 53 26 view .LVU1304
	.loc 1 53 44 view .LVU1305
	.loc 1 53 64 view .LVU1306
	.loc 1 53 111 view .LVU1307
	.loc 1 53 143 view .LVU1308
	.loc 1 53 12 view .LVU1309
	.loc 1 53 54 view .LVU1310
	.loc 1 53 96 view .LVU1311
	.loc 1 53 141 view .LVU1312
.LBB382:
	.loc 1 53 146 view .LVU1313
	.loc 1 53 415 view .LVU1314
	.loc 1 53 421 view .LVU1315
	.loc 1 53 1602 view .LVU1316
.LBE382:
.LBE381:
.LBE389:
.LBE393:
.LBE398:
	.loc 1 53 1626 view .LVU1317
	.loc 1 53 1698 view .LVU1318
	.loc 1 53 1827 view .LVU1319
.LBB399:
.LBB394:
.LBB390:
.LBB387:
.LBB383:
	.loc 1 53 1842 view .LVU1320
	.loc 1 53 2144 view .LVU1321
	.loc 1 53 2192 view .LVU1322
	.loc 1 53 2230 view .LVU1323
	.loc 1 53 2235 view .LVU1324
	.loc 1 53 2908 view .LVU1325
	.loc 1 53 3551 is_stmt 0 view .LVU1326
	ldr	r2, .L42+8
	str	r2, [r7, #72]
	.loc 1 53 3612 is_stmt 1 view .LVU1327
	.loc 1 53 3619 view .LVU1328
.LVL110:
	.loc 1 53 3642 view .LVU1329
	.loc 1 53 3642 is_stmt 0 view .LVU1330
.LBE383:
	.loc 1 53 3676 is_stmt 1 view .LVU1331
	.loc 1 53 3682 view .LVU1332
.LBB384:
	.loc 1 53 3687 view .LVU1333
	.loc 1 53 3922 view .LVU1334
	.loc 1 53 3928 view .LVU1335
	.loc 1 53 0 view .LVU1336
.LBE384:
.LBE387:
.LBE390:
.LBE394:
.LBE399:
	.loc 1 53 0 view .LVU1337
	.loc 1 53 0 view .LVU1338
	.loc 1 53 0 view .LVU1339
.LBB400:
.LBB395:
.LBB391:
.LBB388:
.LBB385:
	.loc 1 53 0 view .LVU1340
	.loc 1 53 0 view .LVU1341
	.loc 1 53 0 view .LVU1342
	.loc 1 53 0 view .LVU1343
	.loc 1 53 0 view .LVU1344
	str	r3, [r7, #76]
	.loc 1 53 0 view .LVU1345
	.loc 1 53 0 view .LVU1346
.LVL111:
	.loc 1 53 0 view .LVU1347
	.loc 1 53 0 is_stmt 0 view .LVU1348
.LBE385:
	.loc 1 53 0 is_stmt 1 view .LVU1349
	.loc 1 53 0 view .LVU1350
	.loc 1 53 0 view .LVU1351
	.loc 1 53 0 view .LVU1352
	.loc 1 53 15 view .LVU1353
.LBB386:
	.loc 1 53 28 view .LVU1354
	.loc 1 53 49 is_stmt 0 view .LVU1355
	strh	r4, [r7, #5]	@ unaligned
	strb	r4, [r7, #7]
	strb	r10, [r7, #4]
	strb	r4, [r7, #6]
	.loc 1 53 174 is_stmt 1 view .LVU1356
	.loc 1 53 184 is_stmt 0 view .LVU1357
	ldr	r3, [r7, #4]
.LVL112:
	.loc 1 53 184 view .LVU1358
	str	r3, [r7, #68]
	.loc 1 53 184 view .LVU1359
.LBE386:
.LBE388:
	.loc 1 53 10 is_stmt 1 view .LVU1360
	.loc 1 53 17 view .LVU1361
	.loc 1 53 38 is_stmt 0 view .LVU1362
	mov	r2, r4
.LVL113:
	.loc 1 53 38 view .LVU1363
	bfi	r2, r4, #0, #1
.LVL114:
	.loc 1 53 38 view .LVU1364
	bfi	r2, r4, #1, #1
	bfi	r2, r4, #2, #1
	bfi	r2, r4, #3, #3
	bfi	r2, r9, #6, #3
	bfi	r2, r8, #9, #10
	.loc 1 53 173 is_stmt 1 view .LVU1365
	mov	r3, r4
	ubfx	r2, r2, #0, #19
.LVL115:
	.loc 1 53 173 is_stmt 0 view .LVU1366
	mov	r1, r5
	add	r0, r7, #56
.LVL116:
	.loc 1 53 173 view .LVU1367
	bl	z_log_msg2_finalize
.LVL117:
	.loc 1 53 173 view .LVU1368
.LBE391:
	.loc 1 53 12 is_stmt 1 view .LVU1369
	.loc 1 53 17 view .LVU1370
	.loc 1 53 57 view .LVU1371
.LBE395:
	.loc 1 53 12 view .LVU1372
	.loc 1 53 19 view .LVU1373
	.loc 1 53 19 is_stmt 0 view .LVU1374
.LBE400:
	.loc 1 53 105 is_stmt 1 view .LVU1375
	.loc 1 55 1 is_stmt 0 view .LVU1376
	adds	r7, r7, #80
	.cfi_def_cfa_offset 32
.LVL118:
	.loc 1 55 1 view .LVU1377
	mov	sp, r7
	.cfi_def_cfa_register 13
.LVL119:
	.loc 1 55 1 view .LVU1378
	@ sp needed
	pop	{r4, r5, r6, r7, r8, r9, r10, pc}
.LVL120:
.L43:
	.loc 1 55 1 view .LVU1379
	.align	2
.L42:
	.word	.LC4
	.word	log_const_os
	.word	.LC5
	.cfi_endproc
.LFE539:
	.size	esf_dump, .-esf_dump
	.section	.text.z_arm_fatal_error,"ax",%progbits
	.align	1
	.global	z_arm_fatal_error
	.syntax unified
	.thumb
	.thumb_func
	.fpu fpv4-sp-d16
	.type	z_arm_fatal_error, %function
z_arm_fatal_error:
.LVL121:
.LFB540:
	.loc 1 58 1 is_stmt 1 view -0
	.cfi_startproc
	@ args = 0, pretend = 0, frame = 0
	@ frame_needed = 0, uses_anonymous_args = 0
	.loc 1 58 1 is_stmt 0 view .LVU1381
	push	{r3, r4, r5, lr}
	.cfi_def_cfa_offset 16
	.cfi_offset 3, -16
	.cfi_offset 4, -12
	.cfi_offset 5, -8
	.cfi_offset 14, -4
	mov	r4, r0
	.loc 1 60 2 is_stmt 1 view .LVU1382
	.loc 1 60 5 is_stmt 0 view .LVU1383
	mov	r5, r1
	cbz	r1, .L45
	.loc 1 61 3 is_stmt 1 view .LVU1384
	mov	r0, r1
.LVL122:
	.loc 1 61 3 is_stmt 0 view .LVU1385
	bl	esf_dump
.LVL123:
.L45:
	.loc 1 63 2 is_stmt 1 view .LVU1386
	mov	r1, r5
	mov	r0, r4
	bl	z_fatal_error
.LVL124:
	.loc 1 64 1 is_stmt 0 view .LVU1387
	pop	{r3, r4, r5, pc}
	.loc 1 64 1 view .LVU1388
	.cfi_endproc
.LFE540:
	.size	z_arm_fatal_error, .-z_arm_fatal_error
	.section	.text.z_do_kernel_oops,"ax",%progbits
	.align	1
	.global	z_do_kernel_oops
	.syntax unified
	.thumb
	.thumb_func
	.fpu fpv4-sp-d16
	.type	z_do_kernel_oops, %function
z_do_kernel_oops:
.LVL125:
.LFB541:
	.loc 1 82 1 is_stmt 1 view -0
	.cfi_startproc
	@ args = 0, pretend = 0, frame = 0
	@ frame_needed = 0, uses_anonymous_args = 0
	.loc 1 82 1 is_stmt 0 view .LVU1390
	push	{r3, lr}
	.cfi_def_cfa_offset 8
	.cfi_offset 3, -8
	.cfi_offset 14, -4
	mov	r1, r0
	.loc 1 84 2 is_stmt 1 view .LVU1391
.LVL126:
	.loc 1 104 2 view .LVU1392
	ldr	r0, [r0]
.LVL127:
	.loc 1 104 2 is_stmt 0 view .LVU1393
	bl	z_arm_fatal_error
.LVL128:
	.loc 1 116 1 view .LVU1394
	pop	{r3, pc}
	.cfi_endproc
.LFE541:
	.size	z_do_kernel_oops, .-z_do_kernel_oops
	.section	.text.arch_syscall_oops,"ax",%progbits
	.align	1
	.global	arch_syscall_oops
	.syntax unified
	.thumb
	.thumb_func
	.fpu fpv4-sp-d16
	.type	arch_syscall_oops, %function
arch_syscall_oops:
.LVL129:
.LFB542:
	.loc 1 119 1 is_stmt 1 view -0
	.cfi_startproc
	@ Volatile: function does not return.
	@ args = 0, pretend = 0, frame = 104
	@ frame_needed = 0, uses_anonymous_args = 0
	.loc 1 119 1 is_stmt 0 view .LVU1396
	push	{lr}
	.cfi_def_cfa_offset 4
	.cfi_offset 14, -4
	sub	sp, sp, #108
	.cfi_def_cfa_offset 112
	mov	r4, r0
	.loc 1 120 2 is_stmt 1 view .LVU1397
.LVL130:
	.loc 1 121 2 view .LVU1398
	.loc 1 121 15 is_stmt 0 view .LVU1399
	movs	r2, #104
	movs	r1, #0
	mov	r0, sp
.LVL131:
	.loc 1 121 15 view .LVU1400
	bl	memset
.LVL132:
	.loc 1 124 2 is_stmt 1 view .LVU1401
	.loc 1 124 20 is_stmt 0 view .LVU1402
	ldr	r3, [r4, #12]
	str	r3, [sp, #24]
	.loc 1 126 2 is_stmt 1 view .LVU1403
	mov	r1, sp
	movs	r0, #3
	bl	z_arm_fatal_error
.LVL133:
	.loc 1 127 2 view .LVU1404
	.cfi_endproc
.LFE542:
	.size	arch_syscall_oops, .-arch_syscall_oops
	.text
.Letext0:
	.file 3 "/home/sebin/LIOT/gcc-arm-none-eabi-9-2019-q4-major/lib/gcc/arm-none-eabi/9.2.1/include/stddef.h"
	.file 4 "/home/sebin/LIOT/gcc-arm-none-eabi-9-2019-q4-major/arm-none-eabi/include/machine/_default_types.h"
	.file 5 "/home/sebin/LIOT/gcc-arm-none-eabi-9-2019-q4-major/arm-none-eabi/include/sys/_stdint.h"
	.file 6 "/home/sebin/LIOT/gcc-arm-none-eabi-9-2019-q4-major/lib/gcc/arm-none-eabi/9.2.1/include/stdarg.h"
	.file 7 "/home/sebin/thesis/zephyrproject/zephyr/include/sys/dlist.h"
	.file 8 "/home/sebin/thesis/zephyrproject/zephyr/include/sys/rb.h"
	.file 9 "/home/sebin/thesis/zephyrproject/zephyr/include/sys/slist.h"
	.file 10 "/home/sebin/thesis/zephyrproject/zephyr/include/sys/sys_heap.h"
	.file 11 "/home/sebin/thesis/zephyrproject/zephyr/include/kernel_structs.h"
	.file 12 "/home/sebin/thesis/zephyrproject/zephyr/include/kernel/thread.h"
	.file 13 "/home/sebin/thesis/zephyrproject/zephyr/include/kernel.h"
	.file 14 "/home/sebin/thesis/zephyrproject/zephyr/include/kernel/thread_stack.h"
	.file 15 "/home/sebin/thesis/zephyrproject/zephyr/include/arch/arm/aarch32/thread.h"
	.file 16 "/home/sebin/thesis/zephyrproject/zephyr/include/arch/arm/aarch32/exc.h"
	.file 17 "/home/sebin/thesis/zephyrproject/zephyr/include/sw_isr_table.h"
	.file 18 "/home/sebin/thesis/zephyrproject/modules/hal/infineon/XMCLib/devices/XMC4500/Include/system_XMC4500.h"
	.file 19 "/home/sebin/thesis/zephyrproject/modules/hal/cmsis/CMSIS/Core/Include/core_cm4.h"
	.file 20 "/home/sebin/thesis/zephyrproject/zephyr/include/arch/arm/aarch32/mpu/arm_mpu_v7m.h"
	.file 21 "/home/sebin/thesis/zephyrproject/zephyr/include/arch/arm/aarch32/mpu/arm_mpu.h"
	.file 22 "/home/sebin/thesis/zephyrproject/zephyr/include/spinlock.h"
	.file 23 "/home/sebin/LIOT/gcc-arm-none-eabi-9-2019-q4-major/arm-none-eabi/include/sys/lock.h"
	.file 24 "/home/sebin/LIOT/gcc-arm-none-eabi-9-2019-q4-major/arm-none-eabi/include/sys/_types.h"
	.file 25 "/home/sebin/LIOT/gcc-arm-none-eabi-9-2019-q4-major/arm-none-eabi/include/sys/reent.h"
	.file 26 "/home/sebin/LIOT/gcc-arm-none-eabi-9-2019-q4-major/arm-none-eabi/include/sys/errno.h"
	.file 27 "/home/sebin/thesis/zephyrproject/zephyr/include/fatal.h"
	.file 28 "/home/sebin/thesis/zephyrproject/zephyr/arch/arm/include/aarch32/cortex_m/stack.h"
	.file 29 "/home/sebin/thesis/zephyrproject/zephyr/include/logging/log_instance.h"
	.file 30 "/home/sebin/thesis/zephyrproject/zephyr/include/sys/cbprintf_internal.h"
	.file 31 "/home/sebin/thesis/zephyrproject/zephyr/include/logging/log_msg2.h"
	.file 32 "/home/sebin/thesis/zephyrproject/zephyr/include/logging/log_msg.h"
	.file 33 "/home/sebin/thesis/zephyrproject/zephyr/include/logging/log_core.h"
	.file 34 "/home/sebin/thesis/dmz/zephyr_xmc_template/build/zephyr/include/generated/syscalls/log_msg2.h"
	.file 35 "<built-in>"
	.file 36 "/home/sebin/thesis/zephyrproject/zephyr/include/arch/structs.h"