	.cpu cortex-m4
	.eabi_attribute 27, 1
	.eabi_attribute 28, 1
	.eabi_attribute 20, 1
	.eabi_attribute 21, 1
	.eabi_attribute 23, 3
	.eabi_attribute 24, 1
	.eabi_attribute 25, 1
	.eabi_attribute 26, 1
	.eabi_attribute 30, 1
	.eabi_attribute 34, 1
	.eabi_attribute 38, 1
	.eabi_attribute 18, 4
	.file	"thread.c"
	.text
.Ltext0:
	.cfi_sections	.debug_frame
	.section	.text.z_arm_prepare_switch_to_main,"ax",%progbits
	.align	1
	.arch armv7e-m
	.syntax unified
	.thumb
	.thumb_func
	.fpu fpv4-sp-d16
	.type	z_arm_prepare_switch_to_main, %function
z_arm_prepare_switch_to_main:
.LFB559:
	.file 1 "/home/sebin/thesis/zephyrproject/zephyr/arch/arm/core/aarch32/thread.c"
	.loc 1 496 1 view -0
	.cfi_startproc
	@ args = 0, pretend = 0, frame = 0
	@ frame_needed = 0, uses_anonymous_args = 0
	@ link register save eliminated.
	.loc 1 502 2 view .LVU1
.LVL0:
.LBB34:
.LBI34:
	.file 2 "/home/sebin/thesis/zephyrproject/modules/hal/cmsis/CMSIS/Core/Include/cmsis_gcc.h"
	.loc 2 1614 51 view .LVU2
.LBB35:
	.loc 2 1624 3 view .LVU3
	movs	r3, #0
	.syntax unified
@ 1624 "/home/sebin/thesis/zephyrproject/modules/hal/cmsis/CMSIS/Core/Include/cmsis_gcc.h" 1
	VMSR fpscr, r3
@ 0 "" 2
.LVL1:
	.loc 2 1624 3 is_stmt 0 view .LVU4
	.thumb
	.syntax unified
.LBE35:
.LBE34:
	.loc 1 505 2 is_stmt 1 view .LVU5
.LBB36:
.LBI36:
	.loc 2 971 55 view .LVU6
.LBB37:
	.loc 2 973 3 view .LVU7
	.loc 2 975 3 view .LVU8
	.syntax unified
@ 975 "/home/sebin/thesis/zephyrproject/modules/hal/cmsis/CMSIS/Core/Include/cmsis_gcc.h" 1
	MRS r3, control
@ 0 "" 2
.LVL2:
	.loc 2 976 3 view .LVU9
	.loc 2 976 3 is_stmt 0 view .LVU10
	.thumb
	.syntax unified
.LBE37:
.LBE36:
	.loc 1 505 2 view .LVU11
	bic	r3, r3, #4
.LVL3:
.LBB38:
.LBI38:
	.loc 2 1001 51 is_stmt 1 view .LVU12
.LBB39:
	.loc 2 1003 3 view .LVU13
	.syntax unified
@ 1003 "/home/sebin/thesis/zephyrproject/modules/hal/cmsis/CMSIS/Core/Include/cmsis_gcc.h" 1
	MSR control, r3
@ 0 "" 2
	.loc 2 1004 3 view .LVU14
	.thumb
	.syntax unified
.LBB40:
.LBI40:
	.loc 2 258 51 view .LVU15
.LBB41:
	.loc 2 260 3 view .LVU16
	.syntax unified
@ 260 "/home/sebin/thesis/zephyrproject/modules/hal/cmsis/CMSIS/Core/Include/cmsis_gcc.h" 1
	isb 0xF
@ 0 "" 2
.LVL4:
	.loc 2 260 3 is_stmt 0 view .LVU17
	.thumb
	.syntax unified
.LBE41:
.LBE40:
.LBE39:
.LBE38:
	.loc 1 506 2 is_stmt 1 view .LVU18
.LBB42:
.LBI42:
	.loc 2 258 51 view .LVU19
.LBB43:
	.loc 2 260 3 view .LVU20
	.syntax unified
@ 260 "/home/sebin/thesis/zephyrproject/modules/hal/cmsis/CMSIS/Core/Include/cmsis_gcc.h" 1
	isb 0xF
@ 0 "" 2
	.thumb
	.syntax unified
.LBE43:
.LBE42:
	.loc 1 509 1 is_stmt 0 view .LVU21
	bx	lr
	.cfi_endproc
.LFE559:
	.size	z_arm_prepare_switch_to_main, .-z_arm_prepare_switch_to_main
	.section	.text.arch_new_thread,"ax",%progbits
	.align	1
	.global	arch_new_thread
	.syntax unified
	.thumb
	.thumb_func
	.fpu fpv4-sp-d16
	.type	arch_new_thread, %function
arch_new_thread:
.LVL5:
.LFB553:
	.loc 1 59 1 is_stmt 1 view -0
	.cfi_startproc
	@ args = 12, pretend = 0, frame = 0
	@ frame_needed = 0, uses_anonymous_args = 0
	@ link register save eliminated.
	.loc 1 59 1 is_stmt 0 view .LVU23
	push	{r4}
	.cfi_def_cfa_offset 4
	.cfi_offset 4, -4
	.loc 1 60 2 is_stmt 1 view .LVU24
	.loc 1 73 2 view .LVU25
	.loc 1 73 19 is_stmt 0 view .LVU26
	ldrb	r1, [r0, #12]	@ zero_extendqisi2
.LVL6:
	.loc 1 73 5 view .LVU27
	tst	r1, #2
	beq	.L3
	.loc 1 79 3 is_stmt 1 view .LVU28
	.loc 1 79 28 is_stmt 0 view .LVU29
	ldr	r1, [r0, #136]
	adds	r1, r1, #96
	str	r1, [r0, #136]
	.loc 1 80 3 is_stmt 1 view .LVU30
	.loc 1 80 27 is_stmt 0 view .LVU31
	ldr	r1, [r0, #140]
	subs	r1, r1, #96
	str	r1, [r0, #140]
.L3:
	.loc 1 85 2 is_stmt 1 view .LVU32
	.loc 1 85 9 is_stmt 0 view .LVU33
	sub	r4, r2, #32
.LVL7:
	.loc 1 93 2 is_stmt 1 view .LVU34
	.loc 1 93 15 is_stmt 0 view .LVU35
	ldr	r1, .L6
	.loc 1 98 2 is_stmt 1 view .LVU36
	.loc 1 98 13 is_stmt 0 view .LVU37
	bic	r1, r1, #1
	str	r1, [r2, #-8]
	.loc 1 100 2 is_stmt 1 view .LVU38
	.loc 1 100 13 is_stmt 0 view .LVU39
	str	r3, [r2, #-32]
	.loc 1 101 2 is_stmt 1 view .LVU40
	.loc 1 101 13 is_stmt 0 view .LVU41
	ldr	r3, [sp, #4]
.LVL8:
	.loc 1 101 13 view .LVU42
	str	r3, [r2, #-28]
	.loc 1 102 2 is_stmt 1 view .LVU43
	.loc 1 102 13 is_stmt 0 view .LVU44
	ldr	r3, [sp, #8]
	str	r3, [r2, #-24]
	.loc 1 103 2 is_stmt 1 view .LVU45
	.loc 1 103 13 is_stmt 0 view .LVU46
	ldr	r3, [sp, #12]
	str	r3, [r2, #-20]
	.loc 1 106 2 is_stmt 1 view .LVU47
	.loc 1 106 15 is_stmt 0 view .LVU48
	mov	r3, #16777216
	str	r3, [r2, #-4]
	.loc 1 115 2 is_stmt 1 view .LVU49
	.loc 1 115 27 is_stmt 0 view .LVU50
	str	r4, [r0, #80]
.LVL9:
	.loc 1 116 2 is_stmt 1 view .LVU51
	.loc 1 116 23 is_stmt 0 view .LVU52
	movs	r3, #0
	str	r3, [r0, #152]
	.loc 1 119 2 is_stmt 1 view .LVU53
	.loc 1 119 20 is_stmt 0 view .LVU54
	str	r3, [r0, #224]
	.loc 1 121 2 is_stmt 1 view .LVU55
	.loc 1 121 31 is_stmt 0 view .LVU56
	movs	r3, #253
	strb	r3, [r0, #225]
	.loc 1 121 38 is_stmt 1 view .LVU57
	.loc 1 124 2 view .LVU58
	.loc 1 124 19 is_stmt 0 view .LVU59
	ldrb	r3, [r0, #12]	@ zero_extendqisi2
	.loc 1 124 5 view .LVU60
	tst	r3, #2
	beq	.L2
	.loc 1 125 3 is_stmt 1 view .LVU61
	.loc 1 125 21 is_stmt 0 view .LVU62
	ldr	r3, [r0, #224]
	orr	r3, r3, #8
	str	r3, [r0, #224]
.L2:
	.loc 1 136 1 view .LVU63
	ldr	r4, [sp], #4
	.cfi_restore 4
	.cfi_def_cfa_offset 0
.LVL10:
	.loc 1 136 1 view .LVU64
	bx	lr
.L7:
	.align	2
.L6:
	.word	z_thread_entry
	.cfi_endproc
.LFE553:
	.size	arch_new_thread, .-arch_new_thread
	.section	.text.z_arm_mpu_stack_guard_and_fpu_adjust,"ax",%progbits
	.align	1
	.global	z_arm_mpu_stack_guard_and_fpu_adjust
	.syntax unified
	.thumb
	.thumb_func
	.fpu fpv4-sp-d16
	.type	z_arm_mpu_stack_guard_and_fpu_adjust, %function
z_arm_mpu_stack_guard_and_fpu_adjust:
.LVL11:
.LFB555:
	.loc 1 195 1 is_stmt 1 view -0
	.cfi_startproc
	@ args = 0, pretend = 0, frame = 0
	@ frame_needed = 0, uses_anonymous_args = 0
	@ link register save eliminated.
	.loc 1 196 2 view .LVU66
	.loc 1 196 20 is_stmt 0 view .LVU67
	ldrb	r3, [r0, #12]	@ zero_extendqisi2
	.loc 1 196 5 view .LVU68
	tst	r3, #2
	bne	.L9
	.loc 1 197 17 discriminator 1 view .LVU69
	ldrb	r3, [r0, #225]	@ zero_extendqisi2
	.loc 1 196 58 discriminator 1 view .LVU70
	tst	r3, #16
	beq	.L9
	.loc 1 224 2 is_stmt 1 view .LVU71
	.loc 1 224 53 is_stmt 0 view .LVU72
	ldr	r2, .L14
	ldr	r3, [r2, #4]
	bic	r3, r3, #1073741824
	str	r3, [r2, #4]
	.loc 1 226 2 is_stmt 1 view .LVU73
.LVL12:
.LBB44:
.LBI44:
	.loc 1 141 20 view .LVU74
.LBB45:
	.loc 1 144 2 view .LVU75
	.loc 1 167 3 view .LVU76
	.loc 1 167 20 is_stmt 0 view .LVU77
	ldr	r3, [r0, #224]
	.loc 1 167 6 view .LVU78
	tst	r3, #8
	beq	.L13
	.loc 1 170 4 is_stmt 1 view .LVU79
	.loc 1 170 22 is_stmt 0 view .LVU80
	bic	r3, r3, #8
	str	r3, [r0, #224]
	.loc 1 180 5 is_stmt 1 view .LVU81
	.loc 1 180 30 is_stmt 0 view .LVU82
	ldr	r3, [r0, #136]
	subs	r3, r3, #96
	str	r3, [r0, #136]
	.loc 1 182 5 is_stmt 1 view .LVU83
	.loc 1 182 29 is_stmt 0 view .LVU84
	ldr	r3, [r0, #140]
	adds	r3, r3, #96
	str	r3, [r0, #140]
.LBE45:
.LBE44:
	.loc 1 228 9 view .LVU85
	movs	r0, #32
.LVL13:
	.loc 1 228 9 view .LVU86
	bx	lr
.LVL14:
.L9:
	.loc 1 209 3 is_stmt 1 view .LVU87
	.loc 1 209 54 is_stmt 0 view .LVU88
	ldr	r2, .L14
	ldr	r3, [r2, #4]
	orr	r3, r3, #1073741824
	str	r3, [r2, #4]
	.loc 1 211 3 is_stmt 1 view .LVU89
.LVL15:
.LBB46:
.LBI46:
	.loc 1 141 20 view .LVU90
.LBB47:
	.loc 1 144 2 view .LVU91
	.loc 1 146 3 view .LVU92
	.loc 1 146 20 is_stmt 0 view .LVU93
	ldr	r3, [r0, #224]
	.loc 1 146 6 view .LVU94
	tst	r3, #8
	bne	.L11
	.loc 1 149 4 is_stmt 1 view .LVU95
	.loc 1 149 22 is_stmt 0 view .LVU96
	orr	r3, r3, #8
	str	r3, [r0, #224]
	.loc 1 159 5 is_stmt 1 view .LVU97
	.loc 1 159 30 is_stmt 0 view .LVU98
	ldr	r3, [r0, #136]
	adds	r3, r3, #96
	str	r3, [r0, #136]
	.loc 1 161 5 is_stmt 1 view .LVU99
	.loc 1 161 29 is_stmt 0 view .LVU100
	ldr	r3, [r0, #140]
	subs	r3, r3, #96
	str	r3, [r0, #140]
.L11:
.LVL16:
	.loc 1 161 29 view .LVU101
.LBE47:
.LBE46:
	.loc 1 214 3 is_stmt 1 view .LVU102
	.loc 1 214 29 is_stmt 0 view .LVU103
	ldrb	r3, [r0, #12]	@ zero_extendqisi2
	orr	r3, r3, #2
	strb	r3, [r0, #12]
	.loc 1 216 3 is_stmt 1 view .LVU104
	.loc 1 216 10 is_stmt 0 view .LVU105
	movs	r0, #128
.LVL17:
	.loc 1 216 10 view .LVU106
	bx	lr
.LVL18:
.L13:
	.loc 1 228 9 view .LVU107
	movs	r0, #32
.LVL19:
	.loc 1 229 1 view .LVU108
	bx	lr
.L15:
	.align	2
.L14:
	.word	-536809680
	.cfi_endproc
.LFE555:
	.size	z_arm_mpu_stack_guard_and_fpu_adjust, .-z_arm_mpu_stack_guard_and_fpu_adjust
	.section	.text.z_check_thread_stack_fail,"ax",%progbits
	.align	1
	.global	z_check_thread_stack_fail
	.syntax unified
	.thumb
	.thumb_func
	.fpu fpv4-sp-d16
	.type	z_check_thread_stack_fail, %function
z_check_thread_stack_fail:
.LVL20:
.LFB556:
	.loc 1 379 1 is_stmt 1 view -0
	.cfi_startproc
	@ args = 0, pretend = 0, frame = 0
	@ frame_needed = 0, uses_anonymous_args = 0
	@ link register save eliminated.
	.loc 1 381 2 view .LVU110
	.loc 1 381 25 is_stmt 0 view .LVU111
	ldr	r3, .L37
	ldr	r3, [r3, #8]
.LVL21:
	.loc 1 383 2 is_stmt 1 view .LVU112
	.loc 1 383 5 is_stmt 0 view .LVU113
	cbz	r3, .L22
	.loc 1 390 2 is_stmt 1 view .LVU114
	.loc 1 391 34 is_stmt 0 view .LVU115
	ldr	r2, [r3, #224]
	.loc 1 392 7 view .LVU116
	tst	r2, #8
	beq	.L23
	movs	r2, #128
.L18:
.LVL22:
	.loc 1 431 2 is_stmt 1 view .LVU117
	.loc 1 431 6 is_stmt 0 view .LVU118
	cmn	r0, #22
	beq	.L19
	.loc 1 379 1 discriminator 1 view .LVU119
	push	{r4}
	.cfi_def_cfa_offset 4
	.cfi_offset 4, -4
	.loc 1 431 43 discriminator 1 view .LVU120
	ldr	r4, [r3, #136]
	.loc 1 431 50 discriminator 1 view .LVU121
	subs	r2, r4, r2
.LVL23:
	.loc 1 431 132 discriminator 1 view .LVU122
	cmp	r2, r0
	bhi	.L24
	.loc 1 431 63 discriminator 3 view .LVU123
	cmp	r4, r0
	bls	.L25
	.loc 1 431 132 discriminator 5 view .LVU124
	cmp	r4, r1
	bhi	.L26
	.loc 1 431 132 view .LVU125
	movs	r1, #0
.LVL24:
	.loc 1 431 132 view .LVU126
	b	.L21
.LVL25:
.L23:
	.cfi_def_cfa_offset 0
	.cfi_restore 4
	.loc 1 392 7 view .LVU127
	movs	r2, #32
	b	.L18
.L24:
	.cfi_def_cfa_offset 4
	.cfi_offset 4, -4
	.loc 1 431 132 view .LVU128
	movs	r1, #0
.LVL26:
.L21:
	.loc 1 431 5 discriminator 12 view .LVU129
	cbnz	r1, .L35
	.loc 1 447 9 view .LVU130
	movs	r0, #0
.LVL27:
.L16:
	.loc 1 448 1 view .LVU131
	ldr	r4, [sp], #4
	.cfi_remember_state
	.cfi_restore 4
	.cfi_def_cfa_offset 0
	bx	lr
.LVL28:
.L25:
	.cfi_restore_state
	.loc 1 431 132 view .LVU132
	movs	r1, #0
.LVL29:
	.loc 1 431 132 view .LVU133
	b	.L21
.LVL30:
.L26:
	.loc 1 431 132 view .LVU134
	movs	r1, #1
.LVL31:
	.loc 1 431 132 view .LVU135
	b	.L21
.L35:
	.loc 1 435 3 is_stmt 1 view .LVU136
	.loc 1 435 28 is_stmt 0 view .LVU137
	ldr	r0, [r3, #136]
.LVL32:
	.loc 1 435 28 view .LVU138
	b	.L16
.LVL33:
.L22:
	.cfi_def_cfa_offset 0
	.cfi_restore 4
	.loc 1 384 10 view .LVU139
	movs	r0, #0
.LVL34:
	.loc 1 384 10 view .LVU140
	bx	lr
.LVL35:
.L19:
	.loc 1 431 223 discriminator 2 view .LVU141
	ldr	r2, [r3, #136]
.LVL36:
	.loc 1 431 6 discriminator 2 view .LVU142
	cmp	r2, r1
	ite	ls
	movls	r1, #0
.LVL37:
	.loc 1 431 6 discriminator 2 view .LVU143
	movhi	r1, #1
	.loc 1 431 5 discriminator 2 view .LVU144
	cbnz	r1, .L36
	.loc 1 447 9 view .LVU145
	movs	r0, #0
.LVL38:
	.loc 1 448 1 view .LVU146
	bx	lr
.LVL39:
.L36:
	.loc 1 435 3 is_stmt 1 view .LVU147
	.loc 1 435 28 is_stmt 0 view .LVU148
	ldr	r0, [r3, #136]
.LVL40:
	.loc 1 435 28 view .LVU149
	bx	lr
.L38:
	.align	2
.L37:
	.word	_kernel
	.cfi_endproc
.LFE556:
	.size	z_check_thread_stack_fail, .-z_check_thread_stack_fail
	.section	.text.arch_float_disable,"ax",%progbits
	.align	1
	.global	arch_float_disable
	.syntax unified
	.thumb
	.thumb_func
	.fpu fpv4-sp-d16
	.type	arch_float_disable, %function
arch_float_disable:
.LVL41:
.LFB557:
	.loc 1 453 1 is_stmt 1 view -0
	.cfi_startproc
	@ args = 0, pretend = 0, frame = 0
	@ frame_needed = 0, uses_anonymous_args = 0
	@ link register save eliminated.
	.loc 1 454 2 view .LVU151
	.loc 1 454 31 is_stmt 0 view .LVU152
	ldr	r3, .L43
	ldr	r3, [r3, #8]
	.loc 1 454 5 view .LVU153
	cmp	r3, r0
	bne	.L41
	.loc 1 458 2 is_stmt 1 view .LVU154
.LBB48:
.LBI48:
	.file 3 "/home/sebin/thesis/zephyrproject/zephyr/arch/arm/include/aarch32/cortex_m/exc.h"
	.loc 3 46 26 view .LVU155
.LBE48:
	.loc 3 48 2 view .LVU156
.LBB51:
.LBB49:
.LBI49:
	.loc 2 1027 55 view .LVU157
.LBB50:
	.loc 2 1029 3 view .LVU158
	.loc 2 1031 3 view .LVU159
	.syntax unified
@ 1031 "/home/sebin/thesis/zephyrproject/modules/hal/cmsis/CMSIS/Core/Include/cmsis_gcc.h" 1
	MRS r3, ipsr
@ 0 "" 2
.LVL42:
	.loc 2 1032 3 view .LVU160
	.loc 2 1032 3 is_stmt 0 view .LVU161
	.thumb
	.syntax unified
.LBE50:
.LBE49:
.LBE51:
	.loc 1 458 5 view .LVU162
	cbnz	r3, .L42
	.loc 1 469 2 is_stmt 1 view .LVU163
.LBB52:
.LBI52:
	.file 4 "/home/sebin/thesis/zephyrproject/zephyr/include/arch/arm/aarch32/asm_inline_gcc.h"
	.loc 4 43 59 view .LVU164
.LBB53:
	.loc 4 45 2 view .LVU165
	.loc 4 54 2 view .LVU166
	.loc 4 56 2 view .LVU167
	.syntax unified
@ 56 "/home/sebin/thesis/zephyrproject/zephyr/include/arch/arm/aarch32/asm_inline_gcc.h" 1
	mov r3, #4;mrs r2, BASEPRI;msr BASEPRI_MAX, r3;isb;
@ 0 "" 2
.LVL43:
	.loc 4 76 2 view .LVU168
	.loc 4 76 2 is_stmt 0 view .LVU169
	.thumb
	.syntax unified
.LBE53:
.LBE52:
	.loc 1 471 2 is_stmt 1 view .LVU170
	.loc 1 471 28 is_stmt 0 view .LVU171
	ldrb	r3, [r0, #12]	@ zero_extendqisi2
	bic	r3, r3, #2
	strb	r3, [r0, #12]
	.loc 1 473 2 is_stmt 1 view .LVU172
.LBB54:
.LBI54:
	.loc 2 971 55 view .LVU173
.LBB55:
	.loc 2 973 3 view .LVU174
	.loc 2 975 3 view .LVU175
	.syntax unified
@ 975 "/home/sebin/thesis/zephyrproject/modules/hal/cmsis/CMSIS/Core/Include/cmsis_gcc.h" 1
	MRS r3, control
@ 0 "" 2
.LVL44:
	.loc 2 976 3 view .LVU176
	.loc 2 976 3 is_stmt 0 view .LVU177
	.thumb
	.syntax unified
.LBE55:
.LBE54:
	.loc 1 473 2 view .LVU178
	bic	r3, r3, #4
.LVL45:
.LBB56:
.LBI56:
	.loc 2 1001 51 is_stmt 1 view .LVU179
.LBB57:
	.loc 2 1003 3 view .LVU180
	.syntax unified
@ 1003 "/home/sebin/thesis/zephyrproject/modules/hal/cmsis/CMSIS/Core/Include/cmsis_gcc.h" 1
	MSR control, r3
@ 0 "" 2
	.loc 2 1004 3 view .LVU181
	.thumb
	.syntax unified
.LBB58:
.LBI58:
	.loc 2 258 51 view .LVU182
.LBB59:
	.loc 2 260 3 view .LVU183
	.syntax unified
@ 260 "/home/sebin/thesis/zephyrproject/modules/hal/cmsis/CMSIS/Core/Include/cmsis_gcc.h" 1
	isb 0xF
@ 0 "" 2
.LVL46:
	.loc 2 260 3 is_stmt 0 view .LVU184
	.thumb
	.syntax unified
.LBE59:
.LBE58:
.LBE57:
.LBE56:
	.loc 1 479 2 is_stmt 1 view .LVU185
.LBB60:
.LBI60:
	.loc 4 84 51 view .LVU186
.LBB61:
	.loc 4 95 2 view .LVU187
	.syntax unified
@ 95 "/home/sebin/thesis/zephyrproject/zephyr/include/arch/arm/aarch32/asm_inline_gcc.h" 1
	msr BASEPRI, r2;isb;
@ 0 "" 2
.LVL47:
	.loc 4 95 2 is_stmt 0 view .LVU188
	.thumb
	.syntax unified
.LBE61:
.LBE60:
	.loc 1 481 2 is_stmt 1 view .LVU189
	.loc 1 481 9 is_stmt 0 view .LVU190
	movs	r0, #0
.LVL48:
	.loc 1 481 9 view .LVU191
	bx	lr
.LVL49:
.L41:
	.loc 1 455 10 view .LVU192
	mvn	r0, #21
.LVL50:
	.loc 1 455 10 view .LVU193
	bx	lr
.LVL51:
.L42:
	.loc 1 459 10 view .LVU194
	mvn	r0, #21
.LVL52:
	.loc 1 482 1 view .LVU195
	bx	lr
.L44:
	.align	2
.L43:
	.word	_kernel
	.cfi_endproc
.LFE557:
	.size	arch_float_disable, .-arch_float_disable
	.section	.text.arch_float_enable,"ax",%progbits
	.align	1
	.global	arch_float_enable
	.syntax unified
	.thumb
	.thumb_func
	.fpu fpv4-sp-d16
	.type	arch_float_enable, %function
arch_float_enable:
.LVL53:
.LFB558:
	.loc 1 485 1 is_stmt 1 view -0
	.cfi_startproc
	@ args = 0, pretend = 0, frame = 0
	@ frame_needed = 0, uses_anonymous_args = 0
	@ link register save eliminated.
	.loc 1 487 2 view .LVU197
	.loc 1 488 1 is_stmt 0 view .LVU198
	mvn	r0, #133
.LVL54:
	.loc 1 488 1 view .LVU199
	bx	lr
	.cfi_endproc
.LFE558:
	.size	arch_float_enable, .-arch_float_enable
	.section	.text.arch_switch_to_main_thread,"ax",%progbits
	.align	1
	.global	arch_switch_to_main_thread
	.syntax unified
	.thumb
	.thumb_func
	.fpu fpv4-sp-d16
	.type	arch_switch_to_main_thread, %function
arch_switch_to_main_thread:
.LVL55:
.LFB560:
	.loc 1 513 1 is_stmt 1 view -0
	.cfi_startproc
	@ Volatile: function does not return.
	@ args = 0, pretend = 0, frame = 0
	@ frame_needed = 0, uses_anonymous_args = 0
	.loc 1 513 1 is_stmt 0 view .LVU201
	push	{r3, lr}
	.cfi_def_cfa_offset 8
	.cfi_offset 3, -8
	.cfi_offset 14, -4
	mov	r4, r0
	mov	r6, r1
	mov	r5, r2
	.loc 1 514 2 is_stmt 1 view .LVU202
	bl	z_arm_prepare_switch_to_main
.LVL56:
	.loc 1 516 2 view .LVU203
	.loc 1 516 26 is_stmt 0 view .LVU204
	ldr	r3, .L48
	str	r4, [r3, #8]
	.loc 1 541 2 is_stmt 1 view .LVU205
	mov	r0, r4
	bl	z_arm_configure_dynamic_mpu_regions
.LVL57:
	.loc 1 557 2 view .LVU206
	.syntax unified
@ 557 "/home/sebin/thesis/zephyrproject/zephyr/arch/arm/core/aarch32/thread.c" 1
	mov   r0,  r5
	msr   PSP, r6
	movs r1, #0
	cpsie if
	msr   BASEPRI, r1
	isb
	movs r2, #0
	movs r3, #0
	bl z_thread_entry
	
@ 0 "" 2
	.loc 1 583 2 view .LVU207
	.thumb
	.syntax unified
.L49:
	.align	2
.L48:
	.word	_kernel
	.cfi_endproc
.LFE560:
	.size	arch_switch_to_main_thread, .-arch_switch_to_main_thread
	.text
.Letext0:
	.file 5 "/home/sebin/LIOT/gcc-arm-none-eabi-9-2019-q4-major/lib/gcc/arm-none-eabi/9.2.1/include/stddef.h"
	.file 6 "/home/sebin/LIOT/gcc-arm-none-eabi-9-2019-q4-major/arm-none-eabi/include/machine/_default_types.h"
	.file 7 "/home/sebin/LIOT/gcc-arm-none-eabi-9-2019-q4-major/arm-none-eabi/include/sys/_stdint.h"
	.file 8 "/home/sebin/thesis/zephyrproject/zephyr/include/sys/dlist.h"
	.file 9 "/home/sebin/thesis/zephyrproject/zephyr/include/sys/rb.h"
	.file 10 "/home/sebin/thesis/zephyrproject/zephyr/include/sys/slist.h"
	.file 11 "/home/sebin/thesis/zephyrproject/zephyr/include/sys/sys_heap.h"
	.file 12 "/home/sebin/thesis/zephyrproject/zephyr/include/kernel_structs.h"
	.file 13 "/home/sebin/thesis/zephyrproject/zephyr/include/kernel/thread.h"
	.file 14 "/home/sebin/thesis/zephyrproject/zephyr/include/kernel.h"
	.file 15 "/home/sebin/thesis/zephyrproject/zephyr/include/sys/arch_interface.h"
	.file 16 "/home/sebin/thesis/zephyrproject/zephyr/include/kernel/thread_stack.h"
	.file 17 "/home/sebin/thesis/zephyrproject/zephyr/include/arch/arm/aarch32/thread.h"
	.file 18 "/home/sebin/thesis/zephyrproject/zephyr/include/arch/arm/aarch32/exc.h"
	.file 19 "/home/sebin/thesis/zephyrproject/zephyr/include/sw_isr_table.h"
	.file 20 "/home/sebin/thesis/zephyrproject/modules/hal/infineon/XMCLib/devices/XMC4500/Include/system_XMC4500.h"
	.file 21 "/home/sebin/thesis/zephyrproject/modules/hal/cmsis/CMSIS/Core/Include/core_cm4.h"
	.file 22 "/home/sebin/thesis/zephyrproject/zephyr/include/arch/arm/aarch32/mpu/arm_mpu_v7m.h"
	.file 23 "/home/sebin/thesis/zephyrproject/zephyr/include/arch/arm/aarch32/mpu/arm_mpu.h"
	.file 24 "/home/sebin/thesis/zephyrproject/zephyr/include/spinlock.h"
	.file 25 "/home/sebin/LIOT/gcc-arm-none-eabi-9-2019-q4-major/arm-none-eabi/include/sys/lock.h"
	.file 26 "/home/sebin/LIOT/gcc-arm-none-eabi-9-2019-q4-major/arm-none-eabi/include/sys/_types.h"
	.file 27 "/home/sebin/LIOT/gcc-arm-none-eabi-9-2019-q4-major/arm-none-eabi/include/sys/reent.h"
	.file 28 "/home/sebin/LIOT/gcc-arm-none-eabi-9-2019-q4-major/arm-none-eabi/include/sys/errno.h"
	.file 29 "/home/sebin/thesis/zephyrproject/zephyr/arch/arm/include/aarch32/cortex_m/stack.h"
	.file 30 "/home/sebin/thesis/zephyrproject/zephyr/kernel/include/kernel_internal.h"
	.file 31 "/home/sebin/thesis/zephyrproject/zephyr/include/arch/structs.h"
	.file 32 "/home/sebin/thesis/zephyrproject/zephyr/arch/arm/include/aarch32/kernel_arch_func.h"