	.cpu cortex-m4
	.eabi_attribute 27, 1
	.eabi_attribute 28, 1
	.eabi_attribute 20, 1
	.eabi_attribute 21, 1
	.eabi_attribute 23, 3
	.eabi_attribute 24, 1
	.eabi_attribute 25, 1
	.eabi_attribute 26, 1
	.eabi_attribute 30, 1
	.eabi_attribute 34, 1
	.eabi_attribute 38, 1
	.eabi_attribute 18, 4
	.file	"xmc_uart.c"
	.text
.Ltext0:
	.cfi_sections	.debug_frame
	.section	.text.XMC_UART_CH_InitEx,"ax",%progbits
	.align	1
	.global	XMC_UART_CH_InitEx
	.arch armv7e-m
	.syntax unified
	.thumb
	.thumb_func
	.fpu fpv4-sp-d16
	.type	XMC_UART_CH_InitEx, %function
XMC_UART_CH_InitEx:
.LVL0:
.LFB271:
	.file 1 "/home/sebin/thesis/zephyrproject/modules/hal/infineon/XMCLib/drivers/src/xmc_uart.c"
	.loc 1 96 1 view -0
	.cfi_startproc
	@ args = 0, pretend = 0, frame = 0
	@ frame_needed = 0, uses_anonymous_args = 0
	.loc 1 96 1 is_stmt 0 view .LVU1
	push	{r3, r4, r5, r6, r7, lr}
	.cfi_def_cfa_offset 24
	.cfi_offset 3, -24
	.cfi_offset 4, -20
	.cfi_offset 5, -16
	.cfi_offset 6, -12
	.cfi_offset 7, -8
	.cfi_offset 14, -4
	mov	r5, r0
	mov	r6, r1
	mov	r7, r2
	.loc 1 97 3 is_stmt 1 view .LVU2
.LVL1:
	.loc 1 100 3 view .LVU3
	bl	XMC_USIC_CH_Enable
.LVL2:
	.loc 1 102 3 view .LVU4
	.loc 1 102 13 is_stmt 0 view .LVU5
	ldrb	r4, [r6, #8]	@ zero_extendqisi2
	.loc 1 102 6 view .LVU6
	cbnz	r4, .L2
	.loc 1 97 12 view .LVU7
	movs	r4, #16
.L2:
.LVL3:
	.loc 1 107 3 is_stmt 1 view .LVU8
	.loc 1 107 6 is_stmt 0 view .LVU9
	cbz	r7, .L3
	.loc 1 110 5 is_stmt 1 view .LVU10
	.loc 1 110 15 is_stmt 0 view .LVU11
	ldrb	r3, [r6, #4]	@ zero_extendqisi2
	.loc 1 110 8 view .LVU12
	cbz	r3, .L4
	.loc 1 113 7 is_stmt 1 view .LVU13
	.loc 1 113 13 is_stmt 0 view .LVU14
	mov	r2, r4
	ldr	r1, [r6]
	mov	r0, r5
	bl	XMC_USIC_CH_SetBaudrateEx
.LVL4:
.L3:
	.loc 1 130 3 is_stmt 1 view .LVU15
	.loc 1 130 45 is_stmt 0 view .LVU16
	ldrb	r3, [r6, #7]	@ zero_extendqisi2
	.loc 1 130 57 view .LVU17
	subs	r2, r3, #1
	.loc 1 131 53 view .LVU18
	lsrs	r3, r4, #1
	.loc 1 131 61 view .LVU19
	adds	r3, r3, #1
	.loc 1 131 68 view .LVU20
	lsls	r3, r3, #8
	.loc 1 130 74 view .LVU21
	orr	r3, r3, r2, lsl #1
	.loc 1 133 49 view .LVU22
	orr	r3, r3, #196608
	orr	r3, r3, #1
	.loc 1 130 24 view .LVU23
	str	r3, [r5, #60]
	.loc 1 140 3 is_stmt 1 view .LVU24
	.loc 1 140 48 is_stmt 0 view .LVU25
	ldrb	r3, [r6, #5]	@ zero_extendqisi2
	.loc 1 140 60 view .LVU26
	subs	r3, r3, #1
	.loc 1 140 67 view .LVU27
	lsls	r3, r3, #24
	.loc 1 140 78 view .LVU28
	orr	r3, r3, #258
	.loc 1 140 17 view .LVU29
	str	r3, [r5, #52]
	.loc 1 143 3 is_stmt 1 view .LVU30
	.loc 1 143 13 is_stmt 0 view .LVU31
	ldrb	r3, [r6, #6]	@ zero_extendqisi2
	.loc 1 143 6 view .LVU32
	cbz	r3, .L5
	.loc 1 145 5 is_stmt 1 view .LVU33
	.loc 1 145 19 is_stmt 0 view .LVU34
	ldr	r2, [r5, #52]
	.loc 1 145 65 view .LVU35
	subs	r3, r3, #1
	.loc 1 145 19 view .LVU36
	orr	r3, r2, r3, lsl #16
	str	r3, [r5, #52]
.L6:
	.loc 1 153 3 is_stmt 1 view .LVU37
	.loc 1 153 17 is_stmt 0 view .LVU38
	mov	r3, #1280
	str	r3, [r5, #56]
	.loc 1 157 3 is_stmt 1 view .LVU39
	.loc 1 157 17 is_stmt 0 view .LVU40
	mov	r3, #-1
	str	r3, [r5, #76]
	.loc 1 160 3 is_stmt 1 view .LVU41
	.loc 1 160 34 is_stmt 0 view .LVU42
	ldrh	r3, [r6, #10]
	.loc 1 160 16 view .LVU43
	str	r3, [r5, #64]
	.loc 1 161 1 view .LVU44
	pop	{r3, r4, r5, r6, r7, pc}
.LVL5:
.L4:
	.loc 1 118 7 is_stmt 1 view .LVU45
	.loc 1 118 13 is_stmt 0 view .LVU46
	mov	r2, r4
	ldr	r1, [r6]
	mov	r0, r5
	bl	XMC_USIC_CH_SetBaudrate
.LVL6:
	b	.L3
.L5:
	.loc 1 149 5 is_stmt 1 view .LVU47
	.loc 1 149 19 is_stmt 0 view .LVU48
	ldr	r3, [r5, #52]
	.loc 1 149 50 view .LVU49
	ldrb	r2, [r6, #5]	@ zero_extendqisi2
	.loc 1 149 62 view .LVU50
	subs	r2, r2, #1
	.loc 1 149 19 view .LVU51
	orr	r3, r3, r2, lsl #16
	str	r3, [r5, #52]
	b	.L6
	.cfi_endproc
.LFE271:
	.size	XMC_UART_CH_InitEx, .-XMC_UART_CH_InitEx
	.section	.text.XMC_UART_CH_SetBaudrate,"ax",%progbits
	.align	1
	.global	XMC_UART_CH_SetBaudrate
	.syntax unified
	.thumb
	.thumb_func
	.fpu fpv4-sp-d16
	.type	XMC_UART_CH_SetBaudrate, %function
XMC_UART_CH_SetBaudrate:
.LVL7:
.LFB272:
	.loc 1 164 1 is_stmt 1 view -0
	.cfi_startproc
	@ args = 0, pretend = 0, frame = 0
	@ frame_needed = 0, uses_anonymous_args = 0
	.loc 1 164 1 is_stmt 0 view .LVU53
	push	{r4, r5, r6, lr}
	.cfi_def_cfa_offset 16
	.cfi_offset 4, -16
	.cfi_offset 5, -12
	.cfi_offset 6, -8
	.cfi_offset 14, -4
	mov	r6, r0
	mov	r4, r1
	mov	r5, r2
	.loc 1 165 3 is_stmt 1 view .LVU54
	.loc 1 167 3 view .LVU55
.LVL8:
	.loc 1 169 3 view .LVU56
	.loc 1 169 17 is_stmt 0 view .LVU57
	bl	XMC_SCU_CLOCK_GetPeripheralClockFrequency
.LVL9:
	.loc 1 169 6 view .LVU58
	cmp	r4, r0, lsr #2
	bhi	.L11
	.loc 1 169 69 discriminator 1 view .LVU59
	cmp	r5, #3
	bhi	.L14
	.loc 1 167 10 view .LVU60
	movs	r0, #1
	b	.L10
.L14:
	.loc 1 171 5 is_stmt 1 view .LVU61
	.loc 1 171 9 is_stmt 0 view .LVU62
	mov	r2, r5
	mov	r1, r4
	mov	r0, r6
	bl	XMC_USIC_CH_SetBaudrate
.LVL10:
	.loc 1 171 8 view .LVU63
	cbz	r0, .L10
	.loc 1 167 10 view .LVU64
	movs	r0, #1
	b	.L10
.L11:
	.loc 1 167 10 view .LVU65
	movs	r0, #1
.L10:
.LVL11:
	.loc 1 176 3 is_stmt 1 view .LVU66
	.loc 1 177 1 is_stmt 0 view .LVU67
	pop	{r4, r5, r6, pc}
	.loc 1 177 1 view .LVU68
	.cfi_endproc
.LFE272:
	.size	XMC_UART_CH_SetBaudrate, .-XMC_UART_CH_SetBaudrate
	.section	.text.XMC_UART_CH_SetBaudrateEx,"ax",%progbits
	.align	1
	.global	XMC_UART_CH_SetBaudrateEx
	.syntax unified
	.thumb
	.thumb_func
	.fpu fpv4-sp-d16
	.type	XMC_UART_CH_SetBaudrateEx, %function
XMC_UART_CH_SetBaudrateEx:
.LVL12:
.LFB273:
	.loc 1 180 1 is_stmt 1 view -0
	.cfi_startproc
	@ args = 0, pretend = 0, frame = 0
	@ frame_needed = 0, uses_anonymous_args = 0
	.loc 1 180 1 is_stmt 0 view .LVU70
	push	{r3, r4, r5, r6, r7, lr}
	.cfi_def_cfa_offset 24
	.cfi_offset 3, -24
	.cfi_offset 4, -20
	.cfi_offset 5, -16
	.cfi_offset 6, -12
	.cfi_offset 7, -8
	.cfi_offset 14, -4
	mov	r6, r0
	mov	r4, r1
	mov	r5, r2
	mov	r7, r3
	.loc 1 181 3 is_stmt 1 view .LVU71
	.loc 1 183 3 view .LVU72
	.loc 1 183 17 is_stmt 0 view .LVU73
	bl	XMC_SCU_CLOCK_GetPeripheralClockFrequency
.LVL13:
	.loc 1 183 6 view .LVU74
	cmp	r4, r0, lsr #2
	bhi	.L18
	.loc 1 183 69 discriminator 1 view .LVU75
	cmp	r5, #3
	bls	.L19
	.loc 1 185 5 is_stmt 1 view .LVU76
	.loc 1 185 8 is_stmt 0 view .LVU77
	cbz	r7, .L17
	.loc 1 188 7 is_stmt 1 view .LVU78
	.loc 1 188 16 is_stmt 0 view .LVU79
	mov	r2, r5
	mov	r1, r4
	mov	r0, r6
	bl	XMC_USIC_CH_SetBaudrateEx
.LVL14:
	.loc 1 188 16 view .LVU80
	b	.L16
.LVL15:
.L17:
	.loc 1 193 7 is_stmt 1 view .LVU81
	.loc 1 193 16 is_stmt 0 view .LVU82
	mov	r2, r5
	mov	r1, r4
	mov	r0, r6
	bl	XMC_USIC_CH_SetBaudrate
.LVL16:
	.loc 1 193 16 view .LVU83
	b	.L16
.LVL17:
.L18:
	.loc 1 198 12 view .LVU84
	movs	r0, #1
.L16:
.LVL18:
	.loc 1 201 3 is_stmt 1 view .LVU85
	.loc 1 202 1 is_stmt 0 view .LVU86
	pop	{r3, r4, r5, r6, r7, pc}
.LVL19:
.L19:
	.loc 1 198 12 view .LVU87
	movs	r0, #1
	b	.L16
	.cfi_endproc
.LFE273:
	.size	XMC_UART_CH_SetBaudrateEx, .-XMC_UART_CH_SetBaudrateEx
	.section	.text.XMC_UART_CH_Transmit,"ax",%progbits
	.align	1
	.global	XMC_UART_CH_Transmit
	.syntax unified
	.thumb
	.thumb_func
	.fpu fpv4-sp-d16
	.type	XMC_UART_CH_Transmit, %function
XMC_UART_CH_Transmit:
.LVL20:
.LFB274:
	.loc 1 205 1 is_stmt 1 view -0
	.cfi_startproc
	@ args = 0, pretend = 0, frame = 0
	@ frame_needed = 0, uses_anonymous_args = 0
	@ link register save eliminated.
	.loc 1 207 3 view .LVU89
	.loc 1 207 15 is_stmt 0 view .LVU90
	ldr	r3, [r0, #264]
	.loc 1 207 6 view .LVU91
	tst	r3, #117440512
	bne	.L22
.L23:
	.loc 1 212 5 is_stmt 1 discriminator 1 view .LVU92
	.loc 1 210 11 discriminator 1 view .LVU93
.LVL21:
.LBB12:
.LBI12:
	.file 2 "/home/sebin/thesis/zephyrproject/modules/hal/infineon/XMCLib/drivers/inc/xmc_usic.h"
	.loc 2 1317 41 discriminator 1 view .LVU94
.LBB13:
	.loc 2 1319 3 discriminator 1 view .LVU95
	.loc 2 1319 45 is_stmt 0 discriminator 1 view .LVU96
	ldr	r3, [r0, #56]
.LVL22:
	.loc 2 1319 45 discriminator 1 view .LVU97
.LBE13:
.LBE12:
	.loc 1 210 11 discriminator 1 view .LVU98
	tst	r3, #128
	bne	.L23
	.loc 1 215 5 is_stmt 1 view .LVU99
.LVL23:
.LBB14:
.LBI14:
	.file 3 "/home/sebin/thesis/zephyrproject/modules/hal/infineon/XMCLib/drivers/inc/xmc_uart.h"
	.loc 3 627 20 view .LVU100
.LBB15:
	.loc 3 629 3 view .LVU101
	.loc 3 629 17 is_stmt 0 view .LVU102
	mov	r3, #8192
	str	r3, [r0, #76]
.LVL24:
	.loc 3 629 17 view .LVU103
.LBE15:
.LBE14:
	.loc 1 218 5 is_stmt 1 view .LVU104
	.loc 1 218 23 is_stmt 0 view .LVU105
	str	r1, [r0, #128]
	bx	lr
.L22:
	.loc 1 222 5 is_stmt 1 view .LVU106
	.loc 1 222 21 is_stmt 0 view .LVU107
	str	r1, [r0, #384]
	.loc 1 224 1 view .LVU108
	bx	lr
	.cfi_endproc
.LFE274:
	.size	XMC_UART_CH_Transmit, .-XMC_UART_CH_Transmit
	.section	.text.XMC_UART_CH_GetReceivedData,"ax",%progbits
	.align	1
	.global	XMC_UART_CH_GetReceivedData
	.syntax unified
	.thumb
	.thumb_func
	.fpu fpv4-sp-d16
	.type	XMC_UART_CH_GetReceivedData, %function
XMC_UART_CH_GetReceivedData:
.LVL25:
.LFB275:
	.loc 1 227 1 is_stmt 1 view -0
	.cfi_startproc
	@ args = 0, pretend = 0, frame = 0
	@ frame_needed = 0, uses_anonymous_args = 0
	@ link register save eliminated.
	.loc 1 228 3 view .LVU110
	.loc 1 231 3 view .LVU111
	.loc 1 231 15 is_stmt 0 view .LVU112
	ldr	r3, [r0, #268]
	.loc 1 231 6 view .LVU113
	tst	r3, #117440512
	bne	.L26
	.loc 1 233 5 is_stmt 1 view .LVU114
	.loc 1 233 31 is_stmt 0 view .LVU115
	ldr	r0, [r0, #84]
.LVL26:
	.loc 1 233 12 view .LVU116
	uxth	r0, r0
.LVL27:
	.loc 1 233 12 view .LVU117
	bx	lr
.LVL28:
.L26:
	.loc 1 237 5 is_stmt 1 view .LVU118
	.loc 1 237 31 is_stmt 0 view .LVU119
	ldr	r0, [r0, #284]
.LVL29:
	.loc 1 237 12 view .LVU120
	uxth	r0, r0
.LVL30:
	.loc 1 240 3 is_stmt 1 view .LVU121
	.loc 1 241 1 is_stmt 0 view .LVU122
	bx	lr
	.cfi_endproc
.LFE275:
	.size	XMC_UART_CH_GetReceivedData, .-XMC_UART_CH_GetReceivedData
	.section	.text.XMC_UART_CH_Stop,"ax",%progbits
	.align	1
	.global	XMC_UART_CH_Stop
	.syntax unified
	.thumb
	.thumb_func
	.fpu fpv4-sp-d16
	.type	XMC_UART_CH_Stop, %function
XMC_UART_CH_Stop:
.LVL31:
.LFB276:
	.loc 1 244 1 is_stmt 1 view -0
	.cfi_startproc
	@ args = 0, pretend = 0, frame = 0
	@ frame_needed = 0, uses_anonymous_args = 0
	@ link register save eliminated.
	.loc 1 245 3 view .LVU124
	.loc 1 247 3 view .LVU125
.LBB16:
.LBI16:
	.loc 2 1317 41 view .LVU126
.LBB17:
	.loc 2 1319 3 view .LVU127
	.loc 2 1319 45 is_stmt 0 view .LVU128
	ldr	r3, [r0, #56]
.LVL32:
	.loc 2 1319 45 view .LVU129
.LBE17:
.LBE16:
	.loc 1 247 6 view .LVU130
	tst	r3, #128
	bne	.L30
.LVL33:
.LBB18:
.LBI18:
	.loc 3 604 24 is_stmt 1 view .LVU131
.LBB19:
	.loc 3 606 3 view .LVU132
	.loc 3 606 17 is_stmt 0 view .LVU133
	ldr	r3, [r0, #72]
.LVL34:
	.loc 3 606 17 view .LVU134
.LBE19:
.LBE18:
	.loc 1 247 104 view .LVU135
	tst	r3, #512
	bne	.L31
	.loc 1 255 5 is_stmt 1 view .LVU136
.LVL35:
.LBB20:
.LBI20:
	.loc 2 2341 20 view .LVU137
.LBB21:
	.loc 2 2343 3 view .LVU138
	.loc 2 2343 36 is_stmt 0 view .LVU139
	ldr	r3, [r0, #64]
	.loc 2 2343 18 view .LVU140
	bic	r3, r3, #15
	.loc 2 2343 16 view .LVU141
	str	r3, [r0, #64]
.LBE21:
.LBE20:
	.loc 1 245 24 view .LVU142
	movs	r0, #0
.LVL36:
.LBB23:
.LBB22:
	.loc 2 2344 1 view .LVU143
	bx	lr
.LVL37:
.L30:
	.loc 2 2344 1 view .LVU144
.LBE22:
.LBE23:
	.loc 1 250 12 view .LVU145
	movs	r0, #2
.LVL38:
	.loc 1 250 12 view .LVU146
	bx	lr
.LVL39:
.L31:
	.loc 1 250 12 view .LVU147
	movs	r0, #2
.LVL40:
	.loc 1 257 3 is_stmt 1 view .LVU148
	.loc 1 258 1 is_stmt 0 view .LVU149
	bx	lr
	.cfi_endproc
.LFE276:
	.size	XMC_UART_CH_Stop, .-XMC_UART_CH_Stop
	.section	.text.XMC_UART_CH_EnableEvent,"ax",%progbits
	.align	1
	.global	XMC_UART_CH_EnableEvent
	.syntax unified
	.thumb
	.thumb_func
	.fpu fpv4-sp-d16
	.type	XMC_UART_CH_EnableEvent, %function
XMC_UART_CH_EnableEvent:
.LVL41:
.LFB277:
	.loc 1 261 1 is_stmt 1 view -0
	.cfi_startproc
	@ args = 0, pretend = 0, frame = 0
	@ frame_needed = 0, uses_anonymous_args = 0
	@ link register save eliminated.
	.loc 1 262 3 view .LVU151
	.loc 1 262 16 is_stmt 0 view .LVU152
	ldr	r3, [r0, #64]
	.loc 1 262 26 view .LVU153
	and	r2, r1, #130048
	.loc 1 262 16 view .LVU154
	orrs	r3, r3, r2
	str	r3, [r0, #64]
	.loc 1 263 3 is_stmt 1 view .LVU155
	.loc 1 263 24 is_stmt 0 view .LVU156
	ldr	r3, [r0, #60]
	.loc 1 263 34 view .LVU157
	and	r1, r1, #248
.LVL42:
	.loc 1 263 24 view .LVU158
	orrs	r1, r1, r3
	str	r1, [r0, #60]
	.loc 1 264 1 view .LVU159
	bx	lr
	.cfi_endproc
.LFE277:
	.size	XMC_UART_CH_EnableEvent, .-XMC_UART_CH_EnableEvent
	.section	.text.XMC_UART_CH_DisableEvent,"ax",%progbits
	.align	1
	.global	XMC_UART_CH_DisableEvent
	.syntax unified
	.thumb
	.thumb_func
	.fpu fpv4-sp-d16
	.type	XMC_UART_CH_DisableEvent, %function
XMC_UART_CH_DisableEvent:
.LVL43:
.LFB278:
	.loc 1 267 1 is_stmt 1 view -0
	.cfi_startproc
	@ args = 0, pretend = 0, frame = 0
	@ frame_needed = 0, uses_anonymous_args = 0
	@ link register save eliminated.
	.loc 1 268 3 view .LVU161
	.loc 1 268 16 is_stmt 0 view .LVU162
	ldr	r3, [r0, #64]
	.loc 1 268 37 view .LVU163
	and	r2, r1, #130048
	.loc 1 268 16 view .LVU164
	bic	r3, r3, r2
	str	r3, [r0, #64]
	.loc 1 269 3 is_stmt 1 view .LVU165
	.loc 1 269 24 is_stmt 0 view .LVU166
	ldr	r3, [r0, #60]
	.loc 1 269 45 view .LVU167
	and	r1, r1, #248
.LVL44:
	.loc 1 269 24 view .LVU168
	bic	r1, r3, r1
	str	r1, [r0, #60]
	.loc 1 270 1 view .LVU169
	bx	lr
	.cfi_endproc
.LFE278:
	.size	XMC_UART_CH_DisableEvent, .-XMC_UART_CH_DisableEvent
	.text
.Letext0:
	.file 4 "/home/sebin/LIOT/gcc-arm-none-eabi-9-2019-q4-major/arm-none-eabi/include/machine/_default_types.h"
	.file 5 "/home/sebin/LIOT/gcc-arm-none-eabi-9-2019-q4-major/arm-none-eabi/include/sys/_stdint.h"
	.file 6 "/home/sebin/LIOT/gcc-arm-none-eabi-9-2019-q4-major/arm-none-eabi/include/sys/lock.h"
	.file 7 "/home/sebin/LIOT/gcc-arm-none-eabi-9-2019-q4-major/arm-none-eabi/include/sys/_types.h"
	.file 8 "/home/sebin/LIOT/gcc-arm-none-eabi-9-2019-q4-major/lib/gcc/arm-none-eabi/9.2.1/include/stddef.h"
	.file 9 "/home/sebin/LIOT/gcc-arm-none-eabi-9-2019-q4-major/arm-none-eabi/include/sys/reent.h"
	.file 10 "/home/sebin/thesis/zephyrproject/modules/hal/cmsis/CMSIS/Core/Include/core_cm4.h"
	.file 11 "/home/sebin/thesis/zephyrproject/modules/hal/infineon/XMCLib/devices/XMC4500/Include/system_XMC4500.h"
	.file 12 "/home/sebin/thesis/zephyrproject/modules/hal/infineon/XMCLib/drivers/inc/xmc_scu.h"