	.cpu cortex-m4
	.eabi_attribute 27, 1
	.eabi_attribute 28, 1
	.eabi_attribute 20, 1
	.eabi_attribute 21, 1
	.eabi_attribute 23, 3
	.eabi_attribute 24, 1
	.eabi_attribute 25, 1
	.eabi_attribute 26, 1
	.eabi_attribute 30, 1
	.eabi_attribute 34, 1
	.eabi_attribute 38, 1
	.eabi_attribute 18, 4
	.file	"xmc_ccu4.c"
	.text
.Ltext0:
	.cfi_sections	.debug_frame
	.section	.text.XMC_CCU4_EnableModule,"ax",%progbits
	.align	1
	.global	XMC_CCU4_EnableModule
	.arch armv7e-m
	.syntax unified
	.thumb
	.thumb_func
	.fpu fpv4-sp-d16
	.type	XMC_CCU4_EnableModule, %function
XMC_CCU4_EnableModule:
.LVL0:
.LFB227:
	.file 1 "/home/sebin/thesis/zephyrproject/modules/hal/infineon/XMCLib/drivers/src/xmc_ccu4.c"
	.loc 1 291 1 view -0
	.cfi_startproc
	@ args = 0, pretend = 0, frame = 0
	@ frame_needed = 0, uses_anonymous_args = 0
	.loc 1 291 1 is_stmt 0 view .LVU1
	push	{r4, lr}
	.cfi_def_cfa_offset 8
	.cfi_offset 4, -8
	.cfi_offset 14, -4
	mov	r4, r0
	.loc 1 292 3 is_stmt 1 view .LVU2
	.loc 1 296 3 view .LVU3
	movs	r0, #16
.LVL1:
	.loc 1 296 3 is_stmt 0 view .LVU4
	bl	XMC_SCU_CLOCK_EnableClock
.LVL2:
	.loc 1 304 3 is_stmt 1 view .LVU5
.LBB8:
.LBI8:
	.loc 1 182 20 view .LVU6
.LBB9:
	.loc 1 184 3 view .LVU7
	.loc 1 184 6 is_stmt 0 view .LVU8
	ldr	r3, .L11
	cmp	r4, r3
	beq	.L7
	.loc 1 189 8 is_stmt 1 view .LVU9
	.loc 1 189 11 is_stmt 0 view .LVU10
	ldr	r3, .L11+4
	cmp	r4, r3
	beq	.L8
	.loc 1 195 8 is_stmt 1 view .LVU11
	.loc 1 195 11 is_stmt 0 view .LVU12
	ldr	r3, .L11+8
	cmp	r4, r3
	beq	.L9
	.loc 1 201 8 is_stmt 1 view .LVU13
	.loc 1 201 11 is_stmt 0 view .LVU14
	ldr	r3, .L11+12
	cmp	r4, r3
	beq	.L10
.LVL3:
.L1:
	.loc 1 201 11 view .LVU15
.LBE9:
.LBE8:
	.loc 1 306 1 view .LVU16
	pop	{r4, pc}
.LVL4:
.L7:
.LBB11:
.LBB10:
	.loc 1 186 5 is_stmt 1 view .LVU17
	movs	r0, #4
	bl	XMC_SCU_RESET_DeassertPeripheralReset
.LVL5:
	b	.L1
.L8:
	.loc 1 191 5 view .LVU18
	movs	r0, #8
	bl	XMC_SCU_RESET_DeassertPeripheralReset
.LVL6:
	b	.L1
.L9:
	.loc 1 197 5 view .LVU19
	movs	r0, #16
	bl	XMC_SCU_RESET_DeassertPeripheralReset
.LVL7:
	b	.L1
.L10:
	.loc 1 203 5 view .LVU20
	ldr	r0, .L11+16
	bl	XMC_SCU_RESET_DeassertPeripheralReset
.LVL8:
	.loc 1 208 5 view .LVU21
	.loc 1 208 5 is_stmt 0 view .LVU22
.LBE10:
.LBE11:
	.loc 1 306 1 view .LVU23
	b	.L1
.L12:
	.align	2
.L11:
	.word	1073790976
	.word	1073807360
	.word	1073823744
	.word	1207975936
	.word	268435457
	.cfi_endproc
.LFE227:
	.size	XMC_CCU4_EnableModule, .-XMC_CCU4_EnableModule
	.section	.text.XMC_CCU4_DisableModule,"ax",%progbits
	.align	1
	.global	XMC_CCU4_DisableModule
	.syntax unified
	.thumb
	.thumb_func
	.fpu fpv4-sp-d16
	.type	XMC_CCU4_DisableModule, %function
XMC_CCU4_DisableModule:
.LVL9:
.LFB228:
	.loc 1 309 1 is_stmt 1 view -0
	.cfi_startproc
	@ args = 0, pretend = 0, frame = 0
	@ frame_needed = 0, uses_anonymous_args = 0
	.loc 1 309 1 is_stmt 0 view .LVU25
	push	{r3, lr}
	.cfi_def_cfa_offset 8
	.cfi_offset 3, -8
	.cfi_offset 14, -4
	.loc 1 310 3 is_stmt 1 view .LVU26
	.loc 1 313 3 view .LVU27
.LVL10:
.LBB14:
.LBI14:
	.loc 1 152 20 view .LVU28
.LBB15:
	.loc 1 154 3 view .LVU29
	.loc 1 154 6 is_stmt 0 view .LVU30
	ldr	r3, .L23
	cmp	r0, r3
	beq	.L19
	.loc 1 159 8 is_stmt 1 view .LVU31
	.loc 1 159 11 is_stmt 0 view .LVU32
	ldr	r3, .L23+4
	cmp	r0, r3
	beq	.L20
	.loc 1 165 8 is_stmt 1 view .LVU33
	.loc 1 165 11 is_stmt 0 view .LVU34
	ldr	r3, .L23+8
	cmp	r0, r3
	beq	.L21
	.loc 1 171 8 is_stmt 1 view .LVU35
	.loc 1 171 11 is_stmt 0 view .LVU36
	ldr	r3, .L23+12
	cmp	r0, r3
	beq	.L22
.LVL11:
.L13:
	.loc 1 171 11 view .LVU37
.LBE15:
.LBE14:
	.loc 1 319 1 view .LVU38
	pop	{r3, pc}
.LVL12:
.L19:
.LBB17:
.LBB16:
	.loc 1 156 5 is_stmt 1 view .LVU39
	movs	r0, #4
.LVL13:
	.loc 1 156 5 is_stmt 0 view .LVU40
	bl	XMC_SCU_RESET_AssertPeripheralReset
.LVL14:
	b	.L13
.LVL15:
.L20:
	.loc 1 161 5 is_stmt 1 view .LVU41
	movs	r0, #8
.LVL16:
	.loc 1 161 5 is_stmt 0 view .LVU42
	bl	XMC_SCU_RESET_AssertPeripheralReset
.LVL17:
	b	.L13
.LVL18:
.L21:
	.loc 1 167 5 is_stmt 1 view .LVU43
	movs	r0, #16
.LVL19:
	.loc 1 167 5 is_stmt 0 view .LVU44
	bl	XMC_SCU_RESET_AssertPeripheralReset
.LVL20:
	b	.L13
.LVL21:
.L22:
	.loc 1 173 5 is_stmt 1 view .LVU45
	ldr	r0, .L23+16
.LVL22:
	.loc 1 173 5 is_stmt 0 view .LVU46
	bl	XMC_SCU_RESET_AssertPeripheralReset
.LVL23:
	.loc 1 178 5 is_stmt 1 view .LVU47
	.loc 1 178 5 is_stmt 0 view .LVU48
.LBE16:
.LBE17:
	.loc 1 319 1 view .LVU49
	b	.L13
.L24:
	.align	2
.L23:
	.word	1073790976
	.word	1073807360
	.word	1073823744
	.word	1207975936
	.word	268435457
	.cfi_endproc
.LFE228:
	.size	XMC_CCU4_DisableModule, .-XMC_CCU4_DisableModule
	.section	.text.XMC_CCU4_Init,"ax",%progbits
	.align	1
	.global	XMC_CCU4_Init
	.syntax unified
	.thumb
	.thumb_func
	.fpu fpv4-sp-d16
	.type	XMC_CCU4_Init, %function
XMC_CCU4_Init:
.LVL24:
.LFB229:
	.loc 1 323 1 is_stmt 1 view -0
	.cfi_startproc
	@ args = 0, pretend = 0, frame = 0
	@ frame_needed = 0, uses_anonymous_args = 0
	.loc 1 323 1 is_stmt 0 view .LVU51
	push	{r3, r4, r5, lr}
	.cfi_def_cfa_offset 16
	.cfi_offset 3, -16
	.cfi_offset 4, -12
	.cfi_offset 5, -8
	.cfi_offset 14, -4
	mov	r4, r0
	mov	r5, r1
	.loc 1 324 3 is_stmt 1 view .LVU52
	.loc 1 326 3 view .LVU53
	.loc 1 327 3 view .LVU54
	.loc 1 330 3 view .LVU55
	bl	XMC_CCU4_EnableModule
.LVL25:
	.loc 1 332 3 view .LVU56
.LBB18:
.LBI18:
	.file 2 "/home/sebin/thesis/zephyrproject/modules/hal/infineon/XMCLib/drivers/inc/xmc_ccu4.h"
	.loc 2 897 20 view .LVU57
.LBB19:
	.loc 2 899 3 view .LVU58
	.loc 2 900 3 view .LVU59
	.loc 2 900 17 is_stmt 0 view .LVU60
	mov	r3, #256
	str	r3, [r4, #12]
.LVL26:
	.loc 2 900 17 view .LVU61
.LBE19:
.LBE18:
	.loc 1 334 3 is_stmt 1 view .LVU62
	.loc 1 334 9 is_stmt 0 view .LVU63
	ldr	r3, [r4]
.LVL27:
	.loc 1 335 3 is_stmt 1 view .LVU64
	.loc 1 335 9 is_stmt 0 view .LVU65
	bic	r3, r3, #49152
.LVL28:
	.loc 1 336 3 is_stmt 1 view .LVU66
	.loc 1 336 9 is_stmt 0 view .LVU67
	orr	r3, r3, r5, lsl #14
.LVL29:
	.loc 1 338 3 is_stmt 1 view .LVU68
	.loc 1 338 17 is_stmt 0 view .LVU69
	str	r3, [r4]
	.loc 1 339 1 view .LVU70
	pop	{r3, r4, r5, pc}
	.loc 1 339 1 view .LVU71
	.cfi_endproc
.LFE229:
	.size	XMC_CCU4_Init, .-XMC_CCU4_Init
	.section	.text.XMC_CCU4_SetModuleClock,"ax",%progbits
	.align	1
	.global	XMC_CCU4_SetModuleClock
	.syntax unified
	.thumb
	.thumb_func
	.fpu fpv4-sp-d16
	.type	XMC_CCU4_SetModuleClock, %function
XMC_CCU4_SetModuleClock:
.LVL30:
.LFB230:
	.loc 1 343 1 is_stmt 1 view -0
	.cfi_startproc
	@ args = 0, pretend = 0, frame = 0
	@ frame_needed = 0, uses_anonymous_args = 0
	@ link register save eliminated.
	.loc 1 344 3 view .LVU73
	.loc 1 346 3 view .LVU74
	.loc 1 347 3 view .LVU75
	.loc 1 349 3 view .LVU76
	.loc 1 349 9 is_stmt 0 view .LVU77
	ldr	r3, [r0]
.LVL31:
	.loc 1 350 3 is_stmt 1 view .LVU78
	.loc 1 350 9 is_stmt 0 view .LVU79
	bic	r3, r3, #48
.LVL32:
	.loc 1 351 3 is_stmt 1 view .LVU80
	.loc 1 351 9 is_stmt 0 view .LVU81
	orr	r3, r3, r1, lsl #4
.LVL33:
	.loc 1 353 3 is_stmt 1 view .LVU82
	.loc 1 353 17 is_stmt 0 view .LVU83
	str	r3, [r0]
	.loc 1 354 1 view .LVU84
	bx	lr
	.cfi_endproc
.LFE230:
	.size	XMC_CCU4_SetModuleClock, .-XMC_CCU4_SetModuleClock
	.section	.text.XMC_CCU4_SetMultiChannelShadowTransferMode,"ax",%progbits
	.align	1
	.global	XMC_CCU4_SetMultiChannelShadowTransferMode
	.syntax unified
	.thumb
	.thumb_func
	.fpu fpv4-sp-d16
	.type	XMC_CCU4_SetMultiChannelShadowTransferMode, %function
XMC_CCU4_SetMultiChannelShadowTransferMode:
.LVL34:
.LFB231:
	.loc 1 358 1 is_stmt 1 view -0
	.cfi_startproc
	@ args = 0, pretend = 0, frame = 0
	@ frame_needed = 0, uses_anonymous_args = 0
	@ link register save eliminated.
	.loc 1 359 3 view .LVU86
	.loc 1 361 3 view .LVU87
	.loc 1 363 3 view .LVU88
	.loc 1 363 9 is_stmt 0 view .LVU89
	ldr	r3, [r0]
.LVL35:
	.loc 1 364 3 is_stmt 1 view .LVU90
	.loc 1 364 9 is_stmt 0 view .LVU91
	bic	r3, r3, r1, lsr #16
.LVL36:
	.loc 1 365 3 is_stmt 1 view .LVU92
	.loc 1 365 38 is_stmt 0 view .LVU93
	uxth	r1, r1
.LVL37:
	.loc 1 365 9 view .LVU94
	orrs	r1, r1, r3
.LVL38:
	.loc 1 366 3 is_stmt 1 view .LVU95
	.loc 1 366 17 is_stmt 0 view .LVU96
	str	r1, [r0]
	.loc 1 367 1 view .LVU97
	bx	lr
	.cfi_endproc
.LFE231:
	.size	XMC_CCU4_SetMultiChannelShadowTransferMode, .-XMC_CCU4_SetMultiChannelShadowTransferMode
	.section	.text.XMC_CCU4_SLICE_CompareInit,"ax",%progbits
	.align	1
	.global	XMC_CCU4_SLICE_CompareInit
	.syntax unified
	.thumb
	.thumb_func
	.fpu fpv4-sp-d16
	.type	XMC_CCU4_SLICE_CompareInit, %function
XMC_CCU4_SLICE_CompareInit:
.LVL39:
.LFB232:
	.loc 1 372 1 is_stmt 1 view -0
	.cfi_startproc
	@ args = 0, pretend = 0, frame = 0
	@ frame_needed = 0, uses_anonymous_args = 0
	@ link register save eliminated.
	.loc 1 373 3 view .LVU99
	.loc 1 375 71 view .LVU100
	.loc 1 378 3 view .LVU101
	.loc 1 378 27 is_stmt 0 view .LVU102
	ldr	r3, [r1]
	.loc 1 378 13 view .LVU103
	str	r3, [r0, #20]
	.loc 1 380 3 is_stmt 1 view .LVU104
	.loc 1 380 40 is_stmt 0 view .LVU105
	ldrb	r3, [r1, #5]	@ zero_extendqisi2
	ubfx	r3, r3, #5, #1
	.loc 1 380 62 view .LVU106
	lsls	r3, r3, #20
	.loc 1 380 14 view .LVU107
	str	r3, [r0, #4]
	.loc 1 382 3 is_stmt 1 view .LVU108
	.loc 1 382 39 is_stmt 0 view .LVU109
	ldrb	r3, [r1, #4]	@ zero_extendqisi2
	and	r3, r3, #15
	.loc 1 382 14 view .LVU110
	str	r3, [r0, #36]
	.loc 1 384 3 is_stmt 1 view .LVU111
	.loc 1 384 40 is_stmt 0 view .LVU112
	ldrb	r3, [r1, #5]	@ zero_extendqisi2
	and	r3, r3, #15
	.loc 1 384 15 view .LVU113
	str	r3, [r0, #32]
	.loc 1 386 3 is_stmt 1 view .LVU114
	.loc 1 386 39 is_stmt 0 view .LVU115
	ldrb	r3, [r1, #5]	@ zero_extendqisi2
	ubfx	r3, r3, #4, #1
	.loc 1 386 14 view .LVU116
	str	r3, [r0, #24]
	.loc 1 388 3 is_stmt 1 view .LVU117
	.loc 1 388 40 is_stmt 0 view .LVU118
	ldrb	r3, [r1, #4]	@ zero_extendqisi2
	lsrs	r3, r3, #4
	.loc 1 388 15 view .LVU119
	str	r3, [r0, #44]
	.loc 1 389 1 view .LVU120
	bx	lr
	.cfi_endproc
.LFE232:
	.size	XMC_CCU4_SLICE_CompareInit, .-XMC_CCU4_SLICE_CompareInit
	.section	.text.XMC_CCU4_SLICE_CaptureInit,"ax",%progbits
	.align	1
	.global	XMC_CCU4_SLICE_CaptureInit
	.syntax unified
	.thumb
	.thumb_func
	.fpu fpv4-sp-d16
	.type	XMC_CCU4_SLICE_CaptureInit, %function
XMC_CCU4_SLICE_CaptureInit:
.LVL40:
.LFB233:
	.loc 1 394 1 is_stmt 1 view -0
	.cfi_startproc
	@ args = 0, pretend = 0, frame = 0
	@ frame_needed = 0, uses_anonymous_args = 0
	@ link register save eliminated.
	.loc 1 395 3 view .LVU122
	.loc 1 397 71 view .LVU123
	.loc 1 400 3 view .LVU124
	.loc 1 400 27 is_stmt 0 view .LVU125
	ldr	r3, [r1]
	.loc 1 400 13 view .LVU126
	str	r3, [r0, #20]
	.loc 1 402 3 is_stmt 1 view .LVU127
	.loc 1 402 39 is_stmt 0 view .LVU128
	ldrb	r3, [r1, #5]	@ zero_extendqisi2
	and	r3, r3, #1
	.loc 1 402 61 view .LVU129
	lsls	r3, r3, #20
	.loc 1 402 14 view .LVU130
	str	r3, [r0, #4]
	.loc 1 404 3 is_stmt 1 view .LVU131
	.loc 1 404 39 is_stmt 0 view .LVU132
	ldrb	r3, [r1, #4]	@ zero_extendqisi2
	and	r3, r3, #15
	.loc 1 404 14 view .LVU133
	str	r3, [r0, #36]
	.loc 1 406 3 is_stmt 1 view .LVU134
	.loc 1 406 40 is_stmt 0 view .LVU135
	ldrb	r3, [r1, #4]	@ zero_extendqisi2
	lsrs	r3, r3, #4
	.loc 1 406 15 view .LVU136
	str	r3, [r0, #44]
	.loc 1 407 1 view .LVU137
	bx	lr
	.cfi_endproc
.LFE233:
	.size	XMC_CCU4_SLICE_CaptureInit, .-XMC_CCU4_SLICE_CaptureInit
	.section	.text.XMC_CCU4_SLICE_StartConfig,"ax",%progbits
	.align	1
	.global	XMC_CCU4_SLICE_StartConfig
	.syntax unified
	.thumb
	.thumb_func
	.fpu fpv4-sp-d16
	.type	XMC_CCU4_SLICE_StartConfig, %function
XMC_CCU4_SLICE_StartConfig:
.LVL41:
.LFB234:
	.loc 1 414 1 is_stmt 1 view -0
	.cfi_startproc
	@ args = 0, pretend = 0, frame = 0
	@ frame_needed = 0, uses_anonymous_args = 0
	@ link register save eliminated.
	.loc 1 415 3 view .LVU139
	.loc 1 416 3 view .LVU140
	.loc 1 418 3 view .LVU141
	.loc 1 419 3 view .LVU142
	.loc 1 422 70 view .LVU143
	.loc 1 424 3 view .LVU144
	.loc 1 424 7 is_stmt 0 view .LVU145
	ldr	r3, [r0, #4]
.LVL42:
	.loc 1 425 3 is_stmt 1 view .LVU146
	.loc 1 425 7 is_stmt 0 view .LVU147
	bic	r3, r3, #3
.LVL43:
	.loc 1 426 3 is_stmt 1 view .LVU148
	.loc 1 426 7 is_stmt 0 view .LVU149
	orrs	r1, r1, r3
.LVL44:
	.loc 1 428 3 is_stmt 1 view .LVU150
	.loc 1 428 14 is_stmt 0 view .LVU151
	str	r1, [r0, #4]
	.loc 1 430 3 is_stmt 1 view .LVU152
	.loc 1 430 6 is_stmt 0 view .LVU153
	ldr	r3, [r0, #20]
.LVL45:
	.loc 1 432 3 is_stmt 1 view .LVU154
	.loc 1 432 6 is_stmt 0 view .LVU155
	cmp	r2, #1
	beq	.L34
	.loc 1 438 5 is_stmt 1 view .LVU156
	.loc 1 438 8 is_stmt 0 view .LVU157
	bic	r3, r3, #1024
.LVL46:
.L33:
	.loc 1 441 3 is_stmt 1 view .LVU158
	.loc 1 441 13 is_stmt 0 view .LVU159
	str	r3, [r0, #20]
	.loc 1 442 1 view .LVU160
	bx	lr
.L34:
	.loc 1 434 5 is_stmt 1 view .LVU161
	.loc 1 434 8 is_stmt 0 view .LVU162
	orr	r3, r3, #1024
.LVL47:
	.loc 1 434 8 view .LVU163
	b	.L33
	.cfi_endproc
.LFE234:
	.size	XMC_CCU4_SLICE_StartConfig, .-XMC_CCU4_SLICE_StartConfig
	.section	.text.XMC_CCU4_SLICE_StopConfig,"ax",%progbits
	.align	1
	.global	XMC_CCU4_SLICE_StopConfig
	.syntax unified
	.thumb
	.thumb_func
	.fpu fpv4-sp-d16
	.type	XMC_CCU4_SLICE_StopConfig, %function
XMC_CCU4_SLICE_StopConfig:
.LVL48:
.LFB235:
	.loc 1 448 1 is_stmt 1 view -0
	.cfi_startproc
	@ args = 0, pretend = 0, frame = 0
	@ frame_needed = 0, uses_anonymous_args = 0
	@ link register save eliminated.
	.loc 1 448 1 is_stmt 0 view .LVU165
	push	{r4}
	.cfi_def_cfa_offset 4
	.cfi_offset 4, -4
	.loc 1 449 3 is_stmt 1 view .LVU166
	.loc 1 450 3 view .LVU167
	.loc 1 452 3 view .LVU168
	.loc 1 453 3 view .LVU169
	.loc 1 454 3 view .LVU170
	.loc 1 457 3 view .LVU171
	.loc 1 457 7 is_stmt 0 view .LVU172
	ldr	r4, [r0, #4]
.LVL49:
	.loc 1 458 3 is_stmt 1 view .LVU173
	.loc 1 458 7 is_stmt 0 view .LVU174
	bic	r4, r4, #12
.LVL50:
	.loc 1 459 3 is_stmt 1 view .LVU175
	.loc 1 459 7 is_stmt 0 view .LVU176
	orr	r4, r4, r1, lsl #2
.LVL51:
	.loc 1 461 3 is_stmt 1 view .LVU177
	.loc 1 461 14 is_stmt 0 view .LVU178
	str	r4, [r0, #4]
	.loc 1 464 3 is_stmt 1 view .LVU179
	.loc 1 464 6 is_stmt 0 view .LVU180
	ldr	r3, [r0, #20]
.LVL52:
	.loc 1 465 3 is_stmt 1 view .LVU181
	.loc 1 465 6 is_stmt 0 view .LVU182
	bic	r3, r3, #768
.LVL53:
	.loc 1 466 3 is_stmt 1 view .LVU183
	.loc 1 466 6 is_stmt 0 view .LVU184
	orr	r3, r3, r2, lsl #8
.LVL54:
	.loc 1 468 3 is_stmt 1 view .LVU185
	.loc 1 468 13 is_stmt 0 view .LVU186
	str	r3, [r0, #20]
	.loc 1 469 1 view .LVU187
	ldr	r4, [sp], #4
	.cfi_restore 4
	.cfi_def_cfa_offset 0
.LVL55:
	.loc 1 469 1 view .LVU188
	bx	lr
	.cfi_endproc
.LFE235:
	.size	XMC_CCU4_SLICE_StopConfig, .-XMC_CCU4_SLICE_StopConfig
	.section	.text.XMC_CCU4_SLICE_LoadConfig,"ax",%progbits
	.align	1
	.global	XMC_CCU4_SLICE_LoadConfig
	.syntax unified
	.thumb
	.thumb_func
	.fpu fpv4-sp-d16
	.type	XMC_CCU4_SLICE_LoadConfig, %function
XMC_CCU4_SLICE_LoadConfig:
.LVL56:
.LFB236:
	.loc 1 473 1 is_stmt 1 view -0
	.cfi_startproc
	@ args = 0, pretend = 0, frame = 0
	@ frame_needed = 0, uses_anonymous_args = 0
	@ link register save eliminated.
	.loc 1 474 3 view .LVU190
	.loc 1 476 3 view .LVU191
	.loc 1 477 3 view .LVU192
	.loc 1 480 3 view .LVU193
	.loc 1 480 7 is_stmt 0 view .LVU194
	ldr	r3, [r0, #4]
.LVL57:
	.loc 1 481 3 is_stmt 1 view .LVU195
	.loc 1 481 7 is_stmt 0 view .LVU196
	bic	r3, r3, #12288
.LVL58:
	.loc 1 482 3 is_stmt 1 view .LVU197
	.loc 1 482 7 is_stmt 0 view .LVU198
	orr	r3, r3, r1, lsl #12
.LVL59:
	.loc 1 484 3 is_stmt 1 view .LVU199
	.loc 1 484 14 is_stmt 0 view .LVU200
	str	r3, [r0, #4]
	.loc 1 485 1 view .LVU201
	bx	lr
	.cfi_endproc
.LFE236:
	.size	XMC_CCU4_SLICE_LoadConfig, .-XMC_CCU4_SLICE_LoadConfig
	.section	.text.XMC_CCU4_SLICE_ModulationConfig,"ax",%progbits
	.align	1
	.global	XMC_CCU4_SLICE_ModulationConfig
	.syntax unified
	.thumb
	.thumb_func
	.fpu fpv4-sp-d16
	.type	XMC_CCU4_SLICE_ModulationConfig, %function
XMC_CCU4_SLICE_ModulationConfig:
.LVL60:
.LFB237:
	.loc 1 492 1 is_stmt 1 view -0
	.cfi_startproc
	@ args = 0, pretend = 0, frame = 0
	@ frame_needed = 0, uses_anonymous_args = 0
	@ link register save eliminated.
	.loc 1 492 1 is_stmt 0 view .LVU203
	push	{r4, r5}
	.cfi_def_cfa_offset 8
	.cfi_offset 4, -8
	.cfi_offset 5, -4
	.loc 1 493 3 is_stmt 1 view .LVU204
	.loc 1 494 3 view .LVU205
	.loc 1 496 3 view .LVU206
	.loc 1 497 3 view .LVU207
	.loc 1 500 74 view .LVU208
	.loc 1 502 3 view .LVU209
	.loc 1 502 6 is_stmt 0 view .LVU210
	ldr	r4, [r0, #20]
.LVL61:
	.loc 1 503 3 is_stmt 1 view .LVU211
	.loc 1 503 7 is_stmt 0 view .LVU212
	ldr	r5, [r0, #4]
.LVL62:
	.loc 1 506 3 is_stmt 1 view .LVU213
	.loc 1 506 7 is_stmt 0 view .LVU214
	bic	r5, r5, #786432
.LVL63:
	.loc 1 507 3 is_stmt 1 view .LVU215
	.loc 1 507 7 is_stmt 0 view .LVU216
	orr	r5, r5, r1, lsl #18
.LVL64:
	.loc 1 508 3 is_stmt 1 view .LVU217
	.loc 1 508 14 is_stmt 0 view .LVU218
	str	r5, [r0, #4]
	.loc 1 511 3 is_stmt 1 view .LVU219
	.loc 1 511 6 is_stmt 0 view .LVU220
	cmp	r2, #1
	beq	.L44
	.loc 1 517 5 is_stmt 1 view .LVU221
	.loc 1 517 8 is_stmt 0 view .LVU222
	bic	r4, r4, #16777216
.LVL65:
.L40:
	.loc 1 521 3 is_stmt 1 view .LVU223
	.loc 1 521 6 is_stmt 0 view .LVU224
	cbz	r3, .L41
	.loc 1 523 5 is_stmt 1 view .LVU225
	.loc 1 523 8 is_stmt 0 view .LVU226
	orr	r4, r4, #8388608
.LVL66:
.L42:
	.loc 1 530 3 is_stmt 1 view .LVU227
	.loc 1 530 13 is_stmt 0 view .LVU228
	str	r4, [r0, #20]
	.loc 1 531 1 view .LVU229
	pop	{r4, r5}
	.cfi_remember_state
	.cfi_restore 5
	.cfi_restore 4
	.cfi_def_cfa_offset 0
.LVL67:
	.loc 1 531 1 view .LVU230
	bx	lr
.LVL68:
.L44:
	.cfi_restore_state
	.loc 1 513 5 is_stmt 1 view .LVU231
	.loc 1 513 8 is_stmt 0 view .LVU232
	orr	r4, r4, #16777216
.LVL69:
	.loc 1 513 8 view .LVU233
	b	.L40
.L41:
	.loc 1 527 5 is_stmt 1 view .LVU234
	.loc 1 527 8 is_stmt 0 view .LVU235
	bic	r4, r4, #8388608
.LVL70:
	.loc 1 527 8 view .LVU236
	b	.L42
	.cfi_endproc
.LFE237:
	.size	XMC_CCU4_SLICE_ModulationConfig, .-XMC_CCU4_SLICE_ModulationConfig
	.section	.text.XMC_CCU4_SLICE_CountConfig,"ax",%progbits
	.align	1
	.global	XMC_CCU4_SLICE_CountConfig
	.syntax unified
	.thumb
	.thumb_func
	.fpu fpv4-sp-d16
	.type	XMC_CCU4_SLICE_CountConfig, %function
XMC_CCU4_SLICE_CountConfig:
.LVL71:
.LFB238:
	.loc 1 535 1 is_stmt 1 view -0
	.cfi_startproc
	@ args = 0, pretend = 0, frame = 0
	@ frame_needed = 0, uses_anonymous_args = 0
	@ link register save eliminated.
	.loc 1 536 3 view .LVU238
	.loc 1 538 3 view .LVU239
	.loc 1 539 3 view .LVU240
	.loc 1 542 3 view .LVU241
	.loc 1 542 7 is_stmt 0 view .LVU242
	ldr	r3, [r0, #4]
.LVL72:
	.loc 1 543 3 is_stmt 1 view .LVU243
	.loc 1 543 7 is_stmt 0 view .LVU244
	bic	r3, r3, #49152
.LVL73:
	.loc 1 544 3 is_stmt 1 view .LVU245
	.loc 1 544 7 is_stmt 0 view .LVU246
	orr	r3, r3, r1, lsl #14
.LVL74:
	.loc 1 546 3 is_stmt 1 view .LVU247
	.loc 1 546 14 is_stmt 0 view .LVU248
	str	r3, [r0, #4]
	.loc 1 547 1 view .LVU249
	bx	lr
	.cfi_endproc
.LFE238:
	.size	XMC_CCU4_SLICE_CountConfig, .-XMC_CCU4_SLICE_CountConfig
	.section	.text.XMC_CCU4_SLICE_GateConfig,"ax",%progbits
	.align	1
	.global	XMC_CCU4_SLICE_GateConfig
	.syntax unified
	.thumb
	.thumb_func
	.fpu fpv4-sp-d16
	.type	XMC_CCU4_SLICE_GateConfig, %function
XMC_CCU4_SLICE_GateConfig:
.LVL75:
.LFB239:
	.loc 1 551 1 is_stmt 1 view -0
	.cfi_startproc
	@ args = 0, pretend = 0, frame = 0
	@ frame_needed = 0, uses_anonymous_args = 0
	@ link register save eliminated.
	.loc 1 552 3 view .LVU251
	.loc 1 554 3 view .LVU252
	.loc 1 555 3 view .LVU253
	.loc 1 558 3 view .LVU254
	.loc 1 558 7 is_stmt 0 view .LVU255
	ldr	r3, [r0, #4]
.LVL76:
	.loc 1 559 3 is_stmt 1 view .LVU256
	.loc 1 559 7 is_stmt 0 view .LVU257
	bic	r3, r3, #768
.LVL77:
	.loc 1 560 3 is_stmt 1 view .LVU258
	.loc 1 560 7 is_stmt 0 view .LVU259
	orr	r3, r3, r1, lsl #8
.LVL78:
	.loc 1 562 3 is_stmt 1 view .LVU260
	.loc 1 562 14 is_stmt 0 view .LVU261
	str	r3, [r0, #4]
	.loc 1 563 1 view .LVU262
	bx	lr
	.cfi_endproc
.LFE239:
	.size	XMC_CCU4_SLICE_GateConfig, .-XMC_CCU4_SLICE_GateConfig
	.section	.text.XMC_CCU4_SLICE_Capture0Config,"ax",%progbits
	.align	1
	.global	XMC_CCU4_SLICE_Capture0Config
	.syntax unified
	.thumb
	.thumb_func
	.fpu fpv4-sp-d16
	.type	XMC_CCU4_SLICE_Capture0Config, %function
XMC_CCU4_SLICE_Capture0Config:
.LVL79:
.LFB240:
	.loc 1 567 1 is_stmt 1 view -0
	.cfi_startproc
	@ args = 0, pretend = 0, frame = 0
	@ frame_needed = 0, uses_anonymous_args = 0
	@ link register save eliminated.
	.loc 1 568 3 view .LVU264
	.loc 1 570 3 view .LVU265
	.loc 1 571 3 view .LVU266
	.loc 1 574 3 view .LVU267
	.loc 1 574 7 is_stmt 0 view .LVU268
	ldr	r3, [r0, #4]
.LVL80:
	.loc 1 575 3 is_stmt 1 view .LVU269
	.loc 1 575 7 is_stmt 0 view .LVU270
	bic	r3, r3, #48
.LVL81:
	.loc 1 576 3 is_stmt 1 view .LVU271
	.loc 1 576 7 is_stmt 0 view .LVU272
	orr	r3, r3, r1, lsl #4
.LVL82:
	.loc 1 578 3 is_stmt 1 view .LVU273
	.loc 1 578 14 is_stmt 0 view .LVU274
	str	r3, [r0, #4]
	.loc 1 579 1 view .LVU275
	bx	lr
	.cfi_endproc
.LFE240:
	.size	XMC_CCU4_SLICE_Capture0Config, .-XMC_CCU4_SLICE_Capture0Config
	.section	.text.XMC_CCU4_SLICE_Capture1Config,"ax",%progbits
	.align	1
	.global	XMC_CCU4_SLICE_Capture1Config
	.syntax unified
	.thumb
	.thumb_func
	.fpu fpv4-sp-d16
	.type	XMC_CCU4_SLICE_Capture1Config, %function
XMC_CCU4_SLICE_Capture1Config:
.LVL83:
.LFB241:
	.loc 1 583 1 is_stmt 1 view -0
	.cfi_startproc
	@ args = 0, pretend = 0, frame = 0
	@ frame_needed = 0, uses_anonymous_args = 0
	@ link register save eliminated.
	.loc 1 584 3 view .LVU277
	.loc 1 586 3 view .LVU278
	.loc 1 587 3 view .LVU279
	.loc 1 590 3 view .LVU280
	.loc 1 590 7 is_stmt 0 view .LVU281
	ldr	r3, [r0, #4]
.LVL84:
	.loc 1 591 3 is_stmt 1 view .LVU282
	.loc 1 591 7 is_stmt 0 view .LVU283
	bic	r3, r3, #192
.LVL85:
	.loc 1 592 3 is_stmt 1 view .LVU284
	.loc 1 592 7 is_stmt 0 view .LVU285
	orr	r3, r3, r1, lsl #6
.LVL86:
	.loc 1 594 3 is_stmt 1 view .LVU286
	.loc 1 594 14 is_stmt 0 view .LVU287
	str	r3, [r0, #4]
	.loc 1 595 1 view .LVU288
	bx	lr
	.cfi_endproc
.LFE241:
	.size	XMC_CCU4_SLICE_Capture1Config, .-XMC_CCU4_SLICE_Capture1Config
	.section	.text.XMC_CCU4_SLICE_DirectionConfig,"ax",%progbits
	.align	1
	.global	XMC_CCU4_SLICE_DirectionConfig
	.syntax unified
	.thumb
	.thumb_func
	.fpu fpv4-sp-d16
	.type	XMC_CCU4_SLICE_DirectionConfig, %function
XMC_CCU4_SLICE_DirectionConfig:
.LVL87:
.LFB242:
	.loc 1 599 1 is_stmt 1 view -0
	.cfi_startproc
	@ args = 0, pretend = 0, frame = 0
	@ frame_needed = 0, uses_anonymous_args = 0
	@ link register save eliminated.
	.loc 1 600 3 view .LVU290
	.loc 1 602 3 view .LVU291
	.loc 1 603 3 view .LVU292
	.loc 1 606 3 view .LVU293
	.loc 1 606 7 is_stmt 0 view .LVU294
	ldr	r3, [r0, #4]
.LVL88:
	.loc 1 607 3 is_stmt 1 view .LVU295
	.loc 1 607 7 is_stmt 0 view .LVU296
	bic	r3, r3, #3072
.LVL89:
	.loc 1 608 3 is_stmt 1 view .LVU297
	.loc 1 608 7 is_stmt 0 view .LVU298
	orr	r3, r3, r1, lsl #10
.LVL90:
	.loc 1 610 3 is_stmt 1 view .LVU299
	.loc 1 610 14 is_stmt 0 view .LVU300
	str	r3, [r0, #4]
	.loc 1 611 1 view .LVU301
	bx	lr
	.cfi_endproc
.LFE242:
	.size	XMC_CCU4_SLICE_DirectionConfig, .-XMC_CCU4_SLICE_DirectionConfig
	.section	.text.XMC_CCU4_SLICE_StatusBitOverrideConfig,"ax",%progbits
	.align	1
	.global	XMC_CCU4_SLICE_StatusBitOverrideConfig
	.syntax unified
	.thumb
	.thumb_func
	.fpu fpv4-sp-d16
	.type	XMC_CCU4_SLICE_StatusBitOverrideConfig, %function
XMC_CCU4_SLICE_StatusBitOverrideConfig:
.LVL91:
.LFB243:
	.loc 1 615 1 is_stmt 1 view -0
	.cfi_startproc
	@ args = 0, pretend = 0, frame = 0
	@ frame_needed = 0, uses_anonymous_args = 0
	@ link register save eliminated.
	.loc 1 616 3 view .LVU303
	.loc 1 618 3 view .LVU304
	.loc 1 621 3 view .LVU305
	.loc 1 621 7 is_stmt 0 view .LVU306
	ldr	r3, [r0, #4]
.LVL92:
	.loc 1 624 3 is_stmt 1 view .LVU307
	.loc 1 625 3 view .LVU308
	.loc 1 625 7 is_stmt 0 view .LVU309
	orr	r3, r3, #65536
.LVL93:
	.loc 1 627 3 is_stmt 1 view .LVU310
	.loc 1 627 14 is_stmt 0 view .LVU311
	str	r3, [r0, #4]
	.loc 1 628 1 view .LVU312
	bx	lr
	.cfi_endproc
.LFE243:
	.size	XMC_CCU4_SLICE_StatusBitOverrideConfig, .-XMC_CCU4_SLICE_StatusBitOverrideConfig
	.section	.text.XMC_CCU4_SLICE_TrapConfig,"ax",%progbits
	.align	1
	.global	XMC_CCU4_SLICE_TrapConfig
	.syntax unified
	.thumb
	.thumb_func
	.fpu fpv4-sp-d16
	.type	XMC_CCU4_SLICE_TrapConfig, %function
XMC_CCU4_SLICE_TrapConfig:
.LVL94:
.LFB244:
	.loc 1 634 1 is_stmt 1 view -0
	.cfi_startproc
	@ args = 0, pretend = 0, frame = 0
	@ frame_needed = 0, uses_anonymous_args = 0
	@ link register save eliminated.
	.loc 1 635 3 view .LVU314
	.loc 1 636 3 view .LVU315
	.loc 1 638 3 view .LVU316
	.loc 1 640 63 view .LVU317
	.loc 1 643 3 view .LVU318
	.loc 1 643 7 is_stmt 0 view .LVU319
	ldr	r3, [r0, #4]
.LVL95:
	.loc 1 644 3 is_stmt 1 view .LVU320
	.loc 1 645 3 view .LVU321
	.loc 1 645 7 is_stmt 0 view .LVU322
	orr	r3, r3, #131072
.LVL96:
	.loc 1 646 3 is_stmt 1 view .LVU323
	.loc 1 646 14 is_stmt 0 view .LVU324
	str	r3, [r0, #4]
	.loc 1 649 3 is_stmt 1 view .LVU325
	.loc 1 649 6 is_stmt 0 view .LVU326
	ldr	r3, [r0, #20]
.LVL97:
	.loc 1 651 3 is_stmt 1 view .LVU327
	.loc 1 651 6 is_stmt 0 view .LVU328
	cbz	r2, .L52
	.loc 1 653 5 is_stmt 1 view .LVU329
	.loc 1 653 8 is_stmt 0 view .LVU330
	orr	r3, r3, #2097152
.LVL98:
.L53:
	.loc 1 661 3 is_stmt 1 view .LVU331
	.loc 1 661 6 is_stmt 0 view .LVU332
	cmp	r1, #1
	beq	.L56
	.loc 1 667 5 is_stmt 1 view .LVU333
	.loc 1 667 8 is_stmt 0 view .LVU334
	bic	r3, r3, #4194304
.LVL99:
.L55:
	.loc 1 670 3 is_stmt 1 view .LVU335
	.loc 1 670 13 is_stmt 0 view .LVU336
	str	r3, [r0, #20]
.LVL100:
	.loc 1 671 1 view .LVU337
	bx	lr
.LVL101:
.L52:
	.loc 1 657 5 is_stmt 1 view .LVU338
	.loc 1 657 8 is_stmt 0 view .LVU339
	bic	r3, r3, #2097152
.LVL102:
	.loc 1 657 8 view .LVU340
	b	.L53
.L56:
	.loc 1 663 5 is_stmt 1 view .LVU341
	.loc 1 663 8 is_stmt 0 view .LVU342
	orr	r3, r3, #4194304
.LVL103:
	.loc 1 663 8 view .LVU343
	b	.L55
	.cfi_endproc
.LFE244:
	.size	XMC_CCU4_SLICE_TrapConfig, .-XMC_CCU4_SLICE_TrapConfig
	.section	.text.XMC_CCU4_SLICE_ConfigureStatusBitOverrideEvent,"ax",%progbits
	.align	1
	.global	XMC_CCU4_SLICE_ConfigureStatusBitOverrideEvent
	.syntax unified
	.thumb
	.thumb_func
	.fpu fpv4-sp-d16
	.type	XMC_CCU4_SLICE_ConfigureStatusBitOverrideEvent, %function
XMC_CCU4_SLICE_ConfigureStatusBitOverrideEvent:
.LVL104:
.LFB245:
	.loc 1 677 1 is_stmt 1 view -0
	.cfi_startproc
	@ args = 0, pretend = 0, frame = 0
	@ frame_needed = 0, uses_anonymous_args = 0
	@ link register save eliminated.
	.loc 1 677 1 is_stmt 0 view .LVU345
	push	{r4}
	.cfi_def_cfa_offset 4
	.cfi_offset 4, -4
	.loc 1 678 3 is_stmt 1 view .LVU346
	.loc 1 680 3 view .LVU347
	.loc 1 682 68 view .LVU348
	.loc 1 684 70 view .LVU349
	.loc 1 687 89 view .LVU350
	.loc 1 689 70 view .LVU351
	.loc 1 691 68 view .LVU352
	.loc 1 693 70 view .LVU353
	.loc 1 696 89 view .LVU354
	.loc 1 698 70 view .LVU355
	.loc 1 740 3 view .LVU356
	.loc 1 740 7 is_stmt 0 view .LVU357
	ldr	r3, [r0]
.LVL105:
	.loc 1 743 3 is_stmt 1 view .LVU358
	.loc 1 743 7 is_stmt 0 view .LVU359
	bic	r3, r3, #786432
.LVL106:
	.loc 1 744 3 is_stmt 1 view .LVU360
	.loc 1 744 32 is_stmt 0 view .LVU361
	ldrb	r4, [r1, #1]	@ zero_extendqisi2
	.loc 1 744 7 view .LVU362
	orr	r3, r3, r4, lsl #18
.LVL107:
	.loc 1 747 3 is_stmt 1 view .LVU363
	.loc 1 747 7 is_stmt 0 view .LVU364
	bic	r3, r3, #3145728
.LVL108:
	.loc 1 748 3 is_stmt 1 view .LVU365
	.loc 1 748 32 is_stmt 0 view .LVU366
	ldrb	r4, [r2, #1]	@ zero_extendqisi2
	.loc 1 748 7 view .LVU367
	orr	r3, r3, r4, lsl #20
.LVL109:
	.loc 1 751 3 is_stmt 1 view .LVU368
	.loc 1 751 7 is_stmt 0 view .LVU369
	bic	r3, r3, #8388608
.LVL110:
	.loc 1 752 3 is_stmt 1 view .LVU370
	.loc 1 752 32 is_stmt 0 view .LVU371
	ldrb	r4, [r1, #2]	@ zero_extendqisi2
	.loc 1 752 7 view .LVU372
	orr	r3, r3, r4, lsl #23
.LVL111:
	.loc 1 755 3 is_stmt 1 view .LVU373
	.loc 1 755 7 is_stmt 0 view .LVU374
	bic	r3, r3, #16777216
.LVL112:
	.loc 1 756 3 is_stmt 1 view .LVU375
	.loc 1 756 32 is_stmt 0 view .LVU376
	ldrb	r4, [r2, #2]	@ zero_extendqisi2
	.loc 1 756 7 view .LVU377
	orr	r3, r3, r4, lsl #24
.LVL113:
	.loc 1 759 3 is_stmt 1 view .LVU378
	.loc 1 759 7 is_stmt 0 view .LVU379
	bic	r3, r3, #402653184
.LVL114:
	.loc 1 760 3 is_stmt 1 view .LVU380
	.loc 1 760 32 is_stmt 0 view .LVU381
	ldrb	r4, [r1, #3]	@ zero_extendqisi2
	.loc 1 760 7 view .LVU382
	orr	r3, r3, r4, lsl #27
.LVL115:
	.loc 1 763 3 is_stmt 1 view .LVU383
	.loc 1 763 7 is_stmt 0 view .LVU384
	bic	r3, r3, #1610612736
.LVL116:
	.loc 1 764 3 is_stmt 1 view .LVU385
	.loc 1 764 32 is_stmt 0 view .LVU386
	ldrb	r4, [r2, #3]	@ zero_extendqisi2
	.loc 1 764 7 view .LVU387
	orr	r3, r3, r4, lsl #29
.LVL117:
	.loc 1 767 3 is_stmt 1 view .LVU388
	.loc 1 767 7 is_stmt 0 view .LVU389
	bic	r3, r3, #240
.LVL118:
	.loc 1 768 3 is_stmt 1 view .LVU390
	.loc 1 768 32 is_stmt 0 view .LVU391
	ldrb	r1, [r1]	@ zero_extendqisi2
.LVL119:
	.loc 1 768 7 view .LVU392
	orr	r3, r3, r1, lsl #4
.LVL120:
	.loc 1 771 3 is_stmt 1 view .LVU393
	.loc 1 771 7 is_stmt 0 view .LVU394
	bic	r3, r3, #3840
.LVL121:
	.loc 1 772 3 is_stmt 1 view .LVU395
	.loc 1 772 32 is_stmt 0 view .LVU396
	ldrb	r2, [r2]	@ zero_extendqisi2
.LVL122:
	.loc 1 772 7 view .LVU397
	orr	r3, r3, r2, lsl #8
.LVL123:
	.loc 1 774 3 is_stmt 1 view .LVU398
	.loc 1 774 14 is_stmt 0 view .LVU399
	str	r3, [r0]
	.loc 1 776 1 view .LVU400
	ldr	r4, [sp], #4
	.cfi_restore 4
	.cfi_def_cfa_offset 0
	bx	lr
	.cfi_endproc
.LFE245:
	.size	XMC_CCU4_SLICE_ConfigureStatusBitOverrideEvent, .-XMC_CCU4_SLICE_ConfigureStatusBitOverrideEvent
	.section	.text.XMC_CCU4_SLICE_ConfigureEvent,"ax",%progbits
	.align	1
	.global	XMC_CCU4_SLICE_ConfigureEvent
	.syntax unified
	.thumb
	.thumb_func
	.fpu fpv4-sp-d16
	.type	XMC_CCU4_SLICE_ConfigureEvent, %function
XMC_CCU4_SLICE_ConfigureEvent:
.LVL124:
.LFB246:
	.loc 1 782 1 is_stmt 1 view -0
	.cfi_startproc
	@ args = 0, pretend = 0, frame = 0
	@ frame_needed = 0, uses_anonymous_args = 0
	@ link register save eliminated.
	.loc 1 782 1 is_stmt 0 view .LVU402
	push	{r4, r5, r6, r7}
	.cfi_def_cfa_offset 16
	.cfi_offset 4, -16
	.cfi_offset 5, -12
	.cfi_offset 6, -8
	.cfi_offset 7, -4
	.loc 1 783 3 is_stmt 1 view .LVU403
	.loc 1 784 3 view .LVU404
	.loc 1 785 3 view .LVU405
	.loc 1 787 3 view .LVU406
	.loc 1 788 3 view .LVU407
	.loc 1 789 3 view .LVU408
	.loc 1 791 66 view .LVU409
	.loc 1 794 85 view .LVU410
	.loc 1 796 66 view .LVU411
	.loc 1 798 3 view .LVU412
	.loc 1 798 10 is_stmt 0 view .LVU413
	subs	r4, r1, #1
	uxtb	r4, r4
.LVL125:
	.loc 1 830 3 is_stmt 1 view .LVU414
	.loc 1 830 7 is_stmt 0 view .LVU415
	ldr	ip, [r0]
.LVL126:
	.loc 1 833 3 is_stmt 1 view .LVU416
	.loc 1 833 30 is_stmt 0 view .LVU417
	lsls	r5, r4, #1
	uxtb	r5, r5
	.loc 1 833 7 view .LVU418
	add	r3, r5, #16
	uxtb	r7, r3
.LVL127:
	.loc 1 834 3 is_stmt 1 view .LVU419
	.loc 1 834 30 is_stmt 0 view .LVU420
	movs	r6, #3
	lsl	r3, r6, r7
	.loc 1 834 7 view .LVU421
	bic	ip, ip, r3
.LVL128:
	.loc 1 835 3 is_stmt 1 view .LVU422
	.loc 1 835 28 is_stmt 0 view .LVU423
	ldrb	r3, [r2, #1]	@ zero_extendqisi2
	.loc 1 835 36 view .LVU424
	lsls	r3, r3, r7
	.loc 1 835 7 view .LVU425
	orr	r3, r3, ip
.LVL129:
	.loc 1 838 3 is_stmt 1 view .LVU426
	.loc 1 838 7 is_stmt 0 view .LVU427
	adds	r1, r1, #21
.LVL130:
	.loc 1 838 7 view .LVU428
	uxtb	r7, r1
.LVL131:
	.loc 1 839 3 is_stmt 1 view .LVU429
	.loc 1 839 30 is_stmt 0 view .LVU430
	movs	r1, #1
	lsls	r1, r1, r7
	.loc 1 839 7 view .LVU431
	bic	r3, r3, r1
.LVL132:
	.loc 1 840 3 is_stmt 1 view .LVU432
	.loc 1 840 28 is_stmt 0 view .LVU433
	ldrb	r1, [r2, #2]	@ zero_extendqisi2
	.loc 1 840 37 view .LVU434
	lsls	r1, r1, r7
	.loc 1 840 7 view .LVU435
	orrs	r1, r1, r3
.LVL133:
	.loc 1 843 3 is_stmt 1 view .LVU436
	.loc 1 843 7 is_stmt 0 view .LVU437
	adds	r5, r5, #25
	uxtb	r5, r5
.LVL134:
	.loc 1 844 3 is_stmt 1 view .LVU438
	.loc 1 844 30 is_stmt 0 view .LVU439
	lsl	r3, r6, r5
	.loc 1 844 7 view .LVU440
	bic	r1, r1, r3
.LVL135:
	.loc 1 845 3 is_stmt 1 view .LVU441
	.loc 1 845 28 is_stmt 0 view .LVU442
	ldrb	r3, [r2, #3]	@ zero_extendqisi2
	.loc 1 845 40 view .LVU443
	lsls	r3, r3, r5
	.loc 1 845 7 view .LVU444
	orrs	r3, r3, r1
.LVL136:
	.loc 1 848 3 is_stmt 1 view .LVU445
	.loc 1 848 7 is_stmt 0 view .LVU446
	lsls	r1, r4, #2
	uxtb	r1, r1
.LVL137:
	.loc 1 849 3 is_stmt 1 view .LVU447
	.loc 1 849 33 is_stmt 0 view .LVU448
	movs	r4, #15
.LVL138:
	.loc 1 849 33 view .LVU449
	lsls	r4, r4, r1
	.loc 1 849 7 view .LVU450
	bic	r3, r3, r4
.LVL139:
	.loc 1 850 3 is_stmt 1 view .LVU451
	.loc 1 850 28 is_stmt 0 view .LVU452
	ldrb	r2, [r2]	@ zero_extendqisi2
.LVL140:
	.loc 1 850 44 view .LVU453
	lsl	r1, r2, r1
.LVL141:
	.loc 1 850 7 view .LVU454
	orrs	r3, r3, r1
.LVL142:
	.loc 1 852 3 is_stmt 1 view .LVU455
	.loc 1 852 14 is_stmt 0 view .LVU456
	str	r3, [r0]
	.loc 1 854 1 view .LVU457
	pop	{r4, r5, r6, r7}
	.cfi_restore 7
	.cfi_restore 6
	.cfi_restore 5
	.cfi_restore 4
	.cfi_def_cfa_offset 0
	bx	lr
	.cfi_endproc
.LFE246:
	.size	XMC_CCU4_SLICE_ConfigureEvent, .-XMC_CCU4_SLICE_ConfigureEvent
	.section	.text.XMC_CCU4_SLICE_SetInput,"ax",%progbits
	.align	1
	.global	XMC_CCU4_SLICE_SetInput
	.syntax unified
	.thumb
	.thumb_func
	.fpu fpv4-sp-d16
	.type	XMC_CCU4_SLICE_SetInput, %function
XMC_CCU4_SLICE_SetInput:
.LVL143:
.LFB247:
	.loc 1 860 1 is_stmt 1 view -0
	.cfi_startproc
	@ args = 0, pretend = 0, frame = 0
	@ frame_needed = 0, uses_anonymous_args = 0
	@ link register save eliminated.
	.loc 1 860 1 is_stmt 0 view .LVU459
	push	{r4}
	.cfi_def_cfa_offset 4
	.cfi_offset 4, -4
	.loc 1 861 3 is_stmt 1 view .LVU460
	.loc 1 862 3 view .LVU461
	.loc 1 863 3 view .LVU462
	.loc 1 865 3 view .LVU463
	.loc 1 866 3 view .LVU464
	.loc 1 867 3 view .LVU465
	.loc 1 870 3 view .LVU466
	.loc 1 870 10 is_stmt 0 view .LVU467
	subs	r3, r1, #1
	uxtb	r3, r3
.LVL144:
	.loc 1 881 3 is_stmt 1 view .LVU468
	.loc 1 881 7 is_stmt 0 view .LVU469
	lsls	r3, r3, #2
.LVL145:
	.loc 1 881 7 view .LVU470
	uxtb	r3, r3
.LVL146:
	.loc 1 883 3 is_stmt 1 view .LVU471
	.loc 1 883 7 is_stmt 0 view .LVU472
	ldr	r1, [r0]
.LVL147:
	.loc 1 884 3 is_stmt 1 view .LVU473
	.loc 1 884 33 is_stmt 0 view .LVU474
	movs	r4, #15
	lsls	r4, r4, r3
	.loc 1 884 7 view .LVU475
	bic	r1, r1, r4
.LVL148:
	.loc 1 885 3 is_stmt 1 view .LVU476
	.loc 1 885 29 is_stmt 0 view .LVU477
	lsls	r2, r2, r3
.LVL149:
	.loc 1 885 7 view .LVU478
	orrs	r2, r2, r1
.LVL150:
	.loc 1 887 3 is_stmt 1 view .LVU479
	.loc 1 887 14 is_stmt 0 view .LVU480
	str	r2, [r0]
	.loc 1 889 1 view .LVU481
	ldr	r4, [sp], #4
	.cfi_restore 4
	.cfi_def_cfa_offset 0
	bx	lr
	.cfi_endproc
.LFE247:
	.size	XMC_CCU4_SLICE_SetInput, .-XMC_CCU4_SLICE_SetInput
	.section	.text.XMC_CCU4_SLICE_SetTimerRepeatMode,"ax",%progbits
	.align	1
	.global	XMC_CCU4_SLICE_SetTimerRepeatMode
	.syntax unified
	.thumb
	.thumb_func
	.fpu fpv4-sp-d16
	.type	XMC_CCU4_SLICE_SetTimerRepeatMode, %function
XMC_CCU4_SLICE_SetTimerRepeatMode:
.LVL151:
.LFB248:
	.loc 1 893 1 is_stmt 1 view -0
	.cfi_startproc
	@ args = 0, pretend = 0, frame = 0
	@ frame_needed = 0, uses_anonymous_args = 0
	@ link register save eliminated.
	.loc 1 894 3 view .LVU483
	.loc 1 897 66 view .LVU484
	.loc 1 899 3 view .LVU485
	.loc 1 899 6 is_stmt 0 view .LVU486
	cbnz	r1, .L64
	.loc 1 901 5 is_stmt 1 view .LVU487
	.loc 1 901 15 is_stmt 0 view .LVU488
	ldr	r3, [r0, #20]
	bic	r3, r3, #2
	str	r3, [r0, #20]
	bx	lr
.L64:
	.loc 1 905 5 is_stmt 1 view .LVU489
	.loc 1 905 15 is_stmt 0 view .LVU490
	ldr	r3, [r0, #20]
	orr	r3, r3, #2
	str	r3, [r0, #20]
	.loc 1 907 1 view .LVU491
	bx	lr
	.cfi_endproc
.LFE248:
	.size	XMC_CCU4_SLICE_SetTimerRepeatMode, .-XMC_CCU4_SLICE_SetTimerRepeatMode
	.section	.text.XMC_CCU4_SLICE_SetTimerCountingMode,"ax",%progbits
	.align	1
	.global	XMC_CCU4_SLICE_SetTimerCountingMode
	.syntax unified
	.thumb
	.thumb_func
	.fpu fpv4-sp-d16
	.type	XMC_CCU4_SLICE_SetTimerCountingMode, %function
XMC_CCU4_SLICE_SetTimerCountingMode:
.LVL152:
.LFB249:
	.loc 1 911 1 is_stmt 1 view -0
	.cfi_startproc
	@ args = 0, pretend = 0, frame = 0
	@ frame_needed = 0, uses_anonymous_args = 0
	@ link register save eliminated.
	.loc 1 912 3 view .LVU493
	.loc 1 914 60 view .LVU494
	.loc 1 916 3 view .LVU495
	.loc 1 916 6 is_stmt 0 view .LVU496
	cbnz	r1, .L67
	.loc 1 918 5 is_stmt 1 view .LVU497
	.loc 1 918 15 is_stmt 0 view .LVU498
	ldr	r3, [r0, #20]
	bic	r3, r3, #1
	str	r3, [r0, #20]
	bx	lr
.L67:
	.loc 1 922 5 is_stmt 1 view .LVU499
	.loc 1 922 15 is_stmt 0 view .LVU500
	ldr	r3, [r0, #20]
	orr	r3, r3, #1
	str	r3, [r0, #20]
	.loc 1 924 1 view .LVU501
	bx	lr
	.cfi_endproc
.LFE249:
	.size	XMC_CCU4_SLICE_SetTimerCountingMode, .-XMC_CCU4_SLICE_SetTimerCountingMode
	.section	.text.XMC_CCU4_SLICE_GetCaptureRegisterValue,"ax",%progbits
	.align	1
	.global	XMC_CCU4_SLICE_GetCaptureRegisterValue
	.syntax unified
	.thumb
	.thumb_func
	.fpu fpv4-sp-d16
	.type	XMC_CCU4_SLICE_GetCaptureRegisterValue, %function
XMC_CCU4_SLICE_GetCaptureRegisterValue:
.LVL153:
.LFB250:
	.loc 1 928 1 is_stmt 1 view -0
	.cfi_startproc
	@ args = 0, pretend = 0, frame = 0
	@ frame_needed = 0, uses_anonymous_args = 0
	@ link register save eliminated.
	.loc 1 929 3 view .LVU503
	.loc 1 930 3 view .LVU504
	.loc 1 931 3 view .LVU505
	.loc 1 931 20 is_stmt 0 view .LVU506
	adds	r1, r1, #28
.LVL154:
	.loc 1 931 20 view .LVU507
	add	r0, r0, r1, lsl #2
.LVL155:
	.loc 1 931 20 view .LVU508
	ldr	r0, [r0, #4]
	.loc 1 932 1 view .LVU509
	bx	lr
	.cfi_endproc
.LFE250:
	.size	XMC_CCU4_SLICE_GetCaptureRegisterValue, .-XMC_CCU4_SLICE_GetCaptureRegisterValue
	.section	.text.XMC_CCU4_SLICE_GetLastCapturedTimerValue,"ax",%progbits
	.align	1
	.global	XMC_CCU4_SLICE_GetLastCapturedTimerValue
	.syntax unified
	.thumb
	.thumb_func
	.fpu fpv4-sp-d16
	.type	XMC_CCU4_SLICE_GetLastCapturedTimerValue, %function
XMC_CCU4_SLICE_GetLastCapturedTimerValue:
.LVL156:
.LFB251:
	.loc 1 938 1 is_stmt 1 view -0
	.cfi_startproc
	@ args = 0, pretend = 0, frame = 0
	@ frame_needed = 0, uses_anonymous_args = 0
	@ link register save eliminated.
	.loc 1 938 1 is_stmt 0 view .LVU511
	push	{r4, r5}
	.cfi_def_cfa_offset 8
	.cfi_offset 4, -8
	.cfi_offset 5, -4
	.loc 1 939 3 is_stmt 1 view .LVU512
	.loc 1 940 3 view .LVU513
	.loc 1 941 3 view .LVU514
	.loc 1 942 3 view .LVU515
	.loc 1 944 3 view .LVU516
	.loc 1 946 56 view .LVU517
	.loc 1 948 3 view .LVU518
.LVL157:
	.loc 1 951 3 view .LVU519
	.loc 1 951 13 is_stmt 0 view .LVU520
	ldr	r3, [r0, #20]
	.loc 1 951 6 view .LVU521
	tst	r3, #16
	bne	.L76
	.loc 1 960 5 is_stmt 1 view .LVU522
	.loc 1 960 8 is_stmt 0 view .LVU523
	cmp	r1, #1
	beq	.L79
	.loc 1 968 11 view .LVU524
	movs	r4, #2
	.loc 1 967 13 view .LVU525
	movs	r3, #0
.LVL158:
	.loc 1 972 3 is_stmt 1 view .LVU526
	.loc 1 972 3 is_stmt 0 view .LVU527
	b	.L72
.LVL159:
.L79:
	.loc 1 963 11 view .LVU528
	movs	r4, #4
	.loc 1 962 13 view .LVU529
	movs	r3, #2
	b	.L72
.L76:
	.loc 1 955 9 view .LVU530
	movs	r4, #4
	.loc 1 954 11 view .LVU531
	movs	r3, #0
.LVL160:
.L72:
	.loc 1 972 19 is_stmt 1 discriminator 1 view .LVU532
	.loc 1 972 3 is_stmt 0 discriminator 1 view .LVU533
	cmp	r3, r4
	bcs	.L80
	.loc 1 974 5 is_stmt 1 view .LVU534
	.loc 1 974 20 is_stmt 0 view .LVU535
	mov	r5, r3
	add	r1, r3, #28
	add	r1, r0, r1, lsl #2
	ldr	r1, [r1, #4]
	.loc 1 974 8 view .LVU536
	tst	r1, #1048576
	bne	.L81
	.loc 1 972 28 is_stmt 1 discriminator 2 view .LVU537
	.loc 1 972 29 is_stmt 0 discriminator 2 view .LVU538
	adds	r3, r3, #1
.LVL161:
	.loc 1 972 29 discriminator 2 view .LVU539
	uxtb	r3, r3
.LVL162:
	.loc 1 972 29 discriminator 2 view .LVU540
	b	.L72
.L81:
	.loc 1 976 7 is_stmt 1 view .LVU541
	.loc 1 976 27 is_stmt 0 view .LVU542
	adds	r5, r5, #28
	add	r0, r0, r5, lsl #2
.LVL163:
	.loc 1 976 27 view .LVU543
	ldr	r3, [r0, #4]
.LVL164:
	.loc 1 976 16 view .LVU544
	str	r3, [r2]
	.loc 1 977 7 is_stmt 1 view .LVU545
.LVL165:
	.loc 1 978 7 view .LVU546
	.loc 1 977 14 is_stmt 0 view .LVU547
	movs	r0, #0
	.loc 1 978 7 view .LVU548
	b	.L74
.LVL166:
.L80:
	.loc 1 948 10 view .LVU549
	movs	r0, #1
.LVL167:
.L74:
	.loc 1 982 3 is_stmt 1 view .LVU550
	.loc 1 983 1 is_stmt 0 view .LVU551
	pop	{r4, r5}
	.cfi_restore 5
	.cfi_restore 4
	.cfi_def_cfa_offset 0
	bx	lr
	.cfi_endproc
.LFE251:
	.size	XMC_CCU4_SLICE_GetLastCapturedTimerValue, .-XMC_CCU4_SLICE_GetLastCapturedTimerValue
	.section	.text.XMC_CCU4_GetCapturedValueFromFifo,"ax",%progbits
	.align	1
	.global	XMC_CCU4_GetCapturedValueFromFifo
	.syntax unified
	.thumb
	.thumb_func
	.fpu fpv4-sp-d16
	.type	XMC_CCU4_GetCapturedValueFromFifo, %function
XMC_CCU4_GetCapturedValueFromFifo:
.LVL168:
.LFB252:
	.loc 1 988 1 is_stmt 1 view -0
	.cfi_startproc
	@ args = 0, pretend = 0, frame = 0
	@ frame_needed = 0, uses_anonymous_args = 0
	@ link register save eliminated.
	.loc 1 989 3 view .LVU553
	.loc 1 990 3 view .LVU554
	.loc 1 992 3 view .LVU555
	.loc 1 995 3 view .LVU556
	.loc 1 995 25 is_stmt 0 view .LVU557
	ldr	r0, [r0, #80]
.LVL169:
	.loc 1 997 3 is_stmt 1 view .LVU558
	.loc 1 997 19 is_stmt 0 view .LVU559
	ubfx	r3, r0, #20, #2
.LVL170:
	.loc 1 1000 3 is_stmt 1 view .LVU560
	.loc 1 1000 6 is_stmt 0 view .LVU561
	cmp	r1, r3
	bne	.L85
.LVL171:
.L82:
	.loc 1 1006 1 view .LVU562
	bx	lr
.LVL172:
.L85:
	.loc 1 1002 9 view .LVU563
	mov	r0, #-1
.LVL173:
	.loc 1 1005 3 is_stmt 1 view .LVU564
	.loc 1 1005 10 is_stmt 0 view .LVU565
	b	.L82
	.cfi_endproc
.LFE252:
	.size	XMC_CCU4_GetCapturedValueFromFifo, .-XMC_CCU4_GetCapturedValueFromFifo
	.section	.text.XMC_CCU4_SLICE_EnableDithering,"ax",%progbits
	.align	1
	.global	XMC_CCU4_SLICE_EnableDithering
	.syntax unified
	.thumb
	.thumb_func
	.fpu fpv4-sp-d16
	.type	XMC_CCU4_SLICE_EnableDithering, %function
XMC_CCU4_SLICE_EnableDithering:
.LVL174:
.LFB253:
	.loc 1 1036 1 is_stmt 1 view -0
	.cfi_startproc
	@ args = 0, pretend = 0, frame = 0
	@ frame_needed = 0, uses_anonymous_args = 0
	@ link register save eliminated.
	.loc 1 1036 1 is_stmt 0 view .LVU567
	push	{r4}
	.cfi_def_cfa_offset 4
	.cfi_offset 4, -4
	.loc 1 1037 3 is_stmt 1 view .LVU568
	.loc 1 1039 3 view .LVU569
	.loc 1 1041 3 view .LVU570
	.loc 1 1041 6 is_stmt 0 view .LVU571
	ldr	r4, [r0, #20]
.LVL175:
	.loc 1 1042 3 is_stmt 1 view .LVU572
	.loc 1 1042 6 is_stmt 0 view .LVU573
	bic	r4, r4, #24576
.LVL176:
	.loc 1 1044 3 is_stmt 1 view .LVU574
	.loc 1 1044 6 is_stmt 0 view .LVU575
	cbz	r1, .L87
	.loc 1 1046 5 is_stmt 1 view .LVU576
	.loc 1 1046 8 is_stmt 0 view .LVU577
	orr	r4, r4, #8192
.LVL177:
.L87:
	.loc 1 1048 3 is_stmt 1 view .LVU578
	.loc 1 1048 6 is_stmt 0 view .LVU579
	cbz	r2, .L88
	.loc 1 1050 5 is_stmt 1 view .LVU580
	.loc 1 1050 8 is_stmt 0 view .LVU581
	orr	r4, r4, #16384
.LVL178:
.L88:
	.loc 1 1053 3 is_stmt 1 view .LVU582
	.loc 1 1053 13 is_stmt 0 view .LVU583
	str	r4, [r0, #20]
	.loc 1 1055 3 is_stmt 1 view .LVU584
.LVL179:
.LBB20:
.LBI20:
	.loc 2 1913 20 view .LVU585
.LBB21:
	.loc 2 1915 3 view .LVU586
	.loc 2 1916 3 view .LVU587
	.loc 2 1916 15 is_stmt 0 view .LVU588
	str	r3, [r0, #32]
.LVL180:
	.loc 2 1916 15 view .LVU589
.LBE21:
.LBE20:
	.loc 1 1056 1 view .LVU590
	ldr	r4, [sp], #4
	.cfi_restore 4
	.cfi_def_cfa_offset 0
.LVL181:
	.loc 1 1056 1 view .LVU591
	bx	lr
	.cfi_endproc
.LFE253:
	.size	XMC_CCU4_SLICE_EnableDithering, .-XMC_CCU4_SLICE_EnableDithering
	.section	.text.XMC_CCU4_SLICE_SetPrescaler,"ax",%progbits
	.align	1
	.global	XMC_CCU4_SLICE_SetPrescaler
	.syntax unified
	.thumb
	.thumb_func
	.fpu fpv4-sp-d16
	.type	XMC_CCU4_SLICE_SetPrescaler, %function
XMC_CCU4_SLICE_SetPrescaler:
.LVL182:
.LFB254:
	.loc 1 1060 1 is_stmt 1 view -0
	.cfi_startproc
	@ args = 0, pretend = 0, frame = 0
	@ frame_needed = 0, uses_anonymous_args = 0
	@ link register save eliminated.
	.loc 1 1061 3 view .LVU593
	.loc 1 1063 3 view .LVU594
	.loc 1 1065 3 view .LVU595
	.loc 1 1065 7 is_stmt 0 view .LVU596
	ldr	r3, [r0, #40]
.LVL183:
	.loc 1 1066 3 is_stmt 1 view .LVU597
	.loc 1 1066 7 is_stmt 0 view .LVU598
	bic	r3, r3, #3840
.LVL184:
	.loc 1 1067 3 is_stmt 1 view .LVU599
	.loc 1 1067 7 is_stmt 0 view .LVU600
	orr	r3, r3, r1, lsl #8
.LVL185:
	.loc 1 1068 3 is_stmt 1 view .LVU601
	.loc 1 1068 14 is_stmt 0 view .LVU602
	str	r3, [r0, #40]
	.loc 1 1073 3 is_stmt 1 view .LVU603
	.loc 1 1073 14 is_stmt 0 view .LVU604
	str	r1, [r0, #36]
	.loc 1 1074 1 view .LVU605
	bx	lr
	.cfi_endproc
.LFE254:
	.size	XMC_CCU4_SLICE_SetPrescaler, .-XMC_CCU4_SLICE_SetPrescaler
	.section	.text.XMC_CCU4_SLICE_SetInterruptNode,"ax",%progbits
	.align	1
	.global	XMC_CCU4_SLICE_SetInterruptNode
	.syntax unified
	.thumb
	.thumb_func
	.fpu fpv4-sp-d16
	.type	XMC_CCU4_SLICE_SetInterruptNode, %function
XMC_CCU4_SLICE_SetInterruptNode:
.LVL186:
.LFB255:
	.loc 1 1080 1 is_stmt 1 view -0
	.cfi_startproc
	@ args = 0, pretend = 0, frame = 0
	@ frame_needed = 0, uses_anonymous_args = 0
	@ link register save eliminated.
	.loc 1 1080 1 is_stmt 0 view .LVU607
	push	{r4}
	.cfi_def_cfa_offset 4
	.cfi_offset 4, -4
	.loc 1 1081 3 is_stmt 1 view .LVU608
	.loc 1 1082 3 view .LVU609
	.loc 1 1083 3 view .LVU610
	.loc 1 1085 3 view .LVU611
	.loc 1 1086 3 view .LVU612
	.loc 1 1087 3 view .LVU613
	.loc 1 1089 3 view .LVU614
	cmp	r1, #11
	bhi	.L91
	tbb	[pc, r1]
.L94:
	.byte	(.L98-.L94)/2
	.byte	(.L98-.L94)/2
	.byte	(.L97-.L94)/2
	.byte	(.L97-.L94)/2
	.byte	(.L91-.L94)/2
	.byte	(.L91-.L94)/2
	.byte	(.L91-.L94)/2
	.byte	(.L91-.L94)/2
	.byte	(.L96-.L94)/2
	.byte	(.L95-.L94)/2
	.byte	(.L99-.L94)/2
	.byte	(.L99-.L94)/2
	.p2align 1
.L98:
	.loc 1 1110 11 is_stmt 0 view .LVU615
	movs	r4, #3
	movs	r1, #0
.LVL187:
	.loc 1 1110 11 view .LVU616
	b	.L93
.LVL188:
.L95:
	.loc 1 1109 7 is_stmt 1 view .LVU617
	.loc 1 1110 7 view .LVU618
	.loc 1 1111 7 view .LVU619
	.loc 1 1125 3 view .LVU620
	.loc 1 1109 12 is_stmt 0 view .LVU621
	mov	r4, #3072
	.loc 1 1110 11 view .LVU622
	movs	r1, #10
.LVL189:
	.loc 1 1110 11 view .LVU623
	b	.L93
.LVL190:
.L96:
	.loc 1 1104 7 is_stmt 1 view .LVU624
	.loc 1 1105 7 view .LVU625
	.loc 1 1106 7 view .LVU626
	.loc 1 1125 3 view .LVU627
	.loc 1 1104 12 is_stmt 0 view .LVU628
	mov	r4, #768
	.loc 1 1105 11 view .LVU629
	movs	r1, #8
.LVL191:
	.loc 1 1105 11 view .LVU630
	b	.L93
.LVL192:
.L97:
	.loc 1 1099 7 is_stmt 1 view .LVU631
	.loc 1 1100 7 view .LVU632
	.loc 1 1101 7 view .LVU633
	.loc 1 1125 3 view .LVU634
	.loc 1 1099 12 is_stmt 0 view .LVU635
	movs	r4, #12
	.loc 1 1100 11 view .LVU636
	movs	r1, #2
.LVL193:
	.loc 1 1100 11 view .LVU637
	b	.L93
.LVL194:
.L99:
	.loc 1 1115 12 view .LVU638
	mov	r4, #12288
	.loc 1 1116 11 view .LVU639
	movs	r1, #12
.LVL195:
.L93:
	.loc 1 1127 5 is_stmt 1 view .LVU640
	.loc 1 1127 9 is_stmt 0 view .LVU641
	ldr	r3, [r0, #168]
.LVL196:
	.loc 1 1128 5 is_stmt 1 view .LVU642
	.loc 1 1128 9 is_stmt 0 view .LVU643
	bic	r3, r3, r4
.LVL197:
	.loc 1 1129 5 is_stmt 1 view .LVU644
	.loc 1 1129 25 is_stmt 0 view .LVU645
	lsls	r2, r2, r1
.LVL198:
	.loc 1 1129 9 view .LVU646
	orrs	r2, r2, r3
.LVL199:
	.loc 1 1130 5 is_stmt 1 view .LVU647
	.loc 1 1130 16 is_stmt 0 view .LVU648
	str	r2, [r0, #168]
.LVL200:
.L91:
	.loc 1 1132 1 view .LVU649
	ldr	r4, [sp], #4
	.cfi_restore 4
	.cfi_def_cfa_offset 0
	bx	lr
	.cfi_endproc
.LFE255:
	.size	XMC_CCU4_SLICE_SetInterruptNode, .-XMC_CCU4_SLICE_SetInterruptNode
	.section	.text.XMC_CCU4_SLICE_SetPassiveLevel,"ax",%progbits
	.align	1
	.global	XMC_CCU4_SLICE_SetPassiveLevel
	.syntax unified
	.thumb
	.thumb_func
	.fpu fpv4-sp-d16
	.type	XMC_CCU4_SLICE_SetPassiveLevel, %function
XMC_CCU4_SLICE_SetPassiveLevel:
.LVL201:
.LFB256:
	.loc 1 1137 1 is_stmt 1 view -0
	.cfi_startproc
	@ args = 0, pretend = 0, frame = 0
	@ frame_needed = 0, uses_anonymous_args = 0
	@ link register save eliminated.
	.loc 1 1138 3 view .LVU651
	.loc 1 1140 3 view .LVU652
	.loc 1 1142 67 view .LVU653
	.loc 1 1144 3 view .LVU654
	.loc 1 1144 7 is_stmt 0 view .LVU655
	ldr	r3, [r0, #24]
.LVL202:
	.loc 1 1145 3 is_stmt 1 view .LVU656
	.loc 1 1145 7 is_stmt 0 view .LVU657
	bic	r3, r3, #1
.LVL203:
	.loc 1 1146 3 is_stmt 1 view .LVU658
	.loc 1 1146 7 is_stmt 0 view .LVU659
	orrs	r1, r1, r3
.LVL204:
	.loc 1 1149 3 is_stmt 1 view .LVU660
	.loc 1 1149 14 is_stmt 0 view .LVU661
	str	r1, [r0, #24]
	.loc 1 1150 1 view .LVU662
	bx	lr
	.cfi_endproc
.LFE256:
	.size	XMC_CCU4_SLICE_SetPassiveLevel, .-XMC_CCU4_SLICE_SetPassiveLevel
	.text
.Letext0:
	.file 3 "/home/sebin/LIOT/gcc-arm-none-eabi-9-2019-q4-major/arm-none-eabi/include/machine/_default_types.h"
	.file 4 "/home/sebin/LIOT/gcc-arm-none-eabi-9-2019-q4-major/arm-none-eabi/include/sys/_stdint.h"
	.file 5 "/home/sebin/LIOT/gcc-arm-none-eabi-9-2019-q4-major/arm-none-eabi/include/sys/lock.h"
	.file 6 "/home/sebin/LIOT/gcc-arm-none-eabi-9-2019-q4-major/arm-none-eabi/include/sys/_types.h"
	.file 7 "/home/sebin/LIOT/gcc-arm-none-eabi-9-2019-q4-major/lib/gcc/arm-none-eabi/9.2.1/include/stddef.h"
	.file 8 "/home/sebin/LIOT/gcc-arm-none-eabi-9-2019-q4-major/arm-none-eabi/include/sys/reent.h"
	.file 9 "/home/sebin/thesis/zephyrproject/modules/hal/cmsis/CMSIS/Core/Include/core_cm4.h"
	.file 10 "/home/sebin/thesis/zephyrproject/modules/hal/infineon/XMCLib/devices/XMC4500/Include/system_XMC4500.h"
	.file 11 "/home/sebin/thesis/zephyrproject/modules/hal/infineon/XMCLib/devices/XMC4500/Include/XMC4500.h"
	.file 12 "/home/sebin/thesis/zephyrproject/modules/hal/infineon/XMCLib/drivers/inc/xmc4_scu.h"