	.cpu cortex-m4
	.eabi_attribute 27, 1
	.eabi_attribute 28, 1
	.eabi_attribute 20, 1
	.eabi_attribute 21, 1
	.eabi_attribute 23, 3
	.eabi_attribute 24, 1
	.eabi_attribute 25, 1
	.eabi_attribute 26, 1
	.eabi_attribute 30, 1
	.eabi_attribute 34, 1
	.eabi_attribute 38, 1
	.eabi_attribute 18, 4
	.file	"xmc_eth_mac.c"
	.text
.Ltext0:
	.cfi_sections	.debug_frame
	.section	.text.XMC_ETH_MAC_InitRxDescriptors,"ax",%progbits
	.align	1
	.global	XMC_ETH_MAC_InitRxDescriptors
	.arch armv7e-m
	.syntax unified
	.thumb
	.thumb_func
	.fpu fpv4-sp-d16
	.type	XMC_ETH_MAC_InitRxDescriptors, %function
XMC_ETH_MAC_InitRxDescriptors:
.LVL0:
.LFB253:
	.file 1 "/home/sebin/thesis/zephyrproject/modules/hal/infineon/XMCLib/drivers/src/xmc_eth_mac.c"
	.loc 1 292 1 view -0
	.cfi_startproc
	@ args = 0, pretend = 0, frame = 0
	@ frame_needed = 0, uses_anonymous_args = 0
	@ link register save eliminated.
	.loc 1 292 1 is_stmt 0 view .LVU1
	push	{r4}
	.cfi_def_cfa_offset 4
	.cfi_offset 4, -4
	.loc 1 293 3 is_stmt 1 view .LVU2
	.loc 1 294 3 view .LVU3
	.loc 1 296 3 view .LVU4
	.loc 1 302 3 view .LVU5
.LVL1:
	.loc 1 302 10 is_stmt 0 view .LVU6
	movs	r3, #0
	.loc 1 302 3 view .LVU7
	b	.L2
.LVL2:
.L3:
	.loc 1 313 7 is_stmt 1 view .LVU8
	.loc 1 313 14 is_stmt 0 view .LVU9
	ldr	r2, [r0, #16]
	.loc 1 313 23 view .LVU10
	add	r2, r2, r1
	.loc 1 313 35 view .LVU11
	movs	r4, #0
	str	r4, [r2, #8]
	b	.L4
.LVL3:
.L7:
	.loc 1 319 12 view .LVU12
	movs	r4, #0
.L5:
.LVL4:
	.loc 1 321 5 is_stmt 1 discriminator 2 view .LVU13
	.loc 1 321 56 is_stmt 0 discriminator 2 view .LVU14
	ldr	r2, [r0, #16]
	.loc 1 321 46 discriminator 2 view .LVU15
	add	r4, r2, r4, lsl #5
.LVL5:
	.loc 1 321 21 discriminator 2 view .LVU16
	add	r2, r2, r1
	.loc 1 321 33 discriminator 2 view .LVU17
	str	r4, [r2, #12]
	.loc 1 302 41 is_stmt 1 discriminator 2 view .LVU18
.LVL6:
.L2:
	.loc 1 302 16 discriminator 1 view .LVU19
	.loc 1 302 27 is_stmt 0 discriminator 1 view .LVU20
	ldrb	r2, [r0, #36]	@ zero_extendqisi2
	.loc 1 302 3 discriminator 1 view .LVU21
	cmp	r2, r3
	bls	.L9
	.loc 1 304 5 is_stmt 1 view .LVU22
	.loc 1 304 12 is_stmt 0 view .LVU23
	ldr	r2, [r0, #16]
	.loc 1 304 21 view .LVU24
	lsls	r1, r3, #5
	.loc 1 304 32 view .LVU25
	mov	r4, #-2147483648
	str	r4, [r2, r1]
	.loc 1 305 5 is_stmt 1 view .LVU26
	.loc 1 305 12 is_stmt 0 view .LVU27
	ldr	r2, [r0, #16]
	.loc 1 305 21 view .LVU28
	add	r2, r2, r1
	.loc 1 305 32 view .LVU29
	movw	r4, #17908
	str	r4, [r2, #4]
	.loc 1 307 5 is_stmt 1 view .LVU30
	.loc 1 307 16 is_stmt 0 view .LVU31
	ldr	r2, [r0, #24]
	.loc 1 307 8 view .LVU32
	cmp	r2, #0
	beq	.L3
	.loc 1 309 7 is_stmt 1 view .LVU33
	.loc 1 309 48 is_stmt 0 view .LVU34
	movw	r4, #1524
	mla	r4, r4, r3, r2
	.loc 1 309 14 view .LVU35
	ldr	r2, [r0, #16]
	.loc 1 309 23 view .LVU36
	add	r2, r2, r1
	.loc 1 309 35 view .LVU37
	str	r4, [r2, #8]
.L4:
	.loc 1 316 5 is_stmt 1 view .LVU38
	.loc 1 316 10 is_stmt 0 view .LVU39
	adds	r3, r3, #1
.LVL7:
	.loc 1 317 5 is_stmt 1 view .LVU40
	.loc 1 317 24 is_stmt 0 view .LVU41
	ldrb	r2, [r0, #36]	@ zero_extendqisi2
	.loc 1 317 8 view .LVU42
	cmp	r2, r3
	beq	.L7
	.loc 1 316 10 view .LVU43
	mov	r4, r3
	b	.L5
.LVL8:
.L9:
	.loc 1 323 3 is_stmt 1 view .LVU44
	.loc 1 323 73 is_stmt 0 view .LVU45
	ldr	r1, [r0, #16]
	.loc 1 323 10 view .LVU46
	ldr	r2, [r0]
	.loc 1 323 50 view .LVU47
	movw	r3, #4108
.LVL9:
	.loc 1 323 50 view .LVU48
	str	r1, [r2, r3]
	.loc 1 324 3 is_stmt 1 view .LVU49
	.loc 1 324 21 is_stmt 0 view .LVU50
	movs	r3, #0
	strb	r3, [r0, #39]
	.loc 1 325 1 view .LVU51
	ldr	r4, [sp], #4
	.cfi_restore 4
	.cfi_def_cfa_offset 0
	bx	lr
	.cfi_endproc
.LFE253:
	.size	XMC_ETH_MAC_InitRxDescriptors, .-XMC_ETH_MAC_InitRxDescriptors
	.section	.text.XMC_ETH_MAC_InitTxDescriptors,"ax",%progbits
	.align	1
	.global	XMC_ETH_MAC_InitTxDescriptors
	.syntax unified
	.thumb
	.thumb_func
	.fpu fpv4-sp-d16
	.type	XMC_ETH_MAC_InitTxDescriptors, %function
XMC_ETH_MAC_InitTxDescriptors:
.LVL10:
.LFB254:
	.loc 1 329 1 is_stmt 1 view -0
	.cfi_startproc
	@ args = 0, pretend = 0, frame = 0
	@ frame_needed = 0, uses_anonymous_args = 0
	@ link register save eliminated.
	.loc 1 329 1 is_stmt 0 view .LVU53
	push	{r4}
	.cfi_def_cfa_offset 4
	.cfi_offset 4, -4
	.loc 1 330 3 is_stmt 1 view .LVU54
	.loc 1 331 3 view .LVU55
	.loc 1 333 3 view .LVU56
	.loc 1 336 3 view .LVU57
.LVL11:
	.loc 1 336 10 is_stmt 0 view .LVU58
	movs	r3, #0
	.loc 1 336 3 view .LVU59
	b	.L11
.LVL12:
.L12:
	.loc 1 346 7 is_stmt 1 view .LVU60
	.loc 1 346 14 is_stmt 0 view .LVU61
	ldr	r2, [r0, #20]
	.loc 1 346 23 view .LVU62
	add	r2, r2, r1
	.loc 1 346 35 view .LVU63
	movs	r4, #0
	str	r4, [r2, #8]
	b	.L13
.LVL13:
.L16:
	.loc 1 352 12 view .LVU64
	movs	r4, #0
.L14:
.LVL14:
	.loc 1 354 5 is_stmt 1 discriminator 2 view .LVU65
	.loc 1 354 56 is_stmt 0 discriminator 2 view .LVU66
	ldr	r2, [r0, #20]
	.loc 1 354 46 discriminator 2 view .LVU67
	add	r4, r2, r4, lsl #5
.LVL15:
	.loc 1 354 21 discriminator 2 view .LVU68
	add	r2, r2, r1
	.loc 1 354 33 discriminator 2 view .LVU69
	str	r4, [r2, #12]
	.loc 1 336 41 is_stmt 1 discriminator 2 view .LVU70
.LVL16:
.L11:
	.loc 1 336 16 discriminator 1 view .LVU71
	.loc 1 336 27 is_stmt 0 discriminator 1 view .LVU72
	ldrb	r2, [r0, #37]	@ zero_extendqisi2
	.loc 1 336 3 discriminator 1 view .LVU73
	cmp	r2, r3
	bls	.L18
	.loc 1 338 5 is_stmt 1 view .LVU74
	.loc 1 338 12 is_stmt 0 view .LVU75
	ldr	r2, [r0, #20]
	.loc 1 338 21 view .LVU76
	lsls	r1, r3, #5
	.loc 1 338 32 view .LVU77
	ldr	r4, .L19
	str	r4, [r2, r1]
	.loc 1 340 5 is_stmt 1 view .LVU78
	.loc 1 340 16 is_stmt 0 view .LVU79
	ldr	r2, [r0, #28]
	.loc 1 340 8 view .LVU80
	cmp	r2, #0
	beq	.L12
	.loc 1 342 7 is_stmt 1 view .LVU81
	.loc 1 342 48 is_stmt 0 view .LVU82
	movw	r4, #1524
	mla	r4, r4, r3, r2
	.loc 1 342 14 view .LVU83
	ldr	r2, [r0, #20]
	.loc 1 342 23 view .LVU84
	add	r2, r2, r1
	.loc 1 342 35 view .LVU85
	str	r4, [r2, #8]
.L13:
	.loc 1 349 5 is_stmt 1 view .LVU86
	.loc 1 349 10 is_stmt 0 view .LVU87
	adds	r3, r3, #1
.LVL17:
	.loc 1 350 5 is_stmt 1 view .LVU88
	.loc 1 350 24 is_stmt 0 view .LVU89
	ldrb	r2, [r0, #37]	@ zero_extendqisi2
	.loc 1 350 8 view .LVU90
	cmp	r2, r3
	beq	.L16
	.loc 1 349 10 view .LVU91
	mov	r4, r3
	b	.L14
.LVL18:
.L18:
	.loc 1 356 3 is_stmt 1 view .LVU92
	.loc 1 356 74 is_stmt 0 view .LVU93
	ldr	r1, [r0, #20]
	.loc 1 356 10 view .LVU94
	ldr	r2, [r0]
	.loc 1 356 51 view .LVU95
	movw	r3, #4112
.LVL19:
	.loc 1 356 51 view .LVU96
	str	r1, [r2, r3]
	.loc 1 357 3 is_stmt 1 view .LVU97
	.loc 1 357 21 is_stmt 0 view .LVU98
	movs	r3, #0
	strb	r3, [r0, #38]
	.loc 1 358 1 view .LVU99
	ldr	r4, [sp], #4
	.cfi_restore 4
	.cfi_def_cfa_offset 0
	bx	lr
.L20:
	.align	2
.L19:
	.word	1880096768
	.cfi_endproc
.LFE254:
	.size	XMC_ETH_MAC_InitTxDescriptors, .-XMC_ETH_MAC_InitTxDescriptors
	.section	.text.XMC_ETH_MAC_InitEx,"ax",%progbits
	.align	1
	.global	XMC_ETH_MAC_InitEx
	.syntax unified
	.thumb
	.thumb_func
	.fpu fpv4-sp-d16
	.type	XMC_ETH_MAC_InitEx, %function
XMC_ETH_MAC_InitEx:
.LVL20:
.LFB251:
	.loc 1 234 1 is_stmt 1 view -0
	.cfi_startproc
	@ args = 0, pretend = 0, frame = 0
	@ frame_needed = 0, uses_anonymous_args = 0
	.loc 1 234 1 is_stmt 0 view .LVU101
	push	{r4, lr}
	.cfi_def_cfa_offset 8
	.cfi_offset 4, -8
	.cfi_offset 14, -4
	mov	r4, r0
	.loc 1 235 3 is_stmt 1 view .LVU102
	.loc 1 237 3 view .LVU103
.LVL21:
.LBB25:
.LBI25:
	.file 2 "/home/sebin/thesis/zephyrproject/modules/hal/infineon/XMCLib/drivers/inc/xmc_eth_mac.h"
	.loc 2 511 20 view .LVU104
.LBB26:
	.loc 2 513 3 view .LVU105
	.loc 2 513 10 is_stmt 0 view .LVU106
	ldr	r3, [r0]
	.loc 2 513 27 view .LVU107
	add	r3, r3, #4096
	ldr	r2, [r3]
	orr	r2, r2, #1
	str	r2, [r3]
	.loc 2 514 3 is_stmt 1 view .LVU108
.L22:
	.loc 2 516 3 view .LVU109
	.loc 2 514 9 view .LVU110
	.loc 2 514 18 is_stmt 0 view .LVU111
	ldr	r3, [r4]
	.loc 2 514 24 view .LVU112
	add	r2, r3, #4096
	ldr	r2, [r2]
	.loc 2 514 9 view .LVU113
	tst	r2, #1
	bne	.L22
.LVL22:
	.loc 2 514 9 view .LVU114
.LBE26:
.LBE25:
	.loc 1 240 3 is_stmt 1 view .LVU115
	.loc 1 240 36 is_stmt 0 view .LVU116
	mov	r2, #1024
	str	r2, [r3]
	.loc 1 243 3 is_stmt 1 view .LVU117
	.loc 1 243 10 is_stmt 0 view .LVU118
	ldr	r3, [r4]
	.loc 1 243 31 view .LVU119
	movs	r2, #128
	str	r2, [r3, #24]
	.loc 1 245 3 is_stmt 1 view .LVU120
	.loc 1 245 10 is_stmt 0 view .LVU121
	ldr	r2, [r4]
	.loc 1 245 33 view .LVU122
	movw	r3, #4120
	ldr	r1, .L24
	str	r1, [r2, r3]
	.loc 1 250 3 is_stmt 1 view .LVU123
	.loc 1 250 10 is_stmt 0 view .LVU124
	ldr	r3, [r4]
	.loc 1 250 27 view .LVU125
	add	r3, r3, #4096
	ldr	r2, .L24+4
	str	r2, [r3]
	.loc 1 256 3 is_stmt 1 view .LVU126
	mov	r0, r4
.LVL23:
	.loc 1 256 3 is_stmt 0 view .LVU127
	bl	XMC_ETH_MAC_InitRxDescriptors
.LVL24:
	.loc 1 257 3 is_stmt 1 view .LVU128
	mov	r0, r4
	bl	XMC_ETH_MAC_InitTxDescriptors
.LVL25:
	.loc 1 260 3 view .LVU129
	.loc 1 260 10 is_stmt 0 view .LVU130
	ldr	r2, [r4]
	.loc 1 260 25 view .LVU131
	movw	r3, #4116
	mov	r1, #-1
	str	r1, [r2, r3]
	.loc 1 263 3 is_stmt 1 view .LVU132
	.loc 1 263 10 is_stmt 0 view .LVU133
	ldr	r2, [r4]
	.loc 1 263 46 view .LVU134
	mvn	r3, #-67108864
	str	r3, [r2, #272]
	.loc 1 264 3 is_stmt 1 view .LVU135
	.loc 1 264 10 is_stmt 0 view .LVU136
	ldr	r2, [r4]
	.loc 1 264 45 view .LVU137
	str	r3, [r2, #268]
	.loc 1 265 3 is_stmt 1 view .LVU138
	.loc 1 265 10 is_stmt 0 view .LVU139
	ldr	r3, [r4]
	.loc 1 265 49 view .LVU140
	mvn	r2, #-1073692672
	str	r2, [r3, #512]
	.loc 1 268 3 is_stmt 1 view .LVU141
	.loc 1 268 10 is_stmt 0 view .LVU142
	ldr	r3, [r4]
	.loc 1 268 33 view .LVU143
	mov	r2, #520
	str	r2, [r3, #60]
	.loc 1 270 3 is_stmt 1 view .LVU144
	.loc 1 270 22 is_stmt 0 view .LVU145
	movs	r3, #0
	str	r3, [r4, #32]
	.loc 1 271 1 view .LVU146
	pop	{r4, pc}
.LVL26:
.L25:
	.loc 1 271 1 view .LVU147
	.align	2
.L24:
	.word	35651588
	.word	33628288
	.cfi_endproc
.LFE251:
	.size	XMC_ETH_MAC_InitEx, .-XMC_ETH_MAC_InitEx
	.section	.text.XMC_ETH_MAC_SetAddressEx,"ax",%progbits
	.align	1
	.global	XMC_ETH_MAC_SetAddressEx
	.syntax unified
	.thumb
	.thumb_func
	.fpu fpv4-sp-d16
	.type	XMC_ETH_MAC_SetAddressEx, %function
XMC_ETH_MAC_SetAddressEx:
.LVL27:
.LFB255:
	.loc 1 361 1 is_stmt 1 view -0
	.cfi_startproc
	@ args = 0, pretend = 0, frame = 0
	@ frame_needed = 0, uses_anonymous_args = 0
	@ link register save eliminated.
	.loc 1 361 1 is_stmt 0 view .LVU149
	push	{r4}
	.cfi_def_cfa_offset 4
	.cfi_offset 4, -4
	.loc 1 362 3 is_stmt 1 view .LVU150
	.loc 1 362 42 is_stmt 0 view .LVU151
	ldrb	r3, [r1, #4]	@ zero_extendqisi2
	.loc 1 362 53 view .LVU152
	ldrb	r4, [r1, #5]	@ zero_extendqisi2
	.loc 1 362 10 view .LVU153
	ldr	r2, [r0]
	.loc 1 362 46 view .LVU154
	orr	r3, r3, r4, lsl #8
	.loc 1 362 36 view .LVU155
	str	r3, [r2, #64]
	.loc 1 363 3 is_stmt 1 view .LVU156
	.loc 1 363 41 is_stmt 0 view .LVU157
	ldrb	r3, [r1]	@ zero_extendqisi2
	.loc 1 363 52 view .LVU158
	ldrb	r2, [r1, #1]	@ zero_extendqisi2
	.loc 1 363 45 view .LVU159
	orr	r3, r3, r2, lsl #8
	.loc 1 363 69 view .LVU160
	ldrb	r2, [r1, #2]	@ zero_extendqisi2
	.loc 1 363 62 view .LVU161
	orr	r3, r3, r2, lsl #16
	.loc 1 363 87 view .LVU162
	ldrb	r1, [r1, #3]	@ zero_extendqisi2
.LVL28:
	.loc 1 363 10 view .LVU163
	ldr	r2, [r0]
	.loc 1 363 80 view .LVU164
	orr	r3, r3, r1, lsl #24
	.loc 1 363 35 view .LVU165
	str	r3, [r2, #68]
	.loc 1 364 1 view .LVU166
	ldr	r4, [sp], #4
	.cfi_restore 4
	.cfi_def_cfa_offset 0
	bx	lr
	.cfi_endproc
.LFE255:
	.size	XMC_ETH_MAC_SetAddressEx, .-XMC_ETH_MAC_SetAddressEx
	.section	.text.XMC_ETH_MAC_GetAddressEx,"ax",%progbits
	.align	1
	.global	XMC_ETH_MAC_GetAddressEx
	.syntax unified
	.thumb
	.thumb_func
	.fpu fpv4-sp-d16
	.type	XMC_ETH_MAC_GetAddressEx, %function
XMC_ETH_MAC_GetAddressEx:
.LVL29:
.LFB256:
	.loc 1 367 1 is_stmt 1 view -0
	.cfi_startproc
	@ args = 0, pretend = 0, frame = 0
	@ frame_needed = 0, uses_anonymous_args = 0
	@ link register save eliminated.
	.loc 1 368 3 view .LVU168
	.loc 1 368 30 is_stmt 0 view .LVU169
	ldr	r2, [r0]
	.loc 1 368 12 view .LVU170
	ldr	r3, [r2, #68]
.LVL30:
	.loc 1 369 3 is_stmt 1 view .LVU171
	.loc 1 369 12 is_stmt 0 view .LVU172
	ldr	r2, [r2, #64]
.LVL31:
	.loc 1 371 3 is_stmt 1 view .LVU173
	.loc 1 371 11 is_stmt 0 view .LVU174
	strb	r3, [r1]
	.loc 1 372 3 is_stmt 1 view .LVU175
	.loc 1 372 23 is_stmt 0 view .LVU176
	lsrs	r0, r3, #8
.LVL32:
	.loc 1 372 11 view .LVU177
	strb	r0, [r1, #1]
	.loc 1 373 3 is_stmt 1 view .LVU178
	.loc 1 373 23 is_stmt 0 view .LVU179
	lsrs	r0, r3, #16
	.loc 1 373 11 view .LVU180
	strb	r0, [r1, #2]
	.loc 1 374 3 is_stmt 1 view .LVU181
	.loc 1 374 30 is_stmt 0 view .LVU182
	lsrs	r3, r3, #24
.LVL33:
	.loc 1 374 11 view .LVU183
	strb	r3, [r1, #3]
	.loc 1 375 3 is_stmt 1 view .LVU184
	.loc 1 375 11 is_stmt 0 view .LVU185
	strb	r2, [r1, #4]
	.loc 1 376 3 is_stmt 1 view .LVU186
	.loc 1 376 24 is_stmt 0 view .LVU187
	lsrs	r2, r2, #8
.LVL34:
	.loc 1 376 11 view .LVU188
	strb	r2, [r1, #5]
	.loc 1 377 1 view .LVU189
	bx	lr
	.cfi_endproc
.LFE256:
	.size	XMC_ETH_MAC_GetAddressEx, .-XMC_ETH_MAC_GetAddressEx
	.section	.text.XMC_ETH_MAC_SetAddressPerfectFilter,"ax",%progbits
	.align	1
	.global	XMC_ETH_MAC_SetAddressPerfectFilter
	.syntax unified
	.thumb
	.thumb_func
	.fpu fpv4-sp-d16
	.type	XMC_ETH_MAC_SetAddressPerfectFilter, %function
XMC_ETH_MAC_SetAddressPerfectFilter:
.LVL35:
.LFB257:
	.loc 1 384 1 is_stmt 1 view -0
	.cfi_startproc
	@ args = 4, pretend = 0, frame = 0
	@ frame_needed = 0, uses_anonymous_args = 0
	@ link register save eliminated.
	.loc 1 384 1 is_stmt 0 view .LVU191
	push	{r4}
	.cfi_def_cfa_offset 4
	.cfi_offset 4, -4
	.loc 1 385 3 is_stmt 1 view .LVU192
	.loc 1 387 3 view .LVU193
	.loc 1 388 3 view .LVU194
	.loc 1 390 3 view .LVU195
	.loc 1 390 18 is_stmt 0 view .LVU196
	ldr	r0, [r0]
.LVL36:
	.loc 1 390 7 view .LVU197
	adds	r0, r0, #64
.LVL37:
	.loc 1 391 3 is_stmt 1 view .LVU198
	.loc 1 391 40 is_stmt 0 view .LVU199
	ldr	r4, [sp, #4]
	orrs	r3, r3, r4
	.loc 1 391 14 view .LVU200
	str	r3, [r0, r1, lsl #2]
	.loc 1 392 3 is_stmt 1 view .LVU201
	.loc 1 392 6 is_stmt 0 view .LVU202
	adds	r1, r1, #1
.LVL38:
	.loc 1 392 19 view .LVU203
	str	r2, [r0, r1, lsl #2]
	.loc 1 393 1 view .LVU204
	ldr	r4, [sp], #4
	.cfi_restore 4
	.cfi_def_cfa_offset 0
.LVL39:
	.loc 1 393 1 view .LVU205
	bx	lr
	.cfi_endproc
.LFE257:
	.size	XMC_ETH_MAC_SetAddressPerfectFilter, .-XMC_ETH_MAC_SetAddressPerfectFilter
	.section	.text.XMC_ETH_MAC_SetAddressPerfectFilterEx,"ax",%progbits
	.align	1
	.global	XMC_ETH_MAC_SetAddressPerfectFilterEx
	.syntax unified
	.thumb
	.thumb_func
	.fpu fpv4-sp-d16
	.type	XMC_ETH_MAC_SetAddressPerfectFilterEx, %function
XMC_ETH_MAC_SetAddressPerfectFilterEx:
.LVL40:
.LFB258:
	.loc 1 399 1 is_stmt 1 view -0
	.cfi_startproc
	@ args = 0, pretend = 0, frame = 0
	@ frame_needed = 0, uses_anonymous_args = 0
	@ link register save eliminated.
	.loc 1 399 1 is_stmt 0 view .LVU207
	push	{r4, r5}
	.cfi_def_cfa_offset 8
	.cfi_offset 4, -8
	.cfi_offset 5, -4
	.loc 1 400 3 is_stmt 1 view .LVU208
	.loc 1 402 3 view .LVU209
	.loc 1 403 3 view .LVU210
	.loc 1 405 3 view .LVU211
	.loc 1 405 18 is_stmt 0 view .LVU212
	ldr	r4, [r0]
	.loc 1 405 7 view .LVU213
	adds	r4, r4, #64
.LVL41:
	.loc 1 406 3 is_stmt 1 view .LVU214
	.loc 1 406 20 is_stmt 0 view .LVU215
	ldrb	r0, [r2, #4]	@ zero_extendqisi2
.LVL42:
	.loc 1 406 31 view .LVU216
	ldrb	r5, [r2, #5]	@ zero_extendqisi2
	.loc 1 406 24 view .LVU217
	orr	r0, r0, r5, lsl #8
	.loc 1 406 41 view .LVU218
	orrs	r0, r0, r3
	.loc 1 406 14 view .LVU219
	str	r0, [r4, r1, lsl #2]
	.loc 1 407 3 is_stmt 1 view .LVU220
	.loc 1 407 25 is_stmt 0 view .LVU221
	ldrb	r3, [r2]	@ zero_extendqisi2
.LVL43:
	.loc 1 407 36 view .LVU222
	ldrb	r0, [r2, #1]	@ zero_extendqisi2
	.loc 1 407 29 view .LVU223
	orr	r3, r3, r0, lsl #8
	.loc 1 407 53 view .LVU224
	ldrb	r0, [r2, #2]	@ zero_extendqisi2
	.loc 1 407 46 view .LVU225
	orr	r3, r3, r0, lsl #16
	.loc 1 407 71 view .LVU226
	ldrb	r2, [r2, #3]	@ zero_extendqisi2
.LVL44:
	.loc 1 407 6 view .LVU227
	adds	r1, r1, #1
.LVL45:
	.loc 1 407 64 view .LVU228
	orr	r3, r3, r2, lsl #24
	.loc 1 407 19 view .LVU229
	str	r3, [r4, r1, lsl #2]
	.loc 1 408 1 view .LVU230
	pop	{r4, r5}
	.cfi_restore 5
	.cfi_restore 4
	.cfi_def_cfa_offset 0
.LVL46:
	.loc 1 408 1 view .LVU231
	bx	lr
	.cfi_endproc
.LFE258:
	.size	XMC_ETH_MAC_SetAddressPerfectFilterEx, .-XMC_ETH_MAC_SetAddressPerfectFilterEx
	.section	.text.XMC_ETH_MAC_SetAddressHashFilter,"ax",%progbits
	.align	1
	.global	XMC_ETH_MAC_SetAddressHashFilter
	.syntax unified
	.thumb
	.thumb_func
	.fpu fpv4-sp-d16
	.type	XMC_ETH_MAC_SetAddressHashFilter, %function
XMC_ETH_MAC_SetAddressHashFilter:
.LVL47:
.LFB259:
	.loc 1 412 1 is_stmt 1 view -0
	.cfi_startproc
	@ args = 0, pretend = 0, frame = 0
	@ frame_needed = 0, uses_anonymous_args = 0
	@ link register save eliminated.
	.loc 1 413 3 view .LVU233
	.loc 1 413 10 is_stmt 0 view .LVU234
	ldr	r1, [r0]
	.loc 1 413 34 view .LVU235
	str	r3, [r1, #8]
	.loc 1 414 3 is_stmt 1 view .LVU236
	.loc 1 414 10 is_stmt 0 view .LVU237
	ldr	r3, [r0]
	.loc 1 414 33 view .LVU238
	str	r2, [r3, #12]
	.loc 1 415 1 view .LVU239
	bx	lr
	.cfi_endproc
.LFE259:
	.size	XMC_ETH_MAC_SetAddressHashFilter, .-XMC_ETH_MAC_SetAddressHashFilter
	.section	.text.XMC_ETH_MAC_SendFrame,"ax",%progbits
	.align	1
	.global	XMC_ETH_MAC_SendFrame
	.syntax unified
	.thumb
	.thumb_func
	.fpu fpv4-sp-d16
	.type	XMC_ETH_MAC_SendFrame, %function
XMC_ETH_MAC_SendFrame:
.LVL48:
.LFB260:
	.loc 1 419 1 is_stmt 1 view -0
	.cfi_startproc
	@ args = 0, pretend = 0, frame = 0
	@ frame_needed = 0, uses_anonymous_args = 0
	.loc 1 419 1 is_stmt 0 view .LVU241
	push	{r3, r4, r5, r6, r7, lr}
	.cfi_def_cfa_offset 24
	.cfi_offset 3, -24
	.cfi_offset 4, -20
	.cfi_offset 5, -16
	.cfi_offset 6, -12
	.cfi_offset 7, -8
	.cfi_offset 14, -4
	mov	r4, r0
	mov	r5, r3
	.loc 1 420 3 is_stmt 1 view .LVU242
	.loc 1 421 3 view .LVU243
	.loc 1 422 3 view .LVU244
	.loc 1 424 3 view .LVU245
	.loc 1 425 3 view .LVU246
	.loc 1 426 3 view .LVU247
	.loc 1 428 3 view .LVU248
	.loc 1 428 7 is_stmt 0 view .LVU249
	ldr	r6, [r0, #32]
.LVL49:
	.loc 1 430 3 is_stmt 1 view .LVU250
	.loc 1 430 14 is_stmt 0 view .LVU251
	ldr	r3, [r0, #20]
.LVL50:
	.loc 1 430 31 view .LVU252
	ldrb	r0, [r0, #38]	@ zero_extendqisi2
.LVL51:
	.loc 1 430 23 view .LVU253
	lsls	r7, r0, #5
	add	r0, r3, r0, lsl #5
	.loc 1 430 42 view .LVU254
	ldr	r3, [r3, r7]
	.loc 1 430 6 view .LVU255
	cmp	r3, #0
	blt	.L45
	.loc 1 444 5 is_stmt 1 view .LVU256
	.loc 1 444 8 is_stmt 0 view .LVU257
	cbz	r6, .L46
	.loc 1 453 7 is_stmt 1 view .LVU258
	.loc 1 453 50 is_stmt 0 view .LVU259
	ldr	r3, [r0, #4]
	add	r3, r3, r2
	str	r3, [r0, #4]
.L38:
	.loc 1 456 4 is_stmt 1 view .LVU260
.LVL52:
.LBB27:
.LBI27:
	.file 3 "/home/sebin/LIOT/gcc-arm-none-eabi-9-2019-q4-major/arm-none-eabi/include/ssp/string.h"
	.loc 3 83 216 view .LVU261
.LBB28:
	.loc 3 83 292 view .LVU262
	.loc 3 83 299 is_stmt 0 view .LVU263
	mov	r0, r6
	bl	memcpy
.LVL53:
	.loc 3 83 299 view .LVU264
.LBE28:
.LBE27:
	.loc 1 458 5 is_stmt 1 view .LVU265
	.loc 1 458 8 is_stmt 0 view .LVU266
	tst	r5, #1
	beq	.L39
	.loc 1 461 7 is_stmt 1 view .LVU267
	.loc 1 461 26 is_stmt 0 view .LVU268
	str	r6, [r4, #32]
	.loc 1 493 12 view .LVU269
	movs	r0, #0
.LVL54:
.L36:
	.loc 1 496 3 is_stmt 1 view .LVU270
	.loc 1 497 1 is_stmt 0 view .LVU271
	pop	{r3, r4, r5, r6, r7, pc}
.LVL55:
.L45:
	.loc 1 433 5 is_stmt 1 view .LVU272
	.loc 1 434 5 view .LVU273
	.loc 1 434 16 is_stmt 0 view .LVU274
	ldr	r3, [r4]
	.loc 1 434 22 view .LVU275
	movw	r2, #4116
.LVL56:
	.loc 1 434 22 view .LVU276
	ldr	r2, [r3, r2]
	.loc 1 434 8 view .LVU277
	tst	r2, #4
	beq	.L43
	.loc 1 437 7 is_stmt 1 view .LVU278
	.loc 1 437 29 is_stmt 0 view .LVU279
	movw	r2, #4116
	movs	r1, #4
.LVL57:
	.loc 1 437 29 view .LVU280
	str	r1, [r3, r2]
	.loc 1 438 7 is_stmt 1 view .LVU281
	.loc 1 438 14 is_stmt 0 view .LVU282
	ldr	r2, [r4]
	.loc 1 438 43 view .LVU283
	movw	r3, #4100
	movs	r1, #0
	str	r1, [r2, r3]
	.loc 1 433 12 view .LVU284
	movs	r0, #1
	b	.L36
.LVL58:
.L46:
	.loc 1 447 7 is_stmt 1 view .LVU285
	.loc 1 447 59 is_stmt 0 view .LVU286
	ldr	r6, [r0, #8]
.LVL59:
	.loc 1 448 7 is_stmt 1 view .LVU287
	.loc 1 448 50 is_stmt 0 view .LVU288
	str	r2, [r0, #4]
	b	.L38
.LVL60:
.L39:
	.loc 1 466 7 is_stmt 1 view .LVU289
	.loc 1 466 21 is_stmt 0 view .LVU290
	ldr	r0, [r4, #20]
	.loc 1 466 38 view .LVU291
	ldrb	r6, [r4, #38]	@ zero_extendqisi2
.LVL61:
	.loc 1 466 30 view .LVU292
	lsls	r1, r6, #5
	.loc 1 466 49 view .LVU293
	ldr	r2, [r0, r1]
.LVL62:
	.loc 1 467 7 is_stmt 1 view .LVU294
	bic	r2, r2, #1107296256
.LVL63:
	.loc 1 467 12 is_stmt 0 view .LVU295
	orr	r3, r2, #12582912
.LVL64:
	.loc 1 469 7 is_stmt 1 view .LVU296
	.loc 1 469 10 is_stmt 0 view .LVU297
	tst	r5, #2
	beq	.L40
	.loc 1 471 9 is_stmt 1 view .LVU298
	.loc 1 471 14 is_stmt 0 view .LVU299
	orr	r3, r2, #1082130432
.LVL65:
	.loc 1 471 14 view .LVU300
	orr	r3, r3, #4194304
.LVL66:
.L40:
	.loc 1 474 7 is_stmt 1 view .LVU301
	.loc 1 474 10 is_stmt 0 view .LVU302
	tst	r5, #4
	beq	.L41
	.loc 1 476 9 is_stmt 1 view .LVU303
	.loc 1 476 14 is_stmt 0 view .LVU304
	orr	r3, r3, #33554432
.LVL67:
.L41:
	.loc 1 478 7 is_stmt 1 view .LVU305
	.loc 1 478 28 is_stmt 0 view .LVU306
	strb	r6, [r4, #40]
	.loc 1 480 7 is_stmt 1 view .LVU307
	.loc 1 480 57 is_stmt 0 view .LVU308
	orr	r3, r3, #-2147483648
.LVL68:
	.loc 1 480 50 view .LVU309
	str	r3, [r0, r1]
	.loc 1 482 7 is_stmt 1 view .LVU310
	.loc 1 482 14 is_stmt 0 view .LVU311
	ldrb	r3, [r4, #38]	@ zero_extendqisi2
	.loc 1 482 24 view .LVU312
	adds	r3, r3, #1
	uxtb	r3, r3
	strb	r3, [r4, #38]
	.loc 1 483 7 is_stmt 1 view .LVU313
	.loc 1 483 39 is_stmt 0 view .LVU314
	ldrb	r2, [r4, #37]	@ zero_extendqisi2
	.loc 1 483 10 view .LVU315
	cmp	r3, r2
	beq	.L47
.L42:
	.loc 1 487 7 is_stmt 1 view .LVU316
	.loc 1 487 26 is_stmt 0 view .LVU317
	movs	r0, #0
	str	r0, [r4, #32]
	.loc 1 490 7 is_stmt 1 view .LVU318
	.loc 1 490 14 is_stmt 0 view .LVU319
	ldr	r2, [r4]
	.loc 1 490 29 view .LVU320
	movw	r3, #4116
	movs	r1, #2
	str	r1, [r2, r3]
	.loc 1 491 7 is_stmt 1 view .LVU321
	.loc 1 491 14 is_stmt 0 view .LVU322
	ldr	r2, [r4]
	.loc 1 491 43 view .LVU323
	movw	r3, #4100
	str	r0, [r2, r3]
	b	.L36
.L47:
	.loc 1 485 9 is_stmt 1 view .LVU324
	.loc 1 485 27 is_stmt 0 view .LVU325
	movs	r3, #0
	strb	r3, [r4, #38]
	b	.L42
.LVL69:
.L43:
	.loc 1 433 12 view .LVU326
	movs	r0, #1
	b	.L36
	.cfi_endproc
.LFE260:
	.size	XMC_ETH_MAC_SendFrame, .-XMC_ETH_MAC_SendFrame
	.section	.text.XMC_ETH_MAC_ReadFrame,"ax",%progbits
	.align	1
	.global	XMC_ETH_MAC_ReadFrame
	.syntax unified
	.thumb
	.thumb_func
	.fpu fpv4-sp-d16
	.type	XMC_ETH_MAC_ReadFrame, %function
XMC_ETH_MAC_ReadFrame:
.LVL70:
.LFB261:
	.loc 1 501 1 is_stmt 1 view -0
	.cfi_startproc
	@ args = 0, pretend = 0, frame = 0
	@ frame_needed = 0, uses_anonymous_args = 0
	.loc 1 501 1 is_stmt 0 view .LVU328
	push	{r3, r4, r5, lr}
	.cfi_def_cfa_offset 16
	.cfi_offset 3, -16
	.cfi_offset 4, -12
	.cfi_offset 5, -8
	.cfi_offset 14, -4
	mov	r4, r0
	mov	r0, r1
.LVL71:
	.loc 1 501 1 view .LVU329
	mov	r5, r2
	.loc 1 502 3 is_stmt 1 view .LVU330
	.loc 1 504 3 view .LVU331
	.loc 1 505 3 view .LVU332
	.loc 1 506 3 view .LVU333
	.loc 1 509 3 view .LVU334
	.loc 1 509 33 is_stmt 0 view .LVU335
	ldr	r3, [r4, #16]
	.loc 1 509 50 view .LVU336
	ldrb	r1, [r4, #39]	@ zero_extendqisi2
.LVL72:
	.loc 1 509 42 view .LVU337
	add	r3, r3, r1, lsl #5
	.loc 1 509 61 view .LVU338
	ldr	r1, [r3, #8]
.LVL73:
	.loc 1 511 2 is_stmt 1 view .LVU339
.LBB29:
.LBI29:
	.loc 3 83 216 view .LVU340
.LBB30:
	.loc 3 83 292 view .LVU341
	.loc 3 83 299 is_stmt 0 view .LVU342
	bl	memcpy
.LVL74:
	.loc 3 83 299 view .LVU343
.LBE30:
.LBE29:
	.loc 1 514 3 is_stmt 1 view .LVU344
	.loc 1 514 10 is_stmt 0 view .LVU345
	ldr	r2, [r4, #16]
	.loc 1 514 27 view .LVU346
	ldrb	r3, [r4, #39]	@ zero_extendqisi2
	.loc 1 514 19 view .LVU347
	lsls	r3, r3, #5
	.loc 1 514 46 view .LVU348
	mov	r1, #-2147483648
	str	r1, [r2, r3]
	.loc 1 516 3 is_stmt 1 view .LVU349
	.loc 1 516 10 is_stmt 0 view .LVU350
	ldrb	r3, [r4, #39]	@ zero_extendqisi2
	.loc 1 516 20 view .LVU351
	adds	r3, r3, #1
	uxtb	r3, r3
	strb	r3, [r4, #39]
	.loc 1 517 3 is_stmt 1 view .LVU352
	.loc 1 517 35 is_stmt 0 view .LVU353
	ldrb	r2, [r4, #36]	@ zero_extendqisi2
	.loc 1 517 6 view .LVU354
	cmp	r3, r2
	beq	.L52
.L49:
	.loc 1 522 3 is_stmt 1 view .LVU355
	.loc 1 522 14 is_stmt 0 view .LVU356
	ldr	r3, [r4]
	.loc 1 522 20 view .LVU357
	movw	r2, #4116
	ldr	r2, [r3, r2]
	.loc 1 522 6 view .LVU358
	tst	r2, #128
	beq	.L50
	.loc 1 525 5 is_stmt 1 view .LVU359
	.loc 1 525 27 is_stmt 0 view .LVU360
	movw	r2, #4116
	movs	r1, #128
	str	r1, [r3, r2]
	.loc 1 526 5 is_stmt 1 view .LVU361
	.loc 1 526 12 is_stmt 0 view .LVU362
	ldr	r2, [r4]
	.loc 1 526 40 view .LVU363
	movw	r3, #4104
	movs	r1, #0
	str	r1, [r2, r3]
.L50:
	.loc 1 529 3 is_stmt 1 view .LVU364
	.loc 1 530 1 is_stmt 0 view .LVU365
	mov	r0, r5
	pop	{r3, r4, r5, pc}
.LVL75:
.L52:
	.loc 1 519 5 is_stmt 1 view .LVU366
	.loc 1 519 23 is_stmt 0 view .LVU367
	movs	r3, #0
	strb	r3, [r4, #39]
	b	.L49
	.cfi_endproc
.LFE261:
	.size	XMC_ETH_MAC_ReadFrame, .-XMC_ETH_MAC_ReadFrame
	.section	.text.XMC_ETH_MAC_GetRxFrameSize,"ax",%progbits
	.align	1
	.global	XMC_ETH_MAC_GetRxFrameSize
	.syntax unified
	.thumb
	.thumb_func
	.fpu fpv4-sp-d16
	.type	XMC_ETH_MAC_GetRxFrameSize, %function
XMC_ETH_MAC_GetRxFrameSize:
.LVL76:
.LFB262:
	.loc 1 534 1 is_stmt 1 view -0
	.cfi_startproc
	@ args = 0, pretend = 0, frame = 0
	@ frame_needed = 0, uses_anonymous_args = 0
	@ link register save eliminated.
	.loc 1 535 3 view .LVU369
	.loc 1 536 3 view .LVU370
	.loc 1 538 3 view .LVU371
	.loc 1 538 19 is_stmt 0 view .LVU372
	ldr	r2, [r0, #16]
	.loc 1 538 36 view .LVU373
	ldrb	r3, [r0, #39]	@ zero_extendqisi2
	.loc 1 538 28 view .LVU374
	lsls	r3, r3, #5
	.loc 1 538 10 view .LVU375
	ldr	r0, [r2, r3]
.LVL77:
	.loc 1 540 3 is_stmt 1 view .LVU376
	.loc 1 540 6 is_stmt 0 view .LVU377
	cmp	r0, #0
	blt	.L55
	.loc 1 545 8 is_stmt 1 view .LVU378
	.loc 1 546 45 is_stmt 0 view .LVU379
	and	r3, r0, #33536
	.loc 1 545 11 view .LVU380
	cmp	r3, #768
	beq	.L57
	.loc 1 550 9 view .LVU381
	mov	r0, #-1
.LVL78:
	.loc 1 558 3 is_stmt 1 view .LVU382
	.loc 1 559 1 is_stmt 0 view .LVU383
	bx	lr
.LVL79:
.L57:
	.loc 1 555 5 is_stmt 1 view .LVU384
	.loc 1 555 37 is_stmt 0 view .LVU385
	ubfx	r0, r0, #16, #14
.LVL80:
	.loc 1 555 9 view .LVU386
	subs	r0, r0, #4
.LVL81:
	.loc 1 555 9 view .LVU387
	bx	lr
.LVL82:
.L55:
	.loc 1 543 9 view .LVU388
	movs	r0, #0
.LVL83:
	.loc 1 543 9 view .LVU389
	bx	lr
	.cfi_endproc
.LFE262:
	.size	XMC_ETH_MAC_GetRxFrameSize, .-XMC_ETH_MAC_GetRxFrameSize
	.section	.text.XMC_ETH_MAC_SetManagmentClockDivider,"ax",%progbits
	.align	1
	.global	XMC_ETH_MAC_SetManagmentClockDivider
	.syntax unified
	.thumb
	.thumb_func
	.fpu fpv4-sp-d16
	.type	XMC_ETH_MAC_SetManagmentClockDivider, %function
XMC_ETH_MAC_SetManagmentClockDivider:
.LVL84:
.LFB263:
	.loc 1 563 1 is_stmt 1 view -0
	.cfi_startproc
	@ args = 0, pretend = 0, frame = 0
	@ frame_needed = 0, uses_anonymous_args = 0
	@ link register save eliminated.
	.loc 1 564 3 view .LVU391
	.loc 1 565 3 view .LVU392
	.loc 1 566 3 view .LVU393
	.loc 1 568 3 view .LVU394
.LBB31:
.LBI31:
	.file 4 "/home/sebin/thesis/zephyrproject/modules/hal/infineon/XMCLib/drivers/inc/xmc4_scu.h"
	.loc 4 2622 24 view .LVU395
.LBB32:
	.loc 4 2624 3 view .LVU396
.LBB33:
.LBI33:
	.loc 4 2576 24 view .LVU397
.LBB34:
	.loc 4 2578 3 view .LVU398
	.loc 4 2578 65 is_stmt 0 view .LVU399
	ldr	r3, .L69
	ldr	r2, [r3, #16]
	.loc 4 2578 87 view .LVU400
	and	r2, r2, #1
	.loc 4 2578 26 view .LVU401
	ldr	r3, .L69+4
	ldr	r3, [r3]
	lsls	r3, r3, r2
.LVL85:
	.loc 4 2578 26 view .LVU402
.LBE34:
.LBE33:
.LBE32:
.LBE31:
	.loc 1 569 3 is_stmt 1 view .LVU403
	.loc 1 571 3 view .LVU404
	.loc 1 571 18 is_stmt 0 view .LVU405
	ldr	r1, [r0]
.LVL86:
	.loc 1 572 3 is_stmt 1 view .LVU406
	.loc 1 572 6 is_stmt 0 view .LVU407
	ldr	r2, .L69+8
	cmp	r2, r3, lsr #1
	bcc	.L59
	.loc 1 574 5 is_stmt 1 view .LVU408
	.loc 1 574 10 is_stmt 0 view .LVU409
	movs	r3, #8
.LVL87:
	.loc 1 574 10 view .LVU410
	str	r3, [r1, #16]
	.loc 1 569 10 view .LVU411
	movs	r0, #0
.LVL88:
	.loc 1 601 3 is_stmt 1 view .LVU412
	.loc 1 602 1 is_stmt 0 view .LVU413
	bx	lr
.LVL89:
.L59:
	.loc 1 563 1 view .LVU414
	push	{r4}
	.cfi_def_cfa_offset 4
	.cfi_offset 4, -4
	lsrs	r4, r3, #1
	.loc 1 576 8 is_stmt 1 view .LVU415
	.loc 1 576 11 is_stmt 0 view .LVU416
	ldr	r3, .L69+12
.LVL90:
	.loc 1 576 11 view .LVU417
	cmp	r4, r3
	bhi	.L61
	.loc 1 578 5 is_stmt 1 view .LVU418
	.loc 1 578 10 is_stmt 0 view .LVU419
	movs	r3, #12
	str	r3, [r1, #16]
	.loc 1 569 10 view .LVU420
	movs	r0, #0
.LVL91:
.L60:
	.loc 1 601 3 is_stmt 1 view .LVU421
	.loc 1 602 1 is_stmt 0 view .LVU422
	ldr	r4, [sp], #4
	.cfi_remember_state
	.cfi_restore 4
	.cfi_def_cfa_offset 0
	bx	lr
.LVL92:
.L61:
	.cfi_restore_state
	.loc 1 580 8 is_stmt 1 view .LVU423
	.loc 1 580 11 is_stmt 0 view .LVU424
	ldr	r3, .L69+16
	cmp	r4, r3
	bhi	.L62
	.loc 1 582 5 is_stmt 1 view .LVU425
	.loc 1 582 10 is_stmt 0 view .LVU426
	movs	r0, #0
.LVL93:
	.loc 1 582 10 view .LVU427
	str	r0, [r1, #16]
	b	.L60
.LVL94:
.L62:
	.loc 1 584 8 is_stmt 1 view .LVU428
	.loc 1 584 11 is_stmt 0 view .LVU429
	ldr	r3, .L69+20
	cmp	r4, r3
	bhi	.L63
	.loc 1 586 5 is_stmt 1 view .LVU430
	.loc 1 586 10 is_stmt 0 view .LVU431
	movs	r3, #4
	str	r3, [r1, #16]
	.loc 1 569 10 view .LVU432
	movs	r0, #0
.LVL95:
	.loc 1 569 10 view .LVU433
	b	.L60
.LVL96:
.L63:
	.loc 1 588 8 is_stmt 1 view .LVU434
	.loc 1 588 11 is_stmt 0 view .LVU435
	ldr	r3, .L69+24
	cmp	r4, r3
	bhi	.L64
	.loc 1 590 5 is_stmt 1 view .LVU436
	.loc 1 590 10 is_stmt 0 view .LVU437
	movs	r3, #16
	str	r3, [r1, #16]
	.loc 1 569 10 view .LVU438
	movs	r0, #0
.LVL97:
	.loc 1 569 10 view .LVU439
	b	.L60
.LVL98:
.L64:
	.loc 1 592 8 is_stmt 1 view .LVU440
	.loc 1 592 11 is_stmt 0 view .LVU441
	ldr	r3, .L69+28
	cmp	r4, r3
	bhi	.L65
	.loc 1 594 5 is_stmt 1 view .LVU442
	.loc 1 594 10 is_stmt 0 view .LVU443
	movs	r3, #20
	str	r3, [r1, #16]
	.loc 1 569 10 view .LVU444
	movs	r0, #0
.LVL99:
	.loc 1 569 10 view .LVU445
	b	.L60
.LVL100:
.L65:
	.loc 1 598 12 view .LVU446
	movs	r0, #2
.LVL101:
	.loc 1 598 12 view .LVU447
	b	.L60
.L70:
	.align	2
.L69:
	.word	1342195200
	.word	SystemCoreClock
	.word	35000000
	.word	60000000
	.word	100000000
	.word	150000000
	.word	200000000
	.word	250000000
	.cfi_endproc
.LFE263:
	.size	XMC_ETH_MAC_SetManagmentClockDivider, .-XMC_ETH_MAC_SetManagmentClockDivider
	.section	.text.XMC_ETH_MAC_Enable,"ax",%progbits
	.align	1
	.global	XMC_ETH_MAC_Enable
	.syntax unified
	.thumb
	.thumb_func
	.fpu fpv4-sp-d16
	.type	XMC_ETH_MAC_Enable, %function
XMC_ETH_MAC_Enable:
.LVL102:
.LFB264:
	.loc 1 606 1 is_stmt 1 view -0
	.cfi_startproc
	@ args = 0, pretend = 0, frame = 0
	@ frame_needed = 0, uses_anonymous_args = 0
	.loc 1 606 1 is_stmt 0 view .LVU449
	push	{r3, lr}
	.cfi_def_cfa_offset 8
	.cfi_offset 3, -8
	.cfi_offset 14, -4
	.loc 1 607 3 is_stmt 1 view .LVU450
	.loc 1 609 3 view .LVU451
	movs	r0, #4
.LVL103:
	.loc 1 609 3 is_stmt 0 view .LVU452
	bl	XMC_SCU_CLOCK_EnableClock
.LVL104:
	.loc 1 613 3 is_stmt 1 view .LVU453
	ldr	r0, .L73
	bl	XMC_SCU_RESET_DeassertPeripheralReset
.LVL105:
	.loc 1 614 1 is_stmt 0 view .LVU454
	pop	{r3, pc}
.L74:
	.align	2
.L73:
	.word	536870916
	.cfi_endproc
.LFE264:
	.size	XMC_ETH_MAC_Enable, .-XMC_ETH_MAC_Enable
	.section	.text.XMC_ETH_MAC_Init,"ax",%progbits
	.align	1
	.global	XMC_ETH_MAC_Init
	.syntax unified
	.thumb
	.thumb_func
	.fpu fpv4-sp-d16
	.type	XMC_ETH_MAC_Init, %function
XMC_ETH_MAC_Init:
.LVL106:
.LFB252:
	.loc 1 275 1 is_stmt 1 view -0
	.cfi_startproc
	@ args = 0, pretend = 0, frame = 0
	@ frame_needed = 0, uses_anonymous_args = 0
	.loc 1 275 1 is_stmt 0 view .LVU456
	push	{r3, r4, r5, lr}
	.cfi_def_cfa_offset 16
	.cfi_offset 3, -16
	.cfi_offset 4, -12
	.cfi_offset 5, -8
	.cfi_offset 14, -4
	mov	r4, r0
	.loc 1 276 3 is_stmt 1 view .LVU457
	.loc 1 278 3 view .LVU458
	.loc 1 280 3 view .LVU459
	bl	XMC_ETH_MAC_Enable
.LVL107:
	.loc 1 281 3 view .LVU460
	.loc 1 281 12 is_stmt 0 view .LVU461
	mov	r0, r4
	bl	XMC_ETH_MAC_SetManagmentClockDivider
.LVL108:
	mov	r5, r0
.LVL109:
	.loc 1 283 3 is_stmt 1 view .LVU462
	mov	r0, r4
	bl	XMC_ETH_MAC_InitEx
.LVL110:
	.loc 1 285 3 view .LVU463
	ldr	r2, [r4, #8]
	ldr	r1, [r4, #12]
.LVL111:
.LBB35:
.LBI35:
	.loc 2 601 20 view .LVU464
.LBB36:
	.loc 2 603 3 view .LVU465
	.loc 2 603 10 is_stmt 0 view .LVU466
	ldr	r3, [r4]
	.loc 2 603 36 view .LVU467
	str	r1, [r3, #64]
	.loc 2 604 3 is_stmt 1 view .LVU468
	.loc 2 604 10 is_stmt 0 view .LVU469
	ldr	r3, [r4]
	.loc 2 604 35 view .LVU470
	str	r2, [r3, #68]
.LVL112:
	.loc 2 604 35 view .LVU471
.LBE36:
.LBE35:
	.loc 1 287 3 is_stmt 1 view .LVU472
	.loc 1 288 1 is_stmt 0 view .LVU473
	mov	r0, r5
	pop	{r3, r4, r5, pc}
	.loc 1 288 1 view .LVU474
	.cfi_endproc
.LFE252:
	.size	XMC_ETH_MAC_Init, .-XMC_ETH_MAC_Init
	.section	.text.XMC_ETH_MAC_Disable,"ax",%progbits
	.align	1
	.global	XMC_ETH_MAC_Disable
	.syntax unified
	.thumb
	.thumb_func
	.fpu fpv4-sp-d16
	.type	XMC_ETH_MAC_Disable, %function
XMC_ETH_MAC_Disable:
.LVL113:
.LFB265:
	.loc 1 618 1 is_stmt 1 view -0
	.cfi_startproc
	@ args = 0, pretend = 0, frame = 0
	@ frame_needed = 0, uses_anonymous_args = 0
	.loc 1 618 1 is_stmt 0 view .LVU476
	push	{r3, lr}
	.cfi_def_cfa_offset 8
	.cfi_offset 3, -8
	.cfi_offset 14, -4
	.loc 1 619 3 is_stmt 1 view .LVU477
	.loc 1 621 3 view .LVU478
	ldr	r0, .L79
.LVL114:
	.loc 1 621 3 is_stmt 0 view .LVU479
	bl	XMC_SCU_RESET_AssertPeripheralReset
.LVL115:
	.loc 1 625 3 is_stmt 1 view .LVU480
	movs	r0, #4
	bl	XMC_SCU_CLOCK_DisableClock
.LVL116:
	.loc 1 626 1 is_stmt 0 view .LVU481
	pop	{r3, pc}
.L80:
	.align	2
.L79:
	.word	536870916
	.cfi_endproc
.LFE265:
	.size	XMC_ETH_MAC_Disable, .-XMC_ETH_MAC_Disable
	.section	.text.XMC_ETH_MAC_ReadPhy,"ax",%progbits
	.align	1
	.global	XMC_ETH_MAC_ReadPhy
	.syntax unified
	.thumb
	.thumb_func
	.fpu fpv4-sp-d16
	.type	XMC_ETH_MAC_ReadPhy, %function
XMC_ETH_MAC_ReadPhy:
.LVL117:
.LFB266:
	.loc 1 630 1 is_stmt 1 view -0
	.cfi_startproc
	@ args = 0, pretend = 0, frame = 0
	@ frame_needed = 0, uses_anonymous_args = 0
	@ link register save eliminated.
	.loc 1 630 1 is_stmt 0 view .LVU483
	push	{r4, r5}
	.cfi_def_cfa_offset 8
	.cfi_offset 4, -8
	.cfi_offset 5, -4
	.loc 1 631 3 is_stmt 1 view .LVU484
	.loc 1 633 3 view .LVU485
	.loc 1 635 3 view .LVU486
	.loc 1 635 52 is_stmt 0 view .LVU487
	ldr	r5, [r0]
	.loc 1 635 58 view .LVU488
	ldr	r4, [r5, #16]
	.loc 1 635 73 view .LVU489
	and	r4, r4, #60
	.loc 1 636 51 view .LVU490
	orr	r4, r4, r1, lsl #11
	.loc 1 635 33 view .LVU491
	orr	r4, r4, r2, lsl #6
	orr	r4, r4, #1
	.loc 1 635 31 view .LVU492
	str	r4, [r5, #16]
	.loc 1 641 3 is_stmt 1 view .LVU493
.LVL118:
	.loc 1 641 11 is_stmt 0 view .LVU494
	movs	r2, #0
.LVL119:
.L84:
	.loc 1 642 3 is_stmt 1 view .LVU495
	.loc 1 644 5 view .LVU496
	.loc 1 644 17 is_stmt 0 view .LVU497
	ldr	r1, [r0]
	.loc 1 644 23 view .LVU498
	ldr	r4, [r1, #16]
	.loc 1 644 8 view .LVU499
	tst	r4, #1
	beq	.L86
	.loc 1 649 5 is_stmt 1 view .LVU500
	adds	r2, r2, #1
.LVL120:
	.loc 1 651 9 view .LVU501
	.loc 1 651 3 is_stmt 0 view .LVU502
	movw	r1, #65534
	cmp	r2, r1
	bls	.L84
	.loc 1 653 10 view .LVU503
	movs	r0, #2
.LVL121:
	.loc 1 653 10 view .LVU504
	b	.L83
.LVL122:
.L86:
	.loc 1 646 7 is_stmt 1 view .LVU505
	.loc 1 646 39 is_stmt 0 view .LVU506
	ldr	r2, [r1, #20]
.LVL123:
	.loc 1 646 13 view .LVU507
	strh	r2, [r3]	@ movhi
	.loc 1 647 7 is_stmt 1 view .LVU508
	.loc 1 647 14 is_stmt 0 view .LVU509
	movs	r0, #0
.LVL124:
.L83:
	.loc 1 654 1 view .LVU510
	pop	{r4, r5}
	.cfi_restore 5
	.cfi_restore 4
	.cfi_def_cfa_offset 0
	bx	lr
	.cfi_endproc
.LFE266:
	.size	XMC_ETH_MAC_ReadPhy, .-XMC_ETH_MAC_ReadPhy
	.section	.text.XMC_ETH_MAC_WritePhy,"ax",%progbits
	.align	1
	.global	XMC_ETH_MAC_WritePhy
	.syntax unified
	.thumb
	.thumb_func
	.fpu fpv4-sp-d16
	.type	XMC_ETH_MAC_WritePhy, %function
XMC_ETH_MAC_WritePhy:
.LVL125:
.LFB267:
	.loc 1 658 1 is_stmt 1 view -0
	.cfi_startproc
	@ args = 0, pretend = 0, frame = 0
	@ frame_needed = 0, uses_anonymous_args = 0
	@ link register save eliminated.
	.loc 1 658 1 is_stmt 0 view .LVU512
	push	{r4}
	.cfi_def_cfa_offset 4
	.cfi_offset 4, -4
	.loc 1 659 3 is_stmt 1 view .LVU513
	.loc 1 661 3 view .LVU514
	.loc 1 661 10 is_stmt 0 view .LVU515
	ldr	r4, [r0]
	.loc 1 661 28 view .LVU516
	str	r3, [r4, #20]
	.loc 1 662 3 is_stmt 1 view .LVU517
	.loc 1 662 52 is_stmt 0 view .LVU518
	ldr	r4, [r0]
	.loc 1 662 58 view .LVU519
	ldr	r3, [r4, #16]
.LVL126:
	.loc 1 662 73 view .LVU520
	and	r3, r3, #60
	.loc 1 664 51 view .LVU521
	orr	r3, r3, r1, lsl #11
	.loc 1 662 33 view .LVU522
	orr	r3, r3, r2, lsl #6
	orr	r3, r3, #3
	.loc 1 662 31 view .LVU523
	str	r3, [r4, #16]
	.loc 1 669 3 is_stmt 1 view .LVU524
.LVL127:
	.loc 1 669 11 is_stmt 0 view .LVU525
	movs	r3, #0
.LVL128:
.L89:
	.loc 1 670 3 is_stmt 1 view .LVU526
	.loc 1 672 5 view .LVU527
	.loc 1 672 17 is_stmt 0 view .LVU528
	ldr	r2, [r0]
	.loc 1 672 23 view .LVU529
	ldr	r2, [r2, #16]
	.loc 1 672 8 view .LVU530
	tst	r2, #1
	beq	.L90
	.loc 1 676 5 is_stmt 1 view .LVU531
	adds	r3, r3, #1
.LVL129:
	.loc 1 678 9 view .LVU532
	.loc 1 678 3 is_stmt 0 view .LVU533
	movw	r2, #65534
	cmp	r3, r2
	bls	.L89
	.loc 1 680 10 view .LVU534
	movs	r0, #2
.LVL130:
	.loc 1 680 10 view .LVU535
	b	.L88
.LVL131:
.L90:
	.loc 1 674 14 view .LVU536
	movs	r0, #0
.LVL132:
.L88:
	.loc 1 681 1 view .LVU537
	ldr	r4, [sp], #4
	.cfi_restore 4
	.cfi_def_cfa_offset 0
	bx	lr
	.cfi_endproc
.LFE267:
	.size	XMC_ETH_MAC_WritePhy, .-XMC_ETH_MAC_WritePhy
	.section	.text.XMC_ETH_MAC_FlushTx,"ax",%progbits
	.align	1
	.global	XMC_ETH_MAC_FlushTx
	.syntax unified
	.thumb
	.thumb_func
	.fpu fpv4-sp-d16
	.type	XMC_ETH_MAC_FlushTx, %function
XMC_ETH_MAC_FlushTx:
.LVL133:
.LFB268:
	.loc 1 685 1 is_stmt 1 view -0
	.cfi_startproc
	@ args = 0, pretend = 0, frame = 0
	@ frame_needed = 0, uses_anonymous_args = 0
	.loc 1 685 1 is_stmt 0 view .LVU539
	push	{r3, r4, r5, lr}
	.cfi_def_cfa_offset 16
	.cfi_offset 3, -16
	.cfi_offset 4, -12
	.cfi_offset 5, -8
	.cfi_offset 14, -4
	mov	r5, r0
	.loc 1 686 3 is_stmt 1 view .LVU540
	.loc 1 686 10 is_stmt 0 view .LVU541
	ldr	r2, [r0]
	.loc 1 686 33 view .LVU542
	movw	r4, #4120
	ldr	r3, [r2, r4]
	bic	r3, r3, #8192
	str	r3, [r2, r4]
	.loc 1 687 3 is_stmt 1 view .LVU543
	bl	XMC_ETH_MAC_InitTxDescriptors
.LVL134:
	.loc 1 688 3 view .LVU544
	.loc 1 688 10 is_stmt 0 view .LVU545
	ldr	r2, [r5]
	.loc 1 688 33 view .LVU546
	ldr	r3, [r2, r4]
	orr	r3, r3, #8192
	str	r3, [r2, r4]
	.loc 1 689 1 view .LVU547
	pop	{r3, r4, r5, pc}
	.loc 1 689 1 view .LVU548
	.cfi_endproc
.LFE268:
	.size	XMC_ETH_MAC_FlushTx, .-XMC_ETH_MAC_FlushTx
	.section	.text.XMC_ETH_MAC_FlushRx,"ax",%progbits
	.align	1
	.global	XMC_ETH_MAC_FlushRx
	.syntax unified
	.thumb
	.thumb_func
	.fpu fpv4-sp-d16
	.type	XMC_ETH_MAC_FlushRx, %function
XMC_ETH_MAC_FlushRx:
.LVL135:
.LFB269:
	.loc 1 693 1 is_stmt 1 view -0
	.cfi_startproc
	@ args = 0, pretend = 0, frame = 0
	@ frame_needed = 0, uses_anonymous_args = 0
	.loc 1 693 1 is_stmt 0 view .LVU550
	push	{r3, r4, r5, lr}
	.cfi_def_cfa_offset 16
	.cfi_offset 3, -16
	.cfi_offset 4, -12
	.cfi_offset 5, -8
	.cfi_offset 14, -4
	mov	r5, r0
	.loc 1 694 3 is_stmt 1 view .LVU551
	.loc 1 694 10 is_stmt 0 view .LVU552
	ldr	r2, [r0]
	.loc 1 694 33 view .LVU553
	movw	r4, #4120
	ldr	r3, [r2, r4]
	bic	r3, r3, #2
	str	r3, [r2, r4]
	.loc 1 695 3 is_stmt 1 view .LVU554
	bl	XMC_ETH_MAC_InitRxDescriptors
.LVL136:
	.loc 1 696 3 view .LVU555
	.loc 1 696 10 is_stmt 0 view .LVU556
	ldr	r2, [r5]
	.loc 1 696 33 view .LVU557
	ldr	r3, [r2, r4]
	orr	r3, r3, #2
	str	r3, [r2, r4]
	.loc 1 697 1 view .LVU558
	pop	{r3, r4, r5, pc}
	.loc 1 697 1 view .LVU559
	.cfi_endproc
.LFE269:
	.size	XMC_ETH_MAC_FlushRx, .-XMC_ETH_MAC_FlushRx
	.section	.text.XMC_ETH_MAC_SetWakeUpFrameFilter,"ax",%progbits
	.align	1
	.global	XMC_ETH_MAC_SetWakeUpFrameFilter
	.syntax unified
	.thumb
	.thumb_func
	.fpu fpv4-sp-d16
	.type	XMC_ETH_MAC_SetWakeUpFrameFilter, %function
XMC_ETH_MAC_SetWakeUpFrameFilter:
.LVL137:
.LFB270:
	.loc 1 702 1 is_stmt 1 view -0
	.cfi_startproc
	@ args = 0, pretend = 0, frame = 0
	@ frame_needed = 0, uses_anonymous_args = 0
	@ link register save eliminated.
	.loc 1 703 3 view .LVU561
	.loc 1 706 3 view .LVU562
	.loc 1 706 10 is_stmt 0 view .LVU563
	movs	r3, #0
.LVL138:
	.loc 1 706 16 is_stmt 1 view .LVU564
	.loc 1 706 3 is_stmt 0 view .LVU565
	cmp	r3, #7
	bhi	.L102
	.loc 1 702 1 view .LVU566
	push	{r4}
	.cfi_def_cfa_offset 4
	.cfi_offset 4, -4
.L98:
	.loc 1 709 5 is_stmt 1 discriminator 3 view .LVU567
	.loc 1 709 12 is_stmt 0 discriminator 3 view .LVU568
	ldr	r2, [r0]
	.loc 1 709 59 discriminator 3 view .LVU569
	ldr	r4, [r1, r3, lsl #2]
	.loc 1 709 48 discriminator 3 view .LVU570
	str	r4, [r2, #40]
	.loc 1 706 26 is_stmt 1 discriminator 3 view .LVU571
	.loc 1 706 27 is_stmt 0 discriminator 3 view .LVU572
	adds	r3, r3, #1
.LVL139:
	.loc 1 706 16 is_stmt 1 discriminator 3 view .LVU573
	.loc 1 706 3 is_stmt 0 discriminator 3 view .LVU574
	cmp	r3, #7
	bls	.L98
	.loc 1 711 1 view .LVU575
	ldr	r4, [sp], #4
	.cfi_restore 4
	.cfi_def_cfa_offset 0
	bx	lr
.L102:
	.loc 1 711 1 view .LVU576
	bx	lr
	.cfi_endproc
.LFE270:
	.size	XMC_ETH_MAC_SetWakeUpFrameFilter, .-XMC_ETH_MAC_SetWakeUpFrameFilter
	.section	.text.XMC_ETH_MAC_EnableEvent,"ax",%progbits
	.align	1
	.global	XMC_ETH_MAC_EnableEvent
	.syntax unified
	.thumb
	.thumb_func
	.fpu fpv4-sp-d16
	.type	XMC_ETH_MAC_EnableEvent, %function
XMC_ETH_MAC_EnableEvent:
.LVL140:
.LFB271:
	.loc 1 715 1 is_stmt 1 view -0
	.cfi_startproc
	@ args = 0, pretend = 0, frame = 0
	@ frame_needed = 0, uses_anonymous_args = 0
	@ link register save eliminated.
	.loc 1 716 3 view .LVU578
	.loc 1 718 3 view .LVU579
	.loc 1 718 10 is_stmt 0 view .LVU580
	ldr	r2, [r0]
	.loc 1 718 33 view .LVU581
	ldr	r3, [r2, #60]
	bic	r3, r3, r1, lsr #16
	str	r3, [r2, #60]
	.loc 1 720 3 is_stmt 1 view .LVU582
	.loc 1 720 9 is_stmt 0 view .LVU583
	ubfx	r3, r1, #0, #15
.LVL141:
	.loc 1 721 3 is_stmt 1 view .LVU584
.LBB37:
.LBI37:
	.loc 1 201 21 view .LVU585
.LBB38:
	.loc 1 203 3 view .LVU586
	.loc 1 203 3 is_stmt 0 view .LVU587
.LBE38:
.LBE37:
	.loc 1 721 6 view .LVU588
	movw	r2, #16453
	tst	r1, r2
	beq	.L104
	.loc 1 723 5 is_stmt 1 view .LVU589
	.loc 1 723 11 is_stmt 0 view .LVU590
	orr	r3, r3, #65536
.LVL142:
.L104:
	.loc 1 726 3 is_stmt 1 view .LVU591
.LBB39:
.LBI39:
	.loc 1 210 21 view .LVU592
.LBB40:
	.loc 1 212 3 view .LVU593
	.loc 1 212 3 is_stmt 0 view .LVU594
.LBE40:
.LBE39:
	.loc 1 726 6 view .LVU595
	movw	r2, #10170
	tst	r3, r2
	beq	.L105
	.loc 1 728 5 is_stmt 1 view .LVU596
	.loc 1 728 11 is_stmt 0 view .LVU597
	orr	r3, r3, #32768
.LVL143:
.L105:
	.loc 1 731 3 is_stmt 1 view .LVU598
	.loc 1 731 10 is_stmt 0 view .LVU599
	ldr	r0, [r0]
.LVL144:
	.loc 1 731 35 view .LVU600
	movw	r1, #4124
	ldr	r2, [r0, r1]
	orrs	r3, r3, r2
.LVL145:
	.loc 1 731 35 view .LVU601
	str	r3, [r0, r1]
	.loc 1 732 1 view .LVU602
	bx	lr
	.cfi_endproc
.LFE271:
	.size	XMC_ETH_MAC_EnableEvent, .-XMC_ETH_MAC_EnableEvent
	.section	.text.XMC_ETH_MAC_DisableEvent,"ax",%progbits
	.align	1
	.global	XMC_ETH_MAC_DisableEvent
	.syntax unified
	.thumb
	.thumb_func
	.fpu fpv4-sp-d16
	.type	XMC_ETH_MAC_DisableEvent, %function
XMC_ETH_MAC_DisableEvent:
.LVL146:
.LFB272:
	.loc 1 736 1 is_stmt 1 view -0
	.cfi_startproc
	@ args = 0, pretend = 0, frame = 0
	@ frame_needed = 0, uses_anonymous_args = 0
	@ link register save eliminated.
	.loc 1 737 3 view .LVU604
	.loc 1 739 3 view .LVU605
	.loc 1 739 10 is_stmt 0 view .LVU606
	ldr	r2, [r0]
	.loc 1 739 33 view .LVU607
	ldr	r3, [r2, #60]
	orr	r3, r3, r1, lsr #16
	str	r3, [r2, #60]
	.loc 1 741 3 is_stmt 1 view .LVU608
	.loc 1 741 9 is_stmt 0 view .LVU609
	ubfx	r1, r1, #0, #15
.LVL147:
	.loc 1 742 3 is_stmt 1 view .LVU610
	.loc 1 742 10 is_stmt 0 view .LVU611
	ldr	r0, [r0]
.LVL148:
	.loc 1 742 35 view .LVU612
	movw	r2, #4124
	ldr	r3, [r0, r2]
	bic	r1, r3, r1
.LVL149:
	.loc 1 742 35 view .LVU613
	str	r1, [r0, r2]
	.loc 1 743 1 view .LVU614
	bx	lr
	.cfi_endproc
.LFE272:
	.size	XMC_ETH_MAC_DisableEvent, .-XMC_ETH_MAC_DisableEvent
	.section	.text.XMC_ETH_MAC_ClearEventStatus,"ax",%progbits
	.align	1
	.global	XMC_ETH_MAC_ClearEventStatus
	.syntax unified
	.thumb
	.thumb_func
	.fpu fpv4-sp-d16
	.type	XMC_ETH_MAC_ClearEventStatus, %function
XMC_ETH_MAC_ClearEventStatus:
.LVL150:
.LFB273:
	.loc 1 747 1 is_stmt 1 view -0
	.cfi_startproc
	@ args = 0, pretend = 0, frame = 0
	@ frame_needed = 0, uses_anonymous_args = 0
	@ link register save eliminated.
	.loc 1 748 3 view .LVU616
	.loc 1 750 3 view .LVU617
	.loc 1 750 15 is_stmt 0 view .LVU618
	ldr	r3, [r0]
	.loc 1 750 21 view .LVU619
	movw	r2, #4116
	ldr	r2, [r3, r2]
	.loc 1 750 6 view .LVU620
	tst	r2, #65536
	beq	.L108
	.loc 1 752 5 is_stmt 1 view .LVU621
	.loc 1 752 11 is_stmt 0 view .LVU622
	orr	r1, r1, #65536
.LVL151:
.L108:
	.loc 1 755 3 is_stmt 1 view .LVU623
	.loc 1 755 21 is_stmt 0 view .LVU624
	movw	r2, #4116
	ldr	r2, [r3, r2]
	.loc 1 755 6 view .LVU625
	tst	r2, #32768
	beq	.L109
	.loc 1 757 5 is_stmt 1 view .LVU626
	.loc 1 757 11 is_stmt 0 view .LVU627
	orr	r1, r1, #32768
.LVL152:
.L109:
	.loc 1 760 3 is_stmt 1 view .LVU628
	.loc 1 760 33 is_stmt 0 view .LVU629
	ubfx	r1, r1, #0, #17
.LVL153:
	.loc 1 760 25 view .LVU630
	movw	r2, #4116
	str	r1, [r3, r2]
	.loc 1 761 1 view .LVU631
	bx	lr
	.cfi_endproc
.LFE273:
	.size	XMC_ETH_MAC_ClearEventStatus, .-XMC_ETH_MAC_ClearEventStatus
	.section	.text.XMC_ETH_MAC_GetEventStatus,"ax",%progbits
	.align	1
	.global	XMC_ETH_MAC_GetEventStatus
	.syntax unified
	.thumb
	.thumb_func
	.fpu fpv4-sp-d16
	.type	XMC_ETH_MAC_GetEventStatus, %function
XMC_ETH_MAC_GetEventStatus:
.LVL154:
.LFB274:
	.loc 1 765 1 is_stmt 1 view -0
	.cfi_startproc
	@ args = 0, pretend = 0, frame = 0
	@ frame_needed = 0, uses_anonymous_args = 0
	@ link register save eliminated.
	.loc 1 766 3 view .LVU633
	.loc 1 767 3 view .LVU634
	.loc 1 769 3 view .LVU635
	.loc 1 769 25 is_stmt 0 view .LVU636
	ldr	r3, [r0]
	.loc 1 769 31 view .LVU637
	movw	r2, #4116
	ldr	r0, [r3, r2]
.LVL155:
	.loc 1 769 15 view .LVU638
	ubfx	r0, r0, #0, #11
.LVL156:
	.loc 1 771 3 is_stmt 1 view .LVU639
	.loc 1 771 36 is_stmt 0 view .LVU640
	ldr	r3, [r3, #56]
	.loc 1 771 80 view .LVU641
	lsls	r3, r3, #16
	.loc 1 771 11 view .LVU642
	and	r3, r3, #34078720
	.loc 1 773 1 view .LVU643
	orrs	r0, r0, r3
.LVL157:
	.loc 1 773 1 view .LVU644
	bx	lr
	.cfi_endproc
.LFE274:
	.size	XMC_ETH_MAC_GetEventStatus, .-XMC_ETH_MAC_GetEventStatus
	.section	.text.XMC_ETH_MAC_ReturnRxDescriptor,"ax",%progbits
	.align	1
	.global	XMC_ETH_MAC_ReturnRxDescriptor
	.syntax unified
	.thumb
	.thumb_func
	.fpu fpv4-sp-d16
	.type	XMC_ETH_MAC_ReturnRxDescriptor, %function
XMC_ETH_MAC_ReturnRxDescriptor:
.LVL158:
.LFB275:
	.loc 1 777 1 is_stmt 1 view -0
	.cfi_startproc
	@ args = 0, pretend = 0, frame = 0
	@ frame_needed = 0, uses_anonymous_args = 0
	@ link register save eliminated.
	.loc 1 778 3 view .LVU646
	.loc 1 778 10 is_stmt 0 view .LVU647
	ldr	r1, [r0, #16]
	.loc 1 778 27 view .LVU648
	ldrb	r3, [r0, #39]	@ zero_extendqisi2
	.loc 1 778 46 view .LVU649
	lsls	r3, r3, #5
	ldr	r2, [r1, r3]
	orr	r2, r2, #-2147483648
	str	r2, [r1, r3]
	.loc 1 779 3 is_stmt 1 view .LVU650
	.loc 1 779 10 is_stmt 0 view .LVU651
	ldrb	r3, [r0, #39]	@ zero_extendqisi2
	.loc 1 779 20 view .LVU652
	adds	r3, r3, #1
	uxtb	r3, r3
	strb	r3, [r0, #39]
	.loc 1 780 3 is_stmt 1 view .LVU653
	.loc 1 780 35 is_stmt 0 view .LVU654
	ldrb	r2, [r0, #36]	@ zero_extendqisi2
	.loc 1 780 6 view .LVU655
	cmp	r3, r2
	beq	.L113
.L111:
	.loc 1 784 1 view .LVU656
	bx	lr
.L113:
	.loc 1 782 5 is_stmt 1 view .LVU657
	.loc 1 782 23 is_stmt 0 view .LVU658
	movs	r3, #0
	strb	r3, [r0, #39]
	.loc 1 784 1 view .LVU659
	b	.L111
	.cfi_endproc
.LFE275:
	.size	XMC_ETH_MAC_ReturnRxDescriptor, .-XMC_ETH_MAC_ReturnRxDescriptor
	.section	.text.XMC_ETH_MAC_ReturnTxDescriptor,"ax",%progbits
	.align	1
	.global	XMC_ETH_MAC_ReturnTxDescriptor
	.syntax unified
	.thumb
	.thumb_func
	.fpu fpv4-sp-d16
	.type	XMC_ETH_MAC_ReturnTxDescriptor, %function
XMC_ETH_MAC_ReturnTxDescriptor:
.LVL159:
.LFB276:
	.loc 1 788 1 is_stmt 1 view -0
	.cfi_startproc
	@ args = 0, pretend = 0, frame = 0
	@ frame_needed = 0, uses_anonymous_args = 0
	@ link register save eliminated.
	.loc 1 789 3 view .LVU661
	.loc 1 789 33 is_stmt 0 view .LVU662
	ldrb	r3, [r0, #38]	@ zero_extendqisi2
	.loc 1 789 24 view .LVU663
	strb	r3, [r0, #40]
	.loc 1 791 3 is_stmt 1 view .LVU664
	.loc 1 791 10 is_stmt 0 view .LVU665
	ldr	r1, [r0, #20]
	.loc 1 791 46 view .LVU666
	lsls	r3, r3, #5
	ldr	r2, [r1, r3]
	orr	r2, r2, #-2147483648
	orr	r2, r2, #12582912
	str	r2, [r1, r3]
	.loc 1 792 3 is_stmt 1 view .LVU667
	.loc 1 792 10 is_stmt 0 view .LVU668
	ldrb	r3, [r0, #38]	@ zero_extendqisi2
	.loc 1 792 20 view .LVU669
	adds	r3, r3, #1
	uxtb	r3, r3
	strb	r3, [r0, #38]
	.loc 1 793 3 is_stmt 1 view .LVU670
	.loc 1 793 35 is_stmt 0 view .LVU671
	ldrb	r2, [r0, #37]	@ zero_extendqisi2
	.loc 1 793 6 view .LVU672
	cmp	r3, r2
	beq	.L116
.L115:
	.loc 1 798 3 is_stmt 1 view .LVU673
	.loc 1 798 22 is_stmt 0 view .LVU674
	movs	r3, #0
	str	r3, [r0, #32]
	.loc 1 799 1 view .LVU675
	bx	lr
.L116:
	.loc 1 795 5 is_stmt 1 view .LVU676
	.loc 1 795 23 is_stmt 0 view .LVU677
	movs	r3, #0
	strb	r3, [r0, #38]
	b	.L115
	.cfi_endproc
.LFE276:
	.size	XMC_ETH_MAC_ReturnTxDescriptor, .-XMC_ETH_MAC_ReturnTxDescriptor
	.section	.text.XMC_ETH_MAC_SetVLANTag,"ax",%progbits
	.align	1
	.global	XMC_ETH_MAC_SetVLANTag
	.syntax unified
	.thumb
	.thumb_func
	.fpu fpv4-sp-d16
	.type	XMC_ETH_MAC_SetVLANTag, %function
XMC_ETH_MAC_SetVLANTag:
.LVL160:
.LFB277:
	.loc 1 803 1 is_stmt 1 view -0
	.cfi_startproc
	@ args = 0, pretend = 0, frame = 0
	@ frame_needed = 0, uses_anonymous_args = 0
	@ link register save eliminated.
	.loc 1 804 3 view .LVU679
	.loc 1 806 3 view .LVU680
	.loc 1 806 10 is_stmt 0 view .LVU681
	ldr	r3, [r0]
	.loc 1 806 27 view .LVU682
	str	r1, [r3, #28]
	.loc 1 807 1 view .LVU683
	bx	lr
	.cfi_endproc
.LFE277:
	.size	XMC_ETH_MAC_SetVLANTag, .-XMC_ETH_MAC_SetVLANTag
	.section	.text.XMC_ETH_MAC_InitPTP,"ax",%progbits
	.align	1
	.global	XMC_ETH_MAC_InitPTP
	.syntax unified
	.thumb
	.thumb_func
	.fpu fpv4-sp-d16
	.type	XMC_ETH_MAC_InitPTP, %function
XMC_ETH_MAC_InitPTP:
.LVL161:
.LFB278:
	.loc 1 811 1 is_stmt 1 view -0
	.cfi_startproc
	@ args = 0, pretend = 0, frame = 0
	@ frame_needed = 0, uses_anonymous_args = 0
	@ link register save eliminated.
	.loc 1 812 3 view .LVU685
	.loc 1 815 3 view .LVU686
	.loc 1 815 10 is_stmt 0 view .LVU687
	ldr	r2, [r0]
	.loc 1 815 33 view .LVU688
	ldr	r3, [r2, #60]
	orr	r3, r3, #512
	str	r3, [r2, #60]
	.loc 1 818 3 is_stmt 1 view .LVU689
	.loc 1 818 10 is_stmt 0 view .LVU690
	ldr	r2, [r0]
	.loc 1 818 58 view .LVU691
	orr	r3, r1, #512
	orr	r3, r3, #1
	.loc 1 818 36 view .LVU692
	str	r3, [r2, #1792]
	.loc 1 820 3 is_stmt 1 view .LVU693
	.loc 1 820 6 is_stmt 0 view .LVU694
	tst	r1, #2
	beq	.L119
.LBB41:
	.loc 1 823 5 is_stmt 1 view .LVU695
	.loc 1 823 12 is_stmt 0 view .LVU696
	ldr	r3, [r0]
	.loc 1 823 41 view .LVU697
	movs	r2, #20
	str	r2, [r3, #1796]
	.loc 1 826 5 is_stmt 1 view .LVU698
.LBB42:
.LBI42:
	.loc 4 2576 24 view .LVU699
.LBB43:
	.loc 4 2578 3 view .LVU700
	.loc 4 2578 65 is_stmt 0 view .LVU701
	ldr	r3, .L123
	ldr	r2, [r3, #16]
	.loc 4 2578 87 view .LVU702
	and	r2, r2, #1
	.loc 4 2578 26 view .LVU703
	ldr	r3, .L123+4
	ldr	r3, [r3]
	lsls	r3, r3, r2
.LBE43:
.LBE42:
	.loc 1 826 19 view .LVU704
	vmov	s15, r3	@ int
	vcvt.f32.u32	s15, s15
	.loc 1 826 11 view .LVU705
	vldr.32	s13, .L123+8
	vdiv.f32	s14, s15, s13
.LVL162:
	.loc 1 827 5 is_stmt 1 view .LVU706
	.loc 1 827 73 is_stmt 0 view .LVU707
	vldr.32	s13, .L123+12
	vdiv.f32	s15, s13, s14
	.loc 1 827 82 view .LVU708
	vmov.f32	s14, #5.0e-1
.LVL163:
	.loc 1 827 82 view .LVU709
	vadd.f32	s15, s15, s14
	.loc 1 827 12 view .LVU710
	ldr	r3, [r0]
.LVL164:
	.loc 1 827 39 view .LVU711
	vcvt.u32.f32	s15, s15
	.loc 1 827 37 view .LVU712
	vmov	r2, s15	@ int
.LVL165:
	.loc 1 827 37 view .LVU713
	str	r2, [r3, #1816]
	.loc 1 830 5 is_stmt 1 view .LVU714
	.loc 1 830 12 is_stmt 0 view .LVU715
	ldr	r2, [r0]
	.loc 1 830 38 view .LVU716
	ldr	r3, [r2, #1792]
	orr	r3, r3, #32
	str	r3, [r2, #1792]
	.loc 1 833 5 is_stmt 1 view .LVU717
.L120:
	.loc 1 833 56 discriminator 1 view .LVU718
	.loc 1 833 11 discriminator 1 view .LVU719
	.loc 1 833 19 is_stmt 0 discriminator 1 view .LVU720
	ldr	r3, [r0]
	.loc 1 833 25 discriminator 1 view .LVU721
	ldr	r3, [r3, #1792]
	.loc 1 833 11 discriminator 1 view .LVU722
	tst	r3, #32
	bne	.L120
.L121:
	.loc 1 833 11 discriminator 1 view .LVU723
.LBE41:
	.loc 1 841 3 is_stmt 1 view .LVU724
	.loc 1 841 10 is_stmt 0 view .LVU725
	ldr	r2, [r0]
	.loc 1 841 36 view .LVU726
	ldr	r3, [r2, #1792]
	orr	r3, r3, #4
	str	r3, [r2, #1792]
	.loc 1 842 3 is_stmt 1 view .LVU727
.L122:
	.loc 1 842 53 discriminator 1 view .LVU728
	.loc 1 842 9 discriminator 1 view .LVU729
	.loc 1 842 17 is_stmt 0 discriminator 1 view .LVU730
	ldr	r3, [r0]
	.loc 1 842 23 discriminator 1 view .LVU731
	ldr	r3, [r3, #1792]
	.loc 1 842 9 discriminator 1 view .LVU732
	tst	r3, #4
	bne	.L122
	.loc 1 843 1 view .LVU733
	bx	lr
.L119:
	.loc 1 838 5 is_stmt 1 view .LVU734
.LBB44:
.LBI44:
	.loc 4 2576 24 view .LVU735
.LBB45:
	.loc 4 2578 3 view .LVU736
	.loc 4 2578 65 is_stmt 0 view .LVU737
	ldr	r3, .L123
	ldr	r2, [r3, #16]
	.loc 4 2578 87 view .LVU738
	and	r2, r2, #1
	.loc 4 2578 26 view .LVU739
	ldr	r3, .L123+4
	ldr	r3, [r3]
	lsls	r3, r3, r2
.LBE45:
.LBE44:
	.loc 1 838 75 view .LVU740
	vmov	s15, r3	@ int
	vcvt.f32.u32	s14, s15
	.loc 1 838 73 view .LVU741
	vldr.32	s13, .L123+16
	vdiv.f32	s15, s13, s14
	.loc 1 838 123 view .LVU742
	vmov.f32	s14, #5.0e-1
	vadd.f32	s15, s15, s14
	.loc 1 838 12 view .LVU743
	ldr	r3, [r0]
	.loc 1 838 43 view .LVU744
	vcvt.u32.f32	s15, s15
	.loc 1 838 41 view .LVU745
	vmov	r2, s15	@ int
	str	r2, [r3, #1796]
	b	.L121
.L124:
	.align	2
.L123:
	.word	1342195200
	.word	SystemCoreClock
	.word	1279179808
	.word	1333788672
	.word	1315859240
	.cfi_endproc
.LFE278:
	.size	XMC_ETH_MAC_InitPTP, .-XMC_ETH_MAC_InitPTP
	.section	.text.XMC_ETH_MAC_InitPTPEx,"ax",%progbits
	.align	1
	.global	XMC_ETH_MAC_InitPTPEx
	.syntax unified
	.thumb
	.thumb_func
	.fpu fpv4-sp-d16
	.type	XMC_ETH_MAC_InitPTPEx, %function
XMC_ETH_MAC_InitPTPEx:
.LVL166:
.LFB279:
	.loc 1 847 1 is_stmt 1 view -0
	.cfi_startproc
	@ args = 0, pretend = 0, frame = 0
	@ frame_needed = 0, uses_anonymous_args = 0
	.loc 1 847 1 is_stmt 0 view .LVU747
	push	{r3, r4, r5, lr}
	.cfi_def_cfa_offset 16
	.cfi_offset 3, -16
	.cfi_offset 4, -12
	.cfi_offset 5, -8
	.cfi_offset 14, -4
	.loc 1 848 3 is_stmt 1 view .LVU748
	.loc 1 851 3 view .LVU749
	.loc 1 851 10 is_stmt 0 view .LVU750
	ldr	r4, [r0]
	.loc 1 851 55 view .LVU751
	ldr	r5, [r2, #4]
	.loc 1 851 49 view .LVU752
	str	r5, [r4, #1812]
	.loc 1 852 3 is_stmt 1 view .LVU753
	.loc 1 852 10 is_stmt 0 view .LVU754
	ldr	r3, [r0]
	.loc 1 852 51 view .LVU755
	ldr	r2, [r2]
.LVL167:
	.loc 1 852 45 view .LVU756
	str	r2, [r3, #1808]
	.loc 1 854 3 is_stmt 1 view .LVU757
	bl	XMC_ETH_MAC_InitPTP
.LVL168:
	.loc 1 855 1 is_stmt 0 view .LVU758
	pop	{r3, r4, r5, pc}
	.cfi_endproc
.LFE279:
	.size	XMC_ETH_MAC_InitPTPEx, .-XMC_ETH_MAC_InitPTPEx
	.section	.text.XMC_ETH_MAC_GetPTPTime,"ax",%progbits
	.align	1
	.global	XMC_ETH_MAC_GetPTPTime
	.syntax unified
	.thumb
	.thumb_func
	.fpu fpv4-sp-d16
	.type	XMC_ETH_MAC_GetPTPTime, %function
XMC_ETH_MAC_GetPTPTime:
.LVL169:
.LFB280:
	.loc 1 859 1 is_stmt 1 view -0
	.cfi_startproc
	@ args = 0, pretend = 0, frame = 0
	@ frame_needed = 0, uses_anonymous_args = 0
	@ link register save eliminated.
	.loc 1 860 3 view .LVU760
	.loc 1 862 3 view .LVU761
	.loc 1 862 41 is_stmt 0 view .LVU762
	ldr	r3, [r0]
	.loc 1 862 47 view .LVU763
	ldr	r3, [r3, #1804]
	.loc 1 862 21 view .LVU764
	str	r3, [r1, #4]
	.loc 1 863 3 is_stmt 1 view .LVU765
	.loc 1 863 26 is_stmt 0 view .LVU766
	ldr	r3, [r0]
	.loc 1 863 32 view .LVU767
	ldr	r3, [r3, #1800]
	.loc 1 863 17 view .LVU768
	str	r3, [r1]
	.loc 1 864 1 view .LVU769
	bx	lr
	.cfi_endproc
.LFE280:
	.size	XMC_ETH_MAC_GetPTPTime, .-XMC_ETH_MAC_GetPTPTime
	.section	.text.XMC_ETH_MAC_SetPTPTime,"ax",%progbits
	.align	1
	.global	XMC_ETH_MAC_SetPTPTime
	.syntax unified
	.thumb
	.thumb_func
	.fpu fpv4-sp-d16
	.type	XMC_ETH_MAC_SetPTPTime, %function
XMC_ETH_MAC_SetPTPTime:
.LVL170:
.LFB281:
	.loc 1 868 1 is_stmt 1 view -0
	.cfi_startproc
	@ args = 0, pretend = 0, frame = 0
	@ frame_needed = 0, uses_anonymous_args = 0
	@ link register save eliminated.
	.loc 1 869 3 view .LVU771
	.loc 1 871 3 view .LVU772
	.loc 1 871 10 is_stmt 0 view .LVU773
	ldr	r3, [r0]
	.loc 1 871 51 view .LVU774
	ldr	r2, [r1]
	.loc 1 871 45 view .LVU775
	str	r2, [r3, #1808]
	.loc 1 872 3 is_stmt 1 view .LVU776
	.loc 1 872 10 is_stmt 0 view .LVU777
	ldr	r3, [r0]
	.loc 1 872 55 view .LVU778
	ldr	r2, [r1, #4]
	.loc 1 872 49 view .LVU779
	str	r2, [r3, #1812]
	.loc 1 875 3 is_stmt 1 view .LVU780
	.loc 1 875 60 is_stmt 0 view .LVU781
	ldr	r2, .L130
	ldr	r3, [r2, #1792]
	orr	r3, r3, #4
	str	r3, [r2, #1792]
	.loc 1 876 3 is_stmt 1 view .LVU782
.L129:
	.loc 1 876 53 discriminator 1 view .LVU783
	.loc 1 876 9 discriminator 1 view .LVU784
	.loc 1 876 17 is_stmt 0 discriminator 1 view .LVU785
	ldr	r3, [r0]
	.loc 1 876 23 discriminator 1 view .LVU786
	ldr	r3, [r3, #1792]
	.loc 1 876 9 discriminator 1 view .LVU787
	tst	r3, #4
	bne	.L129
	.loc 1 877 1 view .LVU788
	bx	lr
.L131:
	.align	2
.L130:
	.word	1342226432
	.cfi_endproc
.LFE281:
	.size	XMC_ETH_MAC_SetPTPTime, .-XMC_ETH_MAC_SetPTPTime
	.section	.text.XMC_ETH_MAC_UpdatePTPTime,"ax",%progbits
	.align	1
	.global	XMC_ETH_MAC_UpdatePTPTime
	.syntax unified
	.thumb
	.thumb_func
	.fpu fpv4-sp-d16
	.type	XMC_ETH_MAC_UpdatePTPTime, %function
XMC_ETH_MAC_UpdatePTPTime:
.LVL171:
.LFB282:
	.loc 1 881 1 is_stmt 1 view -0
	.cfi_startproc
	@ args = 0, pretend = 0, frame = 0
	@ frame_needed = 0, uses_anonymous_args = 0
	.loc 1 881 1 is_stmt 0 view .LVU790
	push	{r3, r4, r5, lr}
	.cfi_def_cfa_offset 16
	.cfi_offset 3, -16
	.cfi_offset 4, -12
	.cfi_offset 5, -8
	.cfi_offset 14, -4
	mov	r4, r0
	mov	r5, r1
	.loc 1 882 3 is_stmt 1 view .LVU791
	.loc 1 884 3 view .LVU792
	.loc 1 887 3 view .LVU793
	.loc 1 887 21 is_stmt 0 view .LVU794
	ldr	r0, [r1, #4]
.LVL172:
	.loc 1 887 21 view .LVU795
	bl	abs
.LVL173:
	.loc 1 888 3 is_stmt 1 view .LVU796
	.loc 1 888 11 is_stmt 0 view .LVU797
	ldr	r3, [r5, #4]
	.loc 1 888 6 view .LVU798
	cmp	r3, #0
	blt	.L135
.L133:
	.loc 1 893 3 is_stmt 1 view .LVU799
	.loc 1 893 10 is_stmt 0 view .LVU800
	ldr	r3, [r4]
	.loc 1 893 49 view .LVU801
	str	r0, [r3, #1812]
	.loc 1 894 3 is_stmt 1 view .LVU802
	.loc 1 894 10 is_stmt 0 view .LVU803
	ldr	r3, [r4]
	.loc 1 894 51 view .LVU804
	ldr	r2, [r5]
	.loc 1 894 45 view .LVU805
	str	r2, [r3, #1808]
	.loc 1 896 3 is_stmt 1 view .LVU806
	.loc 1 896 10 is_stmt 0 view .LVU807
	ldr	r2, [r4]
	.loc 1 896 36 view .LVU808
	ldr	r3, [r2, #1792]
	orr	r3, r3, #8
	str	r3, [r2, #1792]
	.loc 1 897 1 view .LVU809
	pop	{r3, r4, r5, pc}
.LVL174:
.L135:
	.loc 1 890 5 is_stmt 1 view .LVU810
	.loc 1 890 10 is_stmt 0 view .LVU811
	orr	r0, r0, #-2147483648
.LVL175:
	.loc 1 890 10 view .LVU812
	b	.L133
	.cfi_endproc
.LFE282:
	.size	XMC_ETH_MAC_UpdatePTPTime, .-XMC_ETH_MAC_UpdatePTPTime
	.section	.text.XMC_ETH_MAC_SetPTPAlarm,"ax",%progbits
	.align	1
	.global	XMC_ETH_MAC_SetPTPAlarm
	.syntax unified
	.thumb
	.thumb_func
	.fpu fpv4-sp-d16
	.type	XMC_ETH_MAC_SetPTPAlarm, %function
XMC_ETH_MAC_SetPTPAlarm:
.LVL176:
.LFB283:
	.loc 1 901 1 is_stmt 1 view -0
	.cfi_startproc
	@ args = 0, pretend = 0, frame = 0
	@ frame_needed = 0, uses_anonymous_args = 0
	@ link register save eliminated.
	.loc 1 902 3 view .LVU814
	.loc 1 905 3 view .LVU815
	.loc 1 905 10 is_stmt 0 view .LVU816
	ldr	r3, [r0]
	.loc 1 905 48 view .LVU817
	ldr	r2, [r1, #4]
	.loc 1 905 42 view .LVU818
	str	r2, [r3, #1824]
	.loc 1 906 3 is_stmt 1 view .LVU819
	.loc 1 906 10 is_stmt 0 view .LVU820
	ldr	r3, [r0]
	.loc 1 906 44 view .LVU821
	ldr	r2, [r1]
	.loc 1 906 38 view .LVU822
	str	r2, [r3, #1820]
	.loc 1 907 1 view .LVU823
	bx	lr
	.cfi_endproc
.LFE283:
	.size	XMC_ETH_MAC_SetPTPAlarm, .-XMC_ETH_MAC_SetPTPAlarm
	.section	.text.XMC_ETH_MAC_AdjustPTPClock,"ax",%progbits
	.align	1
	.global	XMC_ETH_MAC_AdjustPTPClock
	.syntax unified
	.thumb
	.thumb_func
	.fpu fpv4-sp-d16
	.type	XMC_ETH_MAC_AdjustPTPClock, %function
XMC_ETH_MAC_AdjustPTPClock:
.LVL177:
.LFB284:
	.loc 1 911 1 is_stmt 1 view -0
	.cfi_startproc
	@ args = 0, pretend = 0, frame = 0
	@ frame_needed = 0, uses_anonymous_args = 0
	@ link register save eliminated.
	.loc 1 911 1 is_stmt 0 view .LVU825
	push	{r4, fp}
	.cfi_def_cfa_offset 8
	.cfi_offset 4, -8
	.cfi_offset 11, -4
	.loc 1 912 3 is_stmt 1 view .LVU826
	.loc 1 915 3 view .LVU827
	.loc 1 915 79 is_stmt 0 view .LVU828
	ldr	r4, [r0]
	.loc 1 915 85 view .LVU829
	ldr	r2, [r4, #1816]
	.loc 1 915 70 view .LVU830
	umull	fp, ip, r1, r2
	.loc 1 915 105 view .LVU831
	lsr	r2, fp, #31
	orr	r2, r2, ip, lsl #1
	.loc 1 915 35 view .LVU832
	str	r2, [r4, #1816]
	.loc 1 918 3 is_stmt 1 view .LVU833
	.loc 1 918 10 is_stmt 0 view .LVU834
	ldr	r2, [r0]
	.loc 1 918 36 view .LVU835
	ldr	r3, [r2, #1792]
	orr	r3, r3, #32
	str	r3, [r2, #1792]
	.loc 1 921 3 is_stmt 1 view .LVU836
.L138:
	.loc 1 921 54 discriminator 1 view .LVU837
	.loc 1 921 9 discriminator 1 view .LVU838
	.loc 1 921 17 is_stmt 0 discriminator 1 view .LVU839
	ldr	r3, [r0]
	.loc 1 921 23 discriminator 1 view .LVU840
	ldr	r3, [r3, #1792]
	.loc 1 921 9 discriminator 1 view .LVU841
	tst	r3, #32
	bne	.L138
	.loc 1 922 1 view .LVU842
	pop	{r4, fp}
	.cfi_restore 11
	.cfi_restore 4
	.cfi_def_cfa_offset 0
	bx	lr
	.cfi_endproc
.LFE284:
	.size	XMC_ETH_MAC_AdjustPTPClock, .-XMC_ETH_MAC_AdjustPTPClock
	.section	.text.XMC_ETH_MAC_UpdateAddend,"ax",%progbits
	.align	1
	.global	XMC_ETH_MAC_UpdateAddend
	.syntax unified
	.thumb
	.thumb_func
	.fpu fpv4-sp-d16
	.type	XMC_ETH_MAC_UpdateAddend, %function
XMC_ETH_MAC_UpdateAddend:
.LVL178:
.LFB285:
	.loc 1 926 1 is_stmt 1 view -0
	.cfi_startproc
	@ args = 0, pretend = 0, frame = 0
	@ frame_needed = 0, uses_anonymous_args = 0
	@ link register save eliminated.
	.loc 1 927 3 view .LVU844
	.loc 1 929 3 view .LVU845
	.loc 1 929 10 is_stmt 0 view .LVU846
	ldr	r3, [r0]
	.loc 1 929 35 view .LVU847
	str	r1, [r3, #1816]
	.loc 1 932 3 is_stmt 1 view .LVU848
	.loc 1 932 10 is_stmt 0 view .LVU849
	ldr	r2, [r0]
	.loc 1 932 36 view .LVU850
	ldr	r3, [r2, #1792]
	orr	r3, r3, #32
	str	r3, [r2, #1792]
	.loc 1 935 3 is_stmt 1 view .LVU851
.L141:
	.loc 1 935 54 discriminator 1 view .LVU852
	.loc 1 935 9 discriminator 1 view .LVU853
	.loc 1 935 17 is_stmt 0 discriminator 1 view .LVU854
	ldr	r3, [r0]
	.loc 1 935 23 discriminator 1 view .LVU855
	ldr	r3, [r3, #1792]
	.loc 1 935 9 discriminator 1 view .LVU856
	tst	r3, #32
	bne	.L141
	.loc 1 936 1 view .LVU857
	bx	lr
	.cfi_endproc
.LFE285:
	.size	XMC_ETH_MAC_UpdateAddend, .-XMC_ETH_MAC_UpdateAddend
	.section	.text.XMC_ETH_MAC_GetPTPStatus,"ax",%progbits
	.align	1
	.global	XMC_ETH_MAC_GetPTPStatus
	.syntax unified
	.thumb
	.thumb_func
	.fpu fpv4-sp-d16
	.type	XMC_ETH_MAC_GetPTPStatus, %function
XMC_ETH_MAC_GetPTPStatus:
.LVL179:
.LFB286:
	.loc 1 940 1 is_stmt 1 view -0
	.cfi_startproc
	@ args = 0, pretend = 0, frame = 0
	@ frame_needed = 0, uses_anonymous_args = 0
	@ link register save eliminated.
	.loc 1 941 3 view .LVU859
	.loc 1 943 3 view .LVU860
	.loc 1 943 18 is_stmt 0 view .LVU861
	ldr	r3, [r0]
	.loc 1 943 24 view .LVU862
	ldr	r0, [r3, #1832]
.LVL180:
	.loc 1 944 1 view .LVU863
	bx	lr
	.cfi_endproc
.LFE286:
	.size	XMC_ETH_MAC_GetPTPStatus, .-XMC_ETH_MAC_GetPTPStatus
	.section	.text.XMC_ETH_MAC_GetRxTimeStamp,"ax",%progbits
	.align	1
	.global	XMC_ETH_MAC_GetRxTimeStamp
	.syntax unified
	.thumb
	.thumb_func
	.fpu fpv4-sp-d16
	.type	XMC_ETH_MAC_GetRxTimeStamp, %function
XMC_ETH_MAC_GetRxTimeStamp:
.LVL181:
.LFB287:
	.loc 1 948 1 is_stmt 1 view -0
	.cfi_startproc
	@ args = 0, pretend = 0, frame = 0
	@ frame_needed = 0, uses_anonymous_args = 0
	@ link register save eliminated.
	.loc 1 948 1 is_stmt 0 view .LVU865
	push	{r4}
	.cfi_def_cfa_offset 4
	.cfi_offset 4, -4
	.loc 1 949 3 is_stmt 1 view .LVU866
	.loc 1 950 3 view .LVU867
	.loc 1 952 3 view .LVU868
	.loc 1 953 3 view .LVU869
	.loc 1 955 3 view .LVU870
	.loc 1 955 21 is_stmt 0 view .LVU871
	ldr	r2, [r0, #16]
	.loc 1 955 38 view .LVU872
	ldrb	r3, [r0, #39]	@ zero_extendqisi2
	.loc 1 955 30 view .LVU873
	lsls	r0, r3, #5
.LVL182:
	.loc 1 955 11 view .LVU874
	add	r3, r2, r3, lsl #5
.LVL183:
	.loc 1 956 3 is_stmt 1 view .LVU875
	.loc 1 956 14 is_stmt 0 view .LVU876
	ldr	r4, [r2, r0]
	.loc 1 956 6 view .LVU877
	cmp	r4, #0
	blt	.L145
	.loc 1 962 5 is_stmt 1 view .LVU878
	.loc 1 962 17 is_stmt 0 view .LVU879
	ldr	r2, [r2, r0]
	.loc 1 962 26 view .LVU880
	and	r2, r2, #384
	.loc 1 962 8 view .LVU881
	cmp	r2, #384
	beq	.L148
	.loc 1 971 14 view .LVU882
	movs	r0, #2
	b	.L144
.L148:
	.loc 1 964 7 is_stmt 1 view .LVU883
	.loc 1 964 44 is_stmt 0 view .LVU884
	ldr	r2, [r3, #24]
	.loc 1 964 25 view .LVU885
	str	r2, [r1, #4]
	.loc 1 965 7 is_stmt 1 view .LVU886
	.loc 1 965 30 is_stmt 0 view .LVU887
	ldr	r3, [r3, #28]
.LVL184:
	.loc 1 965 21 view .LVU888
	str	r3, [r1]
	.loc 1 967 7 is_stmt 1 view .LVU889
.LVL185:
	.loc 1 967 14 is_stmt 0 view .LVU890
	movs	r0, #0
	b	.L144
.LVL186:
.L145:
	.loc 1 958 12 view .LVU891
	movs	r0, #1
.LVL187:
.L144:
	.loc 1 975 3 is_stmt 1 view .LVU892
	.loc 1 976 1 is_stmt 0 view .LVU893
	ldr	r4, [sp], #4
	.cfi_restore 4
	.cfi_def_cfa_offset 0
	bx	lr
	.cfi_endproc
.LFE287:
	.size	XMC_ETH_MAC_GetRxTimeStamp, .-XMC_ETH_MAC_GetRxTimeStamp
	.section	.text.XMC_ETH_MAC_GetTxTimeStamp,"ax",%progbits
	.align	1
	.global	XMC_ETH_MAC_GetTxTimeStamp
	.syntax unified
	.thumb
	.thumb_func
	.fpu fpv4-sp-d16
	.type	XMC_ETH_MAC_GetTxTimeStamp, %function
XMC_ETH_MAC_GetTxTimeStamp:
.LVL188:
.LFB288:
	.loc 1 980 1 is_stmt 1 view -0
	.cfi_startproc
	@ args = 0, pretend = 0, frame = 0
	@ frame_needed = 0, uses_anonymous_args = 0
	@ link register save eliminated.
	.loc 1 980 1 is_stmt 0 view .LVU895
	push	{r4}
	.cfi_def_cfa_offset 4
	.cfi_offset 4, -4
	.loc 1 981 3 is_stmt 1 view .LVU896
	.loc 1 982 3 view .LVU897
	.loc 1 984 3 view .LVU898
	.loc 1 985 3 view .LVU899
	.loc 1 987 3 view .LVU900
	.loc 1 987 21 is_stmt 0 view .LVU901
	ldr	r2, [r0, #20]
	.loc 1 987 38 view .LVU902
	ldrb	r3, [r0, #40]	@ zero_extendqisi2
	.loc 1 987 30 view .LVU903
	lsls	r0, r3, #5
.LVL189:
	.loc 1 987 11 view .LVU904
	add	r3, r2, r3, lsl #5
.LVL190:
	.loc 1 988 3 is_stmt 1 view .LVU905
	.loc 1 988 14 is_stmt 0 view .LVU906
	ldr	r4, [r2, r0]
	.loc 1 988 6 view .LVU907
	cmp	r4, #0
	blt	.L151
	.loc 1 994 5 is_stmt 1 view .LVU908
	.loc 1 994 17 is_stmt 0 view .LVU909
	ldr	r0, [r2, r0]
	.loc 1 994 8 view .LVU910
	ldr	r2, .L155
	bics	r2, r2, r0
	beq	.L154
	.loc 1 1003 14 view .LVU911
	movs	r0, #2
	b	.L150
.L154:
	.loc 1 996 7 is_stmt 1 view .LVU912
	.loc 1 996 44 is_stmt 0 view .LVU913
	ldr	r2, [r3, #24]
	.loc 1 996 25 view .LVU914
	str	r2, [r1, #4]
	.loc 1 997 7 is_stmt 1 view .LVU915
	.loc 1 997 30 is_stmt 0 view .LVU916
	ldr	r3, [r3, #28]
.LVL191:
	.loc 1 997 21 view .LVU917
	str	r3, [r1]
	.loc 1 999 7 is_stmt 1 view .LVU918
.LVL192:
	.loc 1 999 14 is_stmt 0 view .LVU919
	movs	r0, #0
	b	.L150
.LVL193:
.L151:
	.loc 1 990 12 view .LVU920
	movs	r0, #1
.LVL194:
.L150:
	.loc 1 1007 3 is_stmt 1 view .LVU921
	.loc 1 1008 1 is_stmt 0 view .LVU922
	ldr	r4, [sp], #4
	.cfi_restore 4
	.cfi_def_cfa_offset 0
	bx	lr
.L156:
	.align	2
.L155:
	.word	537001984
	.cfi_endproc
.LFE288:
	.size	XMC_ETH_MAC_GetTxTimeStamp, .-XMC_ETH_MAC_GetTxTimeStamp
	.text
.Letext0:
	.file 5 "/home/sebin/LIOT/gcc-arm-none-eabi-9-2019-q4-major/lib/gcc/arm-none-eabi/9.2.1/include/stddef.h"
	.file 6 "/home/sebin/LIOT/gcc-arm-none-eabi-9-2019-q4-major/arm-none-eabi/include/machine/_default_types.h"
	.file 7 "/home/sebin/LIOT/gcc-arm-none-eabi-9-2019-q4-major/arm-none-eabi/include/sys/_stdint.h"
	.file 8 "/home/sebin/LIOT/gcc-arm-none-eabi-9-2019-q4-major/arm-none-eabi/include/sys/lock.h"
	.file 9 "/home/sebin/LIOT/gcc-arm-none-eabi-9-2019-q4-major/arm-none-eabi/include/sys/_types.h"
	.file 10 "/home/sebin/LIOT/gcc-arm-none-eabi-9-2019-q4-major/arm-none-eabi/include/sys/reent.h"
	.file 11 "/home/sebin/thesis/zephyrproject/modules/hal/cmsis/CMSIS/Core/Include/core_cm4.h"
	.file 12 "/home/sebin/thesis/zephyrproject/modules/hal/infineon/XMCLib/devices/XMC4500/Include/system_XMC4500.h"
	.file 13 "/home/sebin/thesis/zephyrproject/modules/hal/infineon/XMCLib/devices/XMC4500/Include/XMC4500.h"
	.file 14 "/home/sebin/LIOT/gcc-arm-none-eabi-9-2019-q4-major/arm-none-eabi/include/stdlib.h"
	.file 15 "<built-in>"