	.cpu cortex-m4
	.eabi_attribute 27, 1
	.eabi_attribute 28, 1
	.eabi_attribute 20, 1
	.eabi_attribute 21, 1
	.eabi_attribute 23, 3
	.eabi_attribute 24, 1
	.eabi_attribute 25, 1
	.eabi_attribute 26, 1
	.eabi_attribute 30, 1
	.eabi_attribute 34, 1
	.eabi_attribute 38, 1
	.eabi_attribute 18, 4
	.file	"xmc_usic.c"
	.text
.Ltext0:
	.cfi_sections	.debug_frame
	.section	.text.XMC_USIC_CH_Disable,"ax",%progbits
	.align	1
	.global	XMC_USIC_CH_Disable
	.arch armv7e-m
	.syntax unified
	.thumb
	.thumb_func
	.fpu fpv4-sp-d16
	.type	XMC_USIC_CH_Disable, %function
XMC_USIC_CH_Disable:
.LVL0:
.LFB252:
	.file 1 "/home/sebin/thesis/zephyrproject/modules/hal/infineon/XMCLib/drivers/src/xmc_usic.c"
	.loc 1 145 1 view -0
	.cfi_startproc
	@ args = 0, pretend = 0, frame = 0
	@ frame_needed = 0, uses_anonymous_args = 0
	@ link register save eliminated.
	.loc 1 146 3 view .LVU1
	.loc 1 146 39 is_stmt 0 view .LVU2
	ldr	r3, [r0, #12]
	.loc 1 146 61 view .LVU3
	bic	r3, r3, #3
	orr	r3, r3, #2
	.loc 1 146 18 view .LVU4
	str	r3, [r0, #12]
	.loc 1 147 1 view .LVU5
	bx	lr
	.cfi_endproc
.LFE252:
	.size	XMC_USIC_CH_Disable, .-XMC_USIC_CH_Disable
	.section	.text.XMC_USIC_CH_SetBaudrate,"ax",%progbits
	.align	1
	.global	XMC_USIC_CH_SetBaudrate
	.syntax unified
	.thumb
	.thumb_func
	.fpu fpv4-sp-d16
	.type	XMC_USIC_CH_SetBaudrate, %function
XMC_USIC_CH_SetBaudrate:
.LVL1:
.LFB253:
	.loc 1 150 1 is_stmt 1 view -0
	.cfi_startproc
	@ args = 0, pretend = 0, frame = 0
	@ frame_needed = 0, uses_anonymous_args = 0
	.loc 1 151 3 view .LVU7
	.loc 1 153 3 view .LVU8
	.loc 1 155 3 view .LVU9
	.loc 1 156 3 view .LVU10
	.loc 1 158 3 view .LVU11
	.loc 1 159 3 view .LVU12
	.loc 1 160 3 view .LVU13
	.loc 1 162 3 view .LVU14
	.loc 1 163 3 view .LVU15
	.loc 1 166 3 view .LVU16
	.loc 1 166 6 is_stmt 0 view .LVU17
	cmp	r1, #99
	bls	.L7
	.loc 1 150 1 discriminator 1 view .LVU18
	push	{r4, r5, r6, r7, r8, lr}
	.cfi_def_cfa_offset 24
	.cfi_offset 4, -24
	.cfi_offset 5, -20
	.cfi_offset 6, -16
	.cfi_offset 7, -12
	.cfi_offset 8, -8
	.cfi_offset 14, -4
	mov	r6, r0
	mov	r4, r1
	mov	r5, r2
	.loc 1 166 22 discriminator 1 view .LVU19
	cbnz	r2, .L14
	.loc 1 203 12 view .LVU20
	movs	r0, #1
.LVL2:
.L3:
	.loc 1 206 3 is_stmt 1 view .LVU21
	.loc 1 207 1 is_stmt 0 view .LVU22
	pop	{r4, r5, r6, r7, r8, pc}
.LVL3:
.L14:
	.loc 1 168 5 is_stmt 1 view .LVU23
	.loc 1 168 24 is_stmt 0 view .LVU24
	bl	XMC_SCU_CLOCK_GetPeripheralClockFrequency
.LVL4:
	.loc 1 168 22 view .LVU25
	ldr	r3, .L16
	umull	r2, r7, r3, r0
	lsrs	r7, r7, #5
.LVL5:
	.loc 1 169 5 is_stmt 1 view .LVU26
	.loc 1 169 10 is_stmt 0 view .LVU27
	umull	r3, r0, r3, r4
	lsrs	r0, r0, #5
.LVL6:
	.loc 1 171 5 is_stmt 1 view .LVU28
	.loc 1 172 5 view .LVU29
	.loc 1 173 5 view .LVU30
	.loc 1 175 5 view .LVU31
	.loc 1 173 19 is_stmt 0 view .LVU32
	movw	ip, #1023
	.loc 1 172 18 view .LVU33
	mov	lr, #1
	.loc 1 171 23 view .LVU34
	mov	r8, #1024
	.loc 1 175 24 view .LVU35
	mov	r1, r8
	.loc 1 175 5 view .LVU36
	b	.L4
.LVL7:
.L5:
	.loc 1 175 53 is_stmt 1 discriminator 2 view .LVU37
	subs	r1, r1, #1
.LVL8:
.L4:
	.loc 1 175 33 discriminator 1 view .LVU38
	.loc 1 175 5 is_stmt 0 discriminator 1 view .LVU39
	cbz	r1, .L15
	.loc 1 177 7 is_stmt 1 view .LVU40
	.loc 1 177 33 is_stmt 0 view .LVU41
	mul	r3, r7, r1
	.loc 1 177 58 view .LVU42
	mul	r2, r0, r5
	.loc 1 177 12 view .LVU43
	udiv	r3, r3, r2
.LVL9:
	.loc 1 178 7 is_stmt 1 view .LVU44
	.loc 1 178 16 is_stmt 0 view .LVU45
	lsrs	r4, r3, #10
.LVL10:
	.loc 1 179 7 is_stmt 1 view .LVU46
	.loc 1 179 17 is_stmt 0 view .LVU47
	ubfx	r3, r3, #0, #10
.LVL11:
	.loc 1 181 7 is_stmt 1 view .LVU48
	.loc 1 181 10 is_stmt 0 view .LVU49
	cmp	r4, #1024
	bhi	.L5
	.loc 1 181 31 discriminator 1 view .LVU50
	cmp	ip, r3
	bls	.L5
	.loc 1 183 23 view .LVU51
	mov	ip, r3
.LVL12:
	.loc 1 184 22 view .LVU52
	mov	lr, r4
.LVL13:
	.loc 1 185 27 view .LVU53
	mov	r8, r1
.LVL14:
	.loc 1 185 27 view .LVU54
	b	.L5
.LVL15:
.L15:
	.loc 1 189 5 is_stmt 1 view .LVU55
	.loc 1 190 45 is_stmt 0 view .LVU56
	add	r3, r8, #-1
	.loc 1 189 66 view .LVU57
	orr	r3, r3, #32768
	.loc 1 189 18 view .LVU58
	str	r3, [r6, #16]
	.loc 1 192 5 is_stmt 1 view .LVU59
	.loc 1 192 28 is_stmt 0 view .LVU60
	ldr	r2, [r6, #20]
	.loc 1 192 34 view .LVU61
	ldr	r3, .L16+4
	ands	r3, r3, r2
	.loc 1 196 35 view .LVU62
	subs	r5, r5, #1
.LVL16:
	.loc 1 195 49 view .LVU63
	orr	r3, r3, r5, lsl #10
	.loc 1 197 35 view .LVU64
	add	lr, lr, #-1
.LVL17:
	.loc 1 196 52 view .LVU65
	orr	r3, r3, lr, lsl #16
	.loc 1 192 18 view .LVU66
	str	r3, [r6, #20]
	.loc 1 199 5 is_stmt 1 view .LVU67
.LVL18:
	.loc 1 199 12 is_stmt 0 view .LVU68
	movs	r0, #0
.LVL19:
	.loc 1 199 12 view .LVU69
	b	.L3
.LVL20:
.L7:
	.cfi_def_cfa_offset 0
	.cfi_restore 4
	.cfi_restore 5
	.cfi_restore 6
	.cfi_restore 7
	.cfi_restore 8
	.cfi_restore 14
	.loc 1 203 12 view .LVU70
	movs	r0, #1
.LVL21:
	.loc 1 206 3 is_stmt 1 view .LVU71
	.loc 1 207 1 is_stmt 0 view .LVU72
	bx	lr
.L17:
	.align	2
.L16:
	.word	1374389535
	.word	-67075857
	.cfi_endproc
.LFE253:
	.size	XMC_USIC_CH_SetBaudrate, .-XMC_USIC_CH_SetBaudrate
	.section	.text.XMC_USIC_CH_SetBaudrateEx,"ax",%progbits
	.align	1
	.global	XMC_USIC_CH_SetBaudrateEx
	.syntax unified
	.thumb
	.thumb_func
	.fpu fpv4-sp-d16
	.type	XMC_USIC_CH_SetBaudrateEx, %function
XMC_USIC_CH_SetBaudrateEx:
.LVL22:
.LFB254:
	.loc 1 210 1 is_stmt 1 view -0
	.cfi_startproc
	@ args = 0, pretend = 0, frame = 0
	@ frame_needed = 0, uses_anonymous_args = 0
	.loc 1 210 1 is_stmt 0 view .LVU74
	push	{r3, r4, r5, r6, r7, r8, r9, r10, fp, lr}
	.cfi_def_cfa_offset 40
	.cfi_offset 3, -40
	.cfi_offset 4, -36
	.cfi_offset 5, -32
	.cfi_offset 6, -28
	.cfi_offset 7, -24
	.cfi_offset 8, -20
	.cfi_offset 9, -16
	.cfi_offset 10, -12
	.cfi_offset 11, -8
	.cfi_offset 14, -4
	mov	r7, r0
	mov	r8, r1
	mov	r6, r2
	.loc 1 211 3 is_stmt 1 view .LVU75
	.loc 1 211 30 is_stmt 0 view .LVU76
	bl	XMC_SCU_CLOCK_GetPeripheralClockFrequency
.LVL23:
	.loc 1 212 3 is_stmt 1 view .LVU77
	.loc 1 212 11 is_stmt 0 view .LVU78
	mul	r2, r6, r8
.LVL24:
	.loc 1 213 3 is_stmt 1 view .LVU79
	.loc 1 214 3 view .LVU80
	.loc 1 215 3 view .LVU81
	.loc 1 216 3 view .LVU82
	.loc 1 217 3 view .LVU83
	.loc 1 219 3 view .LVU84
	.loc 1 219 6 is_stmt 0 view .LVU85
	cmp	r0, r2
	ble	.L23
	mov	r1, r0
	.loc 1 221 5 is_stmt 1 view .LVU86
	.loc 1 221 37 is_stmt 0 view .LVU87
	sdiv	r4, r0, r2
.LVL25:
	.loc 1 222 5 is_stmt 1 view .LVU88
	.loc 1 215 12 is_stmt 0 view .LVU89
	movs	r5, #1
.LVL26:
.L20:
	.loc 1 222 11 is_stmt 1 view .LVU90
	movw	r3, #1022
	cmp	r4, r3
	bls	.L25
	.loc 1 224 7 view .LVU91
	.loc 1 224 11 is_stmt 0 view .LVU92
	adds	r5, r5, #1
.LVL27:
	.loc 1 225 7 is_stmt 1 view .LVU93
	.loc 1 225 39 is_stmt 0 view .LVU94
	mul	r4, r5, r2
.LVL28:
	.loc 1 226 7 is_stmt 1 view .LVU95
	.loc 1 226 39 is_stmt 0 view .LVU96
	sdiv	r4, r1, r4
.LVL29:
	.loc 1 226 39 view .LVU97
	b	.L20
.LVL30:
.L25:
	.loc 1 228 5 is_stmt 1 view .LVU98
	.loc 1 228 58 is_stmt 0 view .LVU99
	mul	r10, r4, r6
	.loc 1 228 73 view .LVU100
	mul	r10, r5, r10
	.loc 1 228 42 view .LVU101
	udiv	r10, r0, r10
.LVL31:
	.loc 1 229 5 is_stmt 1 view .LVU102
	.loc 1 229 59 is_stmt 0 view .LVU103
	add	r9, r4, #1
	.loc 1 229 64 view .LVU104
	mla	r3, r4, r6, r6
	.loc 1 229 79 view .LVU105
	mul	r3, r5, r3
	.loc 1 229 42 view .LVU106
	udiv	r0, r0, r3
.LVL32:
	.loc 1 232 5 is_stmt 1 view .LVU107
	.loc 1 232 9 is_stmt 0 view .LVU108
	sub	r0, r8, r0
.LVL33:
	.loc 1 232 9 view .LVU109
	bl	abs
.LVL34:
	.loc 1 232 9 view .LVU110
	mov	fp, r0
	.loc 1 232 41 view .LVU111
	sub	r0, r8, r10
	bl	abs
.LVL35:
	.loc 1 232 8 view .LVU112
	cmp	fp, r0
	blt	.L22
	mov	r9, r4
.L22:
.LVL36:
	.loc 1 237 5 is_stmt 1 view .LVU113
	.loc 1 237 18 is_stmt 0 view .LVU114
	rsb	r9, r9, #1024
.LVL37:
	.loc 1 240 5 is_stmt 1 view .LVU115
	.loc 1 240 62 is_stmt 0 view .LVU116
	orr	r3, r9, #16384
	.loc 1 240 18 view .LVU117
	str	r3, [r7, #16]
	.loc 1 243 5 is_stmt 1 view .LVU118
	.loc 1 243 28 is_stmt 0 view .LVU119
	ldr	r2, [r7, #20]
	.loc 1 243 34 view .LVU120
	ldr	r3, .L26
	ands	r3, r3, r2
	.loc 1 247 35 view .LVU121
	subs	r6, r6, #1
.LVL38:
	.loc 1 246 49 view .LVU122
	orr	r6, r3, r6, lsl #10
.LVL39:
	.loc 1 248 27 view .LVU123
	subs	r3, r5, #1
	.loc 1 247 52 view .LVU124
	orr	r3, r6, r3, lsl #16
	.loc 1 243 18 view .LVU125
	str	r3, [r7, #20]
	.loc 1 250 5 is_stmt 1 view .LVU126
.LVL40:
	.loc 1 250 12 is_stmt 0 view .LVU127
	movs	r0, #0
.LVL41:
.L19:
	.loc 1 257 3 is_stmt 1 view .LVU128
	.loc 1 258 1 is_stmt 0 view .LVU129
	pop	{r3, r4, r5, r6, r7, r8, r9, r10, fp, pc}
.LVL42:
.L23:
	.loc 1 254 12 view .LVU130
	movs	r0, #1
.LVL43:
	.loc 1 254 12 view .LVU131
	b	.L19
.L27:
	.align	2
.L26:
	.word	-67075857
	.cfi_endproc
.LFE254:
	.size	XMC_USIC_CH_SetBaudrateEx, .-XMC_USIC_CH_SetBaudrateEx
	.section	.text.XMC_USIC_CH_SetBaudrateDivider,"ax",%progbits
	.align	1
	.global	XMC_USIC_CH_SetBaudrateDivider
	.syntax unified
	.thumb
	.thumb_func
	.fpu fpv4-sp-d16
	.type	XMC_USIC_CH_SetBaudrateDivider, %function
XMC_USIC_CH_SetBaudrateDivider:
.LVL44:
.LFB255:
	.loc 1 267 1 is_stmt 1 view -0
	.cfi_startproc
	@ args = 12, pretend = 0, frame = 0
	@ frame_needed = 0, uses_anonymous_args = 0
	@ link register save eliminated.
	.loc 1 267 1 is_stmt 0 view .LVU133
	push	{r4, r5}
	.cfi_def_cfa_offset 8
	.cfi_offset 4, -8
	.cfi_offset 5, -4
	.loc 1 268 5 is_stmt 1 view .LVU134
	.loc 1 268 14 is_stmt 0 view .LVU135
	ldr	r5, [r0, #20]
.LVL45:
	.loc 1 269 5 is_stmt 1 view .LVU136
	.loc 1 269 12 is_stmt 0 view .LVU137
	ldr	r4, .L32
	ands	r4, r4, r5
.LVL46:
	.loc 1 270 5 is_stmt 1 view .LVU138
	.loc 1 270 42 is_stmt 0 view .LVU139
	cbz	r2, .L30
	movs	r2, #16
.LVL47:
.L29:
	.loc 1 270 22 discriminator 4 view .LVU140
	orrs	r1, r1, r2
.LVL48:
	.loc 1 270 47 discriminator 4 view .LVU141
	orr	r1, r1, r3, lsl #16
	.loc 1 270 66 discriminator 4 view .LVU142
	ldrb	r3, [sp, #8]	@ zero_extendqisi2
.LVL49:
	.loc 1 270 66 discriminator 4 view .LVU143
	orrs	r3, r3, r1
	.loc 1 270 75 discriminator 4 view .LVU144
	ldr	r2, [sp, #12]
	orr	r3, r3, r2, lsl #8
	.loc 1 270 93 discriminator 4 view .LVU145
	ldr	r2, [sp, #16]
	orr	r3, r3, r2, lsl #10
	.loc 1 270 12 discriminator 4 view .LVU146
	orrs	r3, r3, r4
.LVL50:
	.loc 1 271 5 is_stmt 1 discriminator 4 view .LVU147
	.loc 1 271 18 is_stmt 0 discriminator 4 view .LVU148
	str	r3, [r0, #20]
	.loc 1 272 1 discriminator 4 view .LVU149
	pop	{r4, r5}
	.cfi_remember_state
	.cfi_restore 5
	.cfi_restore 4
	.cfi_def_cfa_offset 0
.LVL51:
	.loc 1 272 1 discriminator 4 view .LVU150
	bx	lr
.LVL52:
.L30:
	.cfi_restore_state
	.loc 1 270 42 view .LVU151
	movs	r2, #0
.LVL53:
	.loc 1 270 42 view .LVU152
	b	.L29
.L33:
	.align	2
.L32:
	.word	-67076052
	.cfi_endproc
.LFE255:
	.size	XMC_USIC_CH_SetBaudrateDivider, .-XMC_USIC_CH_SetBaudrateDivider
	.section	.text.XMC_USIC_CH_GetBaudrate,"ax",%progbits
	.align	1
	.global	XMC_USIC_CH_GetBaudrate
	.syntax unified
	.thumb
	.thumb_func
	.fpu fpv4-sp-d16
	.type	XMC_USIC_CH_GetBaudrate, %function
XMC_USIC_CH_GetBaudrate:
.LVL54:
.LFB256:
	.loc 1 275 1 is_stmt 1 view -0
	.cfi_startproc
	@ args = 0, pretend = 0, frame = 0
	@ frame_needed = 0, uses_anonymous_args = 0
	.loc 1 275 1 is_stmt 0 view .LVU154
	push	{r3, r4, r5, lr}
	.cfi_def_cfa_offset 16
	.cfi_offset 3, -16
	.cfi_offset 4, -12
	.cfi_offset 5, -8
	.cfi_offset 14, -4
	mov	r5, r0
	.loc 1 276 3 is_stmt 1 view .LVU155
	.loc 1 277 3 view .LVU156
	.loc 1 277 15 is_stmt 0 view .LVU157
	ldr	r3, [r0, #20]
	.loc 1 277 21 view .LVU158
	and	r3, r3, #192
	.loc 1 277 6 view .LVU159
	cmp	r3, #192
	beq	.L39
	.loc 1 285 5 is_stmt 1 view .LVU160
	.loc 1 285 23 is_stmt 0 view .LVU161
	ldr	r3, [r0, #20]
	.loc 1 285 45 view .LVU162
	tst	r3, #16
	beq	.L40
	movs	r3, #2
.L36:
.LVL55:
	.loc 1 287 5 is_stmt 1 discriminator 4 view .LVU163
	.loc 1 287 19 is_stmt 0 discriminator 4 view .LVU164
	ldr	r2, [r5, #20]
	.loc 1 287 8 discriminator 4 view .LVU165
	tst	r2, #64
	bne	.L35
	.loc 1 290 7 is_stmt 1 view .LVU166
	.loc 1 290 27 is_stmt 0 view .LVU167
	ldr	r2, [r5, #20]
	.loc 1 290 50 view .LVU168
	ubfx	r2, r2, #16, #10
	.loc 1 290 15 view .LVU169
	mla	r3, r2, r3, r3
.LVL56:
	.loc 1 291 7 is_stmt 1 view .LVU170
	.loc 1 291 21 is_stmt 0 view .LVU171
	ldr	r2, [r5, #20]
	.loc 1 291 10 view .LVU172
	tst	r2, #128
	beq	.L35
	.loc 1 294 9 is_stmt 1 view .LVU173
	.loc 1 294 17 is_stmt 0 view .LVU174
	lsls	r3, r3, #1
.LVL57:
	.loc 1 294 17 view .LVU175
	b	.L35
.LVL58:
.L40:
	.loc 1 285 45 view .LVU176
	movs	r3, #1
	b	.L36
.L39:
	.loc 1 280 13 view .LVU177
	movs	r3, #2
.L35:
.LVL59:
	.loc 1 299 3 is_stmt 1 view .LVU178
	.loc 1 299 23 is_stmt 0 view .LVU179
	ldr	r2, [r5, #20]
	.loc 1 299 42 view .LVU180
	ubfx	r2, r2, #8, #2
	.loc 1 299 11 view .LVU181
	mla	r3, r2, r3, r3
.LVL60:
	.loc 1 300 3 is_stmt 1 view .LVU182
	.loc 1 300 23 is_stmt 0 view .LVU183
	ldr	r4, [r5, #20]
	.loc 1 300 43 view .LVU184
	ubfx	r4, r4, #10, #5
	.loc 1 300 11 view .LVU185
	mla	r4, r4, r3, r3
.LVL61:
	.loc 1 302 3 is_stmt 1 view .LVU186
	.loc 1 302 20 is_stmt 0 view .LVU187
	bl	XMC_SCU_CLOCK_GetPeripheralClockFrequency
.LVL62:
	.loc 1 302 20 view .LVU188
	vmov	s14, r0	@ int
.LVL63:
	.loc 1 303 3 is_stmt 1 view .LVU189
	.loc 1 304 3 view .LVU190
	.loc 1 304 15 is_stmt 0 view .LVU191
	ldr	r3, [r5, #16]
	.loc 1 304 21 view .LVU192
	and	r3, r3, #49152
	.loc 1 304 6 view .LVU193
	cmp	r3, #32768
	beq	.L42
	.loc 1 311 5 is_stmt 1 view .LVU194
	.loc 1 311 22 is_stmt 0 view .LVU195
	vcvt.f32.u32	s14, s14
	.loc 1 311 49 view .LVU196
	ldr	r3, [r5, #16]
	.loc 1 311 68 view .LVU197
	ubfx	r3, r3, #0, #10
	.loc 1 311 38 view .LVU198
	rsb	r3, r3, #1024
	.loc 1 311 30 view .LVU199
	vmov	s15, r3	@ int
	vcvt.f32.u32	s15, s15
	vmov.f32	s12, #1.0e+0
	vdiv.f32	s13, s12, s15
	.loc 1 311 14 view .LVU200
	vmul.f32	s14, s14, s13
.LVL64:
.L38:
	.loc 1 314 3 is_stmt 1 view .LVU201
	.loc 1 314 12 is_stmt 0 view .LVU202
	vmov	s15, r4	@ int
	vcvt.f32.u32	s15, s15
	vdiv.f32	s13, s14, s15
.LVL65:
	.loc 1 316 3 is_stmt 1 view .LVU203
	.loc 1 317 1 is_stmt 0 view .LVU204
	vcvt.u32.f32	s15, s13
	vmov	r0, s15	@ int
.LVL66:
	.loc 1 317 1 view .LVU205
	pop	{r3, r4, r5, pc}
.LVL67:
.L42:
	.loc 1 306 5 is_stmt 1 view .LVU206
	.loc 1 306 22 is_stmt 0 view .LVU207
	vcvt.f32.u32	s14, s14
	.loc 1 306 34 view .LVU208
	ldr	r3, [r5, #16]
	.loc 1 306 53 view .LVU209
	ubfx	r3, r3, #0, #10
	vmov	s15, r3	@ int
	.loc 1 306 63 view .LVU210
	vcvt.f32.u32	s15, s15
	vldr.32	s13, .L43
	vmul.f32	s15, s15, s13
	.loc 1 306 14 view .LVU211
	vmul.f32	s14, s14, s15
.LVL68:
	.loc 1 306 14 view .LVU212
	b	.L38
.L44:
	.align	2
.L43:
	.word	981467136
	.cfi_endproc
.LFE256:
	.size	XMC_USIC_CH_GetBaudrate, .-XMC_USIC_CH_GetBaudrate
	.section	.text.XMC_USIC_CH_GetSCLKFrequency,"ax",%progbits
	.align	1
	.global	XMC_USIC_CH_GetSCLKFrequency
	.syntax unified
	.thumb
	.thumb_func
	.fpu fpv4-sp-d16
	.type	XMC_USIC_CH_GetSCLKFrequency, %function
XMC_USIC_CH_GetSCLKFrequency:
.LVL69:
.LFB257:
	.loc 1 320 1 is_stmt 1 view -0
	.cfi_startproc
	@ args = 0, pretend = 0, frame = 0
	@ frame_needed = 0, uses_anonymous_args = 0
	.loc 1 320 1 is_stmt 0 view .LVU214
	push	{r3, r4, r5, lr}
	.cfi_def_cfa_offset 16
	.cfi_offset 3, -16
	.cfi_offset 4, -12
	.cfi_offset 5, -8
	.cfi_offset 14, -4
	mov	r5, r0
	.loc 1 321 3 is_stmt 1 view .LVU215
	.loc 1 322 3 view .LVU216
	.loc 1 322 21 is_stmt 0 view .LVU217
	ldr	r3, [r0, #20]
	.loc 1 322 43 view .LVU218
	tst	r3, #16
	beq	.L49
	movs	r3, #2
.L46:
.LVL70:
	.loc 1 323 3 is_stmt 1 discriminator 4 view .LVU219
	.loc 1 323 23 is_stmt 0 discriminator 4 view .LVU220
	ldr	r2, [r5, #20]
	.loc 1 323 46 discriminator 4 view .LVU221
	ubfx	r2, r2, #16, #10
	.loc 1 323 11 discriminator 4 view .LVU222
	mla	r3, r2, r3, r3
.LVL71:
	.loc 1 324 3 is_stmt 1 discriminator 4 view .LVU223
	.loc 1 324 11 is_stmt 0 discriminator 4 view .LVU224
	lsls	r4, r3, #1
.LVL72:
	.loc 1 326 3 is_stmt 1 discriminator 4 view .LVU225
	.loc 1 326 20 is_stmt 0 discriminator 4 view .LVU226
	bl	XMC_SCU_CLOCK_GetPeripheralClockFrequency
.LVL73:
	.loc 1 326 20 discriminator 4 view .LVU227
	vmov	s14, r0	@ int
.LVL74:
	.loc 1 327 3 is_stmt 1 discriminator 4 view .LVU228
	.loc 1 328 3 discriminator 4 view .LVU229
	.loc 1 328 15 is_stmt 0 discriminator 4 view .LVU230
	ldr	r3, [r5, #16]
	.loc 1 328 21 discriminator 4 view .LVU231
	and	r3, r3, #49152
	.loc 1 328 6 discriminator 4 view .LVU232
	cmp	r3, #32768
	beq	.L51
	.loc 1 336 5 is_stmt 1 view .LVU233
	.loc 1 336 22 is_stmt 0 view .LVU234
	vcvt.f32.u32	s14, s14
	.loc 1 336 49 view .LVU235
	ldr	r3, [r5, #16]
	.loc 1 336 68 view .LVU236
	ubfx	r3, r3, #0, #10
	.loc 1 336 38 view .LVU237
	rsb	r3, r3, #1024
	.loc 1 336 30 view .LVU238
	vmov	s15, r3	@ int
	vcvt.f32.u32	s15, s15
	vmov.f32	s12, #1.0e+0
	vdiv.f32	s13, s12, s15
	.loc 1 336 14 view .LVU239
	vmul.f32	s14, s14, s13
.LVL75:
.L48:
	.loc 1 339 3 is_stmt 1 view .LVU240
	.loc 1 339 12 is_stmt 0 view .LVU241
	vmov	s15, r4	@ int
	vcvt.f32.u32	s15, s15
	vdiv.f32	s13, s14, s15
.LVL76:
	.loc 1 341 3 is_stmt 1 view .LVU242
	.loc 1 342 1 is_stmt 0 view .LVU243
	vcvt.u32.f32	s15, s13
	vmov	r0, s15	@ int
.LVL77:
	.loc 1 342 1 view .LVU244
	pop	{r3, r4, r5, pc}
.LVL78:
.L49:
	.loc 1 322 43 view .LVU245
	movs	r3, #1
	b	.L46
.LVL79:
.L51:
	.loc 1 331 5 is_stmt 1 view .LVU246
	.loc 1 331 22 is_stmt 0 view .LVU247
	vcvt.f32.u32	s14, s14
	.loc 1 331 34 view .LVU248
	ldr	r3, [r5, #16]
	.loc 1 331 53 view .LVU249
	ubfx	r3, r3, #0, #10
	vmov	s15, r3	@ int
	.loc 1 331 63 view .LVU250
	vcvt.f32.u32	s15, s15
	vldr.32	s13, .L52
	vmul.f32	s15, s15, s13
	.loc 1 331 14 view .LVU251
	vmul.f32	s14, s14, s15
.LVL80:
	.loc 1 331 14 view .LVU252
	b	.L48
.L53:
	.align	2
.L52:
	.word	981467136
	.cfi_endproc
.LFE257:
	.size	XMC_USIC_CH_GetSCLKFrequency, .-XMC_USIC_CH_GetSCLKFrequency
	.section	.text.XMC_USIC_CH_GetMCLKFrequency,"ax",%progbits
	.align	1
	.global	XMC_USIC_CH_GetMCLKFrequency
	.syntax unified
	.thumb
	.thumb_func
	.fpu fpv4-sp-d16
	.type	XMC_USIC_CH_GetMCLKFrequency, %function
XMC_USIC_CH_GetMCLKFrequency:
.LVL81:
.LFB258:
	.loc 1 345 1 is_stmt 1 view -0
	.cfi_startproc
	@ args = 0, pretend = 0, frame = 0
	@ frame_needed = 0, uses_anonymous_args = 0
	.loc 1 345 1 is_stmt 0 view .LVU254
	push	{r4, lr}
	.cfi_def_cfa_offset 8
	.cfi_offset 4, -8
	.cfi_offset 14, -4
	mov	r4, r0
	.loc 1 346 3 is_stmt 1 view .LVU255
	.loc 1 346 20 is_stmt 0 view .LVU256
	bl	XMC_SCU_CLOCK_GetPeripheralClockFrequency
.LVL82:
	.loc 1 346 20 view .LVU257
	vmov	s15, r0	@ int
.LVL83:
	.loc 1 348 3 is_stmt 1 view .LVU258
	.loc 1 349 3 view .LVU259
	.loc 1 349 15 is_stmt 0 view .LVU260
	ldr	r3, [r4, #16]
	.loc 1 349 21 view .LVU261
	and	r3, r3, #49152
	.loc 1 349 6 view .LVU262
	cmp	r3, #32768
	beq	.L58
	.loc 1 357 5 is_stmt 1 view .LVU263
	.loc 1 357 22 is_stmt 0 view .LVU264
	vcvt.f32.u32	s15, s15
	.loc 1 357 34 view .LVU265
	ldr	r3, [r4, #16]
	.loc 1 357 53 view .LVU266
	ubfx	r3, r3, #0, #10
	vmov	s14, r3	@ int
	.loc 1 357 63 view .LVU267
	vcvt.f32.u32	s14, s14
	vldr.32	s13, .L59
	vmul.f32	s14, s14, s13
	.loc 1 357 14 view .LVU268
	vdiv.f32	s13, s15, s14
.LVL84:
.L56:
	.loc 1 360 3 is_stmt 1 view .LVU269
	.loc 1 360 12 is_stmt 0 view .LVU270
	vmov.f32	s15, #5.0e-1
	vmul.f32	s15, s13, s15
.LVL85:
	.loc 1 362 3 is_stmt 1 view .LVU271
	.loc 1 363 1 is_stmt 0 view .LVU272
	vcvt.u32.f32	s15, s15
.LVL86:
	.loc 1 363 1 view .LVU273
	vmov	r0, s15	@ int
.LVL87:
	.loc 1 363 1 view .LVU274
	pop	{r4, pc}
.LVL88:
.L58:
	.loc 1 352 5 is_stmt 1 view .LVU275
	.loc 1 352 22 is_stmt 0 view .LVU276
	vcvt.f32.u32	s15, s15
	.loc 1 352 49 view .LVU277
	ldr	r3, [r4, #16]
	.loc 1 352 68 view .LVU278
	ubfx	r3, r3, #0, #10
	.loc 1 352 38 view .LVU279
	rsb	r3, r3, #1024
	.loc 1 352 30 view .LVU280
	vmov	s14, r3	@ int
	vcvt.f32.u32	s14, s14
	vmov.f32	s12, #1.0e+0
	vdiv.f32	s13, s12, s14
	.loc 1 352 14 view .LVU281
	vmul.f32	s13, s15, s13
.LVL89:
	.loc 1 352 14 view .LVU282
	b	.L56
.L60:
	.align	2
.L59:
	.word	981467136
	.cfi_endproc
.LFE258:
	.size	XMC_USIC_CH_GetMCLKFrequency, .-XMC_USIC_CH_GetMCLKFrequency
	.section	.text.XMC_USIC_CH_ConfigExternalInputSignalToBRG,"ax",%progbits
	.align	1
	.global	XMC_USIC_CH_ConfigExternalInputSignalToBRG
	.syntax unified
	.thumb
	.thumb_func
	.fpu fpv4-sp-d16
	.type	XMC_USIC_CH_ConfigExternalInputSignalToBRG, %function
XMC_USIC_CH_ConfigExternalInputSignalToBRG:
.LVL90:
.LFB259:
	.loc 1 370 1 is_stmt 1 view -0
	.cfi_startproc
	@ args = 0, pretend = 0, frame = 0
	@ frame_needed = 0, uses_anonymous_args = 0
	@ link register save eliminated.
	.loc 1 370 1 is_stmt 0 view .LVU284
	push	{r4, r5}
	.cfi_def_cfa_offset 8
	.cfi_offset 4, -8
	.cfi_offset 5, -4
	.loc 1 371 3 is_stmt 1 view .LVU285
	.loc 1 372 3 view .LVU286
	.loc 1 375 3 view .LVU287
.LVL91:
.LBB6:
.LBI6:
	.file 2 "/home/sebin/thesis/zephyrproject/modules/hal/infineon/XMCLib/drivers/inc/xmc_usic.h"
	.loc 2 1089 20 view .LVU288
.LBB7:
	.loc 2 1091 3 view .LVU289
	.loc 2 1091 36 is_stmt 0 view .LVU290
	ldr	r5, [r0, #20]
	.loc 2 1091 18 view .LVU291
	bic	r5, r5, #3
	.loc 2 1091 56 view .LVU292
	orr	r5, r5, #2
	.loc 2 1091 16 view .LVU293
	str	r5, [r0, #20]
.LVL92:
	.loc 2 1091 16 view .LVU294
.LBE7:
.LBE6:
	.loc 1 378 3 is_stmt 1 view .LVU295
.LBB8:
.LBI8:
	.loc 2 1069 20 view .LVU296
.LBB9:
	.loc 2 1073 3 view .LVU297
	.loc 2 1073 50 is_stmt 0 view .LVU298
	ldr	r4, [r0, #32]
	.loc 2 1073 26 view .LVU299
	bic	r4, r4, #3072
	.loc 2 1073 74 view .LVU300
	orr	r4, r4, r3, lsl #10
	.loc 2 1073 24 view .LVU301
	str	r4, [r0, #32]
.LVL93:
	.loc 2 1073 24 view .LVU302
.LBE9:
.LBE8:
	.loc 1 381 3 is_stmt 1 view .LVU303
	.loc 1 381 26 is_stmt 0 view .LVU304
	ldr	r4, [r0, #20]
	.loc 1 381 32 view .LVU305
	ldr	r3, .L63
.LVL94:
	.loc 1 381 32 view .LVU306
	ands	r3, r3, r4
	.loc 1 385 35 view .LVU307
	subs	r2, r2, #1
.LVL95:
	.loc 1 384 47 view .LVU308
	orr	r3, r3, r2, lsl #10
	.loc 1 386 27 view .LVU309
	subs	r1, r1, #1
.LVL96:
	.loc 1 385 52 view .LVU310
	orr	r3, r3, r1, lsl #16
	.loc 1 381 16 view .LVU311
	str	r3, [r0, #20]
	.loc 1 387 1 view .LVU312
	pop	{r4, r5}
	.cfi_restore 5
	.cfi_restore 4
	.cfi_def_cfa_offset 0
	bx	lr
.L64:
	.align	2
.L63:
	.word	-67075857
	.cfi_endproc
.LFE259:
	.size	XMC_USIC_CH_ConfigExternalInputSignalToBRG, .-XMC_USIC_CH_ConfigExternalInputSignalToBRG
	.section	.text.XMC_USIC_CH_TXFIFO_Configure,"ax",%progbits
	.align	1
	.global	XMC_USIC_CH_TXFIFO_Configure
	.syntax unified
	.thumb
	.thumb_func
	.fpu fpv4-sp-d16
	.type	XMC_USIC_CH_TXFIFO_Configure, %function
XMC_USIC_CH_TXFIFO_Configure:
.LVL97:
.LFB260:
	.loc 1 393 1 is_stmt 1 view -0
	.cfi_startproc
	@ args = 0, pretend = 0, frame = 0
	@ frame_needed = 0, uses_anonymous_args = 0
	@ link register save eliminated.
	.loc 1 393 1 is_stmt 0 view .LVU314
	push	{r4, r5}
	.cfi_def_cfa_offset 8
	.cfi_offset 4, -8
	.cfi_offset 5, -4
	.loc 1 395 3 is_stmt 1 view .LVU315
	.loc 1 395 18 is_stmt 0 view .LVU316
	ldr	r5, [r0, #264]
	bic	r5, r5, #117440512
	str	r5, [r0, #264]
	.loc 1 402 3 is_stmt 1 view .LVU317
	.loc 1 402 38 is_stmt 0 view .LVU318
	ldr	r5, [r0, #264]
	.loc 1 402 20 view .LVU319
	ldr	r4, .L67
	ands	r4, r4, r5
	.loc 1 405 48 view .LVU320
	orr	r1, r1, r3, lsl #8
.LVL98:
	.loc 1 405 20 view .LVU321
	orr	r1, r1, r2, lsl #24
	.loc 1 404 47 view .LVU322
	orrs	r4, r4, r1
	.loc 1 402 18 view .LVU323
	str	r4, [r0, #264]
	.loc 1 408 1 view .LVU324
	pop	{r4, r5}
	.cfi_restore 5
	.cfi_restore 4
	.cfi_def_cfa_offset 0
	bx	lr
.L68:
	.align	2
.L67:
	.word	-117456704
	.cfi_endproc
.LFE260:
	.size	XMC_USIC_CH_TXFIFO_Configure, .-XMC_USIC_CH_TXFIFO_Configure
	.section	.text.XMC_USIC_CH_RXFIFO_Configure,"ax",%progbits
	.align	1
	.global	XMC_USIC_CH_RXFIFO_Configure
	.syntax unified
	.thumb
	.thumb_func
	.fpu fpv4-sp-d16
	.type	XMC_USIC_CH_RXFIFO_Configure, %function
XMC_USIC_CH_RXFIFO_Configure:
.LVL99:
.LFB261:
	.loc 1 415 1 is_stmt 1 view -0
	.cfi_startproc
	@ args = 0, pretend = 0, frame = 0
	@ frame_needed = 0, uses_anonymous_args = 0
	@ link register save eliminated.
	.loc 1 415 1 is_stmt 0 view .LVU326
	push	{r4, r5}
	.cfi_def_cfa_offset 8
	.cfi_offset 4, -8
	.cfi_offset 5, -4
	.loc 1 417 3 is_stmt 1 view .LVU327
	.loc 1 417 18 is_stmt 0 view .LVU328
	ldr	r5, [r0, #268]
	bic	r5, r5, #117440512
	str	r5, [r0, #268]
	.loc 1 422 3 is_stmt 1 view .LVU329
	.loc 1 422 39 is_stmt 0 view .LVU330
	ldr	r5, [r0, #268]
	.loc 1 422 47 view .LVU331
	ldr	r4, .L71
	ands	r4, r4, r5
	.loc 1 425 49 view .LVU332
	orr	r1, r1, r3, lsl #8
.LVL100:
	.loc 1 426 56 view .LVU333
	orr	r1, r1, r2, lsl #24
	.loc 1 422 20 view .LVU334
	orrs	r4, r4, r1
	orr	r4, r4, #268435456
	.loc 1 422 18 view .LVU335
	str	r4, [r0, #268]
	.loc 1 429 1 view .LVU336
	pop	{r4, r5}
	.cfi_restore 5
	.cfi_restore 4
	.cfi_def_cfa_offset 0
	bx	lr
.L72:
	.align	2
.L71:
	.word	-268451648
	.cfi_endproc
.LFE261:
	.size	XMC_USIC_CH_RXFIFO_Configure, .-XMC_USIC_CH_RXFIFO_Configure
	.section	.text.XMC_USIC_CH_TXFIFO_SetSizeTriggerLimit,"ax",%progbits
	.align	1
	.global	XMC_USIC_CH_TXFIFO_SetSizeTriggerLimit
	.syntax unified
	.thumb
	.thumb_func
	.fpu fpv4-sp-d16
	.type	XMC_USIC_CH_TXFIFO_SetSizeTriggerLimit, %function
XMC_USIC_CH_TXFIFO_SetSizeTriggerLimit:
.LVL101:
.LFB262:
	.loc 1 434 1 is_stmt 1 view -0
	.cfi_startproc
	@ args = 0, pretend = 0, frame = 0
	@ frame_needed = 0, uses_anonymous_args = 0
	@ link register save eliminated.
	.loc 1 435 3 view .LVU338
	.loc 1 440 3 view .LVU339
	.loc 1 440 49 is_stmt 0 view .LVU340
	ldr	r3, [r0, #264]
	.loc 1 440 31 view .LVU341
	bic	r3, r3, #16128
	.loc 1 440 20 view .LVU342
	orr	r3, r3, r2, lsl #8
	.loc 1 440 18 view .LVU343
	str	r3, [r0, #264]
	.loc 1 442 1 view .LVU344
	bx	lr
	.cfi_endproc
.LFE262:
	.size	XMC_USIC_CH_TXFIFO_SetSizeTriggerLimit, .-XMC_USIC_CH_TXFIFO_SetSizeTriggerLimit
	.section	.text.XMC_USIC_CH_RXFIFO_SetSizeTriggerLimit,"ax",%progbits
	.align	1
	.global	XMC_USIC_CH_RXFIFO_SetSizeTriggerLimit
	.syntax unified
	.thumb
	.thumb_func
	.fpu fpv4-sp-d16
	.type	XMC_USIC_CH_RXFIFO_SetSizeTriggerLimit, %function
XMC_USIC_CH_RXFIFO_SetSizeTriggerLimit:
.LVL102:
.LFB263:
	.loc 1 447 1 is_stmt 1 view -0
	.cfi_startproc
	@ args = 0, pretend = 0, frame = 0
	@ frame_needed = 0, uses_anonymous_args = 0
	@ link register save eliminated.
	.loc 1 448 3 view .LVU346
	.loc 1 450 3 view .LVU347
	.loc 1 450 49 is_stmt 0 view .LVU348
	ldr	r3, [r0, #268]
	.loc 1 450 31 view .LVU349
	bic	r3, r3, #16128
	.loc 1 450 20 view .LVU350
	orr	r3, r3, r2, lsl #8
	.loc 1 450 18 view .LVU351
	str	r3, [r0, #268]
	.loc 1 452 1 view .LVU352
	bx	lr
	.cfi_endproc
.LFE263:
	.size	XMC_USIC_CH_RXFIFO_SetSizeTriggerLimit, .-XMC_USIC_CH_RXFIFO_SetSizeTriggerLimit
	.section	.text.XMC_USIC_CH_SetInterruptNodePointer,"ax",%progbits
	.align	1
	.global	XMC_USIC_CH_SetInterruptNodePointer
	.syntax unified
	.thumb
	.thumb_func
	.fpu fpv4-sp-d16
	.type	XMC_USIC_CH_SetInterruptNodePointer, %function
XMC_USIC_CH_SetInterruptNodePointer:
.LVL103:
.LFB264:
	.loc 1 457 1 is_stmt 1 view -0
	.cfi_startproc
	@ args = 0, pretend = 0, frame = 0
	@ frame_needed = 0, uses_anonymous_args = 0
	@ link register save eliminated.
	.loc 1 457 1 is_stmt 0 view .LVU354
	push	{r4}
	.cfi_def_cfa_offset 4
	.cfi_offset 4, -4
	.loc 1 458 3 is_stmt 1 view .LVU355
	.loc 1 458 38 is_stmt 0 view .LVU356
	ldr	r3, [r0, #24]
	.loc 1 458 68 view .LVU357
	movs	r4, #7
	lsls	r4, r4, r1
	.loc 1 458 45 view .LVU358
	bic	r3, r3, r4
	.loc 1 459 47 view .LVU359
	lsl	r1, r2, r1
.LVL104:
	.loc 1 458 19 view .LVU360
	orrs	r3, r3, r1
	.loc 1 458 17 view .LVU361
	str	r3, [r0, #24]
	.loc 1 460 1 view .LVU362
	ldr	r4, [sp], #4
	.cfi_restore 4
	.cfi_def_cfa_offset 0
	bx	lr
	.cfi_endproc
.LFE264:
	.size	XMC_USIC_CH_SetInterruptNodePointer, .-XMC_USIC_CH_SetInterruptNodePointer
	.section	.text.XMC_USIC_CH_TXFIFO_SetInterruptNodePointer,"ax",%progbits
	.align	1
	.global	XMC_USIC_CH_TXFIFO_SetInterruptNodePointer
	.syntax unified
	.thumb
	.thumb_func
	.fpu fpv4-sp-d16
	.type	XMC_USIC_CH_TXFIFO_SetInterruptNodePointer, %function
XMC_USIC_CH_TXFIFO_SetInterruptNodePointer:
.LVL105:
.LFB265:
	.loc 1 465 1 is_stmt 1 view -0
	.cfi_startproc
	@ args = 0, pretend = 0, frame = 0
	@ frame_needed = 0, uses_anonymous_args = 0
	@ link register save eliminated.
	.loc 1 465 1 is_stmt 0 view .LVU364
	push	{r4}
	.cfi_def_cfa_offset 4
	.cfi_offset 4, -4
	.loc 1 466 3 is_stmt 1 view .LVU365
	.loc 1 466 39 is_stmt 0 view .LVU366
	ldr	r3, [r0, #264]
	.loc 1 466 70 view .LVU367
	movs	r4, #7
	lsls	r4, r4, r1
	.loc 1 466 47 view .LVU368
	bic	r3, r3, r4
	.loc 1 467 48 view .LVU369
	lsl	r1, r2, r1
.LVL106:
	.loc 1 466 20 view .LVU370
	orrs	r3, r3, r1
	.loc 1 466 18 view .LVU371
	str	r3, [r0, #264]
	.loc 1 468 1 view .LVU372
	ldr	r4, [sp], #4
	.cfi_restore 4
	.cfi_def_cfa_offset 0
	bx	lr
	.cfi_endproc
.LFE265:
	.size	XMC_USIC_CH_TXFIFO_SetInterruptNodePointer, .-XMC_USIC_CH_TXFIFO_SetInterruptNodePointer
	.section	.text.XMC_USIC_CH_RXFIFO_SetInterruptNodePointer,"ax",%progbits
	.align	1
	.global	XMC_USIC_CH_RXFIFO_SetInterruptNodePointer
	.syntax unified
	.thumb
	.thumb_func
	.fpu fpv4-sp-d16
	.type	XMC_USIC_CH_RXFIFO_SetInterruptNodePointer, %function
XMC_USIC_CH_RXFIFO_SetInterruptNodePointer:
.LVL107:
.LFB266:
	.loc 1 473 1 is_stmt 1 view -0
	.cfi_startproc
	@ args = 0, pretend = 0, frame = 0
	@ frame_needed = 0, uses_anonymous_args = 0
	@ link register save eliminated.
	.loc 1 473 1 is_stmt 0 view .LVU374
	push	{r4}
	.cfi_def_cfa_offset 4
	.cfi_offset 4, -4
	.loc 1 474 3 is_stmt 1 view .LVU375
	.loc 1 474 39 is_stmt 0 view .LVU376
	ldr	r3, [r0, #268]
	.loc 1 474 70 view .LVU377
	movs	r4, #7
	lsls	r4, r4, r1
	.loc 1 474 47 view .LVU378
	bic	r3, r3, r4
	.loc 1 475 48 view .LVU379
	lsl	r1, r2, r1
.LVL108:
	.loc 1 474 20 view .LVU380
	orrs	r3, r3, r1
	.loc 1 474 18 view .LVU381
	str	r3, [r0, #268]
	.loc 1 476 1 view .LVU382
	ldr	r4, [sp], #4
	.cfi_restore 4
	.cfi_def_cfa_offset 0
	bx	lr
	.cfi_endproc
.LFE266:
	.size	XMC_USIC_CH_RXFIFO_SetInterruptNodePointer, .-XMC_USIC_CH_RXFIFO_SetInterruptNodePointer
	.section	.text.XMC_USIC_Enable,"ax",%progbits
	.align	1
	.global	XMC_USIC_Enable
	.syntax unified
	.thumb
	.thumb_func
	.fpu fpv4-sp-d16
	.type	XMC_USIC_Enable, %function
XMC_USIC_Enable:
.LVL109:
.LFB267:
	.loc 1 479 1 is_stmt 1 view -0
	.cfi_startproc
	@ args = 0, pretend = 0, frame = 0
	@ frame_needed = 0, uses_anonymous_args = 0
	.loc 1 479 1 is_stmt 0 view .LVU384
	push	{r3, lr}
	.cfi_def_cfa_offset 8
	.cfi_offset 3, -8
	.cfi_offset 14, -4
	.loc 1 480 3 is_stmt 1 view .LVU385
	.loc 1 480 6 is_stmt 0 view .LVU386
	ldr	r3, .L92
	cmp	r0, r3
	beq	.L89
	.loc 1 492 8 is_stmt 1 view .LVU387
	.loc 1 492 11 is_stmt 0 view .LVU388
	ldr	r3, .L92+4
	cmp	r0, r3
	beq	.L90
	.loc 1 505 8 is_stmt 1 view .LVU389
	.loc 1 505 11 is_stmt 0 view .LVU390
	ldr	r3, .L92+8
	cmp	r0, r3
	beq	.L91
.LVL110:
.L81:
	.loc 1 521 1 view .LVU391
	pop	{r3, pc}
.LVL111:
.L89:
	.loc 1 487 5 is_stmt 1 view .LVU392
	mov	r0, #2048
.LVL112:
	.loc 1 487 5 is_stmt 0 view .LVU393
	bl	XMC_SCU_RESET_DeassertPeripheralReset
.LVL113:
	.loc 1 488 5 is_stmt 1 view .LVU394
.L83:
	.loc 1 488 84 discriminator 1 view .LVU395
	.loc 1 488 11 discriminator 1 view .LVU396
	.loc 1 488 12 is_stmt 0 discriminator 1 view .LVU397
	mov	r0, #2048
	bl	XMC_SCU_RESET_IsPeripheralResetAsserted
.LVL114:
	.loc 1 488 11 discriminator 1 view .LVU398
	cmp	r0, #0
	bne	.L83
	b	.L81
.LVL115:
.L90:
	.loc 1 499 5 is_stmt 1 view .LVU399
	ldr	r0, .L92+12
.LVL116:
	.loc 1 499 5 is_stmt 0 view .LVU400
	bl	XMC_SCU_RESET_DeassertPeripheralReset
.LVL117:
	.loc 1 500 5 is_stmt 1 view .LVU401
.L86:
	.loc 1 500 84 discriminator 1 view .LVU402
	.loc 1 500 11 discriminator 1 view .LVU403
	.loc 1 500 12 is_stmt 0 discriminator 1 view .LVU404
	ldr	r0, .L92+12
	bl	XMC_SCU_RESET_IsPeripheralResetAsserted
.LVL118:
	.loc 1 500 11 discriminator 1 view .LVU405
	cmp	r0, #0
	bne	.L86
	b	.L81
.LVL119:
.L91:
	.loc 1 512 5 is_stmt 1 view .LVU406
	ldr	r0, .L92+16
.LVL120:
	.loc 1 512 5 is_stmt 0 view .LVU407
	bl	XMC_SCU_RESET_DeassertPeripheralReset
.LVL121:
	.loc 1 513 5 is_stmt 1 view .LVU408
.L87:
	.loc 1 513 84 discriminator 1 view .LVU409
	.loc 1 513 11 discriminator 1 view .LVU410
	.loc 1 513 12 is_stmt 0 discriminator 1 view .LVU411
	ldr	r0, .L92+16
	bl	XMC_SCU_RESET_IsPeripheralResetAsserted
.LVL122:
	.loc 1 513 11 discriminator 1 view .LVU412
	cmp	r0, #0
	bne	.L87
	b	.L81
.L93:
	.align	2
.L92:
	.word	1073938440
	.word	1208090632
	.word	1208107016
	.word	268435584
	.word	268435712
	.cfi_endproc
.LFE267:
	.size	XMC_USIC_Enable, .-XMC_USIC_Enable
	.section	.text.XMC_USIC_CH_Enable,"ax",%progbits
	.align	1
	.global	XMC_USIC_CH_Enable
	.syntax unified
	.thumb
	.thumb_func
	.fpu fpv4-sp-d16
	.type	XMC_USIC_CH_Enable, %function
XMC_USIC_CH_Enable:
.LVL123:
.LFB251:
	.loc 1 109 1 is_stmt 1 view -0
	.cfi_startproc
	@ args = 0, pretend = 0, frame = 0
	@ frame_needed = 0, uses_anonymous_args = 0
	.loc 1 109 1 is_stmt 0 view .LVU414
	push	{r4, lr}
	.cfi_def_cfa_offset 8
	.cfi_offset 4, -8
	.cfi_offset 14, -4
	mov	r4, r0
	.loc 1 110 3 is_stmt 1 view .LVU415
	.loc 1 112 3 view .LVU416
	.loc 1 112 6 is_stmt 0 view .LVU417
	ldr	r3, .L103
	cmp	r0, r3
	beq	.L95
	.loc 1 112 52 discriminator 1 view .LVU418
	add	r3, r3, #512
	cmp	r0, r3
	beq	.L95
	.loc 1 117 8 is_stmt 1 view .LVU419
	.loc 1 117 11 is_stmt 0 view .LVU420
	ldr	r3, .L103+4
	cmp	r0, r3
	beq	.L98
	.loc 1 117 57 discriminator 1 view .LVU421
	add	r3, r3, #512
	cmp	r0, r3
	beq	.L98
	.loc 1 123 8 is_stmt 1 view .LVU422
	.loc 1 123 11 is_stmt 0 view .LVU423
	ldr	r3, .L103+8
	cmp	r0, r3
	beq	.L100
	.loc 1 123 57 discriminator 1 view .LVU424
	add	r3, r3, #512
	cmp	r0, r3
	bne	.L97
.L100:
	.loc 1 125 5 is_stmt 1 view .LVU425
	ldr	r0, .L103+12
.LVL124:
	.loc 1 125 5 is_stmt 0 view .LVU426
	bl	XMC_USIC_Enable
.LVL125:
	b	.L97
.LVL126:
.L95:
	.loc 1 114 5 is_stmt 1 view .LVU427
	ldr	r0, .L103+16
.LVL127:
	.loc 1 114 5 is_stmt 0 view .LVU428
	bl	XMC_USIC_Enable
.LVL128:
.L97:
	.loc 1 134 3 is_stmt 1 view .LVU429
	.loc 1 134 18 is_stmt 0 view .LVU430
	movs	r3, #3
	str	r3, [r4, #12]
	.loc 1 135 3 is_stmt 1 view .LVU431
.L101:
	.loc 1 138 3 discriminator 1 view .LVU432
	.loc 1 135 9 discriminator 1 view .LVU433
	.loc 1 135 18 is_stmt 0 discriminator 1 view .LVU434
	ldr	r3, [r4, #12]
	.loc 1 135 9 discriminator 1 view .LVU435
	tst	r3, #1
	beq	.L101
	.loc 1 141 3 is_stmt 1 view .LVU436
	.loc 1 141 16 is_stmt 0 view .LVU437
	ldr	r3, [r4, #64]
	bic	r3, r3, #15
	str	r3, [r4, #64]
	.loc 1 142 1 view .LVU438
	pop	{r4, pc}
.LVL129:
.L98:
	.loc 1 119 5 is_stmt 1 view .LVU439
	ldr	r0, .L103+20
.LVL130:
	.loc 1 119 5 is_stmt 0 view .LVU440
	bl	XMC_USIC_Enable
.LVL131:
	b	.L97
.L104:
	.align	2
.L103:
	.word	1073938432
	.word	1208090624
	.word	1208107008
	.word	1208107016
	.word	1073938440
	.word	1208090632
	.cfi_endproc
.LFE251:
	.size	XMC_USIC_CH_Enable, .-XMC_USIC_CH_Enable
	.section	.text.XMC_USIC_Disable,"ax",%progbits
	.align	1
	.global	XMC_USIC_Disable
	.syntax unified
	.thumb
	.thumb_func
	.fpu fpv4-sp-d16
	.type	XMC_USIC_Disable, %function
XMC_USIC_Disable:
.LVL132:
.LFB268:
	.loc 1 524 1 is_stmt 1 view -0
	.cfi_startproc
	@ args = 0, pretend = 0, frame = 0
	@ frame_needed = 0, uses_anonymous_args = 0
	.loc 1 524 1 is_stmt 0 view .LVU442
	push	{r3, lr}
	.cfi_def_cfa_offset 8
	.cfi_offset 3, -8
	.cfi_offset 14, -4
	.loc 1 525 3 is_stmt 1 view .LVU443
	.loc 1 525 6 is_stmt 0 view .LVU444
	ldr	r3, .L113
	cmp	r0, r3
	beq	.L110
	.loc 1 535 8 is_stmt 1 view .LVU445
	.loc 1 535 11 is_stmt 0 view .LVU446
	ldr	r3, .L113+4
	cmp	r0, r3
	beq	.L111
	.loc 1 546 8 is_stmt 1 view .LVU447
	.loc 1 546 11 is_stmt 0 view .LVU448
	ldr	r3, .L113+8
	cmp	r0, r3
	beq	.L112
.LVL133:
.L105:
	.loc 1 561 1 view .LVU449
	pop	{r3, pc}
.LVL134:
.L110:
	.loc 1 528 5 is_stmt 1 view .LVU450
	mov	r0, #2048
.LVL135:
	.loc 1 528 5 is_stmt 0 view .LVU451
	bl	XMC_SCU_RESET_AssertPeripheralReset
.LVL136:
	b	.L105
.LVL137:
.L111:
	.loc 1 538 5 is_stmt 1 view .LVU452
	ldr	r0, .L113+12
.LVL138:
	.loc 1 538 5 is_stmt 0 view .LVU453
	bl	XMC_SCU_RESET_AssertPeripheralReset
.LVL139:
	b	.L105
.LVL140:
.L112:
	.loc 1 549 5 is_stmt 1 view .LVU454
	ldr	r0, .L113+16
.LVL141:
	.loc 1 549 5 is_stmt 0 view .LVU455
	bl	XMC_SCU_RESET_AssertPeripheralReset
.LVL142:
	.loc 1 558 5 is_stmt 1 view .LVU456
	.loc 1 561 1 is_stmt 0 view .LVU457
	b	.L105
.L114:
	.align	2
.L113:
	.word	1073938440
	.word	1208090632
	.word	1208107016
	.word	268435584
	.word	268435712
	.cfi_endproc
.LFE268:
	.size	XMC_USIC_Disable, .-XMC_USIC_Disable
	.text
.Letext0:
	.file 3 "/home/sebin/LIOT/gcc-arm-none-eabi-9-2019-q4-major/arm-none-eabi/include/machine/_default_types.h"
	.file 4 "/home/sebin/LIOT/gcc-arm-none-eabi-9-2019-q4-major/arm-none-eabi/include/sys/_stdint.h"
	.file 5 "/home/sebin/LIOT/gcc-arm-none-eabi-9-2019-q4-major/arm-none-eabi/include/sys/lock.h"
	.file 6 "/home/sebin/LIOT/gcc-arm-none-eabi-9-2019-q4-major/arm-none-eabi/include/sys/_types.h"
	.file 7 "/home/sebin/LIOT/gcc-arm-none-eabi-9-2019-q4-major/lib/gcc/arm-none-eabi/9.2.1/include/stddef.h"
	.file 8 "/home/sebin/LIOT/gcc-arm-none-eabi-9-2019-q4-major/arm-none-eabi/include/sys/reent.h"
	.file 9 "/home/sebin/thesis/zephyrproject/modules/hal/cmsis/CMSIS/Core/Include/core_cm4.h"
	.file 10 "/home/sebin/thesis/zephyrproject/modules/hal/infineon/XMCLib/devices/XMC4500/Include/system_XMC4500.h"
	.file 11 "/home/sebin/thesis/zephyrproject/modules/hal/infineon/XMCLib/devices/XMC4500/Include/XMC4500.h"
	.file 12 "/home/sebin/thesis/zephyrproject/modules/hal/infineon/XMCLib/drivers/inc/xmc4_scu.h"
	.file 13 "/home/sebin/thesis/zephyrproject/modules/hal/infineon/XMCLib/drivers/inc/xmc_scu.h"
	.file 14 "/home/sebin/LIOT/gcc-arm-none-eabi-9-2019-q4-major/arm-none-eabi/include/stdlib.h"