	.cpu cortex-m4
	.eabi_attribute 27, 1
	.eabi_attribute 28, 1
	.eabi_attribute 20, 1
	.eabi_attribute 21, 1
	.eabi_attribute 23, 3
	.eabi_attribute 24, 1
	.eabi_attribute 25, 1
	.eabi_attribute 26, 1
	.eabi_attribute 30, 1
	.eabi_attribute 34, 1
	.eabi_attribute 38, 1
	.eabi_attribute 18, 4
	.file	"ipv4.c"
	.text
.Ltext0:
	.cfi_sections	.debug_frame
	.section	.text.net_ipv4_create_full,"ax",%progbits
	.align	1
	.global	net_ipv4_create_full
	.arch armv7e-m
	.syntax unified
	.thumb
	.thumb_func
	.fpu fpv4-sp-d16
	.type	net_ipv4_create_full, %function
net_ipv4_create_full:
.LVL0:
.LFB939:
	.file 1 "/home/sebin/thesis/zephyrproject/zephyr/subsys/net/ip/ipv4.c"
	.loc 1 41 1 view -0
	.cfi_startproc
	@ args = 16, pretend = 0, frame = 8
	@ frame_needed = 0, uses_anonymous_args = 0
	.loc 1 41 1 is_stmt 0 view .LVU1
	push	{r4, r5, r6, r7, r8, r9, r10, fp, lr}
	.cfi_def_cfa_offset 36
	.cfi_offset 4, -36
	.cfi_offset 5, -32
	.cfi_offset 6, -28
	.cfi_offset 7, -24
	.cfi_offset 8, -20
	.cfi_offset 9, -16
	.cfi_offset 10, -12
	.cfi_offset 11, -8
	.cfi_offset 14, -4
	sub	sp, sp, #12
	.cfi_def_cfa_offset 48
	mov	r5, r0
	mov	r6, r1
	mov	r7, r2
	mov	r8, r3
	ldrh	fp, [sp, #48]
	ldrh	r10, [sp, #56]
	ldrb	r9, [sp, #60]	@ zero_extendqisi2
	.loc 1 42 2 is_stmt 1 view .LVU2
	.loc 1 42 29 is_stmt 0 view .LVU3
	movs	r3, #0
.LVL1:
	.loc 1 42 29 view .LVU4
	str	r3, [sp]
	movs	r3, #20
	str	r3, [sp, #4]
	.loc 1 43 2 is_stmt 1 view .LVU5
	.loc 1 45 2 view .LVU6
	.loc 1 45 36 is_stmt 0 view .LVU7
	mov	r1, sp
.LVL2:
	.loc 1 45 36 view .LVU8
	bl	net_pkt_get_data
.LVL3:
	.loc 1 46 2 is_stmt 1 view .LVU9
	.loc 1 46 5 is_stmt 0 view .LVU10
	cbz	r0, .L4
	mov	r4, r0
	.loc 1 50 2 is_stmt 1 view .LVU11
	.loc 1 50 16 is_stmt 0 view .LVU12
	movs	r3, #69
	strb	r3, [r0]
	.loc 1 51 2 is_stmt 1 view .LVU13
	.loc 1 51 16 is_stmt 0 view .LVU14
	strb	r8, [r0, #1]
	.loc 1 52 2 is_stmt 1 view .LVU15
	.loc 1 52 16 is_stmt 0 view .LVU16
	movs	r3, #0
	strb	r3, [r0, #2]
	strb	r3, [r0, #3]
	.loc 1 53 2 is_stmt 1 view .LVU17
	.loc 1 53 18 is_stmt 0 view .LVU18
	lsr	r3, fp, #8
	strb	r3, [r0, #4]
	.loc 1 54 2 is_stmt 1 view .LVU19
	.loc 1 54 18 is_stmt 0 view .LVU20
	strb	fp, [r0, #5]
	.loc 1 55 2 is_stmt 1 view .LVU21
	.loc 1 55 38 is_stmt 0 view .LVU22
	lsr	r3, r10, #8
	ldrb	r2, [sp, #52]	@ zero_extendqisi2
	orr	r3, r3, r2, lsl #5
	.loc 1 55 22 view .LVU23
	strb	r3, [r0, #6]
	.loc 1 56 2 is_stmt 1 view .LVU24
	.loc 1 56 22 is_stmt 0 view .LVU25
	strb	r10, [r0, #7]
	.loc 1 57 2 is_stmt 1 view .LVU26
	.loc 1 57 16 is_stmt 0 view .LVU27
	strb	r9, [r0, #8]
	.loc 1 59 2 is_stmt 1 view .LVU28
	.loc 1 59 5 is_stmt 0 view .LVU29
	cmp	r9, #0
	beq	.L6
.LVL4:
.L3:
	.loc 1 63 2 is_stmt 1 view .LVU30
	.loc 1 63 18 is_stmt 0 view .LVU31
	movs	r3, #0
	strb	r3, [r4, #9]
	.loc 1 64 2 is_stmt 1 view .LVU32
	.loc 1 64 19 is_stmt 0 view .LVU33
	strb	r3, [r4, #10]
	strb	r3, [r4, #11]
	.loc 1 66 2 is_stmt 1 view .LVU34
.LVL5:
.LBB128:
.LBI128:
	.file 2 "/home/sebin/thesis/zephyrproject/zephyr/include/net/net_ip.h"
	.loc 2 748 20 view .LVU35
.LBE128:
	.loc 2 751 2 view .LVU36
.LBB131:
.LBB129:
	.loc 2 751 7 view .LVU37
	.loc 2 751 138 view .LVU38
.LBB130:
	.loc 2 751 167 view .LVU39
	.loc 2 751 310 view .LVU40
	.loc 2 751 313 is_stmt 0 view .LVU41
	ldr	r3, [r7]	@ unaligned
.LBE130:
	.loc 2 751 147 view .LVU42
	str	r3, [r4, #16]	@ unaligned
	.loc 2 751 325 is_stmt 1 view .LVU43
	.loc 2 751 330 view .LVU44
	.loc 2 751 378 view .LVU45
.LBE129:
.LBE131:
	.loc 2 751 12 view .LVU46
.LVL6:
	.loc 1 67 2 view .LVU47
.LBB132:
.LBI132:
	.loc 2 748 20 view .LVU48
.LBE132:
	.loc 2 751 2 view .LVU49
.LBB135:
.LBB133:
	.loc 2 751 7 view .LVU50
	.loc 2 751 138 view .LVU51
.LBB134:
	.loc 2 751 167 view .LVU52
	.loc 2 751 310 view .LVU53
	.loc 2 751 313 is_stmt 0 view .LVU54
	ldr	r3, [r6]	@ unaligned
.LBE134:
	.loc 2 751 147 view .LVU55
	str	r3, [r4, #12]	@ unaligned
	.loc 2 751 325 is_stmt 1 view .LVU56
	.loc 2 751 330 view .LVU57
	.loc 2 751 378 view .LVU58
.LBE133:
.LBE135:
	.loc 2 751 12 view .LVU59
.LVL7:
	.loc 1 69 2 view .LVU60
.LBB136:
.LBI136:
	.file 3 "/home/sebin/thesis/zephyrproject/zephyr/include/net/net_pkt.h"
	.loc 3 376 20 view .LVU61
.LBB137:
	.loc 3 378 2 view .LVU62
	.loc 3 378 18 is_stmt 0 view .LVU63
	movs	r3, #20
	strb	r3, [r5, #72]
.LVL8:
	.loc 3 378 18 view .LVU64
.LBE137:
.LBE136:
	.loc 1 71 2 is_stmt 1 view .LVU65
	.loc 1 71 9 is_stmt 0 view .LVU66
	mov	r1, sp
	mov	r0, r5
	bl	net_pkt_set_data
.LVL9:
.L1:
	.loc 1 72 1 view .LVU67
	add	sp, sp, #12
	.cfi_remember_state
	.cfi_def_cfa_offset 36
	@ sp needed
	pop	{r4, r5, r6, r7, r8, r9, r10, fp, pc}
.LVL10:
.L6:
	.cfi_restore_state
	.loc 1 60 3 is_stmt 1 view .LVU68
.LBB138:
.LBI138:
	.loc 3 293 30 view .LVU69
.LBB139:
	.loc 3 295 2 view .LVU70
	.loc 3 295 2 is_stmt 0 view .LVU71
.LBE139:
.LBE138:
	.loc 1 60 19 view .LVU72
	ldr	r0, [r5, #24]
.LVL11:
	.loc 1 60 19 view .LVU73
	bl	net_if_ipv4_get_ttl
.LVL12:
	.loc 1 60 17 view .LVU74
	strb	r0, [r4, #8]
	b	.L3
.LVL13:
.L4:
	.loc 1 47 10 view .LVU75
	mvn	r0, #104
.LVL14:
	.loc 1 47 10 view .LVU76
	b	.L1
	.cfi_endproc
.LFE939:
	.size	net_ipv4_create_full, .-net_ipv4_create_full
	.section	.text.net_ipv4_create,"ax",%progbits
	.align	1
	.global	net_ipv4_create
	.syntax unified
	.thumb
	.thumb_func
	.fpu fpv4-sp-d16
	.type	net_ipv4_create, %function
net_ipv4_create:
.LVL15:
.LFB940:
	.loc 1 77 1 is_stmt 1 view -0
	.cfi_startproc
	@ args = 0, pretend = 0, frame = 0
	@ frame_needed = 0, uses_anonymous_args = 0
	.loc 1 77 1 is_stmt 0 view .LVU78
	push	{lr}
	.cfi_def_cfa_offset 4
	.cfi_offset 14, -4
	sub	sp, sp, #20
	.cfi_def_cfa_offset 24
	.loc 1 78 2 is_stmt 1 view .LVU79
.LVL16:
.LBB140:
.LBI140:
	.loc 3 450 23 view .LVU80
.LBB141:
	.loc 3 452 2 view .LVU81
	.loc 3 452 12 is_stmt 0 view .LVU82
	ldrb	r3, [r0, #78]	@ zero_extendqisi2
.LVL17:
	.loc 3 452 12 view .LVU83
.LBE141:
.LBE140:
	.loc 1 78 9 view .LVU84
	str	r3, [sp, #12]
	movs	r3, #0
	str	r3, [sp, #8]
	str	r3, [sp, #4]
	str	r3, [sp]
	bl	net_ipv4_create_full
.LVL18:
	.loc 1 80 1 view .LVU85
	add	sp, sp, #20
	.cfi_def_cfa_offset 4
	@ sp needed
	ldr	pc, [sp], #4
	.cfi_endproc
.LFE940:
	.size	net_ipv4_create, .-net_ipv4_create
	.section	.text.net_ipv4_finalize,"ax",%progbits
	.align	1
	.global	net_ipv4_finalize
	.syntax unified
	.thumb
	.thumb_func
	.fpu fpv4-sp-d16
	.type	net_ipv4_finalize, %function
net_ipv4_finalize:
.LVL19:
.LFB941:
	.loc 1 83 1 is_stmt 1 view -0
	.cfi_startproc
	@ args = 0, pretend = 0, frame = 8
	@ frame_needed = 0, uses_anonymous_args = 0
	.loc 1 83 1 is_stmt 0 view .LVU87
	push	{r4, r5, r6, r7, lr}
	.cfi_def_cfa_offset 20
	.cfi_offset 4, -20
	.cfi_offset 5, -16
	.cfi_offset 6, -12
	.cfi_offset 7, -8
	.cfi_offset 14, -4
	sub	sp, sp, #12
	.cfi_def_cfa_offset 32
	mov	r5, r0
	mov	r6, r1
	.loc 1 84 2 is_stmt 1 view .LVU88
	.loc 1 84 29 is_stmt 0 view .LVU89
	movs	r3, #0
	str	r3, [sp]
	movs	r3, #20
	str	r3, [sp, #4]
	.loc 1 85 2 is_stmt 1 view .LVU90
	.loc 1 87 2 view .LVU91
.LVL20:
.LBB142:
.LBI142:
	.loc 3 1205 20 view .LVU92
.LBB143:
	.loc 3 1207 2 view .LVU93
	.loc 3 1207 17 is_stmt 0 view .LVU94
	ldrb	r3, [r0, #73]	@ zero_extendqisi2
	orr	r3, r3, #1
	strb	r3, [r0, #73]
.LVL21:
	.loc 3 1207 17 view .LVU95
.LBE143:
.LBE142:
	.loc 1 89 2 is_stmt 1 view .LVU96
	.loc 1 89 36 is_stmt 0 view .LVU97
	mov	r1, sp
.LVL22:
	.loc 1 89 36 view .LVU98
	bl	net_pkt_get_data
.LVL23:
	.loc 1 90 2 is_stmt 1 view .LVU99
	.loc 1 90 5 is_stmt 0 view .LVU100
	cmp	r0, #0
	beq	.L19
	mov	r7, r0
	.loc 1 94 2 is_stmt 1 view .LVU101
	.loc 1 95 3 view .LVU102
.LVL24:
.LBB144:
.LBI144:
	.loc 3 461 23 view .LVU103
.LBB145:
	.loc 3 463 2 view .LVU104
	.loc 3 463 12 is_stmt 0 view .LVU105
	ldrb	r2, [r5, #80]	@ zero_extendqisi2
.LVL25:
	.loc 3 463 12 view .LVU106
.LBE145:
.LBE144:
	.loc 1 95 6 view .LVU107
	cbz	r2, .L11
	.loc 1 96 4 is_stmt 1 view .LVU108
.LVL26:
.LBB146:
.LBI146:
	.loc 3 371 23 view .LVU109
.LBB147:
	.loc 3 373 2 view .LVU110
	.loc 3 373 12 is_stmt 0 view .LVU111
	ldrb	r3, [r5, #72]	@ zero_extendqisi2
.LVL27:
	.loc 3 373 12 view .LVU112
.LBE147:
.LBE146:
	.loc 3 463 2 is_stmt 1 view .LVU113
	.loc 1 97 32 is_stmt 0 view .LVU114
	add	r3, r3, r2
	.loc 1 96 33 view .LVU115
	ubfx	r3, r3, #2, #4
	.loc 1 96 25 view .LVU116
	orr	r3, r3, #64
	.loc 1 96 18 view .LVU117
	strb	r3, [r0]
.L11:
	.loc 1 102 2 is_stmt 1 view .LVU118
.LVL28:
.LBB148:
.LBI148:
	.loc 3 961 22 view .LVU119
.LBB149:
	.loc 3 963 2 view .LVU120
	.loc 3 963 9 is_stmt 0 view .LVU121
	ldr	r3, [r5, #8]
.LVL29:
.LBB150:
.LBI150:
	.file 4 "/home/sebin/thesis/zephyrproject/zephyr/include/net/buf.h"
	.loc 4 2465 22 is_stmt 1 view .LVU122
.LBB151:
	.loc 4 2467 2 view .LVU123
	.loc 4 2469 2 view .LVU124
	.loc 4 2469 8 is_stmt 0 view .LVU125
	mov	r2, r3
	.loc 4 2467 9 view .LVU126
	movs	r4, #0
.LVL30:
.L12:
	.loc 4 2469 8 is_stmt 1 view .LVU127
	cbz	r2, .L22
	.loc 4 2470 3 view .LVU128
	.loc 4 2470 15 is_stmt 0 view .LVU129
	ldrh	r1, [r2, #12]
	.loc 4 2470 9 view .LVU130
	add	r4, r4, r1
.LVL31:
	.loc 4 2471 3 is_stmt 1 view .LVU131
	.loc 4 2471 7 is_stmt 0 view .LVU132
	ldr	r2, [r2]
.LVL32:
	.loc 4 2471 7 view .LVU133
	b	.L12
.L22:
	.loc 4 2474 2 is_stmt 1 view .LVU134
.LVL33:
	.loc 4 2474 2 is_stmt 0 view .LVU135
.LBE151:
.LBE150:
.LBE149:
.LBE148:
	.loc 1 102 62 view .LVU136
	ubfx	r4, r4, #8, #8
.LVL34:
.LBB152:
.LBI152:
	.loc 3 961 22 is_stmt 1 view .LVU137
.LBE152:
	.loc 3 963 2 view .LVU138
.LBB155:
.LBB153:
.LBI153:
	.loc 4 2465 22 view .LVU139
.LBB154:
	.loc 4 2467 2 view .LVU140
	.loc 4 2469 2 view .LVU141
	.loc 4 2469 8 is_stmt 0 view .LVU142
	b	.L14
.LVL35:
.L15:
	.loc 4 2470 3 is_stmt 1 view .LVU143
	.loc 4 2470 15 is_stmt 0 view .LVU144
	ldrh	r1, [r3, #12]
	.loc 4 2470 9 view .LVU145
	add	r2, r2, r1
.LVL36:
	.loc 4 2471 3 is_stmt 1 view .LVU146
	.loc 4 2471 7 is_stmt 0 view .LVU147
	ldr	r3, [r3]
.LVL37:
.L14:
	.loc 4 2469 8 is_stmt 1 view .LVU148
	cmp	r3, #0
	bne	.L15
	.loc 4 2474 2 view .LVU149
.LVL38:
	.loc 4 2474 2 is_stmt 0 view .LVU150
.LBE154:
.LBE153:
.LBE155:
	.loc 1 102 105 view .LVU151
	lsls	r2, r2, #8
	uxth	r2, r2
	.loc 1 102 16 view .LVU152
	orrs	r4, r4, r2
	strh	r4, [r7, #2]	@ unaligned
	.loc 1 103 2 is_stmt 1 view .LVU153
	.loc 1 103 18 is_stmt 0 view .LVU154
	strb	r6, [r7, #9]
	.loc 1 105 2 is_stmt 1 view .LVU155
.LVL39:
.LBB156:
.LBI156:
	.loc 3 293 30 view .LVU156
.LBB157:
	.loc 3 295 2 view .LVU157
	.loc 3 295 2 is_stmt 0 view .LVU158
.LBE157:
.LBE156:
	.loc 1 105 6 view .LVU159
	ldr	r0, [r5, #24]
.LVL40:
	.loc 1 105 6 view .LVU160
	bl	net_if_need_calc_tx_checksum
.LVL41:
	.loc 1 105 5 view .LVU161
	cbnz	r0, .L23
.L16:
	.loc 1 109 2 is_stmt 1 view .LVU162
	mov	r1, sp
	mov	r0, r5
	bl	net_pkt_set_data
.LVL42:
	.loc 1 111 2 view .LVU163
	.loc 1 111 5 is_stmt 0 view .LVU164
	cmp	r6, #17
	beq	.L24
	.loc 1 114 9 is_stmt 1 view .LVU165
	.loc 1 114 12 is_stmt 0 view .LVU166
	cmp	r6, #6
	beq	.L25
	.loc 1 117 9 is_stmt 1 view .LVU167
	.loc 1 117 12 is_stmt 0 view .LVU168
	cmp	r6, #1
	beq	.L26
	.loc 1 121 9 view .LVU169
	movs	r0, #0
.LVL43:
.L9:
	.loc 1 122 1 view .LVU170
	add	sp, sp, #12
	.cfi_remember_state
	.cfi_def_cfa_offset 20
	@ sp needed
	pop	{r4, r5, r6, r7, pc}
.LVL44:
.L23:
	.cfi_restore_state
	.loc 1 106 3 is_stmt 1 view .LVU171
	.loc 1 106 22 is_stmt 0 view .LVU172
	mov	r0, r5
	bl	net_calc_chksum_ipv4
.LVL45:
	.loc 1 106 20 view .LVU173
	strh	r0, [r7, #10]	@ unaligned
	b	.L16
.L24:
	.loc 1 113 3 is_stmt 1 view .LVU174
	.loc 1 113 10 is_stmt 0 view .LVU175
	mov	r0, r5
	bl	net_udp_finalize
.LVL46:
	b	.L9
.L25:
	.loc 1 116 3 is_stmt 1 view .LVU176
	.loc 1 116 10 is_stmt 0 view .LVU177
	mov	r0, r5
	bl	net_tcp_finalize
.LVL47:
	b	.L9
.L26:
	.loc 1 118 3 is_stmt 1 view .LVU178
	.loc 1 118 10 is_stmt 0 view .LVU179
	mov	r0, r5
	bl	net_icmpv4_finalize
.LVL48:
	b	.L9
.LVL49:
.L19:
	.loc 1 91 10 view .LVU180
	mvn	r0, #104
.LVL50:
	.loc 1 91 10 view .LVU181
	b	.L9
	.cfi_endproc
.LFE941:
	.size	net_ipv4_finalize, .-net_ipv4_finalize
	.section	.text.net_ipv4_parse_hdr_options,"ax",%progbits
	.align	1
	.global	net_ipv4_parse_hdr_options
	.syntax unified
	.thumb
	.thumb_func
	.fpu fpv4-sp-d16
	.type	net_ipv4_parse_hdr_options, %function
net_ipv4_parse_hdr_options:
.LVL51:
.LFB942:
	.loc 1 128 1 is_stmt 1 view -0
	.cfi_startproc
	@ args = 0, pretend = 0, frame = 48
	@ frame_needed = 0, uses_anonymous_args = 0
	.loc 1 128 1 is_stmt 0 view .LVU183
	push	{r4, r5, r6, r7, r8, r9, r10, fp, lr}
	.cfi_def_cfa_offset 36
	.cfi_offset 4, -36
	.cfi_offset 5, -32
	.cfi_offset 6, -28
	.cfi_offset 7, -24
	.cfi_offset 8, -20
	.cfi_offset 9, -16
	.cfi_offset 10, -12
	.cfi_offset 11, -8
	.cfi_offset 14, -4
	sub	sp, sp, #52
	.cfi_def_cfa_offset 88
	.loc 1 129 2 is_stmt 1 view .LVU184
	.loc 1 130 2 view .LVU185
	.loc 1 131 2 view .LVU186
	.loc 1 133 2 view .LVU187
	.loc 1 133 5 is_stmt 0 view .LVU188
	cmp	r1, #0
	beq	.L38
	mov	r5, r0
	mov	fp, r2
	mov	r7, r1
	.loc 1 137 2 is_stmt 1 view .LVU189
.LVL52:
.LBB158:
.LBI158:
	.loc 3 1811 20 view .LVU190
.LBB159:
	.loc 3 1814 2 view .LVU191
	.loc 3 1814 27 is_stmt 0 view .LVU192
	ldr	r10, [r0, #12]
	.loc 3 1815 2 is_stmt 1 view .LVU193
	.loc 3 1815 27 is_stmt 0 view .LVU194
	ldr	r9, [r0, #16]
.LVL53:
	.loc 3 1815 27 view .LVU195
.LBE159:
.LBE158:
	.loc 1 138 2 is_stmt 1 view .LVU196
	bl	net_pkt_cursor_init
.LVL54:
	.loc 1 140 2 view .LVU197
	.loc 1 140 6 is_stmt 0 view .LVU198
	movs	r1, #20
	mov	r0, r5
	bl	net_pkt_skip
.LVL55:
	.loc 1 140 5 view .LVU199
	mov	r8, r0
	cmp	r0, #0
	bne	.L39
	.loc 1 144 2 is_stmt 1 view .LVU200
.LVL56:
.LBB160:
.LBI160:
	.loc 3 461 23 view .LVU201
.LBB161:
	.loc 3 463 2 view .LVU202
	.loc 3 463 12 is_stmt 0 view .LVU203
	ldrb	r6, [r5, #80]	@ zero_extendqisi2
.LVL57:
	.loc 3 463 12 view .LVU204
.LBE161:
.LBE160:
	.loc 1 146 2 is_stmt 1 view .LVU205
	.loc 1 146 8 is_stmt 0 view .LVU206
	b	.L29
.LVL58:
.L42:
.LBB162:
	.loc 1 158 4 is_stmt 1 view .LVU207
.LBB163:
.LBI163:
	.loc 3 1935 19 view .LVU208
.LBB164:
	.loc 3 1937 2 view .LVU209
	.loc 3 1937 9 is_stmt 0 view .LVU210
	movs	r2, #1
	add	r1, sp, #6
.LVL59:
	.loc 3 1937 9 view .LVU211
	mov	r0, r5
	bl	net_pkt_read
.LVL60:
	.loc 3 1937 9 view .LVU212
.LBE164:
.LBE163:
	.loc 1 158 7 view .LVU213
	cmp	r0, #0
	bne	.L30
	.loc 1 162 4 is_stmt 1 view .LVU214
	.loc 1 162 16 is_stmt 0 view .LVU215
	ldrb	r3, [sp, #6]	@ zero_extendqisi2
	.loc 1 162 7 view .LVU216
	cmp	r3, #1
	bls	.L30
	.loc 1 162 21 discriminator 1 view .LVU217
	cmp	r4, #0
	beq	.L30
	.loc 1 166 4 is_stmt 1 view .LVU218
	.loc 1 166 12 is_stmt 0 view .LVU219
	subs	r3, r3, #2
	strb	r3, [sp, #6]
	.loc 1 167 4 is_stmt 1 view .LVU220
	.loc 1 167 18 is_stmt 0 view .LVU221
	subs	r4, r6, #2
.LVL61:
	.loc 1 167 18 view .LVU222
	uxtb	r4, r4
.LVL62:
	.loc 1 167 18 view .LVU223
	b	.L31
.L33:
	.loc 1 174 3 view .LVU224
	cmp	r3, #7
	beq	.L36
	cmp	r3, #68
	bne	.L35
.L36:
	.loc 1 189 4 is_stmt 1 view .LVU225
	.loc 1 189 8 is_stmt 0 view .LVU226
	add	r1, sp, #8
	mov	r0, r5
	bl	net_pkt_read
.LVL63:
	.loc 1 189 7 view .LVU227
	cbnz	r0, .L30
	.loc 1 193 4 is_stmt 1 view .LVU228
	.loc 1 193 8 is_stmt 0 view .LVU229
	mov	r3, fp
	ldrb	r2, [sp, #6]	@ zero_extendqisi2
	add	r1, sp, #8
	ldrb	r0, [sp, #7]	@ zero_extendqisi2
	blx	r7
.LVL64:
	.loc 1 193 7 view .LVU230
	cbz	r0, .L32
	b	.L30
.L35:
	.loc 1 199 4 is_stmt 1 view .LVU231
	.loc 1 199 8 is_stmt 0 view .LVU232
	mov	r1, r2
	mov	r0, r5
	bl	net_pkt_skip
.LVL65:
	.loc 1 199 7 view .LVU233
	cbnz	r0, .L30
.L32:
	.loc 1 206 3 is_stmt 1 discriminator 1 view .LVU234
	.loc 1 206 18 is_stmt 0 discriminator 1 view .LVU235
	ldrb	r3, [sp, #6]	@ zero_extendqisi2
	subs	r4, r4, r3
.LVL66:
	.loc 1 206 18 discriminator 1 view .LVU236
	uxtb	r6, r4
.LVL67:
.L29:
	.loc 1 206 18 discriminator 1 view .LVU237
.LBE162:
	.loc 1 146 8 is_stmt 1 view .LVU238
	cbz	r6, .L41
.LBB167:
	.loc 1 147 3 view .LVU239
	.loc 1 147 11 is_stmt 0 view .LVU240
	movs	r3, #0
	strb	r3, [sp, #6]
	.loc 1 148 3 is_stmt 1 view .LVU241
	.loc 1 150 3 view .LVU242
.LVL68:
.LBB165:
.LBI165:
	.loc 3 1935 19 view .LVU243
.LBB166:
	.loc 3 1937 2 view .LVU244
	.loc 3 1937 9 is_stmt 0 view .LVU245
	movs	r2, #1
	add	r1, sp, #7
.LVL69:
	.loc 3 1937 9 view .LVU246
	mov	r0, r5
	bl	net_pkt_read
.LVL70:
	.loc 3 1937 9 view .LVU247
.LBE166:
.LBE165:
	.loc 1 150 6 view .LVU248
	cbnz	r0, .L30
	.loc 1 154 3 is_stmt 1 view .LVU249
	.loc 1 154 17 is_stmt 0 view .LVU250
	subs	r4, r6, #1
	uxtb	r4, r4
.LVL71:
	.loc 1 156 3 is_stmt 1 view .LVU251
	.loc 1 156 7 is_stmt 0 view .LVU252
	ldrb	r3, [sp, #7]	@ zero_extendqisi2
	.loc 1 156 6 view .LVU253
	cmp	r3, #1
	bhi	.L42
.L31:
	.loc 1 170 3 is_stmt 1 view .LVU254
	.loc 1 170 15 is_stmt 0 view .LVU255
	ldrb	r2, [sp, #6]	@ zero_extendqisi2
	.loc 1 170 6 view .LVU256
	cmp	r2, r4
	bhi	.L30
	.loc 1 174 3 is_stmt 1 view .LVU257
	ldrb	r3, [sp, #7]	@ zero_extendqisi2
	cmp	r3, #1
	beq	.L32
	bhi	.L33
	cmp	r3, #0
	bne	.L35
	.loc 1 182 4 view .LVU258
	.loc 1 182 7 is_stmt 0 view .LVU259
	cmp	r4, #0
	beq	.L32
.LVL72:
.L30:
	.loc 1 151 11 discriminator 1 view .LVU260
	mvn	r8, #21
.LVL73:
.L27:
	.loc 1 151 11 discriminator 1 view .LVU261
.LBE167:
	.loc 1 212 1 view .LVU262
	mov	r0, r8
	add	sp, sp, #52
	.cfi_remember_state
	.cfi_def_cfa_offset 36
	@ sp needed
	pop	{r4, r5, r6, r7, r8, r9, r10, fp, pc}
.LVL74:
.L41:
	.cfi_restore_state
	.loc 1 209 2 is_stmt 1 view .LVU263
.LBB168:
.LBI168:
	.loc 3 1824 20 view .LVU264
.LBB169:
	.loc 3 1827 2 view .LVU265
	.loc 3 1827 18 is_stmt 0 view .LVU266
	str	r10, [r5, #12]
	.loc 3 1828 2 is_stmt 1 view .LVU267
	.loc 3 1828 18 is_stmt 0 view .LVU268
	str	r9, [r5, #16]
.LVL75:
	.loc 3 1828 18 view .LVU269
.LBE169:
.LBE168:
	.loc 1 211 2 is_stmt 1 view .LVU270
	.loc 1 211 9 is_stmt 0 view .LVU271
	b	.L27
.LVL76:
.L38:
	.loc 1 134 10 view .LVU272
	mvn	r8, #21
	b	.L27
.LVL77:
.L39:
	.loc 1 141 10 view .LVU273
	mvn	r8, #21
	b	.L27
	.cfi_endproc
.LFE942:
	.size	net_ipv4_parse_hdr_options, .-net_ipv4_parse_hdr_options
	.section	.text.net_ipv4_input,"ax",%progbits
	.align	1
	.global	net_ipv4_input
	.syntax unified
	.thumb
	.thumb_func
	.fpu fpv4-sp-d16
	.type	net_ipv4_input, %function
net_ipv4_input:
.LVL78:
.LFB943:
	.loc 1 216 1 is_stmt 1 view -0
	.cfi_startproc
	@ args = 0, pretend = 0, frame = 64
	@ frame_needed = 0, uses_anonymous_args = 0
	.loc 1 216 1 is_stmt 0 view .LVU275
	push	{r4, r5, r6, r7, r8, lr}
	.cfi_def_cfa_offset 24
	.cfi_offset 4, -24
	.cfi_offset 5, -20
	.cfi_offset 6, -16
	.cfi_offset 7, -12
	.cfi_offset 8, -8
	.cfi_offset 14, -4
	sub	sp, sp, #64
	.cfi_def_cfa_offset 88
	mov	r6, r0
	.loc 1 217 2 is_stmt 1 view .LVU276
	.loc 1 217 29 is_stmt 0 view .LVU277
	movs	r2, #0
	str	r2, [sp, #56]
	movs	r3, #20
	str	r3, [sp, #60]
	.loc 1 218 2 is_stmt 1 view .LVU278
	.loc 1 218 38 view .LVU279
	.loc 1 218 65 is_stmt 0 view .LVU280
	add	r1, sp, #48
	str	r1, [sp, #40]
	movs	r1, #8
	str	r1, [sp, #44]
	.loc 1 219 2 is_stmt 1 view .LVU281
	.loc 1 219 38 view .LVU282
	.loc 1 219 65 is_stmt 0 view .LVU283
	add	r1, sp, r3
	str	r1, [sp, #12]
	str	r3, [sp, #16]
	.loc 1 220 2 is_stmt 1 view .LVU284
.LVL79:
.LBB262:
.LBI262:
	.loc 3 961 22 view .LVU285
.LBB263:
	.loc 3 963 2 view .LVU286
	.loc 3 963 9 is_stmt 0 view .LVU287
	ldr	r3, [r0, #8]
.LVL80:
.LBB264:
.LBI264:
	.loc 4 2465 22 is_stmt 1 view .LVU288
.LBB265:
	.loc 4 2467 2 view .LVU289
	.loc 4 2469 2 view .LVU290
.L44:
	.loc 4 2469 8 view .LVU291
	cbz	r3, .L70
	.loc 4 2470 3 view .LVU292
	.loc 4 2470 15 is_stmt 0 view .LVU293
	ldrh	r1, [r3, #12]
	.loc 4 2470 9 view .LVU294
	add	r2, r2, r1
.LVL81:
	.loc 4 2471 3 is_stmt 1 view .LVU295
	.loc 4 2471 7 is_stmt 0 view .LVU296
	ldr	r3, [r3]
.LVL82:
	.loc 4 2471 7 view .LVU297
	b	.L44
.L70:
	.loc 4 2474 2 is_stmt 1 view .LVU298
.LVL83:
	.loc 4 2474 2 is_stmt 0 view .LVU299
.LBE265:
.LBE264:
.LBE263:
.LBE262:
	.loc 1 220 6 view .LVU300
	mov	r4, r2
.LVL84:
	.loc 1 221 2 is_stmt 1 view .LVU301
	.loc 1 222 2 view .LVU302
	.loc 1 223 2 view .LVU303
	.loc 1 224 2 view .LVU304
	.loc 1 225 2 view .LVU305
	.loc 1 226 2 view .LVU306
	.loc 1 227 2 view .LVU307
	.loc 1 235 2 view .LVU308
.LBB266:
.LBI266:
	.loc 3 293 30 view .LVU309
.LBB267:
	.loc 3 295 2 view .LVU310
	.loc 3 295 12 is_stmt 0 view .LVU311
	ldr	r2, [r6, #24]
.LVL85:
	.loc 3 295 12 view .LVU312
.LBE267:
.LBE266:
.LBB268:
.LBI268:
	.file 5 "/home/sebin/thesis/zephyrproject/zephyr/subsys/net/ip/net_stats.h"
	.loc 5 129 20 is_stmt 1 view .LVU313
.LBB269:
	.loc 5 131 6 view .LVU314
	.loc 5 131 7 view .LVU315
	.loc 5 131 9 view .LVU316
	.loc 5 131 25 is_stmt 0 view .LVU317
	ldr	r1, .L76
	ldr	r3, [r1, #52]
	.loc 5 131 30 view .LVU318
	adds	r3, r3, #1
	str	r3, [r1, #52]
	.loc 5 131 36 is_stmt 1 view .LVU319
	.loc 5 131 54 is_stmt 0 view .LVU320
	ldr	r3, [r2, #60]
	.loc 5 131 59 view .LVU321
	adds	r3, r3, #1
	str	r3, [r2, #60]
	.loc 5 131 65 is_stmt 1 view .LVU322
.LVL86:
	.loc 5 131 65 is_stmt 0 view .LVU323
.LBE269:
.LBE268:
	.loc 1 237 2 is_stmt 1 view .LVU324
	.loc 1 237 31 is_stmt 0 view .LVU325
	add	r1, sp, #56
	mov	r0, r6
.LVL87:
	.loc 1 237 31 view .LVU326
	bl	net_pkt_get_data
.LVL88:
	.loc 1 238 2 is_stmt 1 view .LVU327
	.loc 1 238 5 is_stmt 0 view .LVU328
	mov	r7, r0
	cmp	r0, #0
	beq	.L46
	.loc 1 243 2 is_stmt 1 view .LVU329
	.loc 1 243 16 is_stmt 0 view .LVU330
	ldrb	r3, [r0]	@ zero_extendqisi2
	.loc 1 243 10 view .LVU331
	and	r3, r3, #15
	lsls	r3, r3, #2
.LVL89:
	.loc 1 244 2 is_stmt 1 view .LVU332
	.loc 1 244 5 is_stmt 0 view .LVU333
	cmp	r3, #19
	bls	.L46
	.loc 1 249 2 is_stmt 1 view .LVU334
.LVL90:
.LBB270:
.LBI270:
	.loc 3 376 20 view .LVU335
.LBB271:
	.loc 3 378 2 view .LVU336
	.loc 3 378 18 is_stmt 0 view .LVU337
	movs	r2, #20
	strb	r2, [r6, #72]
.LVL91:
	.loc 3 378 18 view .LVU338
.LBE271:
.LBE270:
	.loc 1 251 2 is_stmt 1 view .LVU339
	.loc 1 251 11 is_stmt 0 view .LVU340
	subs	r3, r3, #20
.LVL92:
	.loc 1 251 11 view .LVU341
	uxtb	r5, r3
.LVL93:
	.loc 1 252 2 is_stmt 1 view .LVU342
	.loc 1 252 5 is_stmt 0 view .LVU343
	cmp	r5, #40
	bhi	.L65
	.loc 1 256 2 is_stmt 1 view .LVU344
	.loc 1 256 9 is_stmt 0 view .LVU345
	ldrb	r3, [r0, #8]	@ zero_extendqisi2
.LVL94:
	.loc 1 256 5 view .LVU346
	cmp	r3, #0
	beq	.L46
	.loc 1 260 2 is_stmt 1 view .LVU347
.LVL95:
.LBB272:
.LBI272:
	.loc 3 466 20 view .LVU348
.LBB273:
	.loc 3 469 2 view .LVU349
	.loc 3 469 21 is_stmt 0 view .LVU350
	strb	r5, [r6, #80]
.LVL96:
	.loc 3 469 21 view .LVU351
.LBE273:
.LBE272:
	.loc 1 262 2 is_stmt 1 view .LVU352
	.loc 1 262 31 is_stmt 0 view .LVU353
	ldrh	r3, [r0, #2]	@ unaligned
	.loc 1 262 52 view .LVU354
	lsrs	r1, r3, #8
	orr	r1, r1, r3, lsl #8
	.loc 1 262 13 view .LVU355
	uxth	r1, r1
.LVL97:
	.loc 1 263 2 is_stmt 1 view .LVU356
	.loc 1 263 5 is_stmt 0 view .LVU357
	cmp	r1, r4
	bgt	.L46
	.loc 1 267 9 is_stmt 1 view .LVU358
	.loc 1 267 12 is_stmt 0 view .LVU359
	blt	.L71
.LVL98:
.L48:
	.loc 1 271 2 is_stmt 1 view .LVU360
.LBB274:
.LBI274:
	.loc 2 713 19 view .LVU361
.LBB275:
	.loc 2 715 2 view .LVU362
.LBB276:
	.loc 2 715 43 view .LVU363
	.loc 2 715 158 view .LVU364
	.loc 2 715 161 is_stmt 0 view .LVU365
	ldr	r1, [r7, #12]	@ unaligned
.LBE276:
.LBB277:
	.loc 2 715 209 is_stmt 1 view .LVU366
.LVL99:
	.loc 2 715 324 view .LVU367
.LBE277:
	.loc 2 715 338 is_stmt 0 view .LVU368
	lsrs	r2, r1, #8
	.loc 2 715 344 view .LVU369
	and	r3, r2, #65280
	.loc 2 715 187 view .LVU370
	orr	r2, r3, r1, lsr #24
.LBB278:
	.loc 2 715 376 is_stmt 1 view .LVU371
.LVL100:
	.loc 2 715 491 view .LVU372
.LBE278:
	.loc 2 715 515 is_stmt 0 view .LVU373
	lsls	r3, r1, #8
	and	r3, r3, #16711680
	.loc 2 715 354 view .LVU374
	orrs	r3, r3, r2
.LBB279:
	.loc 2 715 543 is_stmt 1 view .LVU375
.LVL101:
	.loc 2 715 658 view .LVU376
.LBE279:
	.loc 2 715 11 is_stmt 0 view .LVU377
	orr	r3, r3, r1, lsl #24
	.loc 2 715 689 view .LVU378
	and	r3, r3, #-268435456
.LVL102:
	.loc 2 715 689 view .LVU379
.LBE275:
.LBE274:
	.loc 1 271 5 view .LVU380
	cmp	r3, #-536870912
	beq	.L46
	.loc 1 276 2 is_stmt 1 view .LVU381
.LVL103:
.LBB280:
.LBI280:
	.loc 3 293 30 view .LVU382
.LBB281:
	.loc 3 295 2 view .LVU383
	.loc 3 295 12 is_stmt 0 view .LVU384
	ldr	r8, [r6, #24]
.LVL104:
	.loc 3 295 12 view .LVU385
.LBE281:
.LBE280:
	.loc 1 276 67 view .LVU386
	mov	r4, r7
.LVL105:
.LBB282:
.LBI282:
	.loc 2 900 19 is_stmt 1 view .LVU387
.LBB283:
	.loc 2 903 2 view .LVU388
	.loc 2 903 6 is_stmt 0 view .LVU389
	bl	net_ipv4_broadcast_address
.LVL106:
.LBB284:
.LBI284:
	.loc 2 774 19 is_stmt 1 view .LVU390
.LBE284:
.LBE283:
.LBE282:
	.loc 2 777 2 view .LVU391
.LBB290:
.LBB288:
.LBB287:
.LBB285:
	.loc 2 777 26 view .LVU392
	.loc 2 777 143 view .LVU393
	.loc 2 777 146 is_stmt 0 view .LVU394
	ldr	r2, [r4, #12]!	@ unaligned
.LVL107:
	.loc 2 777 146 view .LVU395
.LBE285:
.LBB286:
	.loc 2 777 176 is_stmt 1 view .LVU396
	.loc 2 777 293 view .LVU397
	.loc 2 777 296 is_stmt 0 view .LVU398
	ldr	r3, [r0]	@ unaligned
.LVL108:
	.loc 2 777 296 view .LVU399
.LBE286:
.LBE287:
	.loc 2 903 5 view .LVU400
	cmp	r2, r3
	beq	.L66
	.loc 2 907 2 is_stmt 1 view .LVU401
	.loc 2 907 9 is_stmt 0 view .LVU402
	mov	r1, r4
	mov	r0, r8
.LVL109:
	.loc 2 907 9 view .LVU403
	bl	net_if_ipv4_is_addr_bcast
.LVL110:
.L49:
	.loc 2 907 9 view .LVU404
.LBE288:
.LBE290:
	.loc 1 276 5 view .LVU405
	cbnz	r0, .L46
	.loc 1 281 2 is_stmt 1 view .LVU406
.LVL111:
.LBB291:
.LBI291:
	.loc 2 701 19 view .LVU407
.LBE291:
	.loc 2 703 2 view .LVU408
.LBB293:
.LBB292:
	.loc 2 703 26 view .LVU409
	.loc 2 703 141 view .LVU410
	.loc 2 703 144 is_stmt 0 view .LVU411
	ldr	r3, [r7, #12]	@ unaligned
.LVL112:
	.loc 2 703 144 view .LVU412
.LBE292:
.LBE293:
	.loc 1 281 5 view .LVU413
	cbz	r3, .L46
	.loc 1 286 2 is_stmt 1 view .LVU414
.LVL113:
.LBB294:
.LBI294:
	.loc 3 293 30 view .LVU415
.LBB295:
	.loc 3 295 2 view .LVU416
	.loc 3 295 2 is_stmt 0 view .LVU417
.LBE295:
.LBE294:
	.loc 1 286 6 view .LVU418
	ldr	r0, [r6, #24]
	bl	net_if_need_calc_rx_checksum
.LVL114:
	.loc 1 286 5 view .LVU419
	cbz	r0, .L50
	.loc 1 287 6 discriminator 1 view .LVU420
	mov	r0, r6
	bl	net_calc_chksum_ipv4
.LVL115:
	.loc 1 286 55 discriminator 1 view .LVU421
	cbnz	r0, .L46
.L50:
	.loc 1 292 2 is_stmt 1 view .LVU422
	.loc 1 292 46 is_stmt 0 view .LVU423
	add	r4, r7, #16
.LVL116:
.LBB296:
.LBI296:
	.loc 2 932 19 is_stmt 1 view .LVU424
.LBB297:
	.loc 2 934 1 view .LVU425
	.loc 2 936 2 view .LVU426
	.loc 2 936 8 is_stmt 0 view .LVU427
	movs	r1, #0
	mov	r0, r4
	bl	net_if_ipv4_addr_lookup
.LVL117:
	.loc 2 936 6 view .LVU428
	cmp	r0, #0
	ite	ne
	movne	r0, #1
	moveq	r0, #0
.LVL118:
	.loc 2 937 2 is_stmt 1 view .LVU429
	.loc 2 937 5 is_stmt 0 view .LVU430
	beq	.L72
.LVL119:
.L51:
	.loc 2 941 2 is_stmt 1 view .LVU431
	.loc 2 941 2 is_stmt 0 view .LVU432
.LBE297:
.LBE296:
	.loc 1 292 5 view .LVU433
	cmp	r0, #0
	bne	.L53
.LVL120:
.LBB308:
.LBI308:
	.loc 2 713 19 is_stmt 1 discriminator 1 view .LVU434
.LBB309:
	.loc 2 715 2 discriminator 1 view .LVU435
.LBB310:
	.loc 2 715 43 discriminator 1 view .LVU436
	.loc 2 715 158 discriminator 1 view .LVU437
	.loc 2 715 161 is_stmt 0 discriminator 1 view .LVU438
	ldr	r2, [r7, #16]	@ unaligned
.LBE310:
.LBB311:
	.loc 2 715 209 is_stmt 1 discriminator 1 view .LVU439
.LVL121:
	.loc 2 715 324 discriminator 1 view .LVU440
.LBE311:
	.loc 2 715 338 is_stmt 0 discriminator 1 view .LVU441
	lsrs	r3, r2, #8
	.loc 2 715 344 discriminator 1 view .LVU442
	and	r3, r3, #65280
	.loc 2 715 187 discriminator 1 view .LVU443
	orr	r3, r3, r2, lsr #24
.LBB312:
	.loc 2 715 376 is_stmt 1 discriminator 1 view .LVU444
.LVL122:
	.loc 2 715 491 discriminator 1 view .LVU445
.LBE312:
	.loc 2 715 515 is_stmt 0 discriminator 1 view .LVU446
	lsls	r1, r2, #8
	and	r1, r1, #16711680
	.loc 2 715 354 discriminator 1 view .LVU447
	orrs	r3, r3, r1
.LBB313:
	.loc 2 715 543 is_stmt 1 discriminator 1 view .LVU448
.LVL123:
	.loc 2 715 658 discriminator 1 view .LVU449
.LBE313:
	.loc 2 715 11 is_stmt 0 discriminator 1 view .LVU450
	orr	r3, r3, r2, lsl #24
	.loc 2 715 689 discriminator 1 view .LVU451
	and	r3, r3, #-268435456
.LVL124:
	.loc 2 715 689 discriminator 1 view .LVU452
.LBE309:
.LBE308:
	.loc 1 292 56 discriminator 1 view .LVU453
	cmp	r3, #-536870912
	beq	.L53
	.loc 1 294 12 view .LVU454
	ldrb	r3, [r7, #9]	@ zero_extendqisi2
	.loc 1 293 59 view .LVU455
	cmp	r3, #17
	beq	.L73
.LVL125:
.L46:
	.loc 1 382 2 is_stmt 1 view .LVU456
.LBB314:
.LBI314:
	.loc 3 293 30 view .LVU457
.LBB315:
	.loc 3 295 2 view .LVU458
	.loc 3 295 12 is_stmt 0 view .LVU459
	ldr	r2, [r6, #24]
.LVL126:
	.loc 3 295 12 view .LVU460
.LBE315:
.LBE314:
.LBB316:
.LBI316:
	.loc 5 119 20 is_stmt 1 view .LVU461
.LBB317:
	.loc 5 121 6 view .LVU462
	.loc 5 121 7 view .LVU463
	.loc 5 121 9 view .LVU464
	.loc 5 121 25 is_stmt 0 view .LVU465
	ldr	r1, .L76
	ldr	r3, [r1, #64]
	.loc 5 121 30 view .LVU466
	adds	r3, r3, #1
	str	r3, [r1, #64]
	.loc 5 121 36 is_stmt 1 view .LVU467
	.loc 5 121 54 is_stmt 0 view .LVU468
	ldr	r3, [r2, #72]
	.loc 5 121 59 view .LVU469
	adds	r3, r3, #1
	str	r3, [r2, #72]
	.loc 5 121 65 is_stmt 1 view .LVU470
.LVL127:
	.loc 5 121 65 is_stmt 0 view .LVU471
.LBE317:
.LBE316:
	.loc 1 383 2 is_stmt 1 view .LVU472
	.loc 1 383 9 is_stmt 0 view .LVU473
	movs	r0, #2
.L47:
	.loc 1 384 1 view .LVU474
	add	sp, sp, #64
	.cfi_remember_state
	.cfi_def_cfa_offset 24
	@ sp needed
	pop	{r4, r5, r6, r7, r8, pc}
.LVL128:
.L71:
	.cfi_restore_state
	.loc 1 268 3 is_stmt 1 view .LVU475
	mov	r0, r6
.LVL129:
	.loc 1 268 3 is_stmt 0 view .LVU476
	bl	net_pkt_update_length
.LVL130:
	.loc 1 268 3 view .LVU477
	b	.L48
.LVL131:
.L66:
.LBB318:
.LBB289:
	.loc 2 904 9 view .LVU478
	movs	r0, #1
.LVL132:
	.loc 2 904 9 view .LVU479
	b	.L49
.LVL133:
.L72:
	.loc 2 904 9 view .LVU480
.LBE289:
.LBE318:
.LBB319:
.LBB306:
	.loc 2 938 3 is_stmt 1 view .LVU481
.LBB298:
.LBI298:
	.loc 2 900 19 view .LVU482
.LBB299:
	.loc 2 903 2 view .LVU483
	.loc 2 903 6 is_stmt 0 view .LVU484
	bl	net_ipv4_broadcast_address
.LVL134:
.LBB300:
.LBI300:
	.loc 2 774 19 is_stmt 1 view .LVU485
.LBE300:
.LBE299:
.LBE298:
.LBE306:
.LBE319:
	.loc 2 777 2 view .LVU486
.LBB320:
.LBB307:
.LBB305:
.LBB304:
.LBB303:
.LBB301:
	.loc 2 777 26 view .LVU487
	.loc 2 777 143 view .LVU488
	.loc 2 777 146 is_stmt 0 view .LVU489
	ldr	r2, [r4]	@ unaligned
.LBE301:
.LBB302:
	.loc 2 777 176 is_stmt 1 view .LVU490
.LVL135:
	.loc 2 777 293 view .LVU491
	.loc 2 777 296 is_stmt 0 view .LVU492
	ldr	r3, [r0]	@ unaligned
.LVL136:
	.loc 2 777 296 view .LVU493
.LBE302:
.LBE303:
	.loc 2 903 5 view .LVU494
	cmp	r2, r3
	beq	.L67
	.loc 2 907 2 is_stmt 1 view .LVU495
	.loc 2 907 9 is_stmt 0 view .LVU496
	mov	r1, r4
	movs	r0, #0
.LVL137:
	.loc 2 907 9 view .LVU497
	bl	net_if_ipv4_is_addr_bcast
.LVL138:
	b	.L51
.LVL139:
.L67:
	.loc 2 904 9 view .LVU498
	movs	r0, #1
.LVL140:
	.loc 2 904 9 view .LVU499
	b	.L51
.LVL141:
.L73:
	.loc 2 904 9 view .LVU500
.LBE304:
.LBE305:
.LBE307:
.LBE320:
	.loc 1 295 10 view .LVU501
	bl	net_ipv4_broadcast_address
.LVL142:
.LBB321:
.LBI321:
	.loc 2 774 19 is_stmt 1 view .LVU502
.LBE321:
	.loc 2 777 2 view .LVU503
.LBB324:
.LBB322:
	.loc 2 777 26 view .LVU504
	.loc 2 777 143 view .LVU505
	.loc 2 777 146 is_stmt 0 view .LVU506
	ldr	r3, [r7, #16]	@ unaligned
.LBE322:
.LBB323:
	.loc 2 777 176 is_stmt 1 view .LVU507
.LVL143:
	.loc 2 777 293 view .LVU508
	.loc 2 777 296 is_stmt 0 view .LVU509
	ldr	r2, [r0]	@ unaligned
.LVL144:
	.loc 2 777 296 view .LVU510
.LBE323:
.LBE324:
	.loc 1 294 7 view .LVU511
	cmp	r2, r3
	bne	.L46
.LVL145:
.L53:
	.loc 1 300 10 view .LVU512
	ldrb	r3, [r7, #9]	@ zero_extendqisi2
	.loc 1 299 44 view .LVU513
	cmp	r3, #6
	beq	.L74
.L55:
	.loc 1 306 2 is_stmt 1 view .LVU514
.LVL146:
.LBB325:
.LBI325:
	.loc 3 2173 19 view .LVU515
.LBB326:
	.loc 3 2176 2 view .LVU516
	.loc 3 2176 9 is_stmt 0 view .LVU517
	ldr	r1, [sp, #60]
	mov	r0, r6
	bl	net_pkt_skip
.LVL147:
	.loc 3 2176 9 view .LVU518
.LBE326:
.LBE325:
	.loc 1 308 2 is_stmt 1 view .LVU519
	.loc 1 308 5 is_stmt 0 view .LVU520
	cmp	r5, #0
	bne	.L75
.L57:
	.loc 1 316 2 is_stmt 1 view .LVU521
	ldrb	r3, [r7, #8]	@ zero_extendqisi2
.LVL148:
.LBB327:
.LBI327:
	.loc 3 455 20 view .LVU522
.LBB328:
	.loc 3 458 2 view .LVU523
	.loc 3 458 16 is_stmt 0 view .LVU524
	strb	r3, [r6, #78]
.LVL149:
	.loc 3 458 16 view .LVU525
.LBE328:
.LBE327:
	.loc 1 318 2 is_stmt 1 view .LVU526
.LBB329:
.LBI329:
	.loc 3 334 20 view .LVU527
.LBB330:
	.loc 3 336 2 view .LVU528
	.loc 3 336 14 is_stmt 0 view .LVU529
	ldrb	r3, [r6, #75]	@ zero_extendqisi2
	movs	r2, #1
	bfi	r3, r2, #1, #3
	strb	r3, [r6, #75]
.LVL150:
	.loc 3 336 14 view .LVU530
.LBE330:
.LBE329:
	.loc 1 320 2 is_stmt 1 view .LVU531
.LBB331:
	.loc 1 320 7 view .LVU532
.LBE331:
	.loc 1 320 222 view .LVU533
	.loc 1 324 2 view .LVU534
	.loc 1 324 13 is_stmt 0 view .LVU535
	ldrb	r3, [r7, #9]	@ zero_extendqisi2
	subs	r3, r3, #1
	cmp	r3, #16
	bhi	.L46
	adr	r2, .L60
	ldr	pc, [r2, r3, lsl #2]
	.p2align 2
.L60:
	.word	.L63+1
	.word	.L62+1
	.word	.L46+1
	.word	.L46+1
	.word	.L46+1
	.word	.L61+1
	.word	.L46+1
	.word	.L46+1
	.word	.L46+1
	.word	.L46+1
	.word	.L46+1
	.word	.L46+1
	.word	.L46+1
	.word	.L46+1
	.word	.L46+1
	.word	.L46+1
	.word	.L59+1
	.p2align 1
.L74:
.LVL151:
.LBB332:
.LBI332:
	.loc 3 293 30 is_stmt 1 view .LVU536
.LBB333:
	.loc 3 295 2 view .LVU537
	.loc 3 295 12 is_stmt 0 view .LVU538
	ldr	r8, [r6, #24]
.LVL152:
	.loc 3 295 12 view .LVU539
.LBE333:
.LBE332:
.LBB334:
.LBI334:
	.loc 2 900 19 is_stmt 1 view .LVU540
.LBB335:
	.loc 2 903 2 view .LVU541
	.loc 2 903 6 is_stmt 0 view .LVU542
	bl	net_ipv4_broadcast_address
.LVL153:
.LBB336:
.LBI336:
	.loc 2 774 19 is_stmt 1 view .LVU543
.LBE336:
.LBE335:
.LBE334:
	.loc 2 777 2 view .LVU544
.LBB342:
.LBB340:
.LBB339:
.LBB337:
	.loc 2 777 26 view .LVU545
	.loc 2 777 143 view .LVU546
	.loc 2 777 146 is_stmt 0 view .LVU547
	ldr	r2, [r4]	@ unaligned
.LBE337:
.LBB338:
	.loc 2 777 176 is_stmt 1 view .LVU548
.LVL154:
	.loc 2 777 293 view .LVU549
	.loc 2 777 296 is_stmt 0 view .LVU550
	ldr	r3, [r0]	@ unaligned
.LVL155:
	.loc 2 777 296 view .LVU551
.LBE338:
.LBE339:
	.loc 2 903 5 view .LVU552
	cmp	r2, r3
	beq	.L68
	.loc 2 907 2 is_stmt 1 view .LVU553
	.loc 2 907 9 is_stmt 0 view .LVU554
	mov	r1, r4
	mov	r0, r8
.LVL156:
	.loc 2 907 9 view .LVU555
	bl	net_if_ipv4_is_addr_bcast
.LVL157:
.L56:
	.loc 2 907 9 view .LVU556
.LBE340:
.LBE342:
	.loc 1 300 33 view .LVU557
	cmp	r0, #0
	beq	.L55
	b	.L46
.LVL158:
.L68:
.LBB343:
.LBB341:
	.loc 2 904 9 view .LVU558
	movs	r0, #1
.LVL159:
	.loc 2 904 9 view .LVU559
	b	.L56
.LVL160:
.L75:
	.loc 2 904 9 view .LVU560
.LBE341:
.LBE343:
	.loc 1 310 3 is_stmt 1 view .LVU561
	.loc 1 310 7 is_stmt 0 view .LVU562
	mov	r1, r5
	mov	r0, r6
	bl	net_pkt_skip
.LVL161:
	.loc 1 310 6 view .LVU563
	cmp	r0, #0
	beq	.L57
	b	.L46
.L63:
	.loc 1 326 3 is_stmt 1 view .LVU564
	.loc 1 326 13 is_stmt 0 view .LVU565
	mov	r1, r7
	mov	r0, r6
	bl	net_icmpv4_input
.LVL162:
	.loc 1 327 3 is_stmt 1 view .LVU566
	.loc 1 327 6 is_stmt 0 view .LVU567
	cmp	r0, #2
	bne	.L47
	b	.L46
.LVL163:
.L62:
	.loc 1 333 3 is_stmt 1 view .LVU568
	.loc 1 333 13 is_stmt 0 view .LVU569
	mov	r1, r7
	mov	r0, r6
	bl	net_ipv4_igmp_input
.LVL164:
	.loc 1 334 3 is_stmt 1 view .LVU570
	.loc 1 334 6 is_stmt 0 view .LVU571
	cmp	r0, #2
	bne	.L47
	b	.L46
.LVL165:
.L61:
	.loc 1 340 3 is_stmt 1 view .LVU572
	.loc 1 340 19 is_stmt 0 view .LVU573
	add	r1, sp, #12
	mov	r0, r6
	bl	net_tcp_input
.LVL166:
	.loc 1 340 17 view .LVU574
	str	r0, [sp, #8]
	.loc 1 341 3 is_stmt 1 view .LVU575
	.loc 1 341 6 is_stmt 0 view .LVU576
	cmp	r0, #0
	beq	.L46
.L64:
.LVL167:
	.loc 1 375 2 is_stmt 1 view .LVU577
	.loc 1 375 10 is_stmt 0 view .LVU578
	str	r7, [sp, #4]
	.loc 1 377 2 is_stmt 1 view .LVU579
	.loc 1 377 12 is_stmt 0 view .LVU580
	add	r3, sp, #8
	ldrb	r2, [r7, #9]	@ zero_extendqisi2
	add	r1, sp, #4
	mov	r0, r6
	bl	net_conn_input
.LVL168:
	.loc 1 378 2 is_stmt 1 view .LVU581
	.loc 1 378 5 is_stmt 0 view .LVU582
	cmp	r0, #2
	bne	.L47
	.loc 1 381 1 view .LVU583
	b	.L46
.LVL169:
.L59:
	.loc 1 346 3 is_stmt 1 view .LVU584
	.loc 1 346 19 is_stmt 0 view .LVU585
	add	r1, sp, #40
	mov	r0, r6
	bl	net_udp_input
.LVL170:
	.loc 1 346 17 view .LVU586
	str	r0, [sp, #8]
	.loc 1 347 3 is_stmt 1 view .LVU587
	.loc 1 347 6 is_stmt 0 view .LVU588
	cmp	r0, #0
	bne	.L64
	b	.L46
.LVL171:
.L65:
	.loc 1 253 10 view .LVU589
	movs	r0, #234
.LVL172:
	.loc 1 253 10 view .LVU590
	b	.L47
.L77:
	.align	2
.L76:
	.word	net_stats
	.cfi_endproc
.LFE943:
	.size	net_ipv4_input, .-net_ipv4_input
	.global	log_const_net_ipv4
	.section	.rodata.str1.4,"aMS",%progbits,1
	.align	2
.LC0:
	.ascii	"net_ipv4\000"
	.section	.log_const_net_ipv4,"a"
	.align	2
	.type	log_const_net_ipv4, %object
	.size	log_const_net_ipv4, 8
log_const_net_ipv4:
	.word	.LC0
	.byte	3
	.space	3
	.text
.Letext0:
	.file 6 "/home/sebin/LIOT/gcc-arm-none-eabi-9-2019-q4-major/lib/gcc/arm-none-eabi/9.2.1/include/stddef.h"
	.file 7 "/home/sebin/LIOT/gcc-arm-none-eabi-9-2019-q4-major/arm-none-eabi/include/machine/_default_types.h"
	.file 8 "/home/sebin/LIOT/gcc-arm-none-eabi-9-2019-q4-major/arm-none-eabi/include/sys/_stdint.h"
	.file 9 "/home/sebin/thesis/zephyrproject/zephyr/include/logging/log_instance.h"
	.file 10 "/home/sebin/thesis/zephyrproject/zephyr/include/sys/atomic.h"
	.file 11 "/home/sebin/LIOT/gcc-arm-none-eabi-9-2019-q4-major/arm-none-eabi/include/sys/lock.h"
	.file 12 "/home/sebin/LIOT/gcc-arm-none-eabi-9-2019-q4-major/arm-none-eabi/include/sys/_types.h"
	.file 13 "/home/sebin/LIOT/gcc-arm-none-eabi-9-2019-q4-major/arm-none-eabi/include/sys/reent.h"
	.file 14 "/home/sebin/LIOT/gcc-arm-none-eabi-9-2019-q4-major/arm-none-eabi/include/sys/errno.h"
	.file 15 "/home/sebin/thesis/zephyrproject/zephyr/include/sys/cbprintf_internal.h"
	.file 16 "/home/sebin/thesis/zephyrproject/zephyr/include/logging/log_msg2.h"
	.file 17 "/home/sebin/thesis/zephyrproject/zephyr/include/logging/log_msg.h"
	.file 18 "/home/sebin/thesis/zephyrproject/zephyr/include/logging/log_core.h"
	.file 19 "/home/sebin/thesis/zephyrproject/zephyr/include/sys/dlist.h"
	.file 20 "/home/sebin/thesis/zephyrproject/zephyr/include/sys/rb.h"
	.file 21 "/home/sebin/thesis/zephyrproject/zephyr/include/sys/slist.h"
	.file 22 "/home/sebin/thesis/zephyrproject/zephyr/include/sys/sys_heap.h"
	.file 23 "/home/sebin/thesis/zephyrproject/zephyr/include/kernel_structs.h"
	.file 24 "/home/sebin/thesis/zephyrproject/zephyr/include/kernel/thread.h"
	.file 25 "/home/sebin/thesis/zephyrproject/zephyr/include/kernel.h"
	.file 26 "/home/sebin/thesis/zephyrproject/zephyr/include/arch/arm/aarch32/thread.h"
	.file 27 "/home/sebin/thesis/zephyrproject/zephyr/include/arch/arm/aarch32/exc.h"
	.file 28 "/home/sebin/thesis/zephyrproject/zephyr/include/sw_isr_table.h"
	.file 29 "/home/sebin/thesis/zephyrproject/modules/hal/infineon/XMCLib/devices/XMC4500/Include/system_XMC4500.h"
	.file 30 "/home/sebin/thesis/zephyrproject/modules/hal/cmsis/CMSIS/Core/Include/core_cm4.h"
	.file 31 "/home/sebin/thesis/zephyrproject/zephyr/include/arch/arm/aarch32/mpu/arm_mpu_v7m.h"
	.file 32 "/home/sebin/thesis/zephyrproject/zephyr/include/arch/arm/aarch32/mpu/arm_mpu.h"
	.file 33 "/home/sebin/thesis/zephyrproject/zephyr/include/sys_clock.h"
	.file 34 "/home/sebin/thesis/zephyrproject/zephyr/include/spinlock.h"
	.file 35 "/home/sebin/thesis/zephyrproject/zephyr/include/net/net_timeout.h"
	.file 36 "/home/sebin/thesis/zephyrproject/zephyr/include/net/net_core.h"
	.file 37 "/home/sebin/thesis/zephyrproject/zephyr/include/net/net_linkaddr.h"
	.file 38 "/home/sebin/thesis/zephyrproject/zephyr/include/device.h"
	.file 39 "/home/sebin/thesis/dmz/zephyr_xmc_template/build/zephyr/include/generated/device_extern.h"
	.file 40 "/home/sebin/thesis/zephyrproject/zephyr/include/net/net_if.h"
	.file 41 "/home/sebin/thesis/zephyrproject/zephyr/include/net/net_l2.h"
	.file 42 "/home/sebin/thesis/zephyrproject/zephyr/include/net/net_stats.h"
	.file 43 "/home/sebin/thesis/zephyrproject/zephyr/include/net/net_context.h"
	.file 44 "/home/sebin/thesis/zephyrproject/zephyr/include/net/ptp_time.h"
	.file 45 "/home/sebin/thesis/zephyrproject/zephyr/subsys/net/ip/ipv4.h"
	.file 46 "/home/sebin/thesis/zephyrproject/zephyr/subsys/net/ip/net_private.h"
	.file 47 "/home/sebin/thesis/zephyrproject/zephyr/subsys/net/ip/icmpv4.h"
	.file 48 "/home/sebin/thesis/zephyrproject/zephyr/subsys/net/ip/tcp_internal.h"
	.file 49 "/home/sebin/thesis/zephyrproject/zephyr/subsys/net/ip/connection.h"
	.file 50 "/home/sebin/thesis/zephyrproject/zephyr/subsys/net/ip/udp_internal.h"
	.file 51 "/home/sebin/thesis/zephyrproject/zephyr/include/arch/structs.h"