	.cpu cortex-m4
	.eabi_attribute 27, 1
	.eabi_attribute 28, 1
	.eabi_attribute 20, 1
	.eabi_attribute 21, 1
	.eabi_attribute 23, 3
	.eabi_attribute 24, 1
	.eabi_attribute 25, 1
	.eabi_attribute 26, 1
	.eabi_attribute 30, 1
	.eabi_attribute 34, 1
	.eabi_attribute 38, 1
	.eabi_attribute 18, 4
	.file	"ipv6_nbr.c"
	.text
.Ltext0:
	.cfi_sections	.debug_frame
	.section	.text.iface_cb,"ax",%progbits
	.align	1
	.arch armv7e-m
	.syntax unified
	.thumb
	.thumb_func
	.fpu fpv4-sp-d16
	.type	iface_cb, %function
iface_cb:
.LVL0:
.LFB946:
	.file 1 "/home/sebin/thesis/zephyrproject/zephyr/subsys/net/ip/ipv6_nbr.c"
	.loc 1 198 1 view -0
	.cfi_startproc
	@ args = 0, pretend = 0, frame = 0
	@ frame_needed = 0, uses_anonymous_args = 0
	.loc 1 198 1 is_stmt 0 view .LVU1
	push	{r4, r5, r6, lr}
	.cfi_def_cfa_offset 16
	.cfi_offset 4, -16
	.cfi_offset 5, -12
	.cfi_offset 6, -8
	.cfi_offset 14, -4
	mov	r5, r0
	mov	r6, r1
	.loc 1 199 2 is_stmt 1 view .LVU2
.LVL1:
	.loc 1 200 2 view .LVU3
	.loc 1 202 2 view .LVU4
	.loc 1 202 9 is_stmt 0 view .LVU5
	movs	r4, #0
	.loc 1 202 2 view .LVU6
	b	.L2
.LVL2:
.L3:
	.loc 1 202 21 is_stmt 1 discriminator 2 view .LVU7
	.loc 1 202 22 is_stmt 0 discriminator 2 view .LVU8
	adds	r4, r4, #1
.LVL3:
.L2:
	.loc 1 202 14 is_stmt 1 discriminator 1 view .LVU9
	.loc 1 202 2 is_stmt 0 discriminator 1 view .LVU10
	cmp	r4, #7
	bgt	.L6
.LBB1152:
	.loc 1 203 3 is_stmt 1 view .LVU11
.LVL4:
.LBB1153:
.LBI1153:
	.loc 1 120 31 view .LVU12
.LBB1154:
	.loc 1 122 2 view .LVU13
	.loc 1 122 9 is_stmt 0 view .LVU14
	ldr	r2, .L7
	movs	r3, #84
	mul	r3, r3, r4
	adds	r0, r2, r3
.LVL5:
	.loc 1 122 9 view .LVU15
.LBE1154:
.LBE1153:
	.loc 1 205 3 is_stmt 1 view .LVU16
	.loc 1 205 11 is_stmt 0 view .LVU17
	ldrb	r3, [r2, r3]	@ zero_extendqisi2
	.loc 1 205 6 view .LVU18
	cmp	r3, #0
	beq	.L3
	.loc 1 205 23 discriminator 1 view .LVU19
	ldr	r3, [r0, #8]
	.loc 1 205 17 discriminator 1 view .LVU20
	cmp	r3, r5
	bne	.L3
	.loc 1 209 3 is_stmt 1 view .LVU21
	.loc 1 209 7 is_stmt 0 view .LVU22
	ldr	r3, [r6]
	.loc 1 209 3 view .LVU23
	ldr	r1, [r6, #4]
	blx	r3
.LVL6:
	.loc 1 209 3 view .LVU24
	b	.L3
.LVL7:
.L6:
	.loc 1 209 3 view .LVU25
.LBE1152:
	.loc 1 211 1 view .LVU26
	pop	{r4, r5, r6, pc}
.LVL8:
.L8:
	.loc 1 211 1 view .LVU27
	.align	2
.L7:
	.word	.LANCHOR0
	.cfi_endproc
.LFE946:
	.size	iface_cb, .-iface_cb
	.section	.text.net_neighbor_data_remove,"ax",%progbits
	.align	1
	.global	net_neighbor_data_remove
	.syntax unified
	.thumb
	.thumb_func
	.fpu fpv4-sp-d16
	.type	net_neighbor_data_remove, %function
net_neighbor_data_remove:
.LVL9:
.LFB960:
	.loc 1 653 1 is_stmt 1 view -0
	.cfi_startproc
	@ args = 0, pretend = 0, frame = 0
	@ frame_needed = 0, uses_anonymous_args = 0
	@ link register save eliminated.
	.loc 1 654 2 view .LVU29
.LBB1155:
	.loc 1 654 7 view .LVU30
.LBE1155:
	.loc 1 654 126 view .LVU31
	.loc 1 656 2 view .LVU32
	.loc 1 657 1 is_stmt 0 view .LVU33
	bx	lr
	.cfi_endproc
.LFE960:
	.size	net_neighbor_data_remove, .-net_neighbor_data_remove
	.section	.text.net_neighbor_table_clear,"ax",%progbits
	.align	1
	.global	net_neighbor_table_clear
	.syntax unified
	.thumb
	.thumb_func
	.fpu fpv4-sp-d16
	.type	net_neighbor_table_clear, %function
net_neighbor_table_clear:
.LVL10:
.LFB961:
	.loc 1 660 1 is_stmt 1 view -0
	.cfi_startproc
	@ args = 0, pretend = 0, frame = 0
	@ frame_needed = 0, uses_anonymous_args = 0
	@ link register save eliminated.
	.loc 1 661 2 view .LVU35
.LBB1156:
	.loc 1 661 7 view .LVU36
.LBE1156:
	.loc 1 661 134 view .LVU37
	.loc 1 662 1 is_stmt 0 view .LVU38
	bx	lr
	.cfi_endproc
.LFE961:
	.size	net_neighbor_table_clear, .-net_neighbor_table_clear
	.section	.text.nbr_lookup,"ax",%progbits
	.align	1
	.syntax unified
	.thumb
	.thumb_func
	.fpu fpv4-sp-d16
	.type	nbr_lookup, %function
nbr_lookup:
.LVL11:
.LFB948:
	.loc 1 261 1 is_stmt 1 view -0
	.cfi_startproc
	@ args = 0, pretend = 0, frame = 0
	@ frame_needed = 0, uses_anonymous_args = 0
	.loc 1 261 1 is_stmt 0 view .LVU40
	push	{r3, r4, r5, r6, r7, lr}
	.cfi_def_cfa_offset 24
	.cfi_offset 3, -24
	.cfi_offset 4, -20
	.cfi_offset 5, -16
	.cfi_offset 6, -12
	.cfi_offset 7, -8
	.cfi_offset 14, -4
	mov	r5, r1
	mov	r6, r2
	.loc 1 262 2 is_stmt 1 view .LVU41
	.loc 1 264 2 view .LVU42
.LVL12:
	.loc 1 264 9 is_stmt 0 view .LVU43
	movs	r4, #0
	.loc 1 264 2 view .LVU44
	b	.L12
.LVL13:
.L14:
.LBB1157:
	.loc 1 275 3 is_stmt 1 view .LVU45
.LBB1158:
.LBI1158:
	.file 2 "/home/sebin/thesis/zephyrproject/zephyr/subsys/net/ip/ipv6.h"
	.loc 2 118 41 view .LVU46
.LBB1159:
	.loc 2 120 2 view .LVU47
	.loc 2 120 9 is_stmt 0 view .LVU48
	ldr	r2, .L19
	movs	r3, #84
	mla	r3, r3, r4, r2
	ldr	r0, [r3, #12]
.LVL14:
	.loc 2 120 9 view .LVU49
.LBE1159:
.LBE1158:
.LBB1160:
.LBI1160:
	.file 3 "/home/sebin/thesis/zephyrproject/zephyr/include/net/net_ip.h"
	.loc 3 803 19 is_stmt 1 view .LVU50
.LBB1161:
	.loc 3 806 2 view .LVU51
	.loc 3 806 10 is_stmt 0 view .LVU52
	movs	r2, #16
	mov	r1, r6
	adds	r0, r0, #4
.LVL15:
	.loc 3 806 10 view .LVU53
	bl	memcmp
.LVL16:
	.loc 3 806 10 view .LVU54
.LBE1161:
.LBE1160:
	.loc 1 275 6 view .LVU55
	cbz	r0, .L11
.L13:
	.loc 1 275 6 view .LVU56
.LBE1157:
	.loc 1 264 21 is_stmt 1 discriminator 2 view .LVU57
	.loc 1 264 22 is_stmt 0 discriminator 2 view .LVU58
	adds	r4, r4, #1
.LVL17:
.L12:
	.loc 1 264 14 is_stmt 1 discriminator 1 view .LVU59
	.loc 1 264 2 is_stmt 0 discriminator 1 view .LVU60
	cmp	r4, #7
	bgt	.L18
.LBB1164:
	.loc 1 265 3 is_stmt 1 view .LVU61
.LVL18:
.LBB1162:
.LBI1162:
	.loc 1 120 31 view .LVU62
.LBB1163:
	.loc 1 122 2 view .LVU63
	.loc 1 122 9 is_stmt 0 view .LVU64
	ldr	r0, .L19
	movs	r3, #84
	mul	r3, r3, r4
	adds	r7, r0, r3
.LVL19:
	.loc 1 122 9 view .LVU65
.LBE1163:
.LBE1162:
	.loc 1 267 3 is_stmt 1 view .LVU66
	.loc 1 267 11 is_stmt 0 view .LVU67
	ldrb	r3, [r0, r3]	@ zero_extendqisi2
	.loc 1 267 6 view .LVU68
	cmp	r3, #0
	beq	.L13
	.loc 1 271 3 is_stmt 1 view .LVU69
	.loc 1 271 6 is_stmt 0 view .LVU70
	cmp	r5, #0
	beq	.L14
	.loc 1 271 19 discriminator 1 view .LVU71
	ldr	r3, [r7, #8]
	.loc 1 271 13 discriminator 1 view .LVU72
	cmp	r3, r5
	bne	.L13
	b	.L14
.LVL20:
.L18:
	.loc 1 271 13 discriminator 1 view .LVU73
.LBE1164:
	.loc 1 280 8 view .LVU74
	movs	r7, #0
.L11:
	.loc 1 281 1 view .LVU75
	mov	r0, r7
	pop	{r3, r4, r5, r6, r7, pc}
.LVL21:
.L20:
	.loc 1 281 1 view .LVU76
	.align	2
.L19:
	.word	.LANCHOR0
	.cfi_endproc
.LFE948:
	.size	nbr_lookup, .-nbr_lookup
	.section	.text.ipv6_nbr_set_state,"ax",%progbits
	.align	1
	.syntax unified
	.thumb
	.thumb_func
	.fpu fpv4-sp-d16
	.type	ipv6_nbr_set_state, %function
ipv6_nbr_set_state:
.LVL22:
.LFB945:
	.loc 1 142 1 is_stmt 1 view -0
	.cfi_startproc
	@ args = 0, pretend = 0, frame = 0
	@ frame_needed = 0, uses_anonymous_args = 0
	.loc 1 142 1 is_stmt 0 view .LVU78
	push	{r3, r4, r5, lr}
	.cfi_def_cfa_offset 16
	.cfi_offset 3, -16
	.cfi_offset 4, -12
	.cfi_offset 5, -8
	.cfi_offset 14, -4
	.loc 1 143 2 is_stmt 1 view .LVU79
.LVL23:
.LBB1165:
.LBI1165:
	.loc 2 118 41 view .LVU80
.LBB1166:
	.loc 2 120 2 view .LVU81
	.loc 2 120 9 is_stmt 0 view .LVU82
	ldr	r2, [r0, #12]
.LVL24:
	.loc 2 120 9 view .LVU83
.LBE1166:
.LBE1165:
	.loc 1 143 41 view .LVU84
	ldrb	r3, [r2, #48]	@ zero_extendqisi2
	.loc 1 143 5 view .LVU85
	cmp	r3, r1
	beq	.L21
	mov	r4, r0
.LVL25:
	.loc 2 120 2 is_stmt 1 view .LVU86
	.loc 1 143 49 is_stmt 0 view .LVU87
	cmp	r3, #5
	beq	.L21
	.loc 1 148 2 is_stmt 1 view .LVU88
.LBB1167:
	.loc 1 148 7 view .LVU89
.LBE1167:
	.loc 1 148 212 view .LVU90
	.loc 1 152 2 view .LVU91
.LVL26:
	.loc 2 120 2 view .LVU92
	.loc 1 152 32 is_stmt 0 view .LVU93
	strb	r1, [r2, #48]
	.loc 1 154 2 is_stmt 1 view .LVU94
.LVL27:
.LBB1168:
.LBI1168:
	.loc 2 118 41 view .LVU95
.LBB1169:
	.loc 2 120 2 view .LVU96
	.loc 2 120 9 is_stmt 0 view .LVU97
	ldr	r3, [r0, #12]
.LVL28:
	.loc 2 120 9 view .LVU98
.LBE1169:
.LBE1168:
	.loc 1 154 28 view .LVU99
	ldrb	r2, [r3, #48]	@ zero_extendqisi2
	.loc 1 154 5 view .LVU100
	cmp	r2, #2
	beq	.L28
.LVL29:
.L21:
	.loc 1 190 1 view .LVU101
	pop	{r3, r4, r5, pc}
.LVL30:
.L28:
	.loc 1 155 3 is_stmt 1 view .LVU102
	.loc 1 155 25 is_stmt 0 view .LVU103
	ldr	r2, .L30
	ldr	r2, [r2]
	.loc 1 155 6 view .LVU104
	cmn	r2, #2
	beq	.L23
	.loc 1 156 4 is_stmt 1 view .LVU105
	.loc 1 156 57 is_stmt 0 view .LVU106
	adds	r0, r2, #1
.LVL31:
	.loc 1 156 57 view .LVU107
	ldr	r1, .L30
.LVL32:
	.loc 1 156 57 view .LVU108
	str	r0, [r1]
.LVL33:
	.loc 2 120 2 is_stmt 1 view .LVU109
	.loc 1 156 42 is_stmt 0 view .LVU110
	str	r2, [r3, #56]
	.loc 1 156 42 view .LVU111
	b	.L21
.LVL34:
.L23:
.LBB1170:
	.loc 1 161 4 is_stmt 1 view .LVU112
	.loc 1 162 4 view .LVU113
	.loc 1 163 4 view .LVU114
	.loc 1 165 4 view .LVU115
.LBB1171:
.LBI1171:
	.file 4 "/home/sebin/thesis/dmz/zephyr_xmc_template/build/zephyr/include/generated/syscalls/kernel.h"
	.loc 4 1015 19 view .LVU116
.LBB1172:
	.loc 4 1025 2 view .LVU117
	.loc 4 1025 7 view .LVU118
	.loc 4 1025 55 view .LVU119
	.loc 4 1026 2 view .LVU120
	.loc 4 1026 9 is_stmt 0 view .LVU121
	mov	r2, #-1
	mov	r3, #-1
	ldr	r0, .L30+4
.LVL35:
	.loc 4 1026 9 view .LVU122
	bl	z_impl_k_sem_take
.LVL36:
	.loc 4 1026 9 view .LVU123
.LBE1172:
.LBE1171:
	.loc 1 167 4 is_stmt 1 view .LVU124
	.loc 1 167 18 is_stmt 0 view .LVU125
	movs	r3, #0
	ldr	r2, .L30
	str	r3, [r2]
	.loc 1 169 4 is_stmt 1 view .LVU126
.LVL37:
	.loc 1 169 4 is_stmt 0 view .LVU127
	b	.L24
.LVL38:
.L25:
	.loc 1 169 23 is_stmt 1 discriminator 2 view .LVU128
	.loc 1 169 24 is_stmt 0 discriminator 2 view .LVU129
	adds	r3, r3, #1
.LVL39:
.L24:
	.loc 1 169 16 is_stmt 1 discriminator 1 view .LVU130
	.loc 1 169 4 is_stmt 0 discriminator 1 view .LVU131
	cmp	r3, #7
	bgt	.L29
	.loc 1 170 5 is_stmt 1 view .LVU132
.LVL40:
.LBB1173:
.LBI1173:
	.loc 1 120 31 view .LVU133
.LBE1173:
.LBE1170:
	.loc 1 122 2 view .LVU134
.LBB1178:
	.loc 1 171 5 view .LVU135
	.loc 1 171 17 is_stmt 0 view .LVU136
	movs	r2, #84
	mul	r2, r2, r3
	ldr	r1, .L30+8
	ldrb	r2, [r1, r2]	@ zero_extendqisi2
	.loc 1 171 12 view .LVU137
	cmp	r2, #0
	beq	.L25
	.loc 1 175 5 is_stmt 1 view .LVU138
.LVL41:
.LBB1174:
.LBI1174:
	.loc 2 118 41 view .LVU139
.LBB1175:
	.loc 2 120 2 view .LVU140
	.loc 2 120 9 is_stmt 0 view .LVU141
	ldr	r2, [r4, #12]
.LVL42:
	.loc 2 120 9 view .LVU142
.LBE1175:
.LBE1174:
	.loc 1 176 5 is_stmt 1 view .LVU143
	.loc 1 176 8 is_stmt 0 view .LVU144
	cmp	r2, #0
	beq	.L25
	.loc 1 180 5 is_stmt 1 view .LVU145
	.loc 1 180 13 is_stmt 0 view .LVU146
	ldrb	r1, [r2, #48]	@ zero_extendqisi2
	.loc 1 180 8 view .LVU147
	cmp	r1, #2
	bne	.L25
	.loc 1 184 5 is_stmt 1 view .LVU148
	.loc 1 184 40 is_stmt 0 view .LVU149
	ldr	r0, .L30
	ldr	r1, [r0]
	adds	r5, r1, #1
	str	r5, [r0]
	.loc 1 184 25 view .LVU150
	str	r1, [r2, #56]
	b	.L25
.LVL43:
.L29:
	.loc 1 187 4 is_stmt 1 view .LVU151
.LBB1176:
.LBI1176:
	.loc 4 1033 20 view .LVU152
.LBB1177:
	.loc 4 1042 2 view .LVU153
	.loc 4 1042 7 view .LVU154
	.loc 4 1042 55 view .LVU155
	.loc 4 1043 2 view .LVU156
	ldr	r0, .L30+4
	bl	z_impl_k_sem_give
.LVL44:
	.loc 4 1043 2 is_stmt 0 view .LVU157
	b	.L21
.L31:
	.align	2
.L30:
	.word	.LANCHOR1
	.word	.LANCHOR2
	.word	.LANCHOR0
.LBE1177:
.LBE1176:
.LBE1178:
	.cfi_endproc
.LFE945:
	.size	ipv6_nbr_set_state, .-ipv6_nbr_set_state
	.section	.text.nbr_init,"ax",%progbits
	.align	1
	.syntax unified
	.thumb
	.thumb_func
	.fpu fpv4-sp-d16
	.type	nbr_init, %function
nbr_init:
.LVL45:
.LFB953:
	.loc 1 406 1 is_stmt 1 view -0
	.cfi_startproc
	@ args = 4, pretend = 0, frame = 16
	@ frame_needed = 0, uses_anonymous_args = 0
	.loc 1 406 1 is_stmt 0 view .LVU159
	push	{r4, r5, r6, r7, r8, lr}
	.cfi_def_cfa_offset 24
	.cfi_offset 4, -24
	.cfi_offset 5, -20
	.cfi_offset 6, -16
	.cfi_offset 7, -12
	.cfi_offset 8, -8
	.cfi_offset 14, -4
	sub	sp, sp, #16
	.cfi_def_cfa_offset 40
	mov	r4, r0
	mov	r6, r2
	mov	r8, r3
	.loc 1 407 2 is_stmt 1 view .LVU160
	.loc 1 407 11 is_stmt 0 view .LVU161
	movs	r3, #255
.LVL46:
	.loc 1 407 11 view .LVU162
	strb	r3, [r0, #1]
	.loc 1 408 2 is_stmt 1 view .LVU163
	.loc 1 408 13 is_stmt 0 view .LVU164
	str	r1, [r0, #8]
	.loc 1 410 2 is_stmt 1 view .LVU165
.LBB1179:
	.loc 1 410 7 view .LVU166
.LVL47:
.LBB1180:
.LBI1180:
	.loc 2 118 41 view .LVU167
.LBB1181:
	.loc 2 120 2 view .LVU168
	.loc 2 120 9 is_stmt 0 view .LVU169
	ldr	r7, [r0, #12]
.LVL48:
	.loc 2 120 9 view .LVU170
.LBE1181:
.LBE1180:
	.loc 1 410 152 is_stmt 1 view .LVU171
.LBB1182:
	.loc 1 410 181 view .LVU172
	.loc 1 410 278 view .LVU173
	.loc 1 410 281 is_stmt 0 view .LVU174
	mov	r5, sp
	ldr	r0, [r2]	@ unaligned
.LVL49:
	.loc 1 410 281 view .LVU175
	ldr	r1, [r2, #4]	@ unaligned
.LVL50:
	.loc 1 410 281 view .LVU176
	ldr	r2, [r2, #8]	@ unaligned
.LVL51:
	.loc 1 410 281 view .LVU177
	ldr	r3, [r6, #12]	@ unaligned
	stmia	r5!, {r0, r1, r2, r3}
.LBE1182:
	.loc 1 410 161 view .LVU178
	mov	r5, sp
	ldmia	r5!, {r0, r1, r2, r3}
	str	r0, [r7, #4]	@ unaligned
.LVL52:
	.loc 1 410 161 view .LVU179
	str	r1, [r7, #8]	@ unaligned
	str	r2, [r7, #12]	@ unaligned
	str	r3, [r7, #16]	@ unaligned
	.loc 1 410 293 is_stmt 1 view .LVU180
	.loc 1 410 298 view .LVU181
	.loc 1 410 346 view .LVU182
.LBE1179:
	.loc 1 410 12 view .LVU183
	.loc 1 411 2 view .LVU184
	ldrb	r1, [sp, #40]	@ zero_extendqisi2
	mov	r0, r4
	bl	ipv6_nbr_set_state
.LVL53:
	.loc 1 412 2 view .LVU185
.LBB1183:
.LBI1183:
	.loc 2 118 41 view .LVU186
.LBB1184:
	.loc 2 120 2 view .LVU187
	.loc 2 120 9 is_stmt 0 view .LVU188
	ldr	r3, [r4, #12]
.LVL54:
	.loc 2 120 9 view .LVU189
.LBE1184:
.LBE1183:
	.loc 1 412 36 view .LVU190
	strb	r8, [r3, #53]
	.loc 1 413 2 is_stmt 1 view .LVU191
.LVL55:
.LBB1185:
.LBI1185:
	.loc 2 118 41 view .LVU192
.LBB1186:
	.loc 2 120 2 view .LVU193
	.loc 2 120 9 is_stmt 0 view .LVU194
	ldr	r2, [r4, #12]
.LVL56:
	.loc 2 120 9 view .LVU195
.LBE1186:
.LBE1185:
	.loc 1 413 34 view .LVU196
	movs	r3, #0
	str	r3, [r2]
	.loc 1 414 2 is_stmt 1 view .LVU197
.LVL57:
.LBB1187:
.LBI1187:
	.loc 2 118 41 view .LVU198
.LBB1188:
	.loc 2 120 2 view .LVU199
	.loc 2 120 9 is_stmt 0 view .LVU200
	ldr	r2, [r4, #12]
.LVL58:
	.loc 2 120 9 view .LVU201
.LBE1188:
.LBE1187:
	.loc 1 414 34 view .LVU202
	movs	r0, #0
	movs	r1, #0
	strd	r0, [r2, #40]
	.loc 1 417 2 is_stmt 1 view .LVU203
.LVL59:
.LBB1189:
.LBI1189:
	.loc 2 118 41 view .LVU204
.LBB1190:
	.loc 2 120 2 view .LVU205
	.loc 2 120 9 is_stmt 0 view .LVU206
	ldr	r2, [r4, #12]
.LVL60:
	.loc 2 120 9 view .LVU207
.LBE1190:
.LBE1189:
	.loc 1 417 36 view .LVU208
	strd	r0, [r2, #24]
	.loc 1 418 2 is_stmt 1 view .LVU209
.LVL61:
.LBB1191:
.LBI1191:
	.loc 2 118 41 view .LVU210
.LBB1192:
	.loc 2 120 2 view .LVU211
	.loc 2 120 9 is_stmt 0 view .LVU212
	ldr	r2, [r4, #12]
.LVL62:
	.loc 2 120 9 view .LVU213
.LBE1192:
.LBE1191:
	.loc 1 418 44 view .LVU214
	str	r3, [r2, #32]
	.loc 1 420 1 view .LVU215
	add	sp, sp, #16
	.cfi_def_cfa_offset 24
	@ sp needed
	pop	{r4, r5, r6, r7, r8, pc}
	.loc 1 420 1 view .LVU216
	.cfi_endproc
.LFE953:
	.size	nbr_init, .-nbr_init
	.section	.text.nbr_new,"ax",%progbits
	.align	1
	.syntax unified
	.thumb
	.thumb_func
	.fpu fpv4-sp-d16
	.type	nbr_new, %function
nbr_new:
.LVL63:
.LFB954:
	.loc 1 425 1 is_stmt 1 view -0
	.cfi_startproc
	@ args = 0, pretend = 0, frame = 0
	@ frame_needed = 0, uses_anonymous_args = 0
	.loc 1 425 1 is_stmt 0 view .LVU218
	push	{r4, r5, r6, r7, r8, lr}
	.cfi_def_cfa_offset 24
	.cfi_offset 4, -24
	.cfi_offset 5, -20
	.cfi_offset 6, -16
	.cfi_offset 7, -12
	.cfi_offset 8, -8
	.cfi_offset 14, -4
	sub	sp, sp, #8
	.cfi_def_cfa_offset 32
	mov	r4, r0
	mov	r5, r1
	mov	r6, r2
	mov	r7, r3
	.loc 1 426 2 is_stmt 1 view .LVU219
	.loc 1 426 24 is_stmt 0 view .LVU220
	ldr	r0, .L37
.LVL64:
	.loc 1 426 24 view .LVU221
	bl	net_nbr_get
.LVL65:
	.loc 1 428 2 is_stmt 1 view .LVU222
	.loc 1 428 5 is_stmt 0 view .LVU223
	mov	r8, r0
	cbz	r0, .L34
	.loc 1 432 2 is_stmt 1 view .LVU224
	str	r7, [sp]
	mov	r3, r6
	mov	r2, r5
	mov	r1, r4
	bl	nbr_init
.LVL66:
	.loc 1 434 2 view .LVU225
.LBB1193:
	.loc 1 434 7 view .LVU226
.LBE1193:
	.loc 1 434 222 view .LVU227
	.loc 1 438 2 view .LVU228
.L34:
	.loc 1 439 1 is_stmt 0 view .LVU229
	mov	r0, r8
	add	sp, sp, #8
	.cfi_def_cfa_offset 24
	@ sp needed
	pop	{r4, r5, r6, r7, r8, pc}
.LVL67:
.L38:
	.loc 1 439 1 view .LVU230
	.align	2
.L37:
	.word	.LANCHOR3
	.cfi_endproc
.LFE954:
	.size	nbr_new, .-nbr_new
	.section	.text.z_log_msg2_runtime_create,"ax",%progbits
	.align	1
	.syntax unified
	.thumb
	.thumb_func
	.fpu fpv4-sp-d16
	.type	z_log_msg2_runtime_create, %function
z_log_msg2_runtime_create:
.LVL68:
.LFB40:
	.file 5 "/home/sebin/thesis/zephyrproject/zephyr/include/logging/log_msg2.h"
	.loc 5 490 1 is_stmt 1 view -0
	.cfi_startproc
	@ args = 8, pretend = 0, frame = 8
	@ frame_needed = 0, uses_anonymous_args = 1
	.loc 5 490 1 is_stmt 0 view .LVU232
	push	{r4, lr}
	.cfi_def_cfa_offset 8
	.cfi_offset 4, -8
	.cfi_offset 14, -4
	sub	sp, sp, #24
	.cfi_def_cfa_offset 32
	.loc 5 491 2 is_stmt 1 view .LVU233
	.loc 5 493 1 view .LVU234
	add	r4, sp, #40
	str	r4, [sp, #20]
	.loc 5 494 2 view .LVU235
.LVL69:
.LBB1194:
.LBI1194:
	.file 6 "/home/sebin/thesis/dmz/zephyr_xmc_template/build/zephyr/include/generated/syscalls/log_msg2.h"
	.loc 6 59 20 view .LVU236
.LBB1195:
	.loc 6 72 2 view .LVU237
	.loc 6 72 7 view .LVU238
	.loc 6 72 55 view .LVU239
	.loc 6 73 2 view .LVU240
	str	r4, [sp, #8]
	ldr	r4, [sp, #36]
	str	r4, [sp, #4]
	ldr	r4, [sp, #32]
	str	r4, [sp]
	bl	z_impl_z_log_msg2_runtime_vcreate
.LVL70:
	.loc 6 73 2 is_stmt 0 view .LVU241
.LBE1195:
.LBE1194:
	.loc 5 496 1 is_stmt 1 view .LVU242
	.loc 5 497 1 is_stmt 0 view .LVU243
	add	sp, sp, #24
	.cfi_def_cfa_offset 8
	@ sp needed
	pop	{r4, pc}
	.loc 5 497 1 view .LVU244
	.cfi_endproc
.LFE40:
	.size	z_log_msg2_runtime_create, .-z_log_msg2_runtime_create
	.section	.rodata.dbg_update_neighbor_lladdr.str1.4,"aMS",%progbits,1
	.align	2
.LC0:
	.ascii	"%s\000"
	.section	.text.dbg_update_neighbor_lladdr,"ax",%progbits
	.align	1
	.syntax unified
	.thumb
	.thumb_func
	.fpu fpv4-sp-d16
	.type	dbg_update_neighbor_lladdr, %function
dbg_update_neighbor_lladdr:
.LVL71:
.LFB955:
	.loc 1 444 1 is_stmt 1 view -0
	.cfi_startproc
	@ args = 0, pretend = 0, frame = 24
	@ frame_needed = 0, uses_anonymous_args = 0
	.loc 1 444 1 is_stmt 0 view .LVU246
	push	{lr}
	.cfi_def_cfa_offset 4
	.cfi_offset 14, -4
	sub	sp, sp, #28
	.cfi_def_cfa_offset 32
	mov	r0, r1
.LVL72:
	.loc 1 445 2 is_stmt 1 view .LVU247
	.loc 1 447 2 view .LVU248
.LBB1196:
.LBI1196:
	.file 7 "/home/sebin/thesis/zephyrproject/zephyr/subsys/net/ip/net_private.h"
	.loc 7 206 21 view .LVU249
.LBB1197:
	.loc 7 208 2 view .LVU250
	.loc 7 210 2 view .LVU251
	.loc 7 210 9 is_stmt 0 view .LVU252
	movs	r3, #24
	ldr	r2, .L43
.LVL73:
	.loc 7 210 9 view .LVU253
	ldrb	r1, [r1, #1]	@ zero_extendqisi2
.LVL74:
	.loc 7 210 9 view .LVU254
	adds	r0, r0, #2
.LVL75:
	.loc 7 210 9 view .LVU255
	bl	net_sprint_ll_addr_buf
.LVL76:
	.loc 7 210 9 view .LVU256
	mov	r3, r0
.LVL77:
	.loc 7 210 9 view .LVU257
.LBE1197:
.LBE1196:
	.loc 1 447 2 view .LVU258
	ldr	r2, .L43+4
	movs	r1, #24
	mov	r0, sp
	bl	snprintk
.LVL78:
	.loc 1 450 2 is_stmt 1 view .LVU259
.LBB1198:
	.loc 1 450 7 view .LVU260
.LBE1198:
	.loc 1 450 263 view .LVU261
	.loc 1 455 1 is_stmt 0 view .LVU262
	add	sp, sp, #28
	.cfi_def_cfa_offset 4
	@ sp needed
	ldr	pc, [sp], #4
.L44:
	.align	2
.L43:
	.word	.LANCHOR4
	.word	.LC0
	.cfi_endproc
.LFE955:
	.size	dbg_update_neighbor_lladdr, .-dbg_update_neighbor_lladdr
	.section	.text.dbg_update_neighbor_lladdr_raw,"ax",%progbits
	.align	1
	.syntax unified
	.thumb
	.thumb_func
	.fpu fpv4-sp-d16
	.type	dbg_update_neighbor_lladdr_raw, %function
dbg_update_neighbor_lladdr_raw:
.LVL79:
.LFB956:
	.loc 1 460 1 is_stmt 1 view -0
	.cfi_startproc
	@ args = 0, pretend = 0, frame = 8
	@ frame_needed = 0, uses_anonymous_args = 0
	.loc 1 460 1 is_stmt 0 view .LVU264
	push	{lr}
	.cfi_def_cfa_offset 4
	.cfi_offset 14, -4
	sub	sp, sp, #12
	.cfi_def_cfa_offset 16
	.loc 1 461 2 is_stmt 1 view .LVU265
	.loc 1 461 22 is_stmt 0 view .LVU266
	movs	r3, #0
	str	r3, [sp, #4]
	str	r0, [sp]
	.loc 1 462 20 view .LVU267
	ldrb	r3, [r1, #1]	@ zero_extendqisi2
	.loc 1 461 22 view .LVU268
	strb	r3, [sp, #4]
	.loc 1 466 2 is_stmt 1 view .LVU269
	mov	r0, sp
.LVL80:
	.loc 1 466 2 is_stmt 0 view .LVU270
	bl	dbg_update_neighbor_lladdr
.LVL81:
	.loc 1 467 1 view .LVU271
	add	sp, sp, #12
	.cfi_def_cfa_offset 4
	@ sp needed
	ldr	pc, [sp], #4
	.cfi_endproc
.LFE956:
	.size	dbg_update_neighbor_lladdr_raw, .-dbg_update_neighbor_lladdr_raw
	.section	.text.check_route,"ax",%progbits
	.align	1
	.syntax unified
	.thumb
	.thumb_func
	.fpu fpv4-sp-d16
	.type	check_route, %function
check_route:
.LVL82:
.LFB965:
	.loc 1 722 1 is_stmt 1 view -0
	.cfi_startproc
	@ args = 0, pretend = 0, frame = 0
	@ frame_needed = 0, uses_anonymous_args = 0
	.loc 1 722 1 is_stmt 0 view .LVU273
	push	{r4, r5, r6, lr}
	.cfi_def_cfa_offset 16
	.cfi_offset 4, -16
	.cfi_offset 5, -12
	.cfi_offset 6, -8
	.cfi_offset 14, -4
	mov	r4, r1
	mov	r5, r2
	.loc 1 723 2 is_stmt 1 view .LVU274
.LVL83:
	.loc 1 724 2 view .LVU275
	.loc 1 725 2 view .LVU276
	.loc 1 727 2 view .LVU277
	.loc 1 727 10 is_stmt 0 view .LVU278
	bl	net_route_lookup
.LVL84:
	.loc 1 728 2 is_stmt 1 view .LVU279
	.loc 1 728 5 is_stmt 0 view .LVU280
	cbz	r0, .L48
	mov	r6, r0
	.loc 1 729 3 is_stmt 1 view .LVU281
	.loc 1 729 13 is_stmt 0 view .LVU282
	bl	net_route_get_nexthop
.LVL85:
	.loc 1 731 3 is_stmt 1 view .LVU283
.LBB1199:
	.loc 1 731 8 view .LVU284
.LBE1199:
	.loc 1 731 241 view .LVU285
	.loc 1 737 3 view .LVU286
	.loc 1 737 6 is_stmt 0 view .LVU287
	mov	r4, r0
.LVL86:
	.loc 1 737 6 view .LVU288
	cbz	r0, .L53
.LVL87:
.L47:
	.loc 1 770 1 view .LVU289
	mov	r0, r4
	pop	{r4, r5, r6, pc}
.LVL88:
.L53:
	.loc 1 738 4 is_stmt 1 view .LVU290
	mov	r0, r6
.LVL89:
	.loc 1 738 4 is_stmt 0 view .LVU291
	bl	net_route_del
.LVL90:
	.loc 1 740 4 is_stmt 1 view .LVU292
.LBB1200:
	.loc 1 740 9 view .LVU293
.LBE1200:
	.loc 1 740 160 view .LVU294
	.loc 1 743 4 view .LVU295
	.loc 1 743 10 is_stmt 0 view .LVU296
	b	.L47
.LVL91:
.L48:
	.loc 1 749 3 is_stmt 1 view .LVU297
	.loc 1 749 12 is_stmt 0 view .LVU298
	mov	r1, r4
	movs	r0, #0
.LVL92:
	.loc 1 749 12 view .LVU299
	bl	net_if_ipv6_router_find_default
.LVL93:
	.loc 1 750 3 is_stmt 1 view .LVU300
	.loc 1 750 6 is_stmt 0 view .LVU301
	cbz	r0, .L54
	.loc 1 763 3 is_stmt 1 view .LVU302
	.loc 1 763 11 is_stmt 0 view .LVU303
	add	r4, r0, #8
.LVL94:
	.loc 1 765 3 is_stmt 1 view .LVU304
.LBB1201:
	.loc 1 765 8 view .LVU305
	.loc 1 765 8 is_stmt 0 view .LVU306
	b	.L47
.LVL95:
.L54:
	.loc 1 765 8 view .LVU307
.LBE1201:
	.loc 1 751 4 is_stmt 1 view .LVU308
.LBB1202:
	.loc 1 751 9 view .LVU309
.LBE1202:
	.loc 1 751 163 view .LVU310
	.loc 1 755 4 view .LVU311
	.loc 1 756 4 view .LVU312
	.loc 1 756 7 is_stmt 0 view .LVU313
	cmp	r5, #0
	beq	.L47
	.loc 1 757 5 is_stmt 1 view .LVU314
	.loc 1 757 16 is_stmt 0 view .LVU315
	movs	r3, #1
	strb	r3, [r5]
	.loc 1 760 4 is_stmt 1 view .LVU316
	.loc 1 760 11 is_stmt 0 view .LVU317
	b	.L47
	.cfi_endproc
.LFE965:
	.size	check_route, .-check_route
	.global	__aeabi_uldivmod
	.section	.text.ipv6_nd_restart_reachable_timer,"ax",%progbits
	.align	1
	.syntax unified
	.thumb
	.thumb_func
	.fpu fpv4-sp-d16
	.type	ipv6_nd_restart_reachable_timer, %function
ipv6_nd_restart_reachable_timer:
.LVL96:
.LFB975:
	.loc 1 1411 1 is_stmt 1 view -0
	.cfi_startproc
	@ args = 0, pretend = 0, frame = 0
	@ frame_needed = 0, uses_anonymous_args = 0
	.loc 1 1411 1 is_stmt 0 view .LVU319
	push	{r3, r4, r5, r6, r7, r8, r9, lr}
	.cfi_def_cfa_offset 32
	.cfi_offset 3, -32
	.cfi_offset 4, -28
	.cfi_offset 5, -24
	.cfi_offset 6, -20
	.cfi_offset 7, -16
	.cfi_offset 8, -12
	.cfi_offset 9, -8
	.cfi_offset 14, -4
	mov	r4, r2
	mov	r5, r3
	.loc 1 1412 2 is_stmt 1 view .LVU320
	.loc 1 1414 2 view .LVU321
	.loc 1 1414 5 is_stmt 0 view .LVU322
	cbz	r0, .L56
	mov	r8, r0
	.loc 1 1415 3 is_stmt 1 view .LVU323
.LVL97:
.LBB1203:
.LBI1203:
	.loc 2 118 41 view .LVU324
.LBB1204:
	.loc 2 120 2 view .LVU325
	.loc 2 120 9 is_stmt 0 view .LVU326
	ldr	r9, [r0, #12]
.LVL98:
	.loc 2 120 9 view .LVU327
.LBE1204:
.LBE1203:
.LBB1205:
.LBI1205:
	.file 8 "/home/sebin/thesis/zephyrproject/zephyr/include/kernel.h"
	.loc 8 1539 23 is_stmt 1 view .LVU328
.LBB1206:
	.loc 8 1541 2 view .LVU329
.LBB1207:
.LBI1207:
	.loc 4 562 23 view .LVU330
.LBB1208:
	.loc 4 572 2 view .LVU331
	.loc 4 572 7 view .LVU332
	.loc 4 572 55 view .LVU333
	.loc 4 573 2 view .LVU334
	.loc 4 573 9 is_stmt 0 view .LVU335
	bl	z_impl_k_uptime_ticks
.LVL99:
	.loc 4 573 9 view .LVU336
.LBE1208:
.LBE1207:
.LBB1209:
.LBI1209:
	.file 9 "/home/sebin/thesis/zephyrproject/zephyr/include/sys/time_units.h"
	.loc 9 1102 24 is_stmt 1 view .LVU337
.LBE1209:
.LBE1206:
.LBE1205:
	.loc 9 1105 2 view .LVU338
.LBB1218:
.LBB1216:
.LBB1214:
.LBB1210:
.LBI1210:
	.loc 9 101 55 view .LVU339
.LBB1211:
	.loc 9 106 1 view .LVU340
	.loc 9 108 1 view .LVU341
	.loc 9 111 2 view .LVU342
	.loc 9 115 2 view .LVU343
	.loc 9 117 2 view .LVU344
.LBE1211:
.LBE1210:
.LBE1214:
.LBE1216:
.LBE1218:
	.loc 9 118 3 view .LVU345
	.loc 9 120 3 view .LVU346
	.loc 9 123 3 view .LVU347
.LBB1219:
.LBB1217:
.LBB1215:
.LBB1213:
.LBB1212:
	.loc 9 133 2 view .LVU348
	.loc 9 134 3 view .LVU349
	.loc 9 135 3 view .LVU350
	.loc 9 138 4 view .LVU351
	.loc 9 138 13 is_stmt 0 view .LVU352
	movs	r2, #10
	movs	r3, #0
	bl	__aeabi_uldivmod
.LVL100:
	.loc 9 138 13 view .LVU353
.LBE1212:
.LBE1213:
.LBE1215:
.LBE1217:
.LBE1219:
	.loc 1 1415 37 view .LVU354
	strd	r0, [r9, #24]
	.loc 1 1416 3 is_stmt 1 view .LVU355
.LVL101:
.LBB1220:
.LBI1220:
	.loc 2 118 41 view .LVU356
.LBB1221:
	.loc 2 120 2 view .LVU357
	.loc 2 120 9 is_stmt 0 view .LVU358
	ldr	r3, [r8, #12]
.LVL102:
	.loc 2 120 9 view .LVU359
.LBE1221:
.LBE1220:
	.loc 1 1416 45 view .LVU360
	str	r4, [r3, #32]
.LVL103:
.L56:
	.loc 1 1419 2 is_stmt 1 view .LVU361
.LBB1222:
.LBI1222:
	.loc 8 3765 25 view .LVU362
.LBB1223:
	.loc 8 3768 2 view .LVU363
	.loc 8 3768 9 is_stmt 0 view .LVU364
	ldr	r0, .L64
	bl	z_timeout_remaining
.LVL104:
	.loc 8 3768 9 view .LVU365
.LBE1223:
.LBE1222:
.LBB1224:
.LBI1224:
	.loc 9 1144 24 is_stmt 1 view .LVU366
.LBB1225:
	.loc 9 1147 2 view .LVU367
	.loc 9 1147 9 is_stmt 0 view .LVU368
	movs	r3, #0
.LVL105:
.LBB1226:
.LBI1226:
	.loc 9 101 55 is_stmt 1 view .LVU369
.LBB1227:
	.loc 9 106 1 view .LVU370
	.loc 9 108 1 view .LVU371
	.loc 9 111 2 view .LVU372
	.loc 9 115 2 view .LVU373
	.loc 9 117 2 view .LVU374
.LBE1227:
.LBE1226:
.LBE1225:
.LBE1224:
	.loc 9 118 3 view .LVU375
	.loc 9 120 3 view .LVU376
	.loc 9 121 4 view .LVU377
	.loc 9 123 3 view .LVU378
.LBB1234:
.LBB1232:
.LBB1230:
.LBB1228:
	.loc 9 133 2 view .LVU379
	.loc 9 134 3 view .LVU380
	.loc 9 134 5 is_stmt 0 view .LVU381
	adds	r6, r0, #9
	adc	r7, r3, r3
.LVL106:
	.loc 9 135 3 is_stmt 1 view .LVU382
	.loc 9 135 16 is_stmt 0 view .LVU383
	cmp	r7, #1
	it	eq
	cmpeq	r6, #0
	bcs	.L57
	.loc 9 136 4 is_stmt 1 view .LVU384
	.loc 9 136 25 is_stmt 0 view .LVU385
	ldr	r3, .L64+4
	umull	r3, r0, r3, r6
.LVL107:
	.loc 9 136 25 view .LVU386
	lsrs	r0, r0, #3
.L58:
.LVL108:
	.loc 9 136 25 view .LVU387
.LBE1228:
.LBE1230:
.LBE1232:
.LBE1234:
	.loc 1 1419 12 view .LVU388
	mov	r2, r0
	movs	r3, #0
.LVL109:
	.loc 1 1421 2 is_stmt 1 view .LVU389
	.loc 1 1421 5 is_stmt 0 view .LVU390
	orrs	r1, r2, r3
	beq	.L59
	.loc 1 1421 17 discriminator 1 view .LVU391
	cmp	r4, r0
	sbcs	r3, r5, r3
	bge	.L55
.L59:
.LBB1235:
	.loc 1 1422 3 is_stmt 1 view .LVU392
	.loc 1 1422 131 is_stmt 0 view .LVU393
	mov	r1, r4
	mov	r0, r5
	cmp	r4, #0
	sbcs	r3, r5, #0
	blt	.L63
.L61:
.LVL110:
.LBB1236:
.LBI1236:
	.loc 9 402 24 is_stmt 1 view .LVU394
.LBE1236:
.LBE1235:
	.loc 9 405 2 view .LVU395
.LBB1240:
.LBB1239:
.LBB1237:
.LBI1237:
	.loc 9 101 55 view .LVU396
.LBB1238:
	.loc 9 106 1 view .LVU397
	.loc 9 108 1 view .LVU398
	.loc 9 111 2 view .LVU399
	.loc 9 115 2 view .LVU400
	.loc 9 117 2 view .LVU401
	.loc 9 133 2 view .LVU402
	.loc 9 140 9 view .LVU403
	.loc 9 141 3 view .LVU404
	.loc 9 144 4 view .LVU405
	.loc 9 144 13 is_stmt 0 view .LVU406
	lsls	r4, r0, #2
	lsls	r2, r1, #2
.LVL111:
	.loc 9 144 13 view .LVU407
	orr	r3, r4, r1, lsr #30
	adds	r2, r2, r1
	adc	r3, r0, r3
.LVL112:
	.loc 9 144 13 view .LVU408
.LBE1238:
.LBE1237:
.LBE1239:
	.loc 1 1422 3 view .LVU409
	adds	r2, r2, r2
	adcs	r3, r3, r3
	ldr	r0, .L64+8
	bl	k_work_reschedule
.LVL113:
.L55:
.LBE1240:
	.loc 1 1424 1 view .LVU410
	pop	{r3, r4, r5, r6, r7, r8, r9, pc}
.LVL114:
.L57:
.LBB1241:
.LBB1233:
.LBB1231:
.LBB1229:
	.loc 9 138 4 is_stmt 1 view .LVU411
	.loc 9 138 13 is_stmt 0 view .LVU412
	movs	r2, #10
	movs	r3, #0
	mov	r0, r6
.LVL115:
	.loc 9 138 13 view .LVU413
	mov	r1, r7
	bl	__aeabi_uldivmod
.LVL116:
	b	.L58
.LVL117:
.L63:
	.loc 9 138 13 view .LVU414
.LBE1229:
.LBE1231:
.LBE1233:
.LBE1241:
.LBB1242:
	.loc 1 1422 131 view .LVU415
	movs	r1, #0
	mov	r0, r1
	b	.L61
.L65:
	.align	2
.L64:
	.word	.LANCHOR5+16
	.word	-858993459
	.word	.LANCHOR5
.LBE1242:
	.cfi_endproc
.LFE975:
	.size	ipv6_nd_restart_reachable_timer, .-ipv6_nd_restart_reachable_timer
	.section	.text.ipv6_ns_reply_timeout,"ax",%progbits
	.align	1
	.syntax unified
	.thumb
	.thumb_func
	.fpu fpv4-sp-d16
	.type	ipv6_ns_reply_timeout, %function
ipv6_ns_reply_timeout:
.LVL118:
.LFB952:
	.loc 1 339 1 is_stmt 1 view -0
	.cfi_startproc
	@ args = 0, pretend = 0, frame = 0
	@ frame_needed = 0, uses_anonymous_args = 0
	.loc 1 339 1 is_stmt 0 view .LVU417
	push	{r4, r5, r6, r7, r8, r9, r10, lr}
	.cfi_def_cfa_offset 32
	.cfi_offset 4, -32
	.cfi_offset 5, -28
	.cfi_offset 6, -24
	.cfi_offset 7, -20
	.cfi_offset 8, -16
	.cfi_offset 9, -12
	.cfi_offset 10, -8
	.cfi_offset 14, -4
	.loc 1 340 2 is_stmt 1 view .LVU418
.LBB1243:
.LBI1243:
	.loc 8 1539 23 view .LVU419
.LBB1244:
	.loc 8 1541 2 view .LVU420
.LBB1245:
.LBI1245:
	.loc 4 562 23 view .LVU421
.LBB1246:
	.loc 4 572 2 view .LVU422
	.loc 4 572 7 view .LVU423
	.loc 4 572 55 view .LVU424
	.loc 4 573 2 view .LVU425
	.loc 4 573 9 is_stmt 0 view .LVU426
	bl	z_impl_k_uptime_ticks
.LVL119:
	.loc 4 573 9 view .LVU427
.LBE1246:
.LBE1245:
.LBB1247:
.LBI1247:
	.loc 9 1102 24 is_stmt 1 view .LVU428
.LBE1247:
.LBE1244:
.LBE1243:
	.loc 9 1105 2 view .LVU429
.LBB1256:
.LBB1254:
.LBB1252:
.LBB1248:
.LBI1248:
	.loc 9 101 55 view .LVU430
.LBB1249:
	.loc 9 106 1 view .LVU431
	.loc 9 108 1 view .LVU432
	.loc 9 111 2 view .LVU433
	.loc 9 115 2 view .LVU434
	.loc 9 117 2 view .LVU435
.LBE1249:
.LBE1248:
.LBE1252:
.LBE1254:
.LBE1256:
	.loc 9 118 3 view .LVU436
	.loc 9 120 3 view .LVU437
	.loc 9 123 3 view .LVU438
.LBB1257:
.LBB1255:
.LBB1253:
.LBB1251:
.LBB1250:
	.loc 9 133 2 view .LVU439
	.loc 9 134 3 view .LVU440
	.loc 9 135 3 view .LVU441
	.loc 9 138 4 view .LVU442
	.loc 9 138 13 is_stmt 0 view .LVU443
	movs	r2, #10
	movs	r3, #0
	bl	__aeabi_uldivmod
.LVL120:
	.loc 9 138 13 view .LVU444
.LBE1250:
.LBE1251:
.LBE1253:
	.loc 8 1541 9 view .LVU445
	mov	r5, r0
	mov	r8, r1
.LVL121:
	.loc 8 1541 9 view .LVU446
.LBE1255:
.LBE1257:
	.loc 1 341 2 is_stmt 1 view .LVU447
	.loc 1 342 2 view .LVU448
	.loc 1 343 2 view .LVU449
	.loc 1 345 2 view .LVU450
	.loc 1 347 2 view .LVU451
	.loc 1 347 9 is_stmt 0 view .LVU452
	movs	r4, #0
	.loc 1 347 2 view .LVU453
	b	.L67
.LVL122:
.L76:
.LBB1258:
	.loc 1 367 4 is_stmt 1 view .LVU454
.LBB1259:
.LBI1259:
	.loc 8 3765 25 view .LVU455
.LBB1260:
	.loc 8 3768 2 view .LVU456
	.loc 8 3768 9 is_stmt 0 view .LVU457
	ldr	r0, .L78
	bl	z_timeout_remaining
.LVL123:
	.loc 8 3768 9 view .LVU458
.LBE1260:
.LBE1259:
	.loc 1 367 7 view .LVU459
	orrs	r3, r0, r1
	beq	.L74
.LVL124:
.L68:
	.loc 1 367 7 view .LVU460
.LBE1258:
	.loc 1 347 21 is_stmt 1 discriminator 2 view .LVU461
	.loc 1 347 22 is_stmt 0 discriminator 2 view .LVU462
	adds	r4, r4, #1
.LVL125:
.L67:
	.loc 1 347 14 is_stmt 1 discriminator 1 view .LVU463
	.loc 1 347 2 is_stmt 0 discriminator 1 view .LVU464
	cmp	r4, #7
	bgt	.L75
.LBB1273:
	.loc 1 348 3 is_stmt 1 view .LVU465
	.loc 1 349 3 view .LVU466
.LVL126:
.LBB1261:
.LBI1261:
	.loc 1 120 31 view .LVU467
.LBB1262:
	.loc 1 122 2 view .LVU468
	.loc 1 122 9 is_stmt 0 view .LVU469
	ldr	r2, .L78+4
	movs	r3, #84
	mul	r3, r3, r4
	add	r9, r2, r3
.LVL127:
	.loc 1 122 9 view .LVU470
.LBE1262:
.LBE1261:
	.loc 1 351 3 is_stmt 1 view .LVU471
	.loc 1 351 19 is_stmt 0 view .LVU472
	ldrb	r3, [r2, r3]	@ zero_extendqisi2
	.loc 1 351 12 view .LVU473
	cmp	r3, #0
	beq	.L68
	.loc 1 355 3 is_stmt 1 view .LVU474
.LVL128:
.LBB1263:
.LBI1263:
	.loc 2 118 41 view .LVU475
.LBB1264:
	.loc 2 120 2 view .LVU476
	.loc 2 120 9 is_stmt 0 view .LVU477
	ldr	r10, [r9, #12]
.LVL129:
	.loc 2 120 9 view .LVU478
.LBE1264:
.LBE1263:
	.loc 1 356 3 is_stmt 1 view .LVU479
	.loc 1 356 6 is_stmt 0 view .LVU480
	cmp	r10, #0
	beq	.L68
	.loc 1 360 3 is_stmt 1 view .LVU481
	.loc 1 360 12 is_stmt 0 view .LVU482
	ldrd	r0, [r10, #40]
	.loc 1 360 6 view .LVU483
	orrs	r3, r0, r1
	beq	.L68
	.loc 1 364 3 is_stmt 1 view .LVU484
	.loc 1 364 29 is_stmt 0 view .LVU485
	adds	r2, r0, #1000
	adc	r3, r1, #0
	.loc 1 364 13 view .LVU486
	subs	r6, r2, r5
	sbc	r7, r3, r8
.LVL130:
	.loc 1 366 3 is_stmt 1 view .LVU487
	.loc 1 366 6 is_stmt 0 view .LVU488
	cmp	r6, #1
	sbcs	r3, r7, #0
	bge	.L76
	.loc 1 376 3 is_stmt 1 view .LVU489
	.loc 1 376 17 is_stmt 0 view .LVU490
	movs	r2, #0
	movs	r3, #0
	strd	r2, [r10, #40]
	.loc 1 379 3 is_stmt 1 view .LVU491
	.loc 1 379 12 is_stmt 0 view .LVU492
	ldr	r0, [r10]
	.loc 1 379 6 view .LVU493
	cmp	r0, #0
	beq	.L68
	.loc 1 386 3 is_stmt 1 view .LVU494
.LBB1265:
	.loc 1 386 8 view .LVU495
.LBE1265:
	.loc 1 386 252 view .LVU496
	.loc 1 392 3 view .LVU497
	bl	net_pkt_unref
.LVL131:
	.loc 1 395 3 view .LVU498
	ldr	r0, [r10]
	bl	net_pkt_unref
.LVL132:
	.loc 1 397 3 view .LVU499
	.loc 1 397 17 is_stmt 0 view .LVU500
	movs	r3, #0
	str	r3, [r10]
	.loc 1 399 3 is_stmt 1 view .LVU501
	mov	r0, r9
	bl	net_nbr_unref
.LVL133:
	b	.L68
.L74:
.LBB1266:
	.loc 1 369 5 view .LVU502
	.loc 1 370 103 is_stmt 0 view .LVU503
	mov	r1, r6
	mov	r0, r7
	cmp	r6, #0
	sbcs	r3, r7, #0
	blt	.L77
.L71:
.LVL134:
.LBB1267:
.LBI1267:
	.loc 9 402 24 is_stmt 1 view .LVU504
.LBE1267:
.LBE1266:
.LBE1273:
	.loc 9 405 2 view .LVU505
.LBB1274:
.LBB1271:
.LBB1270:
.LBB1268:
.LBI1268:
	.loc 9 101 55 view .LVU506
.LBB1269:
	.loc 9 106 1 view .LVU507
	.loc 9 108 1 view .LVU508
	.loc 9 111 2 view .LVU509
	.loc 9 115 2 view .LVU510
	.loc 9 117 2 view .LVU511
	.loc 9 133 2 view .LVU512
	.loc 9 140 9 view .LVU513
	.loc 9 141 3 view .LVU514
	.loc 9 144 4 view .LVU515
	.loc 9 144 13 is_stmt 0 view .LVU516
	lsl	ip, r0, #2
	lsls	r2, r1, #2
	orr	r3, ip, r1, lsr #30
	adds	r2, r2, r1
	adc	r3, r0, r3
.LVL135:
	.loc 9 144 13 view .LVU517
.LBE1269:
.LBE1268:
.LBE1270:
	.loc 1 369 5 view .LVU518
	adds	r2, r2, r2
	adcs	r3, r3, r3
	ldr	r0, .L78+8
	bl	k_work_reschedule
.LVL136:
.LBE1271:
	.loc 1 373 4 is_stmt 1 view .LVU519
	b	.L68
.L77:
.LBB1272:
	.loc 1 370 103 is_stmt 0 view .LVU520
	movs	r1, #0
	mov	r0, r1
	b	.L71
.LVL137:
.L75:
	.loc 1 370 103 view .LVU521
.LBE1272:
.LBE1274:
	.loc 1 401 1 view .LVU522
	pop	{r4, r5, r6, r7, r8, r9, r10, pc}
.LVL138:
.L79:
	.loc 1 401 1 view .LVU523
	.align	2
.L78:
	.word	.LANCHOR6+16
	.word	.LANCHOR0
	.word	.LANCHOR6
	.cfi_endproc
.LFE952:
	.size	ipv6_ns_reply_timeout, .-ipv6_ns_reply_timeout
	.section	.text.read_llao,"ax",%progbits
	.align	1
	.syntax unified
	.thumb
	.thumb_func
	.fpu fpv4-sp-d16
	.type	read_llao, %function
read_llao:
.LVL139:
.LFB971:
	.loc 1 1028 1 is_stmt 1 view -0
	.cfi_startproc
	@ args = 0, pretend = 0, frame = 0
	@ frame_needed = 0, uses_anonymous_args = 0
	.loc 1 1028 1 is_stmt 0 view .LVU525
	push	{r4, r5, r6, lr}
	.cfi_def_cfa_offset 16
	.cfi_offset 4, -16
	.cfi_offset 5, -12
	.cfi_offset 6, -8
	.cfi_offset 14, -4
	mov	r5, r0
	mov	r4, r1
	mov	r6, r2
	.loc 1 1029 2 is_stmt 1 view .LVU526
	.loc 1 1031 2 view .LVU527
	.loc 1 1031 17 is_stmt 0 view .LVU528
	movs	r3, #6
	strb	r3, [r2, #1]
	.loc 1 1032 2 is_stmt 1 view .LVU529
.LVL140:
	.file 10 "/home/sebin/thesis/zephyrproject/zephyr/include/net/net_pkt.h"
	.loc 10 983 2 view .LVU530
	.loc 1 1032 29 is_stmt 0 view .LVU531
	ldrb	r3, [r0, #56]	@ zero_extendqisi2
	.loc 1 1032 5 view .LVU532
	cmp	r3, #5
	bhi	.L81
	.loc 1 1033 3 is_stmt 1 view .LVU533
.LVL141:
	.loc 10 983 2 view .LVU534
	.loc 1 1033 18 is_stmt 0 view .LVU535
	strb	r3, [r2, #1]
.L81:
	.loc 1 1036 2 is_stmt 1 view .LVU536
	.loc 1 1036 6 is_stmt 0 view .LVU537
	ldrb	r2, [r6, #1]	@ zero_extendqisi2
.LVL142:
	.loc 1 1036 6 view .LVU538
	adds	r1, r6, #2
.LVL143:
	.loc 1 1036 6 view .LVU539
	mov	r0, r5
.LVL144:
	.loc 1 1036 6 view .LVU540
	bl	net_pkt_read
.LVL145:
	.loc 1 1036 5 view .LVU541
	cbnz	r0, .L83
	.loc 1 1040 2 is_stmt 1 view .LVU542
	.loc 1 1040 16 is_stmt 0 view .LVU543
	lsls	r1, r4, #3
	uxtb	r1, r1
	.loc 1 1040 36 view .LVU544
	ldrb	r4, [r6, #1]	@ zero_extendqisi2
	.loc 1 1040 25 view .LVU545
	subs	r1, r1, r4
	uxtb	r1, r1
	.loc 1 1040 10 view .LVU546
	subs	r1, r1, #2
.LVL146:
	.loc 1 1041 2 is_stmt 1 view .LVU547
	.loc 1 1041 5 is_stmt 0 view .LVU548
	ands	r1, r1, #255
.LVL147:
	.loc 1 1041 5 view .LVU549
	bne	.L87
	.loc 1 1047 8 view .LVU550
	movs	r0, #1
.L82:
	.loc 1 1048 1 view .LVU551
	pop	{r4, r5, r6, pc}
.LVL148:
.L87:
	.loc 1 1042 3 is_stmt 1 view .LVU552
	.loc 1 1042 7 is_stmt 0 view .LVU553
	mov	r0, r5
	bl	net_pkt_skip
.LVL149:
	.loc 1 1042 6 view .LVU554
	cbnz	r0, .L85
	.loc 1 1047 8 view .LVU555
	movs	r0, #1
	b	.L82
.L83:
	.loc 1 1037 9 view .LVU556
	movs	r0, #0
	b	.L82
.L85:
	.loc 1 1043 10 view .LVU557
	movs	r0, #0
	b	.L82
	.cfi_endproc
.LFE971:
	.size	read_llao, .-read_llao
	.section	.rodata.net_ipv6_nbr_state2str.str1.4,"aMS",%progbits,1
	.align	2
.LC1:
	.ascii	"<invalid state>\000"
	.align	2
.LC2:
	.ascii	"reachable\000"
	.align	2
.LC3:
	.ascii	"stale\000"
	.align	2
.LC4:
	.ascii	"delay\000"
	.align	2
.LC5:
	.ascii	"probe\000"
	.align	2
.LC6:
	.ascii	"static\000"
	.align	2
.LC7:
	.ascii	"incomplete\000"
	.section	.text.net_ipv6_nbr_state2str,"ax",%progbits
	.align	1
	.global	net_ipv6_nbr_state2str
	.syntax unified
	.thumb
	.thumb_func
	.fpu fpv4-sp-d16
	.type	net_ipv6_nbr_state2str, %function
net_ipv6_nbr_state2str:
.LVL150:
.LFB942:
	.loc 1 101 1 is_stmt 1 view -0
	.cfi_startproc
	@ args = 0, pretend = 0, frame = 0
	@ frame_needed = 0, uses_anonymous_args = 0
	@ link register save eliminated.
	.loc 1 102 2 view .LVU559
	cmp	r0, #5
	bhi	.L89
	tbb	[pc, r0]
.L91:
	.byte	(.L96-.L91)/2
	.byte	(.L97-.L91)/2
	.byte	(.L94-.L91)/2
	.byte	(.L93-.L91)/2
	.byte	(.L92-.L91)/2
	.byte	(.L90-.L91)/2
	.p2align 1
.L96:
	.loc 1 114 10 is_stmt 0 view .LVU560
	ldr	r0, .L98
.LVL151:
	.loc 1 114 10 view .LVU561
	bx	lr
.LVL152:
.L94:
	.loc 1 108 3 is_stmt 1 view .LVU562
	.loc 1 108 10 is_stmt 0 view .LVU563
	ldr	r0, .L98+4
.LVL153:
	.loc 1 108 10 view .LVU564
	bx	lr
.LVL154:
.L93:
	.loc 1 110 3 is_stmt 1 view .LVU565
	.loc 1 110 10 is_stmt 0 view .LVU566
	ldr	r0, .L98+8
.LVL155:
	.loc 1 110 10 view .LVU567
	bx	lr
.LVL156:
.L92:
	.loc 1 112 3 is_stmt 1 view .LVU568
	.loc 1 112 10 is_stmt 0 view .LVU569
	ldr	r0, .L98+12
.LVL157:
	.loc 1 112 10 view .LVU570
	bx	lr
.LVL158:
.L90:
	.loc 1 114 3 is_stmt 1 view .LVU571
	.loc 1 114 10 is_stmt 0 view .LVU572
	ldr	r0, .L98+16
.LVL159:
	.loc 1 114 10 view .LVU573
	bx	lr
.LVL160:
.L89:
	.loc 1 117 2 is_stmt 1 view .LVU574
	.loc 1 117 9 is_stmt 0 view .LVU575
	ldr	r0, .L98+20
.LVL161:
	.loc 1 117 9 view .LVU576
	bx	lr
.LVL162:
.L97:
	.loc 1 106 10 view .LVU577
	ldr	r0, .L98+24
.LVL163:
	.loc 1 118 1 view .LVU578
	bx	lr
.L99:
	.align	2
.L98:
	.word	.LC7
	.word	.LC3
	.word	.LC4
	.word	.LC5
	.word	.LC6
	.word	.LC1
	.word	.LC2
	.cfi_endproc
.LFE942:
	.size	net_ipv6_nbr_state2str, .-net_ipv6_nbr_state2str
	.section	.text.net_ipv6_nbr_foreach,"ax",%progbits
	.align	1
	.global	net_ipv6_nbr_foreach
	.syntax unified
	.thumb
	.thumb_func
	.fpu fpv4-sp-d16
	.type	net_ipv6_nbr_foreach, %function
net_ipv6_nbr_foreach:
.LVL164:
.LFB947:
	.loc 1 214 1 is_stmt 1 view -0
	.cfi_startproc
	@ args = 0, pretend = 0, frame = 8
	@ frame_needed = 0, uses_anonymous_args = 0
	.loc 1 214 1 is_stmt 0 view .LVU580
	push	{lr}
	.cfi_def_cfa_offset 4
	.cfi_offset 14, -4
	sub	sp, sp, #12
	.cfi_def_cfa_offset 16
	.loc 1 215 2 is_stmt 1 view .LVU581
	.loc 1 215 23 is_stmt 0 view .LVU582
	str	r0, [sp]
	str	r1, [sp, #4]
	.loc 1 223 2 is_stmt 1 view .LVU583
	mov	r1, sp
.LVL165:
	.loc 1 223 2 is_stmt 0 view .LVU584
	ldr	r0, .L102
.LVL166:
	.loc 1 223 2 view .LVU585
	bl	net_if_foreach
.LVL167:
	.loc 1 224 1 view .LVU586
	add	sp, sp, #12
	.cfi_def_cfa_offset 4
	@ sp needed
	ldr	pc, [sp], #4
.L103:
	.align	2
.L102:
	.word	iface_cb
	.cfi_endproc
.LFE947:
	.size	net_ipv6_nbr_foreach, .-net_ipv6_nbr_foreach
	.section	.text.net_ipv6_nbr_rm,"ax",%progbits
	.align	1
	.global	net_ipv6_nbr_rm
	.syntax unified
	.thumb
	.thumb_func
	.fpu fpv4-sp-d16
	.type	net_ipv6_nbr_rm, %function
net_ipv6_nbr_rm:
.LVL168:
.LFB951:
	.loc 1 307 1 is_stmt 1 view -0
	.cfi_startproc
	@ args = 0, pretend = 0, frame = 0
	@ frame_needed = 0, uses_anonymous_args = 0
	.loc 1 307 1 is_stmt 0 view .LVU588
	push	{r4, r5, r6, lr}
	.cfi_def_cfa_offset 16
	.cfi_offset 4, -16
	.cfi_offset 5, -12
	.cfi_offset 6, -8
	.cfi_offset 14, -4
	mov	r4, r0
	mov	r5, r1
	.loc 1 308 2 is_stmt 1 view .LVU589
	.loc 1 313 2 view .LVU590
	.loc 1 313 8 is_stmt 0 view .LVU591
	mov	r2, r1
	mov	r1, r0
.LVL169:
	.loc 1 313 8 view .LVU592
	ldr	r0, .L109
.LVL170:
	.loc 1 313 8 view .LVU593
	bl	nbr_lookup
.LVL171:
	.loc 1 314 2 is_stmt 1 view .LVU594
	.loc 1 314 5 is_stmt 0 view .LVU595
	cbz	r0, .L107
	mov	r6, r0
	.loc 1 319 2 is_stmt 1 view .LVU596
	mov	r1, r5
	mov	r0, r4
.LVL172:
	.loc 1 319 2 is_stmt 0 view .LVU597
	bl	net_route_del_by_nexthop
.LVL173:
	.loc 1 321 2 is_stmt 1 view .LVU598
.LBB1290:
.LBI1290:
	.loc 1 293 20 view .LVU599
.LBB1291:
	.loc 1 295 2 view .LVU600
.LBB1292:
	.loc 1 295 7 view .LVU601
.LBE1292:
	.loc 1 295 113 view .LVU602
	.loc 1 297 2 view .LVU603
.LBB1293:
.LBI1293:
	.loc 2 118 41 view .LVU604
.LBB1294:
	.loc 2 120 2 view .LVU605
	.loc 2 120 9 is_stmt 0 view .LVU606
	ldr	r5, [r6, #12]
.LVL174:
	.loc 2 120 9 view .LVU607
.LBE1294:
.LBE1293:
.LBB1295:
.LBI1295:
	.loc 1 283 20 is_stmt 1 view .LVU608
.LBB1296:
	.loc 1 285 2 view .LVU609
	.loc 1 285 16 is_stmt 0 view .LVU610
	movs	r2, #0
	movs	r3, #0
	strd	r2, [r5, #40]
	.loc 1 287 2 is_stmt 1 view .LVU611
	.loc 1 287 10 is_stmt 0 view .LVU612
	ldr	r0, [r5]
	.loc 1 287 5 view .LVU613
	cbz	r0, .L106
	.loc 1 288 3 is_stmt 1 view .LVU614
	bl	net_pkt_unref
.LVL175:
	.loc 1 289 3 view .LVU615
	.loc 1 289 17 is_stmt 0 view .LVU616
	movs	r3, #0
	str	r3, [r5]
.L106:
.LVL176:
	.loc 1 289 17 view .LVU617
.LBE1296:
.LBE1295:
	.loc 1 299 2 is_stmt 1 view .LVU618
.LBB1297:
.LBI1297:
	.loc 2 118 41 view .LVU619
.LBB1298:
	.loc 2 120 2 view .LVU620
	.loc 2 120 9 is_stmt 0 view .LVU621
	ldr	r3, [r6, #12]
.LVL177:
	.loc 2 120 9 view .LVU622
.LBE1298:
.LBE1297:
	.loc 1 299 36 view .LVU623
	movs	r0, #0
	movs	r1, #0
	strd	r0, [r3, #24]
	.loc 1 300 2 is_stmt 1 view .LVU624
.LVL178:
.LBB1299:
.LBI1299:
	.loc 2 118 41 view .LVU625
.LBB1300:
	.loc 2 120 2 view .LVU626
	.loc 2 120 9 is_stmt 0 view .LVU627
	ldr	r3, [r6, #12]
.LVL179:
	.loc 2 120 9 view .LVU628
.LBE1300:
.LBE1299:
	.loc 1 300 44 view .LVU629
	movs	r5, #0
	str	r5, [r3, #32]
	.loc 1 302 2 is_stmt 1 view .LVU630
	mov	r0, r6
	bl	net_nbr_unref
.LVL180:
	.loc 1 303 2 view .LVU631
	mov	r1, r5
	mov	r0, r6
	bl	net_nbr_unlink
.LVL181:
	.loc 1 303 2 is_stmt 0 view .LVU632
.LBE1291:
.LBE1290:
	.loc 1 330 2 is_stmt 1 view .LVU633
.LBB1301:
.LBI1301:
	.file 11 "/home/sebin/thesis/zephyrproject/zephyr/include/net/net_mgmt.h"
	.loc 11 225 20 view .LVU634
.LBB1302:
	.loc 11 228 2 view .LVU635
	mov	r3, r5
	mov	r2, r5
	mov	r1, r4
	ldr	r0, .L109+4
	bl	net_mgmt_event_notify_with_info
.LVL182:
	.loc 11 228 2 is_stmt 0 view .LVU636
.LBE1302:
.LBE1301:
	.loc 1 333 2 is_stmt 1 view .LVU637
	.loc 1 333 8 is_stmt 0 view .LVU638
	movs	r0, #1
.LVL183:
.L105:
	.loc 1 334 1 view .LVU639
	pop	{r4, r5, r6, pc}
.LVL184:
.L107:
	.loc 1 315 9 view .LVU640
	movs	r0, #0
.LVL185:
	.loc 1 315 9 view .LVU641
	b	.L105
.L110:
	.align	2
.L109:
	.word	.LANCHOR3
	.word	-530579440
	.cfi_endproc
.LFE951:
	.size	net_ipv6_nbr_rm, .-net_ipv6_nbr_rm
	.section	.text.ipv6_nd_remove_old_stale_nbr,"ax",%progbits
	.align	1
	.syntax unified
	.thumb
	.thumb_func
	.fpu fpv4-sp-d16
	.type	ipv6_nd_remove_old_stale_nbr, %function
ipv6_nd_remove_old_stale_nbr:
.LFB957:
	.loc 1 504 1 is_stmt 1 view -0
	.cfi_startproc
	@ args = 0, pretend = 0, frame = 0
	@ frame_needed = 0, uses_anonymous_args = 0
	push	{r4, lr}
	.cfi_def_cfa_offset 8
	.cfi_offset 4, -8
	.cfi_offset 14, -4
	.loc 1 505 2 view .LVU643
.LVL186:
	.loc 1 506 2 view .LVU644
	.loc 1 507 2 view .LVU645
	.loc 1 508 2 view .LVU646
	.loc 1 509 2 view .LVU647
	.loc 1 511 2 view .LVU648
.LBB1303:
.LBI1303:
	.loc 4 1015 19 view .LVU649
.LBB1304:
	.loc 4 1025 2 view .LVU650
	.loc 4 1025 7 view .LVU651
	.loc 4 1025 55 view .LVU652
	.loc 4 1026 2 view .LVU653
	.loc 4 1026 9 is_stmt 0 view .LVU654
	mov	r2, #-1
	mov	r3, #-1
	ldr	r0, .L121
	bl	z_impl_k_sem_take
.LVL187:
	.loc 4 1026 9 view .LVU655
.LBE1304:
.LBE1303:
	.loc 1 513 2 is_stmt 1 view .LVU656
	.loc 1 513 9 is_stmt 0 view .LVU657
	movs	r3, #0
	.loc 1 508 11 view .LVU658
	mov	r4, #-1
	.loc 1 507 6 view .LVU659
	mov	r0, r4
	.loc 1 513 2 view .LVU660
	b	.L112
.LVL188:
.L119:
	.loc 1 526 4 is_stmt 1 view .LVU661
	.loc 1 527 4 view .LVU662
	.loc 1 527 11 is_stmt 0 view .LVU663
	ldr	r4, [r2, #56]
.LVL189:
	.loc 1 528 4 is_stmt 1 view .LVU664
	.loc 1 526 12 is_stmt 0 view .LVU665
	mov	r0, r3
.LVL190:
.L113:
	.loc 1 513 21 is_stmt 1 discriminator 2 view .LVU666
	.loc 1 513 22 is_stmt 0 discriminator 2 view .LVU667
	adds	r3, r3, #1
.LVL191:
.L112:
	.loc 1 513 14 is_stmt 1 discriminator 1 view .LVU668
	.loc 1 513 2 is_stmt 0 discriminator 1 view .LVU669
	cmp	r3, #7
	bgt	.L118
	.loc 1 514 3 is_stmt 1 view .LVU670
.LVL192:
.LBB1305:
.LBI1305:
	.loc 1 120 31 view .LVU671
.LBE1305:
	.loc 1 122 2 view .LVU672
	.loc 1 515 3 view .LVU673
	.loc 1 515 19 is_stmt 0 view .LVU674
	movs	r2, #84
	mul	r2, r2, r3
	ldr	r1, .L121+4
	ldrb	r2, [r1, r2]	@ zero_extendqisi2
	.loc 1 515 12 view .LVU675
	cmp	r2, #0
	beq	.L113
	.loc 1 519 3 is_stmt 1 view .LVU676
.LVL193:
.LBB1306:
.LBI1306:
	.loc 2 118 41 view .LVU677
.LBB1307:
	.loc 2 120 2 view .LVU678
	.loc 2 120 9 is_stmt 0 view .LVU679
	movs	r2, #84
	mla	r2, r2, r3, r1
	ldr	r2, [r2, #12]
.LVL194:
	.loc 2 120 9 view .LVU680
.LBE1307:
.LBE1306:
	.loc 1 520 3 is_stmt 1 view .LVU681
	.loc 1 520 6 is_stmt 0 view .LVU682
	cmp	r2, #0
	beq	.L113
	.loc 1 520 20 discriminator 1 view .LVU683
	ldrb	r1, [r2, #53]	@ zero_extendqisi2
	.loc 1 520 13 discriminator 1 view .LVU684
	cmp	r1, #0
	bne	.L113
	.loc 1 521 11 discriminator 2 view .LVU685
	ldrb	r1, [r2, #48]	@ zero_extendqisi2
	.loc 1 520 32 discriminator 2 view .LVU686
	cmp	r1, #2
	bne	.L113
	.loc 1 525 3 is_stmt 1 view .LVU687
	.loc 1 525 6 is_stmt 0 view .LVU688
	cmp	r0, #-1
	beq	.L119
	.loc 1 531 3 is_stmt 1 view .LVU689
	.loc 1 531 35 is_stmt 0 view .LVU690
	ldr	r2, [r2, #56]
.LVL195:
	.loc 1 531 6 view .LVU691
	cmp	r2, r4
	bcs	.L113
	.loc 1 536 10 view .LVU692
	mov	r4, r2
.LVL196:
	.loc 1 535 11 view .LVU693
	mov	r0, r3
.LVL197:
	.loc 1 535 11 view .LVU694
	b	.L113
.LVL198:
.L118:
	.loc 1 539 2 is_stmt 1 view .LVU695
	.loc 1 539 5 is_stmt 0 view .LVU696
	cmp	r0, #-1
	bne	.L120
.LVL199:
.L116:
	.loc 1 549 2 is_stmt 1 view .LVU697
.LBB1308:
.LBI1308:
	.loc 4 1033 20 view .LVU698
.LBB1309:
	.loc 4 1042 2 view .LVU699
	.loc 4 1042 7 view .LVU700
	.loc 4 1042 55 view .LVU701
	.loc 4 1043 2 view .LVU702
	ldr	r0, .L121
	bl	z_impl_k_sem_give
.LVL200:
	.loc 4 1043 2 is_stmt 0 view .LVU703
.LBE1309:
.LBE1308:
	.loc 1 550 1 view .LVU704
	pop	{r4, pc}
.LVL201:
.L120:
	.loc 1 540 3 is_stmt 1 view .LVU705
.LBB1310:
.LBI1310:
	.loc 1 120 31 view .LVU706
.LBE1310:
	.loc 1 122 2 view .LVU707
	.loc 1 541 3 view .LVU708
	.loc 1 545 3 view .LVU709
.LBB1311:
.LBI1311:
	.loc 2 118 41 view .LVU710
.LBB1312:
	.loc 2 120 2 view .LVU711
	.loc 2 120 9 is_stmt 0 view .LVU712
	ldr	r3, .L121+4
.LVL202:
	.loc 2 120 9 view .LVU713
	movs	r2, #84
	mla	r0, r2, r0, r3
.LVL203:
	.loc 2 120 9 view .LVU714
	ldr	r1, [r0, #12]
	.loc 2 120 9 view .LVU715
.LBE1312:
.LBE1311:
	.loc 1 545 3 view .LVU716
	adds	r1, r1, #4
	ldr	r0, [r0, #8]
	bl	net_ipv6_nbr_rm
.LVL204:
	b	.L116
.L122:
	.align	2
.L121:
	.word	.LANCHOR2
	.word	.LANCHOR0
	.cfi_endproc
.LFE957:
	.size	ipv6_nd_remove_old_stale_nbr, .-ipv6_nd_remove_old_stale_nbr
	.section	.text.add_nbr,"ax",%progbits
	.align	1
	.syntax unified
	.thumb
	.thumb_func
	.fpu fpv4-sp-d16
	.type	add_nbr, %function
add_nbr:
.LVL205:
.LFB958:
	.loc 1 556 1 is_stmt 1 view -0
	.cfi_startproc
	@ args = 0, pretend = 0, frame = 0
	@ frame_needed = 0, uses_anonymous_args = 0
	.loc 1 556 1 is_stmt 0 view .LVU718
	push	{r3, r4, r5, r6, r7, lr}
	.cfi_def_cfa_offset 24
	.cfi_offset 3, -24
	.cfi_offset 4, -20
	.cfi_offset 5, -16
	.cfi_offset 6, -12
	.cfi_offset 7, -8
	.cfi_offset 14, -4
	mov	r4, r0
	mov	r5, r1
	mov	r6, r2
	mov	r7, r3
	.loc 1 557 2 is_stmt 1 view .LVU719
	.loc 1 559 2 view .LVU720
	.loc 1 559 8 is_stmt 0 view .LVU721
	mov	r2, r1
.LVL206:
	.loc 1 559 8 view .LVU722
	mov	r1, r0
.LVL207:
	.loc 1 559 8 view .LVU723
	ldr	r0, .L127
.LVL208:
	.loc 1 559 8 view .LVU724
	bl	nbr_lookup
.LVL209:
	.loc 1 560 2 is_stmt 1 view .LVU725
	.loc 1 560 5 is_stmt 0 view .LVU726
	cbz	r0, .L126
.LVL210:
.L123:
	.loc 1 580 1 view .LVU727
	pop	{r3, r4, r5, r6, r7, pc}
.LVL211:
.L126:
	.loc 1 564 2 is_stmt 1 view .LVU728
	.loc 1 564 8 is_stmt 0 view .LVU729
	mov	r3, r7
	mov	r2, r6
	mov	r1, r5
	mov	r0, r4
	bl	nbr_new
.LVL212:
	.loc 1 565 2 is_stmt 1 view .LVU730
	.loc 1 565 5 is_stmt 0 view .LVU731
	cmp	r0, #0
	bne	.L123
	.loc 1 572 2 is_stmt 1 view .LVU732
	bl	ipv6_nd_remove_old_stale_nbr
.LVL213:
	.loc 1 574 2 view .LVU733
	.loc 1 574 8 is_stmt 0 view .LVU734
	mov	r3, r7
	mov	r2, r6
	mov	r1, r5
	mov	r0, r4
	bl	nbr_new
.LVL214:
	.loc 1 575 2 is_stmt 1 view .LVU735
	b	.L123
.L128:
	.align	2
.L127:
	.word	.LANCHOR3
	.cfi_endproc
.LFE958:
	.size	add_nbr, .-add_nbr
	.section	.text.net_ipv6_nbr_lookup_by_index,"ax",%progbits
	.align	1
	.global	net_ipv6_nbr_lookup_by_index
	.syntax unified
	.thumb
	.thumb_func
	.fpu fpv4-sp-d16
	.type	net_ipv6_nbr_lookup_by_index, %function
net_ipv6_nbr_lookup_by_index:
.LVL215:
.LFB962:
	.loc 1 666 1 view -0
	.cfi_startproc
	@ args = 0, pretend = 0, frame = 0
	@ frame_needed = 0, uses_anonymous_args = 0
	@ link register save eliminated.
	.loc 1 667 2 view .LVU737
	.loc 1 669 2 view .LVU738
	.loc 1 669 5 is_stmt 0 view .LVU739
	cmp	r1, #255
	beq	.L135
	.loc 1 673 9 view .LVU740
	movs	r3, #0
.LVL216:
	.loc 1 673 14 is_stmt 1 view .LVU741
	.loc 1 673 2 is_stmt 0 view .LVU742
	cmp	r3, #7
	bgt	.L142
	.loc 1 666 1 view .LVU743
	push	{r4}
	.cfi_def_cfa_offset 4
	.cfi_offset 4, -4
	b	.L134
.LVL217:
.L133:
.LBB1313:
	.loc 1 684 3 is_stmt 1 view .LVU744
	.loc 1 684 10 is_stmt 0 view .LVU745
	ldr	r4, .L145
	movs	r2, #84
	mla	r2, r2, r3, r4
	ldrb	r2, [r2, #1]	@ zero_extendqisi2
	.loc 1 684 6 view .LVU746
	cmp	r2, r1
	beq	.L143
.L132:
	.loc 1 684 6 view .LVU747
.LBE1313:
	.loc 1 673 21 is_stmt 1 discriminator 2 view .LVU748
	.loc 1 673 22 is_stmt 0 discriminator 2 view .LVU749
	adds	r3, r3, #1
.LVL218:
	.loc 1 673 14 is_stmt 1 discriminator 2 view .LVU750
	.loc 1 673 2 is_stmt 0 discriminator 2 view .LVU751
	cmp	r3, #7
	bgt	.L144
.LVL219:
.L134:
.LBB1317:
	.loc 1 674 3 is_stmt 1 view .LVU752
.LBB1314:
.LBI1314:
	.loc 1 120 31 view .LVU753
.LBE1314:
.LBE1317:
	.loc 1 122 2 view .LVU754
.LBB1318:
	.loc 1 676 3 view .LVU755
	.loc 1 676 11 is_stmt 0 view .LVU756
	movs	r2, #84
	mul	r2, r2, r3
	ldr	r4, .L145
	ldrb	r2, [r4, r2]	@ zero_extendqisi2
	.loc 1 676 6 view .LVU757
	cmp	r2, #0
	beq	.L132
	.loc 1 680 3 is_stmt 1 view .LVU758
	.loc 1 680 6 is_stmt 0 view .LVU759
	cmp	r0, #0
	beq	.L133
	.loc 1 680 19 discriminator 1 view .LVU760
	movs	r2, #84
	mla	r2, r2, r3, r4
	ldr	r2, [r2, #8]
	.loc 1 680 13 discriminator 1 view .LVU761
	cmp	r2, r0
	bne	.L132
	b	.L133
.L143:
	.loc 1 685 4 is_stmt 1 view .LVU762
.LVL220:
.LBB1315:
.LBI1315:
	.loc 2 118 41 view .LVU763
.LBB1316:
	.loc 2 120 2 view .LVU764
	.loc 2 120 9 is_stmt 0 view .LVU765
	movs	r1, #84
.LVL221:
	.loc 2 120 9 view .LVU766
	mla	r3, r1, r3, r4
.LVL222:
	.loc 2 120 9 view .LVU767
	ldr	r0, [r3, #12]
.LVL223:
	.loc 2 120 9 view .LVU768
.LBE1316:
.LBE1315:
	.loc 1 685 11 view .LVU769
	adds	r0, r0, #4
	b	.L129
.LVL224:
.L144:
	.loc 1 685 11 view .LVU770
.LBE1318:
	.loc 1 689 8 view .LVU771
	movs	r0, #0
.LVL225:
.L129:
	.loc 1 690 1 view .LVU772
	ldr	r4, [sp], #4
	.cfi_restore 4
	.cfi_def_cfa_offset 0
	bx	lr
.LVL226:
.L135:
	.loc 1 670 9 view .LVU773
	movs	r0, #0
.LVL227:
	.loc 1 670 9 view .LVU774
	bx	lr
.LVL228:
.L142:
	.loc 1 689 8 view .LVU775
	movs	r0, #0
.LVL229:
	.loc 1 690 1 view .LVU776
	bx	lr
.L146:
	.align	2
.L145:
	.word	.LANCHOR0
	.cfi_endproc
.LFE962:
	.size	net_ipv6_nbr_lookup_by_index, .-net_ipv6_nbr_lookup_by_index
	.section	.text.net_ipv6_nbr_lookup,"ax",%progbits
	.align	1
	.global	net_ipv6_nbr_lookup
	.syntax unified
	.thumb
	.thumb_func
	.fpu fpv4-sp-d16
	.type	net_ipv6_nbr_lookup, %function
net_ipv6_nbr_lookup:
.LVL230:
.LFB967:
	.loc 1 969 1 is_stmt 1 view -0
	.cfi_startproc
	@ args = 0, pretend = 0, frame = 0
	@ frame_needed = 0, uses_anonymous_args = 0
	.loc 1 969 1 is_stmt 0 view .LVU778
	push	{r3, lr}
	.cfi_def_cfa_offset 8
	.cfi_offset 3, -8
	.cfi_offset 14, -4
	mov	r2, r1
	.loc 1 970 2 is_stmt 1 view .LVU779
	.loc 1 970 9 is_stmt 0 view .LVU780
	mov	r1, r0
.LVL231:
	.loc 1 970 9 view .LVU781
	ldr	r0, .L149
.LVL232:
	.loc 1 970 9 view .LVU782
	bl	nbr_lookup
.LVL233:
	.loc 1 971 1 view .LVU783
	pop	{r3, pc}
.L150:
	.align	2
.L149:
	.word	.LANCHOR3
	.cfi_endproc
.LFE967:
	.size	net_ipv6_nbr_lookup, .-net_ipv6_nbr_lookup
	.section	.text.net_ipv6_get_nbr,"ax",%progbits
	.align	1
	.global	net_ipv6_get_nbr
	.syntax unified
	.thumb
	.thumb_func
	.fpu fpv4-sp-d16
	.type	net_ipv6_get_nbr, %function
net_ipv6_get_nbr:
.LVL234:
.LFB968:
	.loc 1 974 1 is_stmt 1 view -0
	.cfi_startproc
	@ args = 0, pretend = 0, frame = 0
	@ frame_needed = 0, uses_anonymous_args = 0
	@ link register save eliminated.
	.loc 1 975 2 view .LVU785
	.loc 1 977 2 view .LVU786
	.loc 1 977 5 is_stmt 0 view .LVU787
	cmp	r1, #255
	beq	.L157
	.loc 1 974 1 view .LVU788
	push	{r4, r5}
	.cfi_def_cfa_offset 8
	.cfi_offset 4, -8
	.cfi_offset 5, -4
	mov	r5, r0
	.loc 1 981 9 view .LVU789
	movs	r2, #0
	b	.L153
.LVL235:
.L155:
.LBB1319:
	.loc 1 989 4 is_stmt 1 view .LVU790
	.loc 1 989 11 is_stmt 0 view .LVU791
	ldr	r4, .L163
	movs	r3, #84
	mla	r3, r3, r2, r4
	ldrb	r3, [r3, #1]	@ zero_extendqisi2
	.loc 1 989 7 view .LVU792
	cmp	r3, r1
	beq	.L151
.L154:
	.loc 1 989 7 view .LVU793
.LBE1319:
	.loc 1 981 21 is_stmt 1 discriminator 2 view .LVU794
	.loc 1 981 22 is_stmt 0 discriminator 2 view .LVU795
	adds	r2, r2, #1
.LVL236:
.L153:
	.loc 1 981 14 is_stmt 1 discriminator 1 view .LVU796
	.loc 1 981 2 is_stmt 0 discriminator 1 view .LVU797
	cmp	r2, #7
	bgt	.L162
.LBB1322:
	.loc 1 982 3 is_stmt 1 view .LVU798
.LVL237:
.LBB1320:
.LBI1320:
	.loc 1 120 31 view .LVU799
.LBB1321:
	.loc 1 122 2 view .LVU800
	.loc 1 122 9 is_stmt 0 view .LVU801
	ldr	r4, .L163
	movs	r3, #84
	mul	r3, r3, r2
	adds	r0, r4, r3
.LVL238:
	.loc 1 122 9 view .LVU802
.LBE1321:
.LBE1320:
	.loc 1 984 3 is_stmt 1 view .LVU803
	.loc 1 984 10 is_stmt 0 view .LVU804
	ldrb	r3, [r4, r3]	@ zero_extendqisi2
	.loc 1 984 6 view .LVU805
	cmp	r3, #0
	beq	.L154
	.loc 1 985 4 is_stmt 1 view .LVU806
	.loc 1 985 7 is_stmt 0 view .LVU807
	cmp	r5, #0
	beq	.L155
	.loc 1 985 20 discriminator 1 view .LVU808
	ldr	r3, [r0, #8]
	.loc 1 985 14 discriminator 1 view .LVU809
	cmp	r3, r5
	bne	.L154
	b	.L155
.LVL239:
.L162:
	.loc 1 985 14 discriminator 1 view .LVU810
.LBE1322:
	.loc 1 995 8 view .LVU811
	movs	r0, #0
.L151:
	.loc 1 996 1 view .LVU812
	pop	{r4, r5}
	.cfi_restore 5
	.cfi_restore 4
	.cfi_def_cfa_offset 0
.LVL240:
	.loc 1 996 1 view .LVU813
	bx	lr
.LVL241:
.L157:
	.loc 1 978 9 view .LVU814
	movs	r0, #0
.LVL242:
	.loc 1 996 1 view .LVU815
	bx	lr
.L164:
	.align	2
.L163:
	.word	.LANCHOR0
	.cfi_endproc
.LFE968:
	.size	net_ipv6_get_nbr, .-net_ipv6_get_nbr
	.section	.text.net_ipv6_send_na,"ax",%progbits
	.align	1
	.global	net_ipv6_send_na
	.syntax unified
	.thumb
	.thumb_func
	.fpu fpv4-sp-d16
	.type	net_ipv6_send_na, %function
net_ipv6_send_na:
.LVL243:
.LFB972:
	.loc 1 1053 1 is_stmt 1 view -0
	.cfi_startproc
	@ args = 4, pretend = 0, frame = 16
	@ frame_needed = 0, uses_anonymous_args = 0
	.loc 1 1053 1 is_stmt 0 view .LVU817
	push	{r4, r5, r6, r7, r8, r9, lr}
	.cfi_def_cfa_offset 28
	.cfi_offset 4, -28
	.cfi_offset 5, -24
	.cfi_offset 6, -20
	.cfi_offset 7, -16
	.cfi_offset 8, -12
	.cfi_offset 9, -8
	.cfi_offset 14, -4
	sub	sp, sp, #28
	.cfi_def_cfa_offset 56
	mov	r5, r0
	mov	r6, r1
	mov	r7, r2
	mov	r8, r3
	.loc 1 1054 2 is_stmt 1 view .LVU818
	.loc 1 1054 29 is_stmt 0 view .LVU819
	movs	r3, #0
.LVL244:
	.loc 1 1054 29 view .LVU820
	str	r3, [sp, #16]
	movs	r3, #20
	str	r3, [sp, #20]
	.loc 1 1056 2 is_stmt 1 view .LVU821
.LVL245:
	.loc 1 1057 2 view .LVU822
	.loc 1 1058 2 view .LVU823
	.loc 1 1059 2 view .LVU824
	.loc 1 1061 2 view .LVU825
.LBB1346:
.LBI1346:
	.loc 1 998 23 view .LVU826
.LBB1347:
	.loc 1 1000 2 view .LVU827
.LBB1348:
.LBI1348:
	.file 12 "/home/sebin/thesis/zephyrproject/zephyr/include/net/net_if.h"
	.loc 12 680 36 view .LVU828
.LBB1349:
	.loc 12 682 2 view .LVU829
	.loc 12 682 15 is_stmt 0 view .LVU830
	ldr	r3, [r0]
.LVL246:
	.loc 12 682 15 view .LVU831
.LBE1349:
.LBE1348:
	.loc 1 1000 49 view .LVU832
	ldrb	r4, [r3, #20]	@ zero_extendqisi2
.LVL247:
	.loc 1 1003 2 is_stmt 1 view .LVU833
	.loc 1 1003 38 is_stmt 0 view .LVU834
	adds	r4, r4, #9
.LVL248:
	.loc 1 1003 67 view .LVU835
	and	r4, r4, #248
.LVL249:
	.loc 1 1003 67 view .LVU836
.LBE1347:
.LBE1346:
	.loc 1 1063 2 is_stmt 1 view .LVU837
	.loc 9 405 2 view .LVU838
	.loc 9 106 1 view .LVU839
	.loc 9 108 1 view .LVU840
	.loc 9 111 2 view .LVU841
	.loc 9 115 2 view .LVU842
	.loc 9 117 2 view .LVU843
	.loc 9 133 2 view .LVU844
	.loc 9 140 9 view .LVU845
	.loc 9 141 3 view .LVU846
	.loc 9 144 4 view .LVU847
	.loc 1 1063 8 is_stmt 0 view .LVU848
	mov	r2, #1000
.LVL250:
	.loc 1 1063 8 view .LVU849
	movs	r3, #0
.LVL251:
	.loc 1 1063 8 view .LVU850
	strd	r2, [sp]
.LVL252:
	.loc 1 1063 8 view .LVU851
	movs	r3, #58
	movs	r2, #2
	add	r1, r4, #20
.LVL253:
	.loc 1 1063 8 view .LVU852
	bl	net_pkt_alloc_with_buffer
.LVL254:
	.loc 1 1068 2 is_stmt 1 view .LVU853
	.loc 1 1068 5 is_stmt 0 view .LVU854
	cmp	r0, #0
	beq	.L173
	mov	r9, r0
	.loc 1 1072 2 is_stmt 1 view .LVU855
.LVL255:
.LBB1350:
.LBI1350:
	.loc 10 549 20 view .LVU856
.LBB1351:
	.loc 10 552 2 view .LVU857
	.loc 10 552 22 is_stmt 0 view .LVU858
	movs	r3, #255
	strb	r3, [r0, #78]
.LVL256:
	.loc 10 552 22 view .LVU859
.LBE1351:
.LBE1350:
	.loc 1 1074 2 is_stmt 1 view .LVU860
	.loc 1 1074 6 is_stmt 0 view .LVU861
	mov	r2, r7
	mov	r1, r6
	bl	net_ipv6_create
.LVL257:
	.loc 1 1074 5 view .LVU862
	cbz	r0, .L179
.L167:
	.loc 1 1076 3 is_stmt 1 view .LVU863
	.loc 1 1056 6 is_stmt 0 view .LVU864
	mvn	r6, #104
.LVL258:
.L169:
	.loc 1 1117 2 is_stmt 1 view .LVU865
	mov	r0, r9
	bl	net_pkt_unref
.LVL259:
	.loc 1 1119 2 view .LVU866
.L166:
	.loc 1 1120 1 is_stmt 0 view .LVU867
	mov	r0, r6
	add	sp, sp, #28
	.cfi_remember_state
	.cfi_def_cfa_offset 28
	@ sp needed
	pop	{r4, r5, r6, r7, r8, r9, pc}
.LVL260:
.L179:
	.cfi_restore_state
	.loc 1 1075 6 discriminator 1 view .LVU868
	movs	r2, #0
	movs	r1, #136
	mov	r0, r9
	bl	net_icmpv6_create
.LVL261:
	.loc 1 1074 37 discriminator 1 view .LVU869
	cmp	r0, #0
	bne	.L167
	.loc 1 1079 2 is_stmt 1 view .LVU870
	.loc 1 1079 39 is_stmt 0 view .LVU871
	add	r1, sp, #16
	mov	r0, r9
	bl	net_pkt_get_data
.LVL262:
	.loc 1 1080 2 is_stmt 1 view .LVU872
	.loc 1 1080 5 is_stmt 0 view .LVU873
	mov	r3, r0
	cmp	r0, #0
	beq	.L174
	.loc 1 1085 1 is_stmt 1 view .LVU874
.LVL263:
.LBB1352:
.LBI1352:
	.file 13 "/home/sebin/LIOT/gcc-arm-none-eabi-9-2019-q4-major/arm-none-eabi/include/ssp/string.h"
	.loc 13 86 189 view .LVU875
.LBB1353:
	.loc 13 86 238 view .LVU876
	.loc 13 86 245 is_stmt 0 view .LVU877
	movs	r2, #0
	str	r2, [r0]	@ unaligned
	str	r2, [r0, #4]	@ unaligned
	str	r2, [r0, #8]	@ unaligned
	str	r2, [r0, #12]	@ unaligned
	str	r2, [r0, #16]	@ unaligned
.LVL264:
	.loc 13 86 245 view .LVU878
.LBE1353:
.LBE1352:
	.loc 1 1087 2 is_stmt 1 view .LVU879
	.loc 1 1087 16 is_stmt 0 view .LVU880
	mov	r2, r0
	ldrb	r1, [sp, #56]	@ zero_extendqisi2
	strb	r1, [r2], #4
	.loc 1 1088 2 is_stmt 1 view .LVU881
.LVL265:
.LBB1354:
.LBI1354:
	.loc 3 760 20 view .LVU882
.LBE1354:
	.loc 3 763 1 view .LVU883
.LBB1357:
.LBB1355:
.LBI1355:
	.loc 13 83 216 view .LVU884
.LBB1356:
	.loc 13 83 292 view .LVU885
	.loc 13 83 299 is_stmt 0 view .LVU886
	ldr	r7, [r8]	@ unaligned
.LVL266:
	.loc 13 83 299 view .LVU887
	ldr	r6, [r8, #4]	@ unaligned
.LVL267:
	.loc 13 83 299 view .LVU888
	ldr	r0, [r8, #8]	@ unaligned
.LVL268:
	.loc 13 83 299 view .LVU889
	ldr	r1, [r8, #12]	@ unaligned
	str	r7, [r3, #4]	@ unaligned
	str	r6, [r2, #4]	@ unaligned
	str	r0, [r2, #8]	@ unaligned
	str	r1, [r2, #12]	@ unaligned
.LVL269:
	.loc 13 83 299 view .LVU890
.LBE1356:
.LBE1355:
.LBE1357:
	.loc 1 1090 2 is_stmt 1 view .LVU891
	.loc 1 1090 6 is_stmt 0 view .LVU892
	add	r1, sp, #16
	mov	r0, r9
	bl	net_pkt_set_data
.LVL270:
	.loc 1 1090 5 view .LVU893
	mov	r6, r0
	cbz	r0, .L180
	.loc 1 1056 6 view .LVU894
	mvn	r6, #104
	b	.L169
.L180:
	.loc 1 1094 2 is_stmt 1 view .LVU895
.LVL271:
.LBB1358:
.LBI1358:
	.loc 12 680 36 view .LVU896
.LBB1359:
	.loc 12 682 2 view .LVU897
	.loc 12 682 15 is_stmt 0 view .LVU898
	ldr	r7, [r5]
.LVL272:
	.loc 12 682 15 view .LVU899
.LBE1359:
.LBE1358:
.LBB1360:
.LBI1360:
	.loc 1 1006 19 is_stmt 1 view .LVU900
.LBB1361:
	.loc 1 1010 2 view .LVU901
	.loc 1 1010 31 is_stmt 0 view .LVU902
	movs	r2, #2
	strb	r2, [sp, #12]
	lsrs	r3, r4, #3
	strb	r3, [sp, #13]
	.loc 1 1015 2 is_stmt 1 view .LVU903
	.loc 1 1015 6 is_stmt 0 view .LVU904
	add	r1, sp, #12
	mov	r0, r9
	bl	net_pkt_write
.LVL273:
	.loc 1 1015 5 view .LVU905
	cbz	r0, .L181
.L170:
	.loc 1 1019 3 is_stmt 1 view .LVU906
	.loc 1 1019 9 is_stmt 0 view .LVU907
	movs	r3, #0
.L171:
.LVL274:
	.loc 1 1019 9 view .LVU908
.LBE1361:
.LBE1360:
	.loc 1 1094 5 view .LVU909
	cbnz	r3, .L182
	.loc 1 1056 6 view .LVU910
	mvn	r6, #104
	b	.L169
.LVL275:
.L181:
.LBB1363:
.LBB1362:
	.loc 1 1017 6 view .LVU911
	ldrb	r2, [r7, #20]	@ zero_extendqisi2
	ldr	r1, [r7, #16]
	mov	r0, r9
	bl	net_pkt_write
.LVL276:
	.loc 1 1016 44 view .LVU912
	cmp	r0, #0
	bne	.L170
	.loc 1 1018 46 view .LVU913
	ldrb	r2, [r7, #20]	@ zero_extendqisi2
	.loc 1 1018 38 view .LVU914
	subs	r2, r4, r2
	.loc 1 1018 6 view .LVU915
	subs	r2, r2, #2
	movs	r1, #0
	mov	r0, r9
	bl	net_pkt_memset
.LVL277:
	.loc 1 1017 52 view .LVU916
	cmp	r0, #0
	bne	.L170
	.loc 1 1022 8 view .LVU917
	movs	r3, #1
	b	.L171
.LVL278:
.L182:
	.loc 1 1022 8 view .LVU918
.LBE1362:
.LBE1363:
	.loc 1 1099 2 is_stmt 1 view .LVU919
	mov	r0, r9
	bl	net_pkt_cursor_init
.LVL279:
	.loc 1 1100 2 view .LVU920
	movs	r1, #58
	mov	r0, r9
	bl	net_ipv6_finalize
.LVL280:
	.loc 1 1102 2 view .LVU921
	.loc 1 1102 7 view .LVU922
.LBB1364:
	.loc 1 1102 12 view .LVU923
.LBE1364:
	.loc 1 1102 358 view .LVU924
	.loc 1 1102 12 view .LVU925
	.loc 1 1105 2 view .LVU926
	.loc 1 1105 6 is_stmt 0 view .LVU927
	mov	r0, r9
	bl	net_send_data
.LVL281:
	.loc 1 1105 5 view .LVU928
	cmp	r0, #0
	blt	.L183
	.loc 1 1112 2 is_stmt 1 view .LVU929
.LVL282:
.LBB1365:
.LBI1365:
	.file 14 "/home/sebin/thesis/zephyrproject/zephyr/subsys/net/ip/net_stats.h"
	.loc 14 96 20 view .LVU930
.LBB1366:
	.loc 14 98 6 view .LVU931
	.loc 14 98 7 view .LVU932
	.loc 14 98 9 view .LVU933
	.loc 14 98 28 is_stmt 0 view .LVU934
	ldr	r2, .L184
	ldr	r3, [r2, #168]
	.loc 14 98 33 view .LVU935
	adds	r3, r3, #1
	str	r3, [r2, #168]
	.loc 14 98 39 is_stmt 1 view .LVU936
	.loc 14 98 60 is_stmt 0 view .LVU937
	ldr	r3, [r5, #176]
	.loc 14 98 65 view .LVU938
	adds	r3, r3, #1
	str	r3, [r5, #176]
	.loc 14 98 71 is_stmt 1 view .LVU939
.LVL283:
	.loc 14 98 71 is_stmt 0 view .LVU940
.LBE1366:
.LBE1365:
	.loc 1 1114 2 is_stmt 1 view .LVU941
	.loc 1 1114 9 is_stmt 0 view .LVU942
	b	.L166
.L183:
	.loc 1 1106 3 is_stmt 1 view .LVU943
.LVL284:
.LBB1367:
.LBI1367:
	.loc 14 106 20 view .LVU944
.LBB1368:
	.loc 14 108 6 view .LVU945
	.loc 14 108 7 view .LVU946
	.loc 14 108 9 view .LVU947
	.loc 14 108 28 is_stmt 0 view .LVU948
	ldr	r2, .L184
	ldr	r3, [r2, #160]
	.loc 14 108 33 view .LVU949
	adds	r3, r3, #1
	str	r3, [r2, #160]
	.loc 14 108 39 is_stmt 1 view .LVU950
	.loc 14 108 60 is_stmt 0 view .LVU951
	ldr	r3, [r5, #168]
	.loc 14 108 65 view .LVU952
	adds	r3, r3, #1
	str	r3, [r5, #168]
	.loc 14 108 71 is_stmt 1 view .LVU953
.LVL285:
	.loc 14 108 71 is_stmt 0 view .LVU954
.LBE1368:
.LBE1367:
	.loc 1 1107 3 is_stmt 1 view .LVU955
	.loc 1 1109 3 view .LVU956
	.loc 1 1107 7 is_stmt 0 view .LVU957
	mvn	r6, #21
	.loc 1 1109 3 view .LVU958
	b	.L169
.LVL286:
.L174:
	.loc 1 1056 6 view .LVU959
	mvn	r6, #104
.LVL287:
	.loc 1 1056 6 view .LVU960
	b	.L169
.LVL288:
.L173:
	.loc 1 1069 10 view .LVU961
	mvn	r6, #11
.LVL289:
	.loc 1 1069 10 view .LVU962
	b	.L166
.L185:
	.align	2
.L184:
	.word	net_stats
	.cfi_endproc
.LFE972:
	.size	net_ipv6_send_na, .-net_ipv6_send_na
	.section	.text.net_ipv6_nbr_set_reachable_timer,"ax",%progbits
	.align	1
	.global	net_ipv6_nbr_set_reachable_timer
	.syntax unified
	.thumb
	.thumb_func
	.fpu fpv4-sp-d16
	.type	net_ipv6_nbr_set_reachable_timer, %function
net_ipv6_nbr_set_reachable_timer:
.LVL290:
.LFB977:
	.loc 1 1536 1 is_stmt 1 view -0
	.cfi_startproc
	@ args = 0, pretend = 0, frame = 0
	@ frame_needed = 0, uses_anonymous_args = 0
	.loc 1 1536 1 is_stmt 0 view .LVU964
	push	{r3, lr}
	.cfi_def_cfa_offset 8
	.cfi_offset 3, -8
	.cfi_offset 14, -4
	.loc 1 1537 2 is_stmt 1 view .LVU965
	.loc 1 1539 2 view .LVU966
.LVL291:
.LBB1369:
.LBI1369:
	.loc 12 1340 24 view .LVU967
.LBB1370:
	.loc 12 1343 2 view .LVU968
	.loc 12 1343 23 is_stmt 0 view .LVU969
	ldr	r3, [r0, #528]
	.loc 12 1343 5 view .LVU970
	cbz	r3, .L188
	.loc 12 1347 2 is_stmt 1 view .LVU971
	.loc 12 1347 30 is_stmt 0 view .LVU972
	ldr	r2, [r3, #252]
.L187:
.LVL292:
	.loc 12 1347 30 view .LVU973
.LBE1370:
.LBE1369:
	.loc 1 1541 4 is_stmt 1 view .LVU974
	.loc 1 1541 5 view .LVU975
	.loc 1 1543 2 view .LVU976
.LBB1372:
	.loc 1 1543 7 view .LVU977
.LBE1372:
	.loc 1 1543 187 view .LVU978
	.loc 1 1546 2 view .LVU979
	movs	r3, #0
	mov	r0, r1
.LVL293:
	.loc 1 1546 2 is_stmt 0 view .LVU980
	bl	ipv6_nd_restart_reachable_timer
.LVL294:
	.loc 1 1547 1 view .LVU981
	pop	{r3, pc}
.LVL295:
.L188:
.LBB1373:
.LBB1371:
	.loc 12 1344 10 view .LVU982
	movs	r2, #0
	b	.L187
.LBE1371:
.LBE1373:
	.cfi_endproc
.LFE977:
	.size	net_ipv6_nbr_set_reachable_timer, .-net_ipv6_nbr_set_reachable_timer
	.section	.rodata.handle_na_input.str1.4,"aMS",%progbits,1
	.align	2
.LC8:
	.ascii	"DROP: NULL NA header\000"
	.align	2
.LC9:
	.ascii	"DROP: Corrupted NA message\000"
	.align	2
.LC10:
	.ascii	"DAD failed, no ll IPv6 address!\000"
	.section	.text.handle_na_input,"ax",%progbits
	.align	1
	.syntax unified
	.thumb
	.thumb_func
	.fpu fpv4-sp-d16
	.type	handle_na_input, %function
handle_na_input:
.LVL296:
.LFB979:
	.loc 1 1732 1 is_stmt 1 view -0
	.cfi_startproc
	@ args = 0, pretend = 0, frame = 112
	@ frame_needed = 0, uses_anonymous_args = 0
	.loc 1 1732 1 is_stmt 0 view .LVU984
	push	{r4, r5, r6, r7, r8, r9, r10, lr}
	.cfi_def_cfa_offset 32
	.cfi_offset 4, -32
	.cfi_offset 5, -28
	.cfi_offset 6, -24
	.cfi_offset 7, -20
	.cfi_offset 8, -16
	.cfi_offset 9, -12
	.cfi_offset 10, -8
	.cfi_offset 14, -4
	sub	sp, sp, #112
	.cfi_def_cfa_offset 144
	mov	r4, r0
	mov	r8, r1
	mov	r6, r2
	.loc 1 1733 2 is_stmt 1 view .LVU985
	.loc 1 1733 29 is_stmt 0 view .LVU986
	movs	r5, #0
	str	r5, [sp, #32]
	movs	r3, #20
	str	r3, [sp, #36]
	.loc 1 1735 2 is_stmt 1 view .LVU987
	.loc 1 1735 47 view .LVU988
	.loc 1 1735 74 is_stmt 0 view .LVU989
	add	r3, sp, #28
	str	r3, [sp, #20]
	movs	r3, #2
	str	r3, [sp, #24]
	.loc 1 1736 2 is_stmt 1 view .LVU990
.LVL297:
.LBB1518:
.LBI1518:
	.loc 10 961 22 view .LVU991
.LBB1519:
	.loc 10 963 2 view .LVU992
	.loc 10 963 9 is_stmt 0 view .LVU993
	ldr	r3, [r0, #8]
.LVL298:
.LBB1520:
.LBI1520:
	.file 15 "/home/sebin/thesis/zephyrproject/zephyr/include/net/buf.h"
	.loc 15 2465 22 is_stmt 1 view .LVU994
.LBB1521:
	.loc 15 2467 2 view .LVU995
	.loc 15 2469 2 view .LVU996
.L191:
	.loc 15 2469 8 view .LVU997
	cbz	r3, .L236
	.loc 15 2470 3 view .LVU998
	.loc 15 2470 15 is_stmt 0 view .LVU999
	ldrh	r2, [r3, #12]
	.loc 15 2470 9 view .LVU1000
	add	r5, r5, r2
.LVL299:
	.loc 15 2471 3 is_stmt 1 view .LVU1001
	.loc 15 2471 7 is_stmt 0 view .LVU1002
	ldr	r3, [r3]
.LVL300:
	.loc 15 2471 7 view .LVU1003
	b	.L191
.L236:
	.loc 15 2474 2 is_stmt 1 view .LVU1004
.LVL301:
	.loc 15 2474 2 is_stmt 0 view .LVU1005
.LBE1521:
.LBE1520:
.LBE1519:
.LBE1518:
	.loc 1 1736 11 view .LVU1006
	uxth	r5, r5
.LVL302:
	.loc 1 1737 2 is_stmt 1 view .LVU1007
	.loc 1 1738 2 view .LVU1008
	.loc 1 1739 2 view .LVU1009
	.loc 1 1740 2 view .LVU1010
	.loc 1 1742 2 view .LVU1011
	.loc 1 1742 39 is_stmt 0 view .LVU1012
	add	r1, sp, #32
.LVL303:
	.loc 1 1742 39 view .LVU1013
	mov	r0, r4
.LVL304:
	.loc 1 1742 39 view .LVU1014
	bl	net_pkt_get_data
.LVL305:
	.loc 1 1743 2 is_stmt 1 view .LVU1015
	.loc 1 1743 5 is_stmt 0 view .LVU1016
	mov	r7, r0
	cbz	r0, .L237
	.loc 1 1748 2 is_stmt 1 view .LVU1017
	.loc 1 1748 7 view .LVU1018
.LBB1522:
	.loc 1 1748 12 view .LVU1019
.LBE1522:
	.loc 1 1748 380 view .LVU1020
	.loc 1 1748 12 view .LVU1021
	.loc 1 1751 2 view .LVU1022
.LVL306:
.LBB1523:
.LBI1523:
	.loc 10 293 30 view .LVU1023
.LBB1524:
	.loc 10 295 2 view .LVU1024
	.loc 10 295 12 is_stmt 0 view .LVU1025
	ldr	r2, [r4, #24]
.LVL307:
	.loc 10 295 12 view .LVU1026
.LBE1524:
.LBE1523:
.LBB1525:
.LBI1525:
	.loc 14 101 20 is_stmt 1 view .LVU1027
.LBB1526:
	.loc 14 103 6 view .LVU1028
	.loc 14 103 7 view .LVU1029
	.loc 14 103 9 view .LVU1030
	.loc 14 103 28 is_stmt 0 view .LVU1031
	ldr	r1, .L254
	ldr	r3, [r1, #164]
	.loc 14 103 33 view .LVU1032
	adds	r3, r3, #1
	str	r3, [r1, #164]
	.loc 14 103 39 is_stmt 1 view .LVU1033
	.loc 14 103 60 is_stmt 0 view .LVU1034
	ldr	r3, [r2, #172]
	.loc 14 103 65 view .LVU1035
	adds	r3, r3, #1
	str	r3, [r2, #172]
	.loc 14 103 71 is_stmt 1 view .LVU1036
.LVL308:
	.loc 14 103 71 is_stmt 0 view .LVU1037
.LBE1526:
.LBE1525:
	.loc 1 1753 2 is_stmt 1 view .LVU1038
	.loc 1 1753 5 is_stmt 0 view .LVU1039
	cmp	r5, #65
	bls	.L195
	.loc 1 1757 14 view .LVU1040
	ldrb	r3, [r8, #7]	@ zero_extendqisi2
	.loc 1 1756 43 view .LVU1041
	cmp	r3, #255
	beq	.L238
.L195:
	.loc 1 1761 15 view .LVU1042
	ldrb	r3, [r6, #1]	@ zero_extendqisi2
	.loc 1 1760 65 view .LVU1043
	cmp	r3, #0
	bne	.L194
.L196:
	.loc 1 1765 2 is_stmt 1 view .LVU1044
.LVL309:
.LBB1527:
.LBI1527:
	.loc 10 2173 19 view .LVU1045
.LBB1528:
	.loc 10 2176 2 view .LVU1046
	.loc 10 2176 9 is_stmt 0 view .LVU1047
	ldr	r1, [sp, #36]
	mov	r0, r4
.LVL310:
	.loc 10 2176 9 view .LVU1048
	bl	net_pkt_skip
.LVL311:
	.loc 10 2176 9 view .LVU1049
.LBE1528:
.LBE1527:
	.loc 1 1767 2 is_stmt 1 view .LVU1050
.LBB1529:
.LBI1529:
	.loc 10 506 20 view .LVU1051
.LBB1530:
	.loc 10 509 2 view .LVU1052
	.loc 10 509 24 is_stmt 0 view .LVU1053
	movs	r3, #20
	strb	r3, [r4, #86]
.LVL312:
	.loc 10 509 24 view .LVU1054
.LBE1530:
.LBE1529:
	.loc 1 1768 2 is_stmt 1 view .LVU1055
	.loc 1 1768 9 is_stmt 0 view .LVU1056
	subs	r5, r5, #44
.LVL313:
	.loc 1 1768 9 view .LVU1057
	uxth	r5, r5
.LVL314:
	.loc 1 1770 2 is_stmt 1 view .LVU1058
	.loc 1 1771 5 is_stmt 0 view .LVU1059
	add	r1, sp, r3
	mov	r0, r4
	bl	net_pkt_get_data
.LVL315:
	.loc 1 1773 2 is_stmt 1 view .LVU1060
	.loc 1 1737 11 is_stmt 0 view .LVU1061
	movs	r6, #0
.LVL316:
	.loc 1 1773 8 view .LVU1062
	b	.L197
.LVL317:
.L237:
	.loc 1 1744 3 is_stmt 1 view .LVU1063
.LBB1531:
	.loc 1 1744 8 view .LVU1064
	.loc 1 1744 57 view .LVU1065
	.loc 1 1744 14 view .LVU1066
	.loc 1 1744 2 view .LVU1067
.LBE1531:
	.file 16 "/home/sebin/thesis/zephyrproject/zephyr/include/syscall.h"
	.loc 16 120 2 view .LVU1068
.LBB1544:
	.loc 1 1744 41 view .LVU1069
	.loc 1 1744 107 view .LVU1070
	.loc 1 1744 206 view .LVU1071
.LBB1532:
	.loc 1 1744 215 view .LVU1072
	.loc 1 1744 226 view .LVU1073
	.loc 1 1744 314 view .LVU1074
	.loc 1 1744 319 view .LVU1075
	.loc 1 1744 321 view .LVU1076
.LBE1532:
.LBE1544:
	.loc 1 1744 3 view .LVU1077
	.loc 1 1744 3 view .LVU1078
.LBB1545:
.LBB1541:
	.loc 1 1744 74 view .LVU1079
.LBB1533:
	.loc 1 1744 79 view .LVU1080
	.loc 1 1744 90 view .LVU1081
.LBE1533:
.LBE1541:
.LBE1545:
	.loc 1 1744 3 view .LVU1082
	.loc 1 1744 217 view .LVU1083
	.loc 1 1744 2 view .LVU1084
	.loc 1 1744 31 view .LVU1085
	.loc 1 1744 4 view .LVU1086
	.loc 1 1744 24 view .LVU1087
	.loc 1 1744 48 view .LVU1088
	.loc 1 1744 23 view .LVU1089
	.loc 1 1744 41 view .LVU1090
	.loc 1 1744 61 view .LVU1091
	.loc 1 1744 108 view .LVU1092
	.loc 1 1744 140 view .LVU1093
	.loc 1 1744 13 view .LVU1094
	.loc 1 1744 55 view .LVU1095
	.loc 1 1744 97 view .LVU1096
	.loc 1 1744 142 view .LVU1097
	.loc 1 1744 147 view .LVU1098
	.loc 1 1744 391 view .LVU1099
	.loc 1 1744 397 view .LVU1100
	.loc 1 1744 1478 view .LVU1101
	.loc 1 1744 1502 view .LVU1102
	.loc 1 1744 1549 view .LVU1103
	.loc 1 1744 1653 view .LVU1104
	.loc 1 1744 1668 view .LVU1105
	.loc 1 1744 1945 view .LVU1106
	.loc 1 1744 1993 view .LVU1107
	.loc 1 1744 3213 view .LVU1108
	.loc 1 1744 3220 view .LVU1109
	.loc 1 1744 3243 view .LVU1110
	.loc 1 1744 3277 view .LVU1111
	.loc 1 1744 3282 view .LVU1112
	.loc 1 1744 3305 view .LVU1113
	.loc 1 1744 3433 view .LVU1114
	.loc 1 1744 16 view .LVU1115
.LBB1546:
.LBB1542:
.LBB1539:
	.loc 1 1744 11 view .LVU1116
	.loc 1 1744 16 view .LVU1117
	.loc 1 1744 39 view .LVU1118
	.loc 1 1744 159 view .LVU1119
	.loc 1 1744 285 view .LVU1120
	.loc 1 1744 488 view .LVU1121
	.loc 1 1744 5 view .LVU1122
	.loc 1 1744 7 view .LVU1123
	.loc 1 1744 20 view .LVU1124
.LBB1534:
	.loc 1 1744 3 view .LVU1125
	.loc 1 1744 217 view .LVU1126
	.loc 1 1744 2 view .LVU1127
	.loc 1 1744 31 view .LVU1128
	.loc 1 1744 60 view .LVU1129
	.loc 1 1744 80 view .LVU1130
	.loc 1 1744 104 view .LVU1131
	.loc 1 1744 27 view .LVU1132
	.loc 1 1744 45 view .LVU1133
	.loc 1 1744 65 view .LVU1134
	.loc 1 1744 112 view .LVU1135
	.loc 1 1744 144 view .LVU1136
	.loc 1 1744 13 view .LVU1137
	.loc 1 1744 55 view .LVU1138
	.loc 1 1744 97 view .LVU1139
	.loc 1 1744 142 view .LVU1140
.LBB1535:
	.loc 1 1744 147 view .LVU1141
	.loc 1 1744 391 view .LVU1142
	.loc 1 1744 397 view .LVU1143
	.loc 1 1744 1478 view .LVU1144
.LBE1535:
.LBE1534:
.LBE1539:
.LBE1542:
.LBE1546:
	.loc 1 1744 1502 view .LVU1145
	.loc 1 1744 1549 view .LVU1146
	.loc 1 1744 1653 view .LVU1147
.LBB1547:
.LBB1543:
.LBB1540:
.LBB1538:
.LBB1536:
	.loc 1 1744 1668 view .LVU1148
	.loc 1 1744 1945 view .LVU1149
	.loc 1 1744 1993 view .LVU1150
	.loc 1 1744 2031 view .LVU1151
	.loc 1 1744 2036 view .LVU1152
	.loc 1 1744 2559 view .LVU1153
	.loc 1 1744 3177 is_stmt 0 view .LVU1154
	ldr	r3, .L254+4
	str	r3, [sp, #80]
	.loc 1 1744 3213 is_stmt 1 view .LVU1155
	.loc 1 1744 3220 view .LVU1156
.LVL318:
	.loc 1 1744 3243 view .LVU1157
	.loc 1 1744 3243 is_stmt 0 view .LVU1158
.LBE1536:
	.loc 1 1744 3277 is_stmt 1 view .LVU1159
	.loc 1 1744 3282 view .LVU1160
	.loc 1 1744 3305 view .LVU1161
	.loc 1 1744 3433 view .LVU1162
	.loc 1 1744 16 view .LVU1163
.LBB1537:
	.loc 1 1744 29 view .LVU1164
	.loc 1 1744 50 is_stmt 0 view .LVU1165
	movs	r3, #0
	strh	r3, [sp, #13]	@ unaligned
	strb	r3, [sp, #15]
	movs	r2, #2
	strb	r2, [sp, #12]
	strb	r3, [sp, #14]
	.loc 1 1744 175 is_stmt 1 view .LVU1166
	.loc 1 1744 185 is_stmt 0 view .LVU1167
	ldr	r2, [sp, #12]
	str	r2, [sp, #76]
	.loc 1 1744 185 view .LVU1168
.LBE1537:
.LBE1538:
	.loc 1 1744 11 is_stmt 1 view .LVU1169
	.loc 1 1744 18 view .LVU1170
	.loc 1 1744 39 is_stmt 0 view .LVU1171
	mov	r2, r3
.LVL319:
	.loc 1 1744 39 view .LVU1172
	bfi	r2, r3, #0, #1
.LVL320:
	.loc 1 1744 39 view .LVU1173
	bfi	r2, r3, #1, #1
	bfi	r2, r3, #2, #1
	bfi	r2, r3, #3, #3
	movs	r1, #1
	bfi	r2, r1, #6, #3
	movs	r1, #8
	bfi	r2, r1, #9, #10
	.loc 1 1744 174 is_stmt 1 view .LVU1174
	ubfx	r2, r2, #0, #19
.LVL321:
	.loc 1 1744 174 is_stmt 0 view .LVU1175
	ldr	r1, .L254+8
	add	r0, sp, #64
.LVL322:
	.loc 1 1744 174 view .LVU1176
	bl	z_log_msg2_finalize
.LVL323:
	.loc 1 1744 174 view .LVU1177
.LBE1540:
	.loc 1 1744 13 is_stmt 1 view .LVU1178
	.loc 1 1744 18 view .LVU1179
.LVL324:
	.loc 1 1744 58 view .LVU1180
.LBE1543:
	.loc 1 1744 13 view .LVU1181
	.loc 1 1744 20 view .LVU1182
	.loc 1 1744 20 is_stmt 0 view .LVU1183
.LBE1547:
	.loc 1 1744 66 is_stmt 1 view .LVU1184
	.loc 1 1745 3 view .LVU1185
	b	.L194
.LVL325:
.L238:
.LBB1548:
.LBI1548:
	.loc 3 604 19 view .LVU1186
.LBB1549:
	.loc 3 606 2 view .LVU1187
	.loc 3 606 22 is_stmt 0 view .LVU1188
	ldrb	r3, [r0, #4]	@ zero_extendqisi2
.LVL326:
	.loc 3 606 22 view .LVU1189
.LBE1549:
.LBE1548:
	.loc 1 1757 34 view .LVU1190
	cmp	r3, #255
	beq	.L195
	.loc 1 1759 14 view .LVU1191
	ldrb	r3, [r0]	@ zero_extendqisi2
	.loc 1 1758 62 view .LVU1192
	tst	r3, #64
	beq	.L196
.LVL327:
.LBB1550:
.LBI1550:
	.loc 3 604 19 is_stmt 1 view .LVU1193
.LBB1551:
	.loc 3 606 2 view .LVU1194
	.loc 3 606 22 is_stmt 0 view .LVU1195
	ldrb	r3, [r8, #24]	@ zero_extendqisi2
.LVL328:
	.loc 3 606 22 view .LVU1196
.LBE1551:
.LBE1550:
	.loc 1 1759 29 view .LVU1197
	cmp	r3, #255
	bne	.L196
	b	.L195
.LVL329:
.L198:
.LBB1552:
	.loc 1 1790 3 is_stmt 1 view .LVU1198
	.loc 1 1790 3 is_stmt 0 view .LVU1199
.LBE1552:
	.loc 10 503 2 is_stmt 1 view .LVU1200
.LBB1578:
	.loc 1 1792 3 view .LVU1201
	.loc 1 1792 3 is_stmt 0 view .LVU1202
.LBE1578:
	.loc 10 503 2 is_stmt 1 view .LVU1203
.LBB1579:
	.loc 1 1794 28 is_stmt 0 view .LVU1204
	lsls	r3, r3, #3
	uxtb	r3, r3
	.loc 1 1792 3 view .LVU1205
	add	r3, r3, r2
	uxtb	r3, r3
.LVL330:
.LBB1553:
.LBI1553:
	.loc 10 506 20 is_stmt 1 view .LVU1206
.LBB1554:
	.loc 10 509 2 view .LVU1207
	.loc 10 509 24 is_stmt 0 view .LVU1208
	strb	r3, [r4, #86]
.LVL331:
	.loc 10 509 24 view .LVU1209
.LBE1554:
.LBE1553:
	.loc 1 1796 3 is_stmt 1 view .LVU1210
	.loc 1 1796 3 is_stmt 0 view .LVU1211
.LBE1579:
	.loc 10 503 2 is_stmt 1 view .LVU1212
.LBB1580:
	.loc 1 1796 6 is_stmt 0 view .LVU1213
	cmp	r3, r2
	bls	.L239
	.loc 1 1801 3 is_stmt 1 view .LVU1214
.LVL332:
.LBB1555:
.LBI1555:
	.loc 10 2173 19 view .LVU1215
.LBB1556:
	.loc 10 2176 2 view .LVU1216
	.loc 10 2176 9 is_stmt 0 view .LVU1217
	ldr	r1, [sp, #24]
	mov	r0, r4
	bl	net_pkt_skip
.LVL333:
	.loc 10 2176 9 view .LVU1218
.LBE1556:
.LBE1555:
	.loc 1 1802 3 is_stmt 1 view .LVU1219
	.loc 1 1803 6 is_stmt 0 view .LVU1220
	add	r1, sp, #20
	mov	r0, r4
	bl	net_pkt_get_data
.LVL334:
.L197:
	.loc 1 1803 6 view .LVU1221
.LBE1580:
	.loc 1 1773 8 is_stmt 1 view .LVU1222
	cmp	r0, #0
	beq	.L200
	.loc 1 1773 33 is_stmt 0 discriminator 1 view .LVU1223
	ldrb	r3, [r0, #1]	@ zero_extendqisi2
	.loc 1 1773 20 discriminator 1 view .LVU1224
	cmp	r3, #0
	beq	.L200
.LVL335:
.LBB1581:
.LBI1581:
	.loc 10 501 23 is_stmt 1 view .LVU1225
.LBB1582:
	.loc 10 503 2 view .LVU1226
	.loc 10 503 12 is_stmt 0 view .LVU1227
	ldrb	r2, [r4, #86]	@ zero_extendqisi2
.LVL336:
	.loc 10 503 12 view .LVU1228
.LBE1582:
.LBE1581:
	.loc 1 1774 9 view .LVU1229
	uxth	r1, r2
	.loc 1 1773 39 view .LVU1230
	cmp	r1, r5
	bcs	.L200
.LBB1583:
	.loc 1 1775 3 is_stmt 1 view .LVU1231
	.loc 1 1777 3 view .LVU1232
	.loc 1 1777 21 is_stmt 0 view .LVU1233
	ldrb	r0, [r0]	@ zero_extendqisi2
.LVL337:
	.loc 1 1777 3 view .LVU1234
	cmp	r0, #2
	bne	.L198
	.loc 1 1779 4 is_stmt 1 view .LVU1235
.LVL338:
.LBB1557:
.LBI1557:
	.loc 10 371 23 view .LVU1236
.LBB1558:
	.loc 10 373 2 view .LVU1237
	.loc 10 373 2 is_stmt 0 view .LVU1238
.LBE1558:
.LBE1557:
	.loc 1 1779 19 view .LVU1239
	ldrb	r6, [r4, #72]	@ zero_extendqisi2
.LVL339:
.LBB1559:
.LBI1559:
	.loc 10 523 24 is_stmt 1 view .LVU1240
.LBB1560:
	.loc 10 525 2 view .LVU1241
	.loc 10 525 12 is_stmt 0 view .LVU1242
	ldrh	r0, [r4, #80]
.LVL340:
	.loc 10 525 12 view .LVU1243
.LBE1560:
.LBE1559:
	.loc 1 1779 43 view .LVU1244
	add	r6, r6, r0
.LVL341:
	.loc 1 1779 43 view .LVU1245
.LBE1583:
	.loc 10 503 2 is_stmt 1 view .LVU1246
.LBB1584:
	.loc 1 1781 33 is_stmt 0 view .LVU1247
	uxtah	r6, r1, r6
	uxth	r6, r6
	.loc 1 1779 17 view .LVU1248
	adds	r6, r6, #6
	uxth	r6, r6
.LVL342:
	.loc 1 1783 4 is_stmt 1 view .LVU1249
	b	.L198
.LVL343:
.L239:
	.loc 1 1797 4 view .LVU1250
.LBB1561:
	.loc 1 1797 9 view .LVU1251
	.loc 1 1797 58 view .LVU1252
	.loc 1 1797 15 view .LVU1253
	.loc 1 1797 3 view .LVU1254
.LBE1561:
.LBE1584:
	.loc 16 120 2 view .LVU1255
.LBB1585:
.LBB1574:
	.loc 1 1797 42 view .LVU1256
	.loc 1 1797 108 view .LVU1257
	.loc 1 1797 207 view .LVU1258
.LBB1562:
	.loc 1 1797 216 view .LVU1259
	.loc 1 1797 227 view .LVU1260
	.loc 1 1797 315 view .LVU1261
	.loc 1 1797 320 view .LVU1262
	.loc 1 1797 322 view .LVU1263
.LBE1562:
.LBE1574:
.LBE1585:
	.loc 1 1797 4 view .LVU1264
	.loc 1 1797 4 view .LVU1265
.LBB1586:
.LBB1575:
.LBB1571:
	.loc 1 1797 81 view .LVU1266
.LBB1563:
	.loc 1 1797 86 view .LVU1267
	.loc 1 1797 97 view .LVU1268
.LBE1563:
.LBE1571:
.LBE1575:
.LBE1586:
	.loc 1 1797 4 view .LVU1269
	.loc 1 1797 218 view .LVU1270
	.loc 1 1797 3 view .LVU1271
	.loc 1 1797 32 view .LVU1272
	.loc 1 1797 5 view .LVU1273
	.loc 1 1797 25 view .LVU1274
	.loc 1 1797 49 view .LVU1275
	.loc 1 1797 24 view .LVU1276
	.loc 1 1797 42 view .LVU1277
	.loc 1 1797 62 view .LVU1278
	.loc 1 1797 109 view .LVU1279
	.loc 1 1797 141 view .LVU1280
	.loc 1 1797 14 view .LVU1281
	.loc 1 1797 56 view .LVU1282
	.loc 1 1797 98 view .LVU1283
	.loc 1 1797 143 view .LVU1284
	.loc 1 1797 148 view .LVU1285
	.loc 1 1797 398 view .LVU1286
	.loc 1 1797 404 view .LVU1287
	.loc 1 1797 1509 view .LVU1288
	.loc 1 1797 1533 view .LVU1289
	.loc 1 1797 1586 view .LVU1290
	.loc 1 1797 1696 view .LVU1291
	.loc 1 1797 1711 view .LVU1292
	.loc 1 1797 1994 view .LVU1293
	.loc 1 1797 2042 view .LVU1294
	.loc 1 1797 3310 view .LVU1295
	.loc 1 1797 3317 view .LVU1296
	.loc 1 1797 3340 view .LVU1297
	.loc 1 1797 3374 view .LVU1298
	.loc 1 1797 3379 view .LVU1299
	.loc 1 1797 3402 view .LVU1300
	.loc 1 1797 3530 view .LVU1301
	.loc 1 1797 17 view .LVU1302
.LBB1587:
.LBB1576:
.LBB1572:
.LBB1569:
	.loc 1 1797 12 view .LVU1303
	.loc 1 1797 17 view .LVU1304
	.loc 1 1797 40 view .LVU1305
	.loc 1 1797 160 view .LVU1306
	.loc 1 1797 286 view .LVU1307
	.loc 1 1797 489 view .LVU1308
	.loc 1 1797 6 view .LVU1309
	.loc 1 1797 8 view .LVU1310
	.loc 1 1797 21 view .LVU1311
.LBB1564:
	.loc 1 1797 4 view .LVU1312
	.loc 1 1797 218 view .LVU1313
	.loc 1 1797 3 view .LVU1314
	.loc 1 1797 32 view .LVU1315
	.loc 1 1797 61 view .LVU1316
	.loc 1 1797 81 view .LVU1317
	.loc 1 1797 105 view .LVU1318
	.loc 1 1797 28 view .LVU1319
	.loc 1 1797 46 view .LVU1320
	.loc 1 1797 66 view .LVU1321
	.loc 1 1797 113 view .LVU1322
	.loc 1 1797 145 view .LVU1323
	.loc 1 1797 14 view .LVU1324
	.loc 1 1797 56 view .LVU1325
	.loc 1 1797 98 view .LVU1326
	.loc 1 1797 143 view .LVU1327
.LBB1565:
	.loc 1 1797 148 view .LVU1328
	.loc 1 1797 398 view .LVU1329
	.loc 1 1797 404 view .LVU1330
	.loc 1 1797 1509 view .LVU1331
.LBE1565:
.LBE1564:
.LBE1569:
.LBE1572:
.LBE1576:
.LBE1587:
	.loc 1 1797 1533 view .LVU1332
	.loc 1 1797 1586 view .LVU1333
	.loc 1 1797 1696 view .LVU1334
.LBB1588:
.LBB1577:
.LBB1573:
.LBB1570:
.LBB1568:
.LBB1566:
	.loc 1 1797 1711 view .LVU1335
	.loc 1 1797 1994 view .LVU1336
	.loc 1 1797 2042 view .LVU1337
	.loc 1 1797 2080 view .LVU1338
	.loc 1 1797 2085 view .LVU1339
	.loc 1 1797 2644 view .LVU1340
	.loc 1 1797 3268 is_stmt 0 view .LVU1341
	ldr	r3, .L254+12
	str	r3, [sp, #56]
	.loc 1 1797 3310 is_stmt 1 view .LVU1342
	.loc 1 1797 3317 view .LVU1343
.LVL344:
	.loc 1 1797 3340 view .LVU1344
	.loc 1 1797 3340 is_stmt 0 view .LVU1345
.LBE1566:
	.loc 1 1797 3374 is_stmt 1 view .LVU1346
	.loc 1 1797 3379 view .LVU1347
	.loc 1 1797 3402 view .LVU1348
	.loc 1 1797 3530 view .LVU1349
	.loc 1 1797 17 view .LVU1350
.LBB1567:
	.loc 1 1797 30 view .LVU1351
	.loc 1 1797 51 is_stmt 0 view .LVU1352
	movs	r3, #0
	strh	r3, [sp, #13]	@ unaligned
	strb	r3, [sp, #15]
	movs	r2, #2
.LVL345:
	.loc 1 1797 51 view .LVU1353
	strb	r2, [sp, #12]
	strb	r3, [sp, #14]
	.loc 1 1797 176 is_stmt 1 view .LVU1354
	.loc 1 1797 186 is_stmt 0 view .LVU1355
	ldr	r2, [sp, #12]
	str	r2, [sp, #52]
	.loc 1 1797 186 view .LVU1356
.LBE1567:
.LBE1568:
	.loc 1 1797 12 is_stmt 1 view .LVU1357
	.loc 1 1797 19 view .LVU1358
	.loc 1 1797 40 is_stmt 0 view .LVU1359
	mov	r2, r3
.LVL346:
	.loc 1 1797 40 view .LVU1360
	bfi	r2, r3, #0, #1
.LVL347:
	.loc 1 1797 40 view .LVU1361
	bfi	r2, r3, #1, #1
	bfi	r2, r3, #2, #1
	bfi	r2, r3, #3, #3
	movs	r1, #1
	bfi	r2, r1, #6, #3
	movs	r1, #8
	bfi	r2, r1, #9, #10
	.loc 1 1797 175 is_stmt 1 view .LVU1362
	ubfx	r2, r2, #0, #19
.LVL348:
	.loc 1 1797 175 is_stmt 0 view .LVU1363
	ldr	r1, .L254+8
	add	r0, sp, #40
.LVL349:
	.loc 1 1797 175 view .LVU1364
	bl	z_log_msg2_finalize
.LVL350:
	.loc 1 1797 175 view .LVU1365
.LBE1570:
	.loc 1 1797 14 is_stmt 1 view .LVU1366
	.loc 1 1797 19 view .LVU1367
.LVL351:
	.loc 1 1797 59 view .LVU1368
.LBE1573:
	.loc 1 1797 14 view .LVU1369
	.loc 1 1797 21 view .LVU1370
	.loc 1 1797 21 is_stmt 0 view .LVU1371
.LBE1577:
	.loc 1 1797 73 is_stmt 1 view .LVU1372
	.loc 1 1798 4 view .LVU1373
	b	.L194
.LVL352:
.L200:
	.loc 1 1798 4 is_stmt 0 view .LVU1374
.LBE1588:
	.loc 1 1806 2 is_stmt 1 view .LVU1375
.LBB1589:
.LBI1589:
	.loc 10 293 30 view .LVU1376
.LBB1590:
	.loc 10 295 2 view .LVU1377
	.loc 10 295 2 is_stmt 0 view .LVU1378
.LBE1590:
.LBE1589:
	.loc 1 1807 28 view .LVU1379
	adds	r5, r7, #4
.LVL353:
	.loc 1 1806 11 view .LVU1380
	mov	r1, r5
	ldr	r0, [r4, #24]
.LVL354:
	.loc 1 1806 11 view .LVU1381
	bl	net_if_ipv6_addr_lookup_by_iface
.LVL355:
	.loc 1 1808 2 is_stmt 1 view .LVU1382
	.loc 1 1808 5 is_stmt 0 view .LVU1383
	cmp	r0, #0
	beq	.L202
	.loc 1 1809 3 is_stmt 1 view .LVU1384
.LBB1591:
	.loc 1 1809 8 view .LVU1385
.LBE1591:
	.loc 1 1809 248 view .LVU1386
	.loc 1 1815 3 view .LVU1387
	.loc 1 1815 13 is_stmt 0 view .LVU1388
	ldrsb	r3, [r0, #45]
	.loc 1 1815 6 view .LVU1389
	cbz	r3, .L240
.LVL356:
.L194:
	.loc 1 1835 2 is_stmt 1 view .LVU1390
.LBB1592:
.LBI1592:
	.loc 10 293 30 view .LVU1391
.LBB1593:
	.loc 10 295 2 view .LVU1392
	.loc 10 295 12 is_stmt 0 view .LVU1393
	ldr	r2, [r4, #24]
.LVL357:
	.loc 10 295 12 view .LVU1394
.LBE1593:
.LBE1592:
.LBB1594:
.LBI1594:
	.loc 14 106 20 is_stmt 1 view .LVU1395
.LBB1595:
	.loc 14 108 6 view .LVU1396
	.loc 14 108 7 view .LVU1397
	.loc 14 108 9 view .LVU1398
	.loc 14 108 28 is_stmt 0 view .LVU1399
	ldr	r1, .L254
	ldr	r3, [r1, #160]
	.loc 14 108 33 view .LVU1400
	adds	r3, r3, #1
	str	r3, [r1, #160]
	.loc 14 108 39 is_stmt 1 view .LVU1401
	.loc 14 108 60 is_stmt 0 view .LVU1402
	ldr	r3, [r2, #168]
	.loc 14 108 65 view .LVU1403
	adds	r3, r3, #1
	str	r3, [r2, #168]
	.loc 14 108 71 is_stmt 1 view .LVU1404
.LVL358:
	.loc 14 108 71 is_stmt 0 view .LVU1405
.LBE1595:
.LBE1594:
	.loc 1 1837 2 is_stmt 1 view .LVU1406
	.loc 1 1837 9 is_stmt 0 view .LVU1407
	movs	r0, #2
.L229:
	.loc 1 1838 1 view .LVU1408
	add	sp, sp, #112
	.cfi_remember_state
	.cfi_def_cfa_offset 32
	@ sp needed
	pop	{r4, r5, r6, r7, r8, r9, r10, pc}
.LVL359:
.L240:
	.cfi_restore_state
	.loc 1 1816 4 is_stmt 1 view .LVU1409
.LBB1596:
.LBI1596:
	.loc 10 293 30 view .LVU1410
.LBB1597:
	.loc 10 295 2 view .LVU1411
	.loc 10 295 12 is_stmt 0 view .LVU1412
	ldr	r0, [r4, #24]
.LVL360:
	.loc 10 295 12 view .LVU1413
.LBE1597:
.LBE1596:
.LBB1598:
.LBI1598:
	.loc 1 705 19 is_stmt 1 view .LVU1414
.LBB1599:
	.loc 1 707 2 view .LVU1415
.LBB1600:
.LBI1600:
	.loc 3 831 19 view .LVU1416
.LBE1600:
.LBE1599:
.LBE1598:
	.loc 3 833 2 view .LVU1417
.LBB1626:
.LBB1620:
.LBB1602:
.LBB1601:
	.loc 3 833 26 view .LVU1418
	.loc 3 833 153 view .LVU1419
	.loc 3 833 156 is_stmt 0 view .LVU1420
	ldrh	r2, [r5]	@ unaligned
.LVL361:
	.loc 3 833 156 view .LVU1421
.LBE1601:
.LBE1602:
	.loc 1 707 5 view .LVU1422
	movw	r3, #33022
	cmp	r2, r3
	beq	.L241
	.loc 1 712 2 is_stmt 1 view .LVU1423
	mov	r1, r5
	bl	net_if_ipv6_dad_failed
.LVL362:
	.loc 1 714 2 view .LVU1424
	.loc 1 714 2 is_stmt 0 view .LVU1425
.LBE1620:
.LBE1626:
	.loc 1 1821 3 is_stmt 1 view .LVU1426
	b	.L194
.LVL363:
.L241:
.LBB1627:
.LBB1621:
	.loc 1 708 3 view .LVU1427
.LBB1603:
	.loc 1 708 8 view .LVU1428
	.loc 1 708 57 view .LVU1429
	.loc 1 708 14 view .LVU1430
	.loc 1 708 2 view .LVU1431
.LBE1603:
.LBE1621:
.LBE1627:
	.loc 16 120 2 view .LVU1432
.LBB1628:
.LBB1622:
.LBB1616:
	.loc 1 708 41 view .LVU1433
	.loc 1 708 107 view .LVU1434
	.loc 1 708 206 view .LVU1435
.LBB1604:
	.loc 1 708 215 view .LVU1436
	.loc 1 708 226 view .LVU1437
	.loc 1 708 314 view .LVU1438
	.loc 1 708 319 view .LVU1439
	.loc 1 708 321 view .LVU1440
.LBE1604:
.LBE1616:
.LBE1622:
.LBE1628:
	.loc 1 708 3 view .LVU1441
	.loc 1 708 3 view .LVU1442
.LBB1629:
.LBB1623:
.LBB1617:
.LBB1613:
	.loc 1 708 85 view .LVU1443
.LBB1605:
	.loc 1 708 90 view .LVU1444
	.loc 1 708 101 view .LVU1445
.LBE1605:
.LBE1613:
.LBE1617:
.LBE1623:
.LBE1629:
	.loc 1 708 3 view .LVU1446
	.loc 1 708 217 view .LVU1447
	.loc 1 708 2 view .LVU1448
	.loc 1 708 31 view .LVU1449
	.loc 1 708 4 view .LVU1450
	.loc 1 708 24 view .LVU1451
	.loc 1 708 48 view .LVU1452
	.loc 1 708 23 view .LVU1453
	.loc 1 708 41 view .LVU1454
	.loc 1 708 61 view .LVU1455
	.loc 1 708 108 view .LVU1456
	.loc 1 708 140 view .LVU1457
	.loc 1 708 13 view .LVU1458
	.loc 1 708 55 view .LVU1459
	.loc 1 708 97 view .LVU1460
	.loc 1 708 142 view .LVU1461
	.loc 1 708 147 view .LVU1462
	.loc 1 708 402 view .LVU1463
	.loc 1 708 408 view .LVU1464
	.loc 1 708 1533 view .LVU1465
	.loc 1 708 1557 view .LVU1466
	.loc 1 708 1615 view .LVU1467
	.loc 1 708 1730 view .LVU1468
	.loc 1 708 1745 view .LVU1469
	.loc 1 708 2033 view .LVU1470
	.loc 1 708 2081 view .LVU1471
	.loc 1 708 3389 view .LVU1472
	.loc 1 708 3396 view .LVU1473
	.loc 1 708 3419 view .LVU1474
	.loc 1 708 3453 view .LVU1475
	.loc 1 708 3458 view .LVU1476
	.loc 1 708 3481 view .LVU1477
	.loc 1 708 3609 view .LVU1478
	.loc 1 708 16 view .LVU1479
.LBB1630:
.LBB1624:
.LBB1618:
.LBB1614:
.LBB1611:
	.loc 1 708 11 view .LVU1480
	.loc 1 708 16 view .LVU1481
	.loc 1 708 39 view .LVU1482
	.loc 1 708 159 view .LVU1483
	.loc 1 708 285 view .LVU1484
	.loc 1 708 488 view .LVU1485
	.loc 1 708 5 view .LVU1486
	.loc 1 708 7 view .LVU1487
	.loc 1 708 20 view .LVU1488
.LBB1606:
	.loc 1 708 3 view .LVU1489
	.loc 1 708 217 view .LVU1490
	.loc 1 708 2 view .LVU1491
	.loc 1 708 31 view .LVU1492
	.loc 1 708 60 view .LVU1493
	.loc 1 708 80 view .LVU1494
	.loc 1 708 104 view .LVU1495
	.loc 1 708 27 view .LVU1496
	.loc 1 708 45 view .LVU1497
	.loc 1 708 65 view .LVU1498
	.loc 1 708 112 view .LVU1499
	.loc 1 708 144 view .LVU1500
	.loc 1 708 13 view .LVU1501
	.loc 1 708 55 view .LVU1502
	.loc 1 708 97 view .LVU1503
	.loc 1 708 142 view .LVU1504
.LBB1607:
	.loc 1 708 147 view .LVU1505
	.loc 1 708 402 view .LVU1506
	.loc 1 708 408 view .LVU1507
	.loc 1 708 1533 view .LVU1508
.LBE1607:
.LBE1606:
.LBE1611:
.LBE1614:
.LBE1618:
.LBE1624:
.LBE1630:
	.loc 1 708 1557 view .LVU1509
	.loc 1 708 1615 view .LVU1510
	.loc 1 708 1730 view .LVU1511
.LBB1631:
.LBB1625:
.LBB1619:
.LBB1615:
.LBB1612:
.LBB1610:
.LBB1608:
	.loc 1 708 1745 view .LVU1512
	.loc 1 708 2033 view .LVU1513
	.loc 1 708 2081 view .LVU1514
	.loc 1 708 2119 view .LVU1515
	.loc 1 708 2124 view .LVU1516
	.loc 1 708 2713 view .LVU1517
	.loc 1 708 3342 is_stmt 0 view .LVU1518
	ldr	r3, .L254+16
	str	r3, [sp, #104]
	.loc 1 708 3389 is_stmt 1 view .LVU1519
	.loc 1 708 3396 view .LVU1520
.LVL364:
	.loc 1 708 3419 view .LVU1521
	.loc 1 708 3419 is_stmt 0 view .LVU1522
.LBE1608:
	.loc 1 708 3453 is_stmt 1 view .LVU1523
	.loc 1 708 3458 view .LVU1524
	.loc 1 708 3481 view .LVU1525
	.loc 1 708 3609 view .LVU1526
	.loc 1 708 16 view .LVU1527
.LBB1609:
	.loc 1 708 29 view .LVU1528
	.loc 1 708 50 is_stmt 0 view .LVU1529
	movs	r3, #0
	strh	r3, [sp, #13]	@ unaligned
	strb	r3, [sp, #15]
	movs	r2, #2
	strb	r2, [sp, #12]
	strb	r3, [sp, #14]
	.loc 1 708 175 is_stmt 1 view .LVU1530
	.loc 1 708 185 is_stmt 0 view .LVU1531
	ldr	r2, [sp, #12]
	str	r2, [sp, #100]
	.loc 1 708 185 view .LVU1532
.LBE1609:
.LBE1610:
	.loc 1 708 11 is_stmt 1 view .LVU1533
	.loc 1 708 18 view .LVU1534
	.loc 1 708 39 is_stmt 0 view .LVU1535
	mov	r2, r3
.LVL365:
	.loc 1 708 39 view .LVU1536
	bfi	r2, r3, #0, #1
.LVL366:
	.loc 1 708 39 view .LVU1537
	bfi	r2, r3, #1, #1
	bfi	r2, r3, #2, #1
	bfi	r2, r3, #3, #3
	movs	r1, #1
	bfi	r2, r1, #6, #3
	movs	r1, #8
	bfi	r2, r1, #9, #10
	.loc 1 708 174 is_stmt 1 view .LVU1538
	ubfx	r2, r2, #0, #19
.LVL367:
	.loc 1 708 174 is_stmt 0 view .LVU1539
	ldr	r1, .L254+8
	add	r0, sp, #88
.LVL368:
	.loc 1 708 174 view .LVU1540
	bl	z_log_msg2_finalize
.LVL369:
	.loc 1 708 174 view .LVU1541
.LBE1612:
	.loc 1 708 13 is_stmt 1 view .LVU1542
	.loc 1 708 18 view .LVU1543
.LVL370:
	.loc 1 708 58 view .LVU1544
.LBE1615:
	.loc 1 708 13 view .LVU1545
	.loc 1 708 20 view .LVU1546
	.loc 1 708 20 is_stmt 0 view .LVU1547
.LBE1619:
	.loc 1 708 77 is_stmt 1 view .LVU1548
	.loc 1 709 3 view .LVU1549
	.loc 1 709 9 is_stmt 0 view .LVU1550
	b	.L194
.LVL371:
.L202:
	.loc 1 709 9 view .LVU1551
.LBE1625:
.LBE1631:
	.loc 1 1824 2 is_stmt 1 view .LVU1552
.LBB1632:
.LBI1632:
	.loc 1 1551 19 view .LVU1553
.LBB1633:
	.loc 1 1555 2 view .LVU1554
	.loc 1 1555 30 is_stmt 0 view .LVU1555
	movs	r3, #0
	str	r3, [sp, #4]
	str	r3, [sp, #8]
	.loc 1 1556 1 is_stmt 1 view .LVU1556
.LVL372:
	.loc 1 1557 2 view .LVU1557
	.loc 1 1558 2 view .LVU1558
	.loc 1 1559 2 view .LVU1559
	.loc 1 1561 2 view .LVU1560
.LBB1634:
.LBI1634:
	.loc 10 293 30 view .LVU1561
.LBB1635:
	.loc 10 295 2 view .LVU1562
	.loc 10 295 2 is_stmt 0 view .LVU1563
.LBE1635:
.LBE1634:
	.loc 1 1562 24 view .LVU1564
	add	r8, r7, #4
.LVL373:
	.loc 1 1561 8 view .LVU1565
	mov	r2, r8
	ldr	r1, [r4, #24]
	ldr	r0, .L254+20
.LVL374:
	.loc 1 1561 8 view .LVU1566
	bl	nbr_lookup
.LVL375:
	.loc 1 1564 2 is_stmt 1 view .LVU1567
.LBB1636:
	.loc 1 1564 7 view .LVU1568
.LBE1636:
	.loc 1 1564 252 view .LVU1569
	.loc 1 1568 2 view .LVU1570
	.loc 1 1568 5 is_stmt 0 view .LVU1571
	mov	r5, r0
	cmp	r0, #0
	beq	.L230
	.loc 1 1575 2 is_stmt 1 view .LVU1572
	.loc 1 1575 5 is_stmt 0 view .LVU1573
	cbnz	r6, .L242
.LVL376:
.L207:
	.loc 1 1586 2 is_stmt 1 view .LVU1574
	.loc 1 1586 9 is_stmt 0 view .LVU1575
	ldrb	r3, [r5, #1]	@ zero_extendqisi2
	.loc 1 1586 5 view .LVU1576
	cmp	r3, #255
	bne	.L209
.LBB1637:
	.loc 1 1587 3 is_stmt 1 view .LVU1577
	.loc 1 1589 3 view .LVU1578
	.loc 1 1589 6 is_stmt 0 view .LVU1579
	cbnz	r6, .L243
.LVL377:
.L210:
	.loc 1 1591 10 view .LVU1580
	movs	r3, #0
.LVL378:
.L206:
	.loc 1 1591 10 view .LVU1581
.LBE1637:
.LBE1633:
.LBE1632:
	.loc 1 1824 5 view .LVU1582
	cmp	r3, #0
	beq	.L194
	.loc 1 1828 2 is_stmt 1 view .LVU1583
.LVL379:
.LBB1694:
.LBI1694:
	.loc 10 293 30 view .LVU1584
.LBB1695:
	.loc 10 295 2 view .LVU1585
	.loc 10 295 12 is_stmt 0 view .LVU1586
	ldr	r2, [r4, #24]
.LVL380:
	.loc 10 295 12 view .LVU1587
.LBE1695:
.LBE1694:
.LBB1696:
.LBI1696:
	.loc 14 96 20 is_stmt 1 view .LVU1588
.LBB1697:
	.loc 14 98 6 view .LVU1589
	.loc 14 98 7 view .LVU1590
	.loc 14 98 9 view .LVU1591
	.loc 14 98 28 is_stmt 0 view .LVU1592
	ldr	r1, .L254
	ldr	r3, [r1, #168]
	.loc 14 98 33 view .LVU1593
	adds	r3, r3, #1
	str	r3, [r1, #168]
	.loc 14 98 39 is_stmt 1 view .LVU1594
	.loc 14 98 60 is_stmt 0 view .LVU1595
	ldr	r3, [r2, #176]
	.loc 14 98 65 view .LVU1596
	adds	r3, r3, #1
	str	r3, [r2, #176]
	.loc 14 98 71 is_stmt 1 view .LVU1597
.LVL381:
	.loc 14 98 71 is_stmt 0 view .LVU1598
.LBE1697:
.LBE1696:
	.loc 1 1830 2 is_stmt 1 view .LVU1599
	mov	r0, r4
	bl	net_pkt_unref
.LVL382:
	.loc 1 1832 2 view .LVU1600
	.loc 1 1832 9 is_stmt 0 view .LVU1601
	movs	r0, #0
	b	.L229
.LVL383:
.L242:
.LBB1698:
.LBB1690:
	.loc 1 1576 3 is_stmt 1 view .LVU1602
	.loc 1 1576 3 is_stmt 0 view .LVU1603
.LBE1690:
.LBE1698:
	.loc 10 983 2 is_stmt 1 view .LVU1604
.LBB1699:
.LBB1691:
	.loc 1 1576 39 is_stmt 0 view .LVU1605
	ldrb	r3, [r4, #56]	@ zero_extendqisi2
	.loc 1 1576 14 view .LVU1606
	strb	r3, [sp, #5]
	.loc 1 1578 3 is_stmt 1 view .LVU1607
	mov	r0, r4
.LVL384:
	.loc 1 1578 3 is_stmt 0 view .LVU1608
	bl	net_pkt_cursor_init
.LVL385:
	.loc 1 1580 3 is_stmt 1 view .LVU1609
	.loc 1 1580 7 is_stmt 0 view .LVU1610
	mov	r1, r6
	mov	r0, r4
	bl	net_pkt_skip
.LVL386:
	.loc 1 1580 6 view .LVU1611
	cbz	r0, .L244
.L208:
	.loc 1 1582 4 is_stmt 1 view .LVU1612
	.loc 1 1582 10 is_stmt 0 view .LVU1613
	movs	r3, #0
	b	.L206
.L244:
	.loc 1 1581 7 view .LVU1614
	ldrb	r2, [sp, #5]	@ zero_extendqisi2
	add	r1, sp, #6
	mov	r0, r4
	bl	net_pkt_read
.LVL387:
	.loc 1 1580 39 view .LVU1615
	cmp	r0, #0
	beq	.L207
	b	.L208
.L243:
.LBB1651:
	.loc 1 1594 3 is_stmt 1 view .LVU1616
	.loc 1 1594 26 is_stmt 0 view .LVU1617
	ldrb	r3, [sp, #5]	@ zero_extendqisi2
	.loc 1 1594 18 view .LVU1618
	strb	r3, [sp, #16]
	.loc 1 1595 3 is_stmt 1 view .LVU1619
	.loc 1 1595 19 is_stmt 0 view .LVU1620
	add	r3, sp, #6
	str	r3, [sp, #12]
	.loc 1 1597 3 is_stmt 1 view .LVU1621
.LVL388:
.LBB1638:
.LBI1638:
	.loc 10 293 30 view .LVU1622
.LBB1639:
	.loc 10 295 2 view .LVU1623
	.loc 10 295 2 is_stmt 0 view .LVU1624
.LBE1639:
.LBE1638:
	.loc 1 1597 7 view .LVU1625
	add	r2, sp, #12
	ldr	r1, [r4, #24]
	mov	r0, r5
	bl	net_nbr_link
.LVL389:
	.loc 1 1597 6 view .LVU1626
	cmp	r0, #0
	bne	.L245
.L209:
	.loc 1 1597 6 view .LVU1627
.LBE1651:
	.loc 1 1609 2 is_stmt 1 view .LVU1628
	.loc 1 1609 18 is_stmt 0 view .LVU1629
	ldrb	r0, [r5, #1]	@ zero_extendqisi2
	bl	net_nbr_get_lladdr
.LVL390:
	.loc 1 1610 2 is_stmt 1 view .LVU1630
	.loc 1 1610 5 is_stmt 0 view .LVU1631
	mov	r9, r0
	cmp	r0, #0
	beq	.L231
	.loc 1 1615 2 is_stmt 1 view .LVU1632
	.loc 1 1615 5 is_stmt 0 view .LVU1633
	cmp	r6, #0
	bne	.L246
	.loc 1 1556 6 view .LVU1634
	mov	r10, #0
.LVL391:
.L213:
	.loc 1 1622 2 is_stmt 1 view .LVU1635
.LBB1652:
.LBI1652:
	.loc 2 118 41 view .LVU1636
.LBB1653:
	.loc 2 120 2 view .LVU1637
	.loc 2 120 9 is_stmt 0 view .LVU1638
	ldr	r3, [r5, #12]
.LVL392:
	.loc 2 120 9 view .LVU1639
.LBE1653:
.LBE1652:
	.loc 1 1622 28 view .LVU1640
	ldrb	r2, [r3, #48]	@ zero_extendqisi2
	.loc 1 1622 5 view .LVU1641
	cmp	r2, #0
	bne	.L214
	.loc 1 1623 3 is_stmt 1 view .LVU1642
	.loc 1 1623 6 is_stmt 0 view .LVU1643
	cmp	r6, #0
	beq	.L233
	.loc 1 1627 3 is_stmt 1 view .LVU1644
	.loc 1 1627 6 is_stmt 0 view .LVU1645
	cmp	r10, #0
	bne	.L247
.L215:
	.loc 1 1636 3 is_stmt 1 view .LVU1646
	.loc 1 1636 13 is_stmt 0 view .LVU1647
	ldrb	r3, [r7]	@ zero_extendqisi2
	.loc 1 1636 6 view .LVU1648
	tst	r3, #64
	beq	.L217
	.loc 1 1637 4 is_stmt 1 view .LVU1649
	movs	r1, #1
	mov	r0, r5
	bl	ipv6_nbr_set_state
.LVL393:
	.loc 1 1638 4 view .LVU1650
.LBB1654:
.LBI1654:
	.loc 2 118 41 view .LVU1651
.LBB1655:
	.loc 2 120 2 view .LVU1652
	.loc 2 120 9 is_stmt 0 view .LVU1653
	ldr	r2, [r5, #12]
.LVL394:
	.loc 2 120 9 view .LVU1654
.LBE1655:
.LBE1654:
	.loc 1 1638 37 view .LVU1655
	movs	r3, #0
	strb	r3, [r2, #52]
	.loc 1 1641 4 is_stmt 1 view .LVU1656
.LVL395:
.LBB1656:
.LBI1656:
	.loc 2 118 41 view .LVU1657
.LBB1657:
	.loc 2 120 2 view .LVU1658
	.loc 2 120 9 is_stmt 0 view .LVU1659
	ldr	r2, [r5, #12]
.LVL396:
	.loc 2 120 9 view .LVU1660
.LBE1657:
.LBE1656:
	.loc 1 1641 38 view .LVU1661
	movs	r0, #0
	movs	r1, #0
	strd	r0, [r2, #24]
	.loc 1 1642 4 is_stmt 1 view .LVU1662
.LVL397:
.LBB1658:
.LBI1658:
	.loc 2 118 41 view .LVU1663
.LBB1659:
	.loc 2 120 2 view .LVU1664
	.loc 2 120 9 is_stmt 0 view .LVU1665
	ldr	r2, [r5, #12]
.LVL398:
	.loc 2 120 9 view .LVU1666
.LBE1659:
.LBE1658:
	.loc 1 1642 46 view .LVU1667
	str	r3, [r2, #32]
	.loc 1 1644 4 is_stmt 1 view .LVU1668
.LVL399:
.LBB1660:
.LBI1660:
	.loc 10 293 30 view .LVU1669
.LBB1661:
	.loc 10 295 2 view .LVU1670
	.loc 10 295 2 is_stmt 0 view .LVU1671
.LBE1661:
.LBE1660:
	.loc 1 1644 4 view .LVU1672
	mov	r1, r5
	ldr	r0, [r4, #24]
	bl	net_ipv6_nbr_set_reachable_timer
.LVL400:
.L218:
	.loc 1 1650 3 is_stmt 1 view .LVU1673
.LBB1662:
.LBI1662:
	.loc 2 118 41 view .LVU1674
.LBB1663:
	.loc 2 120 2 view .LVU1675
	.loc 2 120 9 is_stmt 0 view .LVU1676
	ldr	r2, [r5, #12]
.LVL401:
	.loc 2 120 9 view .LVU1677
.LBE1663:
.LBE1662:
	.loc 1 1651 19 view .LVU1678
	ldrb	r3, [r7]	@ zero_extendqisi2
	lsrs	r3, r3, #7
	.loc 1 1650 37 view .LVU1679
	strb	r3, [r2, #53]
	.loc 1 1653 3 is_stmt 1 view .LVU1680
	b	.L219
.L255:
	.align	2
.L254:
	.word	net_stats
	.word	.LC8
	.word	log_const_net_ipv6
	.word	.LC9
	.word	.LC10
	.word	.LANCHOR3
.LVL402:
.L245:
.LBB1664:
	.loc 1 1598 4 view .LVU1681
.LBB1640:
.LBI1640:
	.loc 1 293 20 view .LVU1682
.LBB1641:
	.loc 1 295 2 view .LVU1683
.LBB1642:
	.loc 1 295 7 view .LVU1684
.LBE1642:
	.loc 1 295 113 view .LVU1685
	.loc 1 297 2 view .LVU1686
.LBB1643:
.LBI1643:
	.loc 2 118 41 view .LVU1687
.LBB1644:
	.loc 2 120 2 view .LVU1688
	.loc 2 120 9 is_stmt 0 view .LVU1689
	ldr	r6, [r5, #12]
.LVL403:
	.loc 2 120 9 view .LVU1690
.LBE1644:
.LBE1643:
.LBB1645:
.LBI1645:
	.loc 1 283 20 is_stmt 1 view .LVU1691
.LBB1646:
	.loc 1 285 2 view .LVU1692
	.loc 1 285 16 is_stmt 0 view .LVU1693
	movs	r2, #0
	movs	r3, #0
	strd	r2, [r6, #40]
	.loc 1 287 2 is_stmt 1 view .LVU1694
	.loc 1 287 10 is_stmt 0 view .LVU1695
	ldr	r0, [r6]
	.loc 1 287 5 view .LVU1696
	cbz	r0, .L212
	.loc 1 288 3 is_stmt 1 view .LVU1697
	bl	net_pkt_unref
.LVL404:
	.loc 1 289 3 view .LVU1698
	.loc 1 289 17 is_stmt 0 view .LVU1699
	movs	r3, #0
	str	r3, [r6]
.L212:
.LVL405:
	.loc 1 289 17 view .LVU1700
.LBE1646:
.LBE1645:
	.loc 1 299 2 is_stmt 1 view .LVU1701
.LBB1647:
.LBI1647:
	.loc 2 118 41 view .LVU1702
.LBB1648:
	.loc 2 120 2 view .LVU1703
	.loc 2 120 9 is_stmt 0 view .LVU1704
	ldr	r3, [r5, #12]
.LVL406:
	.loc 2 120 9 view .LVU1705
.LBE1648:
.LBE1647:
	.loc 1 299 36 view .LVU1706
	movs	r0, #0
	movs	r1, #0
	strd	r0, [r3, #24]
	.loc 1 300 2 is_stmt 1 view .LVU1707
.LVL407:
.LBB1649:
.LBI1649:
	.loc 2 118 41 view .LVU1708
.LBB1650:
	.loc 2 120 2 view .LVU1709
	.loc 2 120 9 is_stmt 0 view .LVU1710
	ldr	r3, [r5, #12]
.LVL408:
	.loc 2 120 9 view .LVU1711
.LBE1650:
.LBE1649:
	.loc 1 300 44 view .LVU1712
	movs	r6, #0
	str	r6, [r3, #32]
	.loc 1 302 2 is_stmt 1 view .LVU1713
	mov	r0, r5
	bl	net_nbr_unref
.LVL409:
	.loc 1 303 2 view .LVU1714
	mov	r1, r6
	mov	r0, r5
	bl	net_nbr_unlink
.LVL410:
	.loc 1 304 1 is_stmt 0 view .LVU1715
	b	.L210
.LVL411:
.L246:
	.loc 1 304 1 view .LVU1716
.LBE1641:
.LBE1640:
.LBE1664:
	.loc 1 1616 3 is_stmt 1 view .LVU1717
	.loc 1 1616 20 is_stmt 0 view .LVU1718
	ldrb	r2, [r0, #1]	@ zero_extendqisi2
	adds	r1, r0, #2
	add	r0, sp, #6
.LVL412:
	.loc 1 1616 20 view .LVU1719
	bl	memcmp
.LVL413:
	.loc 1 1616 18 view .LVU1720
	subs	r10, r0, #0
	it	ne
	movne	r10, #1
.LVL414:
	.loc 1 1616 18 view .LVU1721
	b	.L213
.L247:
	.loc 1 1628 4 is_stmt 1 view .LVU1722
	mov	r2, r8
	mov	r1, r9
	add	r0, sp, #6
	bl	dbg_update_neighbor_lladdr_raw
.LVL415:
	.loc 1 1632 4 view .LVU1723
	ldrb	r2, [r9, #1]	@ zero_extendqisi2
.LVL416:
.LBB1665:
.LBI1665:
	.file 17 "/home/sebin/thesis/zephyrproject/zephyr/include/net/net_linkaddr.h"
	.loc 17 132 19 view .LVU1724
.LBB1666:
	.loc 17 135 2 view .LVU1725
	.loc 17 135 5 is_stmt 0 view .LVU1726
	cmp	r9, #0
	beq	.L215
	.loc 17 139 2 is_stmt 1 view .LVU1727
	.loc 17 139 5 is_stmt 0 view .LVU1728
	cmp	r2, #6
	bhi	.L215
	.loc 17 143 2 is_stmt 1 view .LVU1729
	.loc 17 143 20 is_stmt 0 view .LVU1730
	strb	r2, [r9, #1]
	.loc 17 144 1 is_stmt 1 view .LVU1731
.LVL417:
.LBB1667:
.LBI1667:
	.loc 13 83 216 view .LVU1732
.LBB1668:
	.loc 13 83 292 view .LVU1733
	.loc 13 83 299 is_stmt 0 view .LVU1734
	add	r1, sp, #6
.LVL418:
	.loc 13 83 299 view .LVU1735
	add	r0, r9, #2
.LVL419:
	.loc 13 83 299 view .LVU1736
	bl	memcpy
.LVL420:
	.loc 13 83 299 view .LVU1737
	b	.L215
.LVL421:
.L217:
	.loc 13 83 299 view .LVU1738
.LBE1668:
.LBE1667:
.LBE1666:
.LBE1665:
	.loc 1 1647 4 is_stmt 1 view .LVU1739
	movs	r1, #2
	mov	r0, r5
	bl	ipv6_nbr_set_state
.LVL422:
	b	.L218
.L214:
	.loc 1 1659 2 view .LVU1740
	.loc 1 1659 14 is_stmt 0 view .LVU1741
	ldrb	r3, [r7]	@ zero_extendqisi2
	.loc 1 1659 5 view .LVU1742
	ands	r3, r3, #32
	bne	.L220
	.loc 1 1659 30 view .LVU1743
	cmp	r10, #0
	bne	.L248
.L220:
	.loc 1 1668 2 is_stmt 1 view .LVU1744
	.loc 1 1668 5 is_stmt 0 view .LVU1745
	cbnz	r3, .L222
	.loc 1 1668 27 view .LVU1746
	cbz	r6, .L223
	cmp	r10, #0
	bne	.L223
.L222:
	.loc 1 1672 3 is_stmt 1 view .LVU1747
	.loc 1 1672 6 is_stmt 0 view .LVU1748
	cmp	r10, #0
	bne	.L249
.L224:
	.loc 1 1681 3 is_stmt 1 view .LVU1749
	.loc 1 1681 13 is_stmt 0 view .LVU1750
	ldrb	r3, [r7]	@ zero_extendqisi2
	.loc 1 1681 6 view .LVU1751
	tst	r3, #64
	bne	.L250
	.loc 1 1691 4 is_stmt 1 view .LVU1752
	.loc 1 1691 7 is_stmt 0 view .LVU1753
	cmp	r10, #0
	bne	.L251
.L223:
	.loc 1 1698 2 is_stmt 1 view .LVU1754
.LVL423:
.LBB1669:
.LBI1669:
	.loc 2 118 41 view .LVU1755
.LBB1670:
	.loc 2 120 2 view .LVU1756
	.loc 2 120 9 is_stmt 0 view .LVU1757
	ldr	r2, [r5, #12]
.LVL424:
	.loc 2 120 9 view .LVU1758
.LBE1670:
.LBE1669:
	.loc 1 1704 2 is_stmt 1 view .LVU1759
	.loc 1 1706 2 view .LVU1760
	.loc 1 1706 2 is_stmt 0 view .LVU1761
.LBE1691:
.LBE1699:
	.loc 2 120 2 is_stmt 1 view .LVU1762
.LBB1700:
.LBB1692:
	.loc 1 1707 18 is_stmt 0 view .LVU1763
	ldrb	r3, [r7]	@ zero_extendqisi2
	lsrs	r3, r3, #7
	.loc 1 1706 36 view .LVU1764
	strb	r3, [r2, #53]
.L219:
	.loc 1 1711 2 is_stmt 1 view .LVU1765
.LVL425:
.LBB1671:
.LBI1671:
	.loc 2 118 41 view .LVU1766
.LBB1672:
	.loc 2 120 2 view .LVU1767
	.loc 2 120 9 is_stmt 0 view .LVU1768
	ldr	r3, [r5, #12]
.LVL426:
	.loc 2 120 9 view .LVU1769
.LBE1672:
.LBE1671:
	.loc 1 1711 10 view .LVU1770
	ldr	r6, [r3]
.LVL427:
	.loc 1 1712 2 is_stmt 1 view .LVU1771
	.loc 1 1712 5 is_stmt 0 view .LVU1772
	cmp	r6, #0
	beq	.L234
	.loc 1 1713 3 is_stmt 1 view .LVU1773
.LBB1673:
	.loc 1 1713 8 view .LVU1774
.LBE1673:
	.loc 1 1713 216 view .LVU1775
	.loc 1 1717 3 view .LVU1776
	.loc 1 1717 7 is_stmt 0 view .LVU1777
	mov	r0, r6
	bl	net_send_data
.LVL428:
	.loc 1 1717 6 view .LVU1778
	cmp	r0, #0
	blt	.L252
	.loc 1 1720 4 is_stmt 1 view .LVU1779
.LVL429:
.LBB1674:
.LBI1674:
	.loc 2 118 41 view .LVU1780
.LBB1675:
	.loc 2 120 2 view .LVU1781
	.loc 2 120 9 is_stmt 0 view .LVU1782
	ldr	r3, [r5, #12]
.LVL430:
	.loc 2 120 9 view .LVU1783
.LBE1675:
.LBE1674:
	.loc 1 1720 36 view .LVU1784
	movs	r2, #0
	str	r2, [r3]
.LVL431:
.L228:
	.loc 1 1723 3 is_stmt 1 view .LVU1785
	mov	r0, r6
	bl	net_pkt_unref
.LVL432:
	.loc 1 1726 8 is_stmt 0 view .LVU1786
	movs	r3, #1
	b	.L206
.LVL433:
.L248:
	.loc 1 1660 3 is_stmt 1 view .LVU1787
	.loc 1 1660 3 is_stmt 0 view .LVU1788
.LBE1692:
.LBE1700:
	.loc 2 120 2 is_stmt 1 view .LVU1789
.LBB1701:
.LBB1693:
	.loc 1 1660 6 is_stmt 0 view .LVU1790
	cmp	r2, #1
	beq	.L253
.L221:
	.loc 1 1665 3 is_stmt 1 view .LVU1791
	.loc 1 1665 9 is_stmt 0 view .LVU1792
	movs	r3, #0
	b	.L206
.L253:
	.loc 1 1662 4 is_stmt 1 view .LVU1793
	movs	r1, #2
	mov	r0, r5
	bl	ipv6_nbr_set_state
.LVL434:
	b	.L221
.L249:
	.loc 1 1673 4 view .LVU1794
	mov	r2, r8
	mov	r1, r9
	add	r0, sp, #6
	bl	dbg_update_neighbor_lladdr_raw
.LVL435:
	.loc 1 1677 4 view .LVU1795
	ldrb	r2, [r9, #1]	@ zero_extendqisi2
.LVL436:
.LBB1676:
.LBI1676:
	.loc 17 132 19 view .LVU1796
.LBB1677:
	.loc 17 135 2 view .LVU1797
	.loc 17 135 5 is_stmt 0 view .LVU1798
	cmp	r9, #0
	beq	.L224
	.loc 17 139 2 is_stmt 1 view .LVU1799
	.loc 17 139 5 is_stmt 0 view .LVU1800
	cmp	r2, #6
	bhi	.L224
	.loc 17 143 2 is_stmt 1 view .LVU1801
	.loc 17 143 20 is_stmt 0 view .LVU1802
	strb	r2, [r9, #1]
	.loc 17 144 1 is_stmt 1 view .LVU1803
.LVL437:
.LBB1678:
.LBI1678:
	.loc 13 83 216 view .LVU1804
.LBB1679:
	.loc 13 83 292 view .LVU1805
	.loc 13 83 299 is_stmt 0 view .LVU1806
	add	r1, sp, #6
.LVL438:
	.loc 13 83 299 view .LVU1807
	add	r0, r9, #2
.LVL439:
	.loc 13 83 299 view .LVU1808
	bl	memcpy
.LVL440:
	.loc 13 83 299 view .LVU1809
	b	.L224
.LVL441:
.L250:
	.loc 13 83 299 view .LVU1810
.LBE1679:
.LBE1678:
.LBE1677:
.LBE1676:
	.loc 1 1682 4 is_stmt 1 view .LVU1811
	movs	r1, #1
	mov	r0, r5
	bl	ipv6_nbr_set_state
.LVL442:
	.loc 1 1685 4 view .LVU1812
.LBB1680:
.LBI1680:
	.loc 2 118 41 view .LVU1813
.LBB1681:
	.loc 2 120 2 view .LVU1814
	.loc 2 120 9 is_stmt 0 view .LVU1815
	ldr	r3, [r5, #12]
.LVL443:
	.loc 2 120 9 view .LVU1816
.LBE1681:
.LBE1680:
	.loc 1 1685 38 view .LVU1817
	movs	r0, #0
	movs	r1, #0
	strd	r0, [r3, #24]
	.loc 1 1686 4 is_stmt 1 view .LVU1818
.LVL444:
.LBB1682:
.LBI1682:
	.loc 2 118 41 view .LVU1819
.LBB1683:
	.loc 2 120 2 view .LVU1820
	.loc 2 120 9 is_stmt 0 view .LVU1821
	ldr	r3, [r5, #12]
.LVL445:
	.loc 2 120 9 view .LVU1822
.LBE1683:
.LBE1682:
	.loc 1 1686 46 view .LVU1823
	movs	r2, #0
	str	r2, [r3, #32]
	.loc 1 1688 4 is_stmt 1 view .LVU1824
.LVL446:
.LBB1684:
.LBI1684:
	.loc 10 293 30 view .LVU1825
.LBB1685:
	.loc 10 295 2 view .LVU1826
	.loc 10 295 2 is_stmt 0 view .LVU1827
.LBE1685:
.LBE1684:
	.loc 1 1688 4 view .LVU1828
	mov	r1, r5
	ldr	r0, [r4, #24]
	bl	net_ipv6_nbr_set_reachable_timer
.LVL447:
	b	.L223
.L251:
	.loc 1 1692 5 is_stmt 1 view .LVU1829
	movs	r1, #2
	mov	r0, r5
	bl	ipv6_nbr_set_state
.LVL448:
	b	.L223
.LVL449:
.L252:
	.loc 1 1718 4 view .LVU1830
.LBB1686:
.LBI1686:
	.loc 2 118 41 view .LVU1831
.LBB1687:
	.loc 2 120 2 view .LVU1832
	.loc 2 120 9 is_stmt 0 view .LVU1833
	ldr	r5, [r5, #12]
.LVL450:
	.loc 2 120 9 view .LVU1834
.LBE1687:
.LBE1686:
.LBB1688:
.LBI1688:
	.loc 1 283 20 is_stmt 1 view .LVU1835
.LBB1689:
	.loc 1 285 2 view .LVU1836
	.loc 1 285 16 is_stmt 0 view .LVU1837
	movs	r2, #0
	movs	r3, #0
	strd	r2, [r5, #40]
	.loc 1 287 2 is_stmt 1 view .LVU1838
	.loc 1 287 10 is_stmt 0 view .LVU1839
	ldr	r0, [r5]
	.loc 1 287 5 view .LVU1840
	cmp	r0, #0
	beq	.L228
	.loc 1 288 3 is_stmt 1 view .LVU1841
	bl	net_pkt_unref
.LVL451:
	.loc 1 289 3 view .LVU1842
	.loc 1 289 17 is_stmt 0 view .LVU1843
	movs	r3, #0
	str	r3, [r5]
	b	.L228
.LVL452:
.L230:
	.loc 1 289 17 view .LVU1844
.LBE1689:
.LBE1688:
	.loc 1 1572 9 view .LVU1845
	movs	r3, #0
	b	.L206
.LVL453:
.L231:
	.loc 1 1612 9 view .LVU1846
	movs	r3, #0
	b	.L206
.LVL454:
.L233:
	.loc 1 1624 10 view .LVU1847
	movs	r3, #0
	b	.L206
.LVL455:
.L234:
	.loc 1 1726 8 view .LVU1848
	movs	r3, #1
	b	.L206
.LBE1693:
.LBE1701:
	.cfi_endproc
.LFE979:
	.size	handle_na_input, .-handle_na_input
	.section	.text.net_ipv6_send_ns,"ax",%progbits
	.align	1
	.global	net_ipv6_send_ns
	.syntax unified
	.thumb
	.thumb_func
	.fpu fpv4-sp-d16
	.type	net_ipv6_send_ns, %function
net_ipv6_send_ns:
.LVL456:
.LFB980:
	.loc 1 1846 1 is_stmt 1 view -0
	.cfi_startproc
	@ args = 8, pretend = 0, frame = 32
	@ frame_needed = 0, uses_anonymous_args = 0
	.loc 1 1846 1 is_stmt 0 view .LVU1850
	push	{r4, r5, r6, r7, r8, r9, r10, fp, lr}
	.cfi_def_cfa_offset 36
	.cfi_offset 4, -36
	.cfi_offset 5, -32
	.cfi_offset 6, -28
	.cfi_offset 7, -24
	.cfi_offset 8, -20
	.cfi_offset 9, -16
	.cfi_offset 10, -12
	.cfi_offset 11, -8
	.cfi_offset 14, -4
	sub	sp, sp, #44
	.cfi_def_cfa_offset 80
	mov	r4, r0
	mov	r6, r1
	mov	r10, r2
	ldrb	r7, [sp, #84]	@ zero_extendqisi2
	.loc 1 1847 2 is_stmt 1 view .LVU1851
	.loc 1 1847 29 is_stmt 0 view .LVU1852
	movs	r2, #0
.LVL457:
	.loc 1 1847 29 view .LVU1853
	str	r2, [sp, #32]
	movs	r2, #20
	str	r2, [sp, #36]
	.loc 1 1849 2 is_stmt 1 view .LVU1854
.LVL458:
	.loc 1 1850 2 view .LVU1855
	.loc 1 1851 2 view .LVU1856
	.loc 1 1852 2 view .LVU1857
	.loc 1 1853 2 view .LVU1858
	.loc 1 1854 2 view .LVU1859
	.loc 1 1856 2 view .LVU1860
	.loc 1 1856 5 is_stmt 0 view .LVU1861
	mov	fp, r3
	cbz	r3, .L287
.LVL459:
.L257:
	.loc 1 1861 2 is_stmt 1 view .LVU1862
.LBB1770:
.LBI1770:
	.loc 1 998 23 view .LVU1863
.LBB1771:
	.loc 1 1000 2 view .LVU1864
.LBB1772:
.LBI1772:
	.loc 12 680 36 view .LVU1865
.LBB1773:
	.loc 12 682 2 view .LVU1866
	.loc 12 682 15 is_stmt 0 view .LVU1867
	ldr	r3, [r4]
.LVL460:
	.loc 12 682 15 view .LVU1868
.LBE1773:
.LBE1772:
	.loc 1 1000 49 view .LVU1869
	ldrb	r5, [r3, #20]	@ zero_extendqisi2
.LVL461:
	.loc 1 1003 2 is_stmt 1 view .LVU1870
	.loc 1 1003 38 is_stmt 0 view .LVU1871
	adds	r5, r5, #9
.LVL462:
	.loc 1 1003 67 view .LVU1872
	and	r5, r5, #248
.LVL463:
	.loc 1 1003 67 view .LVU1873
.LBE1771:
.LBE1770:
	.loc 1 1863 2 is_stmt 1 view .LVU1874
	.loc 1 1863 5 is_stmt 0 view .LVU1875
	cmp	r7, #0
	bne	.L288
	.loc 1 1867 3 is_stmt 1 view .LVU1876
	.loc 1 1867 6 is_stmt 0 view .LVU1877
	cmp	r10, #0
	beq	.L289
.LVL464:
.L260:
	.loc 1 1871 3 is_stmt 1 view .LVU1878
.LBB1774:
.LBI1774:
	.loc 3 951 19 view .LVU1879
.LBB1775:
	.loc 3 953 2 view .LVU1880
.LBB1776:
	.loc 3 953 26 view .LVU1881
	.loc 3 953 153 view .LVU1882
	.loc 3 953 156 is_stmt 0 view .LVU1883
	ldr	r3, [r10]	@ unaligned
.LBE1776:
	.loc 3 955 165 view .LVU1884
	cmp	r3, #0
	bne	.L274
.LBB1777:
	.loc 3 954 20 is_stmt 1 view .LVU1885
.LVL465:
	.loc 3 954 147 view .LVU1886
	.loc 3 954 150 is_stmt 0 view .LVU1887
	ldr	r3, [r10, #4]	@ unaligned
.LBE1777:
	.loc 3 953 171 view .LVU1888
	cmp	r3, #0
	bne	.L275
.LBB1778:
	.loc 3 955 20 is_stmt 1 view .LVU1889
.LVL466:
	.loc 3 955 147 view .LVU1890
	.loc 3 955 150 is_stmt 0 view .LVU1891
	ldr	r3, [r10, #8]	@ unaligned
.LBE1778:
	.loc 3 954 165 view .LVU1892
	cmp	r3, #0
	bne	.L276
.LBB1779:
	.loc 3 956 20 is_stmt 1 view .LVU1893
.LVL467:
	.loc 3 956 147 view .LVU1894
	.loc 3 956 150 is_stmt 0 view .LVU1895
	ldr	r3, [r10, #12]	@ unaligned
.LBE1779:
	.loc 3 955 165 view .LVU1896
	cmp	r3, #0
	beq	.L277
	movs	r3, #0
	b	.L261
.LVL468:
.L287:
	.loc 3 955 165 view .LVU1897
.LBE1775:
.LBE1774:
	.loc 1 1857 3 is_stmt 1 view .LVU1898
.LBB1782:
.LBI1782:
	.loc 3 1170 6 view .LVU1899
.LBB1783:
	.loc 3 1173 2 view .LVU1900
	.loc 3 1173 18 is_stmt 0 view .LVU1901
	movs	r2, #255
	strb	r2, [sp, #16]
	.loc 3 1174 2 is_stmt 1 view .LVU1902
	.loc 3 1174 18 is_stmt 0 view .LVU1903
	movs	r3, #2
.LVL469:
	.loc 3 1174 18 view .LVU1904
	strb	r3, [sp, #17]
	.loc 3 1175 2 is_stmt 1 view .LVU1905
.LBB1784:
	.loc 3 1175 7 view .LVU1906
.LVL470:
	.loc 3 1175 130 view .LVU1907
	.loc 3 1175 139 is_stmt 0 view .LVU1908
	movs	r3, #0
	strh	r3, [sp, #18]	@ movhi
	.loc 3 1175 146 is_stmt 1 view .LVU1909
	.loc 3 1175 151 view .LVU1910
	.loc 3 1175 199 view .LVU1911
.LBE1784:
	.loc 3 1175 12 view .LVU1912
	.loc 3 1176 2 view .LVU1913
.LBB1785:
	.loc 3 1176 7 view .LVU1914
.LVL471:
	.loc 3 1176 130 view .LVU1915
	.loc 3 1176 139 is_stmt 0 view .LVU1916
	strh	r3, [sp, #20]	@ movhi
	.loc 3 1176 146 is_stmt 1 view .LVU1917
	.loc 3 1176 151 view .LVU1918
	.loc 3 1176 199 view .LVU1919
.LBE1785:
	.loc 3 1176 12 view .LVU1920
	.loc 3 1177 2 view .LVU1921
.LBB1786:
	.loc 3 1177 7 view .LVU1922
.LVL472:
	.loc 3 1177 130 view .LVU1923
	.loc 3 1177 139 is_stmt 0 view .LVU1924
	strh	r3, [sp, #22]	@ movhi
	.loc 3 1177 146 is_stmt 1 view .LVU1925
	.loc 3 1177 151 view .LVU1926
	.loc 3 1177 199 view .LVU1927
.LBE1786:
	.loc 3 1177 12 view .LVU1928
	.loc 3 1178 2 view .LVU1929
.LBB1787:
	.loc 3 1178 7 view .LVU1930
.LVL473:
	.loc 3 1178 130 view .LVU1931
	.loc 3 1178 139 is_stmt 0 view .LVU1932
	strh	r3, [sp, #24]	@ movhi
	.loc 3 1178 146 is_stmt 1 view .LVU1933
	.loc 3 1178 151 view .LVU1934
	.loc 3 1178 199 view .LVU1935
.LBE1787:
	.loc 3 1178 12 view .LVU1936
	.loc 3 1179 2 view .LVU1937
	.loc 3 1179 19 is_stmt 0 view .LVU1938
	strb	r3, [sp, #26]
	.loc 3 1180 2 is_stmt 1 view .LVU1939
	.loc 3 1180 19 is_stmt 0 view .LVU1940
	movs	r3, #1
	strb	r3, [sp, #27]
	.loc 3 1181 2 is_stmt 1 view .LVU1941
	.loc 3 1181 19 is_stmt 0 view .LVU1942
	strb	r2, [sp, #28]
	.loc 3 1182 2 is_stmt 1 view .LVU1943
	.loc 3 1182 33 is_stmt 0 view .LVU1944
	ldr	r3, [sp, #80]
	ldrb	r3, [r3, #13]	@ zero_extendqisi2
	.loc 3 1182 19 view .LVU1945
	strb	r3, [sp, #29]
	.loc 3 1183 2 is_stmt 1 view .LVU1946
.LBB1788:
	.loc 3 1183 7 view .LVU1947
.LVL474:
	.loc 3 1183 130 view .LVU1948
.LBB1789:
	.loc 3 1183 159 view .LVU1949
	.loc 3 1183 284 view .LVU1950
	.loc 3 1183 287 is_stmt 0 view .LVU1951
	ldr	r3, [sp, #80]
	ldrh	r3, [r3, #14]	@ unaligned
.LBE1789:
	.loc 3 1183 139 view .LVU1952
	strh	r3, [sp, #30]	@ movhi
	.loc 3 1183 299 is_stmt 1 view .LVU1953
	.loc 3 1183 304 view .LVU1954
	.loc 3 1183 352 view .LVU1955
.LBE1788:
	.loc 3 1183 12 view .LVU1956
.LVL475:
	.loc 3 1183 12 is_stmt 0 view .LVU1957
.LBE1783:
.LBE1782:
	.loc 1 1858 3 is_stmt 1 view .LVU1958
	.loc 1 1858 7 is_stmt 0 view .LVU1959
	add	fp, sp, #16
.LVL476:
	.loc 1 1858 7 view .LVU1960
	b	.L257
.LVL477:
.L288:
	.loc 1 1864 3 is_stmt 1 view .LVU1961
	.loc 1 1864 9 is_stmt 0 view .LVU1962
	bl	net_ipv6_unspecified_address
.LVL478:
	.loc 1 1864 9 view .LVU1963
	mov	r10, r0
.LVL479:
	.loc 1 1865 3 is_stmt 1 view .LVU1964
	.loc 1 1865 12 is_stmt 0 view .LVU1965
	movs	r5, #0
	b	.L259
.LVL480:
.L289:
	.loc 1 1868 4 is_stmt 1 view .LVU1966
	.loc 1 1868 10 is_stmt 0 view .LVU1967
	ldr	r1, [sp, #80]
.LVL481:
	.loc 1 1868 10 view .LVU1968
	mov	r0, r4
.LVL482:
	.loc 1 1868 10 view .LVU1969
	bl	net_if_ipv6_select_src_addr
.LVL483:
	.loc 1 1868 10 view .LVU1970
	mov	r10, r0
.LVL484:
	.loc 1 1868 10 view .LVU1971
	b	.L260
.LVL485:
.L274:
.LBB1790:
.LBB1780:
	.loc 3 955 165 view .LVU1972
	movs	r3, #0
.L261:
.LVL486:
	.loc 3 955 165 view .LVU1973
.LBE1780:
.LBE1790:
	.loc 1 1871 6 view .LVU1974
	cmp	r3, #0
	bne	.L278
.LVL487:
.L259:
	.loc 1 1880 2 is_stmt 1 view .LVU1975
	.loc 9 405 2 view .LVU1976
	.loc 9 106 1 view .LVU1977
	.loc 9 108 1 view .LVU1978
	.loc 9 111 2 view .LVU1979
	.loc 9 115 2 view .LVU1980
	.loc 9 117 2 view .LVU1981
	.loc 9 133 2 view .LVU1982
	.loc 9 140 9 view .LVU1983
	.loc 9 141 3 view .LVU1984
	.loc 9 144 4 view .LVU1985
	.loc 1 1880 8 is_stmt 0 view .LVU1986
	mov	r2, #1000
	movs	r3, #0
	strd	r2, [sp]
	movs	r3, #58
	movs	r2, #2
	add	r1, r5, #20
	mov	r0, r4
	bl	net_pkt_alloc_with_buffer
.LVL488:
	.loc 1 1885 2 is_stmt 1 view .LVU1987
	.loc 1 1885 5 is_stmt 0 view .LVU1988
	mov	r8, r0
	cmp	r0, #0
	beq	.L279
	.loc 1 1891 2 is_stmt 1 view .LVU1989
	.loc 1 1895 2 view .LVU1990
.LVL489:
.LBB1791:
.LBI1791:
	.loc 10 549 20 view .LVU1991
.LBB1792:
	.loc 10 552 2 view .LVU1992
	.loc 10 552 22 is_stmt 0 view .LVU1993
	movs	r3, #255
	strb	r3, [r0, #78]
.LVL490:
	.loc 10 552 22 view .LVU1994
.LBE1792:
.LBE1791:
	.loc 1 1897 2 is_stmt 1 view .LVU1995
	.loc 1 1897 6 is_stmt 0 view .LVU1996
	mov	r2, fp
	mov	r1, r10
	bl	net_ipv6_create
.LVL491:
	.loc 1 1897 5 view .LVU1997
	cbz	r0, .L290
.L263:
	.loc 1 1899 3 is_stmt 1 view .LVU1998
	.loc 1 1850 6 is_stmt 0 view .LVU1999
	mvn	r10, #104
.LVL492:
.L262:
	.loc 1 1972 2 is_stmt 1 view .LVU2000
	.loc 1 1972 5 is_stmt 0 view .LVU2001
	cbz	r6, .L272
	.loc 1 1973 3 is_stmt 1 view .LVU2002
	mov	r0, r6
	bl	net_pkt_unref
.LVL493:
.L272:
	.loc 1 1976 2 view .LVU2003
	.loc 1 1976 5 is_stmt 0 view .LVU2004
	cmp	r8, #0
	beq	.L273
	.loc 1 1977 3 is_stmt 1 view .LVU2005
	mov	r0, r8
	bl	net_pkt_unref
.LVL494:
.L273:
	.loc 1 1980 2 view .LVU2006
.LBB1793:
.LBI1793:
	.loc 14 106 20 view .LVU2007
.LBB1794:
	.loc 14 108 6 view .LVU2008
	.loc 14 108 7 view .LVU2009
	.loc 14 108 9 view .LVU2010
	.loc 14 108 28 is_stmt 0 view .LVU2011
	ldr	r2, .L295
	ldr	r3, [r2, #160]
	.loc 14 108 33 view .LVU2012
	adds	r3, r3, #1
	str	r3, [r2, #160]
	.loc 14 108 39 is_stmt 1 view .LVU2013
	.loc 14 108 60 is_stmt 0 view .LVU2014
	ldr	r3, [r4, #168]
	.loc 14 108 65 view .LVU2015
	adds	r3, r3, #1
	str	r3, [r4, #168]
	.loc 14 108 71 is_stmt 1 view .LVU2016
.LVL495:
	.loc 14 108 71 is_stmt 0 view .LVU2017
.LBE1794:
.LBE1793:
	.loc 1 1982 2 is_stmt 1 view .LVU2018
.L271:
	.loc 1 1983 1 is_stmt 0 view .LVU2019
	mov	r0, r10
	add	sp, sp, #44
	.cfi_remember_state
	.cfi_def_cfa_offset 36
	@ sp needed
	pop	{r4, r5, r6, r7, r8, r9, r10, fp, pc}
.LVL496:
.L275:
	.cfi_restore_state
.LBB1795:
.LBB1781:
	.loc 3 955 165 view .LVU2020
	movs	r3, #0
	b	.L261
.LVL497:
.L276:
	.loc 3 955 165 view .LVU2021
	movs	r3, #0
	b	.L261
.LVL498:
.L277:
	.loc 3 955 165 view .LVU2022
	movs	r3, #1
	b	.L261
.LVL499:
.L290:
	.loc 3 955 165 view .LVU2023
.LBE1781:
.LBE1795:
	.loc 1 1898 6 discriminator 1 view .LVU2024
	movs	r2, #0
	movs	r1, #135
	mov	r0, r8
	bl	net_icmpv6_create
.LVL500:
	.loc 1 1897 37 discriminator 1 view .LVU2025
	cmp	r0, #0
	bne	.L263
	.loc 1 1902 2 is_stmt 1 view .LVU2026
	.loc 1 1902 39 is_stmt 0 view .LVU2027
	add	r1, sp, #32
	mov	r0, r8
	bl	net_pkt_get_data
.LVL501:
	.loc 1 1903 2 is_stmt 1 view .LVU2028
	.loc 1 1903 5 is_stmt 0 view .LVU2029
	mov	r3, r0
	cmp	r0, #0
	beq	.L280
	.loc 1 1907 2 is_stmt 1 view .LVU2030
	.loc 1 1907 19 is_stmt 0 view .LVU2031
	movs	r2, #0
	strb	r2, [r0]
	strb	r2, [r0, #1]
	strb	r2, [r0, #2]
	strb	r2, [r0, #3]
	.loc 1 1908 2 is_stmt 1 view .LVU2032
.LVL502:
.LBB1796:
.LBI1796:
	.loc 3 760 20 view .LVU2033
.LBE1796:
	.loc 3 763 1 view .LVU2034
.LBB1799:
.LBB1797:
.LBI1797:
	.loc 13 83 216 view .LVU2035
.LBB1798:
	.loc 13 83 292 view .LVU2036
	.loc 13 83 299 is_stmt 0 view .LVU2037
	ldr	r2, [sp, #80]
	ldr	ip, [r2]	@ unaligned
	ldr	r0, [r2, #4]	@ unaligned
.LVL503:
	.loc 13 83 299 view .LVU2038
	ldr	r1, [r2, #8]	@ unaligned
	ldr	r2, [r2, #12]	@ unaligned
	str	ip, [r3, #4]	@ unaligned
	str	r0, [r3, #8]	@ unaligned
	str	r1, [r3, #12]	@ unaligned
	str	r2, [r3, #16]	@ unaligned
.LVL504:
	.loc 13 83 299 view .LVU2039
.LBE1798:
.LBE1797:
.LBE1799:
	.loc 1 1910 2 is_stmt 1 view .LVU2040
	.loc 1 1910 6 is_stmt 0 view .LVU2041
	add	r1, sp, #32
	mov	r0, r8
	bl	net_pkt_set_data
.LVL505:
	.loc 1 1910 5 view .LVU2042
	mov	r10, r0
.LVL506:
	.loc 1 1910 5 view .LVU2043
	cmp	r0, #0
	bne	.L281
	.loc 1 1914 2 is_stmt 1 view .LVU2044
	.loc 1 1914 5 is_stmt 0 view .LVU2045
	cbnz	r7, .L265
	.loc 1 1915 3 is_stmt 1 view .LVU2046
.LVL507:
.LBB1800:
.LBI1800:
	.loc 12 680 36 view .LVU2047
.LBB1801:
	.loc 12 682 2 view .LVU2048
	.loc 12 682 15 is_stmt 0 view .LVU2049
	ldr	fp, [r4]
.LVL508:
	.loc 12 682 15 view .LVU2050
.LBE1801:
.LBE1800:
.LBB1802:
.LBI1802:
	.loc 1 1006 19 is_stmt 1 view .LVU2051
.LBB1803:
	.loc 1 1010 2 view .LVU2052
	.loc 1 1010 31 is_stmt 0 view .LVU2053
	movs	r3, #1
	strb	r3, [sp, #12]
	lsrs	r3, r5, #3
	strb	r3, [sp, #13]
	.loc 1 1015 2 is_stmt 1 view .LVU2054
	.loc 1 1015 6 is_stmt 0 view .LVU2055
	movs	r2, #2
	add	r1, sp, #12
	mov	r0, r8
	bl	net_pkt_write
.LVL509:
	.loc 1 1015 5 view .LVU2056
	cbz	r0, .L291
.L267:
.LVL510:
	.loc 1 1015 5 view .LVU2057
.LBE1803:
.LBE1802:
	.loc 1 1915 6 view .LVU2058
	cmp	r7, #0
	beq	.L283
.L265:
	.loc 1 1921 2 is_stmt 1 view .LVU2059
	mov	r0, r8
	bl	net_pkt_cursor_init
.LVL511:
	.loc 1 1922 2 view .LVU2060
	movs	r1, #58
	mov	r0, r8
	bl	net_ipv6_finalize
.LVL512:
	.loc 1 1924 2 view .LVU2061
	.loc 1 1924 8 is_stmt 0 view .LVU2062
	movs	r3, #0
	mov	r2, r3
	ldr	r1, [sp, #80]
	mov	r0, r4
	bl	add_nbr
.LVL513:
	.loc 1 1926 2 is_stmt 1 view .LVU2063
	.loc 1 1926 5 is_stmt 0 view .LVU2064
	mov	r5, r0
.LVL514:
	.loc 1 1926 5 view .LVU2065
	cmp	r0, #0
	beq	.L284
	.loc 1 1932 2 is_stmt 1 view .LVU2066
	.loc 1 1932 5 is_stmt 0 view .LVU2067
	cbz	r6, .L268
	.loc 1 1933 3 is_stmt 1 view .LVU2068
.LVL515:
.LBB1805:
.LBI1805:
	.loc 2 118 41 view .LVU2069
.LBB1806:
	.loc 2 120 2 view .LVU2070
	.loc 2 120 9 is_stmt 0 view .LVU2071
	ldr	r7, [r0, #12]
.LVL516:
	.loc 2 120 9 view .LVU2072
.LBE1806:
.LBE1805:
	.loc 1 1933 30 view .LVU2073
	ldr	r3, [r7]
	.loc 1 1933 6 view .LVU2074
	cbz	r3, .L292
	.loc 1 1850 6 view .LVU2075
	mvn	r10, #104
	b	.L262
.LVL517:
.L291:
.LBB1807:
.LBB1804:
	.loc 1 1017 6 view .LVU2076
	ldrb	r2, [fp, #20]	@ zero_extendqisi2
	ldr	r1, [fp, #16]
	mov	r0, r8
	bl	net_pkt_write
.LVL518:
	.loc 1 1016 44 view .LVU2077
	cmp	r0, #0
	bne	.L267
	.loc 1 1018 46 view .LVU2078
	ldrb	r2, [fp, #20]	@ zero_extendqisi2
	.loc 1 1018 38 view .LVU2079
	subs	r2, r5, r2
	.loc 1 1018 6 view .LVU2080
	subs	r2, r2, #2
	movs	r1, #0
	mov	r0, r8
	bl	net_pkt_memset
.LVL519:
	.loc 1 1017 52 view .LVU2081
	cmp	r0, #0
	bne	.L267
	.loc 1 1022 8 view .LVU2082
	movs	r7, #1
	b	.L267
.LVL520:
.L292:
	.loc 1 1022 8 view .LVU2083
.LBE1804:
.LBE1807:
	.loc 1 1934 4 is_stmt 1 view .LVU2084
	.loc 2 120 2 view .LVU2085
	.loc 1 1934 38 is_stmt 0 view .LVU2086
	mov	r0, r6
.LVL521:
	.loc 1 1934 38 view .LVU2087
	bl	net_pkt_ref
.LVL522:
	.loc 1 1934 36 view .LVU2088
	str	r0, [r7]
	.loc 1 1942 3 is_stmt 1 view .LVU2089
.LBB1808:
	.loc 1 1942 8 view .LVU2090
.LBE1808:
	.loc 1 1942 141 view .LVU2091
	.loc 1 1944 3 view .LVU2092
.LVL523:
.LBB1809:
.LBI1809:
	.loc 2 118 41 view .LVU2093
.LBB1810:
	.loc 2 120 2 view .LVU2094
	.loc 2 120 9 is_stmt 0 view .LVU2095
	ldr	r7, [r5, #12]
.LVL524:
	.loc 2 120 9 view .LVU2096
.LBE1810:
.LBE1809:
.LBB1811:
.LBI1811:
	.loc 8 1539 23 is_stmt 1 view .LVU2097
.LBB1812:
	.loc 8 1541 2 view .LVU2098
.LBB1813:
.LBI1813:
	.loc 4 562 23 view .LVU2099
.LBB1814:
	.loc 4 572 2 view .LVU2100
	.loc 4 572 7 view .LVU2101
	.loc 4 572 55 view .LVU2102
	.loc 4 573 2 view .LVU2103
	.loc 4 573 9 is_stmt 0 view .LVU2104
	bl	z_impl_k_uptime_ticks
.LVL525:
	.loc 4 573 9 view .LVU2105
.LBE1814:
.LBE1813:
.LBB1815:
.LBI1815:
	.loc 9 1102 24 is_stmt 1 view .LVU2106
.LBE1815:
.LBE1812:
.LBE1811:
	.loc 9 1105 2 view .LVU2107
.LBB1824:
.LBB1822:
.LBB1820:
.LBB1816:
.LBI1816:
	.loc 9 101 55 view .LVU2108
.LBB1817:
	.loc 9 106 1 view .LVU2109
	.loc 9 108 1 view .LVU2110
	.loc 9 111 2 view .LVU2111
	.loc 9 115 2 view .LVU2112
	.loc 9 117 2 view .LVU2113
.LBE1817:
.LBE1816:
.LBE1820:
.LBE1822:
.LBE1824:
	.loc 9 118 3 view .LVU2114
	.loc 9 120 3 view .LVU2115
	.loc 9 123 3 view .LVU2116
.LBB1825:
.LBB1823:
.LBB1821:
.LBB1819:
.LBB1818:
	.loc 9 133 2 view .LVU2117
	.loc 9 134 3 view .LVU2118
	.loc 9 135 3 view .LVU2119
	.loc 9 138 4 view .LVU2120
	.loc 9 138 13 is_stmt 0 view .LVU2121
	movs	r2, #10
	movs	r3, #0
	bl	__aeabi_uldivmod
.LVL526:
	.loc 9 138 13 view .LVU2122
.LBE1818:
.LBE1819:
.LBE1821:
.LBE1823:
.LBE1825:
	.loc 1 1944 35 view .LVU2123
	strd	r0, [r7, #40]
	.loc 1 1947 3 is_stmt 1 view .LVU2124
.LVL527:
.LBB1826:
.LBI1826:
	.loc 8 3765 25 view .LVU2125
.LBB1827:
	.loc 8 3768 2 view .LVU2126
	.loc 8 3768 9 is_stmt 0 view .LVU2127
	ldr	r0, .L295+4
	bl	z_timeout_remaining
.LVL528:
	.loc 8 3768 9 view .LVU2128
.LBE1827:
.LBE1826:
	.loc 1 1947 6 view .LVU2129
	orrs	r3, r0, r1
	beq	.L293
.LVL529:
.L268:
	.loc 1 1953 2 is_stmt 1 view .LVU2130
	.loc 1 1953 7 view .LVU2131
.LBB1828:
	.loc 1 1953 12 view .LVU2132
.LBE1828:
	.loc 1 1953 357 view .LVU2133
	.loc 1 1953 12 view .LVU2134
	.loc 1 1956 2 view .LVU2135
	.loc 1 1956 6 is_stmt 0 view .LVU2136
	mov	r0, r8
	bl	net_send_data
.LVL530:
	.loc 1 1956 5 view .LVU2137
	cmp	r0, #0
	blt	.L294
	.loc 1 1967 2 is_stmt 1 view .LVU2138
.LVL531:
.LBB1829:
.LBI1829:
	.loc 14 96 20 view .LVU2139
.LBB1830:
	.loc 14 98 6 view .LVU2140
	.loc 14 98 7 view .LVU2141
	.loc 14 98 9 view .LVU2142
	.loc 14 98 28 is_stmt 0 view .LVU2143
	ldr	r2, .L295
	ldr	r3, [r2, #168]
	.loc 14 98 33 view .LVU2144
	adds	r3, r3, #1
	str	r3, [r2, #168]
	.loc 14 98 39 is_stmt 1 view .LVU2145
	.loc 14 98 60 is_stmt 0 view .LVU2146
	ldr	r3, [r4, #176]
	.loc 14 98 65 view .LVU2147
	adds	r3, r3, #1
	str	r3, [r4, #176]
	.loc 14 98 71 is_stmt 1 view .LVU2148
.LVL532:
	.loc 14 98 71 is_stmt 0 view .LVU2149
.LBE1830:
.LBE1829:
	.loc 1 1969 2 is_stmt 1 view .LVU2150
	.loc 1 1969 9 is_stmt 0 view .LVU2151
	b	.L271
.LVL533:
.L293:
.LBB1831:
	.loc 1 1948 4 is_stmt 1 view .LVU2152
	.loc 1 1948 4 is_stmt 0 view .LVU2153
.LBE1831:
	.loc 9 405 2 is_stmt 1 view .LVU2154
	.loc 9 106 1 view .LVU2155
	.loc 9 108 1 view .LVU2156
	.loc 9 111 2 view .LVU2157
	.loc 9 115 2 view .LVU2158
	.loc 9 117 2 view .LVU2159
	.loc 9 133 2 view .LVU2160
	.loc 9 140 9 view .LVU2161
	.loc 9 141 3 view .LVU2162
	.loc 9 144 4 view .LVU2163
.LBB1832:
	.loc 1 1948 4 is_stmt 0 view .LVU2164
	movw	r2, #10000
	movs	r3, #0
	ldr	r0, .L295+8
	bl	k_work_reschedule
.LVL534:
	b	.L268
.LVL535:
.L294:
	.loc 1 1948 4 view .LVU2165
.LBE1832:
	.loc 1 1957 3 is_stmt 1 view .LVU2166
.LBB1833:
	.loc 1 1957 8 view .LVU2167
.LBE1833:
	.loc 1 1957 147 view .LVU2168
	.loc 1 1959 3 view .LVU2169
	.loc 1 1959 6 is_stmt 0 view .LVU2170
	cbz	r6, .L270
	.loc 1 1960 4 is_stmt 1 view .LVU2171
.LVL536:
.LBB1834:
.LBI1834:
	.loc 2 118 41 view .LVU2172
.LBB1835:
	.loc 2 120 2 view .LVU2173
	.loc 2 120 9 is_stmt 0 view .LVU2174
	ldr	r5, [r5, #12]
.LVL537:
	.loc 2 120 9 view .LVU2175
.LBE1835:
.LBE1834:
.LBB1836:
.LBI1836:
	.loc 1 283 20 is_stmt 1 view .LVU2176
.LBB1837:
	.loc 1 285 2 view .LVU2177
	.loc 1 285 16 is_stmt 0 view .LVU2178
	movs	r2, #0
	movs	r3, #0
	strd	r2, [r5, #40]
	.loc 1 287 2 is_stmt 1 view .LVU2179
	.loc 1 287 10 is_stmt 0 view .LVU2180
	ldr	r6, [r5]
.LVL538:
	.loc 1 287 5 view .LVU2181
	cbz	r6, .L270
	.loc 1 288 3 is_stmt 1 view .LVU2182
	mov	r0, r6
	bl	net_pkt_unref
.LVL539:
	.loc 1 289 3 view .LVU2183
	.loc 1 289 17 is_stmt 0 view .LVU2184
	movs	r6, #0
	str	r6, [r5]
.LVL540:
.L270:
	.loc 1 289 17 view .LVU2185
.LBE1837:
.LBE1836:
	.loc 1 1964 3 is_stmt 1 view .LVU2186
	.loc 1 1850 6 is_stmt 0 view .LVU2187
	mvn	r10, #104
	.loc 1 1964 3 view .LVU2188
	b	.L262
.LVL541:
.L278:
	.loc 1 1874 8 view .LVU2189
	mvn	r10, #21
.LVL542:
	.loc 1 1849 18 view .LVU2190
	mov	r8, #0
	b	.L262
.LVL543:
.L279:
	.loc 1 1886 7 view .LVU2191
	mvn	r10, #11
.LVL544:
	.loc 1 1886 7 view .LVU2192
	b	.L262
.LVL545:
.L280:
	.loc 1 1850 6 view .LVU2193
	mvn	r10, #104
.LVL546:
	.loc 1 1850 6 view .LVU2194
	b	.L262
.LVL547:
.L281:
	.loc 1 1850 6 view .LVU2195
	mvn	r10, #104
	b	.L262
.LVL548:
.L283:
	.loc 1 1850 6 view .LVU2196
	mvn	r10, #104
	b	.L262
.LVL549:
.L284:
	.loc 1 1850 6 view .LVU2197
	mvn	r10, #104
	b	.L262
.L296:
	.align	2
.L295:
	.word	net_stats
	.word	.LANCHOR6+16
	.word	.LANCHOR6
	.cfi_endproc
.LFE980:
	.size	net_ipv6_send_ns, .-net_ipv6_send_ns
	.section	.rodata.net_ipv6_nbr_add.str1.4,"aMS",%progbits,1
	.align	2
.LC11:
	.ascii	"Could not add router neighbor %s [%s]\000"
	.section	.text.net_ipv6_nbr_add,"ax",%progbits
	.align	1
	.global	net_ipv6_nbr_add
	.syntax unified
	.thumb
	.thumb_func
	.fpu fpv4-sp-d16
	.type	net_ipv6_nbr_add, %function
net_ipv6_nbr_add:
.LVL550:
.LFB959:
	.loc 1 587 1 is_stmt 1 view -0
	.cfi_startproc
	@ args = 4, pretend = 0, frame = 0
	@ frame_needed = 0, uses_anonymous_args = 0
	.loc 1 587 1 is_stmt 0 view .LVU2199
	push	{r4, r5, r6, r7, r8, lr}
	.cfi_def_cfa_offset 24
	.cfi_offset 4, -24
	.cfi_offset 5, -20
	.cfi_offset 6, -16
	.cfi_offset 7, -12
	.cfi_offset 8, -8
	.cfi_offset 14, -4
	sub	sp, sp, #16
	.cfi_def_cfa_offset 40
	mov	r4, r0
	mov	r7, r1
	mov	r5, r2
	mov	r2, r3
.LVL551:
	.loc 1 588 2 is_stmt 1 view .LVU2200
	.loc 1 589 2 view .LVU2201
	.loc 1 594 2 view .LVU2202
	.loc 1 594 8 is_stmt 0 view .LVU2203
	ldrb	r3, [sp, #40]	@ zero_extendqisi2
.LVL552:
	.loc 1 594 8 view .LVU2204
	bl	add_nbr
.LVL553:
	.loc 1 595 2 is_stmt 1 view .LVU2205
	.loc 1 595 5 is_stmt 0 view .LVU2206
	mov	r6, r0
	cbz	r0, .L305
	.loc 1 603 2 is_stmt 1 view .LVU2207
	.loc 1 603 6 is_stmt 0 view .LVU2208
	mov	r2, r5
	mov	r1, r4
	bl	net_nbr_link
.LVL554:
	.loc 1 603 5 view .LVU2209
	cmn	r0, #120
	beq	.L306
.L300:
	.loc 1 623 2 is_stmt 1 view .LVU2210
.LVL555:
.LBB1862:
.LBI1862:
	.loc 2 118 41 view .LVU2211
.LBB1863:
	.loc 2 120 2 view .LVU2212
	.loc 2 120 9 is_stmt 0 view .LVU2213
	ldr	r3, [r6, #12]
.LVL556:
	.loc 2 120 9 view .LVU2214
.LBE1863:
.LBE1862:
	.loc 1 623 28 view .LVU2215
	ldrb	r3, [r3, #48]	@ zero_extendqisi2
	.loc 1 623 5 view .LVU2216
	cmp	r3, #0
	beq	.L307
.L303:
	.loc 1 629 128 is_stmt 1 view .LVU2217
	.loc 1 633 2 view .LVU2218
.LBB1864:
	.loc 1 633 7 view .LVU2219
.LBE1864:
	.loc 1 633 333 view .LVU2220
	.loc 1 646 2 view .LVU2221
.LVL557:
.LBB1865:
.LBI1865:
	.loc 11 225 20 view .LVU2222
.LBB1866:
	.loc 11 228 2 view .LVU2223
	movs	r3, #0
	mov	r2, r3
	mov	r1, r4
	ldr	r0, .L309
	bl	net_mgmt_event_notify_with_info
.LVL558:
	.loc 11 228 2 is_stmt 0 view .LVU2224
.LBE1866:
.LBE1865:
	.loc 1 649 2 is_stmt 1 view .LVU2225
.L297:
	.loc 1 650 1 is_stmt 0 view .LVU2226
	mov	r0, r6
	add	sp, sp, #16
	.cfi_remember_state
	.cfi_def_cfa_offset 24
	@ sp needed
	pop	{r4, r5, r6, r7, r8, pc}
.LVL559:
.L305:
	.cfi_restore_state
	.loc 1 596 3 is_stmt 1 view .LVU2227
.LBB1867:
	.loc 1 596 8 view .LVU2228
	.loc 1 596 57 view .LVU2229
	.loc 1 596 14 view .LVU2230
	.loc 1 596 2 view .LVU2231
.LBE1867:
	.loc 16 120 2 view .LVU2232
.LBB1874:
	.loc 1 596 41 view .LVU2233
	.loc 1 596 107 view .LVU2234
	.loc 1 596 206 view .LVU2235
.LBB1868:
	.loc 1 596 215 view .LVU2236
	.loc 1 596 226 view .LVU2237
	.loc 1 596 314 view .LVU2238
	.loc 1 596 319 view .LVU2239
	.loc 1 596 321 view .LVU2240
.LBE1868:
.LBE1874:
	.loc 1 596 3 view .LVU2241
	.loc 1 596 3 view .LVU2242
.LBB1875:
.LBB1871:
	.loc 1 596 14 view .LVU2243
	.loc 1 596 16 view .LVU2244
	.loc 1 596 59 is_stmt 0 view .LVU2245
	mov	r1, r7
	movs	r0, #2
.LVL560:
	.loc 1 596 59 view .LVU2246
	bl	net_sprint_addr
.LVL561:
	mov	r4, r0
.LVL562:
	.loc 1 596 59 view .LVU2247
.LBE1871:
.LBE1875:
	.file 18 "/home/sebin/thesis/zephyrproject/zephyr/include/logging/log.h"
	.loc 18 290 2 is_stmt 1 view .LVU2248
	.loc 18 291 3 view .LVU2249
.LBB1876:
.LBB1872:
.LBB1869:
.LBI1869:
	.loc 7 206 21 view .LVU2250
.LBB1870:
	.loc 7 208 2 view .LVU2251
	.loc 7 210 2 view .LVU2252
	.loc 7 210 9 is_stmt 0 view .LVU2253
	movs	r3, #24
	ldr	r2, .L309+4
	ldrb	r1, [r5, #4]	@ zero_extendqisi2
	ldr	r0, [r5]
	bl	net_sprint_ll_addr_buf
.LVL563:
	.loc 7 210 9 view .LVU2254
.LBE1870:
.LBE1869:
.LBE1872:
.LBE1876:
	.loc 18 290 2 is_stmt 1 view .LVU2255
	.loc 18 291 3 view .LVU2256
.LBB1877:
.LBB1873:
	.loc 1 596 16 is_stmt 0 view .LVU2257
	str	r0, [sp, #12]
	str	r4, [sp, #8]
	ldr	r3, .L309+8
	str	r3, [sp, #4]
	movs	r0, #0
	str	r0, [sp]
	mov	r3, r0
	movs	r2, #1
	ldr	r1, .L309+12
	bl	z_log_msg2_runtime_create
.LVL564:
	.loc 1 596 146 is_stmt 1 view .LVU2258
	.loc 1 596 58 view .LVU2259
.LBE1873:
	.loc 1 596 13 view .LVU2260
	.loc 1 596 20 view .LVU2261
	.loc 1 596 20 is_stmt 0 view .LVU2262
.LBE1877:
	.loc 1 596 180 is_stmt 1 view .LVU2263
	.loc 1 600 3 view .LVU2264
	.loc 1 600 9 is_stmt 0 view .LVU2265
	b	.L297
.LVL565:
.L306:
.LBB1878:
.LBI1878:
	.loc 2 118 41 is_stmt 1 view .LVU2266
.LBB1879:
	.loc 2 120 2 view .LVU2267
	.loc 2 120 9 is_stmt 0 view .LVU2268
	ldr	r3, [r6, #12]
.LVL566:
	.loc 2 120 9 view .LVU2269
.LBE1879:
.LBE1878:
	.loc 1 604 28 view .LVU2270
	ldrb	r3, [r3, #48]	@ zero_extendqisi2
	.loc 1 603 51 view .LVU2271
	cmp	r3, #5
	beq	.L300
.LBB1880:
	.loc 1 606 3 is_stmt 1 view .LVU2272
	.loc 1 608 3 view .LVU2273
	.loc 1 608 19 is_stmt 0 view .LVU2274
	ldrb	r0, [r6, #1]	@ zero_extendqisi2
	bl	net_nbr_get_lladdr
.LVL567:
	mov	r8, r0
.LVL568:
	.loc 1 610 3 is_stmt 1 view .LVU2275
	.loc 1 610 7 is_stmt 0 view .LVU2276
	ldrb	r2, [r5, #4]	@ zero_extendqisi2
	ldr	r1, [r5]
	adds	r0, r0, #2
.LVL569:
	.loc 1 610 7 view .LVU2277
	bl	memcmp
.LVL570:
	.loc 1 610 6 view .LVU2278
	cbnz	r0, .L308
	.loc 1 617 10 is_stmt 1 view .LVU2279
.LVL571:
.LBB1881:
.LBI1881:
	.loc 2 118 41 view .LVU2280
.LBB1882:
	.loc 2 120 2 view .LVU2281
	.loc 2 120 9 is_stmt 0 view .LVU2282
	ldr	r3, [r6, #12]
.LVL572:
	.loc 2 120 9 view .LVU2283
.LBE1882:
.LBE1881:
	.loc 1 617 36 view .LVU2284
	ldrb	r3, [r3, #48]	@ zero_extendqisi2
	.loc 1 617 13 view .LVU2285
	cmp	r3, #0
	bne	.L300
	.loc 1 619 4 is_stmt 1 view .LVU2286
	movs	r1, #2
	mov	r0, r6
	bl	ipv6_nbr_set_state
.LVL573:
	b	.L300
.L308:
	.loc 1 611 4 view .LVU2287
	mov	r2, r7
	mov	r1, r8
	mov	r0, r5
	bl	dbg_update_neighbor_lladdr
.LVL574:
	.loc 1 613 4 view .LVU2288
	ldr	r1, [r5]
	ldrb	r2, [r5, #4]	@ zero_extendqisi2
.LVL575:
.LBB1883:
.LBI1883:
	.loc 17 132 19 view .LVU2289
.LBB1884:
	.loc 17 135 2 view .LVU2290
	.loc 17 135 5 is_stmt 0 view .LVU2291
	cmp	r8, #0
	beq	.L302
	.loc 17 135 20 view .LVU2292
	cbz	r1, .L302
	.loc 17 139 2 is_stmt 1 view .LVU2293
	.loc 17 139 5 is_stmt 0 view .LVU2294
	cmp	r2, #6
	bhi	.L302
	.loc 17 143 2 is_stmt 1 view .LVU2295
	.loc 17 143 20 is_stmt 0 view .LVU2296
	strb	r2, [r8, #1]
	.loc 17 144 1 is_stmt 1 view .LVU2297
.LVL576:
.LBB1885:
.LBI1885:
	.loc 13 83 216 view .LVU2298
.LBB1886:
	.loc 13 83 292 view .LVU2299
	.loc 13 83 299 is_stmt 0 view .LVU2300
	add	r0, r8, #2
.LVL577:
	.loc 13 83 299 view .LVU2301
	bl	memcpy
.LVL578:
.L302:
	.loc 13 83 299 view .LVU2302
.LBE1886:
.LBE1885:
.LBE1884:
.LBE1883:
	.loc 1 616 4 is_stmt 1 view .LVU2303
	movs	r1, #2
	mov	r0, r6
	bl	ipv6_nbr_set_state
.LVL579:
	b	.L300
.LVL580:
.L307:
	.loc 1 616 4 is_stmt 0 view .LVU2304
.LBE1880:
	.loc 1 627 3 is_stmt 1 view .LVU2305
	.loc 1 627 9 is_stmt 0 view .LVU2306
	movs	r1, #0
	str	r1, [sp, #4]
	str	r7, [sp]
	mov	r3, r1
	mov	r2, r1
	mov	r0, r4
	bl	net_ipv6_send_ns
.LVL581:
	.loc 1 628 3 is_stmt 1 view .LVU2307
	b	.L303
.L310:
	.align	2
.L309:
	.word	-530579441
	.word	.LANCHOR4
	.word	.LC11
	.word	log_const_net_ipv6
	.cfi_endproc
.LFE959:
	.size	net_ipv6_nbr_add, .-net_ipv6_nbr_add
	.section	.rodata.handle_ra_input.str1.4,"aMS",%progbits,1
	.align	2
.LC12:
	.ascii	"DROP: NULL RA header\000"
	.align	2
.LC13:
	.ascii	"DROP: Unsupported MTU %u, min is %u, max is %u\000"
	.align	2
.LC14:
	.ascii	"prefix opt\000"
	.align	2
.LC15:
	.ascii	"DROP: Invalid %s length (%d)\000"
	.align	2
.LC16:
	.ascii	"Prefix %s/%d could not be added to iface %p/%d\000"
	.align	2
.LC17:
	.ascii	"route info opt\000"
	.align	2
.LC18:
	.ascii	"Error reading prefix, %d\000"
	.section	.text.handle_ra_input,"ax",%progbits
	.align	1
	.syntax unified
	.thumb
	.thumb_func
	.fpu fpv4-sp-d16
	.type	handle_ra_input, %function
handle_ra_input:
.LVL582:
.LFB989:
	.loc 1 2344 1 view -0
	.cfi_startproc
	@ args = 0, pretend = 0, frame = 152
	@ frame_needed = 1, uses_anonymous_args = 0
	.loc 1 2344 1 is_stmt 0 view .LVU2309
	push	{r4, r5, r6, r7, r8, r9, r10, fp, lr}
	.cfi_def_cfa_offset 36
	.cfi_offset 4, -36
	.cfi_offset 5, -32
	.cfi_offset 6, -28
	.cfi_offset 7, -24
	.cfi_offset 8, -20
	.cfi_offset 9, -16
	.cfi_offset 10, -12
	.cfi_offset 11, -8
	.cfi_offset 14, -4
	sub	sp, sp, #180
	.cfi_def_cfa_offset 216
	add	r7, sp, #24
	.cfi_def_cfa 7, 192
	mov	r4, r0
	str	r1, [r7, #12]
	mov	r6, r2
	.loc 1 2345 2 is_stmt 1 view .LVU2310
	.loc 1 2345 29 is_stmt 0 view .LVU2311
	movs	r3, #0
	str	r3, [r7, #96]
	movs	r2, #12
.LVL583:
	.loc 1 2345 29 view .LVU2312
	str	r2, [r7, #100]
	.loc 1 2347 2 is_stmt 1 view .LVU2313
	.loc 1 2347 47 view .LVU2314
	.loc 1 2347 74 is_stmt 0 view .LVU2315
	add	r2, r7, #92
	str	r2, [r7, #84]
	movs	r2, #2
	str	r2, [r7, #88]
	.loc 1 2348 2 is_stmt 1 view .LVU2316
.LVL584:
.LBB2091:
.LBI2091:
	.loc 10 961 22 view .LVU2317
.LBB2092:
	.loc 10 963 2 view .LVU2318
	.loc 10 963 9 is_stmt 0 view .LVU2319
	ldr	r5, [r0, #8]
.LVL585:
.LBB2093:
.LBI2093:
	.loc 15 2465 22 is_stmt 1 view .LVU2320
.LBB2094:
	.loc 15 2467 2 view .LVU2321
	.loc 15 2469 2 view .LVU2322
.L312:
	.loc 15 2469 8 view .LVU2323
	cbz	r5, .L392
	.loc 15 2470 3 view .LVU2324
	.loc 15 2470 15 is_stmt 0 view .LVU2325
	ldrh	r2, [r5, #12]
	.loc 15 2470 9 view .LVU2326
	add	r3, r3, r2
.LVL586:
	.loc 15 2471 3 is_stmt 1 view .LVU2327
	.loc 15 2471 7 is_stmt 0 view .LVU2328
	ldr	r5, [r5]
.LVL587:
	.loc 15 2471 7 view .LVU2329
	b	.L312
.L392:
	.loc 15 2474 2 is_stmt 1 view .LVU2330
.LVL588:
	.loc 15 2474 2 is_stmt 0 view .LVU2331
.LBE2094:
.LBE2093:
.LBE2092:
.LBE2091:
	.loc 1 2348 11 view .LVU2332
	uxth	r8, r3
.LVL589:
	.loc 1 2349 2 is_stmt 1 view .LVU2333
	.loc 1 2350 2 view .LVU2334
	.loc 1 2351 2 view .LVU2335
	.loc 1 2352 2 view .LVU2336
	.loc 1 2353 2 view .LVU2337
	.loc 1 2354 2 view .LVU2338
	.loc 1 2356 2 view .LVU2339
	.loc 1 2356 39 is_stmt 0 view .LVU2340
	add	r1, r7, #96
.LVL590:
	.loc 1 2356 39 view .LVU2341
	mov	r0, r4
.LVL591:
	.loc 1 2356 39 view .LVU2342
	bl	net_pkt_get_data
.LVL592:
	.loc 1 2357 2 is_stmt 1 view .LVU2343
	.loc 1 2357 5 is_stmt 0 view .LVU2344
	mov	r9, r0
	cmp	r0, #0
	beq	.L393
	.loc 1 2362 2 is_stmt 1 view .LVU2345
	.loc 1 2362 7 view .LVU2346
.LBB2095:
	.loc 1 2362 12 view .LVU2347
.LBE2095:
	.loc 1 2362 321 view .LVU2348
	.loc 1 2362 12 view .LVU2349
	.loc 1 2364 2 view .LVU2350
.LVL593:
.LBB2096:
.LBI2096:
	.loc 10 293 30 view .LVU2351
.LBB2097:
	.loc 10 295 2 view .LVU2352
	.loc 10 295 12 is_stmt 0 view .LVU2353
	ldr	r2, [r4, #24]
.LVL594:
	.loc 10 295 12 view .LVU2354
.LBE2097:
.LBE2096:
.LBB2098:
.LBI2098:
	.loc 14 101 20 is_stmt 1 view .LVU2355
.LBB2099:
	.loc 14 103 6 view .LVU2356
	.loc 14 103 7 view .LVU2357
	.loc 14 103 9 view .LVU2358
	.loc 14 103 28 is_stmt 0 view .LVU2359
	ldr	r1, .L410
	ldr	r3, [r1, #164]
	.loc 14 103 33 view .LVU2360
	adds	r3, r3, #1
	str	r3, [r1, #164]
	.loc 14 103 39 is_stmt 1 view .LVU2361
	.loc 14 103 60 is_stmt 0 view .LVU2362
	ldr	r3, [r2, #172]
	.loc 14 103 65 view .LVU2363
	adds	r3, r3, #1
	str	r3, [r2, #172]
	.loc 14 103 71 is_stmt 1 view .LVU2364
.LVL595:
	.loc 14 103 71 is_stmt 0 view .LVU2365
.LBE2099:
.LBE2098:
	.loc 1 2366 2 is_stmt 1 view .LVU2366
	.loc 1 2366 5 is_stmt 0 view .LVU2367
	cmp	r8, #57
	bls	.L316
	.loc 1 2370 14 view .LVU2368
	ldr	r3, [r7, #12]
	ldrb	r3, [r3, #7]	@ zero_extendqisi2
	.loc 1 2369 43 view .LVU2369
	cmp	r3, #255
	beq	.L394
.L316:
	.loc 1 2372 11 view .LVU2370
	ldrb	r3, [r6, #1]	@ zero_extendqisi2
	.loc 1 2371 61 view .LVU2371
	cmp	r3, #0
	bne	.L315
.L317:
	.loc 1 2376 2 is_stmt 1 view .LVU2372
.LVL596:
.LBB2100:
.LBI2100:
	.loc 10 2173 19 view .LVU2373
.LBB2101:
	.loc 10 2176 2 view .LVU2374
	.loc 10 2176 9 is_stmt 0 view .LVU2375
	ldr	r1, [r7, #100]
	mov	r0, r4
.LVL597:
	.loc 10 2176 9 view .LVU2376
	bl	net_pkt_skip
.LVL598:
	.loc 10 2176 9 view .LVU2377
.LBE2101:
.LBE2100:
	.loc 1 2378 2 is_stmt 1 view .LVU2378
	.loc 1 2378 42 is_stmt 0 view .LVU2379
	ldrh	r2, [r9, #2]	@ unaligned
	.loc 1 2378 75 view .LVU2380
	lsrs	r3, r2, #8
	orr	r3, r3, r2, lsl #8
	.loc 1 2378 18 view .LVU2381
	uxth	r3, r3
	str	r3, [r7, #4]
.LVL599:
	.loc 1 2379 2 is_stmt 1 view .LVU2382
	.loc 1 2379 41 is_stmt 0 view .LVU2383
	ldr	r3, [r9, #4]	@ unaligned
	.loc 1 2379 103 view .LVU2384
	lsrs	r6, r3, #8
.LVL600:
	.loc 1 2379 109 view .LVU2385
	and	r6, r6, #65280
	.loc 1 2379 74 view .LVU2386
	orr	r6, r6, r3, lsr #24
	.loc 1 2379 158 view .LVU2387
	lsls	r2, r3, #8
	and	r2, r2, #16711680
	.loc 1 2379 119 view .LVU2388
	orrs	r6, r6, r2
	.loc 1 2379 17 view .LVU2389
	orr	r6, r6, r3, lsl #24
.LVL601:
	.loc 1 2380 2 is_stmt 1 view .LVU2390
	.loc 1 2380 40 is_stmt 0 view .LVU2391
	ldr	r3, [r9, #8]	@ unaligned
	.loc 1 2380 100 view .LVU2392
	lsr	r8, r3, #8
.LVL602:
	.loc 1 2380 106 view .LVU2393
	and	r8, r8, #65280
	.loc 1 2380 72 view .LVU2394
	orr	r8, r8, r3, lsr #24
	.loc 1 2380 154 view .LVU2395
	lsls	r2, r3, #8
	and	r2, r2, #16711680
	.loc 1 2380 116 view .LVU2396
	orr	r8, r8, r2
	.loc 1 2380 16 view .LVU2397
	orr	r8, r8, r3, lsl #24
.LVL603:
	.loc 1 2382 2 is_stmt 1 view .LVU2398
	.loc 1 2382 12 is_stmt 0 view .LVU2399
	ldrb	r1, [r9]	@ zero_extendqisi2
	.loc 1 2382 5 view .LVU2400
	cmp	r1, #0
	bne	.L395
.L318:
	.loc 1 2385 166 is_stmt 1 view .LVU2401
	.loc 1 2389 2 view .LVU2402
	.loc 1 2389 21 is_stmt 0 view .LVU2403
	subs	r2, r6, #1
	.loc 1 2389 5 view .LVU2404
	ldr	r3, .L410+4
	cmp	r2, r3
	bcs	.L319
.LVL604:
.LBB2102:
.LBI2102:
	.loc 10 293 30 is_stmt 1 view .LVU2405
.LBB2103:
	.loc 10 295 2 view .LVU2406
	.loc 10 295 12 is_stmt 0 view .LVU2407
	ldr	r3, [r4, #24]
.LVL605:
	.loc 10 295 12 view .LVU2408
.LBE2103:
.LBE2102:
.LBB2104:
.LBI2104:
	.loc 12 1340 24 is_stmt 1 view .LVU2409
.LBB2105:
	.loc 12 1343 2 view .LVU2410
	.loc 12 1343 23 is_stmt 0 view .LVU2411
	ldr	r3, [r3, #528]
.LVL606:
	.loc 12 1343 5 view .LVU2412
	cmp	r3, #0
	beq	.L374
	.loc 12 1347 2 is_stmt 1 view .LVU2413
	.loc 12 1347 30 is_stmt 0 view .LVU2414
	ldr	r2, [r3, #252]
.L320:
.LVL607:
	.loc 12 1347 30 view .LVU2415
.LBE2105:
.LBE2104:
	.loc 1 2389 50 view .LVU2416
	cmp	r6, r2
	beq	.L319
	.loc 1 2392 3 is_stmt 1 view .LVU2417
.LVL608:
	.loc 10 295 2 view .LVU2418
.LBB2107:
.LBI2107:
	.loc 12 1321 20 view .LVU2419
.LBB2108:
	.loc 12 1325 2 view .LVU2420
	.loc 12 1325 5 is_stmt 0 view .LVU2421
	cbz	r3, .L321
	.loc 12 1329 2 is_stmt 1 view .LVU2422
	.loc 12 1329 45 is_stmt 0 view .LVU2423
	str	r6, [r3, #248]
.LVL609:
.L321:
	.loc 12 1329 45 view .LVU2424
.LBE2108:
.LBE2107:
	.loc 1 2394 3 is_stmt 1 view .LVU2425
.LBB2109:
.LBI2109:
	.loc 10 293 30 view .LVU2426
.LBB2110:
	.loc 10 295 2 view .LVU2427
	.loc 10 295 12 is_stmt 0 view .LVU2428
	ldr	r3, [r4, #24]
.LVL610:
	.loc 10 295 12 view .LVU2429
.LBE2110:
.LBE2109:
	.loc 1 2394 3 view .LVU2430
	ldr	r6, [r3, #528]
.LVL611:
.LBB2111:
.LBI2111:
	.loc 12 1368 20 is_stmt 1 view .LVU2431
.LBB2112:
	.loc 12 1371 2 view .LVU2432
	.loc 12 1371 25 is_stmt 0 view .LVU2433
	mov	r0, r6
	bl	net_if_ipv6_calc_reachable_time
.LVL612:
	.loc 12 1371 23 view .LVU2434
	str	r0, [r6, #252]
.LVL613:
.L319:
	.loc 12 1371 23 view .LVU2435
.LBE2112:
.LBE2111:
	.loc 1 2398 2 is_stmt 1 view .LVU2436
	.loc 1 2398 5 is_stmt 0 view .LVU2437
	cmp	r8, #0
	beq	.L322
	.loc 1 2399 3 is_stmt 1 view .LVU2438
.LVL614:
.LBB2113:
.LBI2113:
	.loc 10 293 30 view .LVU2439
.LBB2114:
	.loc 10 295 2 view .LVU2440
	.loc 10 295 12 is_stmt 0 view .LVU2441
	ldr	r3, [r4, #24]
.LVL615:
	.loc 10 295 12 view .LVU2442
.LBE2114:
.LBE2113:
	.loc 1 2399 3 view .LVU2443
	ldr	r2, [r9, #8]	@ unaligned
.LVL616:
.LBB2115:
.LBI2115:
	.loc 12 1381 20 is_stmt 1 view .LVU2444
.LBB2116:
	.loc 12 1385 2 view .LVU2445
	.loc 12 1385 23 is_stmt 0 view .LVU2446
	ldr	r3, [r3, #528]
.LVL617:
	.loc 12 1385 5 view .LVU2447
	cbz	r3, .L322
	.loc 12 1389 2 is_stmt 1 view .LVU2448
	.loc 12 1389 39 is_stmt 0 view .LVU2449
	str	r2, [r3, #256]
.LVL618:
.L322:
	.loc 12 1389 39 view .LVU2450
.LBE2116:
.LBE2115:
	.loc 1 2403 2 is_stmt 1 view .LVU2451
.LBB2117:
.LBI2117:
	.loc 10 506 20 view .LVU2452
.LBB2118:
	.loc 10 509 2 view .LVU2453
	.loc 10 509 24 is_stmt 0 view .LVU2454
	movs	r3, #12
	strb	r3, [r4, #86]
.LVL619:
	.loc 10 509 24 view .LVU2455
.LBE2118:
.LBE2117:
	.loc 1 2404 2 is_stmt 1 view .LVU2456
	.loc 1 2406 2 view .LVU2457
	.loc 1 2407 5 is_stmt 0 view .LVU2458
	add	r1, r7, #84
	mov	r0, r4
	bl	net_pkt_get_data
.LVL620:
	mov	r6, r0
.LVL621:
	.loc 1 2408 2 is_stmt 1 view .LVU2459
	.loc 1 2349 18 is_stmt 0 view .LVU2460
	mov	r10, r5
	str	r5, [r7, #8]
	.loc 1 2408 8 view .LVU2461
	b	.L323
.LVL622:
.L393:
	.loc 1 2358 3 is_stmt 1 view .LVU2462
.LBB2119:
	.loc 1 2358 8 view .LVU2463
	.loc 1 2358 57 view .LVU2464
	.loc 1 2358 14 view .LVU2465
	.loc 1 2358 2 view .LVU2466
.LBE2119:
	.loc 16 120 2 view .LVU2467
.LBB2132:
	.loc 1 2358 41 view .LVU2468
	.loc 1 2358 107 view .LVU2469
	.loc 1 2358 206 view .LVU2470
.LBB2120:
	.loc 1 2358 215 view .LVU2471
	.loc 1 2358 226 view .LVU2472
	.loc 1 2358 314 view .LVU2473
	.loc 1 2358 319 view .LVU2474
	.loc 1 2358 321 view .LVU2475
.LBE2120:
.LBE2132:
	.loc 1 2358 3 view .LVU2476
	.loc 1 2358 3 view .LVU2477
.LBB2133:
.LBB2129:
	.loc 1 2358 74 view .LVU2478
.LBB2121:
	.loc 1 2358 79 view .LVU2479
	.loc 1 2358 90 view .LVU2480
.LBE2121:
.LBE2129:
.LBE2133:
	.loc 1 2358 3 view .LVU2481
	.loc 1 2358 217 view .LVU2482
	.loc 1 2358 2 view .LVU2483
	.loc 1 2358 31 view .LVU2484
	.loc 1 2358 4 view .LVU2485
	.loc 1 2358 24 view .LVU2486
	.loc 1 2358 48 view .LVU2487
	.loc 1 2358 23 view .LVU2488
	.loc 1 2358 41 view .LVU2489
	.loc 1 2358 61 view .LVU2490
	.loc 1 2358 108 view .LVU2491
	.loc 1 2358 140 view .LVU2492
	.loc 1 2358 13 view .LVU2493
	.loc 1 2358 55 view .LVU2494
	.loc 1 2358 97 view .LVU2495
	.loc 1 2358 142 view .LVU2496
	.loc 1 2358 147 view .LVU2497
	.loc 1 2358 391 view .LVU2498
	.loc 1 2358 397 view .LVU2499
	.loc 1 2358 1478 view .LVU2500
	.loc 1 2358 1502 view .LVU2501
	.loc 1 2358 1549 view .LVU2502
	.loc 1 2358 1653 view .LVU2503
	.loc 1 2358 1668 view .LVU2504
	.loc 1 2358 1945 view .LVU2505
	.loc 1 2358 1993 view .LVU2506
	.loc 1 2358 3213 view .LVU2507
	.loc 1 2358 3220 view .LVU2508
	.loc 1 2358 3243 view .LVU2509
	.loc 1 2358 3277 view .LVU2510
	.loc 1 2358 3282 view .LVU2511
	.loc 1 2358 3305 view .LVU2512
	.loc 1 2358 3433 view .LVU2513
	.loc 1 2358 16 view .LVU2514
.LBB2134:
.LBB2130:
.LBB2127:
	.loc 1 2358 11 view .LVU2515
	.loc 1 2358 16 view .LVU2516
	.loc 1 2358 39 view .LVU2517
	.loc 1 2358 159 view .LVU2518
	.loc 1 2358 285 view .LVU2519
	.loc 1 2358 488 view .LVU2520
	.loc 1 2358 5 view .LVU2521
	.loc 1 2358 7 view .LVU2522
	.loc 1 2358 20 view .LVU2523
.LBB2122:
	.loc 1 2358 3 view .LVU2524
	.loc 1 2358 217 view .LVU2525
	.loc 1 2358 2 view .LVU2526
	.loc 1 2358 31 view .LVU2527
	.loc 1 2358 60 view .LVU2528
	.loc 1 2358 80 view .LVU2529
	.loc 1 2358 104 view .LVU2530
	.loc 1 2358 27 view .LVU2531
	.loc 1 2358 45 view .LVU2532
	.loc 1 2358 65 view .LVU2533
	.loc 1 2358 112 view .LVU2534
	.loc 1 2358 144 view .LVU2535
	.loc 1 2358 13 view .LVU2536
	.loc 1 2358 55 view .LVU2537
	.loc 1 2358 97 view .LVU2538
	.loc 1 2358 142 view .LVU2539
.LBB2123:
	.loc 1 2358 147 view .LVU2540
	.loc 1 2358 391 view .LVU2541
	.loc 1 2358 397 view .LVU2542
	.loc 1 2358 1478 view .LVU2543
.LBE2123:
.LBE2122:
.LBE2127:
.LBE2130:
.LBE2134:
	.loc 1 2358 1502 view .LVU2544
	.loc 1 2358 1549 view .LVU2545
	.loc 1 2358 1653 view .LVU2546
.LBB2135:
.LBB2131:
.LBB2128:
.LBB2126:
.LBB2124:
	.loc 1 2358 1668 view .LVU2547
	.loc 1 2358 1945 view .LVU2548
	.loc 1 2358 1993 view .LVU2549
	.loc 1 2358 2031 view .LVU2550
	.loc 1 2358 2036 view .LVU2551
	.loc 1 2358 2559 view .LVU2552
	.loc 1 2358 3177 is_stmt 0 view .LVU2553
	ldr	r3, .L410+8
	str	r3, [r7, #120]
	.loc 1 2358 3213 is_stmt 1 view .LVU2554
	.loc 1 2358 3220 view .LVU2555
.LVL623:
	.loc 1 2358 3243 view .LVU2556
	.loc 1 2358 3243 is_stmt 0 view .LVU2557
.LBE2124:
	.loc 1 2358 3277 is_stmt 1 view .LVU2558
	.loc 1 2358 3282 view .LVU2559
	.loc 1 2358 3305 view .LVU2560
	.loc 1 2358 3433 view .LVU2561
	.loc 1 2358 16 view .LVU2562
.LBB2125:
	.loc 1 2358 29 view .LVU2563
	.loc 1 2358 50 is_stmt 0 view .LVU2564
	movs	r3, #0
	strh	r3, [r7, #49]	@ unaligned
	strb	r3, [r7, #51]
	movs	r2, #2
	strb	r2, [r7, #48]
	strb	r3, [r7, #50]
	.loc 1 2358 175 is_stmt 1 view .LVU2565
	.loc 1 2358 185 is_stmt 0 view .LVU2566
	ldr	r2, [r7, #48]
	str	r2, [r7, #116]
	.loc 1 2358 185 view .LVU2567
.LBE2125:
.LBE2126:
	.loc 1 2358 11 is_stmt 1 view .LVU2568
	.loc 1 2358 18 view .LVU2569
	.loc 1 2358 39 is_stmt 0 view .LVU2570
	mov	r2, r3
.LVL624:
	.loc 1 2358 39 view .LVU2571
	bfi	r2, r3, #0, #1
.LVL625:
	.loc 1 2358 39 view .LVU2572
	bfi	r2, r3, #1, #1
	bfi	r2, r3, #2, #1
	bfi	r2, r3, #3, #3
	movs	r1, #1
	bfi	r2, r1, #6, #3
	movs	r1, #8
	bfi	r2, r1, #9, #10
	.loc 1 2358 174 is_stmt 1 view .LVU2573
	ubfx	r2, r2, #0, #19
.LVL626:
	.loc 1 2358 174 is_stmt 0 view .LVU2574
	ldr	r1, .L410+12
	add	r0, r7, #104
.LVL627:
	.loc 1 2358 174 view .LVU2575
	bl	z_log_msg2_finalize
.LVL628:
	.loc 1 2358 174 view .LVU2576
.LBE2128:
	.loc 1 2358 13 is_stmt 1 view .LVU2577
	.loc 1 2358 18 view .LVU2578
.LVL629:
	.loc 1 2358 58 view .LVU2579
.LBE2131:
	.loc 1 2358 13 view .LVU2580
	.loc 1 2358 20 view .LVU2581
	.loc 1 2358 20 is_stmt 0 view .LVU2582
.LBE2135:
	.loc 1 2358 66 is_stmt 1 view .LVU2583
	.loc 1 2359 3 view .LVU2584
.L315:
	.loc 1 2548 2 view .LVU2585
.LBB2136:
.LBI2136:
	.loc 10 293 30 view .LVU2586
.LBB2137:
	.loc 10 295 2 view .LVU2587
	.loc 10 295 12 is_stmt 0 view .LVU2588
	ldr	r2, [r4, #24]
.LVL630:
	.loc 10 295 12 view .LVU2589
.LBE2137:
.LBE2136:
.LBB2138:
.LBI2138:
	.loc 14 106 20 is_stmt 1 view .LVU2590
.LBB2139:
	.loc 14 108 6 view .LVU2591
	.loc 14 108 7 view .LVU2592
	.loc 14 108 9 view .LVU2593
	.loc 14 108 28 is_stmt 0 view .LVU2594
	ldr	r1, .L410
	ldr	r3, [r1, #160]
	.loc 14 108 33 view .LVU2595
	adds	r3, r3, #1
	str	r3, [r1, #160]
	.loc 14 108 39 is_stmt 1 view .LVU2596
	.loc 14 108 60 is_stmt 0 view .LVU2597
	ldr	r3, [r2, #168]
	.loc 14 108 65 view .LVU2598
	adds	r3, r3, #1
	str	r3, [r2, #168]
	.loc 14 108 71 is_stmt 1 view .LVU2599
.LVL631:
	.loc 14 108 71 is_stmt 0 view .LVU2600
.LBE2139:
.LBE2138:
	.loc 1 2550 2 is_stmt 1 view .LVU2601
	.loc 1 2550 9 is_stmt 0 view .LVU2602
	movs	r0, #2
.L373:
	.loc 1 2551 1 view .LVU2603
	adds	r7, r7, #156
	.cfi_remember_state
	.cfi_def_cfa_offset 36
	mov	sp, r7
	.cfi_def_cfa_register 13
.LVL632:
	.loc 1 2551 1 view .LVU2604
	@ sp needed
	pop	{r4, r5, r6, r7, r8, r9, r10, fp, pc}
.LVL633:
.L394:
	.cfi_restore_state
.LBB2140:
.LBI2140:
	.loc 3 831 19 is_stmt 1 view .LVU2605
.LBE2140:
	.loc 3 833 2 view .LVU2606
.LBB2142:
.LBB2141:
	.loc 3 833 26 view .LVU2607
	.loc 3 833 153 view .LVU2608
	.loc 3 833 156 is_stmt 0 view .LVU2609
	ldr	r3, [r7, #12]
	ldrh	r2, [r3, #8]	@ unaligned
.LVL634:
	.loc 3 833 156 view .LVU2610
.LBE2141:
.LBE2142:
	.loc 1 2370 34 view .LVU2611
	movw	r3, #33022
	cmp	r2, r3
	bne	.L316
	b	.L317
.LVL635:
.L395:
	.loc 1 2383 3 is_stmt 1 view .LVU2612
.LBB2143:
.LBI2143:
	.loc 10 293 30 view .LVU2613
.LBB2144:
	.loc 10 295 2 view .LVU2614
	.loc 10 295 2 is_stmt 0 view .LVU2615
.LBE2144:
.LBE2143:
	.loc 1 2383 3 view .LVU2616
	ldr	r0, [r4, #24]
	bl	net_ipv6_set_hop_limit
.LVL636:
	.loc 1 2385 3 is_stmt 1 view .LVU2617
.LBB2145:
	.loc 1 2385 8 view .LVU2618
	b	.L318
.LVL637:
.L374:
	.loc 1 2385 8 is_stmt 0 view .LVU2619
.LBE2145:
.LBB2146:
.LBB2106:
	.loc 12 1344 10 view .LVU2620
	movs	r2, #0
	b	.L320
.LVL638:
.L329:
	.loc 12 1344 10 view .LVU2621
.LBE2106:
.LBE2146:
	.loc 1 2413 4 is_stmt 1 view .LVU2622
.LBB2147:
.LBI2147:
	.loc 1 2053 31 view .LVU2623
.LBB2148:
	.loc 1 2055 2 view .LVU2624
	.loc 1 2056 2 view .LVU2625
	.loc 1 2058 2 view .LVU2626
	.loc 1 2058 7 is_stmt 0 view .LVU2627
	add	r2, r7, #48
	ldrb	r1, [r6, #1]	@ zero_extendqisi2
	mov	r0, r4
	bl	read_llao
.LVL639:
	.loc 1 2058 5 view .LVU2628
	cbz	r0, .L375
	.loc 1 2062 2 is_stmt 1 view .LVU2629
	.loc 1 2062 24 is_stmt 0 view .LVU2630
	ldrb	r3, [r7, #49]	@ zero_extendqisi2
	.loc 1 2062 13 view .LVU2631
	strb	r3, [r7, #36]
	.loc 1 2063 2 is_stmt 1 view .LVU2632
	.loc 1 2063 14 is_stmt 0 view .LVU2633
	add	r3, r7, #50
	str	r3, [r7, #32]
	.loc 1 2065 2 is_stmt 1 view .LVU2634
.LVL640:
.LBB2149:
.LBI2149:
	.loc 10 293 30 view .LVU2635
.LBB2150:
	.loc 10 295 2 view .LVU2636
	.loc 10 295 12 is_stmt 0 view .LVU2637
	ldr	r0, [r4, #24]
.LVL641:
	.loc 10 295 12 view .LVU2638
.LBE2150:
.LBE2149:
.LBB2151:
.LBI2151:
	.loc 10 971 24 is_stmt 1 view .LVU2639
.LBB2152:
	.loc 10 973 2 view .LVU2640
	.loc 10 973 12 is_stmt 0 view .LVU2641
	ldr	r3, [r4, #8]
	.loc 10 973 19 view .LVU2642
	ldr	r1, [r3, #8]
.LVL642:
	.loc 10 973 19 view .LVU2643
.LBE2152:
.LBE2151:
	.loc 1 2065 9 view .LVU2644
	movs	r3, #2
	str	r3, [sp]
	movs	r3, #1
	add	r2, r7, #32
	adds	r1, r1, #8
	bl	net_ipv6_nbr_add
.LVL643:
	mov	r10, r0
.LVL644:
.L330:
	.loc 1 2065 9 view .LVU2645
.LBE2148:
.LBE2147:
	.loc 1 2414 4 is_stmt 1 view .LVU2646
	.loc 1 2414 7 is_stmt 0 view .LVU2647
	cmp	r10, #0
	bne	.L331
	b	.L315
.LVL645:
.L375:
.LBB2154:
.LBB2153:
	.loc 1 2059 9 view .LVU2648
	ldr	r10, [r7, #8]
.LVL646:
	.loc 1 2059 9 view .LVU2649
	b	.L330
.LVL647:
.L327:
	.loc 1 2059 9 view .LVU2650
.LBE2153:
.LBE2154:
	.loc 1 2421 4 is_stmt 1 view .LVU2651
	.loc 1 2421 8 is_stmt 0 view .LVU2652
	movs	r1, #2
	mov	r0, r4
	bl	net_pkt_skip
.LVL648:
	.loc 1 2421 7 view .LVU2653
	cmp	r0, #0
	bne	.L315
	.loc 1 2422 8 discriminator 1 view .LVU2654
	add	r1, r7, #80
	mov	r0, r4
	bl	net_pkt_read_be32
.LVL649:
	.loc 1 2421 29 discriminator 1 view .LVU2655
	cmp	r0, #0
	bne	.L315
	.loc 1 2426 4 is_stmt 1 view .LVU2656
	.loc 1 2426 27 is_stmt 0 view .LVU2657
	ldr	r3, [r7, #80]
	sub	r2, r3, #1280
	.loc 1 2426 7 view .LVU2658
	cmp	r2, #64256
	bcs	.L396
	.loc 1 2433 4 is_stmt 1 view .LVU2659
.LVL650:
.LBB2155:
.LBI2155:
	.loc 10 293 30 view .LVU2660
.LBB2156:
	.loc 10 295 2 view .LVU2661
	.loc 10 295 12 is_stmt 0 view .LVU2662
	ldr	r2, [r4, #24]
.LVL651:
	.loc 10 295 12 view .LVU2663
.LBE2156:
.LBE2155:
	.loc 1 2433 4 view .LVU2664
	uxth	r3, r3
.LVL652:
.LBB2157:
.LBI2157:
	.loc 12 801 20 is_stmt 1 view .LVU2665
.LBB2158:
	.loc 12 804 2 view .LVU2666
	.loc 12 804 5 is_stmt 0 view .LVU2667
	cmp	r2, #0
	beq	.L331
	.loc 12 808 2 is_stmt 1 view .LVU2668
	.loc 12 808 7 is_stmt 0 view .LVU2669
	ldr	r2, [r2]
.LVL653:
	.loc 12 808 21 view .LVU2670
	strh	r3, [r2, #24]	@ movhi
.LVL654:
	.loc 12 808 21 view .LVU2671
	b	.L331
.LVL655:
.L396:
	.loc 12 808 21 view .LVU2672
.LBE2158:
.LBE2157:
	.loc 1 2427 5 is_stmt 1 view .LVU2673
.LBB2159:
	.loc 1 2427 10 view .LVU2674
	.loc 1 2427 59 view .LVU2675
	.loc 1 2427 16 view .LVU2676
	.loc 1 2427 4 view .LVU2677
.LBE2159:
	.loc 16 120 2 view .LVU2678
.LBB2190:
	.loc 1 2427 43 view .LVU2679
	.loc 1 2427 109 view .LVU2680
	.loc 1 2427 208 view .LVU2681
.LBB2160:
	.loc 1 2427 217 view .LVU2682
	.loc 1 2427 228 view .LVU2683
	.loc 1 2427 316 view .LVU2684
	.loc 1 2427 321 view .LVU2685
	.loc 1 2427 323 view .LVU2686
.LBE2160:
.LBE2190:
	.loc 1 2427 5 view .LVU2687
	.loc 1 2427 5 view .LVU2688
.LBB2191:
.LBB2183:
	.loc 1 2427 132 view .LVU2689
.LBB2161:
	.loc 1 2427 137 view .LVU2690
	.loc 1 2427 148 view .LVU2691
.LBE2161:
.LBE2183:
.LBE2191:
	.loc 1 2427 5 view .LVU2692
	.loc 1 2427 219 view .LVU2693
	.loc 1 2427 4 view .LVU2694
	.loc 1 2427 33 view .LVU2695
	.loc 1 2427 6 view .LVU2696
	.loc 1 2427 26 view .LVU2697
	.loc 1 2427 50 view .LVU2698
	.loc 1 2427 25 view .LVU2699
	.loc 1 2427 43 view .LVU2700
	.loc 1 2427 63 view .LVU2701
	.loc 1 2427 110 view .LVU2702
	.loc 1 2427 142 view .LVU2703
	.loc 1 2427 15 view .LVU2704
	.loc 1 2427 57 view .LVU2705
	.loc 1 2427 99 view .LVU2706
	.loc 1 2427 144 view .LVU2707
	.loc 1 2427 149 view .LVU2708
	.loc 1 2427 422 view .LVU2709
	.loc 1 2427 428 view .LVU2710
	.loc 1 2427 1625 view .LVU2711
	.loc 1 2427 1649 view .LVU2712
	.loc 1 2427 1725 view .LVU2713
	.loc 1 2427 1858 view .LVU2714
	.loc 1 2427 1873 view .LVU2715
	.loc 1 2427 2179 view .LVU2716
	.loc 1 2427 2227 view .LVU2717
	.loc 1 2427 3679 view .LVU2718
	.loc 1 2427 3686 view .LVU2719
	.loc 1 2427 3709 view .LVU2720
	.loc 1 2427 3743 view .LVU2721
	.loc 1 2427 3749 view .LVU2722
	.loc 1 2427 3754 view .LVU2723
	.loc 1 2427 3979 view .LVU2724
	.loc 1 2427 3985 view .LVU2725
	.loc 1 2427 0 view .LVU2726
	.loc 1 2427 0 view .LVU2727
	.loc 1 2427 0 view .LVU2728
	.loc 1 2427 0 view .LVU2729
	.loc 1 2427 0 view .LVU2730
	.loc 1 2427 0 view .LVU2731
	.loc 1 2427 0 view .LVU2732
	.loc 1 2427 0 view .LVU2733
	.loc 1 2427 0 view .LVU2734
	.loc 1 2427 0 view .LVU2735
	.loc 1 2427 0 view .LVU2736
	.loc 1 2427 0 view .LVU2737
	.loc 1 2427 0 view .LVU2738
	.loc 1 2427 0 view .LVU2739
	.loc 1 2427 0 view .LVU2740
	.loc 1 2427 0 view .LVU2741
	.loc 1 2427 0 view .LVU2742
	.loc 1 2427 0 view .LVU2743
	.loc 1 2427 0 view .LVU2744
	.loc 1 2427 0 view .LVU2745
	.loc 1 2427 0 view .LVU2746
	.loc 1 2427 0 view .LVU2747
	.loc 1 2427 0 view .LVU2748
	.loc 1 2427 0 view .LVU2749
	.loc 1 2427 0 view .LVU2750
	.loc 1 2427 0 view .LVU2751
	.loc 1 2427 0 view .LVU2752
	.loc 1 2427 0 view .LVU2753
	.loc 1 2427 0 view .LVU2754
	.loc 1 2427 0 view .LVU2755
	.loc 1 2427 0 view .LVU2756
	.loc 1 2427 0 view .LVU2757
	.loc 1 2427 0 view .LVU2758
	.loc 1 2427 0 view .LVU2759
	.loc 1 2427 0 view .LVU2760
	.loc 1 2427 0 view .LVU2761
	.loc 1 2427 0 view .LVU2762
	.loc 1 2427 0 view .LVU2763
	.loc 1 2427 0 view .LVU2764
	.loc 1 2427 0 view .LVU2765
	.loc 1 2427 0 view .LVU2766
	.loc 1 2427 18 view .LVU2767
.LBB2192:
.LBB2184:
.LBB2177:
	.loc 1 2427 13 view .LVU2768
	.loc 1 2427 18 view .LVU2769
	.loc 1 2427 41 view .LVU2770
	.loc 1 2427 77 is_stmt 0 view .LVU2771
	mov	r5, sp
.LVL656:
	.loc 1 2427 161 is_stmt 1 view .LVU2772
	.loc 1 2427 173 is_stmt 0 view .LVU2773
	sub	sp, sp, #32
	add	r0, sp, #24
.LVL657:
	.loc 1 2427 287 is_stmt 1 view .LVU2774
	.loc 1 2427 490 view .LVU2775
	.loc 1 2427 7 view .LVU2776
	.loc 1 2427 9 view .LVU2777
	.loc 1 2427 22 view .LVU2778
.LBB2162:
	.loc 1 2427 5 view .LVU2779
	.loc 1 2427 219 view .LVU2780
	.loc 1 2427 4 view .LVU2781
	.loc 1 2427 33 view .LVU2782
	.loc 1 2427 62 view .LVU2783
	.loc 1 2427 82 view .LVU2784
	.loc 1 2427 106 view .LVU2785
	.loc 1 2427 14 is_stmt 0 view .LVU2786
	mov	r2, sp
	adds	r2, r2, #36
.LVL658:
	.loc 1 2427 14 view .LVU2787
	beq	.L376
	movs	r1, #20
.L335:
	.loc 1 2427 15 is_stmt 1 discriminator 108 view .LVU2788
.LVL659:
	.loc 1 2427 57 discriminator 108 view .LVU2789
	.loc 1 2427 99 discriminator 108 view .LVU2790
	.loc 1 2427 144 discriminator 108 view .LVU2791
.LBB2163:
	.loc 1 2427 149 discriminator 108 view .LVU2792
	.loc 1 2427 422 discriminator 108 view .LVU2793
	.loc 1 2427 428 discriminator 108 view .LVU2794
	.loc 1 2427 1625 discriminator 108 view .LVU2795
.LBE2163:
.LBE2162:
.LBE2177:
.LBE2184:
.LBE2192:
	.loc 1 2427 1649 discriminator 108 view .LVU2796
	.loc 1 2427 1725 discriminator 108 view .LVU2797
	.loc 1 2427 1858 discriminator 108 view .LVU2798
.LBB2193:
.LBB2185:
.LBB2178:
.LBB2172:
.LBB2164:
	.loc 1 2427 1873 discriminator 108 view .LVU2799
	.loc 1 2427 2179 discriminator 108 view .LVU2800
	.loc 1 2427 2227 discriminator 108 view .LVU2801
	.loc 1 2427 2230 is_stmt 0 discriminator 108 view .LVU2802
	cbz	r2, .L336
	.loc 1 2427 2237 discriminator 112 view .LVU2803
	cmp	r1, #4
	ble	.L336
	.loc 1 2427 2265 is_stmt 1 discriminator 117 view .LVU2804
	.loc 1 2427 2270 discriminator 117 view .LVU2805
	.loc 1 2427 2967 discriminator 117 view .LVU2806
	.loc 1 2427 3614 is_stmt 0 discriminator 117 view .LVU2807
	ldr	r6, .L410+16
.LVL660:
	.loc 1 2427 3614 discriminator 117 view .LVU2808
	str	r6, [r0, #16]
.L336:
	.loc 1 2427 3679 is_stmt 1 discriminator 118 view .LVU2809
	.loc 1 2427 3686 discriminator 118 view .LVU2810
.LVL661:
	.loc 1 2427 3709 discriminator 118 view .LVU2811
	.loc 1 2427 3709 is_stmt 0 discriminator 118 view .LVU2812
.LBE2164:
	.loc 1 2427 3743 is_stmt 1 discriminator 118 view .LVU2813
	.loc 1 2427 3749 discriminator 118 view .LVU2814
.LBB2165:
	.loc 1 2427 3754 discriminator 118 view .LVU2815
	.loc 1 2427 3979 discriminator 118 view .LVU2816
	.loc 1 2427 3985 discriminator 118 view .LVU2817
	.loc 1 2427 0 discriminator 118 view .LVU2818
.LBE2165:
.LBE2172:
.LBE2178:
.LBE2185:
.LBE2193:
	.loc 1 2427 0 discriminator 118 view .LVU2819
	.loc 1 2427 0 discriminator 118 view .LVU2820
	.loc 1 2427 0 discriminator 118 view .LVU2821
.LBB2194:
.LBB2186:
.LBB2179:
.LBB2173:
.LBB2166:
	.loc 1 2427 0 discriminator 118 view .LVU2822
	.loc 1 2427 0 discriminator 118 view .LVU2823
	cbz	r2, .L337
	.loc 1 2427 0 is_stmt 0 discriminator 126 view .LVU2824
	cmp	r1, #8
	ble	.L337
	.loc 1 2427 0 is_stmt 1 discriminator 131 view .LVU2825
	.loc 1 2427 0 discriminator 131 view .LVU2826
	.loc 1 2427 0 discriminator 131 view .LVU2827
	str	r3, [r0, #20]
.L337:
	.loc 1 2427 0 discriminator 132 view .LVU2828
	.loc 1 2427 0 discriminator 132 view .LVU2829
.LVL662:
	.loc 1 2427 0 discriminator 132 view .LVU2830
	.loc 1 2427 0 is_stmt 0 discriminator 132 view .LVU2831
.LBE2166:
	.loc 1 2427 0 is_stmt 1 discriminator 132 view .LVU2832
	.loc 1 2427 0 discriminator 132 view .LVU2833
.LBB2167:
	.loc 1 2427 0 discriminator 132 view .LVU2834
	.loc 1 2427 0 discriminator 132 view .LVU2835
	.loc 1 2427 0 discriminator 132 view .LVU2836
	.loc 1 2427 0 discriminator 132 view .LVU2837
.LBE2167:
.LBE2173:
.LBE2179:
.LBE2186:
.LBE2194:
	.loc 1 2427 0 discriminator 132 view .LVU2838
	.loc 1 2427 0 discriminator 132 view .LVU2839
	.loc 1 2427 0 discriminator 132 view .LVU2840
.LBB2195:
.LBB2187:
.LBB2180:
.LBB2174:
.LBB2168:
	.loc 1 2427 0 discriminator 132 view .LVU2841
	.loc 1 2427 0 discriminator 132 view .LVU2842
	cbz	r2, .L338
	.loc 1 2427 0 is_stmt 0 discriminator 140 view .LVU2843
	cmp	r1, #12
	ble	.L338
	.loc 1 2427 0 is_stmt 1 discriminator 145 view .LVU2844
	.loc 1 2427 0 discriminator 145 view .LVU2845
	.loc 1 2427 0 discriminator 145 view .LVU2846
	mov	r3, #1280
.LVL663:
	.loc 1 2427 0 is_stmt 0 discriminator 145 view .LVU2847
	str	r3, [r0, #24]
.L338:
	.loc 1 2427 0 is_stmt 1 discriminator 146 view .LVU2848
	.loc 1 2427 0 discriminator 146 view .LVU2849
.LVL664:
	.loc 1 2427 0 discriminator 146 view .LVU2850
	.loc 1 2427 0 is_stmt 0 discriminator 146 view .LVU2851
.LBE2168:
	.loc 1 2427 0 is_stmt 1 discriminator 146 view .LVU2852
	.loc 1 2427 0 discriminator 146 view .LVU2853
.LBB2169:
	.loc 1 2427 0 discriminator 146 view .LVU2854
	.loc 1 2427 0 discriminator 146 view .LVU2855
	.loc 1 2427 0 discriminator 146 view .LVU2856
	.loc 1 2427 0 discriminator 146 view .LVU2857
.LBE2169:
.LBE2174:
.LBE2180:
.LBE2187:
.LBE2195:
	.loc 1 2427 0 discriminator 146 view .LVU2858
	.loc 1 2427 0 discriminator 146 view .LVU2859
	.loc 1 2427 0 discriminator 146 view .LVU2860
.LBB2196:
.LBB2188:
.LBB2181:
.LBB2175:
.LBB2170:
	.loc 1 2427 0 discriminator 146 view .LVU2861
	.loc 1 2427 0 discriminator 146 view .LVU2862
	cbz	r2, .L339
	.loc 1 2427 0 is_stmt 0 discriminator 154 view .LVU2863
	cmp	r1, #16
	ble	.L339
	.loc 1 2427 0 is_stmt 1 discriminator 159 view .LVU2864
	.loc 1 2427 0 discriminator 159 view .LVU2865
	.loc 1 2427 0 discriminator 159 view .LVU2866
	movw	r3, #65535
	str	r3, [r0, #28]
.L339:
	.loc 1 2427 0 discriminator 160 view .LVU2867
	.loc 1 2427 0 discriminator 160 view .LVU2868
.LVL665:
	.loc 1 2427 0 discriminator 160 view .LVU2869
	.loc 1 2427 0 is_stmt 0 discriminator 160 view .LVU2870
.LBE2170:
	.loc 1 2427 0 is_stmt 1 discriminator 160 view .LVU2871
	.loc 1 2427 0 discriminator 160 view .LVU2872
	.loc 1 2427 0 discriminator 160 view .LVU2873
	.loc 1 2427 0 discriminator 160 view .LVU2874
	.loc 1 2427 4 is_stmt 0 discriminator 160 view .LVU2875
	cmp	r1, #19
	ble	.L377
	.loc 1 2427 4 view .LVU2876
	movs	r3, #20
.L340:
.LVL666:
	.loc 1 2427 18 is_stmt 1 discriminator 172 view .LVU2877
	.loc 1 2427 21 is_stmt 0 discriminator 172 view .LVU2878
	cbz	r2, .L341
.LBB2171:
	.loc 1 2427 31 is_stmt 1 discriminator 173 view .LVU2879
	.loc 1 2427 52 is_stmt 0 discriminator 173 view .LVU2880
	movs	r2, #0
.LVL667:
	.loc 1 2427 52 discriminator 173 view .LVU2881
	strh	r2, [r7, #49]	@ unaligned
	strb	r2, [r7, #51]
	movs	r1, #5
	strb	r1, [r7, #48]
	strb	r2, [r7, #50]
	.loc 1 2427 177 is_stmt 1 discriminator 173 view .LVU2882
	.loc 1 2427 187 is_stmt 0 discriminator 173 view .LVU2883
	ldr	r2, [r7, #48]
	str	r2, [r0, #12]
.L341:
	.loc 1 2427 187 discriminator 173 view .LVU2884
.LBE2171:
.LBE2175:
	.loc 1 2427 13 is_stmt 1 discriminator 9 view .LVU2885
	.loc 1 2427 20 discriminator 9 view .LVU2886
	.loc 1 2427 41 is_stmt 0 discriminator 9 view .LVU2887
	movs	r2, #0
.LVL668:
	.loc 1 2427 41 discriminator 9 view .LVU2888
	bfc	r2, #0, #1
.LVL669:
	.loc 1 2427 41 discriminator 9 view .LVU2889
	bfc	r2, #1, #1
	bfc	r2, #2, #1
	bfc	r2, #3, #3
	movs	r1, #1
	bfi	r2, r1, #6, #3
	.loc 1 2427 126 discriminator 9 view .LVU2890
	and	r3, r3, #1012
.LVL670:
	.loc 1 2427 41 discriminator 9 view .LVU2891
	bfi	r2, r3, #9, #10
	.loc 1 2427 176 is_stmt 1 discriminator 9 view .LVU2892
	movs	r3, #0
	ubfx	r2, r2, #0, #19
.LVL671:
	.loc 1 2427 176 is_stmt 0 discriminator 9 view .LVU2893
	ldr	r1, .L410+12
	bl	z_log_msg2_finalize
.LVL672:
	.loc 1 2427 176 discriminator 9 view .LVU2894
	mov	sp, r5
.LVL673:
	.loc 1 2427 176 discriminator 9 view .LVU2895
.LBE2181:
	.loc 1 2427 15 is_stmt 1 discriminator 9 view .LVU2896
	.loc 1 2427 20 discriminator 9 view .LVU2897
	.loc 1 2427 60 discriminator 9 view .LVU2898
.LBE2188:
	.loc 1 2427 15 discriminator 9 view .LVU2899
	.loc 1 2427 22 discriminator 9 view .LVU2900
	.loc 1 2427 22 is_stmt 0 discriminator 9 view .LVU2901
.LBE2196:
	.loc 1 2427 124 is_stmt 1 discriminator 9 view .LVU2902
	.loc 1 2430 5 discriminator 9 view .LVU2903
	b	.L315
.LVL674:
.L376:
.LBB2197:
.LBB2189:
.LBB2182:
.LBB2176:
	.loc 1 2427 14 is_stmt 0 view .LVU2904
	mvn	r1, #-2147483648
	b	.L335
.LVL675:
.L377:
	.loc 1 2427 4 view .LVU2905
	mvn	r3, #27
	b	.L340
.LVL676:
.L328:
	.loc 1 2427 4 view .LVU2906
.LBE2176:
.LBE2182:
.LBE2189:
.LBE2197:
	.loc 1 2437 4 is_stmt 1 view .LVU2907
	.loc 1 2437 18 is_stmt 0 view .LVU2908
	ldrb	r3, [r6, #1]	@ zero_extendqisi2
	.loc 1 2437 7 view .LVU2909
	cmp	r3, #4
	bne	.L397
	.loc 1 2443 4 is_stmt 1 view .LVU2910
.LVL677:
.LBB2198:
.LBI2198:
	.loc 1 2209 19 view .LVU2911
.LBB2199:
	.loc 1 2211 2 view .LVU2912
	.loc 1 2211 58 view .LVU2913
	.loc 1 2211 85 is_stmt 0 view .LVU2914
	add	r3, r7, #48
	str	r3, [r7, #24]
	movs	r3, #30
	str	r3, [r7, #28]
	.loc 1 2213 2 is_stmt 1 view .LVU2915
	.loc 1 2214 2 view .LVU2916
	.loc 1 2216 2 view .LVU2917
	.loc 1 2217 5 is_stmt 0 view .LVU2918
	add	r1, r7, #24
	mov	r0, r4
	bl	net_pkt_get_data
.LVL678:
	.loc 1 2218 2 is_stmt 1 view .LVU2919
	.loc 1 2218 5 is_stmt 0 view .LVU2920
	mov	r6, r0
.LVL679:
	.loc 1 2218 5 view .LVU2921
	cmp	r0, #0
	beq	.L378
	.loc 1 2222 2 is_stmt 1 view .LVU2922
.LVL680:
.LBB2200:
.LBI2200:
	.loc 10 2173 19 view .LVU2923
.LBB2201:
	.loc 10 2176 2 view .LVU2924
	.loc 10 2176 9 is_stmt 0 view .LVU2925
	ldr	r1, [r7, #28]
	mov	r0, r4
.LVL681:
	.loc 10 2176 9 view .LVU2926
	bl	net_pkt_skip
.LVL682:
	.loc 10 2176 9 view .LVU2927
.LBE2201:
.LBE2200:
	.loc 1 2224 2 is_stmt 1 view .LVU2928
	.loc 1 2224 43 is_stmt 0 view .LVU2929
	ldr	r3, [r6, #2]	@ unaligned
	.loc 1 2224 107 view .LVU2930
	lsrs	r5, r3, #8
	.loc 1 2224 113 view .LVU2931
	and	r5, r5, #65280
	.loc 1 2224 76 view .LVU2932
	orr	r5, r5, r3, lsr #24
	.loc 1 2224 164 view .LVU2933
	lsls	r2, r3, #8
	and	r2, r2, #16711680
	.loc 1 2224 123 view .LVU2934
	orrs	r5, r5, r2
	.loc 1 2224 17 view .LVU2935
	orr	r5, r5, r3, lsl #24
.LVL683:
	.loc 1 2225 2 is_stmt 1 view .LVU2936
	.loc 1 2225 47 is_stmt 0 view .LVU2937
	ldr	r2, [r6, #6]	@ unaligned
	.loc 1 2225 119 view .LVU2938
	lsrs	r3, r2, #8
	.loc 1 2225 125 view .LVU2939
	and	r3, r3, #65280
	.loc 1 2225 84 view .LVU2940
	orr	r3, r3, r2, lsr #24
	.loc 1 2225 180 view .LVU2941
	lsls	r1, r2, #8
	and	r1, r1, #16711680
	.loc 1 2225 135 view .LVU2942
	orrs	r3, r3, r1
	.loc 1 2225 21 view .LVU2943
	orr	r3, r3, r2, lsl #24
.LVL684:
	.loc 1 2227 2 is_stmt 1 view .LVU2944
	.loc 1 2227 5 is_stmt 0 view .LVU2945
	cmp	r5, r3
	bcc	.L379
.LVL685:
.LBB2202:
.LBI2202:
	.loc 3 831 19 is_stmt 1 view .LVU2946
.LBE2202:
.LBE2199:
.LBE2198:
	.loc 3 833 2 view .LVU2947
.LBB2304:
.LBB2295:
.LBB2204:
.LBB2203:
	.loc 3 833 26 view .LVU2948
	.loc 3 833 153 view .LVU2949
	.loc 3 833 156 is_stmt 0 view .LVU2950
	ldrh	r2, [r6, #14]	@ unaligned
.LVL686:
	.loc 3 833 156 view .LVU2951
.LBE2203:
.LBE2204:
	.loc 1 2227 43 view .LVU2952
	movw	r3, #33022
.LVL687:
	.loc 1 2227 43 view .LVU2953
	cmp	r2, r3
	beq	.L380
	.loc 1 2229 3 is_stmt 1 view .LVU2954
	.loc 1 2229 7 is_stmt 0 view .LVU2955
	ldrsb	r3, [r6, #1]
	.loc 1 2229 6 view .LVU2956
	cmp	r3, #0
	blt	.L398
.LVL688:
.L344:
	.loc 1 2233 3 is_stmt 1 view .LVU2957
	.loc 1 2233 16 is_stmt 0 view .LVU2958
	ldrb	r3, [r6, #1]	@ zero_extendqisi2
	.loc 1 2233 6 view .LVU2959
	tst	r3, #64
	beq	.L381
	.loc 1 2233 32 view .LVU2960
	cmp	r5, #0
	beq	.L382
	.loc 1 2235 16 view .LVU2961
	ldrb	r3, [r6]	@ zero_extendqisi2
	.loc 1 2234 22 view .LVU2962
	cmp	r3, #64
	beq	.L399
	.loc 1 2240 8 view .LVU2963
	movs	r3, #1
	b	.L343
.L411:
	.align	2
.L410:
	.word	net_stats
	.word	3600000
	.word	.LC12
	.word	log_const_net_ipv6
	.word	.LC13
.LVL689:
.L397:
	.loc 1 2240 8 view .LVU2964
.LBE2295:
.LBE2304:
	.loc 1 2438 5 is_stmt 1 view .LVU2965
.LBB2305:
	.loc 1 2438 10 view .LVU2966
	.loc 1 2438 59 view .LVU2967
	.loc 1 2438 16 view .LVU2968
	.loc 1 2438 4 view .LVU2969
.LBE2305:
	.loc 16 120 2 view .LVU2970
.LBB2308:
	.loc 1 2438 43 view .LVU2971
	.loc 1 2438 109 view .LVU2972
	.loc 1 2438 208 view .LVU2973
.LBB2306:
	.loc 1 2438 217 view .LVU2974
	.loc 1 2438 228 view .LVU2975
	.loc 1 2438 316 view .LVU2976
	.loc 1 2438 321 view .LVU2977
	.loc 1 2438 323 view .LVU2978
.LBE2306:
.LBE2308:
	.loc 1 2438 5 view .LVU2979
	.loc 1 2438 5 view .LVU2980
.LBB2309:
.LBB2307:
	.loc 1 2438 16 view .LVU2981
	.loc 1 2438 18 view .LVU2982
	str	r3, [sp, #12]
	ldr	r3, .L412
	str	r3, [sp, #8]
	ldr	r3, .L412+4
	str	r3, [sp, #4]
	movs	r0, #0
	str	r0, [sp]
	mov	r3, r0
	movs	r2, #1
	ldr	r1, .L412+8
	bl	z_log_msg2_runtime_create
.LVL690:
	.loc 1 2438 73 view .LVU2983
	.loc 1 2438 60 view .LVU2984
.LBE2307:
	.loc 1 2438 15 view .LVU2985
	.loc 1 2438 22 view .LVU2986
	.loc 1 2438 22 is_stmt 0 view .LVU2987
.LBE2309:
	.loc 1 2438 107 is_stmt 1 view .LVU2988
	.loc 1 2440 5 view .LVU2989
	b	.L315
.LVL691:
.L398:
.LBB2310:
.LBB2296:
	.loc 1 2230 4 view .LVU2990
.LBB2205:
.LBI2205:
	.loc 1 2071 20 view .LVU2991
.LBB2206:
	.loc 1 2074 2 view .LVU2992
	.loc 1 2076 2 view .LVU2993
.LBB2207:
.LBI2207:
	.loc 10 293 30 view .LVU2994
.LBB2208:
	.loc 10 295 2 view .LVU2995
	.loc 10 295 2 is_stmt 0 view .LVU2996
.LBE2208:
.LBE2207:
	.loc 1 2077 28 view .LVU2997
	mov	r8, r6
	.loc 1 2076 11 view .LVU2998
	ldrb	r2, [r8], #14	@ zero_extendqisi2
	mov	r1, r8
.LVL692:
	.loc 1 2076 11 view .LVU2999
	ldr	r0, [r4, #24]
	bl	net_if_ipv6_prefix_lookup
.LVL693:
	.loc 1 2079 2 is_stmt 1 view .LVU3000
	.loc 1 2079 5 is_stmt 0 view .LVU3001
	mov	r3, r0
	cbz	r0, .L400
.L345:
	.loc 1 2109 2 is_stmt 1 view .LVU3002
	.loc 1 2109 21 is_stmt 0 view .LVU3003
	ldr	r2, [r6, #2]	@ unaligned
	.loc 1 2109 2 view .LVU3004
	cmp	r2, #0
	beq	.L347
	.loc 1 2109 2 view .LVU3005
	cmp	r2, #-1
	beq	.L348
	.loc 1 2133 3 is_stmt 1 view .LVU3006
.LBB2209:
	.loc 1 2133 8 view .LVU3007
.LBE2209:
	.loc 1 2133 319 view .LVU3008
	.loc 1 2139 3 view .LVU3009
.LVL694:
.LBB2210:
.LBI2210:
	.loc 12 1186 20 view .LVU3010
.LBB2211:
	.loc 12 1189 2 view .LVU3011
	.loc 12 1189 22 is_stmt 0 view .LVU3012
	ldrb	r2, [r3, #37]	@ zero_extendqisi2
	bfc	r2, #0, #1
	strb	r2, [r3, #37]
.LVL695:
	.loc 12 1189 22 view .LVU3013
.LBE2211:
.LBE2210:
	.loc 1 2140 3 is_stmt 1 view .LVU3014
	ldr	r1, [r6, #2]	@ unaligned
	mov	r0, r3
	.loc 1 2140 3 is_stmt 0 view .LVU3015
	bl	net_if_ipv6_prefix_set_timer
.LVL696:
	.loc 1 2142 3 is_stmt 1 view .LVU3016
	b	.L344
.LVL697:
.L400:
	.loc 1 2080 3 view .LVU3017
	.loc 1 2080 19 is_stmt 0 view .LVU3018
	ldr	r3, [r6, #2]	@ unaligned
	.loc 1 2080 6 view .LVU3019
	cmp	r3, #0
	beq	.L344
	.loc 1 2084 3 is_stmt 1 view .LVU3020
.LVL698:
.LBB2212:
.LBI2212:
	.loc 10 293 30 view .LVU3021
.LBB2213:
	.loc 10 295 2 view .LVU3022
	.loc 10 295 2 is_stmt 0 view .LVU3023
.LBE2213:
.LBE2212:
	.loc 1 2084 12 view .LVU3024
	ldrb	r2, [r6]	@ zero_extendqisi2
	mov	r1, r8
	ldr	r0, [r4, #24]
.LVL699:
	.loc 1 2084 12 view .LVU3025
	bl	net_if_ipv6_prefix_add
.LVL700:
	.loc 1 2088 3 is_stmt 1 view .LVU3026
	.loc 1 2088 6 is_stmt 0 view .LVU3027
	mov	r3, r0
	cmp	r0, #0
	bne	.L345
	.loc 1 2097 4 is_stmt 1 view .LVU3028
.LBB2214:
	.loc 1 2097 9 view .LVU3029
	.loc 1 2097 58 view .LVU3030
	.loc 1 2097 15 view .LVU3031
	.loc 1 2097 3 view .LVU3032
.LBE2214:
.LBE2206:
.LBE2205:
.LBE2296:
.LBE2310:
	.loc 16 120 2 view .LVU3033
.LVL701:
.LBB2311:
.LBB2297:
.LBB2235:
.LBB2231:
.LBB2221:
	.loc 1 2097 42 view .LVU3034
	.loc 1 2097 108 view .LVU3035
	.loc 1 2097 207 view .LVU3036
.LBB2215:
	.loc 1 2097 216 view .LVU3037
	.loc 1 2097 227 view .LVU3038
	.loc 1 2097 315 view .LVU3039
	.loc 1 2097 320 view .LVU3040
	.loc 1 2097 322 view .LVU3041
.LBE2215:
.LBE2221:
.LBE2231:
.LBE2235:
.LBE2297:
.LBE2311:
	.loc 1 2097 4 view .LVU3042
	.loc 1 2097 4 view .LVU3043
.LBB2312:
.LBB2298:
.LBB2236:
.LBB2232:
.LBB2222:
.LBB2218:
	.loc 1 2097 15 view .LVU3044
	.loc 1 2097 17 view .LVU3045
	.loc 1 2097 72 is_stmt 0 view .LVU3046
	mov	r1, r8
	movs	r0, #2
.LVL702:
	.loc 1 2097 72 view .LVU3047
	bl	net_sprint_addr
.LVL703:
	.loc 1 2097 72 view .LVU3048
	str	r0, [r7]
.LVL704:
	.loc 1 2097 72 view .LVU3049
.LBE2218:
.LBE2222:
.LBE2232:
.LBE2236:
.LBE2298:
.LBE2312:
	.loc 18 290 2 is_stmt 1 view .LVU3050
	.loc 18 291 3 view .LVU3051
.LBB2313:
.LBB2299:
.LBB2237:
.LBB2233:
.LBB2223:
.LBB2219:
	.loc 1 2097 126 is_stmt 0 view .LVU3052
	ldrb	r8, [r6]	@ zero_extendqisi2
.LVL705:
.LBB2216:
.LBI2216:
	.loc 10 293 30 is_stmt 1 view .LVU3053
.LBB2217:
	.loc 10 295 2 view .LVU3054
	.loc 10 295 12 is_stmt 0 view .LVU3055
	ldr	r9, [r4, #24]
.LVL706:
	.loc 10 295 12 view .LVU3056
.LBE2217:
.LBE2216:
.LBE2219:
.LBE2223:
.LBE2233:
.LBE2237:
.LBE2299:
.LBE2313:
	.loc 10 295 2 is_stmt 1 view .LVU3057
.LBB2314:
.LBB2300:
.LBB2238:
.LBB2234:
.LBB2224:
.LBB2220:
	.loc 1 2097 17 is_stmt 0 view .LVU3058
	mov	r0, r9
	bl	net_if_get_by_iface
.LVL707:
	str	r0, [sp, #20]
	str	r9, [sp, #16]
	str	r8, [sp, #12]
	ldr	r3, [r7]
	str	r3, [sp, #8]
	ldr	r3, .L412+12
	str	r3, [sp, #4]
	movs	r0, #0
	str	r0, [sp]
	mov	r3, r0
	movs	r2, #1
	ldr	r1, .L412+8
	bl	z_log_msg2_runtime_create
.LVL708:
	.loc 1 2097 202 is_stmt 1 view .LVU3059
	.loc 1 2097 59 view .LVU3060
.LBE2220:
	.loc 1 2097 14 view .LVU3061
	.loc 1 2097 21 view .LVU3062
	.loc 1 2097 21 is_stmt 0 view .LVU3063
.LBE2224:
	.loc 1 2097 236 is_stmt 1 view .LVU3064
	.loc 1 2105 4 view .LVU3065
	b	.L344
.LVL709:
.L347:
	.loc 1 2111 3 view .LVU3066
.LBB2225:
	.loc 1 2111 8 view .LVU3067
.LBE2225:
	.loc 1 2111 278 view .LVU3068
	.loc 1 2117 3 view .LVU3069
.LBB2226:
.LBI2226:
	.loc 10 293 30 view .LVU3070
.LBB2227:
	.loc 10 295 2 view .LVU3071
	.loc 10 295 2 is_stmt 0 view .LVU3072
.LBE2227:
.LBE2226:
	.loc 1 2117 3 view .LVU3073
	ldrb	r2, [r3, #36]	@ zero_extendqisi2
	add	r1, r3, #16
	ldr	r0, [r4, #24]
.LVL710:
	.loc 1 2117 3 view .LVU3074
	bl	net_if_ipv6_prefix_rm
.LVL711:
	.loc 1 2120 3 is_stmt 1 view .LVU3075
	b	.L344
.LVL712:
.L348:
	.loc 1 2123 3 view .LVU3076
.LBB2228:
	.loc 1 2123 8 view .LVU3077
.LBE2228:
	.loc 1 2123 263 view .LVU3078
	.loc 1 2129 3 view .LVU3079
.LBB2229:
.LBI2229:
	.loc 12 1186 20 view .LVU3080
.LBB2230:
	.loc 12 1189 2 view .LVU3081
	.loc 12 1189 22 is_stmt 0 view .LVU3082
	ldrb	r2, [r3, #37]	@ zero_extendqisi2
	orr	r2, r2, #1
	strb	r2, [r3, #37]
	.loc 12 1190 1 view .LVU3083
	b	.L344
.LVL713:
.L399:
	.loc 12 1190 1 view .LVU3084
.LBE2230:
.LBE2229:
.LBE2234:
.LBE2238:
	.loc 1 2236 4 is_stmt 1 view .LVU3085
.LBB2239:
.LBI2239:
	.loc 1 2153 20 view .LVU3086
.LBB2240:
	.loc 1 2156 2 view .LVU3087
	.loc 1 2156 18 is_stmt 0 view .LVU3088
	movs	r3, #0
	str	r3, [r7, #32]
	str	r3, [r7, #36]
	str	r3, [r7, #40]
	str	r3, [r7, #44]
	.loc 1 2157 2 is_stmt 1 view .LVU3089
	.loc 1 2163 2 view .LVU3090
.LVL714:
.LBB2241:
.LBI2241:
	.loc 10 293 30 view .LVU3091
.LBB2242:
	.loc 10 295 2 view .LVU3092
	.loc 10 295 12 is_stmt 0 view .LVU3093
	ldr	r2, [r4, #24]
.LVL715:
	.loc 10 295 12 view .LVU3094
.LBE2242:
.LBE2241:
.LBB2243:
.LBI2243:
	.loc 12 680 36 is_stmt 1 view .LVU3095
.LBB2244:
	.loc 12 682 2 view .LVU3096
	.loc 12 682 15 is_stmt 0 view .LVU3097
	ldr	r1, [r2]
	.loc 12 682 9 view .LVU3098
	add	r0, r1, #16
.LVL716:
	.loc 12 682 9 view .LVU3099
.LBE2244:
.LBE2243:
.LBB2245:
.LBI2245:
	.loc 3 1240 20 is_stmt 1 view .LVU3100
.LBB2246:
	.loc 3 1243 2 view .LVU3101
.LBB2247:
	.loc 3 1243 7 view .LVU3102
	.loc 3 1243 132 view .LVU3103
	.loc 3 1243 141 is_stmt 0 view .LVU3104
	movw	r2, #33022
	str	r2, [r7, #32]
	.loc 3 1243 289 is_stmt 1 view .LVU3105
	.loc 3 1243 294 view .LVU3106
	.loc 3 1243 342 view .LVU3107
.LBE2247:
	.loc 3 1243 12 view .LVU3108
	.loc 3 1244 2 view .LVU3109
.LBB2248:
	.loc 3 1244 7 view .LVU3110
.LVL717:
	.loc 3 1244 132 view .LVU3111
	.loc 3 1244 141 is_stmt 0 view .LVU3112
	str	r3, [r7, #36]
	.loc 3 1244 148 is_stmt 1 view .LVU3113
	.loc 3 1244 153 view .LVU3114
	.loc 3 1244 201 view .LVU3115
.LBE2248:
	.loc 3 1244 12 view .LVU3116
	.loc 3 1246 2 view .LVU3117
	.loc 3 1246 16 is_stmt 0 view .LVU3118
	ldrb	r2, [r0, #4]	@ zero_extendqisi2
	.loc 3 1246 2 view .LVU3119
	cmp	r2, #6
	beq	.L350
	cmp	r2, #8
	beq	.L351
	cmp	r2, #2
	beq	.L401
.LVL718:
.L352:
	.loc 3 1246 2 view .LVU3120
.LBE2246:
.LBE2245:
	.loc 1 2165 1 is_stmt 1 view .LVU3121
	.loc 1 2165 12 is_stmt 0 view .LVU3122
	mov	r2, r6
	.loc 1 2165 23 view .LVU3123
	add	r3, r7, #32
.LVL719:
	.loc 1 2165 23 view .LVU3124
	ldr	r0, [r2, #14]!	@ unaligned
	ldr	r1, [r2, #4]	@ unaligned
	stmia	r3!, {r0, r1}
.LVL720:
	.loc 1 2167 2 is_stmt 1 view .LVU3125
	.loc 1 2167 11 is_stmt 0 view .LVU3126
	movs	r1, #0
	add	r0, r7, #32
.LVL721:
	.loc 1 2167 11 view .LVU3127
	bl	net_if_ipv6_addr_lookup
.LVL722:
	.loc 1 2168 2 is_stmt 1 view .LVU3128
	.loc 1 2168 5 is_stmt 0 view .LVU3129
	mov	r5, r0
.LVL723:
	.loc 1 2168 5 view .LVU3130
	cbz	r0, .L354
	.loc 1 2168 22 view .LVU3131
	ldrb	r3, [r0, #44]	@ zero_extendqisi2
	.loc 1 2168 13 view .LVU3132
	cmp	r3, #1
	beq	.L402
.L354:
	.loc 1 2197 3 is_stmt 1 view .LVU3133
	.loc 1 2197 18 is_stmt 0 view .LVU3134
	ldr	r3, [r6, #2]	@ unaligned
	.loc 1 2197 6 view .LVU3135
	cmp	r3, #-1
	beq	.L403
	.loc 1 2202 4 is_stmt 1 view .LVU3136
.LVL724:
.LBB2251:
.LBI2251:
	.loc 10 293 30 view .LVU3137
.LBB2252:
	.loc 10 295 2 view .LVU3138
	.loc 10 295 2 is_stmt 0 view .LVU3139
.LBE2252:
.LBE2251:
	.loc 1 2202 4 view .LVU3140
	movs	r2, #1
	add	r1, r7, #32
.LVL725:
	.loc 1 2202 4 view .LVU3141
	ldr	r0, [r4, #24]
.LVL726:
	.loc 1 2202 4 view .LVU3142
	bl	net_if_ipv6_addr_add
.LVL727:
.L356:
	.loc 1 2202 4 view .LVU3143
.LBE2240:
.LBE2239:
	.loc 1 2240 8 view .LVU3144
	movs	r3, #1
	b	.L343
.LVL728:
.L401:
.LBB2292:
.LBB2289:
.LBB2253:
.LBB2250:
	.loc 3 1251 3 is_stmt 1 view .LVU3145
	.loc 3 1251 13 is_stmt 0 view .LVU3146
	ldrb	r3, [r0, #5]	@ zero_extendqisi2
	.loc 3 1251 6 view .LVU3147
	cmp	r3, #1
	beq	.L353
	.loc 3 1251 43 view .LVU3148
	cmp	r3, #6
	bne	.L352
.L353:
	.loc 3 1253 4 is_stmt 1 view .LVU3149
.LBB2249:
	.loc 3 1253 9 view .LVU3150
.LVL729:
	.loc 3 1253 134 view .LVU3151
	.loc 3 1253 143 is_stmt 0 view .LVU3152
	movs	r3, #0
	str	r3, [r7, #40]
	.loc 3 1253 150 is_stmt 1 view .LVU3153
	.loc 3 1253 155 view .LVU3154
	.loc 3 1253 203 view .LVU3155
.LBE2249:
	.loc 3 1253 14 view .LVU3156
	.loc 3 1254 4 view .LVU3157
	.loc 3 1254 22 is_stmt 0 view .LVU3158
	movs	r2, #255
	strb	r2, [r7, #43]
	.loc 3 1255 4 is_stmt 1 view .LVU3159
	.loc 3 1255 22 is_stmt 0 view .LVU3160
	movs	r2, #254
	strb	r2, [r7, #44]
	.loc 3 1256 4 is_stmt 1 view .LVU3161
	.loc 3 1256 22 is_stmt 0 view .LVU3162
	strb	r3, [r7, #45]
	.loc 3 1257 4 is_stmt 1 view .LVU3163
	.loc 3 1257 30 is_stmt 0 view .LVU3164
	ldr	r3, [r1, #16]
	.loc 3 1257 36 view .LVU3165
	ldrb	r3, [r3]	@ zero_extendqisi2
	.loc 3 1257 22 view .LVU3166
	strb	r3, [r7, #46]
	.loc 3 1258 4 is_stmt 1 view .LVU3167
	.loc 3 1258 30 is_stmt 0 view .LVU3168
	ldr	r3, [r1, #16]
	.loc 3 1258 22 view .LVU3169
	ldrb	r3, [r3, #1]	@ zero_extendqisi2
	strb	r3, [r7, #47]
	b	.L352
.LVL730:
.L350:
	.loc 3 1266 2 is_stmt 1 view .LVU3170
	.loc 3 1266 8 is_stmt 0 view .LVU3171
	ldr	r3, [r1, #16]
	.loc 3 1266 24 view .LVU3172
	ldrh	r2, [r3]	@ unaligned
	ldrb	r3, [r3, #2]	@ zero_extendqisi2
	strh	r2, [r7, #40]	@ unaligned
	strb	r3, [r7, #42]
	.loc 3 1267 3 is_stmt 1 view .LVU3173
	.loc 3 1267 21 is_stmt 0 view .LVU3174
	movs	r3, #255
	strb	r3, [r7, #43]
	.loc 3 1268 3 is_stmt 1 view .LVU3175
	.loc 3 1268 21 is_stmt 0 view .LVU3176
	movs	r3, #254
	strb	r3, [r7, #44]
	.loc 3 1269 2 is_stmt 1 view .LVU3177
	.loc 3 1269 15 is_stmt 0 view .LVU3178
	ldr	r3, [r1, #16]
	.loc 3 1269 24 view .LVU3179
	ldrh	r2, [r3, #3]!	@ unaligned
	ldrb	r3, [r3, #2]	@ zero_extendqisi2
	strh	r2, [r7, #45]	@ unaligned
	strb	r3, [r7, #47]
	.loc 3 1280 3 is_stmt 1 view .LVU3180
	.loc 3 1280 13 is_stmt 0 view .LVU3181
	ldrb	r3, [r0, #5]	@ zero_extendqisi2
	.loc 3 1280 6 view .LVU3182
	cmp	r3, #3
	bne	.L352
	.loc 3 1281 4 is_stmt 1 view .LVU3183
	.loc 3 1281 21 is_stmt 0 view .LVU3184
	ldrb	r3, [r7, #40]	@ zero_extendqisi2
	eor	r3, r3, #2
	strb	r3, [r7, #40]
	b	.L352
.L351:
	.loc 3 1286 2 is_stmt 1 view .LVU3185
	.loc 3 1286 24 is_stmt 0 view .LVU3186
	movs	r3, #8
	ldr	r1, [r1, #16]
	add	r0, r7, #40
.LVL731:
	.loc 3 1286 24 view .LVU3187
	bl	__memcpy_chk
.LVL732:
	.loc 3 1287 3 is_stmt 1 view .LVU3188
	.loc 3 1287 20 is_stmt 0 view .LVU3189
	ldrb	r3, [r7, #40]	@ zero_extendqisi2
	eor	r3, r3, #2
	strb	r3, [r7, #40]
	.loc 3 1288 3 is_stmt 1 view .LVU3190
	b	.L352
.LVL733:
.L402:
	.loc 3 1288 3 is_stmt 0 view .LVU3191
.LBE2250:
.LBE2253:
	.loc 1 2169 3 is_stmt 1 view .LVU3192
	.loc 1 2169 18 is_stmt 0 view .LVU3193
	ldr	r9, [r6, #2]	@ unaligned
	.loc 1 2169 6 view .LVU3194
	cmp	r9, #-1
	beq	.L404
	.loc 1 2176 3 is_stmt 1 view .LVU3195
	.loc 1 2176 6 is_stmt 0 view .LVU3196
	cmp	r9, #7200
	bhi	.L357
.LVL734:
.LBB2254:
.LBI2254:
	.loc 1 2148 24 is_stmt 1 view .LVU3197
.LBB2255:
	.loc 1 2150 2 view .LVU3198
	.loc 1 2150 31 is_stmt 0 view .LVU3199
	add	r8, r0, #20
.LBB2256:
.LBI2256:
	.loc 8 1563 24 is_stmt 1 view .LVU3200
.LBB2257:
	.loc 8 1565 2 view .LVU3201
.LBB2258:
.LBI2258:
	.loc 8 1539 23 view .LVU3202
.LBB2259:
	.loc 8 1541 2 view .LVU3203
.LBB2260:
.LBI2260:
	.loc 4 562 23 view .LVU3204
.LBB2261:
	.loc 4 572 2 view .LVU3205
	.loc 4 572 7 view .LVU3206
	.loc 4 572 55 view .LVU3207
	.loc 4 573 2 view .LVU3208
	.loc 4 573 9 is_stmt 0 view .LVU3209
	bl	z_impl_k_uptime_ticks
.LVL735:
	.loc 4 573 9 view .LVU3210
.LBE2261:
.LBE2260:
.LBB2262:
.LBI2262:
	.loc 9 1102 24 is_stmt 1 view .LVU3211
.LBE2262:
.LBE2259:
.LBE2258:
.LBE2257:
.LBE2256:
.LBE2255:
.LBE2254:
.LBE2289:
.LBE2292:
.LBE2300:
.LBE2314:
	.loc 9 1105 2 view .LVU3212
.LBB2315:
.LBB2301:
.LBB2293:
.LBB2290:
.LBB2279:
.LBB2277:
.LBB2275:
.LBB2273:
.LBB2271:
.LBB2269:
.LBB2267:
.LBB2263:
.LBI2263:
	.loc 9 101 55 view .LVU3213
.LBB2264:
	.loc 9 106 1 view .LVU3214
	.loc 9 108 1 view .LVU3215
	.loc 9 111 2 view .LVU3216
	.loc 9 115 2 view .LVU3217
	.loc 9 117 2 view .LVU3218
.LBE2264:
.LBE2263:
.LBE2267:
.LBE2269:
.LBE2271:
.LBE2273:
.LBE2275:
.LBE2277:
.LBE2279:
.LBE2290:
.LBE2293:
.LBE2301:
.LBE2315:
	.loc 9 118 3 view .LVU3219
	.loc 9 120 3 view .LVU3220
	.loc 9 123 3 view .LVU3221
.LBB2316:
.LBB2302:
.LBB2294:
.LBB2291:
.LBB2280:
.LBB2278:
.LBB2276:
.LBB2274:
.LBB2272:
.LBB2270:
.LBB2268:
.LBB2266:
.LBB2265:
	.loc 9 133 2 view .LVU3222
	.loc 9 134 3 view .LVU3223
	.loc 9 135 3 view .LVU3224
	.loc 9 138 4 view .LVU3225
	.loc 9 138 13 is_stmt 0 view .LVU3226
	movs	r2, #10
	movs	r3, #0
	bl	__aeabi_uldivmod
.LVL736:
	.loc 9 138 13 view .LVU3227
	mov	r1, r0
.LVL737:
	.loc 9 138 13 view .LVU3228
.LBE2265:
.LBE2266:
.LBE2268:
.LBE2270:
.LBE2272:
.LBE2274:
.LBE2276:
	.loc 1 2150 9 view .LVU3229
	mov	r0, r8
	bl	net_timeout_remaining
.LVL738:
	.loc 1 2150 9 view .LVU3230
.LBE2278:
.LBE2280:
	.loc 1 2176 53 view .LVU3231
	cmp	r9, r0
	bls	.L358
.LVL739:
.L357:
	.loc 1 2179 4 is_stmt 1 view .LVU3232
.LBB2281:
	.loc 1 2179 9 view .LVU3233
.LBE2281:
	.loc 1 2179 226 view .LVU3234
	.loc 1 2184 4 view .LVU3235
	ldr	r1, [r6, #2]	@ unaligned
	mov	r0, r5
	bl	net_if_ipv6_addr_update_lifetime
.LVL740:
.L359:
	.loc 1 2195 3 view .LVU3236
.LBB2282:
.LBI2282:
	.loc 12 817 20 view .LVU3237
.LBB2283:
	.loc 12 820 2 view .LVU3238
	.loc 12 820 22 is_stmt 0 view .LVU3239
	ldrb	r3, [r5, #47]	@ zero_extendqisi2
	bfc	r3, #0, #1
	strb	r3, [r5, #47]
	.loc 12 821 1 view .LVU3240
	b	.L356
.LVL741:
.L404:
	.loc 12 821 1 view .LVU3241
.LBE2283:
.LBE2282:
	.loc 1 2171 4 is_stmt 1 view .LVU3242
.LBB2284:
.LBI2284:
	.loc 12 817 20 view .LVU3243
.LBB2285:
	.loc 12 820 2 view .LVU3244
	.loc 12 820 22 is_stmt 0 view .LVU3245
	ldrb	r3, [r0, #47]	@ zero_extendqisi2
	orr	r3, r3, #1
	strb	r3, [r0, #47]
.LVL742:
	.loc 12 820 22 view .LVU3246
.LBE2285:
.LBE2284:
	.loc 1 2172 4 is_stmt 1 view .LVU3247
	b	.L356
.LVL743:
.L358:
	.loc 1 2187 4 view .LVU3248
.LBB2286:
	.loc 1 2187 9 view .LVU3249
.LBE2286:
	.loc 1 2187 207 view .LVU3250
	.loc 1 2192 4 view .LVU3251
	mov	r1, #7200
	mov	r0, r5
	bl	net_if_ipv6_addr_update_lifetime
.LVL744:
	b	.L359
.LVL745:
.L403:
	.loc 1 2199 4 view .LVU3252
.LBB2287:
.LBI2287:
	.loc 10 293 30 view .LVU3253
.LBB2288:
	.loc 10 295 2 view .LVU3254
	.loc 10 295 2 is_stmt 0 view .LVU3255
.LBE2288:
.LBE2287:
	.loc 1 2199 4 view .LVU3256
	movs	r3, #0
	movs	r2, #1
	add	r1, r7, #32
.LVL746:
	.loc 1 2199 4 view .LVU3257
	ldr	r0, [r4, #24]
.LVL747:
	.loc 1 2199 4 view .LVU3258
	bl	net_if_ipv6_addr_add
.LVL748:
	.loc 1 2199 4 view .LVU3259
	b	.L356
.LVL749:
.L378:
	.loc 1 2199 4 view .LVU3260
.LBE2291:
.LBE2294:
	.loc 1 2219 9 view .LVU3261
	movs	r3, #0
	b	.L343
.LVL750:
.L379:
	.loc 1 2240 8 view .LVU3262
	movs	r3, #1
.LVL751:
.L343:
	.loc 1 2240 8 view .LVU3263
.LBE2302:
.LBE2316:
	.loc 1 2443 7 view .LVU3264
	cmp	r3, #0
	bne	.L331
	b	.L315
.LVL752:
.L380:
.LBB2317:
.LBB2303:
	.loc 1 2240 8 view .LVU3265
	movs	r3, #1
	b	.L343
.LVL753:
.L381:
	.loc 1 2240 8 view .LVU3266
	movs	r3, #1
	b	.L343
.L382:
	movs	r3, #1
	b	.L343
.LVL754:
.L325:
	.loc 1 2240 8 view .LVU3267
.LBE2303:
.LBE2317:
	.loc 1 2464 4 is_stmt 1 view .LVU3268
	.loc 1 2470 4 view .LVU3269
	.loc 1 2470 18 is_stmt 0 view .LVU3270
	ldrb	r6, [r6, #1]	@ zero_extendqisi2
.LVL755:
	.loc 1 2470 30 view .LVU3271
	subs	r3, r6, #1
	uxtb	r3, r3
	.loc 1 2470 7 view .LVU3272
	cmp	r3, #2
	bhi	.L405
	.loc 1 2476 4 is_stmt 1 view .LVU3273
.LVL756:
.LBB2318:
.LBI2318:
	.loc 1 2284 19 view .LVU3274
.LBB2319:
	.loc 1 2286 2 view .LVU3275
	.loc 1 2286 61 view .LVU3276
	.loc 1 2286 88 is_stmt 0 view .LVU3277
	add	r3, r7, #24
	str	r3, [r7, #32]
	movs	r3, #6
	str	r3, [r7, #36]
	.loc 1 2288 2 is_stmt 1 view .LVU3278
	.loc 1 2289 2 view .LVU3279
	.loc 1 2290 2 view .LVU3280
	.loc 1 2290 18 is_stmt 0 view .LVU3281
	movs	r3, #0
	str	r3, [r7, #48]
	str	r3, [r7, #52]
	str	r3, [r7, #56]
	str	r3, [r7, #60]
	.loc 1 2291 2 is_stmt 1 view .LVU3282
	.loc 1 2291 10 is_stmt 0 view .LVU3283
	subs	r5, r6, #1
	lsls	r5, r5, #3
	uxtb	r5, r5
.LVL757:
	.loc 1 2292 2 is_stmt 1 view .LVU3284
	.loc 1 2293 2 view .LVU3285
	.loc 1 2294 2 view .LVU3286
	.loc 1 2295 2 view .LVU3287
	.loc 1 2297 2 view .LVU3288
	.loc 1 2298 5 is_stmt 0 view .LVU3289
	add	r1, r7, #32
	mov	r0, r4
	bl	net_pkt_get_data
.LVL758:
	.loc 1 2299 2 is_stmt 1 view .LVU3290
	.loc 1 2299 5 is_stmt 0 view .LVU3291
	mov	r8, r0
	cmp	r0, #0
	beq	.L384
	.loc 1 2303 2 is_stmt 1 view .LVU3292
.LVL759:
.LBB2320:
.LBI2320:
	.loc 10 2173 19 view .LVU3293
.LBB2321:
	.loc 10 2176 2 view .LVU3294
	.loc 10 2176 9 is_stmt 0 view .LVU3295
	ldr	r1, [r7, #36]
	mov	r0, r4
.LVL760:
	.loc 10 2176 9 view .LVU3296
	bl	net_pkt_skip
.LVL761:
	.loc 10 2176 9 view .LVU3297
.LBE2321:
.LBE2320:
	.loc 1 2304 2 is_stmt 1 view .LVU3298
	.loc 1 2304 5 is_stmt 0 view .LVU3299
	cmp	r0, #0
	blt	.L385
	.loc 1 2308 2 is_stmt 1 view .LVU3300
	.loc 1 2308 13 is_stmt 0 view .LVU3301
	ldrb	r9, [r8]	@ zero_extendqisi2
.LVL762:
	.loc 1 2309 2 is_stmt 1 view .LVU3302
	.loc 1 2309 45 is_stmt 0 view .LVU3303
	ldr	r3, [r8, #2]	@ unaligned
	.loc 1 2309 111 view .LVU3304
	lsrs	r6, r3, #8
.LVL763:
	.loc 1 2309 117 view .LVU3305
	and	r6, r6, #65280
	.loc 1 2309 78 view .LVU3306
	orr	r6, r6, r3, lsr #24
	.loc 1 2309 170 view .LVU3307
	lsls	r2, r3, #8
	and	r2, r2, #16711680
	.loc 1 2309 127 view .LVU3308
	orrs	r6, r6, r2
	.loc 1 2309 17 view .LVU3309
	orr	r6, r6, r3, lsl #24
.LVL764:
	.loc 1 2310 2 is_stmt 1 view .LVU3310
	.loc 1 2310 32 is_stmt 0 view .LVU3311
	ldrb	r8, [r8, #1]	@ zero_extendqisi2
.LVL765:
	.loc 1 2310 32 view .LVU3312
	ubfx	r8, r8, #3, #2
.LVL766:
	.loc 1 2312 2 is_stmt 1 view .LVU3313
	.loc 1 2312 8 is_stmt 0 view .LVU3314
	mov	r2, r5
	add	r1, r7, #48
	mov	r0, r4
.LVL767:
	.loc 1 2312 8 view .LVU3315
	bl	net_pkt_read
.LVL768:
	.loc 1 2313 2 is_stmt 1 view .LVU3316
	.loc 1 2313 5 is_stmt 0 view .LVU3317
	cmp	r0, #0
	.loc 1 2313 5 view .LVU3318
	blt	.L406
	.loc 1 2318 2 is_stmt 1 view .LVU3319
	.loc 1 2318 5 is_stmt 0 view .LVU3320
	cmp	r6, #0
	bne	.L365
	.loc 1 2319 3 is_stmt 1 view .LVU3321
.LVL769:
.LBB2322:
.LBI2322:
	.loc 10 312 30 view .LVU3322
.LBB2323:
	.loc 10 317 2 view .LVU3323
	.loc 10 317 2 is_stmt 0 view .LVU3324
.LBE2323:
.LBE2322:
	.loc 1 2319 11 view .LVU3325
	add	r1, r7, #48
	ldr	r0, [r4, #24]
.LVL770:
	.loc 1 2319 11 view .LVU3326
	bl	net_route_lookup
.LVL771:
	.loc 1 2320 3 is_stmt 1 view .LVU3327
	.loc 1 2320 6 is_stmt 0 view .LVU3328
	cmp	r0, #0
	beq	.L386
	.loc 1 2321 4 is_stmt 1 view .LVU3329
	.loc 1 2321 10 is_stmt 0 view .LVU3330
	bl	net_route_del
.LVL772:
	.loc 1 2322 4 is_stmt 1 view .LVU3331
	.loc 1 2338 8 is_stmt 0 view .LVU3332
	movs	r5, #1
.LVL773:
	.loc 1 2338 8 view .LVU3333
	b	.L363
.LVL774:
.L405:
	.loc 1 2338 8 view .LVU3334
.LBE2319:
.LBE2318:
	.loc 1 2471 5 is_stmt 1 view .LVU3335
.LBB2358:
	.loc 1 2471 10 view .LVU3336
	.loc 1 2471 59 view .LVU3337
	.loc 1 2471 16 view .LVU3338
	.loc 1 2471 4 view .LVU3339
.LBE2358:
	.loc 16 120 2 view .LVU3340
.LBB2361:
	.loc 1 2471 43 view .LVU3341
	.loc 1 2471 109 view .LVU3342
	.loc 1 2471 208 view .LVU3343
.LBB2359:
	.loc 1 2471 217 view .LVU3344
	.loc 1 2471 228 view .LVU3345
	.loc 1 2471 316 view .LVU3346
	.loc 1 2471 321 view .LVU3347
	.loc 1 2471 323 view .LVU3348
.LBE2359:
.LBE2361:
	.loc 1 2471 5 view .LVU3349
	.loc 1 2471 5 view .LVU3350
.LBB2362:
.LBB2360:
	.loc 1 2471 16 view .LVU3351
	.loc 1 2471 18 view .LVU3352
	str	r6, [sp, #12]
	ldr	r3, .L412+16
	str	r3, [sp, #8]
	ldr	r3, .L412+4
	str	r3, [sp, #4]
	movs	r0, #0
	str	r0, [sp]
	mov	r3, r0
	movs	r2, #1
	ldr	r1, .L412+8
	bl	z_log_msg2_runtime_create
.LVL775:
	.loc 1 2471 77 view .LVU3353
	.loc 1 2471 60 view .LVU3354
.LBE2360:
	.loc 1 2471 15 view .LVU3355
	.loc 1 2471 22 view .LVU3356
	.loc 1 2471 22 is_stmt 0 view .LVU3357
.LBE2362:
	.loc 1 2471 111 is_stmt 1 view .LVU3358
	.loc 1 2473 5 view .LVU3359
	b	.L315
.L413:
	.align	2
.L412:
	.word	.LC14
	.word	.LC15
	.word	log_const_net_ipv6
	.word	.LC16
	.word	.LC17
.LVL776:
.L406:
.LBB2363:
.LBB2351:
	.loc 1 2314 3 view .LVU3360
.LBB2324:
	.loc 1 2314 8 view .LVU3361
	.loc 1 2314 57 view .LVU3362
	.loc 1 2314 14 view .LVU3363
	.loc 1 2314 2 view .LVU3364
.LBE2324:
.LBE2351:
.LBE2363:
	.loc 16 120 2 view .LVU3365
.LBB2364:
.LBB2352:
.LBB2342:
	.loc 1 2314 41 view .LVU3366
	.loc 1 2314 107 view .LVU3367
	.loc 1 2314 206 view .LVU3368
.LBB2325:
	.loc 1 2314 215 view .LVU3369
	.loc 1 2314 226 view .LVU3370
	.loc 1 2314 314 view .LVU3371
	.loc 1 2314 319 view .LVU3372
	.loc 1 2314 321 view .LVU3373
.LBE2325:
.LBE2342:
.LBE2352:
.LBE2364:
	.loc 1 2314 3 view .LVU3374
	.loc 1 2314 3 view .LVU3375
.LBB2365:
.LBB2353:
.LBB2343:
.LBB2338:
	.loc 1 2314 83 view .LVU3376
.LBB2326:
	.loc 1 2314 88 view .LVU3377
	.loc 1 2314 99 view .LVU3378
.LBE2326:
.LBE2338:
.LBE2343:
.LBE2353:
.LBE2365:
	.loc 1 2314 3 view .LVU3379
	.loc 1 2314 217 view .LVU3380
	.loc 1 2314 2 view .LVU3381
	.loc 1 2314 31 view .LVU3382
	.loc 1 2314 4 view .LVU3383
	.loc 1 2314 24 view .LVU3384
	.loc 1 2314 48 view .LVU3385
	.loc 1 2314 23 view .LVU3386
	.loc 1 2314 41 view .LVU3387
	.loc 1 2314 61 view .LVU3388
	.loc 1 2314 108 view .LVU3389
	.loc 1 2314 140 view .LVU3390
	.loc 1 2314 13 view .LVU3391
	.loc 1 2314 55 view .LVU3392
	.loc 1 2314 97 view .LVU3393
	.loc 1 2314 142 view .LVU3394
	.loc 1 2314 147 view .LVU3395
	.loc 1 2314 395 view .LVU3396
	.loc 1 2314 401 view .LVU3397
	.loc 1 2314 1498 view .LVU3398
	.loc 1 2314 1522 view .LVU3399
	.loc 1 2314 1573 view .LVU3400
	.loc 1 2314 1681 view .LVU3401
	.loc 1 2314 1696 view .LVU3402
	.loc 1 2314 1977 view .LVU3403
	.loc 1 2314 2025 view .LVU3404
	.loc 1 2314 3277 view .LVU3405
	.loc 1 2314 3284 view .LVU3406
	.loc 1 2314 3307 view .LVU3407
	.loc 1 2314 3341 view .LVU3408
	.loc 1 2314 3347 view .LVU3409
	.loc 1 2314 3352 view .LVU3410
	.loc 1 2314 3577 view .LVU3411
	.loc 1 2314 3583 view .LVU3412
	.loc 1 2314 0 view .LVU3413
	.loc 1 2314 0 view .LVU3414
	.loc 1 2314 0 view .LVU3415
	.loc 1 2314 0 view .LVU3416
	.loc 1 2314 0 view .LVU3417
	.loc 1 2314 0 view .LVU3418
	.loc 1 2314 0 view .LVU3419
	.loc 1 2314 0 view .LVU3420
	.loc 1 2314 0 view .LVU3421
	.loc 1 2314 0 view .LVU3422
	.loc 1 2314 0 view .LVU3423
	.loc 1 2314 0 view .LVU3424
	.loc 1 2314 0 view .LVU3425
	.loc 1 2314 16 view .LVU3426
.LBB2366:
.LBB2354:
.LBB2344:
.LBB2339:
.LBB2335:
	.loc 1 2314 11 view .LVU3427
	.loc 1 2314 16 view .LVU3428
	.loc 1 2314 39 view .LVU3429
	.loc 1 2314 159 view .LVU3430
	.loc 1 2314 285 view .LVU3431
	.loc 1 2314 488 view .LVU3432
	.loc 1 2314 5 view .LVU3433
	.loc 1 2314 7 view .LVU3434
	.loc 1 2314 20 view .LVU3435
.LBB2327:
	.loc 1 2314 3 view .LVU3436
	.loc 1 2314 217 view .LVU3437
	.loc 1 2314 2 view .LVU3438
	.loc 1 2314 31 view .LVU3439
	.loc 1 2314 60 view .LVU3440
	.loc 1 2314 80 view .LVU3441
	.loc 1 2314 104 view .LVU3442
	.loc 1 2314 27 view .LVU3443
	.loc 1 2314 45 view .LVU3444
	.loc 1 2314 65 view .LVU3445
	.loc 1 2314 112 view .LVU3446
	.loc 1 2314 144 view .LVU3447
	.loc 1 2314 13 view .LVU3448
	.loc 1 2314 55 view .LVU3449
	.loc 1 2314 97 view .LVU3450
	.loc 1 2314 142 view .LVU3451
.LBB2328:
	.loc 1 2314 147 view .LVU3452
	.loc 1 2314 395 view .LVU3453
	.loc 1 2314 401 view .LVU3454
	.loc 1 2314 1498 view .LVU3455
.LBE2328:
.LBE2327:
.LBE2335:
.LBE2339:
.LBE2344:
.LBE2354:
.LBE2366:
	.loc 1 2314 1522 view .LVU3456
	.loc 1 2314 1573 view .LVU3457
	.loc 1 2314 1681 view .LVU3458
.LBB2367:
.LBB2355:
.LBB2345:
.LBB2340:
.LBB2336:
.LBB2333:
.LBB2329:
	.loc 1 2314 1696 view .LVU3459
	.loc 1 2314 1977 view .LVU3460
	.loc 1 2314 2025 view .LVU3461
	.loc 1 2314 2063 view .LVU3462
	.loc 1 2314 2068 view .LVU3463
	.loc 1 2314 2615 view .LVU3464
	.loc 1 2314 3237 is_stmt 0 view .LVU3465
	ldr	r3, .L414
	str	r3, [r7, #144]
	.loc 1 2314 3277 is_stmt 1 view .LVU3466
	.loc 1 2314 3284 view .LVU3467
.LVL777:
	.loc 1 2314 3307 view .LVU3468
	.loc 1 2314 3307 is_stmt 0 view .LVU3469
.LBE2329:
	.loc 1 2314 3341 is_stmt 1 view .LVU3470
	.loc 1 2314 3347 view .LVU3471
.LBB2330:
	.loc 1 2314 3352 view .LVU3472
	.loc 1 2314 3577 view .LVU3473
	.loc 1 2314 3583 view .LVU3474
	.loc 1 2314 0 view .LVU3475
.LBE2330:
.LBE2333:
.LBE2336:
.LBE2340:
.LBE2345:
.LBE2355:
.LBE2367:
	.loc 1 2314 0 view .LVU3476
	.loc 1 2314 0 view .LVU3477
	.loc 1 2314 0 view .LVU3478
.LBB2368:
.LBB2356:
.LBB2346:
.LBB2341:
.LBB2337:
.LBB2334:
.LBB2331:
	.loc 1 2314 0 view .LVU3479
	.loc 1 2314 0 view .LVU3480
	.loc 1 2314 0 view .LVU3481
	.loc 1 2314 0 view .LVU3482
	.loc 1 2314 0 view .LVU3483
	str	r0, [r7, #148]
	.loc 1 2314 0 view .LVU3484
	.loc 1 2314 0 view .LVU3485
.LVL778:
	.loc 1 2314 0 view .LVU3486
	.loc 1 2314 0 is_stmt 0 view .LVU3487
.LBE2331:
	.loc 1 2314 0 is_stmt 1 view .LVU3488
	.loc 1 2314 0 view .LVU3489
	.loc 1 2314 0 view .LVU3490
	.loc 1 2314 0 view .LVU3491
	.loc 1 2314 16 view .LVU3492
.LBB2332:
	.loc 1 2314 29 view .LVU3493
	.loc 1 2314 50 is_stmt 0 view .LVU3494
	movs	r5, #0
.LVL779:
	.loc 1 2314 50 view .LVU3495
	strh	r5, [r7, #21]	@ unaligned
	strb	r5, [r7, #23]
	movs	r3, #3
	strb	r3, [r7, #20]
	strb	r5, [r7, #22]
	.loc 1 2314 175 is_stmt 1 view .LVU3496
	.loc 1 2314 185 is_stmt 0 view .LVU3497
	ldr	r3, [r7, #20]
	str	r3, [r7, #140]
	.loc 1 2314 185 view .LVU3498
.LBE2332:
.LBE2334:
	.loc 1 2314 11 is_stmt 1 view .LVU3499
	.loc 1 2314 18 view .LVU3500
	.loc 1 2314 39 is_stmt 0 view .LVU3501
	bfi	fp, r5, #0, #1
	bfi	fp, r5, #1, #1
	bfi	fp, r5, #2, #1
	bfi	fp, r5, #3, #3
	movs	r3, #1
	bfi	fp, r3, #6, #3
	movs	r3, #12
	bfi	fp, r3, #9, #10
	bfi	fp, r5, #19, #12
	bfi	fp, r5, #31, #1
	.loc 1 2314 174 is_stmt 1 view .LVU3502
	mov	r3, r5
	mov	r2, fp
	ldr	r1, .L414+4
	add	r0, r7, #128
.LVL780:
	.loc 1 2314 174 is_stmt 0 view .LVU3503
	bl	z_log_msg2_finalize
.LVL781:
	.loc 1 2314 174 view .LVU3504
.LBE2337:
	.loc 1 2314 13 is_stmt 1 view .LVU3505
	.loc 1 2314 18 view .LVU3506
.LVL782:
	.loc 1 2314 58 view .LVU3507
.LBE2341:
	.loc 1 2314 13 view .LVU3508
	.loc 1 2314 20 view .LVU3509
	.loc 1 2314 20 is_stmt 0 view .LVU3510
.LBE2346:
	.loc 1 2314 75 is_stmt 1 view .LVU3511
	.loc 1 2315 3 view .LVU3512
	.loc 1 2315 9 is_stmt 0 view .LVU3513
	b	.L363
.LVL783:
.L365:
	.loc 1 2327 3 is_stmt 1 view .LVU3514
.LBB2347:
.LBI2347:
	.loc 10 312 30 view .LVU3515
.LBB2348:
	.loc 10 317 2 view .LVU3516
	.loc 10 317 12 is_stmt 0 view .LVU3517
	ldr	r0, [r4, #24]
.LVL784:
	.loc 10 317 12 view .LVU3518
.LBE2348:
.LBE2347:
.LBB2349:
.LBI2349:
	.loc 10 971 24 is_stmt 1 view .LVU3519
.LBB2350:
	.loc 10 973 2 view .LVU3520
	.loc 10 973 12 is_stmt 0 view .LVU3521
	ldr	r3, [r4, #8]
	.loc 10 973 19 view .LVU3522
	ldr	r3, [r3, #8]
.LVL785:
	.loc 10 973 19 view .LVU3523
.LBE2350:
.LBE2349:
	.loc 1 2327 11 view .LVU3524
	str	r8, [sp, #4]
	str	r6, [sp]
	adds	r3, r3, #8
	mov	r2, r9
	add	r1, r7, #48
	bl	net_route_add
.LVL786:
	.loc 1 2333 3 is_stmt 1 view .LVU3525
	.loc 1 2338 8 is_stmt 0 view .LVU3526
	movs	r5, #1
.LVL787:
	.loc 1 2338 8 view .LVU3527
	b	.L363
.LVL788:
.L384:
	.loc 1 2300 9 view .LVU3528
	movs	r5, #0
.LVL789:
.L363:
	.loc 1 2300 9 view .LVU3529
.LBE2356:
.LBE2368:
	.loc 1 2476 7 view .LVU3530
	cbnz	r5, .L331
	b	.L315
.LVL790:
.L385:
.LBB2369:
.LBB2357:
	.loc 1 2305 9 view .LVU3531
	movs	r5, #0
.LVL791:
	.loc 1 2305 9 view .LVU3532
	b	.L363
.LVL792:
.L386:
	.loc 1 2338 8 view .LVU3533
	movs	r5, #1
.LVL793:
	.loc 1 2338 8 view .LVU3534
	b	.L363
.LVL794:
.L324:
	.loc 1 2338 8 view .LVU3535
.LBE2357:
.LBE2369:
	.loc 1 2492 144 is_stmt 1 view .LVU3536
	.loc 1 2494 4 view .LVU3537
	.loc 1 2494 36 is_stmt 0 view .LVU3538
	ldrb	r1, [r6, #1]	@ zero_extendqisi2
	.loc 1 2494 42 view .LVU3539
	lsls	r1, r1, #3
	.loc 1 2494 8 view .LVU3540
	subs	r1, r1, #2
	mov	r0, r4
	bl	net_pkt_skip
.LVL795:
	.loc 1 2494 7 view .LVU3541
	cmp	r0, #0
	bne	.L315
.LVL796:
.L331:
	.loc 1 2501 3 is_stmt 1 view .LVU3542
	.loc 1 2502 6 is_stmt 0 view .LVU3543
	add	r1, r7, #84
	mov	r0, r4
	bl	net_pkt_get_data
.LVL797:
	mov	r6, r0
.LVL798:
.L323:
	.loc 1 2408 8 is_stmt 1 view .LVU3544
	cmp	r6, #0
	beq	.L407
	.loc 1 2409 3 view .LVU3545
.LVL799:
.LBB2370:
.LBI2370:
	.loc 10 2173 19 view .LVU3546
.LBB2371:
	.loc 10 2176 2 view .LVU3547
	.loc 10 2176 9 is_stmt 0 view .LVU3548
	ldr	r1, [r7, #88]
	mov	r0, r4
.LVL800:
	.loc 10 2176 9 view .LVU3549
	bl	net_pkt_skip
.LVL801:
	.loc 10 2176 9 view .LVU3550
.LBE2371:
.LBE2370:
	.loc 1 2411 3 is_stmt 1 view .LVU3551
	.loc 1 2411 21 is_stmt 0 view .LVU3552
	ldrb	r3, [r6]	@ zero_extendqisi2
	subs	r3, r3, #1
	cmp	r3, #23
	bhi	.L324
	adr	r2, .L326
	ldr	pc, [r2, r3, lsl #2]
	.p2align 2
.L326:
	.word	.L329+1
	.word	.L324+1
	.word	.L328+1
	.word	.L324+1
	.word	.L327+1
	.word	.L324+1
	.word	.L324+1
	.word	.L324+1
	.word	.L324+1
	.word	.L324+1
	.word	.L324+1
	.word	.L324+1
	.word	.L324+1
	.word	.L324+1
	.word	.L324+1
	.word	.L324+1
	.word	.L324+1
	.word	.L324+1
	.word	.L324+1
	.word	.L324+1
	.word	.L324+1
	.word	.L324+1
	.word	.L324+1
	.word	.L325+1
.LVL802:
	.p2align 1
.L407:
	.loc 1 2505 2 is_stmt 1 view .LVU3553
.LBB2372:
.LBI2372:
	.loc 10 293 30 view .LVU3554
.LBB2373:
	.loc 10 295 2 view .LVU3555
	.loc 10 295 2 is_stmt 0 view .LVU3556
.LBE2373:
.LBE2372:
	.loc 1 2506 28 view .LVU3557
	ldr	r5, [r7, #12]
	adds	r5, r5, #8
	.loc 1 2505 11 view .LVU3558
	mov	r1, r5
	ldr	r0, [r4, #24]
.LVL803:
	.loc 1 2505 11 view .LVU3559
	bl	net_if_ipv6_router_lookup
.LVL804:
	.loc 1 2507 2 is_stmt 1 view .LVU3560
	.loc 1 2507 5 is_stmt 0 view .LVU3561
	mov	r3, r0
	cbz	r0, .L367
	.loc 1 2508 3 is_stmt 1 view .LVU3562
	.loc 1 2508 6 is_stmt 0 view .LVU3563
	ldr	r2, [r7, #4]
	cbz	r2, .L408
	.loc 1 2514 4 is_stmt 1 view .LVU3564
	.loc 1 2514 7 is_stmt 0 view .LVU3565
	cmp	r10, #0
	beq	.L370
	.loc 1 2515 5 is_stmt 1 view .LVU3566
.LVL805:
.LBB2374:
.LBI2374:
	.loc 2 118 41 view .LVU3567
.LBB2375:
	.loc 2 120 2 view .LVU3568
	.loc 2 120 9 is_stmt 0 view .LVU3569
	ldr	r2, [r10, #12]
.LVL806:
	.loc 2 120 9 view .LVU3570
.LBE2375:
.LBE2374:
	.loc 1 2515 39 view .LVU3571
	movs	r1, #1
	strb	r1, [r2, #53]
.L370:
	.loc 1 2518 4 is_stmt 1 view .LVU3572
	ldr	r1, [r7, #4]
	mov	r0, r3
.LVL807:
	.loc 1 2518 4 is_stmt 0 view .LVU3573
	bl	net_if_ipv6_router_update_lifetime
.LVL808:
.L369:
	.loc 1 2527 2 is_stmt 1 view .LVU3574
	.loc 1 2527 5 is_stmt 0 view .LVU3575
	cmp	r10, #0
	beq	.L371
.LVL809:
.LBB2376:
.LBI2376:
	.loc 2 118 41 is_stmt 1 view .LVU3576
.LBB2377:
	.loc 2 120 2 view .LVU3577
	.loc 2 120 9 is_stmt 0 view .LVU3578
	ldr	r3, [r10, #12]
.LVL810:
	.loc 2 120 9 view .LVU3579
.LBE2377:
.LBE2376:
	.loc 1 2527 35 view .LVU3580
	ldr	r0, [r3]
	.loc 1 2527 10 view .LVU3581
	cbz	r0, .L371
	.loc 1 2528 3 is_stmt 1 view .LVU3582
.LBB2378:
	.loc 1 2528 8 view .LVU3583
.LBE2378:
	.loc 1 2528 277 view .LVU3584
	.loc 1 2533 3 view .LVU3585
.LVL811:
	.loc 2 120 2 view .LVU3586
	.loc 1 2533 7 is_stmt 0 view .LVU3587
	bl	net_send_data
.LVL812:
	.loc 1 2533 6 view .LVU3588
	cmp	r0, #0
	blt	.L409
.L372:
	.loc 1 2537 3 is_stmt 1 view .LVU3589
.LVL813:
.LBB2379:
.LBI2379:
	.loc 2 118 41 view .LVU3590
.LBB2380:
	.loc 2 120 2 view .LVU3591
	.loc 2 120 9 is_stmt 0 view .LVU3592
	ldr	r5, [r10, #12]
.LVL814:
	.loc 2 120 9 view .LVU3593
.LBE2380:
.LBE2379:
.LBB2381:
.LBI2381:
	.loc 1 283 20 is_stmt 1 view .LVU3594
.LBB2382:
	.loc 1 285 2 view .LVU3595
	.loc 1 285 16 is_stmt 0 view .LVU3596
	movs	r2, #0
	movs	r3, #0
	strd	r2, [r5, #40]
	.loc 1 287 2 is_stmt 1 view .LVU3597
	.loc 1 287 10 is_stmt 0 view .LVU3598
	ldr	r0, [r5]
	.loc 1 287 5 view .LVU3599
	cbz	r0, .L371
	.loc 1 288 3 is_stmt 1 view .LVU3600
	bl	net_pkt_unref
.LVL815:
	.loc 1 289 3 view .LVU3601
	.loc 1 289 17 is_stmt 0 view .LVU3602
	movs	r3, #0
	str	r3, [r5]
.LVL816:
.L371:
	.loc 1 289 17 view .LVU3603
.LBE2382:
.LBE2381:
	.loc 1 2541 2 is_stmt 1 view .LVU3604
.LBB2383:
.LBI2383:
	.loc 10 293 30 view .LVU3605
.LBB2384:
	.loc 10 295 2 view .LVU3606
	.loc 10 295 2 is_stmt 0 view .LVU3607
.LBE2384:
.LBE2383:
	.loc 1 2541 2 view .LVU3608
	ldr	r0, [r4, #24]
	bl	net_if_stop_rs
.LVL817:
	.loc 1 2543 2 is_stmt 1 view .LVU3609
	mov	r0, r4
	bl	net_pkt_unref
.LVL818:
	.loc 1 2545 2 view .LVU3610
	.loc 1 2545 9 is_stmt 0 view .LVU3611
	movs	r0, #0
	b	.L373
.LVL819:
.L408:
	.loc 1 2512 4 is_stmt 1 view .LVU3612
	bl	net_if_ipv6_router_rm
.LVL820:
	.loc 1 2512 4 is_stmt 0 view .LVU3613
	b	.L369
.LVL821:
.L367:
	.loc 1 2522 3 is_stmt 1 view .LVU3614
.LBB2385:
.LBI2385:
	.loc 10 293 30 view .LVU3615
.LBB2386:
	.loc 10 295 2 view .LVU3616
	.loc 10 295 2 is_stmt 0 view .LVU3617
.LBE2386:
.LBE2385:
	.loc 1 2522 3 view .LVU3618
	ldr	r2, [r7, #4]
	mov	r1, r5
	ldr	r0, [r4, #24]
.LVL822:
	.loc 1 2522 3 view .LVU3619
	bl	net_if_ipv6_router_add
.LVL823:
	.loc 1 2522 3 view .LVU3620
	b	.L369
.L409:
	.loc 1 2534 4 is_stmt 1 view .LVU3621
.LVL824:
.LBB2387:
.LBI2387:
	.loc 2 118 41 view .LVU3622
.LBB2388:
	.loc 2 120 2 view .LVU3623
	.loc 2 120 9 is_stmt 0 view .LVU3624
	ldr	r3, [r10, #12]
.LVL825:
	.loc 2 120 9 view .LVU3625
.LBE2388:
.LBE2387:
	.loc 1 2534 4 view .LVU3626
	ldr	r0, [r3]
	bl	net_pkt_unref
.LVL826:
	b	.L372
.L415:
	.align	2
.L414:
	.word	.LC18
	.word	log_const_net_ipv6
	.cfi_endproc
.LFE989:
	.size	handle_ra_input, .-handle_ra_input
	.section	.rodata.handle_ns_input.str1.4,"aMS",%progbits,1
	.align	2
.LC19:
	.ascii	"DROP: NULL NS header\000"
	.align	2
.LC20:
	.ascii	"DROP: failed to read LLAO\000"
	.align	2
.LC21:
	.ascii	"DROP: Corrupted NS message\000"
	.section	.text.handle_ns_input,"ax",%progbits
	.align	1
	.syntax unified
	.thumb
	.thumb_func
	.fpu fpv4-sp-d16
	.type	handle_ns_input, %function
handle_ns_input:
.LVL827:
.LFB974:
	.loc 1 1150 1 is_stmt 1 view -0
	.cfi_startproc
	@ args = 0, pretend = 0, frame = 152
	@ frame_needed = 0, uses_anonymous_args = 0
	.loc 1 1150 1 is_stmt 0 view .LVU3628
	push	{r4, r5, r6, r7, r8, r9, lr}
	.cfi_def_cfa_offset 28
	.cfi_offset 4, -28
	.cfi_offset 5, -24
	.cfi_offset 6, -20
	.cfi_offset 7, -16
	.cfi_offset 8, -12
	.cfi_offset 9, -8
	.cfi_offset 14, -4
	sub	sp, sp, #164
	.cfi_def_cfa_offset 192
	mov	r4, r0
	mov	r6, r1
	mov	r8, r2
	.loc 1 1151 2 is_stmt 1 view .LVU3629
	.loc 1 1151 29 is_stmt 0 view .LVU3630
	movs	r5, #0
	str	r5, [sp, #40]
	movs	r3, #20
	str	r3, [sp, #44]
	.loc 1 1153 2 is_stmt 1 view .LVU3631
	.loc 1 1153 47 view .LVU3632
	.loc 1 1153 74 is_stmt 0 view .LVU3633
	add	r3, sp, #36
	str	r3, [sp, #28]
	movs	r3, #2
	str	r3, [sp, #32]
	.loc 1 1154 2 is_stmt 1 view .LVU3634
.LVL828:
.LBB2522:
.LBI2522:
	.loc 10 961 22 view .LVU3635
.LBB2523:
	.loc 10 963 2 view .LVU3636
	.loc 10 963 9 is_stmt 0 view .LVU3637
	ldr	r3, [r0, #8]
.LVL829:
.LBB2524:
.LBI2524:
	.loc 15 2465 22 is_stmt 1 view .LVU3638
.LBB2525:
	.loc 15 2467 2 view .LVU3639
	.loc 15 2469 2 view .LVU3640
.L417:
	.loc 15 2469 8 view .LVU3641
	cbz	r3, .L459
	.loc 15 2470 3 view .LVU3642
	.loc 15 2470 15 is_stmt 0 view .LVU3643
	ldrh	r2, [r3, #12]
	.loc 15 2470 9 view .LVU3644
	add	r5, r5, r2
.LVL830:
	.loc 15 2471 3 is_stmt 1 view .LVU3645
	.loc 15 2471 7 is_stmt 0 view .LVU3646
	ldr	r3, [r3]
.LVL831:
	.loc 15 2471 7 view .LVU3647
	b	.L417
.L459:
	.loc 15 2474 2 is_stmt 1 view .LVU3648
.LVL832:
	.loc 15 2474 2 is_stmt 0 view .LVU3649
.LBE2525:
.LBE2524:
.LBE2523:
.LBE2522:
	.loc 1 1154 11 view .LVU3650
	uxth	r5, r5
.LVL833:
	.loc 1 1155 2 is_stmt 1 view .LVU3651
	.loc 1 1156 1 view .LVU3652
	.loc 1 1157 2 view .LVU3653
	.loc 1 1158 2 view .LVU3654
	.loc 1 1159 2 view .LVU3655
	.loc 1 1160 2 view .LVU3656
	.loc 1 1161 2 view .LVU3657
	.loc 1 1162 2 view .LVU3658
	.loc 1 1163 2 view .LVU3659
	.loc 1 1164 2 view .LVU3660
	.loc 1 1166 2 view .LVU3661
	.loc 1 1166 17 is_stmt 0 view .LVU3662
	strb	r3, [sp, #16]
	.loc 1 1168 2 is_stmt 1 view .LVU3663
	.loc 1 1168 39 is_stmt 0 view .LVU3664
	add	r1, sp, #40
.LVL834:
	.loc 1 1168 39 view .LVU3665
	mov	r0, r4
.LVL835:
	.loc 1 1168 39 view .LVU3666
	bl	net_pkt_get_data
.LVL836:
	.loc 1 1169 2 is_stmt 1 view .LVU3667
	.loc 1 1169 5 is_stmt 0 view .LVU3668
	mov	r9, r0
	cbz	r0, .L460
	.loc 1 1174 2 is_stmt 1 view .LVU3669
	.loc 1 1174 7 view .LVU3670
.LBB2526:
	.loc 1 1174 12 view .LVU3671
.LBE2526:
	.loc 1 1174 379 view .LVU3672
	.loc 1 1174 12 view .LVU3673
	.loc 1 1177 2 view .LVU3674
.LVL837:
.LBB2527:
.LBI2527:
	.loc 10 293 30 view .LVU3675
.LBB2528:
	.loc 10 295 2 view .LVU3676
	.loc 10 295 12 is_stmt 0 view .LVU3677
	ldr	r2, [r4, #24]
.LVL838:
	.loc 10 295 12 view .LVU3678
.LBE2528:
.LBE2527:
.LBB2529:
.LBI2529:
	.loc 14 101 20 is_stmt 1 view .LVU3679
.LBB2530:
	.loc 14 103 6 view .LVU3680
	.loc 14 103 7 view .LVU3681
	.loc 14 103 9 view .LVU3682
	.loc 14 103 28 is_stmt 0 view .LVU3683
	ldr	r1, .L472
	ldr	r3, [r1, #164]
	.loc 14 103 33 view .LVU3684
	adds	r3, r3, #1
	str	r3, [r1, #164]
	.loc 14 103 39 is_stmt 1 view .LVU3685
	.loc 14 103 60 is_stmt 0 view .LVU3686
	ldr	r3, [r2, #172]
	.loc 14 103 65 view .LVU3687
	adds	r3, r3, #1
	str	r3, [r2, #172]
	.loc 14 103 71 is_stmt 1 view .LVU3688
.LVL839:
	.loc 14 103 71 is_stmt 0 view .LVU3689
.LBE2530:
.LBE2529:
	.loc 1 1179 2 is_stmt 1 view .LVU3690
	.loc 1 1179 5 is_stmt 0 view .LVU3691
	cmp	r5, #63
	bls	.L421
	.loc 1 1182 13 view .LVU3692
	ldrb	r3, [r6, #7]	@ zero_extendqisi2
	.loc 1 1181 41 view .LVU3693
	cmp	r3, #255
	beq	.L422
.L421:
.LVL840:
.LBB2531:
.LBI2531:
	.loc 3 604 19 is_stmt 1 view .LVU3694
.LBB2532:
	.loc 3 606 2 view .LVU3695
	.loc 3 606 22 is_stmt 0 view .LVU3696
	ldrb	r3, [r9, #4]	@ zero_extendqisi2
.LVL841:
	.loc 3 606 22 view .LVU3697
.LBE2532:
.LBE2531:
	.loc 1 1182 34 view .LVU3698
	cmp	r3, #255
	beq	.L461
.L422:
	.loc 1 1188 2 is_stmt 1 view .LVU3699
.LVL842:
.LBB2533:
.LBI2533:
	.loc 10 2173 19 view .LVU3700
.LBB2534:
	.loc 10 2176 2 view .LVU3701
	.loc 10 2176 9 is_stmt 0 view .LVU3702
	ldr	r1, [sp, #44]
	mov	r0, r4
.LVL843:
	.loc 10 2176 9 view .LVU3703
	bl	net_pkt_skip
.LVL844:
	.loc 10 2176 9 view .LVU3704
.LBE2534:
.LBE2533:
	.loc 1 1190 2 is_stmt 1 view .LVU3705
.LBB2535:
.LBI2535:
	.loc 10 506 20 view .LVU3706
.LBB2536:
	.loc 10 509 2 view .LVU3707
	.loc 10 509 24 is_stmt 0 view .LVU3708
	movs	r3, #20
	strb	r3, [r4, #86]
.LVL845:
	.loc 10 509 24 view .LVU3709
.LBE2536:
.LBE2535:
	.loc 1 1191 2 is_stmt 1 view .LVU3710
	.loc 1 1191 9 is_stmt 0 view .LVU3711
	subs	r5, r5, #44
.LVL846:
	.loc 1 1191 9 view .LVU3712
	uxth	r5, r5
.LVL847:
	.loc 1 1193 2 is_stmt 1 view .LVU3713
	.loc 1 1194 5 is_stmt 0 view .LVU3714
	add	r1, sp, #28
	mov	r0, r4
	bl	net_pkt_get_data
.LVL848:
	mov	r7, r0
.LVL849:
	.loc 1 1196 2 is_stmt 1 view .LVU3715
	.loc 1 1196 8 is_stmt 0 view .LVU3716
	b	.L423
.LVL850:
.L460:
	.loc 1 1170 3 is_stmt 1 view .LVU3717
.LBB2537:
	.loc 1 1170 8 view .LVU3718
	.loc 1 1170 57 view .LVU3719
	.loc 1 1170 14 view .LVU3720
	.loc 1 1170 2 view .LVU3721
.LBE2537:
	.loc 16 120 2 view .LVU3722
.LBB2550:
	.loc 1 1170 41 view .LVU3723
	.loc 1 1170 107 view .LVU3724
	.loc 1 1170 206 view .LVU3725
.LBB2538:
	.loc 1 1170 215 view .LVU3726
	.loc 1 1170 226 view .LVU3727
	.loc 1 1170 314 view .LVU3728
	.loc 1 1170 319 view .LVU3729
	.loc 1 1170 321 view .LVU3730
.LBE2538:
.LBE2550:
	.loc 1 1170 3 view .LVU3731
	.loc 1 1170 3 view .LVU3732
.LBB2551:
.LBB2547:
	.loc 1 1170 74 view .LVU3733
.LBB2539:
	.loc 1 1170 79 view .LVU3734
	.loc 1 1170 90 view .LVU3735
.LBE2539:
.LBE2547:
.LBE2551:
	.loc 1 1170 3 view .LVU3736
	.loc 1 1170 217 view .LVU3737
	.loc 1 1170 2 view .LVU3738
	.loc 1 1170 31 view .LVU3739
	.loc 1 1170 4 view .LVU3740
	.loc 1 1170 24 view .LVU3741
	.loc 1 1170 48 view .LVU3742
	.loc 1 1170 23 view .LVU3743
	.loc 1 1170 41 view .LVU3744
	.loc 1 1170 61 view .LVU3745
	.loc 1 1170 108 view .LVU3746
	.loc 1 1170 140 view .LVU3747
	.loc 1 1170 13 view .LVU3748
	.loc 1 1170 55 view .LVU3749
	.loc 1 1170 97 view .LVU3750
	.loc 1 1170 142 view .LVU3751
	.loc 1 1170 147 view .LVU3752
	.loc 1 1170 391 view .LVU3753
	.loc 1 1170 397 view .LVU3754
	.loc 1 1170 1478 view .LVU3755
	.loc 1 1170 1502 view .LVU3756
	.loc 1 1170 1549 view .LVU3757
	.loc 1 1170 1653 view .LVU3758
	.loc 1 1170 1668 view .LVU3759
	.loc 1 1170 1945 view .LVU3760
	.loc 1 1170 1993 view .LVU3761
	.loc 1 1170 3213 view .LVU3762
	.loc 1 1170 3220 view .LVU3763
	.loc 1 1170 3243 view .LVU3764
	.loc 1 1170 3277 view .LVU3765
	.loc 1 1170 3282 view .LVU3766
	.loc 1 1170 3305 view .LVU3767
	.loc 1 1170 3433 view .LVU3768
	.loc 1 1170 16 view .LVU3769
.LBB2552:
.LBB2548:
.LBB2545:
	.loc 1 1170 11 view .LVU3770
	.loc 1 1170 16 view .LVU3771
	.loc 1 1170 39 view .LVU3772
	.loc 1 1170 159 view .LVU3773
	.loc 1 1170 285 view .LVU3774
	.loc 1 1170 488 view .LVU3775
	.loc 1 1170 5 view .LVU3776
	.loc 1 1170 7 view .LVU3777
	.loc 1 1170 20 view .LVU3778
.LBB2540:
	.loc 1 1170 3 view .LVU3779
	.loc 1 1170 217 view .LVU3780
	.loc 1 1170 2 view .LVU3781
	.loc 1 1170 31 view .LVU3782
	.loc 1 1170 60 view .LVU3783
	.loc 1 1170 80 view .LVU3784
	.loc 1 1170 104 view .LVU3785
	.loc 1 1170 27 view .LVU3786
	.loc 1 1170 45 view .LVU3787
	.loc 1 1170 65 view .LVU3788
	.loc 1 1170 112 view .LVU3789
	.loc 1 1170 144 view .LVU3790
	.loc 1 1170 13 view .LVU3791
	.loc 1 1170 55 view .LVU3792
	.loc 1 1170 97 view .LVU3793
	.loc 1 1170 142 view .LVU3794
.LBB2541:
	.loc 1 1170 147 view .LVU3795
	.loc 1 1170 391 view .LVU3796
	.loc 1 1170 397 view .LVU3797
	.loc 1 1170 1478 view .LVU3798
.LBE2541:
.LBE2540:
.LBE2545:
.LBE2548:
.LBE2552:
	.loc 1 1170 1502 view .LVU3799
	.loc 1 1170 1549 view .LVU3800
	.loc 1 1170 1653 view .LVU3801
.LBB2553:
.LBB2549:
.LBB2546:
.LBB2544:
.LBB2542:
	.loc 1 1170 1668 view .LVU3802
	.loc 1 1170 1945 view .LVU3803
	.loc 1 1170 1993 view .LVU3804
	.loc 1 1170 2031 view .LVU3805
	.loc 1 1170 2036 view .LVU3806
	.loc 1 1170 2559 view .LVU3807
	.loc 1 1170 3177 is_stmt 0 view .LVU3808
	ldr	r3, .L472+4
	str	r3, [sp, #128]
	.loc 1 1170 3213 is_stmt 1 view .LVU3809
	.loc 1 1170 3220 view .LVU3810
.LVL851:
	.loc 1 1170 3243 view .LVU3811
	.loc 1 1170 3243 is_stmt 0 view .LVU3812
.LBE2542:
	.loc 1 1170 3277 is_stmt 1 view .LVU3813
	.loc 1 1170 3282 view .LVU3814
	.loc 1 1170 3305 view .LVU3815
	.loc 1 1170 3433 view .LVU3816
	.loc 1 1170 16 view .LVU3817
.LBB2543:
	.loc 1 1170 29 view .LVU3818
	.loc 1 1170 50 is_stmt 0 view .LVU3819
	movs	r3, #0
	strh	r3, [sp, #9]	@ unaligned
	strb	r3, [sp, #11]
	movs	r2, #2
	strb	r2, [sp, #8]
	strb	r3, [sp, #10]
	.loc 1 1170 175 is_stmt 1 view .LVU3820
	.loc 1 1170 185 is_stmt 0 view .LVU3821
	ldr	r2, [sp, #8]
	str	r2, [sp, #124]
	.loc 1 1170 185 view .LVU3822
.LBE2543:
.LBE2544:
	.loc 1 1170 11 is_stmt 1 view .LVU3823
	.loc 1 1170 18 view .LVU3824
	.loc 1 1170 39 is_stmt 0 view .LVU3825
	mov	r2, r3
.LVL852:
	.loc 1 1170 39 view .LVU3826
	bfi	r2, r3, #0, #1
.LVL853:
	.loc 1 1170 39 view .LVU3827
	bfi	r2, r3, #1, #1
	bfi	r2, r3, #2, #1
	bfi	r2, r3, #3, #3
	movs	r1, #1
	bfi	r2, r1, #6, #3
	movs	r1, #8
	bfi	r2, r1, #9, #10
	.loc 1 1170 174 is_stmt 1 view .LVU3828
	ubfx	r2, r2, #0, #19
.LVL854:
	.loc 1 1170 174 is_stmt 0 view .LVU3829
	ldr	r1, .L472+8
	add	r0, sp, #112
.LVL855:
	.loc 1 1170 174 view .LVU3830
	bl	z_log_msg2_finalize
.LVL856:
	.loc 1 1170 174 view .LVU3831
.LBE2546:
	.loc 1 1170 13 is_stmt 1 view .LVU3832
	.loc 1 1170 18 view .LVU3833
.LVL857:
	.loc 1 1170 58 view .LVU3834
.LBE2549:
	.loc 1 1170 13 view .LVU3835
	.loc 1 1170 20 view .LVU3836
	.loc 1 1170 20 is_stmt 0 view .LVU3837
.LBE2553:
	.loc 1 1170 66 is_stmt 1 view .LVU3838
	.loc 1 1171 3 view .LVU3839
	b	.L420
.LVL858:
.L461:
	.loc 1 1184 15 is_stmt 0 view .LVU3840
	ldrb	r3, [r8, #1]	@ zero_extendqisi2
	.loc 1 1183 62 view .LVU3841
	cmp	r3, #0
	beq	.L422
	b	.L420
.LVL859:
.L440:
.LBB2554:
.LBB2555:
.LBB2556:
	.loc 3 955 165 view .LVU3842
	movs	r3, #0
.L425:
.LVL860:
	.loc 3 955 165 view .LVU3843
.LBE2556:
.LBE2555:
	.loc 1 1204 7 view .LVU3844
	cmp	r3, #0
	bne	.L420
	.loc 1 1209 4 is_stmt 1 view .LVU3845
	.loc 1 1209 9 is_stmt 0 view .LVU3846
	add	r2, sp, #20
	ldrb	r1, [r7, #1]	@ zero_extendqisi2
	mov	r0, r4
	bl	read_llao
.LVL861:
	.loc 1 1209 7 view .LVU3847
	cmp	r0, #0
	beq	.L462
	.loc 1 1214 4 is_stmt 1 view .LVU3848
	.loc 1 1214 33 is_stmt 0 view .LVU3849
	ldrb	r3, [sp, #21]	@ zero_extendqisi2
	.loc 1 1214 19 view .LVU3850
	strb	r3, [sp, #16]
	.loc 1 1215 4 is_stmt 1 view .LVU3851
	.loc 1 1215 20 is_stmt 0 view .LVU3852
	add	r3, sp, #22
	str	r3, [sp, #12]
	.loc 1 1217 4 is_stmt 1 view .LVU3853
.LVL862:
.L424:
	.loc 1 1223 3 view .LVU3854
.LBB2562:
.LBI2562:
	.loc 10 501 23 view .LVU3855
.LBB2563:
	.loc 10 503 2 view .LVU3856
	.loc 10 503 12 is_stmt 0 view .LVU3857
	ldrb	r2, [r4, #86]	@ zero_extendqisi2
.LVL863:
	.loc 10 503 12 view .LVU3858
.LBE2563:
.LBE2562:
	.loc 1 1225 3 is_stmt 1 view .LVU3859
	.loc 1 1225 3 is_stmt 0 view .LVU3860
.LBE2554:
	.loc 10 503 2 is_stmt 1 view .LVU3861
.LBB2603:
	.loc 1 1227 22 is_stmt 0 view .LVU3862
	ldrb	r3, [r7, #1]	@ zero_extendqisi2
	.loc 1 1227 28 view .LVU3863
	lsls	r3, r3, #3
	uxtb	r3, r3
	.loc 1 1225 3 view .LVU3864
	add	r3, r3, r2
	uxtb	r3, r3
.LVL864:
.LBB2564:
.LBI2564:
	.loc 10 506 20 is_stmt 1 view .LVU3865
.LBB2565:
	.loc 10 509 2 view .LVU3866
	.loc 10 509 24 is_stmt 0 view .LVU3867
	strb	r3, [r4, #86]
.LVL865:
	.loc 10 509 24 view .LVU3868
.LBE2565:
.LBE2564:
	.loc 1 1229 3 is_stmt 1 view .LVU3869
	.loc 1 1229 3 is_stmt 0 view .LVU3870
.LBE2603:
	.loc 10 503 2 is_stmt 1 view .LVU3871
.LBB2604:
	.loc 1 1229 6 is_stmt 0 view .LVU3872
	cmp	r3, r2
	bls	.L463
	.loc 1 1234 3 is_stmt 1 view .LVU3873
	.loc 1 1235 6 is_stmt 0 view .LVU3874
	add	r1, sp, #28
	mov	r0, r4
	bl	net_pkt_get_data
.LVL866:
	.loc 1 1235 6 view .LVU3875
	mov	r7, r0
.LVL867:
.L423:
	.loc 1 1235 6 view .LVU3876
.LBE2604:
	.loc 1 1196 8 is_stmt 1 view .LVU3877
	cmp	r7, #0
	beq	.L428
	.loc 1 1196 33 is_stmt 0 discriminator 1 view .LVU3878
	ldrb	r3, [r7, #1]	@ zero_extendqisi2
	.loc 1 1196 20 discriminator 1 view .LVU3879
	cmp	r3, #0
	beq	.L428
.LVL868:
.LBB2605:
.LBI2605:
	.loc 10 501 23 is_stmt 1 view .LVU3880
.LBB2606:
	.loc 10 503 2 view .LVU3881
	.loc 10 503 2 is_stmt 0 view .LVU3882
.LBE2606:
.LBE2605:
	.loc 1 1197 9 view .LVU3883
	ldrb	r3, [r4, #86]	@ zero_extendqisi2
	.loc 1 1196 43 view .LVU3884
	cmp	r3, r5
	bcs	.L428
.LBB2607:
	.loc 1 1198 3 is_stmt 1 view .LVU3885
	.loc 1 1200 3 view .LVU3886
.LVL869:
.LBB2566:
.LBI2566:
	.loc 10 2173 19 view .LVU3887
.LBB2567:
	.loc 10 2176 2 view .LVU3888
	.loc 10 2176 9 is_stmt 0 view .LVU3889
	ldr	r1, [sp, #32]
	mov	r0, r4
.LVL870:
	.loc 10 2176 9 view .LVU3890
	bl	net_pkt_skip
.LVL871:
	.loc 10 2176 9 view .LVU3891
.LBE2567:
.LBE2566:
	.loc 1 1202 3 is_stmt 1 view .LVU3892
	.loc 1 1202 21 is_stmt 0 view .LVU3893
	ldrb	r3, [r7]	@ zero_extendqisi2
	.loc 1 1202 3 view .LVU3894
	cmp	r3, #1
	bne	.L424
	.loc 1 1204 4 is_stmt 1 view .LVU3895
.LVL872:
.LBB2568:
.LBI2555:
	.loc 3 951 19 view .LVU3896
.LBB2561:
	.loc 3 953 2 view .LVU3897
.LBB2557:
	.loc 3 953 26 view .LVU3898
	.loc 3 953 153 view .LVU3899
	.loc 3 953 156 is_stmt 0 view .LVU3900
	ldr	r3, [r6, #8]	@ unaligned
.LBE2557:
	.loc 3 955 165 view .LVU3901
	cmp	r3, #0
	bne	.L440
.LBB2558:
	.loc 3 954 20 is_stmt 1 view .LVU3902
.LVL873:
	.loc 3 954 147 view .LVU3903
	.loc 3 954 150 is_stmt 0 view .LVU3904
	ldr	r3, [r6, #12]	@ unaligned
.LBE2558:
	.loc 3 953 171 view .LVU3905
	cbnz	r3, .L441
.LBB2559:
	.loc 3 955 20 is_stmt 1 view .LVU3906
.LVL874:
	.loc 3 955 147 view .LVU3907
	.loc 3 955 150 is_stmt 0 view .LVU3908
	ldr	r3, [r6, #16]	@ unaligned
.LBE2559:
	.loc 3 954 165 view .LVU3909
	cbnz	r3, .L442
.LBB2560:
	.loc 3 956 20 is_stmt 1 view .LVU3910
.LVL875:
	.loc 3 956 147 view .LVU3911
	.loc 3 956 150 is_stmt 0 view .LVU3912
	ldr	r3, [r6, #20]	@ unaligned
.LBE2560:
	.loc 3 955 165 view .LVU3913
	cbz	r3, .L443
	movs	r3, #0
	b	.L425
.LVL876:
.L441:
	.loc 3 955 165 view .LVU3914
	movs	r3, #0
	b	.L425
.LVL877:
.L442:
	.loc 3 955 165 view .LVU3915
	movs	r3, #0
	b	.L425
.LVL878:
.L443:
	.loc 3 955 165 view .LVU3916
	movs	r3, #1
	b	.L425
.LVL879:
.L462:
	.loc 3 955 165 view .LVU3917
.LBE2561:
.LBE2568:
	.loc 1 1210 5 is_stmt 1 view .LVU3918
.LBB2569:
	.loc 1 1210 10 view .LVU3919
	.loc 1 1210 59 view .LVU3920
	.loc 1 1210 16 view .LVU3921
	.loc 1 1210 4 view .LVU3922
.LBE2569:
.LBE2607:
	.loc 16 120 2 view .LVU3923
.LBB2608:
.LBB2582:
	.loc 1 1210 43 view .LVU3924
	.loc 1 1210 109 view .LVU3925
	.loc 1 1210 208 view .LVU3926
.LBB2570:
	.loc 1 1210 217 view .LVU3927
	.loc 1 1210 228 view .LVU3928
	.loc 1 1210 316 view .LVU3929
	.loc 1 1210 321 view .LVU3930
	.loc 1 1210 323 view .LVU3931
.LBE2570:
.LBE2582:
.LBE2608:
	.loc 1 1210 5 view .LVU3932
	.loc 1 1210 5 view .LVU3933
.LBB2609:
.LBB2583:
.LBB2579:
	.loc 1 1210 81 view .LVU3934
.LBB2571:
	.loc 1 1210 86 view .LVU3935
	.loc 1 1210 97 view .LVU3936
.LBE2571:
.LBE2579:
.LBE2583:
.LBE2609:
	.loc 1 1210 5 view .LVU3937
	.loc 1 1210 219 view .LVU3938
	.loc 1 1210 4 view .LVU3939
	.loc 1 1210 33 view .LVU3940
	.loc 1 1210 6 view .LVU3941
	.loc 1 1210 26 view .LVU3942
	.loc 1 1210 50 view .LVU3943
	.loc 1 1210 25 view .LVU3944
	.loc 1 1210 43 view .LVU3945
	.loc 1 1210 63 view .LVU3946
	.loc 1 1210 110 view .LVU3947
	.loc 1 1210 142 view .LVU3948
	.loc 1 1210 15 view .LVU3949
	.loc 1 1210 57 view .LVU3950
	.loc 1 1210 99 view .LVU3951
	.loc 1 1210 144 view .LVU3952
	.loc 1 1210 149 view .LVU3953
	.loc 1 1210 398 view .LVU3954
	.loc 1 1210 404 view .LVU3955
	.loc 1 1210 1505 view .LVU3956
	.loc 1 1210 1529 view .LVU3957
	.loc 1 1210 1581 view .LVU3958
	.loc 1 1210 1690 view .LVU3959
	.loc 1 1210 1705 view .LVU3960
	.loc 1 1210 1987 view .LVU3961
	.loc 1 1210 2035 view .LVU3962
	.loc 1 1210 3295 view .LVU3963
	.loc 1 1210 3302 view .LVU3964
	.loc 1 1210 3325 view .LVU3965
	.loc 1 1210 3359 view .LVU3966
	.loc 1 1210 3364 view .LVU3967
	.loc 1 1210 3387 view .LVU3968
	.loc 1 1210 3515 view .LVU3969
	.loc 1 1210 18 view .LVU3970
.LBB2610:
.LBB2584:
.LBB2580:
.LBB2577:
	.loc 1 1210 13 view .LVU3971
	.loc 1 1210 18 view .LVU3972
	.loc 1 1210 41 view .LVU3973
	.loc 1 1210 161 view .LVU3974
	.loc 1 1210 287 view .LVU3975
	.loc 1 1210 490 view .LVU3976
	.loc 1 1210 7 view .LVU3977
	.loc 1 1210 9 view .LVU3978
	.loc 1 1210 22 view .LVU3979
.LBB2572:
	.loc 1 1210 5 view .LVU3980
	.loc 1 1210 219 view .LVU3981
	.loc 1 1210 4 view .LVU3982
	.loc 1 1210 33 view .LVU3983
	.loc 1 1210 62 view .LVU3984
	.loc 1 1210 82 view .LVU3985
	.loc 1 1210 106 view .LVU3986
	.loc 1 1210 29 view .LVU3987
	.loc 1 1210 47 view .LVU3988
	.loc 1 1210 67 view .LVU3989
	.loc 1 1210 114 view .LVU3990
	.loc 1 1210 146 view .LVU3991
	.loc 1 1210 15 view .LVU3992
	.loc 1 1210 57 view .LVU3993
	.loc 1 1210 99 view .LVU3994
	.loc 1 1210 144 view .LVU3995
.LBB2573:
	.loc 1 1210 149 view .LVU3996
	.loc 1 1210 398 view .LVU3997
	.loc 1 1210 404 view .LVU3998
	.loc 1 1210 1505 view .LVU3999
.LBE2573:
.LBE2572:
.LBE2577:
.LBE2580:
.LBE2584:
.LBE2610:
	.loc 1 1210 1529 view .LVU4000
	.loc 1 1210 1581 view .LVU4001
	.loc 1 1210 1690 view .LVU4002
.LBB2611:
.LBB2585:
.LBB2581:
.LBB2578:
.LBB2576:
.LBB2574:
	.loc 1 1210 1705 view .LVU4003
	.loc 1 1210 1987 view .LVU4004
	.loc 1 1210 2035 view .LVU4005
	.loc 1 1210 2073 view .LVU4006
	.loc 1 1210 2078 view .LVU4007
	.loc 1 1210 2631 view .LVU4008
	.loc 1 1210 3254 is_stmt 0 view .LVU4009
	ldr	r3, .L472+12
	str	r3, [sp, #80]
	.loc 1 1210 3295 is_stmt 1 view .LVU4010
	.loc 1 1210 3302 view .LVU4011
.LVL880:
	.loc 1 1210 3325 view .LVU4012
	.loc 1 1210 3325 is_stmt 0 view .LVU4013
.LBE2574:
	.loc 1 1210 3359 is_stmt 1 view .LVU4014
	.loc 1 1210 3364 view .LVU4015
	.loc 1 1210 3387 view .LVU4016
	.loc 1 1210 3515 view .LVU4017
	.loc 1 1210 18 view .LVU4018
.LBB2575:
	.loc 1 1210 31 view .LVU4019
	.loc 1 1210 52 is_stmt 0 view .LVU4020
	movs	r3, #0
	strh	r3, [sp, #9]	@ unaligned
	strb	r3, [sp, #11]
	movs	r2, #2
	strb	r2, [sp, #8]
	strb	r3, [sp, #10]
	.loc 1 1210 177 is_stmt 1 view .LVU4021
	.loc 1 1210 187 is_stmt 0 view .LVU4022
	ldr	r2, [sp, #8]
	str	r2, [sp, #76]
	.loc 1 1210 187 view .LVU4023
.LBE2575:
.LBE2576:
	.loc 1 1210 13 is_stmt 1 view .LVU4024
	.loc 1 1210 20 view .LVU4025
	.loc 1 1210 41 is_stmt 0 view .LVU4026
	mov	r2, r3
.LVL881:
	.loc 1 1210 41 view .LVU4027
	bfi	r2, r3, #0, #1
.LVL882:
	.loc 1 1210 41 view .LVU4028
	bfi	r2, r3, #1, #1
	bfi	r2, r3, #2, #1
	bfi	r2, r3, #3, #3
	movs	r1, #1
	bfi	r2, r1, #6, #3
	movs	r1, #8
	bfi	r2, r1, #9, #10
	.loc 1 1210 176 is_stmt 1 view .LVU4029
	ubfx	r2, r2, #0, #19
.LVL883:
	.loc 1 1210 176 is_stmt 0 view .LVU4030
	ldr	r1, .L472+8
	add	r0, sp, #64
.LVL884:
	.loc 1 1210 176 view .LVU4031
	bl	z_log_msg2_finalize
.LVL885:
	.loc 1 1210 176 view .LVU4032
.LBE2578:
	.loc 1 1210 15 is_stmt 1 view .LVU4033
	.loc 1 1210 20 view .LVU4034
.LVL886:
	.loc 1 1210 60 view .LVU4035
.LBE2581:
	.loc 1 1210 15 view .LVU4036
	.loc 1 1210 22 view .LVU4037
	.loc 1 1210 22 is_stmt 0 view .LVU4038
.LBE2585:
	.loc 1 1210 73 is_stmt 1 view .LVU4039
	.loc 1 1211 5 view .LVU4040
	b	.L420
.LVL887:
.L463:
	.loc 1 1230 4 view .LVU4041
.LBB2586:
	.loc 1 1230 9 view .LVU4042
	.loc 1 1230 58 view .LVU4043
	.loc 1 1230 15 view .LVU4044
	.loc 1 1230 3 view .LVU4045
.LBE2586:
.LBE2611:
	.loc 16 120 2 view .LVU4046
.LBB2612:
.LBB2599:
	.loc 1 1230 42 view .LVU4047
	.loc 1 1230 108 view .LVU4048
	.loc 1 1230 207 view .LVU4049
.LBB2587:
	.loc 1 1230 216 view .LVU4050
	.loc 1 1230 227 view .LVU4051
	.loc 1 1230 315 view .LVU4052
	.loc 1 1230 320 view .LVU4053
	.loc 1 1230 322 view .LVU4054
.LBE2587:
.LBE2599:
.LBE2612:
	.loc 1 1230 4 view .LVU4055
	.loc 1 1230 4 view .LVU4056
.LBB2613:
.LBB2600:
.LBB2596:
	.loc 1 1230 81 view .LVU4057
.LBB2588:
	.loc 1 1230 86 view .LVU4058
	.loc 1 1230 97 view .LVU4059
.LBE2588:
.LBE2596:
.LBE2600:
.LBE2613:
	.loc 1 1230 4 view .LVU4060
	.loc 1 1230 218 view .LVU4061
	.loc 1 1230 3 view .LVU4062
	.loc 1 1230 32 view .LVU4063
	.loc 1 1230 5 view .LVU4064
	.loc 1 1230 25 view .LVU4065
	.loc 1 1230 49 view .LVU4066
	.loc 1 1230 24 view .LVU4067
	.loc 1 1230 42 view .LVU4068
	.loc 1 1230 62 view .LVU4069
	.loc 1 1230 109 view .LVU4070
	.loc 1 1230 141 view .LVU4071
	.loc 1 1230 14 view .LVU4072
	.loc 1 1230 56 view .LVU4073
	.loc 1 1230 98 view .LVU4074
	.loc 1 1230 143 view .LVU4075
	.loc 1 1230 148 view .LVU4076
	.loc 1 1230 398 view .LVU4077
	.loc 1 1230 404 view .LVU4078
	.loc 1 1230 1509 view .LVU4079
	.loc 1 1230 1533 view .LVU4080
	.loc 1 1230 1586 view .LVU4081
	.loc 1 1230 1696 view .LVU4082
	.loc 1 1230 1711 view .LVU4083
	.loc 1 1230 1994 view .LVU4084
	.loc 1 1230 2042 view .LVU4085
	.loc 1 1230 3310 view .LVU4086
	.loc 1 1230 3317 view .LVU4087
	.loc 1 1230 3340 view .LVU4088
	.loc 1 1230 3374 view .LVU4089
	.loc 1 1230 3379 view .LVU4090
	.loc 1 1230 3402 view .LVU4091
	.loc 1 1230 3530 view .LVU4092
	.loc 1 1230 17 view .LVU4093
.LBB2614:
.LBB2601:
.LBB2597:
.LBB2594:
	.loc 1 1230 12 view .LVU4094
	.loc 1 1230 17 view .LVU4095
	.loc 1 1230 40 view .LVU4096
	.loc 1 1230 160 view .LVU4097
	.loc 1 1230 286 view .LVU4098
	.loc 1 1230 489 view .LVU4099
	.loc 1 1230 6 view .LVU4100
	.loc 1 1230 8 view .LVU4101
	.loc 1 1230 21 view .LVU4102
.LBB2589:
	.loc 1 1230 4 view .LVU4103
	.loc 1 1230 218 view .LVU4104
	.loc 1 1230 3 view .LVU4105
	.loc 1 1230 32 view .LVU4106
	.loc 1 1230 61 view .LVU4107
	.loc 1 1230 81 view .LVU4108
	.loc 1 1230 105 view .LVU4109
	.loc 1 1230 28 view .LVU4110
	.loc 1 1230 46 view .LVU4111
	.loc 1 1230 66 view .LVU4112
	.loc 1 1230 113 view .LVU4113
	.loc 1 1230 145 view .LVU4114
	.loc 1 1230 14 view .LVU4115
	.loc 1 1230 56 view .LVU4116
	.loc 1 1230 98 view .LVU4117
	.loc 1 1230 143 view .LVU4118
.LBB2590:
	.loc 1 1230 148 view .LVU4119
	.loc 1 1230 398 view .LVU4120
	.loc 1 1230 404 view .LVU4121
	.loc 1 1230 1509 view .LVU4122
.LBE2590:
.LBE2589:
.LBE2594:
.LBE2597:
.LBE2601:
.LBE2614:
	.loc 1 1230 1533 view .LVU4123
	.loc 1 1230 1586 view .LVU4124
	.loc 1 1230 1696 view .LVU4125
.LBB2615:
.LBB2602:
.LBB2598:
.LBB2595:
.LBB2593:
.LBB2591:
	.loc 1 1230 1711 view .LVU4126
	.loc 1 1230 1994 view .LVU4127
	.loc 1 1230 2042 view .LVU4128
	.loc 1 1230 2080 view .LVU4129
	.loc 1 1230 2085 view .LVU4130
	.loc 1 1230 2644 view .LVU4131
	.loc 1 1230 3268 is_stmt 0 view .LVU4132
	ldr	r3, .L472+16
	str	r3, [sp, #104]
	.loc 1 1230 3310 is_stmt 1 view .LVU4133
	.loc 1 1230 3317 view .LVU4134
.LVL888:
	.loc 1 1230 3340 view .LVU4135
	.loc 1 1230 3340 is_stmt 0 view .LVU4136
.LBE2591:
	.loc 1 1230 3374 is_stmt 1 view .LVU4137
	.loc 1 1230 3379 view .LVU4138
	.loc 1 1230 3402 view .LVU4139
	.loc 1 1230 3530 view .LVU4140
	.loc 1 1230 17 view .LVU4141
.LBB2592:
	.loc 1 1230 30 view .LVU4142
	.loc 1 1230 51 is_stmt 0 view .LVU4143
	movs	r3, #0
	strh	r3, [sp, #9]	@ unaligned
	strb	r3, [sp, #11]
	movs	r2, #2
.LVL889:
	.loc 1 1230 51 view .LVU4144
	strb	r2, [sp, #8]
	strb	r3, [sp, #10]
	.loc 1 1230 176 is_stmt 1 view .LVU4145
	.loc 1 1230 186 is_stmt 0 view .LVU4146
	ldr	r2, [sp, #8]
	str	r2, [sp, #100]
	.loc 1 1230 186 view .LVU4147
.LBE2592:
.LBE2593:
	.loc 1 1230 12 is_stmt 1 view .LVU4148
	.loc 1 1230 19 view .LVU4149
	.loc 1 1230 40 is_stmt 0 view .LVU4150
	mov	r2, r3
.LVL890:
	.loc 1 1230 40 view .LVU4151
	bfi	r2, r3, #0, #1
.LVL891:
	.loc 1 1230 40 view .LVU4152
	bfi	r2, r3, #1, #1
	bfi	r2, r3, #2, #1
	bfi	r2, r3, #3, #3
	movs	r1, #1
	bfi	r2, r1, #6, #3
	movs	r1, #8
	bfi	r2, r1, #9, #10
	.loc 1 1230 175 is_stmt 1 view .LVU4153
	ubfx	r2, r2, #0, #19
.LVL892:
	.loc 1 1230 175 is_stmt 0 view .LVU4154
	ldr	r1, .L472+8
	add	r0, sp, #88
.LVL893:
	.loc 1 1230 175 view .LVU4155
	bl	z_log_msg2_finalize
.LVL894:
	.loc 1 1230 175 view .LVU4156
.LBE2595:
	.loc 1 1230 14 is_stmt 1 view .LVU4157
	.loc 1 1230 19 view .LVU4158
.LVL895:
	.loc 1 1230 59 view .LVU4159
.LBE2598:
	.loc 1 1230 14 view .LVU4160
	.loc 1 1230 21 view .LVU4161
	.loc 1 1230 21 is_stmt 0 view .LVU4162
.LBE2602:
	.loc 1 1230 73 is_stmt 1 view .LVU4163
	.loc 1 1231 4 view .LVU4164
.L420:
	.loc 1 1231 4 is_stmt 0 view .LVU4165
.LBE2615:
	.loc 1 1403 2 is_stmt 1 view .LVU4166
.LBB2616:
.LBI2616:
	.loc 10 293 30 view .LVU4167
.LBB2617:
	.loc 10 295 2 view .LVU4168
	.loc 10 295 12 is_stmt 0 view .LVU4169
	ldr	r2, [r4, #24]
.LVL896:
	.loc 10 295 12 view .LVU4170
.LBE2617:
.LBE2616:
.LBB2618:
.LBI2618:
	.loc 14 106 20 is_stmt 1 view .LVU4171
.LBB2619:
	.loc 14 108 6 view .LVU4172
	.loc 14 108 7 view .LVU4173
	.loc 14 108 9 view .LVU4174
	.loc 14 108 28 is_stmt 0 view .LVU4175
	ldr	r1, .L472
	ldr	r3, [r1, #160]
	.loc 14 108 33 view .LVU4176
	adds	r3, r3, #1
	str	r3, [r1, #160]
	.loc 14 108 39 is_stmt 1 view .LVU4177
	.loc 14 108 60 is_stmt 0 view .LVU4178
	ldr	r3, [r2, #168]
	.loc 14 108 65 view .LVU4179
	adds	r3, r3, #1
	str	r3, [r2, #168]
	.loc 14 108 71 is_stmt 1 view .LVU4180
.LVL897:
	.loc 14 108 71 is_stmt 0 view .LVU4181
.LBE2619:
.LBE2618:
	.loc 1 1405 2 is_stmt 1 view .LVU4182
	.loc 1 1405 9 is_stmt 0 view .LVU4183
	movs	r0, #2
.L439:
	.loc 1 1406 1 view .LVU4184
	add	sp, sp, #164
	.cfi_remember_state
	.cfi_def_cfa_offset 28
	@ sp needed
	pop	{r4, r5, r6, r7, r8, r9, pc}
.LVL898:
.L428:
	.cfi_restore_state
	.loc 1 1238 2 is_stmt 1 view .LVU4185
	.loc 1 1242 3 view .LVU4186
.LBB2620:
.LBI2620:
	.loc 10 293 30 view .LVU4187
.LBB2621:
	.loc 10 295 2 view .LVU4188
	.loc 10 295 2 is_stmt 0 view .LVU4189
.LBE2621:
.LBE2620:
	.loc 1 1243 47 view .LVU4190
	add	r7, r9, #4
	.loc 1 1242 12 view .LVU4191
	mov	r1, r7
	ldr	r0, [r4, #24]
.LVL899:
	.loc 1 1242 12 view .LVU4192
	bl	net_if_ipv6_addr_lookup_by_iface
.LVL900:
	.loc 1 1246 2 is_stmt 1 view .LVU4193
	.loc 1 1246 5 is_stmt 0 view .LVU4194
	mov	r3, r0
	cmp	r0, #0
	beq	.L420
	.loc 1 1291 3 is_stmt 1 view .LVU4195
	.loc 1 1291 7 is_stmt 0 view .LVU4196
	add	r9, r0, #4
.LVL901:
	.loc 1 1292 3 is_stmt 1 view .LVU4197
	.loc 1 1292 10 is_stmt 0 view .LVU4198
	add	r8, r6, #24
.LVL902:
.LDL1:
	.loc 1 1305 2 is_stmt 1 view .LVU4199
.LBB2622:
.LBI2622:
	.loc 3 951 19 view .LVU4200
.LBB2623:
	.loc 3 953 2 view .LVU4201
.LBB2624:
	.loc 3 953 26 view .LVU4202
	.loc 3 953 153 view .LVU4203
	.loc 3 953 156 is_stmt 0 view .LVU4204
	ldr	r2, [r6, #8]	@ unaligned
.LBE2624:
	.loc 3 955 165 view .LVU4205
	cbnz	r2, .L444
.LBB2625:
	.loc 3 954 20 is_stmt 1 view .LVU4206
.LVL903:
	.loc 3 954 147 view .LVU4207
	.loc 3 954 150 is_stmt 0 view .LVU4208
	ldr	r2, [r6, #12]	@ unaligned
.LBE2625:
	.loc 3 953 171 view .LVU4209
	cmp	r2, #0
	bne	.L445
.LBB2626:
	.loc 3 955 20 is_stmt 1 view .LVU4210
.LVL904:
	.loc 3 955 147 view .LVU4211
	.loc 3 955 150 is_stmt 0 view .LVU4212
	ldr	r2, [r6, #16]	@ unaligned
.LBE2626:
	.loc 3 954 165 view .LVU4213
	cmp	r2, #0
	bne	.L446
.LBB2627:
	.loc 3 956 20 is_stmt 1 view .LVU4214
.LVL905:
	.loc 3 956 147 view .LVU4215
	.loc 3 956 150 is_stmt 0 view .LVU4216
	ldr	r2, [r6, #20]	@ unaligned
.LBE2627:
	.loc 3 955 165 view .LVU4217
	cmp	r2, #0
	beq	.L447
	movs	r2, #0
	b	.L430
.LVL906:
.L444:
	.loc 3 955 165 view .LVU4218
	movs	r2, #0
.L430:
.LVL907:
	.loc 3 955 165 view .LVU4219
.LBE2623:
.LBE2622:
	.loc 1 1305 5 view .LVU4220
	cmp	r2, #0
	beq	.L431
	.loc 1 1307 3 is_stmt 1 view .LVU4221
.LVL908:
.LBB2629:
.LBI2629:
	.loc 3 967 19 view .LVU4222
.LBB2630:
	.loc 3 969 2 view .LVU4223
.LBB2631:
	.loc 3 969 26 view .LVU4224
	.loc 3 969 153 view .LVU4225
	.loc 3 969 156 is_stmt 0 view .LVU4226
	ldr	r1, [r6, #24]	@ unaligned
.LBE2631:
	.loc 3 971 306 view .LVU4227
	movw	r2, #767
	cmp	r1, r2
	beq	.L464
	movs	r2, #0
.L432:
.LVL909:
	.loc 3 971 306 view .LVU4228
.LBE2630:
.LBE2629:
	.loc 1 1307 6 view .LVU4229
	cmp	r2, #0
	beq	.L420
	.loc 1 1313 3 is_stmt 1 view .LVU4230
	.loc 1 1313 13 is_stmt 0 view .LVU4231
	ldrsb	r3, [r3, #45]
	.loc 1 1313 6 view .LVU4232
	cmp	r3, #0
	beq	.L465
	.loc 1 1326 3 is_stmt 1 view .LVU4233
.LVL910:
.LBB2636:
.LBI2636:
	.loc 3 1219 20 view .LVU4234
.LBE2636:
	.loc 3 1221 2 view .LVU4235
.LBB2654:
.LBB2637:
.LBI2637:
	.loc 3 1198 20 view .LVU4236
.LBE2637:
.LBE2654:
	.loc 3 1204 2 view .LVU4237
.LBB2655:
.LBB2646:
.LBB2638:
	.loc 3 1204 7 view .LVU4238
	.loc 3 1204 132 view .LVU4239
	.loc 3 1204 141 is_stmt 0 view .LVU4240
	mov	r3, #-1
	strb	r3, [r6, #24]
	movs	r3, #0
	movs	r2, #2
	strb	r2, [r6, #25]
	.loc 3 1204 211 is_stmt 1 view .LVU4241
	.loc 3 1204 216 view .LVU4242
	.loc 3 1204 264 view .LVU4243
.LBE2638:
.LBE2646:
.LBE2655:
	.loc 3 1204 12 view .LVU4244
	.loc 3 1205 2 view .LVU4245
.LBB2656:
.LBB2647:
.LBB2639:
	.loc 3 1205 7 view .LVU4246
.LVL911:
	.loc 3 1205 132 view .LVU4247
	.loc 3 1205 141 is_stmt 0 view .LVU4248
	strb	r3, [r6, #26]
	strb	r3, [r6, #27]
	.loc 3 1205 211 is_stmt 1 view .LVU4249
	.loc 3 1205 216 view .LVU4250
	.loc 3 1205 264 view .LVU4251
.LBE2639:
.LBE2647:
.LBE2656:
	.loc 3 1205 12 view .LVU4252
	.loc 3 1206 2 view .LVU4253
.LBB2657:
.LBB2648:
.LBB2640:
	.loc 3 1206 7 view .LVU4254
.LVL912:
	.loc 3 1206 132 view .LVU4255
	.loc 3 1206 141 is_stmt 0 view .LVU4256
	strb	r3, [r6, #28]
	strb	r3, [r6, #29]
	.loc 3 1206 211 is_stmt 1 view .LVU4257
	.loc 3 1206 216 view .LVU4258
	.loc 3 1206 264 view .LVU4259
.LBE2640:
.LBE2648:
.LBE2657:
	.loc 3 1206 12 view .LVU4260
	.loc 3 1207 2 view .LVU4261
.LBB2658:
.LBB2649:
.LBB2641:
	.loc 3 1207 7 view .LVU4262
.LVL913:
	.loc 3 1207 132 view .LVU4263
	.loc 3 1207 141 is_stmt 0 view .LVU4264
	strb	r3, [r6, #30]
	strb	r3, [r6, #31]
	.loc 3 1207 211 is_stmt 1 view .LVU4265
	.loc 3 1207 216 view .LVU4266
	.loc 3 1207 264 view .LVU4267
.LBE2641:
.LBE2649:
.LBE2658:
	.loc 3 1207 12 view .LVU4268
	.loc 3 1208 2 view .LVU4269
.LBB2659:
.LBB2650:
.LBB2642:
	.loc 3 1208 7 view .LVU4270
.LVL914:
	.loc 3 1208 132 view .LVU4271
	.loc 3 1208 141 is_stmt 0 view .LVU4272
	strb	r3, [r6, #32]
	strb	r3, [r6, #33]
	.loc 3 1208 211 is_stmt 1 view .LVU4273
	.loc 3 1208 216 view .LVU4274
	.loc 3 1208 264 view .LVU4275
.LBE2642:
.LBE2650:
.LBE2659:
	.loc 3 1208 12 view .LVU4276
	.loc 3 1209 2 view .LVU4277
.LBB2660:
.LBB2651:
.LBB2643:
	.loc 3 1209 7 view .LVU4278
.LVL915:
	.loc 3 1209 132 view .LVU4279
	.loc 3 1209 141 is_stmt 0 view .LVU4280
	strb	r3, [r6, #34]
	strb	r3, [r6, #35]
	.loc 3 1209 211 is_stmt 1 view .LVU4281
	.loc 3 1209 216 view .LVU4282
	.loc 3 1209 264 view .LVU4283
.LBE2643:
.LBE2651:
.LBE2660:
	.loc 3 1209 12 view .LVU4284
	.loc 3 1210 2 view .LVU4285
.LBB2661:
.LBB2652:
.LBB2644:
	.loc 3 1210 7 view .LVU4286
.LVL916:
	.loc 3 1210 132 view .LVU4287
	.loc 3 1210 141 is_stmt 0 view .LVU4288
	strb	r3, [r6, #36]
	strb	r3, [r6, #37]
	.loc 3 1210 211 is_stmt 1 view .LVU4289
	.loc 3 1210 216 view .LVU4290
	.loc 3 1210 264 view .LVU4291
.LBE2644:
.LBE2652:
.LBE2661:
	.loc 3 1210 12 view .LVU4292
	.loc 3 1211 2 view .LVU4293
.LBB2662:
.LBB2653:
.LBB2645:
	.loc 3 1211 7 view .LVU4294
.LVL917:
	.loc 3 1211 132 view .LVU4295
	.loc 3 1211 141 is_stmt 0 view .LVU4296
	strb	r3, [r6, #38]
	movs	r3, #1
	strb	r3, [r6, #39]
	.loc 3 1211 211 is_stmt 1 view .LVU4297
	.loc 3 1211 216 view .LVU4298
	.loc 3 1211 264 view .LVU4299
.LBE2645:
.LBE2653:
.LBE2662:
	.loc 3 1211 12 view .LVU4300
.LVL918:
	.loc 1 1328 3 view .LVU4301
.LBB2663:
	.loc 1 1328 8 view .LVU4302
	.loc 1 1328 155 view .LVU4303
.LBB2664:
	.loc 1 1328 184 view .LVU4304
.LBB2665:
.LBI2665:
	.loc 10 293 30 view .LVU4305
.LBB2666:
	.loc 10 295 2 view .LVU4306
	.loc 10 295 2 is_stmt 0 view .LVU4307
.LBE2666:
.LBE2665:
	.loc 1 1328 350 view .LVU4308
	mov	r1, r8
	ldr	r0, [r4, #24]
.LVL919:
	.loc 1 1328 350 view .LVU4309
	bl	net_if_ipv6_select_src_addr
.LVL920:
	mov	r3, r0
.LVL921:
	.loc 1 1328 433 is_stmt 1 view .LVU4310
	.loc 1 1328 436 is_stmt 0 view .LVU4311
	add	r5, sp, #48
.LVL922:
	.loc 1 1328 436 view .LVU4312
	ldr	r0, [r0]	@ unaligned
.LVL923:
	.loc 1 1328 436 view .LVU4313
	ldr	r1, [r3, #4]	@ unaligned
	ldr	r2, [r3, #8]	@ unaligned
	ldr	r3, [r3, #12]	@ unaligned
.LVL924:
	.loc 1 1328 436 view .LVU4314
	stmia	r5!, {r0, r1, r2, r3}
.LBE2664:
	.loc 1 1328 164 view .LVU4315
	add	r7, r6, #8
.LVL925:
	.loc 1 1328 164 view .LVU4316
	add	r5, sp, #48
	ldmia	r5!, {r0, r1, r2, r3}
	str	r0, [r6, #8]	@ unaligned
	str	r1, [r6, #12]	@ unaligned
	str	r2, [r6, #16]	@ unaligned
	str	r3, [r6, #20]	@ unaligned
	.loc 1 1328 448 is_stmt 1 view .LVU4317
	.loc 1 1328 453 view .LVU4318
	.loc 1 1328 501 view .LVU4319
.LBE2663:
	.loc 1 1328 13 view .LVU4320
	.loc 1 1333 3 view .LVU4321
.LVL926:
	.loc 1 1334 3 view .LVU4322
	.loc 1 1335 3 view .LVU4323
	.loc 1 1336 3 view .LVU4324
	.loc 1 1335 9 is_stmt 0 view .LVU4325
	movs	r5, #32
.LVL927:
.L436:
	.loc 1 1383 2 is_stmt 1 view .LVU4326
	.loc 1 1383 16 is_stmt 0 view .LVU4327
	ldrb	r3, [sp, #16]	@ zero_extendqisi2
	.loc 1 1383 5 view .LVU4328
	cbz	r3, .L438
	.loc 1 1384 3 is_stmt 1 view .LVU4329
.LVL928:
.LBB2667:
.LBI2667:
	.loc 10 293 30 view .LVU4330
.LBB2668:
	.loc 10 295 2 view .LVU4331
	.loc 10 295 2 is_stmt 0 view .LVU4332
.LBE2668:
.LBE2667:
	.loc 1 1384 8 view .LVU4333
	movs	r3, #0
	str	r3, [sp]
	add	r2, sp, #12
	add	r1, r6, #8
	ldr	r0, [r4, #24]
	bl	net_ipv6_nbr_add
.LVL929:
	.loc 1 1384 6 view .LVU4334
	cmp	r0, #0
	beq	.L420
.L438:
	.loc 1 1392 2 is_stmt 1 view .LVU4335
.LVL930:
.LBB2669:
.LBI2669:
	.loc 10 293 30 view .LVU4336
.LBB2670:
	.loc 10 295 2 view .LVU4337
	.loc 10 295 2 is_stmt 0 view .LVU4338
.LBE2670:
.LBE2669:
	.loc 1 1392 7 view .LVU4339
	str	r5, [sp]
	mov	r3, r9
	mov	r2, r8
	mov	r1, r7
	ldr	r0, [r4, #24]
	bl	net_ipv6_send_na
.LVL931:
	.loc 1 1392 5 view .LVU4340
	cmp	r0, #0
	beq	.L466
	.loc 1 1400 9 view .LVU4341
	movs	r0, #2
	b	.L439
.LVL932:
.L445:
.LBB2671:
.LBB2628:
	.loc 3 955 165 view .LVU4342
	movs	r2, #0
	b	.L430
.LVL933:
.L446:
	.loc 3 955 165 view .LVU4343
	movs	r2, #0
	b	.L430
.LVL934:
.L447:
	.loc 3 955 165 view .LVU4344
	movs	r2, #1
	b	.L430
.LVL935:
.L464:
	.loc 3 955 165 view .LVU4345
.LBE2628:
.LBE2671:
.LBB2672:
.LBB2635:
.LBB2632:
	.loc 3 970 20 is_stmt 1 view .LVU4346
	.loc 3 970 147 view .LVU4347
	.loc 3 970 150 is_stmt 0 view .LVU4348
	ldr	r2, [r6, #28]	@ unaligned
.LBE2632:
	.loc 3 969 312 view .LVU4349
	cbnz	r2, .L449
.LBB2633:
	.loc 3 971 20 is_stmt 1 view .LVU4350
.LVL936:
	.loc 3 971 147 view .LVU4351
	.loc 3 971 150 is_stmt 0 view .LVU4352
	ldr	r2, [r6, #32]	@ unaligned
.LBE2633:
	.loc 3 970 174 view .LVU4353
	cmp	r2, #16777216
	beq	.L467
	.loc 3 971 306 view .LVU4354
	movs	r2, #0
	b	.L432
.L467:
.LBB2634:
	.loc 3 972 22 is_stmt 1 view .LVU4355
.LVL937:
	.loc 3 972 149 view .LVU4356
	.loc 3 972 152 is_stmt 0 view .LVU4357
	ldr	r2, [r6, #36]	@ unaligned
.LBE2634:
	.loc 3 972 162 view .LVU4358
	uxtb	r2, r2
	.loc 3 971 306 view .LVU4359
	cmp	r2, #255
	beq	.L451
	movs	r2, #0
	b	.L432
.LVL938:
.L449:
	.loc 3 971 306 view .LVU4360
	movs	r2, #0
	b	.L432
.LVL939:
.L451:
	.loc 3 971 306 view .LVU4361
	movs	r2, #1
	b	.L432
.LVL940:
.L465:
	.loc 3 971 306 view .LVU4362
.LBE2635:
.LBE2672:
	.loc 1 1314 4 is_stmt 1 view .LVU4363
.LBB2673:
	.loc 1 1314 9 view .LVU4364
.LBE2673:
	.loc 1 1314 259 view .LVU4365
	.loc 1 1320 4 view .LVU4366
.LBB2674:
.LBI2674:
	.loc 10 293 30 view .LVU4367
.LBB2675:
	.loc 10 295 2 view .LVU4368
	.loc 10 295 12 is_stmt 0 view .LVU4369
	ldr	r0, [r4, #24]
.LVL941:
	.loc 10 295 12 view .LVU4370
.LBE2675:
.LBE2674:
.LBB2676:
.LBI2676:
	.loc 1 705 19 is_stmt 1 view .LVU4371
.LBB2677:
	.loc 1 707 2 view .LVU4372
.LBB2678:
.LBI2678:
	.loc 3 831 19 view .LVU4373
.LBE2678:
.LBE2677:
.LBE2676:
	.loc 3 833 2 view .LVU4374
.LBB2704:
.LBB2698:
.LBB2680:
.LBB2679:
	.loc 3 833 26 view .LVU4375
	.loc 3 833 153 view .LVU4376
	.loc 3 833 156 is_stmt 0 view .LVU4377
	ldrh	r2, [r9]	@ unaligned
.LVL942:
	.loc 3 833 156 view .LVU4378
.LBE2679:
.LBE2680:
	.loc 1 707 5 view .LVU4379
	movw	r3, #33022
	cmp	r2, r3
	beq	.L468
	.loc 1 712 2 is_stmt 1 view .LVU4380
	mov	r1, r9
	bl	net_if_ipv6_dad_failed
.LVL943:
	.loc 1 714 2 view .LVU4381
	.loc 1 714 2 is_stmt 0 view .LVU4382
.LBE2698:
.LBE2704:
	.loc 1 1322 4 is_stmt 1 view .LVU4383
	b	.L420
.L473:
	.align	2
.L472:
	.word	net_stats
	.word	.LC19
	.word	log_const_net_ipv6
	.word	.LC20
	.word	.LC21
.LVL944:
.L468:
.LBB2705:
.LBB2699:
	.loc 1 708 3 view .LVU4384
.LBB2681:
	.loc 1 708 8 view .LVU4385
	.loc 1 708 57 view .LVU4386
	.loc 1 708 14 view .LVU4387
	.loc 1 708 2 view .LVU4388
.LBE2681:
.LBE2699:
.LBE2705:
	.loc 16 120 2 view .LVU4389
.LBB2706:
.LBB2700:
.LBB2694:
	.loc 1 708 41 view .LVU4390
	.loc 1 708 107 view .LVU4391
	.loc 1 708 206 view .LVU4392
.LBB2682:
	.loc 1 708 215 view .LVU4393
	.loc 1 708 226 view .LVU4394
	.loc 1 708 314 view .LVU4395
	.loc 1 708 319 view .LVU4396
	.loc 1 708 321 view .LVU4397
.LBE2682:
.LBE2694:
.LBE2700:
.LBE2706:
	.loc 1 708 3 view .LVU4398
	.loc 1 708 3 view .LVU4399
.LBB2707:
.LBB2701:
.LBB2695:
.LBB2691:
	.loc 1 708 85 view .LVU4400
.LBB2683:
	.loc 1 708 90 view .LVU4401
	.loc 1 708 101 view .LVU4402
.LBE2683:
.LBE2691:
.LBE2695:
.LBE2701:
.LBE2707:
	.loc 1 708 3 view .LVU4403
	.loc 1 708 217 view .LVU4404
	.loc 1 708 2 view .LVU4405
	.loc 1 708 31 view .LVU4406
	.loc 1 708 4 view .LVU4407
	.loc 1 708 24 view .LVU4408
	.loc 1 708 48 view .LVU4409
	.loc 1 708 23 view .LVU4410
	.loc 1 708 41 view .LVU4411
	.loc 1 708 61 view .LVU4412
	.loc 1 708 108 view .LVU4413
	.loc 1 708 140 view .LVU4414
	.loc 1 708 13 view .LVU4415
	.loc 1 708 55 view .LVU4416
	.loc 1 708 97 view .LVU4417
	.loc 1 708 142 view .LVU4418
	.loc 1 708 147 view .LVU4419
	.loc 1 708 402 view .LVU4420
	.loc 1 708 408 view .LVU4421
	.loc 1 708 1533 view .LVU4422
	.loc 1 708 1557 view .LVU4423
	.loc 1 708 1615 view .LVU4424
	.loc 1 708 1730 view .LVU4425
	.loc 1 708 1745 view .LVU4426
	.loc 1 708 2033 view .LVU4427
	.loc 1 708 2081 view .LVU4428
	.loc 1 708 3389 view .LVU4429
	.loc 1 708 3396 view .LVU4430
	.loc 1 708 3419 view .LVU4431
	.loc 1 708 3453 view .LVU4432
	.loc 1 708 3458 view .LVU4433
	.loc 1 708 3481 view .LVU4434
	.loc 1 708 3609 view .LVU4435
	.loc 1 708 16 view .LVU4436
.LBB2708:
.LBB2702:
.LBB2696:
.LBB2692:
.LBB2689:
	.loc 1 708 11 view .LVU4437
	.loc 1 708 16 view .LVU4438
	.loc 1 708 39 view .LVU4439
	.loc 1 708 159 view .LVU4440
	.loc 1 708 285 view .LVU4441
	.loc 1 708 488 view .LVU4442
	.loc 1 708 5 view .LVU4443
	.loc 1 708 7 view .LVU4444
	.loc 1 708 20 view .LVU4445
.LBB2684:
	.loc 1 708 3 view .LVU4446
	.loc 1 708 217 view .LVU4447
	.loc 1 708 2 view .LVU4448
	.loc 1 708 31 view .LVU4449
	.loc 1 708 60 view .LVU4450
	.loc 1 708 80 view .LVU4451
	.loc 1 708 104 view .LVU4452
	.loc 1 708 27 view .LVU4453
	.loc 1 708 45 view .LVU4454
	.loc 1 708 65 view .LVU4455
	.loc 1 708 112 view .LVU4456
	.loc 1 708 144 view .LVU4457
	.loc 1 708 13 view .LVU4458
	.loc 1 708 55 view .LVU4459
	.loc 1 708 97 view .LVU4460
	.loc 1 708 142 view .LVU4461
.LBB2685:
	.loc 1 708 147 view .LVU4462
	.loc 1 708 402 view .LVU4463
	.loc 1 708 408 view .LVU4464
	.loc 1 708 1533 view .LVU4465
.LBE2685:
.LBE2684:
.LBE2689:
.LBE2692:
.LBE2696:
.LBE2702:
.LBE2708:
	.loc 1 708 1557 view .LVU4466
	.loc 1 708 1615 view .LVU4467
	.loc 1 708 1730 view .LVU4468
.LBB2709:
.LBB2703:
.LBB2697:
.LBB2693:
.LBB2690:
.LBB2688:
.LBB2686:
	.loc 1 708 1745 view .LVU4469
	.loc 1 708 2033 view .LVU4470
	.loc 1 708 2081 view .LVU4471
	.loc 1 708 2119 view .LVU4472
	.loc 1 708 2124 view .LVU4473
	.loc 1 708 2713 view .LVU4474
	.loc 1 708 3342 is_stmt 0 view .LVU4475
	ldr	r3, .L474
	str	r3, [sp, #152]
	.loc 1 708 3389 is_stmt 1 view .LVU4476
	.loc 1 708 3396 view .LVU4477
.LVL945:
	.loc 1 708 3419 view .LVU4478
	.loc 1 708 3419 is_stmt 0 view .LVU4479
.LBE2686:
	.loc 1 708 3453 is_stmt 1 view .LVU4480
	.loc 1 708 3458 view .LVU4481
	.loc 1 708 3481 view .LVU4482
	.loc 1 708 3609 view .LVU4483
	.loc 1 708 16 view .LVU4484
.LBB2687:
	.loc 1 708 29 view .LVU4485
	.loc 1 708 50 is_stmt 0 view .LVU4486
	movs	r3, #0
	strh	r3, [sp, #9]	@ unaligned
	strb	r3, [sp, #11]
	movs	r2, #2
	strb	r2, [sp, #8]
	strb	r3, [sp, #10]
	.loc 1 708 175 is_stmt 1 view .LVU4487
	.loc 1 708 185 is_stmt 0 view .LVU4488
	ldr	r2, [sp, #8]
	str	r2, [sp, #148]
	.loc 1 708 185 view .LVU4489
.LBE2687:
.LBE2688:
	.loc 1 708 11 is_stmt 1 view .LVU4490
	.loc 1 708 18 view .LVU4491
	.loc 1 708 39 is_stmt 0 view .LVU4492
	mov	r2, r3
.LVL946:
	.loc 1 708 39 view .LVU4493
	bfi	r2, r3, #0, #1
.LVL947:
	.loc 1 708 39 view .LVU4494
	bfi	r2, r3, #1, #1
	bfi	r2, r3, #2, #1
	bfi	r2, r3, #3, #3
	movs	r1, #1
	bfi	r2, r1, #6, #3
	movs	r1, #8
	bfi	r2, r1, #9, #10
	.loc 1 708 174 is_stmt 1 view .LVU4495
	ubfx	r2, r2, #0, #19
.LVL948:
	.loc 1 708 174 is_stmt 0 view .LVU4496
	ldr	r1, .L474+4
	add	r0, sp, #136
.LVL949:
	.loc 1 708 174 view .LVU4497
	bl	z_log_msg2_finalize
.LVL950:
	.loc 1 708 174 view .LVU4498
.LBE2690:
	.loc 1 708 13 is_stmt 1 view .LVU4499
	.loc 1 708 18 view .LVU4500
.LVL951:
	.loc 1 708 58 view .LVU4501
.LBE2693:
	.loc 1 708 13 view .LVU4502
	.loc 1 708 20 view .LVU4503
	.loc 1 708 20 is_stmt 0 view .LVU4504
.LBE2697:
	.loc 1 708 77 is_stmt 1 view .LVU4505
	.loc 1 709 3 view .LVU4506
	.loc 1 709 9 is_stmt 0 view .LVU4507
	b	.L420
.LVL952:
.L431:
	.loc 1 709 9 view .LVU4508
.LBE2703:
.LBE2709:
	.loc 1 1340 2 is_stmt 1 view .LVU4509
	.loc 1 1340 45 is_stmt 0 view .LVU4510
	add	r5, r6, #8
.LVL953:
.LBB2710:
.LBI2710:
	.loc 3 622 19 is_stmt 1 view .LVU4511
.LBB2711:
	.loc 3 624 2 view .LVU4512
	.loc 3 624 9 is_stmt 0 view .LVU4513
	movs	r1, #0
	mov	r0, r5
.LVL954:
	.loc 3 624 9 view .LVU4514
	bl	net_if_ipv6_addr_lookup
.LVL955:
	.loc 3 624 9 view .LVU4515
.LBE2711:
.LBE2710:
	.loc 1 1340 5 view .LVU4516
	cmp	r0, #0
	bne	.L420
	.loc 1 1347 2 is_stmt 1 view .LVU4517
.LVL956:
.LBB2712:
.LBI2712:
	.loc 3 967 19 view .LVU4518
.LBB2713:
	.loc 3 969 2 view .LVU4519
.LBB2714:
	.loc 3 969 26 view .LVU4520
	.loc 3 969 153 view .LVU4521
	.loc 3 969 156 is_stmt 0 view .LVU4522
	ldr	r2, [r6, #24]	@ unaligned
.LBE2714:
	.loc 3 971 306 view .LVU4523
	movw	r3, #767
	cmp	r2, r3
	beq	.L469
	movs	r3, #0
.L437:
.LVL957:
	.loc 3 971 306 view .LVU4524
.LBE2713:
.LBE2712:
	.loc 1 1347 5 view .LVU4525
	cbz	r3, .L470
	.loc 1 1349 10 view .LVU4526
	mov	r8, r5
.LVL958:
	.loc 1 1350 9 view .LVU4527
	movs	r5, #96
	b	.L436
.LVL959:
.L469:
.LBB2719:
.LBB2718:
.LBB2715:
	.loc 3 970 20 is_stmt 1 view .LVU4528
	.loc 3 970 147 view .LVU4529
	.loc 3 970 150 is_stmt 0 view .LVU4530
	ldr	r3, [r6, #28]	@ unaligned
.LBE2715:
	.loc 3 969 312 view .LVU4531
	cbnz	r3, .L453
.LBB2716:
	.loc 3 971 20 is_stmt 1 view .LVU4532
.LVL960:
	.loc 3 971 147 view .LVU4533
	.loc 3 971 150 is_stmt 0 view .LVU4534
	ldr	r3, [r6, #32]	@ unaligned
.LBE2716:
	.loc 3 970 174 view .LVU4535
	cmp	r3, #16777216
	beq	.L471
	.loc 3 971 306 view .LVU4536
	movs	r3, #0
	b	.L437
.L471:
.LBB2717:
	.loc 3 972 22 is_stmt 1 view .LVU4537
.LVL961:
	.loc 3 972 149 view .LVU4538
	.loc 3 972 152 is_stmt 0 view .LVU4539
	ldr	r3, [r6, #36]	@ unaligned
.LBE2717:
	.loc 3 972 162 view .LVU4540
	uxtb	r3, r3
	.loc 3 971 306 view .LVU4541
	cmp	r3, #255
	beq	.L455
	movs	r3, #0
	b	.L437
.LVL962:
.L453:
	.loc 3 971 306 view .LVU4542
	movs	r3, #0
	b	.L437
.LVL963:
.L455:
	.loc 3 971 306 view .LVU4543
	movs	r3, #1
	b	.L437
.LVL964:
.L470:
	.loc 3 971 306 view .LVU4544
.LBE2718:
.LBE2719:
	.loc 1 1355 2 is_stmt 1 view .LVU4545
	.loc 1 1361 2 view .LVU4546
	.loc 1 1365 3 view .LVU4547
.LBB2720:
.LBI2720:
	.loc 10 293 30 view .LVU4548
.LBB2721:
	.loc 10 295 2 view .LVU4549
	.loc 10 295 2 is_stmt 0 view .LVU4550
.LBE2721:
.LBE2720:
	.loc 1 1365 12 view .LVU4551
	mov	r1, r8
	ldr	r0, [r4, #24]
	bl	net_if_ipv6_addr_lookup_by_iface
.LVL965:
	.loc 1 1370 2 is_stmt 1 view .LVU4552
	.loc 1 1370 5 is_stmt 0 view .LVU4553
	cmp	r0, #0
	beq	.L420
	.loc 1 1371 3 is_stmt 1 view .LVU4554
.LVL966:
	.loc 1 1372 3 view .LVU4555
	.loc 1 1373 3 view .LVU4556
	.loc 1 1373 7 is_stmt 0 view .LVU4557
	add	r9, r0, #4
.LVL967:
	.loc 1 1374 3 is_stmt 1 view .LVU4558
	.loc 1 1376 3 view .LVU4559
	.loc 1 1372 10 is_stmt 0 view .LVU4560
	mov	r8, r5
	.loc 1 1374 9 view .LVU4561
	movs	r5, #96
.LVL968:
	.loc 1 1376 3 view .LVU4562
	b	.L436
.LVL969:
.L466:
	.loc 1 1394 3 is_stmt 1 view .LVU4563
	mov	r0, r4
	bl	net_pkt_unref
.LVL970:
	.loc 1 1395 3 view .LVU4564
	.loc 1 1395 10 is_stmt 0 view .LVU4565
	movs	r0, #0
	b	.L439
.L475:
	.align	2
.L474:
	.word	.LC10
	.word	log_const_net_ipv6
	.cfi_endproc
.LFE974:
	.size	handle_ns_input, .-handle_ns_input
	.section	.text.net_ipv6_start_dad,"ax",%progbits
	.align	1
	.global	net_ipv6_start_dad
	.syntax unified
	.thumb
	.thumb_func
	.fpu fpv4-sp-d16
	.type	net_ipv6_start_dad, %function
net_ipv6_start_dad:
.LVL971:
.LFB963:
	.loc 1 700 1 is_stmt 1 view -0
	.cfi_startproc
	@ args = 0, pretend = 0, frame = 0
	@ frame_needed = 0, uses_anonymous_args = 0
	.loc 1 700 1 is_stmt 0 view .LVU4567
	push	{lr}
	.cfi_def_cfa_offset 4
	.cfi_offset 14, -4
	sub	sp, sp, #12
	.cfi_def_cfa_offset 16
	.loc 1 701 2 is_stmt 1 view .LVU4568
	.loc 1 702 5 is_stmt 0 view .LVU4569
	adds	r1, r1, #4
.LVL972:
	.loc 1 701 9 view .LVU4570
	movs	r3, #1
	str	r3, [sp, #4]
	str	r1, [sp]
	movs	r3, #0
	mov	r2, r3
	mov	r1, r3
.LVL973:
	.loc 1 701 9 view .LVU4571
	bl	net_ipv6_send_ns
.LVL974:
	.loc 1 703 1 view .LVU4572
	add	sp, sp, #12
	.cfi_def_cfa_offset 4
	@ sp needed
	ldr	pc, [sp], #4
	.cfi_endproc
.LFE963:
	.size	net_ipv6_start_dad, .-net_ipv6_start_dad
	.section	.text.net_ipv6_prepare_for_send,"ax",%progbits
	.align	1
	.global	net_ipv6_prepare_for_send
	.syntax unified
	.thumb
	.thumb_func
	.fpu fpv4-sp-d16
	.type	net_ipv6_prepare_for_send, %function
net_ipv6_prepare_for_send:
.LVL975:
.LFB966:
	.loc 1 773 1 is_stmt 1 view -0
	.cfi_startproc
	@ args = 0, pretend = 0, frame = 16
	@ frame_needed = 0, uses_anonymous_args = 0
	.loc 1 773 1 is_stmt 0 view .LVU4574
	push	{r4, r5, r6, r7, lr}
	.cfi_def_cfa_offset 20
	.cfi_offset 4, -20
	.cfi_offset 5, -16
	.cfi_offset 6, -12
	.cfi_offset 7, -8
	.cfi_offset 14, -4
	sub	sp, sp, #28
	.cfi_def_cfa_offset 48
	mov	r4, r0
	.loc 1 774 2 is_stmt 1 view .LVU4575
	.loc 1 774 29 is_stmt 0 view .LVU4576
	movs	r3, #0
	str	r3, [sp, #16]
	movs	r2, #40
	str	r2, [sp, #20]
	.loc 1 775 2 is_stmt 1 view .LVU4577
.LVL976:
	.loc 1 776 2 view .LVU4578
	.loc 1 776 17 is_stmt 0 view .LVU4579
	str	r3, [sp, #12]
	.loc 1 777 2 is_stmt 1 view .LVU4580
	.loc 1 778 2 view .LVU4581
	.loc 1 779 2 view .LVU4582
	.loc 1 781 4 view .LVU4583
	.loc 1 781 5 view .LVU4584
	.loc 1 783 2 view .LVU4585
	.loc 1 783 34 is_stmt 0 view .LVU4586
	add	r1, sp, #16
	bl	net_pkt_get_data
.LVL977:
	.loc 1 784 2 is_stmt 1 view .LVU4587
