	.cpu cortex-m4
	.eabi_attribute 27, 1
	.eabi_attribute 28, 1
	.eabi_attribute 20, 1
	.eabi_attribute 21, 1
	.eabi_attribute 23, 3
	.eabi_attribute 24, 1
	.eabi_attribute 25, 1
	.eabi_attribute 26, 1
	.eabi_attribute 30, 1
	.eabi_attribute 34, 1
	.eabi_attribute 38, 1
	.eabi_attribute 18, 4
	.file	"net_pkt.c"
	.text
.Ltext0:
	.cfi_sections	.debug_frame
	.section	.text.pkt_buffer_length,"ax",%progbits
	.align	1
	.arch armv7e-m
	.syntax unified
	.thumb
	.thumb_func
	.fpu fpv4-sp-d16
	.type	pkt_buffer_length, %function
pkt_buffer_length:
.LVL0:
.LFB910:
	.file 1 "/home/sebin/thesis/zephyrproject/zephyr/subsys/net/ip/net_pkt.c"
	.loc 1 954 1 view -0
	.cfi_startproc
	@ args = 0, pretend = 0, frame = 0
	@ frame_needed = 0, uses_anonymous_args = 0
	@ link register save eliminated.
	.loc 1 954 1 is_stmt 0 view .LVU1
	push	{r4, r5}
	.cfi_def_cfa_offset 8
	.cfi_offset 4, -8
	.cfi_offset 5, -4
	mov	r2, r0
.LVL1:
	.loc 1 954 1 view .LVU2
	mov	r0, r1
.LVL2:
	.loc 1 955 2 is_stmt 1 view .LVU3
.LBB360:
.LBI360:
	.file 2 "/home/sebin/thesis/zephyrproject/zephyr/include/net/net_pkt.h"
	.loc 2 329 23 view .LVU4
.LBB361:
	.loc 2 331 2 view .LVU5
	.loc 2 331 12 is_stmt 0 view .LVU6
	ldrb	r5, [r2, #75]	@ zero_extendqisi2
.LVL3:
	.loc 2 331 12 view .LVU7
.LBE361:
.LBE360:
	.loc 1 955 14 view .LVU8
	ubfx	r5, r5, #1, #3
.LVL4:
	.loc 1 956 2 is_stmt 1 view .LVU9
	.loc 1 958 2 view .LVU10
.LBB362:
.LBI362:
	.loc 2 293 30 view .LVU11
.LBB363:
	.loc 2 295 2 view .LVU12
	.loc 2 295 12 is_stmt 0 view .LVU13
	ldr	r4, [r2, #24]
.LVL5:
	.loc 2 295 12 view .LVU14
.LBE363:
.LBE362:
	.loc 1 958 5 view .LVU15
	cbz	r4, .L7
	.loc 1 959 3 is_stmt 1 view .LVU16
.LVL6:
	.loc 2 295 2 view .LVU17
.LBB364:
.LBI364:
	.file 3 "/home/sebin/thesis/zephyrproject/zephyr/include/net/net_if.h"
	.loc 3 786 24 view .LVU18
.LBB365:
	.loc 3 788 2 view .LVU19
	.loc 3 792 2 view .LVU20
	.loc 3 792 14 is_stmt 0 view .LVU21
	ldr	r2, [r4]
.LVL7:
	.loc 3 792 22 view .LVU22
	ldrh	r2, [r2, #24]
.LVL8:
.L2:
	.loc 3 792 22 view .LVU23
.LBE365:
.LBE364:
	.loc 1 965 2 is_stmt 1 view .LVU24
	.loc 1 965 5 is_stmt 0 view .LVU25
	cmp	r5, #2
	beq	.L10
	.loc 1 974 9 is_stmt 1 view .LVU26
	.loc 1 974 12 is_stmt 0 view .LVU27
	cmp	r5, #1
	beq	.L11
	.loc 1 978 3 is_stmt 1 view .LVU28
.LVL9:
	.loc 2 295 2 view .LVU29
.LBB366:
.LBI366:
	.loc 3 568 43 view .LVU30
.LBB367:
	.loc 3 570 2 view .LVU31
	.loc 3 570 5 is_stmt 0 view .LVU32
	cbz	r4, .L6
	.loc 3 570 22 view .LVU33
	ldr	r4, [r4]
.LVL10:
	.loc 3 570 13 view .LVU34
	cbz	r4, .L6
	.loc 3 574 2 is_stmt 1 view .LVU35
	.loc 3 574 22 is_stmt 0 view .LVU36
	ldr	r4, [r4, #4]
.L6:
.LVL11:
	.loc 3 574 22 view .LVU37
.LBE367:
.LBE366:
	.loc 1 978 6 view .LVU38
	ldr	r1, .L13
.LVL12:
	.loc 1 978 6 view .LVU39
	cmp	r4, r1
	beq	.L12
	.loc 1 987 12 view .LVU40
	mov	r2, r0
.LVL13:
	.loc 1 987 12 view .LVU41
	b	.L4
.LVL14:
.L7:
	.loc 1 961 11 view .LVU42
	movs	r2, #0
.LVL15:
	.loc 1 961 11 view .LVU43
	b	.L2
.LVL16:
.L10:
	.loc 1 966 3 is_stmt 1 view .LVU44
	.loc 1 973 3 view .LVU45
	.loc 1 973 11 is_stmt 0 view .LVU46
	cmp	r2, #1280
	it	cc
	movcc	r2, #1280
.LVL17:
.L4:
	.loc 1 991 2 is_stmt 1 view .LVU47
	.loc 1 991 10 is_stmt 0 view .LVU48
	subs	r3, r2, r3
.LVL18:
	.loc 1 993 2 is_stmt 1 view .LVU49
	.loc 1 994 1 is_stmt 0 view .LVU50
	cmp	r0, r3
	it	cs
	movcs	r0, r3
.LVL19:
	.loc 1 994 1 view .LVU51
	pop	{r4, r5}
	.cfi_remember_state
	.cfi_restore 5
	.cfi_restore 4
	.cfi_def_cfa_offset 0
.LVL20:
	.loc 1 994 1 view .LVU52
	bx	lr
.LVL21:
.L11:
	.cfi_restore_state
	.loc 1 975 3 is_stmt 1 view .LVU53
	.loc 1 975 11 is_stmt 0 view .LVU54
	cmp	r2, #576
	it	cc
	movcc	r2, #576
.LVL22:
	.loc 1 975 11 view .LVU55
	b	.L4
.L12:
	.loc 1 980 4 is_stmt 1 view .LVU56
	.loc 1 980 12 is_stmt 0 view .LVU57
	adds	r2, r2, #14
.LVL23:
	.loc 1 980 12 view .LVU58
	b	.L4
.L14:
	.align	2
.L13:
	.word	_net_l2_ETHERNET
	.cfi_endproc
.LFE910:
	.size	pkt_buffer_length, .-pkt_buffer_length
	.section	.text.pkt_estimate_headers_length,"ax",%progbits
	.align	1
	.syntax unified
	.thumb
	.thumb_func
	.fpu fpv4-sp-d16
	.type	pkt_estimate_headers_length, %function
pkt_estimate_headers_length:
.LVL24:
.LFB911:
	.loc 1 999 1 is_stmt 1 view -0
	.cfi_startproc
	@ args = 0, pretend = 0, frame = 0
	@ frame_needed = 0, uses_anonymous_args = 0
	@ link register save eliminated.
	.loc 1 1000 2 view .LVU60
	.loc 1 1002 2 view .LVU61
	.loc 1 1002 5 is_stmt 0 view .LVU62
	cbz	r1, .L21
	.loc 1 1007 2 is_stmt 1 view .LVU63
	.loc 1 1007 5 is_stmt 0 view .LVU64
	cmp	r1, #2
	beq	.L22
	.loc 1 1009 9 is_stmt 1 view .LVU65
	.loc 1 1009 12 is_stmt 0 view .LVU66
	cmp	r1, #1
	beq	.L23
	.loc 1 1000 9 view .LVU67
	movs	r0, #0
.LVL25:
.L17:
	.loc 1 1014 2 is_stmt 1 view .LVU68
	.loc 1 1014 5 is_stmt 0 view .LVU69
	cmp	r2, #6
	beq	.L24
	.loc 1 1016 9 is_stmt 1 view .LVU70
	.loc 1 1016 12 is_stmt 0 view .LVU71
	cmp	r2, #17
	beq	.L25
	.loc 1 1018 9 is_stmt 1 view .LVU72
	.loc 1 1018 12 is_stmt 0 view .LVU73
	cmp	r2, #1
	beq	.L20
	.loc 1 1018 35 discriminator 1 view .LVU74
	cmp	r2, #58
	bne	.L15
.L20:
	.loc 1 1019 3 is_stmt 1 view .LVU75
	.loc 1 1019 11 is_stmt 0 view .LVU76
	adds	r0, r0, #4
.LVL26:
	.loc 1 1019 11 view .LVU77
	bx	lr
.LVL27:
.L22:
	.loc 1 1008 11 view .LVU78
	movs	r0, #40
.LVL28:
	.loc 1 1008 11 view .LVU79
	b	.L17
.LVL29:
.L23:
	.loc 1 1010 11 view .LVU80
	movs	r0, #20
.LVL30:
	.loc 1 1010 11 view .LVU81
	b	.L17
.LVL31:
.L24:
	.loc 1 1015 3 is_stmt 1 view .LVU82
	.loc 1 1015 11 is_stmt 0 view .LVU83
	adds	r0, r0, #28
.LVL32:
	.loc 1 1015 11 view .LVU84
	bx	lr
.L25:
	.loc 1 1017 3 is_stmt 1 view .LVU85
	.loc 1 1017 11 is_stmt 0 view .LVU86
	adds	r0, r0, #8
.LVL33:
	.loc 1 1017 11 view .LVU87
	bx	lr
.LVL34:
.L21:
	.loc 1 1003 10 view .LVU88
	movs	r0, #0
.LVL35:
.L15:
	.loc 1 1025 1 view .LVU89
	bx	lr
	.cfi_endproc
.LFE911:
	.size	pkt_estimate_headers_length, .-pkt_estimate_headers_length
	.section	.text.clone_pkt_attributes,"ax",%progbits
	.align	1
	.syntax unified
	.thumb
	.thumb_func
	.fpu fpv4-sp-d16
	.type	clone_pkt_attributes, %function
clone_pkt_attributes:
.LVL36:
.LFB942:
	.loc 1 1767 1 is_stmt 1 view -0
	.cfi_startproc
	@ args = 0, pretend = 0, frame = 0
	@ frame_needed = 0, uses_anonymous_args = 0
	@ link register save eliminated.
	.loc 1 1768 2 view .LVU91
.LBB368:
.LBI368:
	.loc 2 329 23 view .LVU92
.LBB369:
	.loc 2 331 2 view .LVU93
	.loc 2 331 12 is_stmt 0 view .LVU94
	ldrb	r3, [r0, #75]	@ zero_extendqisi2
	ubfx	r3, r3, #1, #3
.LVL37:
	.loc 2 331 12 view .LVU95
.LBE369:
.LBE368:
.LBB370:
.LBI370:
	.loc 2 334 20 is_stmt 1 view .LVU96
.LBB371:
	.loc 2 336 2 view .LVU97
	.loc 2 336 14 is_stmt 0 view .LVU98
	ldrb	r2, [r1, #75]	@ zero_extendqisi2
	bfi	r2, r3, #1, #3
	strb	r2, [r1, #75]
.LVL38:
	.loc 2 336 14 view .LVU99
.LBE371:
.LBE370:
	.loc 1 1769 2 is_stmt 1 view .LVU100
.LBB372:
.LBI372:
	.loc 2 282 35 view .LVU101
.LBB373:
	.loc 2 284 2 view .LVU102
	.loc 2 284 12 is_stmt 0 view .LVU103
	ldr	r3, [r0, #20]
.LVL39:
	.loc 2 284 12 view .LVU104
.LBE373:
.LBE372:
.LBB374:
.LBI374:
	.loc 2 287 20 is_stmt 1 view .LVU105
.LBB375:
	.loc 2 290 2 view .LVU106
	.loc 2 290 15 is_stmt 0 view .LVU107
	str	r3, [r1, #20]
.LVL40:
	.loc 2 290 15 view .LVU108
.LBE375:
.LBE374:
	.loc 1 1770 2 is_stmt 1 view .LVU109
.LBB376:
.LBI376:
	.loc 2 371 23 view .LVU110
.LBB377:
	.loc 2 373 2 view .LVU111
	.loc 2 373 12 is_stmt 0 view .LVU112
	ldrb	r3, [r0, #72]	@ zero_extendqisi2
.LVL41:
	.loc 2 373 12 view .LVU113
.LBE377:
.LBE376:
.LBB378:
.LBI378:
	.loc 2 376 20 is_stmt 1 view .LVU114
.LBB379:
	.loc 2 378 2 view .LVU115
	.loc 2 378 18 is_stmt 0 view .LVU116
	strb	r3, [r1, #72]
.LVL42:
	.loc 2 378 18 view .LVU117
.LBE379:
.LBE378:
	.loc 1 1771 2 is_stmt 1 view .LVU118
	.loc 2 781 2 view .LVU119
	.loc 2 786 2 view .LVU120
	.loc 2 787 2 view .LVU121
	.loc 1 1772 2 view .LVU122
	.loc 2 822 2 view .LVU123
.LBB380:
.LBI380:
	.loc 2 825 20 view .LVU124
.LBB381:
	.loc 2 828 2 view .LVU125
	.loc 2 828 35 is_stmt 0 view .LVU126
	ldrd	r2, [r0, #32]
	.loc 2 828 24 view .LVU127
	strd	r2, [r1, #32]
	.loc 2 829 2 is_stmt 1 view .LVU128
	.loc 2 829 39 is_stmt 0 view .LVU129
	ldr	r3, [r0, #40]
	.loc 2 829 28 view .LVU130
	str	r3, [r1, #40]
.LVL43:
	.loc 2 829 28 view .LVU131
.LBE381:
.LBE380:
	.loc 1 1773 2 is_stmt 1 view .LVU132
.LBB382:
.LBI382:
	.loc 2 726 23 view .LVU133
.LBB383:
	.loc 2 728 2 view .LVU134
	.loc 2 728 12 is_stmt 0 view .LVU135
	ldrb	r3, [r0, #82]	@ zero_extendqisi2
.LVL44:
	.loc 2 728 12 view .LVU136
.LBE383:
.LBE382:
.LBB384:
.LBI384:
	.loc 2 731 20 is_stmt 1 view .LVU137
.LBB385:
	.loc 2 734 2 view .LVU138
	.loc 2 734 16 is_stmt 0 view .LVU139
	strb	r3, [r1, #82]
.LVL45:
	.loc 2 734 16 view .LVU140
.LBE385:
.LBE384:
	.loc 1 1774 2 is_stmt 1 view .LVU141
	.loc 2 317 2 view .LVU142
	.loc 2 327 1 view .LVU143
	.loc 1 1775 2 view .LVU144
.LBB386:
.LBI386:
	.loc 2 349 19 view .LVU145
.LBB387:
	.loc 2 351 2 view .LVU146
	.loc 2 351 9 is_stmt 0 view .LVU147
	ldrb	r3, [r0, #77]	@ zero_extendqisi2
	ubfx	r3, r3, #1, #1
.LVL46:
	.loc 2 351 9 view .LVU148
.LBE387:
.LBE386:
.LBB388:
.LBI388:
	.loc 2 354 20 is_stmt 1 view .LVU149
.LBB389:
	.loc 2 356 2 view .LVU150
	.loc 2 356 16 is_stmt 0 view .LVU151
	ldrb	r2, [r1, #77]	@ zero_extendqisi2
	bfi	r2, r3, #1, #1
	strb	r2, [r1, #77]
.LVL47:
	.loc 2 356 16 view .LVU152
.LBE389:
.LBE388:
	.loc 1 1776 2 is_stmt 1 view .LVU153
	.loc 2 361 2 view .LVU154
	.loc 2 366 2 view .LVU155
	.loc 1 1778 2 view .LVU156
.LBB390:
.LBI390:
	.loc 2 329 23 view .LVU157
.LBB391:
	.loc 2 331 2 view .LVU158
	.loc 2 331 12 is_stmt 0 view .LVU159
	ldrb	r3, [r0, #75]	@ zero_extendqisi2
	ubfx	r3, r3, #1, #3
.LVL48:
	.loc 2 331 12 view .LVU160
.LBE391:
.LBE390:
	.loc 1 1778 5 view .LVU161
	cmp	r3, #1
	beq	.L29
	.loc 1 1782 9 is_stmt 1 view .LVU162
.LVL49:
	.loc 2 331 2 view .LVU163
	.loc 1 1782 12 is_stmt 0 view .LVU164
	cmp	r3, #2
	beq	.L30
.L26:
	.loc 1 1809 1 view .LVU165
	bx	lr
.L29:
	.loc 1 1779 3 is_stmt 1 view .LVU166
.LVL50:
.LBB392:
.LBI392:
	.loc 2 450 23 view .LVU167
.LBB393:
	.loc 2 452 2 view .LVU168
	.loc 2 452 12 is_stmt 0 view .LVU169
	ldrb	r3, [r0, #78]	@ zero_extendqisi2
.LVL51:
	.loc 2 452 12 view .LVU170
.LBE393:
.LBE392:
.LBB394:
.LBI394:
	.loc 2 455 20 is_stmt 1 view .LVU171
.LBB395:
	.loc 2 458 2 view .LVU172
	.loc 2 458 16 is_stmt 0 view .LVU173
	strb	r3, [r1, #78]
.LVL52:
	.loc 2 458 16 view .LVU174
.LBE395:
.LBE394:
	.loc 1 1780 3 is_stmt 1 view .LVU175
.LBB396:
.LBI396:
	.loc 2 461 23 view .LVU176
.LBB397:
	.loc 2 463 2 view .LVU177
	.loc 2 463 12 is_stmt 0 view .LVU178
	ldrb	r3, [r0, #80]	@ zero_extendqisi2
.LVL53:
	.loc 2 463 12 view .LVU179
.LBE397:
.LBE396:
.LBB398:
.LBI398:
	.loc 2 466 20 is_stmt 1 view .LVU180
.LBB399:
	.loc 2 469 2 view .LVU181
	.loc 2 469 21 is_stmt 0 view .LVU182
	strb	r3, [r1, #80]
	.loc 2 470 1 view .LVU183
	bx	lr
.LVL54:
.L30:
	.loc 2 470 1 view .LVU184
.LBE399:
.LBE398:
	.loc 1 1784 3 is_stmt 1 view .LVU185
.LBB400:
.LBI400:
	.loc 2 544 23 view .LVU186
.LBB401:
	.loc 2 546 2 view .LVU187
	.loc 2 546 12 is_stmt 0 view .LVU188
	ldrb	r3, [r0, #78]	@ zero_extendqisi2
.LVL55:
	.loc 2 546 12 view .LVU189
.LBE401:
.LBE400:
.LBB402:
.LBI402:
	.loc 2 549 20 is_stmt 1 view .LVU190
.LBB403:
	.loc 2 552 2 view .LVU191
	.loc 2 552 22 is_stmt 0 view .LVU192
	strb	r3, [r1, #78]
.LVL56:
	.loc 2 552 22 view .LVU193
.LBE403:
.LBE402:
	.loc 1 1786 3 is_stmt 1 view .LVU194
.LBB404:
.LBI404:
	.loc 2 523 24 view .LVU195
.LBB405:
	.loc 2 525 2 view .LVU196
	.loc 2 525 12 is_stmt 0 view .LVU197
	ldrh	r3, [r0, #80]
.LVL57:
	.loc 2 525 12 view .LVU198
.LBE405:
.LBE404:
.LBB406:
.LBI406:
	.loc 2 528 20 is_stmt 1 view .LVU199
.LBB407:
	.loc 2 530 2 view .LVU200
	.loc 2 530 20 is_stmt 0 view .LVU201
	strh	r3, [r1, #80]	@ movhi
.LVL58:
	.loc 2 530 20 view .LVU202
.LBE407:
.LBE406:
	.loc 1 1787 3 is_stmt 1 view .LVU203
.LBB408:
.LBI408:
	.loc 2 501 23 view .LVU204
.LBB409:
	.loc 2 503 2 view .LVU205
	.loc 2 503 12 is_stmt 0 view .LVU206
	ldrb	r3, [r0, #86]	@ zero_extendqisi2
.LVL59:
	.loc 2 503 12 view .LVU207
.LBE409:
.LBE408:
.LBB410:
.LBI410:
	.loc 2 506 20 is_stmt 1 view .LVU208
.LBB411:
	.loc 2 509 2 view .LVU209
	.loc 2 509 24 is_stmt 0 view .LVU210
	strb	r3, [r1, #86]
.LVL60:
	.loc 2 509 24 view .LVU211
.LBE411:
.LBE410:
	.loc 1 1789 3 is_stmt 1 view .LVU212
.LBB412:
.LBI412:
	.loc 2 533 24 view .LVU213
.LBB413:
	.loc 2 535 2 view .LVU214
	.loc 2 535 12 is_stmt 0 view .LVU215
	ldrh	r3, [r0, #84]
.LVL61:
	.loc 2 535 12 view .LVU216
.LBE413:
.LBE412:
.LBB414:
.LBI414:
	.loc 2 538 20 is_stmt 1 view .LVU217
.LBB415:
	.loc 2 541 2 view .LVU218
	.loc 2 541 27 is_stmt 0 view .LVU219
	strh	r3, [r1, #84]	@ movhi
.LVL62:
	.loc 2 541 27 view .LVU220
.LBE415:
.LBE414:
	.loc 1 1791 3 is_stmt 1 view .LVU221
.LBB416:
.LBI416:
	.loc 2 512 23 view .LVU222
.LBB417:
	.loc 2 514 2 view .LVU223
	.loc 2 514 12 is_stmt 0 view .LVU224
	ldrb	r3, [r0, #87]	@ zero_extendqisi2
.LVL63:
	.loc 2 514 12 view .LVU225
.LBE417:
.LBE416:
.LBB418:
.LBI418:
	.loc 2 517 20 is_stmt 1 view .LVU226
.LBB419:
	.loc 2 520 2 view .LVU227
	.loc 2 520 21 is_stmt 0 view .LVU228
	strb	r3, [r1, #87]
.LVL64:
	.loc 2 520 21 view .LVU229
.LBE419:
.LBE418:
	.loc 1 1809 1 view .LVU230
	b	.L26
	.cfi_endproc
.LFE942:
	.size	clone_pkt_attributes, .-clone_pkt_attributes
	.section	.text.pkt_get_max_len,"ax",%progbits
	.align	1
	.syntax unified
	.thumb
	.thumb_func
	.fpu fpv4-sp-d16
	.type	pkt_get_max_len, %function
pkt_get_max_len:
.LVL65:
.LFB912:
	.loc 1 1028 1 is_stmt 1 view -0
	.cfi_startproc
	@ args = 0, pretend = 0, frame = 0
	@ frame_needed = 0, uses_anonymous_args = 0
	.loc 1 1028 1 is_stmt 0 view .LVU232
	push	{r3, r4, r5, lr}
	.cfi_def_cfa_offset 16
	.cfi_offset 3, -16
	.cfi_offset 4, -12
	.cfi_offset 5, -8
	.cfi_offset 14, -4
	.loc 1 1029 2 is_stmt 1 view .LVU233
	.loc 1 1029 18 is_stmt 0 view .LVU234
	ldr	r4, [r0, #8]
.LVL66:
	.loc 1 1030 2 is_stmt 1 view .LVU235
	.loc 1 1032 2 view .LVU236
	.loc 1 1030 9 is_stmt 0 view .LVU237
	movs	r5, #0
.LVL67:
.L32:
	.loc 1 1032 8 is_stmt 1 view .LVU238
	cbz	r4, .L35
	.loc 1 1033 3 view .LVU239
.LVL68:
.LBB420:
.LBI420:
	.file 4 "/home/sebin/thesis/zephyrproject/zephyr/include/net/buf.h"
	.loc 4 2294 24 view .LVU240
.LBB421:
	.loc 4 2296 2 view .LVU241
	.loc 4 2296 9 is_stmt 0 view .LVU242
	add	r0, r4, #8
	bl	net_buf_simple_max_len
.LVL69:
	.loc 4 2296 9 view .LVU243
.LBE421:
.LBE420:
	.loc 1 1033 8 view .LVU244
	add	r5, r5, r0
.LVL70:
	.loc 1 1034 3 is_stmt 1 view .LVU245
	.loc 1 1034 7 is_stmt 0 view .LVU246
	ldr	r4, [r4]
.LVL71:
	.loc 1 1034 7 view .LVU247
	b	.L32
.L35:
	.loc 1 1037 2 is_stmt 1 view .LVU248
	.loc 1 1038 1 is_stmt 0 view .LVU249
	mov	r0, r5
	pop	{r3, r4, r5, pc}
	.loc 1 1038 1 view .LVU250
	.cfi_endproc
.LFE912:
	.size	pkt_get_max_len, .-pkt_get_max_len
	.section	.text.pkt_cursor_jump,"ax",%progbits
	.align	1
	.syntax unified
	.thumb
	.thumb_func
	.fpu fpv4-sp-d16
	.type	pkt_cursor_jump, %function
pkt_cursor_jump:
.LVL72:
.LFB930:
	.loc 1 1525 1 is_stmt 1 view -0
	.cfi_startproc
	@ args = 0, pretend = 0, frame = 0
	@ frame_needed = 0, uses_anonymous_args = 0
	.loc 1 1525 1 is_stmt 0 view .LVU252
	push	{r3, r4, r5, lr}
	.cfi_def_cfa_offset 16
	.cfi_offset 3, -16
	.cfi_offset 4, -12
	.cfi_offset 5, -8
	.cfi_offset 14, -4
	mov	r4, r0
	mov	r5, r1
	.loc 1 1526 2 is_stmt 1 view .LVU253
.LVL73:
	.loc 1 1528 2 view .LVU254
	.loc 1 1528 22 is_stmt 0 view .LVU255
	ldr	r3, [r0, #12]
	.loc 1 1528 27 view .LVU256
	ldr	r3, [r3]
	.loc 1 1528 14 view .LVU257
	str	r3, [r0, #12]
	.loc 1 1529 2 is_stmt 1 view .LVU258
	.loc 1 1529 8 is_stmt 0 view .LVU259
	b	.L37
.LVL74:
.L45:
.LBB422:
.LBB423:
.LBI423:
	.loc 4 2294 24 is_stmt 1 discriminator 1 view .LVU260
.LBB424:
	.loc 4 2296 2 discriminator 1 view .LVU261
	.loc 4 2296 9 is_stmt 0 discriminator 1 view .LVU262
	adds	r0, r0, #8
.LVL75:
	.loc 4 2296 9 discriminator 1 view .LVU263
	bl	net_buf_simple_max_len
.LVL76:
.L39:
	.loc 4 2296 9 discriminator 1 view .LVU264
.LBE424:
.LBE423:
	.loc 1 1533 3 is_stmt 1 view .LVU265
	.loc 1 1533 6 is_stmt 0 view .LVU266
	cbnz	r0, .L40
	.loc 1 1534 4 is_stmt 1 view .LVU267
	.loc 1 1534 24 is_stmt 0 view .LVU268
	ldr	r3, [r4, #12]
	.loc 1 1534 29 view .LVU269
	ldr	r3, [r3]
	.loc 1 1534 16 view .LVU270
	str	r3, [r4, #12]
.LVL77:
.L37:
	.loc 1 1534 16 view .LVU271
.LBE422:
	.loc 1 1529 8 is_stmt 1 view .LVU272
	.loc 1 1529 15 is_stmt 0 view .LVU273
	ldr	r0, [r4, #12]
	.loc 1 1529 8 view .LVU274
	cbz	r0, .L40
.LBB425:
	.loc 1 1530 3 is_stmt 1 view .LVU275
	.loc 1 1531 41 is_stmt 0 view .LVU276
	cmp	r5, #0
	bne	.L45
	.loc 1 1531 54 discriminator 2 view .LVU277
	ldrh	r0, [r0, #12]
	b	.L39
.L40:
.LBE425:
	.loc 1 1540 2 is_stmt 1 view .LVU278
	.loc 1 1540 12 is_stmt 0 view .LVU279
	ldr	r3, [r4, #12]
	.loc 1 1540 5 view .LVU280
	cbz	r3, .L42
	.loc 1 1541 3 is_stmt 1 view .LVU281
	.loc 1 1541 28 is_stmt 0 view .LVU282
	ldr	r3, [r3, #8]
	.loc 1 1541 15 view .LVU283
	str	r3, [r4, #16]
.L36:
	.loc 1 1545 1 view .LVU284
	pop	{r3, r4, r5, pc}
.LVL78:
.L42:
	.loc 1 1543 3 is_stmt 1 view .LVU285
	.loc 1 1543 15 is_stmt 0 view .LVU286
	movs	r3, #0
	str	r3, [r4, #16]
	.loc 1 1545 1 view .LVU287
	b	.L36
	.cfi_endproc
.LFE930:
	.size	pkt_cursor_jump, .-pkt_cursor_jump
	.section	.text.pkt_cursor_advance,"ax",%progbits
	.align	1
	.syntax unified
	.thumb
	.thumb_func
	.fpu fpv4-sp-d16
	.type	pkt_cursor_advance, %function
pkt_cursor_advance:
.LVL79:
.LFB931:
	.loc 1 1548 1 is_stmt 1 view -0
	.cfi_startproc
	@ args = 0, pretend = 0, frame = 0
	@ frame_needed = 0, uses_anonymous_args = 0
	.loc 1 1548 1 is_stmt 0 view .LVU289
	push	{r3, r4, r5, lr}
	.cfi_def_cfa_offset 16
	.cfi_offset 3, -16
	.cfi_offset 4, -12
	.cfi_offset 5, -8
	.cfi_offset 14, -4
	mov	r4, r0
	.loc 1 1549 2 is_stmt 1 view .LVU290
.LVL80:
	.loc 1 1550 2 view .LVU291
	.loc 1 1552 2 view .LVU292
	.loc 1 1552 13 is_stmt 0 view .LVU293
	ldr	r0, [r0, #12]
.LVL81:
	.loc 1 1552 5 view .LVU294
	cbz	r0, .L46
	mov	r5, r1
	.loc 1 1556 2 is_stmt 1 view .LVU295
	.loc 1 1556 45 is_stmt 0 view .LVU296
	cbnz	r1, .L51
	.loc 1 1556 58 discriminator 2 view .LVU297
	ldrh	r0, [r0, #12]
.LVL82:
.L49:
	.loc 1 1557 2 is_stmt 1 discriminator 4 view .LVU298
	.loc 1 1557 13 is_stmt 0 discriminator 4 view .LVU299
	ldr	r3, [r4, #16]
	.loc 1 1557 27 discriminator 4 view .LVU300
	ldr	r2, [r4, #12]
	.loc 1 1557 32 discriminator 4 view .LVU301
	ldr	r2, [r2, #8]
	.loc 1 1557 19 discriminator 4 view .LVU302
	subs	r3, r3, r2
	.loc 1 1557 5 discriminator 4 view .LVU303
	cmp	r3, r0
	beq	.L52
.LVL83:
.L46:
	.loc 1 1560 1 view .LVU304
	pop	{r3, r4, r5, pc}
.LVL84:
.L51:
.LBB426:
.LBI426:
	.loc 4 2294 24 is_stmt 1 discriminator 1 view .LVU305
.LBB427:
	.loc 4 2296 2 discriminator 1 view .LVU306
	.loc 4 2296 9 is_stmt 0 discriminator 1 view .LVU307
	adds	r0, r0, #8
.LVL85:
	.loc 4 2296 9 discriminator 1 view .LVU308
	bl	net_buf_simple_max_len
.LVL86:
	.loc 4 2296 9 discriminator 1 view .LVU309
.LBE427:
.LBE426:
	b	.L49
.LVL87:
.L52:
	.loc 1 1558 3 is_stmt 1 view .LVU310
	mov	r1, r5
	mov	r0, r4
.LVL88:
	.loc 1 1558 3 is_stmt 0 view .LVU311
	bl	pkt_cursor_jump
.LVL89:
	b	.L46
	.cfi_endproc
.LFE931:
	.size	pkt_cursor_advance, .-pkt_cursor_advance
	.section	.text.pkt_cursor_update,"ax",%progbits
	.align	1
	.syntax unified
	.thumb
	.thumb_func
	.fpu fpv4-sp-d16
	.type	pkt_cursor_update, %function
pkt_cursor_update:
.LVL90:
.LFB932:
	.loc 1 1564 1 is_stmt 1 view -0
	.cfi_startproc
	@ args = 0, pretend = 0, frame = 0
	@ frame_needed = 0, uses_anonymous_args = 0
	.loc 1 1564 1 is_stmt 0 view .LVU313
	push	{r3, r4, r5, r6, r7, lr}
	.cfi_def_cfa_offset 24
	.cfi_offset 3, -24
	.cfi_offset 4, -20
	.cfi_offset 5, -16
	.cfi_offset 6, -12
	.cfi_offset 7, -8
	.cfi_offset 14, -4
	mov	r4, r0
	mov	r5, r1
	.loc 1 1565 2 is_stmt 1 view .LVU314
.LVL91:
	.loc 1 1566 2 view .LVU315
	.loc 1 1568 2 view .LVU316
.LBB428:
.LBI428:
	.loc 2 1210 19 view .LVU317
.LBB429:
	.loc 2 1212 2 view .LVU318
	.loc 2 1212 12 is_stmt 0 view .LVU319
	ldrb	r3, [r0, #73]	@ zero_extendqisi2
.LVL92:
	.loc 2 1212 12 view .LVU320
.LBE429:
.LBE428:
	.loc 1 1568 5 view .LVU321
	tst	r3, #1
	bne	.L59
	mov	r6, r2
	.loc 1 1572 2 is_stmt 1 view .LVU322
	.loc 1 1572 45 is_stmt 0 view .LVU323
	cbz	r2, .L54
	.loc 1 1572 16 discriminator 1 view .LVU324
	ldr	r0, [r0, #12]
.LVL93:
.LBB430:
.LBI430:
	.loc 4 2294 24 is_stmt 1 discriminator 1 view .LVU325
.LBB431:
	.loc 4 2296 2 discriminator 1 view .LVU326
	.loc 4 2296 9 is_stmt 0 discriminator 1 view .LVU327
	adds	r0, r0, #8
.LVL94:
	.loc 4 2296 9 discriminator 1 view .LVU328
	bl	net_buf_simple_max_len
.LVL95:
	.loc 4 2296 9 discriminator 1 view .LVU329
.LBE431:
.LBE430:
	.loc 1 1572 45 discriminator 1 view .LVU330
	mov	r7, r0
	b	.L55
.LVL96:
.L59:
	.loc 1 1569 9 view .LVU331
	movs	r6, #0
.L54:
.LVL97:
	.loc 1 1572 53 discriminator 2 view .LVU332
	ldr	r3, [r4, #12]
	.loc 1 1572 58 discriminator 2 view .LVU333
	ldrh	r7, [r3, #12]
.LVL98:
.L55:
	.loc 1 1573 2 is_stmt 1 discriminator 4 view .LVU334
	.loc 1 1573 22 is_stmt 0 discriminator 4 view .LVU335
	ldr	r3, [r4, #16]
	.loc 1 1573 36 discriminator 4 view .LVU336
	ldr	r0, [r4, #12]
	.loc 1 1573 41 discriminator 4 view .LVU337
	ldr	r2, [r0, #8]
	.loc 1 1573 28 discriminator 4 view .LVU338
	subs	r3, r3, r2
	.loc 1 1573 13 discriminator 4 view .LVU339
	add	r3, r3, r5
	.loc 1 1573 5 discriminator 4 view .LVU340
	cmp	r3, r7
	beq	.L61
.L56:
	.loc 1 1578 3 is_stmt 1 view .LVU341
	.loc 1 1578 15 is_stmt 0 view .LVU342
	ldr	r1, [r4, #16]
	add	r1, r1, r5
	str	r1, [r4, #16]
.L53:
	.loc 1 1580 1 view .LVU343
	pop	{r3, r4, r5, r6, r7, pc}
.LVL99:
.L61:
.LBB432:
.LBI432:
	.loc 2 1210 19 is_stmt 1 view .LVU344
.LBB433:
	.loc 2 1212 2 view .LVU345
	.loc 2 1212 12 is_stmt 0 view .LVU346
	ldrb	r3, [r4, #73]	@ zero_extendqisi2
.LVL100:
	.loc 2 1212 12 view .LVU347
.LBE433:
.LBE432:
	.loc 1 1573 56 view .LVU348
	tst	r3, #1
	beq	.L57
.LVL101:
.LBB434:
.LBI434:
	.loc 4 2294 24 is_stmt 1 view .LVU349
.LBB435:
	.loc 4 2296 2 view .LVU350
	.loc 4 2296 9 is_stmt 0 view .LVU351
	adds	r0, r0, #8
.LVL102:
	.loc 4 2296 9 view .LVU352
	bl	net_buf_simple_max_len
.LVL103:
	.loc 4 2296 9 view .LVU353
.LBE435:
.LBE434:
	.loc 1 1574 6 view .LVU354
	cmp	r0, r7
	bhi	.L56
.L57:
	.loc 1 1576 3 is_stmt 1 view .LVU355
	mov	r1, r6
	mov	r0, r4
	bl	pkt_cursor_jump
.LVL104:
	b	.L53
	.cfi_endproc
.LFE932:
	.size	pkt_cursor_update, .-pkt_cursor_update
	.section	.text.pkt_alloc_buffer,"ax",%progbits
	.align	1
	.syntax unified
	.thumb
	.thumb_func
	.fpu fpv4-sp-d16
	.type	pkt_alloc_buffer, %function
pkt_alloc_buffer:
.LVL105:
.LFB909:
	.loc 1 863 1 view -0
	.cfi_startproc
	@ args = 0, pretend = 0, frame = 16
	@ frame_needed = 0, uses_anonymous_args = 0
	.loc 1 863 1 is_stmt 0 view .LVU357
	push	{r4, r5, r6, r7, r8, r9, r10, fp, lr}
	.cfi_def_cfa_offset 36
	.cfi_offset 4, -36
	.cfi_offset 5, -32
	.cfi_offset 6, -28
	.cfi_offset 7, -24
	.cfi_offset 8, -20
	.cfi_offset 9, -16
	.cfi_offset 10, -12
	.cfi_offset 11, -8
	.cfi_offset 14, -4
	sub	sp, sp, #20
	.cfi_def_cfa_offset 56
	mov	r10, r0
	mov	r5, r1
	mov	r6, r2
.LVL106:
	.loc 1 863 1 view .LVU358
	mov	r7, r3
	.loc 1 864 2 is_stmt 1 view .LVU359
	.loc 1 864 17 is_stmt 0 view .LVU360
	mov	r0, r2
.LVL107:
	.loc 1 864 17 view .LVU361
	mov	r1, r3
.LVL108:
	.loc 1 864 17 view .LVU362
	bl	sys_clock_timeout_end_calc
.LVL109:
	.loc 1 864 17 view .LVU363
	mov	fp, r0
	str	r1, [sp, #12]
.LVL110:
	.loc 1 865 2 is_stmt 1 view .LVU364
	.loc 1 866 2 view .LVU365
	.loc 1 868 2 view .LVU366
	.loc 1 866 18 is_stmt 0 view .LVU367
	mov	r8, #0
	.loc 1 865 18 view .LVU368
	mov	r9, r8
	.loc 1 868 8 view .LVU369
	b	.L63
.LVL111:
.L75:
.LBB436:
	.loc 1 873 4 is_stmt 1 view .LVU370
.LDL1:
.LBE436:
	.loc 1 913 2 view .LVU371
	.loc 1 913 5 is_stmt 0 view .LVU372
	cmp	r9, #0
	beq	.L62
	.loc 1 914 3 is_stmt 1 view .LVU373
	mov	r0, r9
.LVL112:
	.loc 1 914 3 is_stmt 0 view .LVU374
	bl	net_buf_unref
.LVL113:
	.loc 1 917 8 view .LVU375
	mov	r9, r4
.LVL114:
.L62:
	.loc 1 918 1 view .LVU376
	mov	r0, r9
	add	sp, sp, #20
	.cfi_remember_state
	.cfi_def_cfa_offset 36
	@ sp needed
	pop	{r4, r5, r6, r7, r8, r9, r10, fp, pc}
.LVL115:
.L76:
	.cfi_restore_state
.LBB439:
	.loc 1 876 14 discriminator 1 view .LVU377
	cmp	r8, #0
	bne	.L67
	.loc 1 877 10 view .LVU378
	mov	r9, r0
.LVL116:
	.loc 1 877 10 view .LVU379
	b	.L68
.LVL117:
.L70:
	.loc 1 882 11 discriminator 1 view .LVU380
	mov	r8, r4
.LVL118:
.L63:
	.loc 1 882 11 discriminator 1 view .LVU381
.LBE439:
	.loc 1 868 8 is_stmt 1 view .LVU382
	cmp	r5, #0
	beq	.L62
.LBB440:
	.loc 1 869 3 view .LVU383
	.loc 1 871 3 view .LVU384
	.loc 1 871 9 is_stmt 0 view .LVU385
	mov	r2, r6
	mov	r3, r7
	mov	r0, r10
	bl	net_buf_alloc_fixed
.LVL119:
	.loc 1 872 3 is_stmt 1 view .LVU386
	.loc 1 872 6 is_stmt 0 view .LVU387
	mov	r4, r0
	cmp	r0, #0
	beq	.L75
	.loc 1 876 3 is_stmt 1 view .LVU388
	.loc 1 876 6 is_stmt 0 view .LVU389
	cmp	r9, #0
	beq	.L76
.L67:
	.loc 1 879 4 is_stmt 1 view .LVU390
	.loc 1 879 19 is_stmt 0 view .LVU391
	str	r4, [r8]
.LVL120:
.L68:
	.loc 1 882 3 is_stmt 1 view .LVU392
	.loc 1 883 3 view .LVU393
	.loc 1 883 14 is_stmt 0 view .LVU394
	ldrh	r3, [r4, #14]
	.loc 1 883 6 view .LVU395
	cmp	r3, r5
	bls	.L69
	.loc 1 884 4 is_stmt 1 view .LVU396
	.loc 1 884 18 is_stmt 0 view .LVU397
	strh	r5, [r4, #14]	@ movhi
.L69:
	.loc 1 887 3 is_stmt 1 view .LVU398
	.loc 1 887 18 is_stmt 0 view .LVU399
	ldrh	r3, [r4, #14]
	.loc 1 887 8 view .LVU400
	subs	r5, r5, r3
.LVL121:
	.loc 1 889 3 is_stmt 1 view .LVU401
.LBB437:
	.loc 1 889 6 is_stmt 0 view .LVU402
	orrs	r3, r6, r7
	beq	.L70
	.loc 1 889 57 discriminator 1 view .LVU403
	cmp	r7, #-1
	it	eq
	cmpeq	r6, #-1
	beq	.L70
.LBB438:
	.loc 1 891 4 is_stmt 1 view .LVU404
	.loc 1 891 30 is_stmt 0 view .LVU405
	bl	sys_clock_tick_get
.LVL122:
	.loc 1 891 28 view .LVU406
	subs	r3, fp, r0
	str	r3, [sp]
	ldr	r3, [sp, #12]
	sbc	r3, r3, r1
	str	r3, [sp, #4]
.LVL123:
	.loc 1 893 4 is_stmt 1 view .LVU407
	.loc 1 893 7 is_stmt 0 view .LVU408
	ldrd	r6, [sp]
.LVL124:
	.loc 1 893 7 view .LVU409
	cmp	r6, #1
	sbcs	r3, r7, #0
	.loc 1 893 7 view .LVU410
	bge	.L70
	b	.L62
.LBE438:
.LBE437:
.LBE440:
	.cfi_endproc
.LFE909:
	.size	pkt_alloc_buffer, .-pkt_alloc_buffer
	.section	.text.net_pkt_cursor_operate,"ax",%progbits
	.align	1
	.syntax unified
	.thumb
	.thumb_func
	.fpu fpv4-sp-d16
	.type	net_pkt_cursor_operate, %function
net_pkt_cursor_operate:
.LVL125:
.LFB933:
	.loc 1 1586 1 is_stmt 1 view -0
	.cfi_startproc
	@ args = 4, pretend = 0, frame = 0
	@ frame_needed = 0, uses_anonymous_args = 0
	.loc 1 1586 1 is_stmt 0 view .LVU412
	push	{r3, r4, r5, r6, r7, r8, r9, lr}
	.cfi_def_cfa_offset 32
	.cfi_offset 3, -32
	.cfi_offset 4, -28
	.cfi_offset 5, -24
	.cfi_offset 6, -20
	.cfi_offset 7, -16
	.cfi_offset 8, -12
	.cfi_offset 9, -8
	.cfi_offset 14, -4
	mov	r4, r0
	mov	r8, r1
	mov	r6, r2
	mov	r9, r3
	ldrb	r7, [sp, #32]	@ zero_extendqisi2
	.loc 1 1588 2 is_stmt 1 view .LVU413
.LVL126:
	.loc 1 1590 2 view .LVU414
	.loc 1 1590 8 is_stmt 0 view .LVU415
	b	.L78
.LVL127:
.L92:
.LBB441:
	.loc 1 1593 3 view .LVU416
	movs	r1, #0
.L79:
	.loc 1 1593 3 discriminator 6 view .LVU417
	mov	r0, r4
	bl	pkt_cursor_advance
.LVL128:
	.loc 1 1595 3 is_stmt 1 discriminator 6 view .LVU418
	.loc 1 1595 11 is_stmt 0 discriminator 6 view .LVU419
	ldr	r2, [r4, #12]
	.loc 1 1595 6 discriminator 6 view .LVU420
	cmp	r2, #0
	beq	.L80
	.loc 1 1599 3 is_stmt 1 view .LVU421
	.loc 1 1599 6 is_stmt 0 view .LVU422
	cbz	r7, .L81
.LVL129:
.LBB442:
.LBI442:
	.loc 2 1210 19 is_stmt 1 view .LVU423
.LBB443:
	.loc 2 1212 2 view .LVU424
	.loc 2 1212 12 is_stmt 0 view .LVU425
	ldrb	r3, [r4, #73]	@ zero_extendqisi2
.LVL130:
	.loc 2 1212 12 view .LVU426
.LBE443:
.LBE442:
	.loc 1 1599 13 view .LVU427
	tst	r3, #1
	beq	.L99
.L81:
	.loc 1 1603 4 is_stmt 1 view .LVU428
	.loc 1 1603 21 is_stmt 0 view .LVU429
	ldrh	r0, [r2, #12]
	.loc 1 1603 51 view .LVU430
	ldr	r5, [r2, #8]
	.loc 1 1603 40 view .LVU431
	ldr	r3, [r4, #16]
	subs	r5, r3, r5
	.loc 1 1603 27 view .LVU432
	subs	r5, r0, r5
.LVL131:
.L82:
	.loc 1 1606 3 is_stmt 1 view .LVU433
	.loc 1 1606 6 is_stmt 0 view .LVU434
	cmp	r5, #0
	beq	.L80
	.loc 1 1610 3 is_stmt 1 view .LVU435
	.loc 1 1610 6 is_stmt 0 view .LVU436
	cmp	r5, r6
	bls	.L83
	.loc 1 1611 8 view .LVU437
	mov	r5, r6
.LVL132:
.L83:
	.loc 1 1616 3 is_stmt 1 view .LVU438
	.loc 1 1616 6 is_stmt 0 view .LVU439
	cmp	r9, #0
	beq	.L84
	.loc 1 1617 3 is_stmt 1 view .LVU440
	.loc 1 1617 5 is_stmt 0 view .LVU441
	cbz	r7, .L95
	.loc 1 1617 5 discriminator 1 view .LVU442
	ldr	r0, [r4, #16]
.L85:
	.loc 1 1617 11 discriminator 4 view .LVU443
	cbnz	r7, .L96
	.loc 1 1617 11 discriminator 24 view .LVU444
	ldr	r1, [r4, #16]
	b	.L86
.LVL133:
.L93:
	.loc 1 1593 3 view .LVU445
	mov	r1, r7
	b	.L79
.L99:
	.loc 1 1600 4 is_stmt 1 view .LVU446
.LVL134:
.LBB444:
.LBI444:
	.loc 4 2294 24 view .LVU447
.LBB445:
	.loc 4 2296 2 view .LVU448
	.loc 4 2296 9 is_stmt 0 view .LVU449
	add	r0, r2, #8
	bl	net_buf_simple_max_len
.LVL135:
	.loc 4 2296 9 view .LVU450
.LBE445:
.LBE444:
	.loc 1 1601 10 view .LVU451
	ldr	r3, [r4, #16]
	.loc 1 1601 22 view .LVU452
	ldr	r2, [r4, #12]
	.loc 1 1601 27 view .LVU453
	ldr	r5, [r2, #8]
	.loc 1 1601 16 view .LVU454
	subs	r3, r3, r5
	.loc 1 1600 39 view .LVU455
	subs	r5, r0, r3
.LVL136:
	.loc 1 1600 10 view .LVU456
	b	.L82
.LVL137:
.L95:
	.loc 1 1617 5 view .LVU457
	mov	r0, r8
	b	.L85
.L96:
	.loc 1 1617 11 view .LVU458
	mov	r1, r8
.L86:
.LVL138:
.LBB446:
.LBI446:
	.file 5 "/home/sebin/LIOT/gcc-arm-none-eabi-9-2019-q4-major/arm-none-eabi/include/ssp/string.h"
	.loc 5 83 216 is_stmt 1 discriminator 26 view .LVU459
.LBB447:
	.loc 5 83 292 discriminator 26 view .LVU460
	.loc 5 83 299 is_stmt 0 discriminator 26 view .LVU461
	mov	r2, r5
	bl	memcpy
.LVL139:
	.loc 5 83 299 discriminator 26 view .LVU462
	b	.L87
.L84:
	.loc 5 83 299 discriminator 26 view .LVU463
.LBE447:
.LBE446:
	.loc 1 1620 10 is_stmt 1 view .LVU464
	.loc 1 1620 13 is_stmt 0 view .LVU465
	cmp	r8, #0
	beq	.L87
	.loc 1 1621 3 is_stmt 1 view .LVU466
.LVL140:
.LBB448:
.LBI448:
	.loc 5 86 189 view .LVU467
.LBB449:
	.loc 5 86 238 view .LVU468
	.loc 5 86 245 is_stmt 0 view .LVU469
	mov	r2, r5
	ldr	r1, [r8]
	ldr	r0, [r4, #16]
	bl	memset
.LVL141:
.L87:
	.loc 5 86 245 view .LVU470
.LBE449:
.LBE448:
	.loc 1 1624 3 is_stmt 1 view .LVU471
	.loc 1 1624 6 is_stmt 0 view .LVU472
	cbz	r7, .L88
.LVL142:
.LBB450:
.LBI450:
	.loc 2 1210 19 is_stmt 1 view .LVU473
.LBB451:
	.loc 2 1212 2 view .LVU474
	.loc 2 1212 12 is_stmt 0 view .LVU475
	ldrb	r3, [r4, #73]	@ zero_extendqisi2
.LVL143:
	.loc 2 1212 12 view .LVU476
.LBE451:
.LBE450:
	.loc 1 1624 13 view .LVU477
	tst	r3, #1
	beq	.L100
.L88:
	.loc 1 1628 3 is_stmt 1 view .LVU478
	mov	r2, r7
	mov	r1, r5
	mov	r0, r4
	bl	pkt_cursor_update
.LVL144:
	.loc 1 1630 3 view .LVU479
	.loc 1 1630 6 is_stmt 0 view .LVU480
	cmp	r9, #0
	beq	.L89
	.loc 1 1630 12 discriminator 1 view .LVU481
	cmp	r8, #0
	beq	.L89
	.loc 1 1631 4 is_stmt 1 view .LVU482
	.loc 1 1631 9 is_stmt 0 view .LVU483
	add	r8, r8, r5
.LVL145:
.L89:
	.loc 1 1634 3 is_stmt 1 view .LVU484
	.loc 1 1634 10 is_stmt 0 view .LVU485
	subs	r6, r6, r5
.LVL146:
.L78:
	.loc 1 1634 10 view .LVU486
.LBE441:
	.loc 1 1590 8 is_stmt 1 view .LVU487
	.loc 1 1590 13 is_stmt 0 view .LVU488
	ldr	r3, [r4, #12]
	.loc 1 1590 8 view .LVU489
	cbz	r3, .L80
	.loc 1 1590 19 discriminator 1 view .LVU490
	cbz	r6, .L80
.LBB456:
	.loc 1 1591 3 is_stmt 1 view .LVU491
	.loc 1 1593 3 view .LVU492
.LVL147:
.LBB452:
.LBI452:
	.loc 2 1210 19 view .LVU493
.LBB453:
	.loc 2 1212 2 view .LVU494
	.loc 2 1212 12 is_stmt 0 view .LVU495
	ldrb	r3, [r4, #73]	@ zero_extendqisi2
.LVL148:
	.loc 2 1212 12 view .LVU496
.LBE453:
.LBE452:
	.loc 1 1593 3 view .LVU497
	tst	r3, #1
	bne	.L92
	.loc 1 1593 3 discriminator 1 view .LVU498
	cmp	r7, #0
	bne	.L93
	.loc 1 1593 3 view .LVU499
	movs	r1, #0
	b	.L79
.LVL149:
.L100:
	.loc 1 1625 4 is_stmt 1 view .LVU500
	ldr	r0, [r4, #12]
.LVL150:
.LBB454:
.LBI454:
	.loc 4 1504 21 view .LVU501
.LBB455:
	.loc 4 1506 2 view .LVU502
	.loc 4 1506 9 is_stmt 0 view .LVU503
	mov	r1, r5
	adds	r0, r0, #8
.LVL151:
	.loc 4 1506 9 view .LVU504
	bl	net_buf_simple_add
.LVL152:
	.loc 4 1506 9 view .LVU505
	b	.L88
.LVL153:
.L80:
	.loc 4 1506 9 view .LVU506
.LBE455:
.LBE454:
.LBE456:
	.loc 1 1637 2 is_stmt 1 view .LVU507
	.loc 1 1637 5 is_stmt 0 view .LVU508
	cbnz	r6, .L97
	.loc 1 1642 9 view .LVU509
	movs	r0, #0
.L77:
	.loc 1 1643 1 view .LVU510
	pop	{r3, r4, r5, r6, r7, r8, r9, pc}
.LVL154:
.L97:
	.loc 1 1639 10 view .LVU511
	mvn	r0, #104
	b	.L77
	.cfi_endproc
.LFE933:
	.size	net_pkt_cursor_operate, .-net_pkt_cursor_operate
	.section	.text.net_pkt_get_reserve_data,"ax",%progbits
	.align	1
	.global	net_pkt_get_reserve_data
	.syntax unified
	.thumb
	.thumb_func
	.fpu fpv4-sp-d16
	.type	net_pkt_get_reserve_data, %function
net_pkt_get_reserve_data:
.LVL155:
.LFB896:
	.loc 1 374 1 is_stmt 1 view -0
	.cfi_startproc
	@ args = 0, pretend = 0, frame = 0
	@ frame_needed = 0, uses_anonymous_args = 0
	.loc 1 374 1 is_stmt 0 view .LVU513
	push	{r4, r5, r6, lr}
	.cfi_def_cfa_offset 16
	.cfi_offset 4, -16
	.cfi_offset 5, -12
	.cfi_offset 6, -8
	.cfi_offset 14, -4
	mov	r4, r0
	mov	r6, r2
.LVL156:
	.loc 1 374 1 view .LVU514
	mov	r5, r3
	.loc 1 375 2 is_stmt 1 view .LVU515
	.loc 1 382 2 view .LVU516
	.loc 1 382 6 is_stmt 0 view .LVU517
	bl	k_is_in_isr
.LVL157:
	.loc 1 382 5 view .LVU518
	cbz	r0, .L102
.LBB457:
	.loc 1 383 3 is_stmt 1 view .LVU519
.LVL158:
.LBB458:
.LBI458:
	.loc 4 1267 68 view .LVU520
.LBB459:
	.loc 4 1270 2 view .LVU521
	.loc 4 1270 9 is_stmt 0 view .LVU522
	movs	r2, #0
	movs	r3, #0
	mov	r0, r4
	bl	net_buf_alloc_fixed
.LVL159:
.L101:
	.loc 4 1270 9 view .LVU523
.LBE459:
.LBE458:
.LBE457:
	.loc 1 405 1 view .LVU524
	pop	{r4, r5, r6, pc}
.LVL160:
.L102:
	.loc 1 385 3 is_stmt 1 view .LVU525
.LBB460:
.LBI460:
	.loc 4 1267 68 view .LVU526
.LBB461:
	.loc 4 1270 2 view .LVU527
	.loc 4 1270 9 is_stmt 0 view .LVU528
	mov	r2, r6
.LVL161:
	.loc 4 1270 9 view .LVU529
	mov	r3, r5
	mov	r0, r4
	bl	net_buf_alloc_fixed
.LVL162:
	.loc 4 1270 9 view .LVU530
.LBE461:
.LBE460:
	.loc 1 388 2 is_stmt 1 view .LVU531
	b	.L101
	.cfi_endproc
.LFE896:
	.size	net_pkt_get_reserve_data, .-net_pkt_get_reserve_data
	.section	.text.net_pkt_get_reserve_rx_data,"ax",%progbits
	.align	1
	.global	net_pkt_get_reserve_rx_data
	.syntax unified
	.thumb
	.thumb_func
	.fpu fpv4-sp-d16
	.type	net_pkt_get_reserve_rx_data, %function
net_pkt_get_reserve_rx_data:
.LVL163:
.LFB898:
	.loc 1 465 1 view -0
	.cfi_startproc
	@ args = 0, pretend = 0, frame = 0
	@ frame_needed = 0, uses_anonymous_args = 0
	.loc 1 465 1 is_stmt 0 view .LVU533
	push	{r3, lr}
	.cfi_def_cfa_offset 8
	.cfi_offset 3, -8
	.cfi_offset 14, -4
	mov	r2, r0
	.loc 1 465 1 view .LVU534
	mov	r3, r1
	.loc 1 466 2 is_stmt 1 view .LVU535
	.loc 1 466 9 is_stmt 0 view .LVU536
	ldr	r0, .L107
.LVL164:
	.loc 1 466 9 view .LVU537
	bl	net_pkt_get_reserve_data
.LVL165:
	.loc 1 467 1 view .LVU538
	pop	{r3, pc}
.L108:
	.align	2
.L107:
	.word	.LANCHOR0
	.cfi_endproc
.LFE898:
	.size	net_pkt_get_reserve_rx_data, .-net_pkt_get_reserve_rx_data
	.section	.text.net_pkt_get_reserve_tx_data,"ax",%progbits
	.align	1
	.global	net_pkt_get_reserve_tx_data
	.syntax unified
	.thumb
	.thumb_func
	.fpu fpv4-sp-d16
	.type	net_pkt_get_reserve_tx_data, %function
net_pkt_get_reserve_tx_data:
.LVL166:
.LFB899:
	.loc 1 470 1 is_stmt 1 view -0
	.cfi_startproc
	@ args = 0, pretend = 0, frame = 0
	@ frame_needed = 0, uses_anonymous_args = 0
	.loc 1 470 1 is_stmt 0 view .LVU540
	push	{r3, lr}
	.cfi_def_cfa_offset 8
	.cfi_offset 3, -8
	.cfi_offset 14, -4
	mov	r2, r0
	.loc 1 470 1 view .LVU541
	mov	r3, r1
	.loc 1 471 2 is_stmt 1 view .LVU542
	.loc 1 471 9 is_stmt 0 view .LVU543
	ldr	r0, .L111
.LVL167:
	.loc 1 471 9 view .LVU544
	bl	net_pkt_get_reserve_data
.LVL168:
	.loc 1 472 1 view .LVU545
	pop	{r3, pc}
.L112:
	.align	2
.L111:
	.word	.LANCHOR1
	.cfi_endproc
.LFE899:
	.size	net_pkt_get_reserve_tx_data, .-net_pkt_get_reserve_tx_data
	.section	.text.net_pkt_get_frag,"ax",%progbits
	.align	1
	.global	net_pkt_get_frag
	.syntax unified
	.thumb
	.thumb_func
	.fpu fpv4-sp-d16
	.type	net_pkt_get_frag, %function
net_pkt_get_frag:
.LVL169:
.LFB897:
	.loc 1 418 1 is_stmt 1 view -0
	.cfi_startproc
	@ args = 0, pretend = 0, frame = 0
	@ frame_needed = 0, uses_anonymous_args = 0
	.loc 1 418 1 is_stmt 0 view .LVU547
	push	{r3, lr}
	.cfi_def_cfa_offset 8
	.cfi_offset 3, -8
	.cfi_offset 14, -4
	mov	r1, r3
	.loc 1 433 2 is_stmt 1 view .LVU548
	.loc 1 433 9 is_stmt 0 view .LVU549
	ldr	r0, [r0, #4]
.LVL170:
	.loc 1 433 5 view .LVU550
	ldr	r3, .L118
	cmp	r0, r3
	beq	.L117
	.loc 1 445 2 is_stmt 1 view .LVU551
	.loc 1 445 9 is_stmt 0 view .LVU552
	mov	r0, r2
	bl	net_pkt_get_reserve_tx_data
.LVL171:
.L113:
	.loc 1 447 1 view .LVU553
	pop	{r3, pc}
.LVL172:
.L117:
	.loc 1 438 3 is_stmt 1 view .LVU554
	.loc 1 438 10 is_stmt 0 view .LVU555
	mov	r0, r2
	bl	net_pkt_get_reserve_rx_data
.LVL173:
	.loc 1 438 10 view .LVU556
	b	.L113
.L119:
	.align	2
.L118:
	.word	.LANCHOR2
	.cfi_endproc
.LFE897:
	.size	net_pkt_get_frag, .-net_pkt_get_frag
	.section	.text.net_pkt_ref,"ax",%progbits
	.align	1
	.global	net_pkt_ref
	.syntax unified
	.thumb
	.thumb_func
	.fpu fpv4-sp-d16
	.type	net_pkt_ref, %function
net_pkt_ref:
.LFB901:
	.loc 1 607 1 is_stmt 1 view -0
	.cfi_startproc
	@ args = 0, pretend = 0, frame = 0
	@ frame_needed = 0, uses_anonymous_args = 0
	@ link register save eliminated.
.LVL174:
	.loc 1 608 2 view .LVU558
	.loc 1 610 2 view .LVU559
	.loc 1 611 3 view .LVU560
	.loc 1 611 44 is_stmt 0 view .LVU561
	cbz	r0, .L132
	.loc 1 607 1 view .LVU562
	push	{r4}
	.cfi_def_cfa_offset 4
	.cfi_offset 4, -4
	b	.L128
.LVL175:
.L124:
	.loc 1 608 2 is_stmt 1 view .LVU563
	.loc 1 610 2 view .LVU564
	.loc 1 611 3 view .LVU565
	.loc 1 611 44 is_stmt 0 view .LVU566
	cbz	r0, .L121
.LVL176:
.L128:
	.loc 1 611 26 discriminator 1 view .LVU567
	add	r2, r0, #48
.LVL177:
.LBB462:
.LBI462:
	.file 6 "/home/sebin/thesis/zephyrproject/zephyr/include/sys/atomic_builtin.h"
	.loc 6 138 28 is_stmt 1 discriminator 1 view .LVU568
.LBB463:
	.loc 6 140 2 discriminator 1 view .LVU569
	.loc 6 140 9 is_stmt 0 discriminator 1 view .LVU570
	dmb	ish
	ldr	r3, [r0, #48]
	dmb	ish
.LVL178:
	.loc 6 140 9 discriminator 1 view .LVU571
.LBE463:
.LBE462:
	.loc 1 612 3 is_stmt 1 discriminator 1 view .LVU572
	.loc 1 612 6 is_stmt 0 discriminator 1 view .LVU573
	cbz	r3, .L121
	.loc 1 619 10 is_stmt 1 view .LVU574
	.loc 1 619 12 is_stmt 0 view .LVU575
	adds	r1, r3, #1
.LVL179:
.LBB464:
.LBI464:
	.loc 6 37 19 is_stmt 1 view .LVU576
.LBB465:
	.loc 6 40 2 view .LVU577
	.loc 6 40 9 is_stmt 0 view .LVU578
	dmb	ish
.L125:
	ldrex	r4, [r2]
	cmp	r4, r3
	bne	.L126
	strex	ip, r1, [r2]
	cmp	ip, #0
	bne	.L125
.L126:
	.loc 6 40 9 view .LVU579
	dmb	ish
.LVL180:
	.loc 6 40 9 view .LVU580
.LBE465:
.LBE464:
	.loc 1 619 2 view .LVU581
	bne	.L124
.LVL181:
.L123:
	.loc 1 629 1 view .LVU582
	ldr	r4, [sp], #4
	.cfi_remember_state
	.cfi_restore 4
	.cfi_def_cfa_offset 0
	bx	lr
.LVL182:
.L121:
	.cfi_restore_state
	.loc 1 617 4 is_stmt 1 view .LVU583
	.loc 1 617 10 is_stmt 0 view .LVU584
	movs	r0, #0
.LVL183:
	.loc 1 617 10 view .LVU585
	b	.L123
.LVL184:
.L132:
	.cfi_def_cfa_offset 0
	.cfi_restore 4
	.loc 1 617 4 is_stmt 1 view .LVU586
	.loc 1 617 10 is_stmt 0 view .LVU587
	movs	r0, #0
.LVL185:
	.loc 1 629 1 view .LVU588
	bx	lr
	.cfi_endproc
.LFE901:
	.size	net_pkt_ref, .-net_pkt_ref
	.section	.text.net_pkt_frag_ref,"ax",%progbits
	.align	1
	.global	net_pkt_frag_ref
	.syntax unified
	.thumb
	.thumb_func
	.fpu fpv4-sp-d16
	.type	net_pkt_frag_ref, %function
net_pkt_frag_ref:
.LVL186:
.LFB902:
	.loc 1 637 1 is_stmt 1 view -0
	.cfi_startproc
	@ args = 0, pretend = 0, frame = 0
	@ frame_needed = 0, uses_anonymous_args = 0
	.loc 1 637 1 is_stmt 0 view .LVU590
	push	{r3, lr}
	.cfi_def_cfa_offset 8
	.cfi_offset 3, -8
	.cfi_offset 14, -4
	.loc 1 638 2 is_stmt 1 view .LVU591
	.loc 1 638 5 is_stmt 0 view .LVU592
	cbz	r0, .L133
	.loc 1 653 2 is_stmt 1 view .LVU593
	.loc 1 653 9 is_stmt 0 view .LVU594
	bl	net_buf_ref
.LVL187:
.L133:
	.loc 1 654 1 view .LVU595
	pop	{r3, pc}
	.cfi_endproc
.LFE902:
	.size	net_pkt_frag_ref, .-net_pkt_frag_ref
	.section	.text.net_pkt_frag_unref,"ax",%progbits
	.align	1
	.global	net_pkt_frag_unref
	.syntax unified
	.thumb
	.thumb_func
	.fpu fpv4-sp-d16
	.type	net_pkt_frag_unref, %function
net_pkt_frag_unref:
.LVL188:
.LFB903:
	.loc 1 663 1 is_stmt 1 view -0
	.cfi_startproc
	@ args = 0, pretend = 0, frame = 0
	@ frame_needed = 0, uses_anonymous_args = 0
	.loc 1 664 2 view .LVU597
	.loc 1 664 5 is_stmt 0 view .LVU598
	cbz	r0, .L140
	.loc 1 663 1 view .LVU599
	push	{r3, lr}
	.cfi_def_cfa_offset 8
	.cfi_offset 3, -8
	.cfi_offset 14, -4
	.loc 1 679 2 is_stmt 1 view .LVU600
	.loc 1 680 3 view .LVU601
	.loc 1 683 2 view .LVU602
	bl	net_buf_unref
.LVL189:
	.loc 1 684 1 is_stmt 0 view .LVU603
	pop	{r3, pc}
.LVL190:
.L140:
	.cfi_def_cfa_offset 0
	.cfi_restore 3
	.cfi_restore 14
	.loc 1 684 1 view .LVU604
	bx	lr
	.cfi_endproc
.LFE903:
	.size	net_pkt_frag_unref, .-net_pkt_frag_unref
	.section	.text.net_pkt_unref,"ax",%progbits
	.align	1
	.global	net_pkt_unref
	.syntax unified
	.thumb
	.thumb_func
	.fpu fpv4-sp-d16
	.type	net_pkt_unref, %function
net_pkt_unref:
.LVL191:
.LFB900:
	.loc 1 507 1 is_stmt 1 view -0
	.cfi_startproc
	@ args = 0, pretend = 0, frame = 8
	@ frame_needed = 0, uses_anonymous_args = 0
	.loc 1 507 1 is_stmt 0 view .LVU606
	push	{r4, lr}
	.cfi_def_cfa_offset 8
	.cfi_offset 4, -8
	.cfi_offset 14, -4
	sub	sp, sp, #8
	.cfi_def_cfa_offset 16
	str	r0, [sp, #4]
	.loc 1 509 2 is_stmt 1 view .LVU607
	.loc 1 511 2 view .LVU608
	.loc 1 511 5 is_stmt 0 view .LVU609
	cbz	r0, .L143
.LVL192:
.L145:
	.loc 1 518 2 is_stmt 1 view .LVU610
	.loc 1 519 3 view .LVU611
	.loc 1 519 24 is_stmt 0 view .LVU612
	ldr	r3, [sp, #4]
.LVL193:
.LBB466:
.LBI466:
	.loc 6 138 28 is_stmt 1 view .LVU613
.LBB467:
	.loc 6 140 2 view .LVU614
	.loc 6 140 9 is_stmt 0 view .LVU615
	dmb	ish
	ldr	r3, [r3, #48]
.LVL194:
	.loc 6 140 9 view .LVU616
	dmb	ish
	mov	r1, r3
.LVL195:
	.loc 6 140 9 view .LVU617
.LBE467:
.LBE466:
	.loc 1 520 3 is_stmt 1 view .LVU618
	.loc 1 520 6 is_stmt 0 view .LVU619
	cbz	r3, .L143
	.loc 1 537 10 is_stmt 1 view .LVU620
	.loc 1 537 27 is_stmt 0 view .LVU621
	ldr	r2, [sp, #4]
	.loc 1 537 12 view .LVU622
	adds	r2, r2, #48
	subs	r0, r3, #1
.LVL196:
.LBB468:
.LBI468:
	.loc 6 37 19 is_stmt 1 view .LVU623
.LBB469:
	.loc 6 40 2 view .LVU624
	.loc 6 40 9 is_stmt 0 view .LVU625
	dmb	ish
.L147:
	ldrex	r4, [r2]
	cmp	r4, r3
	bne	.L148
	strex	ip, r0, [r2]
	cmp	ip, #0
	bne	.L147
.L148:
	.loc 6 40 9 view .LVU626
	dmb	ish
.LVL197:
	.loc 6 40 9 view .LVU627
.LBE469:
.LBE468:
	.loc 1 537 2 view .LVU628
	bne	.L145
	.loc 1 585 2 is_stmt 1 view .LVU629
	.loc 1 585 5 is_stmt 0 view .LVU630
	cmp	r1, #1
	bgt	.L143
	.loc 1 589 2 is_stmt 1 view .LVU631
	.loc 1 589 9 is_stmt 0 view .LVU632
	ldr	r3, [sp, #4]
	ldr	r0, [r3, #8]
	.loc 1 589 5 view .LVU633
	cbz	r0, .L146
	.loc 1 590 3 is_stmt 1 view .LVU634
	bl	net_pkt_frag_unref
.LVL198:
.L146:
	.loc 1 593 2 view .LVU635
	.loc 1 598 2 view .LVU636
	add	r1, sp, #4
	ldr	r3, [sp, #4]
	ldr	r0, [r3, #4]
	bl	k_mem_slab_free
.LVL199:
.L143:
	.loc 1 599 1 is_stmt 0 view .LVU637
	add	sp, sp, #8
	.cfi_def_cfa_offset 8
	@ sp needed
	pop	{r4, pc}
	.cfi_endproc
.LFE900:
	.size	net_pkt_unref, .-net_pkt_unref
	.section	.text.net_pkt_frag_del,"ax",%progbits
	.align	1
	.global	net_pkt_frag_del
	.syntax unified
	.thumb
	.thumb_func
	.fpu fpv4-sp-d16
	.type	net_pkt_frag_del, %function
net_pkt_frag_del:
.LVL200:
.LFB904:
	.loc 1 696 1 is_stmt 1 view -0
	.cfi_startproc
	@ args = 0, pretend = 0, frame = 0
	@ frame_needed = 0, uses_anonymous_args = 0
	.loc 1 696 1 is_stmt 0 view .LVU639
	push	{r4, lr}
	.cfi_def_cfa_offset 8
	.cfi_offset 4, -8
	.cfi_offset 14, -4
	mov	r4, r0
	mov	r0, r1
.LVL201:
	.loc 1 696 1 view .LVU640
	mov	r1, r2
.LVL202:
	.loc 1 702 2 is_stmt 1 view .LVU641
	.loc 1 702 9 is_stmt 0 view .LVU642
	ldr	r3, [r4, #8]
	.loc 1 702 5 view .LVU643
	cmp	r3, r2
	beq	.L154
.L151:
	.loc 1 715 2 is_stmt 1 view .LVU644
	.loc 1 716 3 view .LVU645
	.loc 1 719 2 view .LVU646
	.loc 1 719 9 is_stmt 0 view .LVU647
	bl	net_buf_frag_del
.LVL203:
.L150:
	.loc 1 720 1 view .LVU648
	pop	{r4, pc}
.LVL204:
.L154:
	.loc 1 702 25 discriminator 1 view .LVU649
	cmp	r0, #0
	bne	.L151
.LBB470:
	.loc 1 703 3 is_stmt 1 view .LVU650
	.loc 1 705 3 view .LVU651
	.loc 1 706 4 view .LVU652
	.loc 1 709 3 view .LVU653
	.loc 1 709 9 is_stmt 0 view .LVU654
	bl	net_buf_frag_del
.LVL205:
	.loc 1 710 3 is_stmt 1 view .LVU655
	.loc 1 710 14 is_stmt 0 view .LVU656
	str	r0, [r4, #8]
	.loc 1 712 3 is_stmt 1 view .LVU657
	.loc 1 712 10 is_stmt 0 view .LVU658
	b	.L150
.LBE470:
	.cfi_endproc
.LFE904:
	.size	net_pkt_frag_del, .-net_pkt_frag_del
	.section	.text.net_pkt_frag_add,"ax",%progbits
	.align	1
	.global	net_pkt_frag_add
	.syntax unified
	.thumb
	.thumb_func
	.fpu fpv4-sp-d16
	.type	net_pkt_frag_add, %function
net_pkt_frag_add:
.LVL206:
.LFB905:
	.loc 1 728 1 is_stmt 1 view -0
	.cfi_startproc
	@ args = 0, pretend = 0, frame = 0
	@ frame_needed = 0, uses_anonymous_args = 0
	.loc 1 728 1 is_stmt 0 view .LVU660
	push	{r4, lr}
	.cfi_def_cfa_offset 8
	.cfi_offset 4, -8
	.cfi_offset 14, -4
	mov	r3, r0
	mov	r4, r1
	.loc 1 736 2 is_stmt 1 view .LVU661
	.loc 1 736 10 is_stmt 0 view .LVU662
	ldr	r0, [r0, #8]
.LVL207:
	.loc 1 736 5 view .LVU663
	cbz	r0, .L159
	.loc 1 741 2 is_stmt 1 view .LVU664
	bl	net_buf_frag_last
.LVL208:
	.loc 1 741 2 is_stmt 0 view .LVU665
	mov	r1, r4
	bl	net_buf_frag_insert
.LVL209:
.L155:
	.loc 1 742 1 view .LVU666
	pop	{r4, pc}
.LVL210:
.L159:
	.loc 1 737 3 is_stmt 1 view .LVU667
	.loc 1 737 14 is_stmt 0 view .LVU668
	str	r1, [r3, #8]
	.loc 1 738 3 is_stmt 1 view .LVU669
	b	.L155
	.cfi_endproc
.LFE905:
	.size	net_pkt_frag_add, .-net_pkt_frag_add
	.section	.text.net_pkt_frag_insert,"ax",%progbits
	.align	1
	.global	net_pkt_frag_insert
	.syntax unified
	.thumb
	.thumb_func
	.fpu fpv4-sp-d16
	.type	net_pkt_frag_insert, %function
net_pkt_frag_insert:
.LVL211:
.LFB906:
	.loc 1 750 1 view -0
	.cfi_startproc
	@ args = 0, pretend = 0, frame = 0
	@ frame_needed = 0, uses_anonymous_args = 0
	.loc 1 750 1 is_stmt 0 view .LVU671
	push	{r3, r4, r5, lr}
	.cfi_def_cfa_offset 16
	.cfi_offset 3, -16
	.cfi_offset 4, -12
	.cfi_offset 5, -8
	.cfi_offset 14, -4
	mov	r4, r0
	mov	r5, r1
	.loc 1 755 2 is_stmt 1 view .LVU672
	mov	r0, r1
.LVL212:
	.loc 1 755 2 is_stmt 0 view .LVU673
	bl	net_buf_frag_last
.LVL213:
	.loc 1 755 38 view .LVU674
	ldr	r3, [r4, #8]
	.loc 1 755 33 view .LVU675
	str	r3, [r0]
	.loc 1 756 2 is_stmt 1 view .LVU676
	.loc 1 756 13 is_stmt 0 view .LVU677
	str	r5, [r4, #8]
	.loc 1 757 1 view .LVU678
	pop	{r3, r4, r5, pc}
	.loc 1 757 1 view .LVU679
	.cfi_endproc
.LFE906:
	.size	net_pkt_frag_insert, .-net_pkt_frag_insert
	.section	.text.net_pkt_compact,"ax",%progbits
	.align	1
	.global	net_pkt_compact
	.syntax unified
	.thumb
	.thumb_func
	.fpu fpv4-sp-d16
	.type	net_pkt_compact, %function
net_pkt_compact:
.LVL214:
.LFB907:
	.loc 1 760 1 is_stmt 1 view -0
	.cfi_startproc
	@ args = 0, pretend = 0, frame = 0
	@ frame_needed = 0, uses_anonymous_args = 0
	.loc 1 760 1 is_stmt 0 view .LVU681
	push	{r4, r5, r6, r7, r8, lr}
	.cfi_def_cfa_offset 24
	.cfi_offset 4, -24
	.cfi_offset 5, -20
	.cfi_offset 6, -16
	.cfi_offset 7, -12
	.cfi_offset 8, -8
	.cfi_offset 14, -4
	mov	r8, r0
	.loc 1 761 2 is_stmt 1 view .LVU682
	.loc 1 763 2 view .LVU683
.LBB471:
	.loc 1 763 7 view .LVU684
.LBE471:
	.loc 1 763 132 view .LVU685
	.loc 1 765 2 view .LVU686
	.loc 1 765 7 is_stmt 0 view .LVU687
	ldr	r4, [r0, #8]
.LVL215:
	.loc 1 766 2 is_stmt 1 view .LVU688
	.loc 1 768 2 view .LVU689
	.loc 1 766 7 is_stmt 0 view .LVU690
	movs	r7, #0
	.loc 1 768 8 view .LVU691
	b	.L163
.LVL216:
.L172:
.LBB472:
	.loc 1 777 5 is_stmt 1 view .LVU692
.LBB473:
.LBI473:
	.loc 4 2266 22 view .LVU693
.LBB474:
	.loc 4 2268 2 view .LVU694
	.loc 4 2268 9 is_stmt 0 view .LVU695
	mov	r0, r6
	bl	net_buf_simple_tailroom
.LVL217:
	mov	r5, r0
.LVL218:
	.loc 4 2268 9 view .LVU696
	b	.L165
.LVL219:
.L164:
	.loc 4 2268 9 view .LVU697
.LBE474:
.LBE473:
.LBE472:
	.loc 1 802 4 is_stmt 1 view .LVU698
	.loc 1 802 13 is_stmt 0 view .LVU699
	ldrh	r3, [r4, #12]
	.loc 1 802 7 view .LVU700
	cmp	r3, #0
	beq	.L171
.L166:
	.loc 1 812 3 is_stmt 1 view .LVU701
.LVL220:
	.loc 1 813 3 view .LVU702
	.loc 1 812 8 is_stmt 0 view .LVU703
	mov	r7, r4
	.loc 1 813 8 view .LVU704
	ldr	r4, [r4]
.LVL221:
.L163:
	.loc 1 768 8 is_stmt 1 view .LVU705
	cmp	r4, #0
	beq	.L168
	.loc 1 769 3 view .LVU706
	.loc 1 769 11 is_stmt 0 view .LVU707
	ldr	r3, [r4]
	.loc 1 769 6 view .LVU708
	cmp	r3, #0
	beq	.L164
.LBB489:
	.loc 1 773 4 is_stmt 1 view .LVU709
	.loc 1 775 4 view .LVU710
	.loc 1 775 26 is_stmt 0 view .LVU711
	ldrh	r5, [r3, #12]
.LVL222:
	.loc 1 776 4 is_stmt 1 view .LVU712
.LBB475:
.LBI475:
	.loc 4 2266 22 view .LVU713
.LBB476:
	.loc 4 2268 2 view .LVU714
	.loc 4 2268 9 is_stmt 0 view .LVU715
	add	r6, r4, #8
	mov	r0, r6
	bl	net_buf_simple_tailroom
.LVL223:
	.loc 4 2268 9 view .LVU716
.LBE476:
.LBE475:
	.loc 1 776 7 view .LVU717
	cmp	r0, r5
	bcc	.L172
.L165:
	.loc 1 780 3 is_stmt 1 view .LVU718
.LVL224:
.LBB477:
.LBI477:
	.loc 4 2308 24 view .LVU719
.LBE477:
.LBE489:
	.loc 4 2310 2 view .LVU720
.LBB490:
.LBB480:
.LBB478:
.LBI478:
	.loc 4 805 24 view .LVU721
.LBB479:
	.loc 4 807 2 view .LVU722
	.loc 4 807 12 is_stmt 0 view .LVU723
	ldr	r0, [r4, #8]
	.loc 4 807 24 view .LVU724
	ldrh	r3, [r4, #12]
.LVL225:
	.loc 4 807 24 view .LVU725
.LBE479:
.LBE478:
.LBE480:
	.loc 1 780 7 view .LVU726
	ldr	r1, [r4]
.LVL226:
.LBB481:
.LBI481:
	.loc 5 83 216 is_stmt 1 view .LVU727
.LBB482:
	.loc 5 83 292 view .LVU728
	.loc 5 83 299 is_stmt 0 view .LVU729
	mov	r2, r5
	ldr	r1, [r1, #8]
.LVL227:
	.loc 5 83 299 view .LVU730
	add	r0, r0, r3
.LVL228:
	.loc 5 83 299 view .LVU731
	bl	memcpy
.LVL229:
	.loc 5 83 299 view .LVU732
.LBE482:
.LBE481:
	.loc 1 781 4 is_stmt 1 view .LVU733
.LBB483:
.LBI483:
	.loc 4 1504 21 view .LVU734
.LBB484:
	.loc 4 1506 2 view .LVU735
	.loc 4 1506 9 is_stmt 0 view .LVU736
	mov	r1, r5
	mov	r0, r6
	bl	net_buf_simple_add
.LVL230:
	.loc 4 1506 9 view .LVU737
.LBE484:
.LBE483:
	.loc 1 783 3 is_stmt 1 view .LVU738
	.loc 1 783 7 is_stmt 0 view .LVU739
	ldr	r3, [r4]
	.loc 1 783 14 view .LVU740
	ldr	r0, [r3, #8]
	.loc 1 783 14 view .LVU741
	ldrh	r2, [r3, #12]
.LVL231:
.LBB485:
.LBI485:
	.loc 5 84 199 is_stmt 1 view .LVU742
.LBB486:
	.loc 5 84 258 view .LVU743
	.loc 5 84 265 is_stmt 0 view .LVU744
	subs	r2, r2, r5
.LVL232:
	.loc 5 84 265 view .LVU745
	adds	r1, r0, r5
.LVL233:
	.loc 5 84 265 view .LVU746
	bl	memmove
.LVL234:
	.loc 5 84 265 view .LVU747
.LBE486:
.LBE485:
	.loc 1 787 4 is_stmt 1 view .LVU748
	.loc 1 787 8 is_stmt 0 view .LVU749
	ldr	r2, [r4]
	.loc 1 787 21 view .LVU750
	ldrh	r3, [r2, #12]
	subs	r5, r3, r5
.LVL235:
	.loc 1 787 21 view .LVU751
	strh	r5, [r2, #12]	@ movhi
	.loc 1 790 4 is_stmt 1 view .LVU752
.LVL236:
.LBB487:
.LBI487:
	.loc 4 2266 22 view .LVU753
.LBB488:
	.loc 4 2268 2 view .LVU754
	.loc 4 2268 9 is_stmt 0 view .LVU755
	mov	r0, r6
	bl	net_buf_simple_tailroom
.LVL237:
	.loc 4 2268 9 view .LVU756
.LBE488:
.LBE487:
	.loc 1 790 7 view .LVU757
	cmp	r0, #0
	beq	.L166
	.loc 1 796 5 is_stmt 1 view .LVU758
	ldr	r2, [r4]
	mov	r1, r4
	mov	r0, r8
	bl	net_pkt_frag_del
.LVL238:
	.loc 1 799 5 view .LVU759
	b	.L163
.L171:
	.loc 1 799 5 is_stmt 0 view .LVU760
.LBE490:
	.loc 1 806 5 is_stmt 1 view .LVU761
	mov	r2, r4
	mov	r1, r7
	mov	r0, r8
	bl	net_pkt_frag_del
.LVL239:
	.loc 1 808 5 view .LVU762
.L168:
	.loc 1 816 2 view .LVU763
	.loc 1 817 1 is_stmt 0 view .LVU764
	movs	r0, #1
	pop	{r4, r5, r6, r7, r8, pc}
	.loc 1 817 1 view .LVU765
	.cfi_endproc
.LFE907:
	.size	net_pkt_compact, .-net_pkt_compact
	.section	.text.net_pkt_get_info,"ax",%progbits
	.align	1
	.global	net_pkt_get_info
	.syntax unified
	.thumb
	.thumb_func
	.fpu fpv4-sp-d16
	.type	net_pkt_get_info, %function
net_pkt_get_info:
.LVL240:
.LFB908:
	.loc 1 823 1 is_stmt 1 view -0
	.cfi_startproc
	@ args = 0, pretend = 0, frame = 0
	@ frame_needed = 0, uses_anonymous_args = 0
	@ link register save eliminated.
	.loc 1 824 2 view .LVU767
	.loc 1 824 5 is_stmt 0 view .LVU768
	cbz	r0, .L179
	.loc 1 823 1 view .LVU769
	push	{r4}
	.cfi_def_cfa_offset 4
	.cfi_offset 4, -4
	mov	r4, r0
	.loc 1 825 3 is_stmt 1 view .LVU770
	.loc 1 825 7 is_stmt 0 view .LVU771
	ldr	r0, .L188
.LVL241:
	.loc 1 825 7 view .LVU772
	str	r0, [r4]
	.loc 1 828 2 is_stmt 1 view .LVU773
	.loc 1 828 5 is_stmt 0 view .LVU774
	cbz	r1, .L175
	.loc 1 829 3 is_stmt 1 view .LVU775
	.loc 1 829 7 is_stmt 0 view .LVU776
	ldr	r0, .L188+4
	str	r0, [r1]
.L175:
	.loc 1 832 2 is_stmt 1 view .LVU777
	.loc 1 832 5 is_stmt 0 view .LVU778
	cbz	r2, .L176
	.loc 1 833 3 is_stmt 1 view .LVU779
	.loc 1 833 12 is_stmt 0 view .LVU780
	ldr	r1, .L188+8
.LVL242:
	.loc 1 833 12 view .LVU781
	str	r1, [r2]
.L176:
	.loc 1 836 2 is_stmt 1 view .LVU782
	.loc 1 836 5 is_stmt 0 view .LVU783
	cbz	r3, .L173
	.loc 1 837 3 is_stmt 1 view .LVU784
	.loc 1 837 12 is_stmt 0 view .LVU785
	ldr	r2, .L188+12
.LVL243:
	.loc 1 837 12 view .LVU786
	str	r2, [r3]
.L173:
	.loc 1 839 1 view .LVU787
	ldr	r4, [sp], #4
	.cfi_restore 4
	.cfi_def_cfa_offset 0
.LVL244:
	.loc 1 839 1 view .LVU788
	bx	lr
.LVL245:
.L179:
	.loc 1 828 2 is_stmt 1 view .LVU789
	.loc 1 828 5 is_stmt 0 view .LVU790
	cbz	r1, .L181
	.loc 1 829 3 is_stmt 1 view .LVU791
	.loc 1 829 7 is_stmt 0 view .LVU792
	ldr	r0, .L188+4
.LVL246:
	.loc 1 829 7 view .LVU793
	str	r0, [r1]
.L181:
	.loc 1 832 2 is_stmt 1 view .LVU794
	.loc 1 832 5 is_stmt 0 view .LVU795
	cbz	r2, .L183
	.loc 1 833 3 is_stmt 1 view .LVU796
	.loc 1 833 12 is_stmt 0 view .LVU797
	ldr	r1, .L188+8
.LVL247:
	.loc 1 833 12 view .LVU798
	str	r1, [r2]
.L183:
	.loc 1 836 2 is_stmt 1 view .LVU799
	.loc 1 836 5 is_stmt 0 view .LVU800
	cbz	r3, .L185
	.loc 1 837 3 is_stmt 1 view .LVU801
	.loc 1 837 12 is_stmt 0 view .LVU802
	ldr	r2, .L188+12
.LVL248:
	.loc 1 837 12 view .LVU803
	str	r2, [r3]
	bx	lr
.LVL249:
.L185:
	.loc 1 837 12 view .LVU804
	bx	lr
.L189:
	.align	2
.L188:
	.word	.LANCHOR2
	.word	.LANCHOR3
	.word	.LANCHOR0
	.word	.LANCHOR1
	.cfi_endproc
.LFE908:
	.size	net_pkt_get_info, .-net_pkt_get_info
	.section	.text.net_pkt_available_buffer,"ax",%progbits
	.align	1
	.global	net_pkt_available_buffer
	.syntax unified
	.thumb
	.thumb_func
	.fpu fpv4-sp-d16
	.type	net_pkt_available_buffer, %function
net_pkt_available_buffer:
.LVL250:
.LFB913:
	.loc 1 1041 1 is_stmt 1 view -0
	.cfi_startproc
	@ args = 0, pretend = 0, frame = 0
	@ frame_needed = 0, uses_anonymous_args = 0
	.loc 1 1042 2 view .LVU806
	.loc 1 1042 5 is_stmt 0 view .LVU807
	cbz	r0, .L194
	.loc 1 1041 1 view .LVU808
	push	{r4, lr}
	.cfi_def_cfa_offset 8
	.cfi_offset 4, -8
	.cfi_offset 14, -4
	mov	r4, r0
	.loc 1 1046 2 is_stmt 1 view .LVU809
	.loc 1 1046 9 is_stmt 0 view .LVU810
	bl	pkt_get_max_len
.LVL251:
.LBB491:
.LBI491:
	.loc 2 961 22 is_stmt 1 view .LVU811
.LBB492:
	.loc 2 963 2 view .LVU812
	.loc 2 963 9 is_stmt 0 view .LVU813
	ldr	r3, [r4, #8]
.LVL252:
.LBB493:
.LBI493:
	.loc 4 2465 22 is_stmt 1 view .LVU814
.LBB494:
	.loc 4 2467 2 view .LVU815
	.loc 4 2469 2 view .LVU816
	.loc 4 2467 9 is_stmt 0 view .LVU817
	movs	r2, #0
.LVL253:
.L192:
	.loc 4 2469 8 is_stmt 1 view .LVU818
	cbz	r3, .L199
	.loc 4 2470 3 view .LVU819
	.loc 4 2470 15 is_stmt 0 view .LVU820
	ldrh	r1, [r3, #12]
	.loc 4 2470 9 view .LVU821
	add	r2, r2, r1
.LVL254:
	.loc 4 2471 3 is_stmt 1 view .LVU822
	.loc 4 2471 7 is_stmt 0 view .LVU823
	ldr	r3, [r3]
.LVL255:
	.loc 4 2471 7 view .LVU824
	b	.L192
.L199:
	.loc 4 2474 2 is_stmt 1 view .LVU825
.LVL256:
	.loc 4 2474 2 is_stmt 0 view .LVU826
.LBE494:
.LBE493:
.LBE492:
.LBE491:
	.loc 1 1046 30 view .LVU827
	subs	r0, r0, r2
	.loc 1 1047 1 view .LVU828
	pop	{r4, pc}
.LVL257:
.L194:
	.cfi_def_cfa_offset 0
	.cfi_restore 4
	.cfi_restore 14
	.loc 1 1043 10 view .LVU829
	movs	r0, #0
.LVL258:
	.loc 1 1047 1 view .LVU830
	bx	lr
	.cfi_endproc
.LFE913:
	.size	net_pkt_available_buffer, .-net_pkt_available_buffer
	.section	.text.net_pkt_available_payload_buffer,"ax",%progbits
	.align	1
	.global	net_pkt_available_payload_buffer
	.syntax unified
	.thumb
	.thumb_func
	.fpu fpv4-sp-d16
	.type	net_pkt_available_payload_buffer, %function
net_pkt_available_payload_buffer:
.LVL259:
.LFB914:
	.loc 1 1051 1 is_stmt 1 view -0
	.cfi_startproc
	@ args = 0, pretend = 0, frame = 0
	@ frame_needed = 0, uses_anonymous_args = 0
	.loc 1 1052 2 view .LVU832
	.loc 1 1053 2 view .LVU833
	.loc 1 1055 2 view .LVU834
	.loc 1 1055 5 is_stmt 0 view .LVU835
	cbz	r0, .L205
	.loc 1 1051 1 view .LVU836
	push	{r3, r4, r5, lr}
	.cfi_def_cfa_offset 16
	.cfi_offset 3, -16
	.cfi_offset 4, -12
	.cfi_offset 5, -8
	.cfi_offset 14, -4
	mov	r2, r1
	mov	r5, r0
	.loc 1 1059 2 is_stmt 1 view .LVU837
.LVL260:
.LBB495:
.LBI495:
	.loc 2 329 23 view .LVU838
.LBB496:
	.loc 2 331 2 view .LVU839
	.loc 2 331 12 is_stmt 0 view .LVU840
	ldrb	r1, [r0, #75]	@ zero_extendqisi2
.LVL261:
	.loc 2 331 12 view .LVU841
.LBE496:
.LBE495:
	.loc 1 1059 12 view .LVU842
	ubfx	r1, r1, #1, #3
	bl	pkt_estimate_headers_length
.LVL262:
	.loc 1 1060 2 is_stmt 1 view .LVU843
.LBB497:
.LBI497:
	.loc 2 961 22 view .LVU844
.LBB498:
	.loc 2 963 2 view .LVU845
	.loc 2 963 9 is_stmt 0 view .LVU846
	ldr	r3, [r5, #8]
.LVL263:
.LBB499:
.LBI499:
	.loc 4 2465 22 is_stmt 1 view .LVU847
.LBB500:
	.loc 4 2467 2 view .LVU848
	.loc 4 2469 2 view .LVU849
	.loc 4 2467 9 is_stmt 0 view .LVU850
	movs	r2, #0
	.loc 4 2469 8 view .LVU851
	b	.L202
.LVL264:
.L203:
	.loc 4 2470 3 is_stmt 1 view .LVU852
	.loc 4 2470 15 is_stmt 0 view .LVU853
	ldrh	r1, [r3, #12]
	.loc 4 2470 9 view .LVU854
	add	r2, r2, r1
.LVL265:
	.loc 4 2471 3 is_stmt 1 view .LVU855
	.loc 4 2471 7 is_stmt 0 view .LVU856
	ldr	r3, [r3]
.LVL266:
.L202:
	.loc 4 2469 8 is_stmt 1 view .LVU857
	cmp	r3, #0
	bne	.L203
	.loc 4 2474 2 view .LVU858
.LVL267:
	.loc 4 2474 2 is_stmt 0 view .LVU859
.LBE500:
.LBE499:
.LBE498:
.LBE497:
	.loc 1 1062 2 is_stmt 1 view .LVU860
	.loc 1 1062 31 is_stmt 0 view .LVU861
	cmp	r0, r2
	bls	.L206
	.loc 1 1062 31 discriminator 1 view .LVU862
	subs	r4, r0, r2
	b	.L204
.L206:
	.loc 1 1062 31 view .LVU863
	movs	r4, #0
.L204:
.LVL268:
	.loc 1 1064 2 is_stmt 1 discriminator 4 view .LVU864
	.loc 1 1064 8 is_stmt 0 discriminator 4 view .LVU865
	mov	r0, r5
	bl	net_pkt_available_buffer
.LVL269:
	.loc 1 1064 6 discriminator 4 view .LVU866
	subs	r0, r0, r4
.LVL270:
	.loc 1 1066 2 is_stmt 1 discriminator 4 view .LVU867
	.loc 1 1067 1 is_stmt 0 discriminator 4 view .LVU868
	pop	{r3, r4, r5, pc}
.LVL271:
.L205:
	.cfi_def_cfa_offset 0
	.cfi_restore 3
	.cfi_restore 4
	.cfi_restore 5
	.cfi_restore 14
	.loc 1 1056 10 view .LVU869
	movs	r0, #0
.LVL272:
	.loc 1 1067 1 view .LVU870
	bx	lr
	.cfi_endproc
.LFE914:
	.size	net_pkt_available_payload_buffer, .-net_pkt_available_payload_buffer
	.section	.text.net_pkt_trim_buffer,"ax",%progbits
	.align	1
	.global	net_pkt_trim_buffer
	.syntax unified
	.thumb
	.thumb_func
	.fpu fpv4-sp-d16
	.type	net_pkt_trim_buffer, %function
net_pkt_trim_buffer:
.LVL273:
.LFB915:
	.loc 1 1070 1 is_stmt 1 view -0
	.cfi_startproc
	@ args = 0, pretend = 0, frame = 0
	@ frame_needed = 0, uses_anonymous_args = 0
	.loc 1 1070 1 is_stmt 0 view .LVU872
	push	{r4, r5, r6, lr}
	.cfi_def_cfa_offset 16
	.cfi_offset 4, -16
	.cfi_offset 5, -12
	.cfi_offset 6, -8
	.cfi_offset 14, -4
	mov	r5, r0
	.loc 1 1071 2 is_stmt 1 view .LVU873
	.loc 1 1073 2 view .LVU874
	.loc 1 1073 6 is_stmt 0 view .LVU875
	ldr	r0, [r0, #8]
.LVL274:
	.loc 1 1074 2 is_stmt 1 view .LVU876
	.loc 1 1076 2 view .LVU877
	.loc 1 1074 7 is_stmt 0 view .LVU878
	mov	r6, r0
	.loc 1 1076 8 view .LVU879
	b	.L212
.LVL275:
.L220:
.LBB501:
	.loc 1 1081 5 is_stmt 1 view .LVU880
	.loc 1 1081 17 is_stmt 0 view .LVU881
	str	r4, [r5, #8]
	b	.L215
.L221:
	.loc 1 1083 5 is_stmt 1 view .LVU882
	.loc 1 1083 17 is_stmt 0 view .LVU883
	str	r4, [r6]
	b	.L215
.L217:
	.loc 1 1089 9 view .LVU884
	mov	r6, r0
.LVL276:
.L213:
	.loc 1 1089 9 view .LVU885
	mov	r0, r4
.LVL277:
.L212:
	.loc 1 1089 9 view .LVU886
.LBE501:
	.loc 1 1076 8 is_stmt 1 view .LVU887
	cbz	r0, .L219
.LBB502:
	.loc 1 1077 3 view .LVU888
	.loc 1 1077 19 is_stmt 0 view .LVU889
	ldr	r4, [r0]
.LVL278:
	.loc 1 1079 3 is_stmt 1 view .LVU890
	.loc 1 1079 11 is_stmt 0 view .LVU891
	ldrh	r3, [r0, #12]
	.loc 1 1079 6 view .LVU892
	cmp	r3, #0
	bne	.L217
	.loc 1 1080 4 is_stmt 1 view .LVU893
	.loc 1 1080 18 is_stmt 0 view .LVU894
	ldr	r3, [r5, #8]
	.loc 1 1080 7 view .LVU895
	cmp	r3, r0
	beq	.L220
	.loc 1 1082 11 is_stmt 1 view .LVU896
	.loc 1 1082 26 is_stmt 0 view .LVU897
	ldr	r3, [r6]
	.loc 1 1082 14 view .LVU898
	cmp	r3, r0
	beq	.L221
.L215:
	.loc 1 1086 4 is_stmt 1 view .LVU899
	.loc 1 1086 15 is_stmt 0 view .LVU900
	movs	r3, #0
	str	r3, [r0]
	.loc 1 1087 4 is_stmt 1 view .LVU901
	bl	net_buf_unref
.LVL279:
	.loc 1 1087 4 is_stmt 0 view .LVU902
	b	.L213
.LVL280:
.L219:
	.loc 1 1087 4 view .LVU903
.LBE502:
	.loc 1 1094 1 view .LVU904
	pop	{r4, r5, r6, pc}
	.loc 1 1094 1 view .LVU905
	.cfi_endproc
.LFE915:
	.size	net_pkt_trim_buffer, .-net_pkt_trim_buffer
	.section	.text.net_pkt_remove_tail,"ax",%progbits
	.align	1
	.global	net_pkt_remove_tail
	.syntax unified
	.thumb
	.thumb_func
	.fpu fpv4-sp-d16
	.type	net_pkt_remove_tail, %function
net_pkt_remove_tail:
.LVL281:
.LFB916:
	.loc 1 1097 1 is_stmt 1 view -0
	.cfi_startproc
	@ args = 0, pretend = 0, frame = 0
	@ frame_needed = 0, uses_anonymous_args = 0
	.loc 1 1097 1 is_stmt 0 view .LVU907
	push	{r4, lr}
	.cfi_def_cfa_offset 8
	.cfi_offset 4, -8
	.cfi_offset 14, -4
	.loc 1 1098 2 is_stmt 1 view .LVU908
	.loc 1 1098 18 is_stmt 0 view .LVU909
	ldr	r4, [r0, #8]
.LVL282:
	.loc 1 1099 2 is_stmt 1 view .LVU910
.LBB503:
.LBI503:
	.loc 2 961 22 view .LVU911
.LBE503:
	.loc 2 963 2 view .LVU912
.LBB506:
.LBB504:
.LBI504:
	.loc 4 2465 22 view .LVU913
.LBB505:
	.loc 4 2467 2 view .LVU914
	.loc 4 2469 2 view .LVU915
	.loc 4 2469 8 is_stmt 0 view .LVU916
	mov	r2, r4
	.loc 4 2467 9 view .LVU917
	movs	r3, #0
.LVL283:
.L223:
	.loc 4 2469 8 is_stmt 1 view .LVU918
	cbz	r2, .L232
	.loc 4 2470 3 view .LVU919
	.loc 4 2470 15 is_stmt 0 view .LVU920
	ldrh	r0, [r2, #12]
	.loc 4 2470 9 view .LVU921
	add	r3, r3, r0
.LVL284:
	.loc 4 2471 3 is_stmt 1 view .LVU922
	.loc 4 2471 7 is_stmt 0 view .LVU923
	ldr	r2, [r2]
.LVL285:
	.loc 4 2471 7 view .LVU924
	b	.L223
.L232:
	.loc 4 2474 2 is_stmt 1 view .LVU925
.LVL286:
	.loc 4 2474 2 is_stmt 0 view .LVU926
.LBE505:
.LBE504:
.LBE506:
	.loc 1 1101 2 is_stmt 1 view .LVU927
	.loc 1 1101 5 is_stmt 0 view .LVU928
	cmp	r1, r3
	bhi	.L229
	.loc 1 1105 2 is_stmt 1 view .LVU929
	.loc 1 1105 16 is_stmt 0 view .LVU930
	subs	r1, r3, r1
.LVL287:
	.loc 1 1107 2 is_stmt 1 view .LVU931
.L226:
	.loc 1 1107 8 view .LVU932
	cbz	r4, .L233
	.loc 1 1108 3 view .LVU933
	.loc 1 1108 10 is_stmt 0 view .LVU934
	ldrh	r3, [r4, #12]
	.loc 1 1108 6 view .LVU935
	cmp	r3, r1
	bcs	.L234
	.loc 1 1119 3 is_stmt 1 view .LVU936
	.loc 1 1119 17 is_stmt 0 view .LVU937
	subs	r1, r1, r3
.LVL288:
	.loc 1 1120 3 is_stmt 1 view .LVU938
	.loc 1 1120 7 is_stmt 0 view .LVU939
	ldr	r4, [r4]
.LVL289:
	.loc 1 1120 7 view .LVU940
	b	.L226
.L234:
	.loc 1 1109 4 is_stmt 1 view .LVU941
	.loc 1 1109 13 is_stmt 0 view .LVU942
	strh	r1, [r4, #12]	@ movhi
	.loc 1 1111 4 is_stmt 1 view .LVU943
	.loc 1 1111 11 is_stmt 0 view .LVU944
	ldr	r0, [r4]
	.loc 1 1111 7 view .LVU945
	cbz	r0, .L230
	.loc 1 1112 5 is_stmt 1 view .LVU946
	bl	net_pkt_frag_unref
.LVL290:
	.loc 1 1113 5 view .LVU947
	.loc 1 1113 16 is_stmt 0 view .LVU948
	movs	r0, #0
	str	r0, [r4]
	b	.L222
.LVL291:
.L233:
	.loc 1 1123 9 view .LVU949
	movs	r0, #0
.LVL292:
.L222:
	.loc 1 1124 1 view .LVU950
	pop	{r4, pc}
.LVL293:
.L229:
	.loc 1 1102 10 view .LVU951
	mvn	r0, #21
	b	.L222
.LVL294:
.L230:
	.loc 1 1123 9 view .LVU952
	movs	r0, #0
	b	.L222
	.cfi_endproc
.LFE916:
	.size	net_pkt_remove_tail, .-net_pkt_remove_tail
	.section	.text.net_pkt_cursor_init,"ax",%progbits
	.align	1
	.global	net_pkt_cursor_init
	.syntax unified
	.thumb
	.thumb_func
	.fpu fpv4-sp-d16
	.type	net_pkt_cursor_init, %function
net_pkt_cursor_init:
.LVL295:
.LFB929:
	.loc 1 1515 1 is_stmt 1 view -0
	.cfi_startproc
	@ args = 0, pretend = 0, frame = 0
	@ frame_needed = 0, uses_anonymous_args = 0
	@ link register save eliminated.
	.loc 1 1516 2 view .LVU954
	.loc 1 1516 23 is_stmt 0 view .LVU955
	ldr	r3, [r0, #8]
	.loc 1 1516 18 view .LVU956
	str	r3, [r0, #12]
	.loc 1 1517 2 is_stmt 1 view .LVU957
	.loc 1 1517 5 is_stmt 0 view .LVU958
	cbz	r3, .L236
	.loc 1 1518 3 is_stmt 1 view .LVU959
	.loc 1 1518 36 is_stmt 0 view .LVU960
	ldr	r3, [r3, #8]
	.loc 1 1518 19 view .LVU961
	str	r3, [r0, #16]
	bx	lr
.L236:
	.loc 1 1520 3 is_stmt 1 view .LVU962
	.loc 1 1520 19 is_stmt 0 view .LVU963
	movs	r3, #0
	str	r3, [r0, #16]
	.loc 1 1522 1 view .LVU964
	bx	lr
	.cfi_endproc
.LFE929:
	.size	net_pkt_cursor_init, .-net_pkt_cursor_init
	.section	.text.pkt_alloc,"ax",%progbits
	.align	1
	.syntax unified
	.thumb
	.thumb_func
	.fpu fpv4-sp-d16
	.type	pkt_alloc, %function
pkt_alloc:
.LVL296:
.LFB918:
	.loc 1 1217 1 is_stmt 1 view -0
	.cfi_startproc
	@ args = 0, pretend = 0, frame = 8
	@ frame_needed = 0, uses_anonymous_args = 0
	.loc 1 1217 1 is_stmt 0 view .LVU966
	push	{r4, r5, r6, lr}
	.cfi_def_cfa_offset 16
	.cfi_offset 4, -16
	.cfi_offset 5, -12
	.cfi_offset 6, -8
	.cfi_offset 14, -4
	sub	sp, sp, #8
	.cfi_def_cfa_offset 24
	mov	r4, r0
	mov	r6, r2
.LVL297:
	.loc 1 1217 1 view .LVU967
	mov	r5, r3
	.loc 1 1218 2 is_stmt 1 view .LVU968
	.loc 1 1219 2 view .LVU969
	.loc 1 1220 2 view .LVU970
	.loc 1 1222 2 view .LVU971
	.loc 1 1222 6 is_stmt 0 view .LVU972
	bl	k_is_in_isr
.LVL298:
	.loc 1 1222 5 view .LVU973
	cbz	r0, .L239
.LBB507:
	.loc 1 1223 3 is_stmt 1 view .LVU974
	.loc 1 1223 11 is_stmt 0 view .LVU975
	movs	r6, #0
	.loc 1 1223 11 view .LVU976
	mov	r5, r6
.L239:
	.loc 1 1223 11 view .LVU977
.LBE507:
	.loc 1 1226 2 is_stmt 1 view .LVU978
	.loc 1 1230 3 view .LVU979
	.loc 1 1233 2 view .LVU980
	.loc 1 1233 8 is_stmt 0 view .LVU981
	mov	r2, r6
.LVL299:
	.loc 1 1233 8 view .LVU982
	mov	r3, r5
	add	r1, sp, #4
	mov	r0, r4
	bl	k_mem_slab_alloc
.LVL300:
	.loc 1 1234 2 is_stmt 1 view .LVU983
	.loc 1 1234 5 is_stmt 0 view .LVU984
	cbnz	r0, .L243
	.loc 1 1238 1 is_stmt 1 view .LVU985
.LVL301:
.LBB508:
.LBI508:
	.loc 5 86 189 view .LVU986
.LBB509:
	.loc 5 86 238 view .LVU987
	.loc 5 86 245 is_stmt 0 view .LVU988
	movs	r2, #88
	movs	r1, #0
	ldr	r0, [sp, #4]
.LVL302:
	.loc 5 86 245 view .LVU989
	bl	memset
.LVL303:
	.loc 5 86 245 view .LVU990
.LBE509:
.LBE508:
	.loc 1 1240 2 is_stmt 1 view .LVU991
	.loc 1 1240 5 is_stmt 0 view .LVU992
	ldr	r0, [sp, #4]
	.loc 1 1240 18 view .LVU993
	movs	r3, #1
	str	r3, [r0, #48]
	.loc 1 1241 2 is_stmt 1 view .LVU994
	.loc 1 1241 12 is_stmt 0 view .LVU995
	str	r4, [r0, #4]
	.loc 1 1243 2 is_stmt 1 view .LVU996
	.loc 1 1244 3 view .LVU997
.LVL304:
.LBB510:
.LBI510:
	.loc 2 517 20 view .LVU998
.LBB511:
	.loc 2 520 2 view .LVU999
	.loc 2 520 21 is_stmt 0 view .LVU1000
	movs	r3, #255
	strb	r3, [r0, #87]
.LVL305:
	.loc 2 520 21 view .LVU1001
.LBE511:
.LBE510:
	.loc 1 1259 2 is_stmt 1 view .LVU1002
	.loc 1 1259 5 is_stmt 0 view .LVU1003
	ldr	r3, .L247
	cmp	r4, r3
	beq	.L245
	.loc 1 1261 9 is_stmt 1 view .LVU1004
	.loc 1 1261 12 is_stmt 0 view .LVU1005
	ldr	r3, .L247+4
	cmp	r4, r3
	beq	.L246
.L242:
	.loc 1 1265 2 is_stmt 1 view .LVU1006
	.loc 1 1270 2 view .LVU1007
.LVL306:
	.loc 2 786 2 view .LVU1008
	.loc 2 787 2 view .LVU1009
	.loc 1 1276 2 view .LVU1010
	bl	net_pkt_cursor_init
.LVL307:
	.loc 1 1278 2 view .LVU1011
	.loc 1 1278 9 is_stmt 0 view .LVU1012
	ldr	r0, [sp, #4]
.L238:
	.loc 1 1279 1 view .LVU1013
	add	sp, sp, #8
	.cfi_remember_state
	.cfi_def_cfa_offset 16
	@ sp needed
	pop	{r4, r5, r6, pc}
.LVL308:
.L245:
	.cfi_restore_state
	.loc 1 1260 3 is_stmt 1 view .LVU1014
.LBB512:
.LBI512:
	.loc 2 731 20 view .LVU1015
.LBB513:
	.loc 2 734 2 view .LVU1016
	.loc 2 734 16 is_stmt 0 view .LVU1017
	movs	r3, #1
	strb	r3, [r0, #82]
	.loc 2 735 1 view .LVU1018
	b	.L242
.LVL309:
.L246:
	.loc 2 735 1 view .LVU1019
.LBE513:
.LBE512:
	.loc 1 1262 3 is_stmt 1 view .LVU1020
.LBB514:
.LBI514:
	.loc 2 731 20 view .LVU1021
.LBB515:
	.loc 2 734 2 view .LVU1022
	.loc 2 734 16 is_stmt 0 view .LVU1023
	movs	r3, #0
	strb	r3, [r0, #82]
	.loc 2 735 1 view .LVU1024
	b	.L242
.LVL310:
.L243:
	.loc 2 735 1 view .LVU1025
.LBE515:
.LBE514:
	.loc 1 1235 9 view .LVU1026
	movs	r0, #0
.LVL311:
	.loc 1 1235 9 view .LVU1027
	b	.L238
.L248:
	.align	2
.L247:
	.word	.LANCHOR3
	.word	.LANCHOR2
	.cfi_endproc
.LFE918:
	.size	pkt_alloc, .-pkt_alloc
	.section	.text.net_pkt_alloc,"ax",%progbits
	.align	1
	.global	net_pkt_alloc
	.syntax unified
	.thumb
	.thumb_func
	.fpu fpv4-sp-d16
	.type	net_pkt_alloc, %function
net_pkt_alloc:
.LVL312:
.LFB919:
	.loc 1 1287 1 is_stmt 1 view -0
	.cfi_startproc
	@ args = 0, pretend = 0, frame = 0
	@ frame_needed = 0, uses_anonymous_args = 0
	.loc 1 1287 1 is_stmt 0 view .LVU1029
	push	{r3, lr}
	.cfi_def_cfa_offset 8
	.cfi_offset 3, -8
	.cfi_offset 14, -4
	mov	r2, r0
	.loc 1 1287 1 view .LVU1030
	mov	r3, r1
	.loc 1 1291 2 is_stmt 1 view .LVU1031
	.loc 1 1291 9 is_stmt 0 view .LVU1032
	ldr	r0, .L251
.LVL313:
	.loc 1 1291 9 view .LVU1033
	bl	pkt_alloc
.LVL314:
	.loc 1 1293 1 view .LVU1034
	pop	{r3, pc}
.L252:
	.align	2
.L251:
	.word	.LANCHOR3
	.cfi_endproc
.LFE919:
	.size	net_pkt_alloc, .-net_pkt_alloc
	.section	.text.net_pkt_alloc_from_slab,"ax",%progbits
	.align	1
	.global	net_pkt_alloc_from_slab
	.syntax unified
	.thumb
	.thumb_func
	.fpu fpv4-sp-d16
	.type	net_pkt_alloc_from_slab, %function
net_pkt_alloc_from_slab:
.LVL315:
.LFB920:
	.loc 1 1303 1 is_stmt 1 view -0
	.cfi_startproc
	@ args = 0, pretend = 0, frame = 0
	@ frame_needed = 0, uses_anonymous_args = 0
	.loc 1 1304 2 view .LVU1036
	.loc 1 1304 5 is_stmt 0 view .LVU1037
	cbz	r0, .L255
	.loc 1 1303 1 view .LVU1038
	push	{r3, lr}
	.cfi_def_cfa_offset 8
	.cfi_offset 3, -8
	.cfi_offset 14, -4
	.loc 1 1311 2 is_stmt 1 view .LVU1039
	.loc 1 1311 9 is_stmt 0 view .LVU1040
	bl	pkt_alloc
.LVL316:
	.loc 1 1313 1 view .LVU1041
	pop	{r3, pc}
.LVL317:
.L255:
	.cfi_def_cfa_offset 0
	.cfi_restore 3
	.cfi_restore 14
	.loc 1 1313 1 view .LVU1042
	bx	lr
	.cfi_endproc
.LFE920:
	.size	net_pkt_alloc_from_slab, .-net_pkt_alloc_from_slab
	.section	.text.net_pkt_rx_alloc,"ax",%progbits
	.align	1
	.global	net_pkt_rx_alloc
	.syntax unified
	.thumb
	.thumb_func
	.fpu fpv4-sp-d16
	.type	net_pkt_rx_alloc, %function
net_pkt_rx_alloc:
.LVL318:
.LFB921:
	.loc 1 1321 1 is_stmt 1 view -0
	.cfi_startproc
	@ args = 0, pretend = 0, frame = 0
	@ frame_needed = 0, uses_anonymous_args = 0
	.loc 1 1321 1 is_stmt 0 view .LVU1044
	push	{r3, lr}
	.cfi_def_cfa_offset 8
	.cfi_offset 3, -8
	.cfi_offset 14, -4
	mov	r2, r0
	.loc 1 1321 1 view .LVU1045
	mov	r3, r1
	.loc 1 1325 2 is_stmt 1 view .LVU1046
	.loc 1 1325 9 is_stmt 0 view .LVU1047
	ldr	r0, .L262
.LVL319:
	.loc 1 1325 9 view .LVU1048
	bl	pkt_alloc
.LVL320:
	.loc 1 1327 1 view .LVU1049
	pop	{r3, pc}
.L263:
	.align	2
.L262:
	.word	.LANCHOR2
	.cfi_endproc
.LFE921:
	.size	net_pkt_rx_alloc, .-net_pkt_rx_alloc
	.section	.text.pkt_alloc_on_iface,"ax",%progbits
	.align	1
	.syntax unified
	.thumb
	.thumb_func
	.fpu fpv4-sp-d16
	.type	pkt_alloc_on_iface, %function
pkt_alloc_on_iface:
.LVL321:
.LFB922:
	.loc 1 1340 1 is_stmt 1 view -0
	.cfi_startproc
	@ args = 0, pretend = 0, frame = 0
	@ frame_needed = 0, uses_anonymous_args = 0
	.loc 1 1340 1 is_stmt 0 view .LVU1051
	push	{r4, lr}
	.cfi_def_cfa_offset 8
	.cfi_offset 4, -8
	.cfi_offset 14, -4
	mov	r4, r1
	.loc 1 1341 2 is_stmt 1 view .LVU1052
	.loc 1 1346 2 view .LVU1053
	.loc 1 1346 8 is_stmt 0 view .LVU1054
	bl	pkt_alloc
.LVL322:
	.loc 1 1349 2 is_stmt 1 view .LVU1055
	.loc 1 1349 5 is_stmt 0 view .LVU1056
	mov	r3, r0
	cbz	r0, .L264
	.loc 1 1350 3 is_stmt 1 view .LVU1057
.LVL323:
.LBB516:
.LBI516:
	.loc 2 298 20 view .LVU1058
.LBB517:
	.loc 2 300 2 view .LVU1059
	.loc 2 300 13 is_stmt 0 view .LVU1060
	str	r4, [r0, #24]
	.loc 2 306 2 is_stmt 1 view .LVU1061
	.loc 2 306 5 is_stmt 0 view .LVU1062
	cbz	r4, .L264
	.loc 2 307 3 is_stmt 1 view .LVU1063
.LVL324:
.LBB518:
.LBI518:
	.loc 3 680 36 view .LVU1064
.LBB519:
	.loc 3 682 2 view .LVU1065
	.loc 3 682 15 is_stmt 0 view .LVU1066
	ldr	r2, [r4]
.LVL325:
	.loc 3 682 15 view .LVU1067
.LBE519:
.LBE518:
	.loc 2 307 53 view .LVU1068
	ldrb	r2, [r2, #21]	@ zero_extendqisi2
	.loc 2 307 24 view .LVU1069
	strb	r2, [r0, #57]
	.loc 2 308 3 is_stmt 1 view .LVU1070
.LVL326:
.LBB520:
.LBI520:
	.loc 3 680 36 view .LVU1071
.LBB521:
	.loc 3 682 2 view .LVU1072
	.loc 3 682 15 is_stmt 0 view .LVU1073
	ldr	r2, [r4]
.LVL327:
	.loc 3 682 15 view .LVU1074
.LBE521:
.LBE520:
	.loc 2 308 53 view .LVU1075
	ldrb	r2, [r2, #21]	@ zero_extendqisi2
	.loc 2 308 24 view .LVU1076
	strb	r2, [r0, #65]
.LVL328:
	.loc 2 308 24 view .LVU1077
.LBE517:
.LBE516:
	.loc 1 1353 2 is_stmt 1 view .LVU1078
.L264:
	.loc 1 1354 1 is_stmt 0 view .LVU1079
	mov	r0, r3
.LVL329:
	.loc 1 1354 1 view .LVU1080
	pop	{r4, pc}
	.loc 1 1354 1 view .LVU1081
	.cfi_endproc
.LFE922:
	.size	pkt_alloc_on_iface, .-pkt_alloc_on_iface
	.section	.text.net_pkt_alloc_on_iface,"ax",%progbits
	.align	1
	.global	net_pkt_alloc_on_iface
	.syntax unified
	.thumb
	.thumb_func
	.fpu fpv4-sp-d16
	.type	net_pkt_alloc_on_iface, %function
net_pkt_alloc_on_iface:
.LVL330:
.LFB923:
	.loc 1 1365 1 is_stmt 1 view -0
	.cfi_startproc
	@ args = 0, pretend = 0, frame = 0
	@ frame_needed = 0, uses_anonymous_args = 0
	.loc 1 1365 1 is_stmt 0 view .LVU1083
	push	{r3, lr}
	.cfi_def_cfa_offset 8
	.cfi_offset 3, -8
	.cfi_offset 14, -4
	mov	r1, r0
	.loc 1 1369 2 is_stmt 1 view .LVU1084
	.loc 1 1369 9 is_stmt 0 view .LVU1085
	ldr	r0, .L269
.LVL331:
	.loc 1 1369 9 view .LVU1086
	bl	pkt_alloc_on_iface
.LVL332:
	.loc 1 1371 1 view .LVU1087
	pop	{r3, pc}
.L270:
	.align	2
.L269:
	.word	.LANCHOR3
	.cfi_endproc
.LFE923:
	.size	net_pkt_alloc_on_iface, .-net_pkt_alloc_on_iface
	.section	.text.net_pkt_rx_alloc_on_iface,"ax",%progbits
	.align	1
	.global	net_pkt_rx_alloc_on_iface
	.syntax unified
	.thumb
	.thumb_func
	.fpu fpv4-sp-d16
	.type	net_pkt_rx_alloc_on_iface, %function
net_pkt_rx_alloc_on_iface:
.LVL333:
.LFB924:
	.loc 1 1382 1 is_stmt 1 view -0
	.cfi_startproc
	@ args = 0, pretend = 0, frame = 0
	@ frame_needed = 0, uses_anonymous_args = 0
	.loc 1 1382 1 is_stmt 0 view .LVU1089
	push	{r3, lr}
	.cfi_def_cfa_offset 8
	.cfi_offset 3, -8
	.cfi_offset 14, -4
	mov	r1, r0
	.loc 1 1386 2 is_stmt 1 view .LVU1090
	.loc 1 1386 9 is_stmt 0 view .LVU1091
	ldr	r0, .L273
.LVL334:
	.loc 1 1386 9 view .LVU1092
	bl	pkt_alloc_on_iface
.LVL335:
	.loc 1 1388 1 view .LVU1093
	pop	{r3, pc}
.L274:
	.align	2
.L273:
	.word	.LANCHOR2
	.cfi_endproc
.LFE924:
	.size	net_pkt_rx_alloc_on_iface, .-net_pkt_rx_alloc_on_iface
	.section	.text.net_pkt_append_buffer,"ax",%progbits
	.align	1
	.global	net_pkt_append_buffer
	.syntax unified
	.thumb
	.thumb_func
	.fpu fpv4-sp-d16
	.type	net_pkt_append_buffer, %function
net_pkt_append_buffer:
.LVL336:
.LFB928:
	.loc 1 1505 1 is_stmt 1 view -0
	.cfi_startproc
	@ args = 0, pretend = 0, frame = 0
	@ frame_needed = 0, uses_anonymous_args = 0
	.loc 1 1505 1 is_stmt 0 view .LVU1095
	push	{r4, lr}
	.cfi_def_cfa_offset 8
	.cfi_offset 4, -8
	.cfi_offset 14, -4
	mov	r3, r0
	mov	r4, r1
	.loc 1 1506 2 is_stmt 1 view .LVU1096
	.loc 1 1506 10 is_stmt 0 view .LVU1097
	ldr	r0, [r0, #8]
.LVL337:
	.loc 1 1506 5 view .LVU1098
	cbz	r0, .L279
	.loc 1 1510 3 is_stmt 1 view .LVU1099
	bl	net_buf_frag_last
.LVL338:
	.loc 1 1510 3 is_stmt 0 view .LVU1100
	mov	r1, r4
	bl	net_buf_frag_insert
.LVL339:
.L275:
	.loc 1 1512 1 view .LVU1101
	pop	{r4, pc}
.LVL340:
.L279:
	.loc 1 1507 3 is_stmt 1 view .LVU1102
	.loc 1 1507 15 is_stmt 0 view .LVU1103
	str	r1, [r3, #8]
	.loc 1 1508 3 is_stmt 1 view .LVU1104
	mov	r0, r3
	bl	net_pkt_cursor_init
.LVL341:
	.loc 1 1508 3 is_stmt 0 view .LVU1105
	b	.L275
	.cfi_endproc
.LFE928:
	.size	net_pkt_append_buffer, .-net_pkt_append_buffer
	.section	.rodata.net_pkt_alloc_buffer.str1.4,"aMS",%progbits,1
	.align	2
.LC0:
	.ascii	"Data buffer (%zd) allocation failed.\000"
	.section	.text.net_pkt_alloc_buffer,"ax",%progbits
	.align	1
	.global	net_pkt_alloc_buffer
	.syntax unified
	.thumb
	.thumb_func
	.fpu fpv4-sp-d16
	.type	net_pkt_alloc_buffer, %function
net_pkt_alloc_buffer:
.LVL342:
.LFB917:
	.loc 1 1139 1 is_stmt 1 view -0
	.cfi_startproc
	@ args = 8, pretend = 0, frame = 40
	@ frame_needed = 0, uses_anonymous_args = 0
	.loc 1 1139 1 is_stmt 0 view .LVU1107
	push	{r4, r5, r6, r7, r8, r9, r10, fp, lr}
	.cfi_def_cfa_offset 36
	.cfi_offset 4, -36
	.cfi_offset 5, -32
	.cfi_offset 6, -28
	.cfi_offset 7, -24
	.cfi_offset 8, -20
	.cfi_offset 9, -16
	.cfi_offset 10, -12
	.cfi_offset 11, -8
	.cfi_offset 14, -4
	sub	sp, sp, #44
	.cfi_def_cfa_offset 80
	mov	r4, r0
	mov	r6, r1
	mov	r5, r2
	ldrd	r8, [sp, #80]
	.loc 1 1140 2 is_stmt 1 view .LVU1108
	.loc 1 1140 17 is_stmt 0 view .LVU1109
	mov	r0, r8
.LVL343:
	.loc 1 1140 17 view .LVU1110
	mov	r1, r9
.LVL344:
	.loc 1 1140 17 view .LVU1111
	bl	sys_clock_timeout_end_calc
.LVL345:
	.loc 1 1140 17 view .LVU1112
	mov	r7, r0
	mov	r10, r1
.LVL346:
	.loc 1 1141 2 is_stmt 1 view .LVU1113
	.loc 1 1142 2 view .LVU1114
	.loc 1 1143 2 view .LVU1115
	.loc 1 1144 2 view .LVU1116
	.loc 1 1146 2 view .LVU1117
	.loc 1 1146 5 is_stmt 0 view .LVU1118
	cbnz	r6, .L281
	.loc 1 1146 12 discriminator 1 view .LVU1119
	cbnz	r5, .L281
.LVL347:
.LBB522:
.LBI522:
	.loc 2 329 23 is_stmt 1 view .LVU1120
.LBB523:
	.loc 2 331 2 view .LVU1121
	.loc 2 331 12 is_stmt 0 view .LVU1122
	ldrb	r3, [r4, #75]	@ zero_extendqisi2
.LVL348:
	.loc 2 331 12 view .LVU1123
.LBE523:
.LBE522:
	.loc 1 1146 26 view .LVU1124
	tst	r3, #14
	beq	.L289
.L281:
	.loc 1 1150 2 is_stmt 1 view .LVU1125
	.loc 1 1150 6 is_stmt 0 view .LVU1126
	bl	k_is_in_isr
.LVL349:
	.loc 1 1150 5 view .LVU1127
	cbz	r0, .L283
.LBB524:
	.loc 1 1151 3 is_stmt 1 view .LVU1128
	.loc 1 1151 11 is_stmt 0 view .LVU1129
	mov	r8, #0
.LVL350:
	.loc 1 1151 11 view .LVU1130
	mov	r9, #0
.LVL351:
.L283:
	.loc 1 1151 11 view .LVU1131
.LBE524:
	.loc 1 1155 2 is_stmt 1 view .LVU1132
	.loc 1 1155 14 is_stmt 0 view .LVU1133
	mov	r0, r4
	bl	net_pkt_available_buffer
.LVL352:
	.loc 1 1156 2 is_stmt 1 view .LVU1134
	.loc 1 1156 5 is_stmt 0 view .LVU1135
	mov	fp, r0
	cbnz	r0, .L290
	.loc 1 1160 3 is_stmt 1 view .LVU1136
.LVL353:
.LBB525:
.LBI525:
	.loc 2 329 23 view .LVU1137
.LBB526:
	.loc 2 331 2 view .LVU1138
	.loc 2 331 12 is_stmt 0 view .LVU1139
	ldrb	r1, [r4, #75]	@ zero_extendqisi2
.LVL354:
	.loc 2 331 12 view .LVU1140
.LBE526:
.LBE525:
	.loc 1 1160 13 view .LVU1141
	mov	r2, r5
	ubfx	r1, r1, #1, #3
	mov	r0, r4
.LVL355:
	.loc 1 1160 13 view .LVU1142
	bl	pkt_estimate_headers_length
.LVL356:
	.loc 1 1160 13 view .LVU1143
	b	.L284
.LVL357:
.L290:
	.loc 1 1143 9 view .LVU1144
	movs	r0, #0
.LVL358:
.L284:
	.loc 1 1166 2 is_stmt 1 view .LVU1145
	.loc 1 1166 14 is_stmt 0 view .LVU1146
	mov	r3, fp
	mov	r2, r5
	adds	r1, r6, r0
	mov	r0, r4
.LVL359:
	.loc 1 1166 14 view .LVU1147
	bl	pkt_buffer_length
.LVL360:
	mov	r5, r0
.LVL361:
	.loc 1 1168 2 is_stmt 1 view .LVU1148
.LBB527:
	.loc 1 1168 7 view .LVU1149
.LBE527:
	.loc 1 1168 167 view .LVU1150
	.loc 1 1171 2 view .LVU1151
	.loc 1 1175 2 view .LVU1152
	.loc 1 1176 3 view .LVU1153
	.loc 1 1176 13 is_stmt 0 view .LVU1154
	ldr	r2, [r4, #4]
	.loc 1 1176 43 view .LVU1155
	ldr	r3, .L297
	cmp	r2, r3
	beq	.L293
	ldr	r6, .L297+4
.LVL362:
.L285:
	.loc 1 1179 2 is_stmt 1 discriminator 4 view .LVU1156
.LBB528:
	.loc 1 1179 5 is_stmt 0 discriminator 4 view .LVU1157
	orrs	r3, r8, r9
	beq	.L286
	.loc 1 1179 56 discriminator 1 view .LVU1158
	cmp	r9, #-1
	it	eq
	cmpeq	r8, #-1
	bne	.L294
.LVL363:
.L286:
	.loc 1 1179 56 discriminator 1 view .LVU1159
.LBE528:
	.loc 1 1193 2 is_stmt 1 discriminator 4 view .LVU1160
	.loc 1 1193 8 is_stmt 0 discriminator 4 view .LVU1161
	mov	r2, r8
	mov	r3, r9
	mov	r1, r5
	mov	r0, r6
	bl	pkt_alloc_buffer
.LVL364:
	.loc 1 1196 2 is_stmt 1 discriminator 4 view .LVU1162
	.loc 1 1196 5 is_stmt 0 discriminator 4 view .LVU1163
	mov	r1, r0
	cbz	r0, .L295
	.loc 1 1206 2 is_stmt 1 view .LVU1164
	mov	r0, r4
.LVL365:
	.loc 1 1206 2 is_stmt 0 view .LVU1165
	bl	net_pkt_append_buffer
.LVL366:
	.loc 1 1208 2 is_stmt 1 view .LVU1166
	.loc 1 1208 9 is_stmt 0 view .LVU1167
	movs	r0, #0
.LVL367:
.L280:
	.loc 1 1209 1 view .LVU1168
	add	sp, sp, #44
	.cfi_remember_state
	.cfi_def_cfa_offset 36
	@ sp needed
	pop	{r4, r5, r6, r7, r8, r9, r10, fp, pc}
.LVL368:
.L293:
	.cfi_restore_state
	.loc 1 1176 43 view .LVU1169
	ldr	r6, .L297+8
.LVL369:
	.loc 1 1176 43 view .LVU1170
	b	.L285
.LVL370:
.L294:
.LBB532:
.LBB529:
	.loc 1 1181 3 is_stmt 1 view .LVU1171
	.loc 1 1181 29 is_stmt 0 view .LVU1172
	bl	sys_clock_tick_get
.LVL371:
	.loc 1 1181 27 view .LVU1173
	subs	r3, r7, r0
	str	r3, [sp]
	sbc	r3, r10, r1
	str	r3, [sp, #4]
.LVL372:
	.loc 1 1183 3 is_stmt 1 view .LVU1174
	.loc 1 1183 6 is_stmt 0 view .LVU1175
	ldrd	r2, [sp]
	cmp	r2, #1
	sbcs	r3, r3, #0
	blt	.L296
.LBB530:
	.loc 1 1186 4 is_stmt 1 discriminator 5 view .LVU1176
	.loc 1 1186 12 is_stmt 0 discriminator 5 view .LVU1177
	ldrd	r8, [sp]
.LVL373:
	.loc 1 1186 12 discriminator 5 view .LVU1178
	b	.L286
.LVL374:
.L296:
	.loc 1 1186 12 discriminator 5 view .LVU1179
.LBE530:
.LBB531:
	.loc 1 1184 4 is_stmt 1 view .LVU1180
	.loc 1 1184 12 is_stmt 0 view .LVU1181
	mov	r8, #0
.LVL375:
	.loc 1 1184 12 view .LVU1182
	mov	r9, #0
	.loc 1 1184 12 view .LVU1183
.LBE531:
	b	.L286
.LVL376:
.L295:
	.loc 1 1184 12 view .LVU1184
.LBE529:
.LBE532:
	.loc 1 1201 3 is_stmt 1 view .LVU1185
.LBB533:
	.loc 1 1201 8 view .LVU1186
	.loc 1 1201 57 view .LVU1187
	.loc 1 1201 14 view .LVU1188
	.loc 1 1201 2 view .LVU1189
.LBE533:
	.file 7 "/home/sebin/thesis/zephyrproject/zephyr/include/syscall.h"
	.loc 7 120 2 view .LVU1190
.LBB551:
	.loc 1 1201 41 view .LVU1191
	.loc 1 1201 107 view .LVU1192
	.loc 1 1201 206 view .LVU1193
.LBB534:
	.loc 1 1201 215 view .LVU1194
	.loc 1 1201 226 view .LVU1195
	.loc 1 1201 314 view .LVU1196
	.loc 1 1201 319 view .LVU1197
	.loc 1 1201 321 view .LVU1198
.LBE534:
.LBE551:
	.loc 1 1201 3 view .LVU1199
	.loc 1 1201 3 view .LVU1200
.LBB552:
.LBB547:
	.loc 1 1201 101 view .LVU1201
.LBB535:
	.loc 1 1201 106 view .LVU1202
	.loc 1 1201 117 view .LVU1203
.LBE535:
.LBE547:
.LBE552:
	.loc 1 1201 3 view .LVU1204
	.loc 1 1201 217 view .LVU1205
	.loc 1 1201 2 view .LVU1206
	.loc 1 1201 31 view .LVU1207
	.loc 1 1201 4 view .LVU1208
	.loc 1 1201 24 view .LVU1209
	.loc 1 1201 48 view .LVU1210
	.loc 1 1201 23 view .LVU1211
	.loc 1 1201 41 view .LVU1212
	.loc 1 1201 61 view .LVU1213
	.loc 1 1201 108 view .LVU1214
	.loc 1 1201 140 view .LVU1215
	.loc 1 1201 13 view .LVU1216
	.loc 1 1201 55 view .LVU1217
	.loc 1 1201 97 view .LVU1218
	.loc 1 1201 142 view .LVU1219
	.loc 1 1201 147 view .LVU1220
	.loc 1 1201 407 view .LVU1221
	.loc 1 1201 413 view .LVU1222
	.loc 1 1201 1558 view .LVU1223
	.loc 1 1201 1582 view .LVU1224
	.loc 1 1201 1645 view .LVU1225
	.loc 1 1201 1765 view .LVU1226
	.loc 1 1201 1780 view .LVU1227
	.loc 1 1201 2073 view .LVU1228
	.loc 1 1201 2121 view .LVU1229
	.loc 1 1201 3469 view .LVU1230
	.loc 1 1201 3476 view .LVU1231
	.loc 1 1201 3499 view .LVU1232
	.loc 1 1201 3533 view .LVU1233
	.loc 1 1201 3539 view .LVU1234
	.loc 1 1201 3544 view .LVU1235
	.loc 1 1201 3775 view .LVU1236
	.loc 1 1201 3781 view .LVU1237
	.loc 1 1201 0 view .LVU1238
	.loc 1 1201 0 view .LVU1239
	.loc 1 1201 0 view .LVU1240
	.loc 1 1201 0 view .LVU1241
	.loc 1 1201 0 view .LVU1242
	.loc 1 1201 0 view .LVU1243
	.loc 1 1201 0 view .LVU1244
	.loc 1 1201 0 view .LVU1245
	.loc 1 1201 0 view .LVU1246
	.loc 1 1201 0 view .LVU1247
	.loc 1 1201 0 view .LVU1248
	.loc 1 1201 0 view .LVU1249
	.loc 1 1201 0 view .LVU1250
	.loc 1 1201 16 view .LVU1251
.LBB553:
.LBB548:
.LBB544:
	.loc 1 1201 11 view .LVU1252
	.loc 1 1201 16 view .LVU1253
	.loc 1 1201 39 view .LVU1254
	.loc 1 1201 159 view .LVU1255
	.loc 1 1201 285 view .LVU1256
	.loc 1 1201 488 view .LVU1257
	.loc 1 1201 5 view .LVU1258
	.loc 1 1201 7 view .LVU1259
	.loc 1 1201 20 view .LVU1260
.LBB536:
	.loc 1 1201 3 view .LVU1261
	.loc 1 1201 217 view .LVU1262
	.loc 1 1201 2 view .LVU1263
	.loc 1 1201 31 view .LVU1264
	.loc 1 1201 60 view .LVU1265
	.loc 1 1201 80 view .LVU1266
	.loc 1 1201 104 view .LVU1267
	.loc 1 1201 27 view .LVU1268
	.loc 1 1201 45 view .LVU1269
	.loc 1 1201 65 view .LVU1270
	.loc 1 1201 112 view .LVU1271
	.loc 1 1201 144 view .LVU1272
	.loc 1 1201 13 view .LVU1273
	.loc 1 1201 55 view .LVU1274
	.loc 1 1201 97 view .LVU1275
	.loc 1 1201 142 view .LVU1276
.LBB537:
	.loc 1 1201 147 view .LVU1277
	.loc 1 1201 407 view .LVU1278
	.loc 1 1201 413 view .LVU1279
	.loc 1 1201 1558 view .LVU1280
.LBE537:
.LBE536:
.LBE544:
.LBE548:
.LBE553:
	.loc 1 1201 1582 view .LVU1281
	.loc 1 1201 1645 view .LVU1282
	.loc 1 1201 1765 view .LVU1283
.LBB554:
.LBB549:
.LBB545:
.LBB542:
.LBB538:
	.loc 1 1201 1780 view .LVU1284
	.loc 1 1201 2073 view .LVU1285
	.loc 1 1201 2121 view .LVU1286
	.loc 1 1201 2159 view .LVU1287
	.loc 1 1201 2164 view .LVU1288
	.loc 1 1201 2783 view .LVU1289
	.loc 1 1201 3417 is_stmt 0 view .LVU1290
	ldr	r3, .L297+12
	str	r3, [sp, #32]
	.loc 1 1201 3469 is_stmt 1 view .LVU1291
	.loc 1 1201 3476 view .LVU1292
.LVL377:
	.loc 1 1201 3499 view .LVU1293
	.loc 1 1201 3499 is_stmt 0 view .LVU1294
.LBE538:
	.loc 1 1201 3533 is_stmt 1 view .LVU1295
	.loc 1 1201 3539 view .LVU1296
.LBB539:
	.loc 1 1201 3544 view .LVU1297
	.loc 1 1201 3775 view .LVU1298
	.loc 1 1201 3781 view .LVU1299
	.loc 1 1201 0 view .LVU1300
.LBE539:
.LBE542:
.LBE545:
.LBE549:
.LBE554:
	.loc 1 1201 0 view .LVU1301
	.loc 1 1201 0 view .LVU1302
	.loc 1 1201 0 view .LVU1303
.LBB555:
.LBB550:
.LBB546:
.LBB543:
.LBB540:
	.loc 1 1201 0 view .LVU1304
	.loc 1 1201 0 view .LVU1305
	.loc 1 1201 0 view .LVU1306
	.loc 1 1201 0 view .LVU1307
	.loc 1 1201 0 view .LVU1308
	str	r5, [sp, #36]
	.loc 1 1201 0 view .LVU1309
	.loc 1 1201 0 view .LVU1310
.LVL378:
	.loc 1 1201 0 view .LVU1311
	.loc 1 1201 0 is_stmt 0 view .LVU1312
.LBE540:
	.loc 1 1201 0 is_stmt 1 view .LVU1313
	.loc 1 1201 0 view .LVU1314
	.loc 1 1201 0 view .LVU1315
	.loc 1 1201 0 view .LVU1316
	.loc 1 1201 16 view .LVU1317
.LBB541:
	.loc 1 1201 29 view .LVU1318
	.loc 1 1201 50 is_stmt 0 view .LVU1319
	movs	r3, #0
	strh	r3, [sp, #13]	@ unaligned
	strb	r3, [sp, #15]
	movs	r2, #3
	strb	r2, [sp, #12]
	strb	r3, [sp, #14]
	.loc 1 1201 175 is_stmt 1 view .LVU1320
	.loc 1 1201 185 is_stmt 0 view .LVU1321
	ldr	r2, [sp, #12]
	str	r2, [sp, #28]
	.loc 1 1201 185 view .LVU1322
.LBE541:
.LBE543:
	.loc 1 1201 11 is_stmt 1 view .LVU1323
	.loc 1 1201 18 view .LVU1324
	.loc 1 1201 39 is_stmt 0 view .LVU1325
	mov	r2, r3
.LVL379:
	.loc 1 1201 39 view .LVU1326
	bfi	r2, r3, #0, #1
.LVL380:
	.loc 1 1201 39 view .LVU1327
	bfi	r2, r3, #1, #1
	bfi	r2, r3, #2, #1
	bfi	r2, r3, #3, #3
	movs	r1, #1
	bfi	r2, r1, #6, #3
	movs	r1, #12
	bfi	r2, r1, #9, #10
	.loc 1 1201 174 is_stmt 1 view .LVU1328
	ubfx	r2, r2, #0, #19
.LVL381:
	.loc 1 1201 174 is_stmt 0 view .LVU1329
	ldr	r1, .L297+16
	add	r0, sp, #16
.LVL382:
	.loc 1 1201 174 view .LVU1330
	bl	z_log_msg2_finalize
.LVL383:
	.loc 1 1201 174 view .LVU1331
.LBE546:
	.loc 1 1201 13 is_stmt 1 view .LVU1332
	.loc 1 1201 18 view .LVU1333
.LVL384:
	.loc 1 1201 58 view .LVU1334
.LBE550:
	.loc 1 1201 13 view .LVU1335
	.loc 1 1201 20 view .LVU1336
	.loc 1 1201 20 is_stmt 0 view .LVU1337
.LBE555:
	.loc 1 1201 93 is_stmt 1 view .LVU1338
	.loc 1 1203 3 view .LVU1339
	.loc 1 1203 10 is_stmt 0 view .LVU1340
	mvn	r0, #11
	b	.L280
.LVL385:
.L289:
	.loc 1 1147 10 view .LVU1341
	movs	r0, #0
.LVL386:
	.loc 1 1147 10 view .LVU1342
	b	.L280
.L298:
	.align	2
.L297:
	.word	.LANCHOR3
	.word	.LANCHOR0
	.word	.LANCHOR1
	.word	.LC0
	.word	.LANCHOR4
	.cfi_endproc
.LFE917:
	.size	net_pkt_alloc_buffer, .-net_pkt_alloc_buffer
	.section	.text.pkt_alloc_with_buffer,"ax",%progbits
	.align	1
	.syntax unified
	.thumb
	.thumb_func
	.fpu fpv4-sp-d16
	.type	pkt_alloc_with_buffer, %function
pkt_alloc_with_buffer:
.LVL387:
.LFB925:
	.loc 1 1409 1 is_stmt 1 view -0
	.cfi_startproc
	@ args = 16, pretend = 0, frame = 8
	@ frame_needed = 0, uses_anonymous_args = 0
	.loc 1 1409 1 is_stmt 0 view .LVU1344
	push	{r4, r5, r6, r7, r8, r9, r10, fp, lr}
	.cfi_def_cfa_offset 36
	.cfi_offset 4, -36
	.cfi_offset 5, -32
	.cfi_offset 6, -28
	.cfi_offset 7, -24
	.cfi_offset 8, -20
	.cfi_offset 9, -16
	.cfi_offset 10, -12
	.cfi_offset 11, -8
	.cfi_offset 14, -4
	sub	sp, sp, #20
	.cfi_def_cfa_offset 56
	mov	r6, r0
	mov	r7, r1
	mov	r10, r2
	mov	fp, r3
	ldrd	r4, [sp, #64]
.LVL388:
	.loc 1 1410 2 is_stmt 1 view .LVU1345
	.loc 1 1410 17 is_stmt 0 view .LVU1346
	mov	r0, r4
.LVL389:
	.loc 1 1410 17 view .LVU1347
	mov	r1, r5
.LVL390:
	.loc 1 1410 17 view .LVU1348
	bl	sys_clock_timeout_end_calc
.LVL391:
	.loc 1 1410 17 view .LVU1349
	str	r0, [sp, #8]
	str	r1, [sp, #12]
.LVL392:
	.loc 1 1411 2 is_stmt 1 view .LVU1350
	.loc 1 1412 2 view .LVU1351
	.loc 1 1414 2 view .LVU1352
.LBB556:
	.loc 1 1414 7 view .LVU1353
.LBE556:
	.loc 1 1414 135 view .LVU1354
	.loc 1 1419 2 view .LVU1355
	.loc 1 1419 8 is_stmt 0 view .LVU1356
	mov	r2, r4
	mov	r3, r5
	mov	r1, r7
.LVL393:
	.loc 1 1419 8 view .LVU1357
	mov	r0, r6
.LVL394:
	.loc 1 1419 8 view .LVU1358
	bl	pkt_alloc_on_iface
.LVL395:
	.loc 1 1422 2 is_stmt 1 view .LVU1359
	.loc 1 1422 5 is_stmt 0 view .LVU1360
	mov	r6, r0
.LVL396:
	.loc 1 1422 5 view .LVU1361
	cbz	r0, .L299
	.loc 1 1426 2 is_stmt 1 view .LVU1362
.LVL397:
.LBB557:
.LBI557:
	.loc 2 334 20 view .LVU1363
.LBB558:
	.loc 2 336 2 view .LVU1364
	.loc 2 336 14 is_stmt 0 view .LVU1365
	ldrb	r3, [r0, #75]	@ zero_extendqisi2
	bfi	r3, fp, #1, #3
	strb	r3, [r0, #75]
.LVL398:
	.loc 2 336 14 view .LVU1366
.LBE558:
.LBE557:
	.loc 1 1428 2 is_stmt 1 view .LVU1367
.LBB559:
	.loc 1 1428 5 is_stmt 0 view .LVU1368
	orrs	r2, r4, r5
	beq	.L301
	.loc 1 1428 56 discriminator 1 view .LVU1369
	cmp	r5, #-1
	it	eq
	cmpeq	r4, #-1
	bne	.L304
.LVL399:
.L301:
	.loc 1 1428 56 discriminator 1 view .LVU1370
.LBE559:
	.loc 1 1443 2 is_stmt 1 discriminator 4 view .LVU1371
	.loc 1 1443 8 is_stmt 0 discriminator 4 view .LVU1372
	strd	r4, [sp]
	ldrb	r2, [sp, #56]	@ zero_extendqisi2
	mov	r1, r10
	mov	r0, r6
	bl	net_pkt_alloc_buffer
.LVL400:
	.loc 1 1446 2 is_stmt 1 discriminator 4 view .LVU1373
	.loc 1 1446 5 is_stmt 0 discriminator 4 view .LVU1374
	cbnz	r0, .L305
.LVL401:
.L299:
	.loc 1 1452 1 view .LVU1375
	mov	r0, r6
	add	sp, sp, #20
	.cfi_remember_state
	.cfi_def_cfa_offset 36
	@ sp needed
	pop	{r4, r5, r6, r7, r8, r9, r10, fp, pc}
.LVL402:
.L304:
	.cfi_restore_state
.LBB563:
.LBB560:
	.loc 1 1430 3 is_stmt 1 view .LVU1376
	.loc 1 1430 29 is_stmt 0 view .LVU1377
	bl	sys_clock_tick_get
.LVL403:
	.loc 1 1430 27 view .LVU1378
	ldr	r3, [sp, #8]
	subs	r8, r3, r0
	ldr	r3, [sp, #12]
	sbc	r9, r3, r1
.LVL404:
	.loc 1 1432 3 is_stmt 1 view .LVU1379
	.loc 1 1432 6 is_stmt 0 view .LVU1380
	cmp	r8, #1
	sbcs	r3, r9, #0
	blt	.L306
.LBB561:
	.loc 1 1435 4 is_stmt 1 discriminator 5 view .LVU1381
	.loc 1 1435 12 is_stmt 0 discriminator 5 view .LVU1382
	mov	r4, r8
.LVL405:
	.loc 1 1435 12 discriminator 5 view .LVU1383
	mov	r5, r9
	.loc 1 1435 12 discriminator 5 view .LVU1384
	b	.L301
.LVL406:
.L306:
	.loc 1 1435 12 discriminator 5 view .LVU1385
.LBE561:
.LBB562:
	.loc 1 1433 4 is_stmt 1 view .LVU1386
	.loc 1 1433 12 is_stmt 0 view .LVU1387
	movs	r4, #0
.LVL407:
	.loc 1 1433 12 view .LVU1388
	movs	r5, #0
	.loc 1 1433 12 view .LVU1389
.LBE562:
	b	.L301
.LVL408:
.L305:
	.loc 1 1433 12 view .LVU1390
.LBE560:
.LBE563:
	.loc 1 1447 3 is_stmt 1 view .LVU1391
	mov	r0, r6
.LVL409:
	.loc 1 1447 3 is_stmt 0 view .LVU1392
	bl	net_pkt_unref
.LVL410:
	.loc 1 1448 3 is_stmt 1 view .LVU1393
	.loc 1 1448 9 is_stmt 0 view .LVU1394
	movs	r6, #0
.LVL411:
	.loc 1 1448 9 view .LVU1395
	b	.L299
	.cfi_endproc
.LFE925:
	.size	pkt_alloc_with_buffer, .-pkt_alloc_with_buffer
	.section	.text.net_pkt_alloc_with_buffer,"ax",%progbits
	.align	1
	.global	net_pkt_alloc_with_buffer
	.syntax unified
	.thumb
	.thumb_func
	.fpu fpv4-sp-d16
	.type	net_pkt_alloc_with_buffer, %function
net_pkt_alloc_with_buffer:
.LVL412:
.LFB926:
	.loc 1 1469 1 is_stmt 1 view -0
	.cfi_startproc
	@ args = 8, pretend = 0, frame = 0
	@ frame_needed = 0, uses_anonymous_args = 0
	.loc 1 1469 1 is_stmt 0 view .LVU1397
	push	{r4, r5, lr}
	.cfi_def_cfa_offset 12
	.cfi_offset 4, -12
	.cfi_offset 5, -8
	.cfi_offset 14, -4
	sub	sp, sp, #20
	.cfi_def_cfa_offset 32
	.loc 1 1474 2 is_stmt 1 view .LVU1398
	.loc 1 1474 9 is_stmt 0 view .LVU1399
	ldrd	r4, [sp, #32]
	strd	r4, [sp, #8]
	str	r3, [sp]
	mov	r3, r2
.LVL413:
	.loc 1 1474 9 view .LVU1400
	mov	r2, r1
.LVL414:
	.loc 1 1474 9 view .LVU1401
	mov	r1, r0
.LVL415:
	.loc 1 1474 9 view .LVU1402
	ldr	r0, .L309
.LVL416:
	.loc 1 1474 9 view .LVU1403
	bl	pkt_alloc_with_buffer
.LVL417:
	.loc 1 1477 1 view .LVU1404
	add	sp, sp, #20
	.cfi_def_cfa_offset 12
	@ sp needed
	pop	{r4, r5, pc}
.L310:
	.align	2
.L309:
	.word	.LANCHOR3
	.cfi_endproc
.LFE926:
	.size	net_pkt_alloc_with_buffer, .-net_pkt_alloc_with_buffer
	.section	.text.net_pkt_rx_alloc_with_buffer,"ax",%progbits
	.align	1
	.global	net_pkt_rx_alloc_with_buffer
	.syntax unified
	.thumb
	.thumb_func
	.fpu fpv4-sp-d16
	.type	net_pkt_rx_alloc_with_buffer, %function
net_pkt_rx_alloc_with_buffer:
.LVL418:
.LFB927:
	.loc 1 1494 1 is_stmt 1 view -0
	.cfi_startproc
	@ args = 8, pretend = 0, frame = 0
	@ frame_needed = 0, uses_anonymous_args = 0
	.loc 1 1494 1 is_stmt 0 view .LVU1406
	push	{r4, r5, lr}
	.cfi_def_cfa_offset 12
	.cfi_offset 4, -12
	.cfi_offset 5, -8
	.cfi_offset 14, -4
	sub	sp, sp, #20
	.cfi_def_cfa_offset 32
	.loc 1 1499 2 is_stmt 1 view .LVU1407
	.loc 1 1499 9 is_stmt 0 view .LVU1408
	ldrd	r4, [sp, #32]
	strd	r4, [sp, #8]
	str	r3, [sp]
	mov	r3, r2
.LVL419:
	.loc 1 1499 9 view .LVU1409
	mov	r2, r1
.LVL420:
	.loc 1 1499 9 view .LVU1410
	mov	r1, r0
.LVL421:
	.loc 1 1499 9 view .LVU1411
	ldr	r0, .L313
.LVL422:
	.loc 1 1499 9 view .LVU1412
	bl	pkt_alloc_with_buffer
.LVL423:
	.loc 1 1502 1 view .LVU1413
	add	sp, sp, #20
	.cfi_def_cfa_offset 12
	@ sp needed
	pop	{r4, r5, pc}
.L314:
	.align	2
.L313:
	.word	.LANCHOR2
	.cfi_endproc
.LFE927:
	.size	net_pkt_rx_alloc_with_buffer, .-net_pkt_rx_alloc_with_buffer
	.section	.text.net_pkt_skip,"ax",%progbits
	.align	1
	.global	net_pkt_skip
	.syntax unified
	.thumb
	.thumb_func
	.fpu fpv4-sp-d16
	.type	net_pkt_skip, %function
net_pkt_skip:
.LVL424:
.LFB934:
	.loc 1 1646 1 is_stmt 1 view -0
	.cfi_startproc
	@ args = 0, pretend = 0, frame = 0
	@ frame_needed = 0, uses_anonymous_args = 0
	.loc 1 1646 1 is_stmt 0 view .LVU1415
	push	{lr}
	.cfi_def_cfa_offset 4
	.cfi_offset 14, -4
	sub	sp, sp, #12
	.cfi_def_cfa_offset 16
	mov	r2, r1
	.loc 1 1647 2 is_stmt 1 view .LVU1416
.LBB564:
	.loc 1 1647 7 view .LVU1417
.LBE564:
	.loc 1 1647 128 view .LVU1418
	.loc 1 1649 2 view .LVU1419
	.loc 1 1649 9 is_stmt 0 view .LVU1420
	movs	r3, #1
	str	r3, [sp]
	movs	r3, #0
	mov	r1, r3
.LVL425:
	.loc 1 1649 9 view .LVU1421
	bl	net_pkt_cursor_operate
.LVL426:
	.loc 1 1650 1 view .LVU1422
	add	sp, sp, #12
	.cfi_def_cfa_offset 4
	@ sp needed
	ldr	pc, [sp], #4
	.cfi_endproc
.LFE934:
	.size	net_pkt_skip, .-net_pkt_skip
	.section	.text.net_pkt_memset,"ax",%progbits
	.align	1
	.global	net_pkt_memset
	.syntax unified
	.thumb
	.thumb_func
	.fpu fpv4-sp-d16
	.type	net_pkt_memset, %function
net_pkt_memset:
.LVL427:
.LFB935:
	.loc 1 1653 1 is_stmt 1 view -0
	.cfi_startproc
	@ args = 0, pretend = 0, frame = 8
	@ frame_needed = 0, uses_anonymous_args = 0
	.loc 1 1653 1 is_stmt 0 view .LVU1424
	push	{lr}
	.cfi_def_cfa_offset 4
	.cfi_offset 14, -4
	sub	sp, sp, #20
	.cfi_def_cfa_offset 24
	str	r1, [sp, #12]
	.loc 1 1654 2 is_stmt 1 view .LVU1425
.LBB565:
	.loc 1 1654 7 view .LVU1426
.LBE565:
	.loc 1 1654 146 view .LVU1427
	.loc 1 1656 2 view .LVU1428
	.loc 1 1656 9 is_stmt 0 view .LVU1429
	movs	r3, #1
	str	r3, [sp]
	movs	r3, #0
	add	r1, sp, #12
.LVL428:
	.loc 1 1656 9 view .LVU1430
	bl	net_pkt_cursor_operate
.LVL429:
	.loc 1 1657 1 view .LVU1431
	add	sp, sp, #20
	.cfi_def_cfa_offset 4
	@ sp needed
	ldr	pc, [sp], #4
	.cfi_endproc
.LFE935:
	.size	net_pkt_memset, .-net_pkt_memset
	.section	.text.net_pkt_read,"ax",%progbits
	.align	1
	.global	net_pkt_read
	.syntax unified
	.thumb
	.thumb_func
	.fpu fpv4-sp-d16
	.type	net_pkt_read, %function
net_pkt_read:
.LVL430:
.LFB936:
	.loc 1 1660 1 is_stmt 1 view -0
	.cfi_startproc
	@ args = 0, pretend = 0, frame = 0
	@ frame_needed = 0, uses_anonymous_args = 0
	.loc 1 1660 1 is_stmt 0 view .LVU1433
	push	{lr}
	.cfi_def_cfa_offset 4
	.cfi_offset 14, -4
	sub	sp, sp, #12
	.cfi_def_cfa_offset 16
	.loc 1 1661 2 is_stmt 1 view .LVU1434
.LBB566:
	.loc 1 1661 7 view .LVU1435
.LBE566:
	.loc 1 1661 146 view .LVU1436
	.loc 1 1663 2 view .LVU1437
	.loc 1 1663 9 is_stmt 0 view .LVU1438
	movs	r3, #0
	str	r3, [sp]
	movs	r3, #1
	bl	net_pkt_cursor_operate
.LVL431:
	.loc 1 1664 1 view .LVU1439
	add	sp, sp, #12
	.cfi_def_cfa_offset 4
	@ sp needed
	ldr	pc, [sp], #4
	.cfi_endproc
.LFE936:
	.size	net_pkt_read, .-net_pkt_read
	.section	.text.net_pkt_read_be16,"ax",%progbits
	.align	1
	.global	net_pkt_read_be16
	.syntax unified
	.thumb
	.thumb_func
	.fpu fpv4-sp-d16
	.type	net_pkt_read_be16, %function
net_pkt_read_be16:
.LVL432:
.LFB937:
	.loc 1 1667 1 is_stmt 1 view -0
	.cfi_startproc
	@ args = 0, pretend = 0, frame = 8
	@ frame_needed = 0, uses_anonymous_args = 0
	.loc 1 1667 1 is_stmt 0 view .LVU1441
	push	{r4, lr}
	.cfi_def_cfa_offset 8
	.cfi_offset 4, -8
	.cfi_offset 14, -4
	sub	sp, sp, #8
	.cfi_def_cfa_offset 16
	mov	r4, r1
	.loc 1 1668 2 is_stmt 1 view .LVU1442
	.loc 1 1669 2 view .LVU1443
	.loc 1 1671 2 view .LVU1444
	.loc 1 1671 8 is_stmt 0 view .LVU1445
	movs	r2, #2
	add	r1, sp, #4
.LVL433:
	.loc 1 1671 8 view .LVU1446
	bl	net_pkt_read
.LVL434:
	.loc 1 1673 2 is_stmt 1 view .LVU1447
	.loc 1 1673 13 is_stmt 0 view .LVU1448
	ldrb	r2, [sp, #4]	@ zero_extendqisi2
	.loc 1 1673 27 view .LVU1449
	ldrb	r3, [sp, #5]	@ zero_extendqisi2
	.loc 1 1673 22 view .LVU1450
	orr	r3, r3, r2, lsl #8
	.loc 1 1673 8 view .LVU1451
	strh	r3, [r4]	@ movhi
	.loc 1 1675 2 is_stmt 1 view .LVU1452
	.loc 1 1676 1 is_stmt 0 view .LVU1453
	add	sp, sp, #8
	.cfi_def_cfa_offset 8
	@ sp needed
	pop	{r4, pc}
	.loc 1 1676 1 view .LVU1454
	.cfi_endproc
.LFE937:
	.size	net_pkt_read_be16, .-net_pkt_read_be16
	.section	.text.net_pkt_read_le16,"ax",%progbits
	.align	1
	.global	net_pkt_read_le16
	.syntax unified
	.thumb
	.thumb_func
	.fpu fpv4-sp-d16
	.type	net_pkt_read_le16, %function
net_pkt_read_le16:
.LVL435:
.LFB938:
	.loc 1 1679 1 is_stmt 1 view -0
	.cfi_startproc
	@ args = 0, pretend = 0, frame = 8
	@ frame_needed = 0, uses_anonymous_args = 0
	.loc 1 1679 1 is_stmt 0 view .LVU1456
	push	{r4, lr}
	.cfi_def_cfa_offset 8
	.cfi_offset 4, -8
	.cfi_offset 14, -4
	sub	sp, sp, #8
	.cfi_def_cfa_offset 16
	mov	r4, r1
	.loc 1 1680 2 is_stmt 1 view .LVU1457
	.loc 1 1681 2 view .LVU1458
	.loc 1 1683 2 view .LVU1459
	.loc 1 1683 8 is_stmt 0 view .LVU1460
	movs	r2, #2
	add	r1, sp, #4
.LVL436:
	.loc 1 1683 8 view .LVU1461
	bl	net_pkt_read
.LVL437:
	.loc 1 1685 2 is_stmt 1 view .LVU1462
	.loc 1 1685 13 is_stmt 0 view .LVU1463
	ldrb	r2, [sp, #5]	@ zero_extendqisi2
	.loc 1 1685 27 view .LVU1464
	ldrb	r3, [sp, #4]	@ zero_extendqisi2
	.loc 1 1685 22 view .LVU1465
	orr	r3, r3, r2, lsl #8
	.loc 1 1685 8 view .LVU1466
	strh	r3, [r4]	@ movhi
	.loc 1 1687 2 is_stmt 1 view .LVU1467
	.loc 1 1688 1 is_stmt 0 view .LVU1468
	add	sp, sp, #8
	.cfi_def_cfa_offset 8
	@ sp needed
	pop	{r4, pc}
	.loc 1 1688 1 view .LVU1469
	.cfi_endproc
.LFE938:
	.size	net_pkt_read_le16, .-net_pkt_read_le16
	.section	.text.net_pkt_read_be32,"ax",%progbits
	.align	1
	.global	net_pkt_read_be32
	.syntax unified
	.thumb
	.thumb_func
	.fpu fpv4-sp-d16
	.type	net_pkt_read_be32, %function
net_pkt_read_be32:
.LVL438:
.LFB939:
	.loc 1 1691 1 is_stmt 1 view -0
	.cfi_startproc
	@ args = 0, pretend = 0, frame = 8
	@ frame_needed = 0, uses_anonymous_args = 0
	.loc 1 1691 1 is_stmt 0 view .LVU1471
	push	{r4, lr}
	.cfi_def_cfa_offset 8
	.cfi_offset 4, -8
	.cfi_offset 14, -4
	sub	sp, sp, #8
	.cfi_def_cfa_offset 16
	mov	r4, r1
	.loc 1 1692 2 is_stmt 1 view .LVU1472
	.loc 1 1693 2 view .LVU1473
	.loc 1 1695 2 view .LVU1474
	.loc 1 1695 8 is_stmt 0 view .LVU1475
	movs	r2, #4
	add	r1, sp, r2
.LVL439:
	.loc 1 1695 8 view .LVU1476
	bl	net_pkt_read
.LVL440:
	.loc 1 1697 2 is_stmt 1 view .LVU1477
	.loc 1 1697 13 is_stmt 0 view .LVU1478
	ldrb	r2, [sp, #4]	@ zero_extendqisi2
	.loc 1 1697 28 view .LVU1479
	ldrb	r3, [sp, #5]	@ zero_extendqisi2
	.loc 1 1697 32 view .LVU1480
	lsls	r3, r3, #16
	.loc 1 1697 23 view .LVU1481
	orr	r3, r3, r2, lsl #24
	.loc 1 1697 43 view .LVU1482
	ldrb	r2, [sp, #6]	@ zero_extendqisi2
	.loc 1 1697 38 view .LVU1483
	orr	r3, r3, r2, lsl #8
	.loc 1 1697 57 view .LVU1484
	ldrb	r2, [sp, #7]	@ zero_extendqisi2
	.loc 1 1697 52 view .LVU1485
	orrs	r3, r3, r2
	.loc 1 1697 8 view .LVU1486
	str	r3, [r4]
	.loc 1 1699 2 is_stmt 1 view .LVU1487
	.loc 1 1700 1 is_stmt 0 view .LVU1488
	add	sp, sp, #8
	.cfi_def_cfa_offset 8
	@ sp needed
	pop	{r4, pc}
	.loc 1 1700 1 view .LVU1489
	.cfi_endproc
.LFE939:
	.size	net_pkt_read_be32, .-net_pkt_read_be32
	.section	.text.net_pkt_copy,"ax",%progbits
	.align	1
	.global	net_pkt_copy
	.syntax unified
	.thumb
	.thumb_func
	.fpu fpv4-sp-d16
	.type	net_pkt_copy, %function
net_pkt_copy:
.LVL441:
.LFB941:
	.loc 1 1716 1 is_stmt 1 view -0
	.cfi_startproc
	@ args = 0, pretend = 0, frame = 0
	@ frame_needed = 0, uses_anonymous_args = 0
	.loc 1 1716 1 is_stmt 0 view .LVU1491
	push	{r3, r4, r5, r6, r7, lr}
	.cfi_def_cfa_offset 24
	.cfi_offset 3, -24
	.cfi_offset 4, -20
	.cfi_offset 5, -16
	.cfi_offset 6, -12
	.cfi_offset 7, -8
	.cfi_offset 14, -4
	mov	r5, r0
	mov	r6, r1
	mov	r7, r2
	.loc 1 1717 2 is_stmt 1 view .LVU1492
.LVL442:
	.loc 1 1718 2 view .LVU1493
	.loc 1 1720 2 view .LVU1494
	.loc 1 1720 8 is_stmt 0 view .LVU1495
	b	.L328
.LVL443:
.L330:
.LBB567:
	.loc 1 1735 4 is_stmt 1 view .LVU1496
	.loc 1 1735 7 is_stmt 0 view .LVU1497
	cmp	r3, r4
	bcs	.L331
	.loc 1 1736 9 view .LVU1498
	mov	r4, r3
.LVL444:
.L331:
	.loc 1 1742 3 is_stmt 1 view .LVU1499
	.loc 1 1742 6 is_stmt 0 view .LVU1500
	cmp	r4, #0
	beq	.L329
	.loc 1 1746 2 is_stmt 1 view .LVU1501
.LVL445:
.LBB568:
.LBI568:
	.loc 5 83 216 view .LVU1502
.LBB569:
	.loc 5 83 292 view .LVU1503
	.loc 5 83 299 is_stmt 0 view .LVU1504
	mov	r2, r4
	ldr	r1, [r6, #16]
	bl	memcpy
.LVL446:
	.loc 5 83 299 view .LVU1505
.LBE569:
.LBE568:
	.loc 1 1748 3 is_stmt 1 view .LVU1506
.LBB570:
.LBI570:
	.loc 2 1210 19 view .LVU1507
.LBB571:
	.loc 2 1212 2 view .LVU1508
	.loc 2 1212 12 is_stmt 0 view .LVU1509
	ldrb	r3, [r5, #73]	@ zero_extendqisi2
.LVL447:
	.loc 2 1212 12 view .LVU1510
.LBE571:
.LBE570:
	.loc 1 1748 6 view .LVU1511
	tst	r3, #1
	beq	.L338
.L332:
	.loc 1 1752 3 is_stmt 1 view .LVU1512
	movs	r2, #1
	mov	r1, r4
	mov	r0, r5
	bl	pkt_cursor_update
.LVL448:
	.loc 1 1753 3 view .LVU1513
	movs	r2, #0
	mov	r1, r4
	mov	r0, r6
	bl	pkt_cursor_update
.LVL449:
	.loc 1 1755 3 view .LVU1514
	.loc 1 1755 10 is_stmt 0 view .LVU1515
	subs	r7, r7, r4
.LVL450:
.L328:
	.loc 1 1755 10 view .LVU1516
.LBE567:
	.loc 1 1720 8 is_stmt 1 view .LVU1517
	.loc 1 1720 14 is_stmt 0 view .LVU1518
	ldr	r3, [r5, #12]
	.loc 1 1720 8 view .LVU1519
	cbz	r3, .L329
	.loc 1 1720 28 discriminator 1 view .LVU1520
	ldr	r3, [r6, #12]
	.loc 1 1720 20 discriminator 1 view .LVU1521
	cbz	r3, .L329
	.loc 1 1720 34 discriminator 2 view .LVU1522
	cbz	r7, .L329
.LBB576:
	.loc 1 1721 3 is_stmt 1 view .LVU1523
	.loc 1 1723 3 view .LVU1524
	movs	r1, #1
	mov	r0, r5
	bl	pkt_cursor_advance
.LVL451:
	.loc 1 1724 3 view .LVU1525
	movs	r1, #0
	mov	r0, r6
	bl	pkt_cursor_advance
.LVL452:
	.loc 1 1726 3 view .LVU1526
	.loc 1 1726 13 is_stmt 0 view .LVU1527
	ldr	r0, [r5, #12]
	.loc 1 1726 6 view .LVU1528
	cbz	r0, .L329
	.loc 1 1726 28 discriminator 1 view .LVU1529
	ldr	r3, [r6, #12]
	.loc 1 1726 19 discriminator 1 view .LVU1530
	cbz	r3, .L329
	.loc 1 1730 3 is_stmt 1 view .LVU1531
	.loc 1 1730 21 is_stmt 0 view .LVU1532
	ldrh	r4, [r3, #12]
	.loc 1 1730 35 view .LVU1533
	ldr	r2, [r6, #16]
	.loc 1 1730 53 view .LVU1534
	ldr	r3, [r3, #8]
	.loc 1 1730 41 view .LVU1535
	subs	r2, r2, r3
	.loc 1 1730 27 view .LVU1536
	subs	r4, r4, r2
.LVL453:
	.loc 1 1731 3 is_stmt 1 view .LVU1537
.LBB572:
.LBI572:
	.loc 4 2294 24 view .LVU1538
.LBB573:
	.loc 4 2296 2 view .LVU1539
	.loc 4 2296 9 is_stmt 0 view .LVU1540
	adds	r0, r0, #8
.LVL454:
	.loc 4 2296 9 view .LVU1541
	bl	net_buf_simple_max_len
.LVL455:
	.loc 4 2296 9 view .LVU1542
	mov	r3, r0
	.loc 4 2296 9 view .LVU1543
.LBE573:
.LBE572:
	.loc 1 1731 47 view .LVU1544
	ldr	r0, [r5, #16]
	.loc 1 1731 60 view .LVU1545
	ldr	r2, [r5, #12]
	.loc 1 1731 65 view .LVU1546
	ldr	r2, [r2, #8]
	.loc 1 1731 53 view .LVU1547
	subs	r2, r0, r2
	.loc 1 1731 39 view .LVU1548
	subs	r3, r3, r2
.LVL456:
	.loc 1 1732 3 is_stmt 1 view .LVU1549
	.loc 1 1732 6 is_stmt 0 view .LVU1550
	cmp	r4, r7
	bls	.L330
	.loc 1 1732 22 discriminator 1 view .LVU1551
	cmp	r3, r7
	bls	.L330
	.loc 1 1733 8 view .LVU1552
	mov	r4, r7
.LVL457:
	.loc 1 1733 8 view .LVU1553
	b	.L331
.LVL458:
.L338:
	.loc 1 1749 4 is_stmt 1 view .LVU1554
	ldr	r0, [r5, #12]
.LVL459:
.LBB574:
.LBI574:
	.loc 4 1504 21 view .LVU1555
.LBB575:
	.loc 4 1506 2 view .LVU1556
	.loc 4 1506 9 is_stmt 0 view .LVU1557
	mov	r1, r4
	adds	r0, r0, #8
.LVL460:
	.loc 4 1506 9 view .LVU1558
	bl	net_buf_simple_add
.LVL461:
	.loc 4 1506 9 view .LVU1559
	b	.L332
.LVL462:
.L329:
	.loc 4 1506 9 view .LVU1560
.LBE575:
.LBE574:
.LBE576:
	.loc 1 1758 2 is_stmt 1 view .LVU1561
	.loc 1 1758 5 is_stmt 0 view .LVU1562
	cbnz	r7, .L336
	.loc 1 1763 9 view .LVU1563
	movs	r0, #0
.L327:
	.loc 1 1764 1 view .LVU1564
	pop	{r3, r4, r5, r6, r7, pc}
.LVL463:
.L336:
	.loc 1 1760 10 view .LVU1565
	mvn	r0, #104
	b	.L327
	.cfi_endproc
.LFE941:
	.size	net_pkt_copy, .-net_pkt_copy
	.section	.text.net_pkt_shallow_clone,"ax",%progbits
	.align	1
	.global	net_pkt_shallow_clone
	.syntax unified
	.thumb
	.thumb_func
	.fpu fpv4-sp-d16
	.type	net_pkt_shallow_clone, %function
net_pkt_shallow_clone:
.LVL464:
.LFB944:
	.loc 1 1868 1 is_stmt 1 view -0
	.cfi_startproc
	@ args = 0, pretend = 0, frame = 0
	@ frame_needed = 0, uses_anonymous_args = 0
	.loc 1 1868 1 is_stmt 0 view .LVU1567
	push	{r4, r5, r6, lr}
	.cfi_def_cfa_offset 16
	.cfi_offset 4, -16
	.cfi_offset 5, -12
	.cfi_offset 6, -8
	.cfi_offset 14, -4
	mov	r6, r0
	.loc 1 1869 2 is_stmt 1 view .LVU1568
	.loc 1 1870 2 view .LVU1569
	.loc 1 1872 2 view .LVU1570
	.loc 1 1872 14 is_stmt 0 view .LVU1571
	mov	r0, r2
.LVL465:
	.loc 1 1872 14 view .LVU1572
	mov	r1, r3
	bl	net_pkt_alloc
.LVL466:
	.loc 1 1873 2 is_stmt 1 view .LVU1573
	.loc 1 1873 5 is_stmt 0 view .LVU1574
	mov	r5, r0
	cbz	r0, .L339
	.loc 1 1877 2 is_stmt 1 view .LVU1575
.LVL467:
.LBB577:
.LBI577:
	.loc 2 293 30 view .LVU1576
.LBB578:
	.loc 2 295 2 view .LVU1577
	.loc 2 295 12 is_stmt 0 view .LVU1578
	ldr	r3, [r6, #24]
.LVL468:
	.loc 2 295 12 view .LVU1579
.LBE578:
.LBE577:
.LBB579:
.LBI579:
	.loc 2 298 20 is_stmt 1 view .LVU1580
.LBB580:
	.loc 2 300 2 view .LVU1581
	.loc 2 300 13 is_stmt 0 view .LVU1582
	str	r3, [r0, #24]
	.loc 2 306 2 is_stmt 1 view .LVU1583
	.loc 2 306 5 is_stmt 0 view .LVU1584
	cbz	r3, .L341
	.loc 2 307 3 is_stmt 1 view .LVU1585
.LVL469:
.LBB581:
.LBI581:
	.loc 3 680 36 view .LVU1586
.LBB582:
	.loc 3 682 2 view .LVU1587
	.loc 3 682 15 is_stmt 0 view .LVU1588
	ldr	r2, [r3]
.LVL470:
	.loc 3 682 15 view .LVU1589
.LBE582:
.LBE581:
	.loc 2 307 53 view .LVU1590
	ldrb	r2, [r2, #21]	@ zero_extendqisi2
	.loc 2 307 24 view .LVU1591
	strb	r2, [r0, #57]
	.loc 2 308 3 is_stmt 1 view .LVU1592
.LVL471:
.LBB583:
.LBI583:
	.loc 3 680 36 view .LVU1593
.LBB584:
	.loc 3 682 2 view .LVU1594
	.loc 3 682 15 is_stmt 0 view .LVU1595
	ldr	r3, [r3]
.LVL472:
	.loc 3 682 15 view .LVU1596
.LBE584:
.LBE583:
	.loc 2 308 53 view .LVU1597
	ldrb	r3, [r3, #21]	@ zero_extendqisi2
	.loc 2 308 24 view .LVU1598
	strb	r3, [r0, #65]
.L341:
.LVL473:
	.loc 2 308 24 view .LVU1599
.LBE580:
.LBE579:
	.loc 1 1878 2 is_stmt 1 view .LVU1600
	.loc 1 1878 25 is_stmt 0 view .LVU1601
	ldr	r4, [r6, #8]
	.loc 1 1878 20 view .LVU1602
	str	r4, [r5, #8]
	.loc 1 1879 2 is_stmt 1 view .LVU1603
.LVL474:
	.loc 1 1881 2 view .LVU1604
	.loc 1 1881 8 is_stmt 0 view .LVU1605
	b	.L342
.LVL475:
.L343:
	.loc 1 1882 3 is_stmt 1 view .LVU1606
	mov	r0, r4
	bl	net_pkt_frag_ref
.LVL476:
	.loc 1 1883 3 view .LVU1607
	.loc 1 1883 7 is_stmt 0 view .LVU1608
	ldr	r4, [r4]
.LVL477:
.L342:
	.loc 1 1881 8 is_stmt 1 view .LVU1609
	cmp	r4, #0
	bne	.L343
	.loc 1 1886 2 view .LVU1610
	.loc 1 1886 9 is_stmt 0 view .LVU1611
	ldr	r3, [r6, #8]
	.loc 1 1886 5 view .LVU1612
	cbz	r3, .L344
	.loc 1 1891 2 is_stmt 1 view .LVU1613
	.loc 1 1891 2 is_stmt 0 view .LVU1614
	mov	r3, r6
.LVL478:
.LBB585:
.LBI585:
	.loc 5 83 216 is_stmt 1 view .LVU1615
.LBB586:
	.loc 5 83 292 view .LVU1616
	.loc 5 83 299 is_stmt 0 view .LVU1617
	ldr	r2, [r3, #52]!	@ unaligned
.LVL479:
	.loc 5 83 299 view .LVU1618
	ldr	r3, [r3, #4]	@ unaligned
.LVL480:
	.loc 5 83 299 view .LVU1619
	str	r2, [r5, #52]	@ unaligned
	str	r3, [r5, #56]	@ unaligned
.LVL481:
	.loc 5 83 299 view .LVU1620
.LBE586:
.LBE585:
	.loc 1 1893 2 is_stmt 1 view .LVU1621
	.loc 1 1893 2 is_stmt 0 view .LVU1622
	mov	r3, r6
.LVL482:
.LBB587:
.LBI587:
	.loc 5 83 216 is_stmt 1 view .LVU1623
.LBB588:
	.loc 5 83 292 view .LVU1624
	.loc 5 83 299 is_stmt 0 view .LVU1625
	ldr	r2, [r3, #60]!	@ unaligned
.LVL483:
	.loc 5 83 299 view .LVU1626
	ldr	r3, [r3, #4]	@ unaligned
.LVL484:
	.loc 5 83 299 view .LVU1627
	str	r2, [r5, #60]	@ unaligned
	str	r3, [r5, #64]	@ unaligned
.LVL485:
.L344:
	.loc 5 83 299 view .LVU1628
.LBE588:
.LBE587:
	.loc 1 1897 2 is_stmt 1 view .LVU1629
	mov	r1, r5
	mov	r0, r6
	bl	clone_pkt_attributes
.LVL486:
	.loc 1 1899 2 view .LVU1630
.LBB589:
.LBI589:
	.loc 2 1824 20 view .LVU1631
.LBB590:
	.loc 2 1827 2 view .LVU1632
	.loc 2 1827 26 is_stmt 0 view .LVU1633
	ldr	r3, [r6, #12]
	.loc 2 1827 18 view .LVU1634
	str	r3, [r5, #12]
	.loc 2 1828 2 is_stmt 1 view .LVU1635
	.loc 2 1828 26 is_stmt 0 view .LVU1636
	ldr	r3, [r6, #16]
	.loc 2 1828 18 view .LVU1637
	str	r3, [r5, #16]
.LVL487:
	.loc 2 1828 18 view .LVU1638
.LBE590:
.LBE589:
	.loc 1 1901 2 is_stmt 1 view .LVU1639
.LBB591:
	.loc 1 1901 7 view .LVU1640
.LBE591:
	.loc 1 1901 141 view .LVU1641
	.loc 1 1903 2 view .LVU1642
.L339:
	.loc 1 1904 1 is_stmt 0 view .LVU1643
	mov	r0, r5
	pop	{r4, r5, r6, pc}
	.loc 1 1904 1 view .LVU1644
	.cfi_endproc
.LFE944:
	.size	net_pkt_shallow_clone, .-net_pkt_shallow_clone
	.section	.text.net_pkt_remaining_data,"ax",%progbits
	.align	1
	.global	net_pkt_remaining_data
	.syntax unified
	.thumb
	.thumb_func
	.fpu fpv4-sp-d16
	.type	net_pkt_remaining_data, %function
net_pkt_remaining_data:
.LVL488:
.LFB945:
	.loc 1 1907 1 is_stmt 1 view -0
	.cfi_startproc
	@ args = 0, pretend = 0, frame = 0
	@ frame_needed = 0, uses_anonymous_args = 0
	@ link register save eliminated.
	.loc 1 1908 2 view .LVU1646
	.loc 1 1909 2 view .LVU1647
	.loc 1 1911 2 view .LVU1648
	.loc 1 1911 5 is_stmt 0 view .LVU1649
	cbz	r0, .L350
	.loc 1 1911 26 discriminator 1 view .LVU1650
	ldr	r3, [r0, #12]
	.loc 1 1911 11 discriminator 1 view .LVU1651
	cbz	r3, .L351
	.loc 1 1911 46 discriminator 2 view .LVU1652
	ldr	r2, [r0, #16]
	.loc 1 1911 31 discriminator 2 view .LVU1653
	cbz	r2, .L352
	.loc 1 1915 2 is_stmt 1 view .LVU1654
.LVL489:
	.loc 1 1916 2 view .LVU1655
	.loc 1 1916 19 is_stmt 0 view .LVU1656
	ldrh	r0, [r3, #12]
.LVL490:
	.loc 1 1916 49 view .LVU1657
	ldr	r1, [r3, #8]
	.loc 1 1916 44 view .LVU1658
	subs	r2, r2, r1
	.loc 1 1916 25 view .LVU1659
	subs	r0, r0, r2
.LVL491:
	.loc 1 1918 2 is_stmt 1 view .LVU1660
	.loc 1 1918 6 is_stmt 0 view .LVU1661
	ldr	r3, [r3]
.LVL492:
	.loc 1 1919 2 is_stmt 1 view .LVU1662
.L348:
	.loc 1 1919 8 view .LVU1663
	cbz	r3, .L353
	.loc 1 1920 3 view .LVU1664
	.loc 1 1920 21 is_stmt 0 view .LVU1665
	ldrh	r2, [r3, #12]
	.loc 1 1920 15 view .LVU1666
	add	r0, r0, r2
.LVL493:
	.loc 1 1921 3 is_stmt 1 view .LVU1667
	.loc 1 1921 7 is_stmt 0 view .LVU1668
	ldr	r3, [r3]
.LVL494:
	.loc 1 1921 7 view .LVU1669
	b	.L348
.L353:
	.loc 1 1921 7 view .LVU1670
	bx	lr
.LVL495:
.L350:
	.loc 1 1912 10 view .LVU1671
	movs	r0, #0
.LVL496:
	.loc 1 1912 10 view .LVU1672
	bx	lr
.LVL497:
.L351:
	.loc 1 1912 10 view .LVU1673
	movs	r0, #0
.LVL498:
	.loc 1 1912 10 view .LVU1674
	bx	lr
.LVL499:
.L352:
	.loc 1 1912 10 view .LVU1675
	movs	r0, #0
.LVL500:
	.loc 1 1925 1 view .LVU1676
	bx	lr
	.cfi_endproc
.LFE945:
	.size	net_pkt_remaining_data, .-net_pkt_remaining_data
	.section	.text.net_pkt_update_length,"ax",%progbits
	.align	1
	.global	net_pkt_update_length
	.syntax unified
	.thumb
	.thumb_func
	.fpu fpv4-sp-d16
	.type	net_pkt_update_length, %function
net_pkt_update_length:
.LVL501:
.LFB946:
	.loc 1 1928 1 is_stmt 1 view -0
	.cfi_startproc
	@ args = 0, pretend = 0, frame = 0
	@ frame_needed = 0, uses_anonymous_args = 0
	@ link register save eliminated.
	.loc 1 1929 2 view .LVU1678
	.loc 1 1931 2 view .LVU1679
	.loc 1 1931 11 is_stmt 0 view .LVU1680
	ldr	r3, [r0, #8]
.LVL502:
	.loc 1 1931 2 view .LVU1681
	b	.L355
.L356:
	.loc 1 1935 4 is_stmt 1 view .LVU1682
	.loc 1 1935 13 is_stmt 0 view .LVU1683
	strh	r1, [r3, #12]	@ movhi
	.loc 1 1936 4 is_stmt 1 view .LVU1684
.LVL503:
	.loc 1 1936 11 is_stmt 0 view .LVU1685
	movs	r1, #0
.LVL504:
.L357:
	.loc 1 1931 31 is_stmt 1 discriminator 2 view .LVU1686
	.loc 1 1931 35 is_stmt 0 discriminator 2 view .LVU1687
	ldr	r3, [r3]
.LVL505:
.L355:
	.loc 1 1931 26 is_stmt 1 discriminator 1 view .LVU1688
	.loc 1 1931 2 is_stmt 0 discriminator 1 view .LVU1689
	cbz	r3, .L361
	.loc 1 1932 3 is_stmt 1 view .LVU1690
	.loc 1 1932 10 is_stmt 0 view .LVU1691
	ldrh	r2, [r3, #12]
	.loc 1 1932 6 view .LVU1692
	cmp	r2, r1
	bcs	.L356
	.loc 1 1933 4 is_stmt 1 view .LVU1693
	.loc 1 1933 11 is_stmt 0 view .LVU1694
	subs	r1, r1, r2
.LVL506:
	.loc 1 1933 11 view .LVU1695
	b	.L357
.L361:
	.loc 1 1940 2 is_stmt 1 view .LVU1696
	.loc 1 1940 21 is_stmt 0 view .LVU1697
	cbnz	r1, .L360
	movs	r0, #0
.LVL507:
	.loc 1 1940 21 view .LVU1698
	bx	lr
.LVL508:
.L360:
	.loc 1 1940 21 view .LVU1699
	mvn	r0, #21
.LVL509:
	.loc 1 1941 1 view .LVU1700
	bx	lr
	.cfi_endproc
.LFE946:
	.size	net_pkt_update_length, .-net_pkt_update_length
	.section	.text.net_pkt_pull,"ax",%progbits
	.align	1
	.global	net_pkt_pull
	.syntax unified
	.thumb
	.thumb_func
	.fpu fpv4-sp-d16
	.type	net_pkt_pull, %function
net_pkt_pull:
.LVL510:
.LFB947:
	.loc 1 1944 1 is_stmt 1 view -0
	.cfi_startproc
	@ args = 0, pretend = 0, frame = 0
	@ frame_needed = 0, uses_anonymous_args = 0
	.loc 1 1944 1 is_stmt 0 view .LVU1702
	push	{r4, r5, r6, lr}
	.cfi_def_cfa_offset 16
	.cfi_offset 4, -16
	.cfi_offset 5, -12
	.cfi_offset 6, -8
	.cfi_offset 14, -4
	mov	r4, r0
	mov	r5, r1
	.loc 1 1945 2 is_stmt 1 view .LVU1703
.LVL511:
	.loc 1 1947 2 view .LVU1704
	.loc 1 1947 8 is_stmt 0 view .LVU1705
	b	.L363
.LVL512:
.L371:
.LBB592:
	.loc 1 1963 8 view .LVU1706
	mov	r6, r5
	b	.L365
.LVL513:
.L366:
.LBB593:
	.loc 1 1971 4 is_stmt 1 view .LVU1707
	.loc 1 1971 20 is_stmt 0 view .LVU1708
	ldr	r0, [r4, #8]
.LVL514:
	.loc 1 1973 4 is_stmt 1 view .LVU1709
	.loc 1 1973 7 is_stmt 0 view .LVU1710
	cbz	r0, .L368
	.loc 1 1974 5 is_stmt 1 view .LVU1711
	.loc 1 1974 22 is_stmt 0 view .LVU1712
	ldr	r3, [r0]
	.loc 1 1974 17 view .LVU1713
	str	r3, [r4, #8]
	.loc 1 1975 5 is_stmt 1 view .LVU1714
	.loc 1 1975 16 is_stmt 0 view .LVU1715
	movs	r3, #0
	str	r3, [r0]
	.loc 1 1976 5 is_stmt 1 view .LVU1716
	bl	net_buf_unref
.LVL515:
.L368:
	.loc 1 1979 4 view .LVU1717
	mov	r0, r4
	bl	net_pkt_cursor_init
.LVL516:
.L367:
	.loc 1 1979 4 is_stmt 0 view .LVU1718
.LBE593:
	.loc 1 1982 3 is_stmt 1 view .LVU1719
	.loc 1 1982 10 is_stmt 0 view .LVU1720
	subs	r5, r5, r6
.LVL517:
.L363:
	.loc 1 1982 10 view .LVU1721
.LBE592:
	.loc 1 1947 8 is_stmt 1 view .LVU1722
	cbz	r5, .L364
.LBB596:
	.loc 1 1948 3 view .LVU1723
	.loc 1 1950 3 view .LVU1724
	movs	r1, #0
	mov	r0, r4
	bl	pkt_cursor_advance
.LVL518:
	.loc 1 1952 3 view .LVU1725
	.loc 1 1952 12 is_stmt 0 view .LVU1726
	ldr	r1, [r4, #12]
	.loc 1 1952 6 view .LVU1727
	cbz	r1, .L364
	.loc 1 1956 3 is_stmt 1 view .LVU1728
	.loc 1 1956 19 is_stmt 0 view .LVU1729
	ldrh	r3, [r1, #12]
	.loc 1 1956 32 view .LVU1730
	ldr	r2, [r4, #16]
	.loc 1 1956 49 view .LVU1731
	ldr	r0, [r1, #8]
	.loc 1 1956 38 view .LVU1732
	subs	r2, r2, r0
.LVL519:
	.loc 1 1957 3 is_stmt 1 view .LVU1733
	.loc 1 1957 6 is_stmt 0 view .LVU1734
	subs	r2, r3, r2
.LVL520:
	.loc 1 1957 6 view .LVU1735
	beq	.L364
	.loc 1 1961 3 is_stmt 1 view .LVU1736
.LVL521:
	.loc 1 1962 3 view .LVU1737
	.loc 1 1962 6 is_stmt 0 view .LVU1738
	cmp	r2, r5
	bhi	.L371
	.loc 1 1961 7 view .LVU1739
	mov	r6, r2
.L365:
.LVL522:
	.loc 1 1966 3 is_stmt 1 view .LVU1740
	.loc 1 1966 18 is_stmt 0 view .LVU1741
	subs	r3, r3, r6
	strh	r3, [r1, #12]	@ movhi
	.loc 1 1967 3 is_stmt 1 view .LVU1742
.LVL523:
	.loc 1 1968 3 view .LVU1743
	.loc 1 1968 6 is_stmt 0 view .LVU1744
	subs	r2, r2, r6
.LVL524:
	.loc 1 1968 6 view .LVU1745
	beq	.L366
	.loc 1 1969 3 is_stmt 1 view .LVU1746
	.loc 1 1969 7 is_stmt 0 view .LVU1747
	ldr	r0, [r4, #16]
.LVL525:
.LBB594:
.LBI594:
	.loc 5 84 199 is_stmt 1 view .LVU1748
.LBB595:
	.loc 5 84 258 view .LVU1749
	.loc 5 84 265 is_stmt 0 view .LVU1750
	adds	r1, r0, r6
.LVL526:
	.loc 5 84 265 view .LVU1751
	bl	memmove
.LVL527:
	.loc 5 84 265 view .LVU1752
	b	.L367
.LVL528:
.L364:
	.loc 5 84 265 view .LVU1753
.LBE595:
.LBE594:
.LBE596:
	.loc 1 1985 2 is_stmt 1 view .LVU1754
	mov	r0, r4
	bl	net_pkt_cursor_init
.LVL529:
	.loc 1 1987 2 view .LVU1755
	.loc 1 1987 5 is_stmt 0 view .LVU1756
	cbnz	r5, .L372
	.loc 1 1992 9 view .LVU1757
	movs	r0, #0
.L362:
	.loc 1 1993 1 view .LVU1758
	pop	{r4, r5, r6, pc}
.LVL530:
.L372:
	.loc 1 1989 10 view .LVU1759
	mvn	r0, #104
	b	.L362
	.cfi_endproc
.LFE947:
	.size	net_pkt_pull, .-net_pkt_pull
	.section	.text.net_pkt_get_current_offset,"ax",%progbits
	.align	1
	.global	net_pkt_get_current_offset
	.syntax unified
	.thumb
	.thumb_func
	.fpu fpv4-sp-d16
	.type	net_pkt_get_current_offset, %function
net_pkt_get_current_offset:
.LVL531:
.LFB948:
	.loc 1 1996 1 is_stmt 1 view -0
	.cfi_startproc
	@ args = 0, pretend = 0, frame = 0
	@ frame_needed = 0, uses_anonymous_args = 0
	@ link register save eliminated.
	.loc 1 1997 2 view .LVU1761
	.loc 1 1997 18 is_stmt 0 view .LVU1762
	ldr	r3, [r0, #8]
.LVL532:
	.loc 1 1998 2 is_stmt 1 view .LVU1763
	.loc 1 2000 2 view .LVU1764
	.loc 1 2000 18 is_stmt 0 view .LVU1765
	ldr	r1, [r0, #12]
	.loc 1 2000 5 view .LVU1766
	cbz	r1, .L378
	.loc 1 1996 1 discriminator 1 view .LVU1767
	push	{r4}
	.cfi_def_cfa_offset 4
	.cfi_offset 4, -4
	.loc 1 2000 38 discriminator 1 view .LVU1768
	ldr	r4, [r0, #16]
	.loc 1 2000 23 discriminator 1 view .LVU1769
	cbz	r4, .L379
	.loc 1 2004 9 view .LVU1770
	movs	r0, #0
.LVL533:
	.loc 1 2004 9 view .LVU1771
	b	.L376
.LVL534:
.L377:
	.loc 1 2007 3 is_stmt 1 view .LVU1772
	.loc 1 2007 16 is_stmt 0 view .LVU1773
	ldrh	r2, [r3, #12]
	.loc 1 2007 10 view .LVU1774
	add	r0, r0, r2
.LVL535:
	.loc 1 2007 10 view .LVU1775
	uxth	r0, r0
.LVL536:
	.loc 1 2008 3 is_stmt 1 view .LVU1776
	.loc 1 2008 7 is_stmt 0 view .LVU1777
	ldr	r3, [r3]
.LVL537:
.L376:
	.loc 1 2006 8 is_stmt 1 view .LVU1778
	cmp	r1, r3
	bne	.L377
	.loc 1 2011 2 view .LVU1779
	.loc 1 2011 33 is_stmt 0 view .LVU1780
	ldr	r3, [r3, #8]
.LVL538:
	.loc 1 2011 28 view .LVU1781
	subs	r4, r4, r3
	.loc 1 2011 9 view .LVU1782
	add	r0, r0, r4
.LVL539:
	.loc 1 2011 9 view .LVU1783
	uxth	r0, r0
.LVL540:
	.loc 1 2013 2 is_stmt 1 view .LVU1784
.L375:
	.loc 1 2014 1 is_stmt 0 view .LVU1785
	ldr	r4, [sp], #4
	.cfi_restore 4
	.cfi_def_cfa_offset 0
	bx	lr
.LVL541:
.L378:
	.loc 1 2001 10 view .LVU1786
	movs	r0, #0
.LVL542:
	.loc 1 2014 1 view .LVU1787
	bx	lr
.LVL543:
.L379:
	.cfi_def_cfa_offset 4
	.cfi_offset 4, -4
	.loc 1 2001 10 view .LVU1788
	movs	r0, #0
.LVL544:
	.loc 1 2001 10 view .LVU1789
	b	.L375
	.cfi_endproc
.LFE948:
	.size	net_pkt_get_current_offset, .-net_pkt_get_current_offset
	.section	.text.net_pkt_clone,"ax",%progbits
	.align	1
	.global	net_pkt_clone
	.syntax unified
	.thumb
	.thumb_func
	.fpu fpv4-sp-d16
	.type	net_pkt_clone, %function
net_pkt_clone:
.LVL545:
.LFB943:
	.loc 1 1812 1 is_stmt 1 view -0
	.cfi_startproc
	@ args = 0, pretend = 0, frame = 0
	@ frame_needed = 0, uses_anonymous_args = 0
	.loc 1 1812 1 is_stmt 0 view .LVU1791
	push	{r4, r5, r6, r7, r8, r9, lr}
	.cfi_def_cfa_offset 28
	.cfi_offset 4, -28
	.cfi_offset 5, -24
	.cfi_offset 6, -20
	.cfi_offset 7, -16
	.cfi_offset 8, -12
	.cfi_offset 9, -8
	.cfi_offset 14, -4
	sub	sp, sp, #20
	.cfi_def_cfa_offset 48
	mov	r6, r0
	mov	r9, r2
.LVL546:
	.loc 1 1812 1 view .LVU1792
	mov	r8, r3
	.loc 1 1813 2 is_stmt 1 view .LVU1793
	.loc 1 1813 25 is_stmt 0 view .LVU1794
	bl	net_pkt_get_current_offset
.LVL547:
	.loc 1 1813 25 view .LVU1795
	mov	r7, r0
.LVL548:
	.loc 1 1814 2 is_stmt 1 view .LVU1796
	.loc 1 1815 2 view .LVU1797
	.loc 1 1823 2 view .LVU1798
	.loc 1 1823 14 is_stmt 0 view .LVU1799
	ldr	r0, [r6, #4]
.LVL549:
.LBB597:
.LBI597:
	.loc 2 293 30 is_stmt 1 view .LVU1800
.LBB598:
	.loc 2 295 2 view .LVU1801
	.loc 2 295 12 is_stmt 0 view .LVU1802
	ldr	r1, [r6, #24]
.LVL550:
	.loc 2 295 12 view .LVU1803
.LBE598:
.LBE597:
.LBB599:
.LBI599:
	.loc 2 961 22 is_stmt 1 view .LVU1804
.LBB600:
	.loc 2 963 2 view .LVU1805
	.loc 2 963 9 is_stmt 0 view .LVU1806
	ldr	r4, [r6, #8]
.LVL551:
.LBB601:
.LBI601:
	.loc 4 2465 22 is_stmt 1 view .LVU1807
.LBB602:
	.loc 4 2467 2 view .LVU1808
	.loc 4 2469 2 view .LVU1809
	.loc 4 2467 9 is_stmt 0 view .LVU1810
	movs	r2, #0
.LVL552:
.L385:
	.loc 4 2469 8 is_stmt 1 view .LVU1811
	cbz	r4, .L394
	.loc 4 2470 3 view .LVU1812
	.loc 4 2470 15 is_stmt 0 view .LVU1813
	ldrh	r5, [r4, #12]
	.loc 4 2470 9 view .LVU1814
	add	r2, r2, r5
.LVL553:
	.loc 4 2471 3 is_stmt 1 view .LVU1815
	.loc 4 2471 7 is_stmt 0 view .LVU1816
	ldr	r4, [r4]
.LVL554:
	.loc 4 2471 7 view .LVU1817
	b	.L385
.L394:
	.loc 4 2474 2 is_stmt 1 view .LVU1818
.LVL555:
	.loc 4 2474 2 is_stmt 0 view .LVU1819
.LBE602:
.LBE601:
.LBE600:
.LBE599:
	.loc 1 1823 14 view .LVU1820
	str	r9, [sp, #8]
.LVL556:
	.loc 1 1823 14 view .LVU1821
	str	r8, [sp, #12]
	movs	r3, #0
	str	r3, [sp]
	bl	pkt_alloc_with_buffer
.LVL557:
	.loc 1 1827 2 is_stmt 1 view .LVU1822
	.loc 1 1827 5 is_stmt 0 view .LVU1823
	mov	r5, r0
	cbz	r0, .L384
	.loc 1 1831 2 is_stmt 1 view .LVU1824
.LVL558:
.LBB603:
.LBI603:
	.loc 2 1811 20 view .LVU1825
.LBB604:
	.loc 2 1814 2 view .LVU1826
	.loc 2 1814 27 is_stmt 0 view .LVU1827
	ldr	r9, [r6, #12]
.LVL559:
	.loc 2 1815 2 is_stmt 1 view .LVU1828
	.loc 2 1815 27 is_stmt 0 view .LVU1829
	ldr	r8, [r6, #16]
.LVL560:
	.loc 2 1815 27 view .LVU1830
.LBE604:
.LBE603:
	.loc 1 1832 2 is_stmt 1 view .LVU1831
	mov	r0, r6
.LVL561:
	.loc 1 1832 2 is_stmt 0 view .LVU1832
	bl	net_pkt_cursor_init
.LVL562:
	.loc 1 1834 2 is_stmt 1 view .LVU1833
.LBB605:
.LBI605:
	.loc 2 961 22 view .LVU1834
.LBB606:
	.loc 2 963 2 view .LVU1835
	.loc 2 963 9 is_stmt 0 view .LVU1836
	ldr	r4, [r6, #8]
.LVL563:
.LBB607:
.LBI607:
	.loc 4 2465 22 is_stmt 1 view .LVU1837
.LBB608:
	.loc 4 2467 2 view .LVU1838
	.loc 4 2469 2 view .LVU1839
	.loc 4 2467 9 is_stmt 0 view .LVU1840
	movs	r2, #0
	.loc 4 2469 8 view .LVU1841
	b	.L388
.LVL564:
.L389:
	.loc 4 2470 3 is_stmt 1 view .LVU1842
	.loc 4 2470 15 is_stmt 0 view .LVU1843
	ldrh	r3, [r4, #12]
	.loc 4 2470 9 view .LVU1844
	add	r2, r2, r3
.LVL565:
	.loc 4 2471 3 is_stmt 1 view .LVU1845
	.loc 4 2471 7 is_stmt 0 view .LVU1846
	ldr	r4, [r4]
.LVL566:
.L388:
	.loc 4 2469 8 is_stmt 1 view .LVU1847
	cmp	r4, #0
	bne	.L389
	.loc 4 2474 2 view .LVU1848
.LVL567:
	.loc 4 2474 2 is_stmt 0 view .LVU1849
.LBE608:
.LBE607:
.LBE606:
.LBE605:
	.loc 1 1834 6 view .LVU1850
	mov	r1, r6
	mov	r0, r5
	bl	net_pkt_copy
.LVL568:
	.loc 1 1834 5 view .LVU1851
	cbnz	r0, .L395
	.loc 1 1840 2 is_stmt 1 view .LVU1852
	.loc 1 1840 15 is_stmt 0 view .LVU1853
	ldr	r3, [r5, #8]
	.loc 1 1840 5 view .LVU1854
	cbz	r3, .L391
	.loc 1 1845 2 is_stmt 1 view .LVU1855
	.loc 1 1845 2 is_stmt 0 view .LVU1856
	mov	r3, r6
.LVL569:
.LBB609:
.LBI609:
	.loc 5 83 216 is_stmt 1 view .LVU1857
.LBB610:
	.loc 5 83 292 view .LVU1858
	.loc 5 83 299 is_stmt 0 view .LVU1859
	ldr	r2, [r3, #52]!	@ unaligned
.LVL570:
	.loc 5 83 299 view .LVU1860
	ldr	r3, [r3, #4]	@ unaligned
.LVL571:
	.loc 5 83 299 view .LVU1861
	str	r2, [r5, #52]	@ unaligned
	str	r3, [r5, #56]	@ unaligned
.LVL572:
	.loc 5 83 299 view .LVU1862
.LBE610:
.LBE609:
	.loc 1 1847 2 is_stmt 1 view .LVU1863
	.loc 1 1847 2 is_stmt 0 view .LVU1864
	mov	r3, r6
.LVL573:
.LBB611:
.LBI611:
	.loc 5 83 216 is_stmt 1 view .LVU1865
.LBB612:
	.loc 5 83 292 view .LVU1866
	.loc 5 83 299 is_stmt 0 view .LVU1867
	ldr	r2, [r3, #60]!	@ unaligned
.LVL574:
	.loc 5 83 299 view .LVU1868
	ldr	r3, [r3, #4]	@ unaligned
.LVL575:
	.loc 5 83 299 view .LVU1869
	str	r2, [r5, #60]	@ unaligned
	str	r3, [r5, #64]	@ unaligned
.LVL576:
.L391:
	.loc 5 83 299 view .LVU1870
.LBE612:
.LBE611:
	.loc 1 1851 2 is_stmt 1 view .LVU1871
	mov	r1, r5
	mov	r0, r6
	bl	clone_pkt_attributes
.LVL577:
	.loc 1 1853 2 view .LVU1872
	mov	r0, r5
	bl	net_pkt_cursor_init
.LVL578:
	.loc 1 1855 2 view .LVU1873
	.loc 1 1855 5 is_stmt 0 view .LVU1874
	cbnz	r7, .L396
.L392:
	.loc 1 1860 2 is_stmt 1 view .LVU1875
.LVL579:
.LBB613:
.LBI613:
	.loc 2 1824 20 view .LVU1876
.LBB614:
	.loc 2 1827 2 view .LVU1877
	.loc 2 1827 18 is_stmt 0 view .LVU1878
	str	r9, [r6, #12]
	.loc 2 1828 2 is_stmt 1 view .LVU1879
	.loc 2 1828 18 is_stmt 0 view .LVU1880
	str	r8, [r6, #16]
.LVL580:
	.loc 2 1828 18 view .LVU1881
.LBE614:
.LBE613:
	.loc 1 1862 2 is_stmt 1 view .LVU1882
.LBB615:
	.loc 1 1862 7 view .LVU1883
.LBE615:
	.loc 1 1862 133 view .LVU1884
	.loc 1 1864 2 view .LVU1885
.L384:
	.loc 1 1865 1 is_stmt 0 view .LVU1886
	mov	r0, r5
	add	sp, sp, #20
	.cfi_remember_state
	.cfi_def_cfa_offset 28
	@ sp needed
	pop	{r4, r5, r6, r7, r8, r9, pc}
.LVL581:
.L395:
	.cfi_restore_state
	.loc 1 1835 3 is_stmt 1 view .LVU1887
	mov	r0, r5
	bl	net_pkt_unref
.LVL582:
	.loc 1 1836 3 view .LVU1888
.LBB616:
.LBI616:
	.loc 2 1824 20 view .LVU1889
.LBB617:
	.loc 2 1827 2 view .LVU1890
	.loc 2 1827 18 is_stmt 0 view .LVU1891
	str	r9, [r6, #12]
	.loc 2 1828 2 is_stmt 1 view .LVU1892
	.loc 2 1828 18 is_stmt 0 view .LVU1893
	str	r8, [r6, #16]
.LVL583:
	.loc 2 1828 18 view .LVU1894
.LBE617:
.LBE616:
	.loc 1 1837 3 is_stmt 1 view .LVU1895
	.loc 1 1837 9 is_stmt 0 view .LVU1896
	mov	r5, r4
.LVL584:
	.loc 1 1837 9 view .LVU1897
	b	.L384
.LVL585:
.L396:
	.loc 1 1856 3 is_stmt 1 view .LVU1898
.LBB618:
.LBI618:
	.loc 2 1205 20 view .LVU1899
.LBB619:
	.loc 2 1207 2 view .LVU1900
	.loc 2 1207 17 is_stmt 0 view .LVU1901
	ldrb	r3, [r5, #73]	@ zero_extendqisi2
	orr	r3, r3, #1
	strb	r3, [r5, #73]
.LVL586:
	.loc 2 1207 17 view .LVU1902
.LBE619:
.LBE618:
	.loc 1 1857 3 is_stmt 1 view .LVU1903
	mov	r1, r7
	mov	r0, r5
	bl	net_pkt_skip
.LVL587:
	b	.L392
	.cfi_endproc
.LFE943:
	.size	net_pkt_clone, .-net_pkt_clone
	.section	.text.net_pkt_get_contiguous_len,"ax",%progbits
	.align	1
	.global	net_pkt_get_contiguous_len
	.syntax unified
	.thumb
	.thumb_func
	.fpu fpv4-sp-d16
	.type	net_pkt_get_contiguous_len, %function
net_pkt_get_contiguous_len:
.LVL588:
.LFB950:
	.loc 1 2024 1 view -0
	.cfi_startproc
	@ args = 0, pretend = 0, frame = 0
	@ frame_needed = 0, uses_anonymous_args = 0
	.loc 1 2024 1 is_stmt 0 view .LVU1905
	push	{r4, lr}
	.cfi_def_cfa_offset 8
	.cfi_offset 4, -8
	.cfi_offset 14, -4
	mov	r4, r0
	.loc 1 2025 2 is_stmt 1 view .LVU1906
.LVL589:
.LBB620:
.LBI620:
	.loc 2 1210 19 view .LVU1907
.LBB621:
	.loc 2 1212 2 view .LVU1908
	.loc 2 1212 12 is_stmt 0 view .LVU1909
	ldrb	r1, [r0, #73]	@ zero_extendqisi2
	and	r1, r1, #1
.LVL590:
	.loc 2 1212 12 view .LVU1910
.LBE621:
.LBE620:
	.loc 1 2025 2 view .LVU1911
	eor	r1, r1, #1
	bl	pkt_cursor_advance
.LVL591:
	.loc 1 2027 2 is_stmt 1 view .LVU1912
	.loc 1 2027 17 is_stmt 0 view .LVU1913
	ldr	r3, [r4, #12]
	.loc 1 2027 5 view .LVU1914
	cbz	r3, .L401
	.loc 1 2027 36 discriminator 1 view .LVU1915
	ldr	r2, [r4, #16]
	.loc 1 2027 22 discriminator 1 view .LVU1916
	cbz	r2, .L402
.LBB622:
	.loc 1 2028 3 is_stmt 1 view .LVU1917
	.loc 1 2030 3 view .LVU1918
.LVL592:
.LBB623:
.LBI623:
	.loc 2 1210 19 view .LVU1919
.LBB624:
	.loc 2 1212 2 view .LVU1920
	.loc 2 1212 12 is_stmt 0 view .LVU1921
	ldrb	r1, [r4, #73]	@ zero_extendqisi2
.LVL593:
	.loc 2 1212 12 view .LVU1922
.LBE624:
.LBE623:
	.loc 1 2031 25 view .LVU1923
	tst	r1, #1
	beq	.L399
	.loc 1 2031 19 discriminator 1 view .LVU1924
	ldrh	r0, [r3, #12]
.L400:
.LVL594:
	.loc 1 2032 3 is_stmt 1 view .LVU1925
	.loc 1 2032 43 is_stmt 0 view .LVU1926
	ldr	r3, [r3, #8]
	.loc 1 2032 26 view .LVU1927
	subs	r2, r2, r3
	.loc 1 2032 7 view .LVU1928
	subs	r0, r0, r2
.LVL595:
	.loc 1 2033 3 is_stmt 1 view .LVU1929
.L397:
	.loc 1 2033 3 is_stmt 0 view .LVU1930
.LBE622:
	.loc 1 2037 1 view .LVU1931
	pop	{r4, pc}
.LVL596:
.L399:
.LBB625:
	.loc 1 2031 42 discriminator 2 view .LVU1932
	ldrh	r0, [r3, #14]
	b	.L400
.L401:
.LBE625:
	.loc 1 2036 9 view .LVU1933
	movs	r0, #0
	b	.L397
.L402:
	movs	r0, #0
	b	.L397
	.cfi_endproc
.LFE950:
	.size	net_pkt_get_contiguous_len, .-net_pkt_get_contiguous_len
	.section	.text.net_pkt_is_contiguous,"ax",%progbits
	.align	1
	.global	net_pkt_is_contiguous
	.syntax unified
	.thumb
	.thumb_func
	.fpu fpv4-sp-d16
	.type	net_pkt_is_contiguous, %function
net_pkt_is_contiguous:
.LVL597:
.LFB949:
	.loc 1 2017 1 is_stmt 1 view -0
	.cfi_startproc
	@ args = 0, pretend = 0, frame = 0
	@ frame_needed = 0, uses_anonymous_args = 0
	.loc 1 2017 1 is_stmt 0 view .LVU1935
	push	{r4, lr}
	.cfi_def_cfa_offset 8
	.cfi_offset 4, -8
	.cfi_offset 14, -4
	mov	r4, r1
	.loc 1 2018 2 is_stmt 1 view .LVU1936
	.loc 1 2018 15 is_stmt 0 view .LVU1937
	bl	net_pkt_get_contiguous_len
.LVL598:
	.loc 1 2020 2 is_stmt 1 view .LVU1938
	.loc 1 2021 1 is_stmt 0 view .LVU1939
	cmp	r0, r4
	ite	cc
	movcc	r0, #0
.LVL599:
	.loc 1 2021 1 view .LVU1940
	movcs	r0, #1
	pop	{r4, pc}
	.loc 1 2021 1 view .LVU1941
	.cfi_endproc
.LFE949:
	.size	net_pkt_is_contiguous, .-net_pkt_is_contiguous
	.section	.text.net_pkt_write,"ax",%progbits
	.align	1
	.global	net_pkt_write
	.syntax unified
	.thumb
	.thumb_func
	.fpu fpv4-sp-d16
	.type	net_pkt_write, %function
net_pkt_write:
.LVL600:
.LFB940:
	.loc 1 1703 1 is_stmt 1 view -0
	.cfi_startproc
	@ args = 0, pretend = 0, frame = 0
	@ frame_needed = 0, uses_anonymous_args = 0
	.loc 1 1703 1 is_stmt 0 view .LVU1943
	push	{r4, r5, r6, lr}
	.cfi_def_cfa_offset 16
	.cfi_offset 4, -16
	.cfi_offset 5, -12
	.cfi_offset 6, -8
	.cfi_offset 14, -4
	sub	sp, sp, #8
	.cfi_def_cfa_offset 24
	mov	r4, r0
	mov	r5, r1
	mov	r6, r2
	.loc 1 1704 2 is_stmt 1 view .LVU1944
.LBB626:
	.loc 1 1704 7 view .LVU1945
.LBE626:
	.loc 1 1704 146 view .LVU1946
	.loc 1 1706 2 view .LVU1947
	.loc 1 1706 25 is_stmt 0 view .LVU1948
	ldr	r3, [r0, #16]
	.loc 1 1706 5 view .LVU1949
	cmp	r1, r3
	beq	.L410
.LVL601:
.L407:
	.loc 1 1710 2 is_stmt 1 view .LVU1950
	.loc 1 1710 9 is_stmt 0 view .LVU1951
	movs	r3, #1
	str	r3, [sp]
	mov	r2, r6
	mov	r1, r5
	mov	r0, r4
	bl	net_pkt_cursor_operate
.LVL602:
.L406:
	.loc 1 1711 1 view .LVU1952
	add	sp, sp, #8
	.cfi_remember_state
	.cfi_def_cfa_offset 16
	@ sp needed
	pop	{r4, r5, r6, pc}
.LVL603:
.L410:
	.cfi_restore_state
	.loc 1 1706 33 discriminator 1 view .LVU1953
	mov	r1, r2
.LVL604:
	.loc 1 1706 33 discriminator 1 view .LVU1954
	bl	net_pkt_is_contiguous
.LVL605:
	.loc 1 1706 30 discriminator 1 view .LVU1955
	cmp	r0, #0
	beq	.L407
	.loc 1 1707 3 is_stmt 1 view .LVU1956
	.loc 1 1707 10 is_stmt 0 view .LVU1957
	mov	r1, r6
	mov	r0, r4
	bl	net_pkt_skip
.LVL606:
	b	.L406
	.cfi_endproc
.LFE940:
	.size	net_pkt_write, .-net_pkt_write
	.section	.rodata.net_pkt_get_data.str1.4,"aMS",%progbits,1
	.align	2
.LC1:
	.ascii	"Uncontiguous data cannot be linearized\000"
	.section	.text.net_pkt_get_data,"ax",%progbits
	.align	1
	.global	net_pkt_get_data
	.syntax unified
	.thumb
	.thumb_func
	.fpu fpv4-sp-d16
	.type	net_pkt_get_data, %function
net_pkt_get_data:
.LVL607:
.LFB951:
	.loc 1 2041 1 is_stmt 1 view -0
	.cfi_startproc
	@ args = 0, pretend = 0, frame = 32
	@ frame_needed = 0, uses_anonymous_args = 0
	.loc 1 2041 1 is_stmt 0 view .LVU1959
	push	{r4, r5, r6, r7, lr}
	.cfi_def_cfa_offset 20
	.cfi_offset 4, -20
	.cfi_offset 5, -16
	.cfi_offset 6, -12
	.cfi_offset 7, -8
	.cfi_offset 14, -4
	sub	sp, sp, #36
	.cfi_def_cfa_offset 56
	mov	r5, r0
	mov	r4, r1
	.loc 1 2042 2 is_stmt 1 view .LVU1960
	.loc 1 2049 3 view .LVU1961
	.loc 1 2049 7 is_stmt 0 view .LVU1962
	ldr	r1, [r1, #4]
.LVL608:
	.loc 1 2049 7 view .LVU1963
	bl	net_pkt_is_contiguous
.LVL609:
	.loc 1 2049 6 view .LVU1964
	cbnz	r0, .L419
	.loc 1 2051 10 is_stmt 1 view .LVU1965
.LVL610:
.LBB627:
.LBI627:
	.loc 2 1210 19 view .LVU1966
.LBB628:
	.loc 2 1212 2 view .LVU1967
	.loc 2 1212 12 is_stmt 0 view .LVU1968
	ldrb	r3, [r5, #73]	@ zero_extendqisi2
.LVL611:
	.loc 2 1212 12 view .LVU1969
.LBE628:
.LBE627:
	.loc 1 2051 13 view .LVU1970
	tst	r3, #1
	beq	.L413
.LBB629:
	.loc 1 2052 4 is_stmt 1 view .LVU1971
	.loc 1 2054 4 view .LVU1972
	.loc 1 2054 15 is_stmt 0 view .LVU1973
	ldr	r1, [r4]
	.loc 1 2054 7 view .LVU1974
	cbz	r1, .L420
	.loc 1 2060 4 is_stmt 1 view .LVU1975
.LVL612:
.LBB630:
.LBI630:
	.loc 2 1811 20 view .LVU1976
.LBB631:
	.loc 2 1814 2 view .LVU1977
	.loc 2 1814 27 is_stmt 0 view .LVU1978
	ldr	r7, [r5, #12]
	.loc 2 1815 2 is_stmt 1 view .LVU1979
	.loc 2 1815 27 is_stmt 0 view .LVU1980
	ldr	r6, [r5, #16]
.LVL613:
	.loc 2 1815 27 view .LVU1981
.LBE631:
.LBE630:
	.loc 1 2062 4 is_stmt 1 view .LVU1982
	.loc 1 2062 8 is_stmt 0 view .LVU1983
	ldr	r2, [r4, #4]
	mov	r0, r5
	bl	net_pkt_read
.LVL614:
	.loc 1 2062 7 view .LVU1984
	cbnz	r0, .L421
	.loc 1 2067 4 is_stmt 1 view .LVU1985
.LVL615:
.LBB632:
.LBI632:
	.loc 2 1824 20 view .LVU1986
.LBB633:
	.loc 2 1827 2 view .LVU1987
	.loc 2 1827 18 is_stmt 0 view .LVU1988
	str	r7, [r5, #12]
	.loc 2 1828 2 is_stmt 1 view .LVU1989
	.loc 2 1828 18 is_stmt 0 view .LVU1990
	str	r6, [r5, #16]
.LVL616:
	.loc 2 1828 18 view .LVU1991
.LBE633:
.LBE632:
	b	.L413
.L419:
.LBE629:
	.loc 1 2050 4 is_stmt 1 view .LVU1992
	.loc 1 2050 30 is_stmt 0 view .LVU1993
	ldr	r3, [r5, #16]
	.loc 1 2050 17 view .LVU1994
	str	r3, [r4]
.L413:
	.loc 1 2070 3 is_stmt 1 view .LVU1995
	.loc 1 2070 16 is_stmt 0 view .LVU1996
	ldr	r0, [r4]
.L411:
	.loc 1 2074 1 view .LVU1997
	add	sp, sp, #36
	.cfi_remember_state
	.cfi_def_cfa_offset 20
	@ sp needed
	pop	{r4, r5, r6, r7, pc}
.LVL617:
.L420:
	.cfi_restore_state
.LBB653:
	.loc 1 2055 5 is_stmt 1 view .LVU1998
.LBB634:
	.loc 1 2055 10 view .LVU1999
	.loc 1 2055 59 view .LVU2000
	.loc 1 2055 16 view .LVU2001
	.loc 1 2055 4 view .LVU2002
.LBE634:
.LBE653:
	.loc 7 120 2 view .LVU2003
.LBB654:
.LBB647:
	.loc 1 2055 43 view .LVU2004
	.loc 1 2055 109 view .LVU2005
	.loc 1 2055 208 view .LVU2006
.LBB635:
	.loc 1 2055 217 view .LVU2007
	.loc 1 2055 228 view .LVU2008
	.loc 1 2055 316 view .LVU2009
	.loc 1 2055 321 view .LVU2010
	.loc 1 2055 323 view .LVU2011
.LBE635:
.LBE647:
.LBE654:
	.loc 1 2055 5 view .LVU2012
	.loc 1 2055 5 view .LVU2013
.LBB655:
.LBB648:
.LBB644:
	.loc 1 2055 97 view .LVU2014
.LBB636:
	.loc 1 2055 102 view .LVU2015
	.loc 1 2055 113 view .LVU2016
.LBE636:
.LBE644:
.LBE648:
.LBE655:
	.loc 1 2055 5 view .LVU2017
	.loc 1 2055 219 view .LVU2018
	.loc 1 2055 4 view .LVU2019
	.loc 1 2055 33 view .LVU2020
	.loc 1 2055 6 view .LVU2021
	.loc 1 2055 26 view .LVU2022
	.loc 1 2055 50 view .LVU2023
	.loc 1 2055 25 view .LVU2024
	.loc 1 2055 43 view .LVU2025
	.loc 1 2055 63 view .LVU2026
	.loc 1 2055 110 view .LVU2027
	.loc 1 2055 142 view .LVU2028
	.loc 1 2055 15 view .LVU2029
	.loc 1 2055 57 view .LVU2030
	.loc 1 2055 99 view .LVU2031
	.loc 1 2055 144 view .LVU2032
	.loc 1 2055 149 view .LVU2033
	.loc 1 2055 414 view .LVU2034
	.loc 1 2055 420 view .LVU2035
	.loc 1 2055 1585 view .LVU2036
	.loc 1 2055 1609 view .LVU2037
	.loc 1 2055 1677 view .LVU2038
	.loc 1 2055 1802 view .LVU2039
	.loc 1 2055 1817 view .LVU2040
	.loc 1 2055 2115 view .LVU2041
	.loc 1 2055 2163 view .LVU2042
	.loc 1 2055 3551 view .LVU2043
	.loc 1 2055 3558 view .LVU2044
	.loc 1 2055 3581 view .LVU2045
	.loc 1 2055 3615 view .LVU2046
	.loc 1 2055 3620 view .LVU2047
	.loc 1 2055 3643 view .LVU2048
	.loc 1 2055 3771 view .LVU2049
	.loc 1 2055 18 view .LVU2050
.LBB656:
.LBB649:
.LBB645:
.LBB642:
	.loc 1 2055 13 view .LVU2051
	.loc 1 2055 18 view .LVU2052
	.loc 1 2055 41 view .LVU2053
	.loc 1 2055 161 view .LVU2054
	.loc 1 2055 287 view .LVU2055
	.loc 1 2055 490 view .LVU2056
	.loc 1 2055 7 view .LVU2057
	.loc 1 2055 9 view .LVU2058
	.loc 1 2055 22 view .LVU2059
.LBB637:
	.loc 1 2055 5 view .LVU2060
	.loc 1 2055 219 view .LVU2061
	.loc 1 2055 4 view .LVU2062
	.loc 1 2055 33 view .LVU2063
	.loc 1 2055 62 view .LVU2064
	.loc 1 2055 82 view .LVU2065
	.loc 1 2055 106 view .LVU2066
	.loc 1 2055 29 view .LVU2067
	.loc 1 2055 47 view .LVU2068
	.loc 1 2055 67 view .LVU2069
	.loc 1 2055 114 view .LVU2070
	.loc 1 2055 146 view .LVU2071
	.loc 1 2055 15 view .LVU2072
	.loc 1 2055 57 view .LVU2073
	.loc 1 2055 99 view .LVU2074
	.loc 1 2055 144 view .LVU2075
.LBB638:
	.loc 1 2055 149 view .LVU2076
	.loc 1 2055 414 view .LVU2077
	.loc 1 2055 420 view .LVU2078
	.loc 1 2055 1585 view .LVU2079
.LBE638:
.LBE637:
.LBE642:
.LBE645:
.LBE649:
.LBE656:
	.loc 1 2055 1609 view .LVU2080
	.loc 1 2055 1677 view .LVU2081
	.loc 1 2055 1802 view .LVU2082
.LBB657:
.LBB650:
.LBB646:
.LBB643:
.LBB641:
.LBB639:
	.loc 1 2055 1817 view .LVU2083
	.loc 1 2055 2115 view .LVU2084
	.loc 1 2055 2163 view .LVU2085
	.loc 1 2055 2201 view .LVU2086
	.loc 1 2055 2206 view .LVU2087
	.loc 1 2055 2855 view .LVU2088
	.loc 1 2055 3494 is_stmt 0 view .LVU2089
	ldr	r3, .L422
	str	r3, [sp, #24]
	.loc 1 2055 3551 is_stmt 1 view .LVU2090
	.loc 1 2055 3558 view .LVU2091
.LVL618:
	.loc 1 2055 3581 view .LVU2092
	.loc 1 2055 3581 is_stmt 0 view .LVU2093
.LBE639:
	.loc 1 2055 3615 is_stmt 1 view .LVU2094
	.loc 1 2055 3620 view .LVU2095
	.loc 1 2055 3643 view .LVU2096
	.loc 1 2055 3771 view .LVU2097
	.loc 1 2055 18 view .LVU2098
.LBB640:
	.loc 1 2055 31 view .LVU2099
	.loc 1 2055 52 is_stmt 0 view .LVU2100
	movs	r3, #0
	strh	r3, [sp, #5]	@ unaligned
	strb	r3, [sp, #7]
	movs	r2, #2
	strb	r2, [sp, #4]
	strb	r3, [sp, #6]
	.loc 1 2055 177 is_stmt 1 view .LVU2101
	.loc 1 2055 187 is_stmt 0 view .LVU2102
	ldr	r2, [sp, #4]
	str	r2, [sp, #20]
	.loc 1 2055 187 view .LVU2103
.LBE640:
.LBE641:
	.loc 1 2055 13 is_stmt 1 view .LVU2104
	.loc 1 2055 20 view .LVU2105
	.loc 1 2055 41 is_stmt 0 view .LVU2106
	mov	r2, r3
.LVL619:
	.loc 1 2055 41 view .LVU2107
	bfi	r2, r3, #0, #1
.LVL620:
	.loc 1 2055 41 view .LVU2108
	bfi	r2, r3, #1, #1
	bfi	r2, r3, #2, #1
	bfi	r2, r3, #3, #3
	movs	r1, #1
	bfi	r2, r1, #6, #3
	movs	r1, #8
	bfi	r2, r1, #9, #10
	.loc 1 2055 176 is_stmt 1 view .LVU2109
	ubfx	r2, r2, #0, #19
.LVL621:
	.loc 1 2055 176 is_stmt 0 view .LVU2110
	ldr	r1, .L422+4
	add	r0, sp, #8
.LVL622:
	.loc 1 2055 176 view .LVU2111
	bl	z_log_msg2_finalize
.LVL623:
	.loc 1 2055 176 view .LVU2112
.LBE643:
	.loc 1 2055 15 is_stmt 1 view .LVU2113
	.loc 1 2055 20 view .LVU2114
.LVL624:
	.loc 1 2055 60 view .LVU2115
.LBE646:
	.loc 1 2055 15 view .LVU2116
	.loc 1 2055 22 view .LVU2117
	.loc 1 2055 22 is_stmt 0 view .LVU2118
.LBE650:
	.loc 1 2055 89 is_stmt 1 view .LVU2119
	.loc 1 2057 5 view .LVU2120
	.loc 1 2057 11 is_stmt 0 view .LVU2121
	b	.L415
.LVL625:
.L421:
	.loc 1 2063 5 is_stmt 1 view .LVU2122
.LBB651:
.LBI651:
	.loc 2 1824 20 view .LVU2123
.LBB652:
	.loc 2 1827 2 view .LVU2124
	.loc 2 1827 18 is_stmt 0 view .LVU2125
	str	r7, [r5, #12]
	.loc 2 1828 2 is_stmt 1 view .LVU2126
	.loc 2 1828 18 is_stmt 0 view .LVU2127
	str	r6, [r5, #16]
.LVL626:
	.loc 2 1828 18 view .LVU2128
.LBE652:
.LBE651:
	.loc 1 2064 5 is_stmt 1 view .LVU2129
.L415:
	.loc 1 2064 5 is_stmt 0 view .LVU2130
.LBE657:
	.loc 1 2041 1 discriminator 1 view .LVU2131
	movs	r0, #0
	b	.L411
.L423:
	.align	2
.L422:
	.word	.LC1
	.word	.LANCHOR4
	.cfi_endproc
.LFE951:
	.size	net_pkt_get_data, .-net_pkt_get_data
	.section	.text.net_pkt_set_data,"ax",%progbits
	.align	1
	.global	net_pkt_set_data
	.syntax unified
	.thumb
	.thumb_func
	.fpu fpv4-sp-d16
	.type	net_pkt_set_data, %function
net_pkt_set_data:
.LVL627:
.LFB952:
	.loc 1 2078 1 is_stmt 1 view -0
	.cfi_startproc
	@ args = 0, pretend = 0, frame = 0
	@ frame_needed = 0, uses_anonymous_args = 0
	.loc 1 2078 1 is_stmt 0 view .LVU2133
	push	{r3, lr}
	.cfi_def_cfa_offset 8
	.cfi_offset 3, -8
	.cfi_offset 14, -4
	.loc 1 2079 2 is_stmt 1 view .LVU2134
	.loc 1 2083 2 view .LVU2135
	.loc 1 2083 9 is_stmt 0 view .LVU2136
	ldr	r2, [r1, #4]
	ldr	r1, [r1]
.LVL628:
	.loc 1 2083 9 view .LVU2137
	bl	net_pkt_write
.LVL629:
	.loc 1 2084 1 view .LVU2138
	pop	{r3, pc}
	.cfi_endproc
.LFE952:
	.size	net_pkt_set_data, .-net_pkt_set_data
	.section	.text.net_pkt_init,"ax",%progbits
	.align	1
	.global	net_pkt_init
	.syntax unified
	.thumb
	.thumb_func
	.fpu fpv4-sp-d16
	.type	net_pkt_init, %function
net_pkt_init:
.LFB953:
	.loc 1 2087 1 is_stmt 1 view -0
	.cfi_startproc
	@ args = 0, pretend = 0, frame = 0
	@ frame_needed = 0, uses_anonymous_args = 0
	@ link register save eliminated.
	.loc 1 2100 1 view .LVU2140
	bx	lr
	.cfi_endproc
.LFE953:
	.size	net_pkt_init, .-net_pkt_init
	.global	tx_pkts
	.global	_k_mem_slab_buf_tx_pkts
	.global	rx_pkts
	.global	_k_mem_slab_buf_rx_pkts
	.global	log_const_net_pkt
	.section	.rodata.str1.4,"aMS",%progbits,1
	.align	2
.LC2:
	.ascii	"net_pkt\000"
	.section	._k_mem_slab.static.rx_pkts,"aw"
	.align	2
	.set	.LANCHOR2,. + 0
	.type	rx_pkts, %object
	.size	rx_pkts, 32
rx_pkts:
	.word	rx_pkts
	.word	rx_pkts
	.space	1
	.space	3
	.word	32
	.word	88
	.word	_k_mem_slab_buf_rx_pkts
	.word	0
	.word	0
	.section	._k_mem_slab.static.tx_pkts,"aw"
	.align	2
	.set	.LANCHOR3,. + 0
	.type	tx_pkts, %object
	.size	tx_pkts, 32
tx_pkts:
	.word	tx_pkts
	.word	tx_pkts
	.space	1
	.space	3
	.word	32
	.word	88
	.word	_k_mem_slab_buf_tx_pkts
	.word	0
	.word	0
	.section	._net_buf_pool.static.rx_bufs,"aw"
	.align	2
	.set	.LANCHOR0,. + 0
	.type	rx_bufs, %object
	.size	rx_bufs, 48
rx_bufs:
	.word	0
	.word	0
	.space	1
	.space	3
	.word	rx_bufs+12
	.word	rx_bufs+12
	.word	rx_bufs+20
	.word	rx_bufs+20
	.space	1
	.space	1
	.short	32
	.short	32
	.byte	4
	.space	1
	.word	0
	.word	net_buf_fixed_alloc_rx_bufs
	.word	_net_buf_rx_bufs
	.section	._net_buf_pool.static.tx_bufs,"aw"
	.align	2
	.set	.LANCHOR1,. + 0
	.type	tx_bufs, %object
	.size	tx_bufs, 48
tx_bufs:
	.word	0
	.word	0
	.space	1
	.space	3
	.word	tx_bufs+12
	.word	tx_bufs+12
	.word	tx_bufs+20
	.word	tx_bufs+20
	.space	1
	.space	1
	.short	32
	.short	32
	.byte	4
	.space	1
	.word	0
	.word	net_buf_fixed_alloc_tx_bufs
	.word	_net_buf_tx_bufs
	.section	.log_const_net_pkt,"a"
	.align	2
	.set	.LANCHOR4,. + 0
	.type	log_const_net_pkt, %object
	.size	log_const_net_pkt, 8
log_const_net_pkt:
	.word	.LC2
	.byte	3
	.space	3
	.section	.noinit."WEST_TOPDIR/zephyr/subsys/net/ip/net_pkt.c".0,"aw"
	.align	2
	.type	_net_buf_rx_bufs, %object
	.size	_net_buf_rx_bufs, 768
_net_buf_rx_bufs:
	.space	768
	.section	.noinit."WEST_TOPDIR/zephyr/subsys/net/ip/net_pkt.c".1,"aw"
	.align	2
	.type	net_buf_data_rx_bufs, %object
	.size	net_buf_data_rx_bufs, 4096
net_buf_data_rx_bufs:
	.space	4096
	.section	.noinit."WEST_TOPDIR/zephyr/subsys/net/ip/net_pkt.c".2,"aw"
	.align	2
	.type	_net_buf_tx_bufs, %object
	.size	_net_buf_tx_bufs, 768
_net_buf_tx_bufs:
	.space	768
	.section	.noinit."WEST_TOPDIR/zephyr/subsys/net/ip/net_pkt.c".3,"aw"
	.align	2
	.type	net_buf_data_tx_bufs, %object
	.size	net_buf_data_tx_bufs, 4096
net_buf_data_tx_bufs:
	.space	4096
	.section	.noinit."WEST_TOPDIR/zephyr/subsys/net/ip/net_pkt.c".k_mem_slab_buf_rx_pkts,"aw"
	.align	2
	.type	_k_mem_slab_buf_rx_pkts, %object
	.size	_k_mem_slab_buf_rx_pkts, 2816
_k_mem_slab_buf_rx_pkts:
	.space	2816
	.section	.noinit."WEST_TOPDIR/zephyr/subsys/net/ip/net_pkt.c".k_mem_slab_buf_tx_pkts,"aw"
	.align	2
	.type	_k_mem_slab_buf_tx_pkts, %object
	.size	_k_mem_slab_buf_tx_pkts, 2816
_k_mem_slab_buf_tx_pkts:
	.space	2816
	.section	.rodata.net_buf_fixed_alloc_rx_bufs,"a"
	.align	2
	.type	net_buf_fixed_alloc_rx_bufs, %object
	.size	net_buf_fixed_alloc_rx_bufs, 8
net_buf_fixed_alloc_rx_bufs:
	.word	net_buf_fixed_cb
	.word	net_buf_fixed_rx_bufs
	.section	.rodata.net_buf_fixed_alloc_tx_bufs,"a"
	.align	2
	.type	net_buf_fixed_alloc_tx_bufs, %object
	.size	net_buf_fixed_alloc_tx_bufs, 8
net_buf_fixed_alloc_tx_bufs:
	.word	net_buf_fixed_cb
	.word	net_buf_fixed_tx_bufs
	.section	.rodata.net_buf_fixed_rx_bufs,"a"
	.align	2
	.type	net_buf_fixed_rx_bufs, %object
	.size	net_buf_fixed_rx_bufs, 8
net_buf_fixed_rx_bufs:
	.word	128
	.word	net_buf_data_rx_bufs
	.section	.rodata.net_buf_fixed_tx_bufs,"a"
	.align	2
	.type	net_buf_fixed_tx_bufs, %object
	.size	net_buf_fixed_tx_bufs, 8
net_buf_fixed_tx_bufs:
	.word	128
	.word	net_buf_data_tx_bufs
	.text
.Letext0:
	.file 8 "/home/sebin/LIOT/gcc-arm-none-eabi-9-2019-q4-major/lib/gcc/arm-none-eabi/9.2.1/include/stddef.h"
	.file 9 "/home/sebin/LIOT/gcc-arm-none-eabi-9-2019-q4-major/arm-none-eabi/include/machine/_default_types.h"
	.file 10 "/home/sebin/LIOT/gcc-arm-none-eabi-9-2019-q4-major/arm-none-eabi/include/sys/_stdint.h"
	.file 11 "/home/sebin/thesis/zephyrproject/zephyr/include/logging/log_instance.h"
	.file 12 "/home/sebin/thesis/zephyrproject/zephyr/include/sys/atomic.h"
	.file 13 "/home/sebin/LIOT/gcc-arm-none-eabi-9-2019-q4-major/arm-none-eabi/include/sys/lock.h"
	.file 14 "/home/sebin/LIOT/gcc-arm-none-eabi-9-2019-q4-major/arm-none-eabi/include/sys/_types.h"
	.file 15 "/home/sebin/LIOT/gcc-arm-none-eabi-9-2019-q4-major/arm-none-eabi/include/sys/reent.h"
	.file 16 "/home/sebin/LIOT/gcc-arm-none-eabi-9-2019-q4-major/lib/gcc/arm-none-eabi/9.2.1/include/stdarg.h"
	.file 17 "/home/sebin/LIOT/gcc-arm-none-eabi-9-2019-q4-major/arm-none-eabi/include/sys/errno.h"
	.file 18 "/home/sebin/thesis/zephyrproject/zephyr/include/sys/cbprintf_internal.h"
	.file 19 "/home/sebin/thesis/zephyrproject/zephyr/include/logging/log_msg2.h"
	.file 20 "/home/sebin/thesis/zephyrproject/zephyr/include/logging/log_msg.h"
	.file 21 "/home/sebin/thesis/zephyrproject/zephyr/include/logging/log_core.h"
	.file 22 "/home/sebin/thesis/zephyrproject/zephyr/include/sys/dlist.h"
	.file 23 "/home/sebin/thesis/zephyrproject/zephyr/include/sys/rb.h"
	.file 24 "/home/sebin/thesis/zephyrproject/zephyr/include/sys/slist.h"
	.file 25 "/home/sebin/thesis/zephyrproject/zephyr/include/sys/sflist.h"
	.file 26 "/home/sebin/thesis/zephyrproject/zephyr/include/sys/sys_heap.h"
	.file 27 "/home/sebin/thesis/zephyrproject/zephyr/include/kernel_structs.h"
	.file 28 "/home/sebin/thesis/zephyrproject/zephyr/include/kernel/thread.h"
	.file 29 "/home/sebin/thesis/zephyrproject/zephyr/include/kernel.h"
	.file 30 "/home/sebin/thesis/zephyrproject/zephyr/include/arch/arm/aarch32/thread.h"
	.file 31 "/home/sebin/thesis/zephyrproject/zephyr/include/arch/arm/aarch32/exc.h"
	.file 32 "/home/sebin/thesis/zephyrproject/zephyr/include/sw_isr_table.h"
	.file 33 "/home/sebin/thesis/zephyrproject/modules/hal/infineon/XMCLib/devices/XMC4500/Include/system_XMC4500.h"
	.file 34 "/home/sebin/thesis/zephyrproject/modules/hal/cmsis/CMSIS/Core/Include/core_cm4.h"
	.file 35 "/home/sebin/thesis/zephyrproject/zephyr/include/arch/arm/aarch32/mpu/arm_mpu_v7m.h"
	.file 36 "/home/sebin/thesis/zephyrproject/zephyr/include/arch/arm/aarch32/mpu/arm_mpu.h"
	.file 37 "/home/sebin/thesis/zephyrproject/zephyr/include/sys_clock.h"
	.file 38 "/home/sebin/thesis/zephyrproject/zephyr/include/spinlock.h"
	.file 39 "/home/sebin/thesis/zephyrproject/zephyr/include/net/net_timeout.h"
	.file 40 "/home/sebin/thesis/zephyrproject/zephyr/include/net/net_core.h"
	.file 41 "/home/sebin/thesis/zephyrproject/zephyr/include/net/net_linkaddr.h"
	.file 42 "/home/sebin/thesis/zephyrproject/zephyr/include/net/net_ip.h"
	.file 43 "/home/sebin/thesis/zephyrproject/zephyr/include/device.h"
	.file 44 "/home/sebin/thesis/dmz/zephyr_xmc_template/build/zephyr/include/generated/device_extern.h"
	.file 45 "/home/sebin/thesis/zephyrproject/zephyr/include/net/net_l2.h"
	.file 46 "/home/sebin/thesis/zephyrproject/zephyr/include/net/net_stats.h"
	.file 47 "/home/sebin/thesis/zephyrproject/zephyr/include/net/net_context.h"
	.file 48 "/home/sebin/thesis/zephyrproject/zephyr/include/net/ptp_time.h"
	.file 49 "/home/sebin/thesis/dmz/zephyr_xmc_template/build/zephyr/include/generated/syscalls/log_msg2.h"
	.file 50 "<built-in>"
	.file 51 "/home/sebin/thesis/zephyrproject/zephyr/include/arch/structs.h"