	.cpu cortex-m4
	.eabi_attribute 27, 1
	.eabi_attribute 28, 1
	.eabi_attribute 20, 1
	.eabi_attribute 21, 1
	.eabi_attribute 23, 3
	.eabi_attribute 24, 1
	.eabi_attribute 25, 1
	.eabi_attribute 26, 1
	.eabi_attribute 30, 1
	.eabi_attribute 34, 1
	.eabi_attribute 38, 1
	.eabi_attribute 18, 4
	.file	"net_core.c"
	.text
.Ltext0:
	.cfi_sections	.debug_frame
	.section	.text.processing_data,"ax",%progbits
	.align	1
	.arch armv7e-m
	.syntax unified
	.thumb
	.thumb_func
	.fpu fpv4-sp-d16
	.type	processing_data, %function
processing_data:
.LVL0:
.LFB959:
	.file 1 "/home/sebin/thesis/zephyrproject/zephyr/subsys/net/ip/net_core.c"
	.loc 1 139 1 view -0
	.cfi_startproc
	@ args = 0, pretend = 0, frame = 0
	@ frame_needed = 0, uses_anonymous_args = 0
	.loc 1 139 1 is_stmt 0 view .LVU1
	push	{r3, r4, r5, lr}
	.cfi_def_cfa_offset 16
	.cfi_offset 3, -16
	.cfi_offset 4, -12
	.cfi_offset 5, -8
	.cfi_offset 14, -4
	mov	r4, r0
.L2:
	.loc 1 141 2 is_stmt 1 view .LVU2
.LVL1:
.LBB269:
.LBI269:
	.loc 1 60 32 view .LVU3
.LBB270:
	.loc 1 63 2 view .LVU4
	.loc 1 64 1 view .LVU5
	.loc 1 66 2 view .LVU6
	.loc 1 66 2 is_stmt 0 view .LVU7
.LBE270:
.LBE269:
	.file 2 "/home/sebin/thesis/zephyrproject/zephyr/subsys/net/ip/packet_socket.h"
	.loc 2 34 2 is_stmt 1 view .LVU8
.LBB298:
.LBB294:
	.loc 1 67 2 view .LVU9
	.loc 1 82 2 view .LVU10
	.loc 1 82 10 is_stmt 0 view .LVU11
	ldr	r3, [r0, #8]
	.loc 1 82 5 view .LVU12
	cbz	r3, .L12
	mov	r5, r1
	.loc 1 89 2 is_stmt 1 view .LVU13
	.loc 1 89 5 is_stmt 0 view .LVU14
	cbnz	r1, .L5
	.loc 1 90 3 is_stmt 1 view .LVU15
.LVL2:
.LBB271:
.LBI271:
	.file 3 "/home/sebin/thesis/zephyrproject/zephyr/include/net/net_pkt.h"
	.loc 3 293 30 view .LVU16
.LBB272:
	.loc 3 295 2 view .LVU17
	.loc 3 295 2 is_stmt 0 view .LVU18
.LBE272:
.LBE271:
	.loc 1 90 9 view .LVU19
	mov	r1, r0
.LVL3:
	.loc 1 90 9 view .LVU20
	ldr	r0, [r0, #24]
.LVL4:
	.loc 1 90 9 view .LVU21
	bl	net_if_recv_data
.LVL5:
	.loc 1 91 3 is_stmt 1 view .LVU22
	.loc 1 91 6 is_stmt 0 view .LVU23
	cmp	r0, #1
	beq	.L5
	.loc 1 92 4 is_stmt 1 view .LVU24
	.loc 1 92 7 is_stmt 0 view .LVU25
	cmp	r0, #2
	bne	.L4
	.loc 1 93 5 is_stmt 1 view .LVU26
.LBB273:
	.loc 1 93 10 view .LVU27
.LBE273:
	.loc 1 93 135 view .LVU28
	.loc 1 94 5 view .LVU29
.LVL6:
.LBB274:
.LBI274:
	.loc 3 293 30 view .LVU30
.LBB275:
	.loc 3 295 2 view .LVU31
	.loc 3 295 12 is_stmt 0 view .LVU32
	ldr	r2, [r4, #24]
.LVL7:
	.loc 3 295 12 view .LVU33
.LBE275:
.LBE274:
.LBB276:
.LBI276:
	.file 4 "/home/sebin/thesis/zephyrproject/zephyr/subsys/net/ip/net_stats.h"
	.loc 4 36 20 is_stmt 1 view .LVU34
.LBB277:
	.loc 4 38 6 view .LVU35
	.loc 4 38 7 view .LVU36
	.loc 4 38 9 view .LVU37
	.loc 4 38 20 is_stmt 0 view .LVU38
	ldr	r1, .L13
	ldr	r3, [r1]
	.loc 4 38 37 view .LVU39
	adds	r3, r3, #1
	str	r3, [r1]
	.loc 4 38 43 is_stmt 1 view .LVU40
	.loc 4 38 56 is_stmt 0 view .LVU41
	ldr	r3, [r2, #8]
	.loc 4 38 73 view .LVU42
	adds	r3, r3, #1
	str	r3, [r2, #8]
	.loc 4 38 79 is_stmt 1 view .LVU43
.LVL8:
	.loc 4 38 79 is_stmt 0 view .LVU44
.LBE277:
.LBE276:
	.loc 1 98 4 is_stmt 1 view .LVU45
	.loc 1 98 11 is_stmt 0 view .LVU46
	b	.L4
.LVL9:
.L12:
	.loc 1 83 3 is_stmt 1 view .LVU47
.LBB278:
	.loc 1 83 8 view .LVU48
.LBE278:
	.loc 1 83 142 view .LVU49
	.loc 1 84 3 view .LVU50
.LBB279:
.LBI279:
	.loc 3 293 30 view .LVU51
.LBB280:
	.loc 3 295 2 view .LVU52
	.loc 3 295 12 is_stmt 0 view .LVU53
	ldr	r2, [r0, #24]
.LVL10:
	.loc 3 295 12 view .LVU54
.LBE280:
.LBE279:
.LBB281:
.LBI281:
	.loc 4 36 20 is_stmt 1 view .LVU55
.LBB282:
	.loc 4 38 6 view .LVU56
	.loc 4 38 7 view .LVU57
	.loc 4 38 9 view .LVU58
	.loc 4 38 20 is_stmt 0 view .LVU59
	ldr	r1, .L13
.LVL11:
	.loc 4 38 20 view .LVU60
	ldr	r3, [r1]
	.loc 4 38 37 view .LVU61
	adds	r3, r3, #1
	str	r3, [r1]
	.loc 4 38 43 is_stmt 1 view .LVU62
	.loc 4 38 56 is_stmt 0 view .LVU63
	ldr	r3, [r2, #8]
	.loc 4 38 73 view .LVU64
	adds	r3, r3, #1
	str	r3, [r2, #8]
	.loc 4 38 79 is_stmt 1 view .LVU65
.LVL12:
	.loc 4 38 79 is_stmt 0 view .LVU66
.LBE282:
.LBE281:
	.loc 1 86 3 is_stmt 1 view .LVU67
	.loc 1 86 10 is_stmt 0 view .LVU68
	movs	r0, #2
.LVL13:
	.loc 1 86 10 view .LVU69
	b	.L4
.LVL14:
.L5:
	.loc 1 103 2 is_stmt 1 view .LVU70
	.loc 1 103 2 is_stmt 0 view .LVU71
.LBE294:
.LBE298:
	.loc 2 34 2 is_stmt 1 view .LVU72
.LBB299:
.LBB295:
	.loc 1 104 2 view .LVU73
	.loc 1 108 2 view .LVU74
	.loc 1 108 2 is_stmt 0 view .LVU75
.LBE295:
.LBE299:
	.file 5 "/home/sebin/thesis/zephyrproject/zephyr/subsys/net/ip/canbus_socket.h"
	.loc 5 32 2 is_stmt 1 view .LVU76
.LBB300:
.LBB296:
	.loc 1 109 2 view .LVU77
	.loc 1 116 2 view .LVU78
	mov	r0, r4
	bl	net_pkt_cursor_init
.LVL15:
	.loc 1 119 2 view .LVU79
.LBB283:
.LBI283:
	.loc 3 971 24 view .LVU80
.LBB284:
	.loc 3 973 2 view .LVU81
	.loc 3 973 12 is_stmt 0 view .LVU82
	ldr	r3, [r4, #8]
	.loc 3 973 19 view .LVU83
	ldr	r3, [r3, #8]
.LVL16:
	.loc 3 973 19 view .LVU84
.LBE284:
.LBE283:
	.loc 1 119 55 view .LVU85
	ldrb	r3, [r3]	@ zero_extendqisi2
	and	r3, r3, #240
	.loc 1 119 2 view .LVU86
	cmp	r3, #64
	beq	.L7
	cmp	r3, #96
	bne	.L8
	.loc 1 122 3 is_stmt 1 view .LVU87
	.loc 1 122 10 is_stmt 0 view .LVU88
	mov	r1, r5
	mov	r0, r4
	bl	net_ipv6_input
.LVL17:
.L4:
	.loc 1 122 10 view .LVU89
.LBE296:
.LBE300:
	.loc 1 141 2 view .LVU90
	cbz	r0, .L1
	cmp	r0, #1
	bne	.L10
	.loc 1 143 3 is_stmt 1 view .LVU91
	.loc 1 149 4 view .LVU92
.LBB301:
	.loc 1 149 9 view .LVU93
.LBE301:
	.loc 1 149 124 view .LVU94
	.loc 1 150 4 view .LVU95
	mov	r0, r4
	bl	net_pkt_unref
.LVL18:
	.loc 1 152 3 view .LVU96
.L1:
	.loc 1 162 1 is_stmt 0 view .LVU97
	pop	{r3, r4, r5, pc}
.LVL19:
.L7:
.LBB302:
.LBB297:
	.loc 1 126 3 is_stmt 1 view .LVU98
	.loc 1 126 10 is_stmt 0 view .LVU99
	mov	r0, r4
	bl	net_ipv4_input
.LVL20:
	b	.L4
.L8:
	.loc 1 130 2 is_stmt 1 view .LVU100
.LBB285:
	.loc 1 130 7 view .LVU101
.LBE285:
	.loc 1 130 192 view .LVU102
	.loc 1 132 2 view .LVU103
.LVL21:
.LBB286:
.LBI286:
	.loc 3 293 30 view .LVU104
.LBB287:
	.loc 3 295 2 view .LVU105
	.loc 3 295 12 is_stmt 0 view .LVU106
	ldr	r1, [r4, #24]
.LVL22:
	.loc 3 295 12 view .LVU107
.LBE287:
.LBE286:
.LBB288:
.LBI288:
	.loc 4 41 20 is_stmt 1 view .LVU108
.LBB289:
	.loc 4 43 6 view .LVU109
	.loc 4 43 7 view .LVU110
	.loc 4 43 9 view .LVU111
	.loc 4 43 30 is_stmt 0 view .LVU112
	ldr	r3, .L13
	ldr	r2, [r3, #32]
	.loc 4 43 39 view .LVU113
	adds	r2, r2, #1
	str	r2, [r3, #32]
	.loc 4 43 45 is_stmt 1 view .LVU114
	.loc 4 43 68 is_stmt 0 view .LVU115
	ldr	r2, [r1, #40]
	.loc 4 43 77 view .LVU116
	adds	r2, r2, #1
	str	r2, [r1, #40]
	.loc 4 43 83 is_stmt 1 view .LVU117
.LVL23:
	.loc 4 43 83 is_stmt 0 view .LVU118
.LBE289:
.LBE288:
	.loc 1 133 2 is_stmt 1 view .LVU119
.LBB290:
.LBI290:
	.loc 3 293 30 view .LVU120
.LBB291:
	.loc 3 295 2 view .LVU121
	.loc 3 295 12 is_stmt 0 view .LVU122
	ldr	r1, [r4, #24]
.LVL24:
	.loc 3 295 12 view .LVU123
.LBE291:
.LBE290:
.LBB292:
.LBI292:
	.loc 4 46 20 is_stmt 1 view .LVU124
.LBB293:
	.loc 4 48 6 view .LVU125
	.loc 4 48 7 view .LVU126
	.loc 4 48 9 view .LVU127
	.loc 4 48 30 is_stmt 0 view .LVU128
	ldr	r2, [r3, #12]
	.loc 4 48 37 view .LVU129
	adds	r2, r2, #1
	str	r2, [r3, #12]
	.loc 4 48 43 is_stmt 1 view .LVU130
	.loc 4 48 66 is_stmt 0 view .LVU131
	ldr	r3, [r1, #20]
	.loc 4 48 73 view .LVU132
	adds	r3, r3, #1
	str	r3, [r1, #20]
	.loc 4 48 79 is_stmt 1 view .LVU133
.LVL25:
	.loc 4 48 79 is_stmt 0 view .LVU134
.LBE293:
.LBE292:
	.loc 1 135 2 is_stmt 1 view .LVU135
	.loc 1 135 9 is_stmt 0 view .LVU136
	movs	r0, #2
	b	.L4
.LVL26:
.L10:
	.loc 1 135 9 view .LVU137
.LBE297:
.LBE302:
	.loc 1 158 3 is_stmt 1 view .LVU138
.LBB303:
	.loc 1 158 8 view .LVU139
.LBE303:
	.loc 1 158 123 view .LVU140
	.loc 1 159 3 view .LVU141
	mov	r0, r4
	bl	net_pkt_unref
.LVL27:
	.loc 1 160 3 view .LVU142
	.loc 1 162 1 is_stmt 0 view .LVU143
	b	.L1
.L14:
	.align	2
.L13:
	.word	net_stats
	.cfi_endproc
.LFE959:
	.size	processing_data, .-processing_data
	.section	.text.net_rx,"ax",%progbits
	.align	1
	.syntax unified
	.thumb
	.thumb_func
	.fpu fpv4-sp-d16
	.type	net_rx, %function
net_rx:
.LVL28:
.LFB964:
	.loc 1 347 1 is_stmt 1 view -0
	.cfi_startproc
	@ args = 0, pretend = 0, frame = 0
	@ frame_needed = 0, uses_anonymous_args = 0
	.loc 1 347 1 is_stmt 0 view .LVU145
	push	{r3, r4, r5, lr}
	.cfi_def_cfa_offset 16
	.cfi_offset 3, -16
	.cfi_offset 4, -12
	.cfi_offset 5, -8
	.cfi_offset 14, -4
	mov	r5, r0
	mov	r0, r1
.LVL29:
	.loc 1 348 1 is_stmt 1 view .LVU146
	.loc 1 349 2 view .LVU147
	.loc 1 351 2 view .LVU148
.LBB304:
.LBI304:
	.loc 3 961 22 view .LVU149
.LBB305:
	.loc 3 963 2 view .LVU150
	.loc 3 963 9 is_stmt 0 view .LVU151
	ldr	r3, [r1, #8]
.LVL30:
.LBB306:
.LBI306:
	.file 6 "/home/sebin/thesis/zephyrproject/zephyr/include/net/buf.h"
	.loc 6 2465 22 is_stmt 1 view .LVU152
.LBB307:
	.loc 6 2467 2 view .LVU153
	.loc 6 2469 2 view .LVU154
	.loc 6 2467 9 is_stmt 0 view .LVU155
	movs	r2, #0
.LVL31:
.L16:
	.loc 6 2469 8 is_stmt 1 view .LVU156
	cbz	r3, .L19
	.loc 6 2470 3 view .LVU157
	.loc 6 2470 15 is_stmt 0 view .LVU158
	ldrh	r4, [r3, #12]
	.loc 6 2470 9 view .LVU159
	add	r2, r2, r4
.LVL32:
	.loc 6 2471 3 is_stmt 1 view .LVU160
	.loc 6 2471 7 is_stmt 0 view .LVU161
	ldr	r3, [r3]
.LVL33:
	.loc 6 2471 7 view .LVU162
	b	.L16
.L19:
	.loc 6 2474 2 is_stmt 1 view .LVU163
.LVL34:
	.loc 6 2474 2 is_stmt 0 view .LVU164
.LBE307:
.LBE306:
.LBE305:
.LBE304:
	.loc 1 353 2 is_stmt 1 view .LVU165
.LBB308:
	.loc 1 353 7 view .LVU166
.LBE308:
	.loc 1 353 139 view .LVU167
	.loc 1 355 2 view .LVU168
.LBB309:
.LBI309:
	.loc 4 51 20 view .LVU169
.LBB310:
	.loc 4 54 6 view .LVU170
	.loc 4 54 7 view .LVU171
	.loc 4 54 9 view .LVU172
	.loc 4 54 36 is_stmt 0 view .LVU173
	ldr	r1, .L20
.LVL35:
	.loc 4 54 36 view .LVU174
	ldr	r3, [r1, #8]
	add	r3, r3, r2
	str	r3, [r1, #8]
	.loc 4 54 48 is_stmt 1 view .LVU175
	.loc 4 54 77 is_stmt 0 view .LVU176
	ldr	r3, [r5, #16]
	add	r2, r2, r3
.LVL36:
	.loc 4 54 77 view .LVU177
	str	r2, [r5, #16]
	.loc 4 54 89 is_stmt 1 view .LVU178
.LVL37:
	.loc 4 54 89 is_stmt 0 view .LVU179
.LBE310:
.LBE309:
	.loc 1 357 2 is_stmt 1 view .LVU180
	.loc 1 363 2 view .LVU181
	.loc 1 365 2 view .LVU182
	movs	r1, #0
	bl	processing_data
.LVL38:
	.loc 1 367 2 view .LVU183
	.loc 1 368 2 view .LVU184
	.loc 1 369 1 is_stmt 0 view .LVU185
	pop	{r3, r4, r5, pc}
.LVL39:
.L21:
	.loc 1 369 1 view .LVU186
	.align	2
.L20:
	.word	net_stats
	.cfi_endproc
.LFE964:
	.size	net_rx, .-net_rx
	.section	.text.net_queue_rx,"ax",%progbits
	.align	1
	.syntax unified
	.thumb
	.thumb_func
	.fpu fpv4-sp-d16
	.type	net_queue_rx, %function
net_queue_rx:
.LVL40:
.LFB966:
	.loc 1 381 1 is_stmt 1 view -0
	.cfi_startproc
	@ args = 0, pretend = 0, frame = 0
	@ frame_needed = 0, uses_anonymous_args = 0
	.loc 1 381 1 is_stmt 0 view .LVU188
	push	{r3, r4, r5, r6, r7, lr}
	.cfi_def_cfa_offset 24
	.cfi_offset 3, -24
	.cfi_offset 4, -20
	.cfi_offset 5, -16
	.cfi_offset 6, -12
	.cfi_offset 7, -8
	.cfi_offset 14, -4
	mov	r5, r0
	mov	r6, r1
	.loc 1 382 2 is_stmt 1 view .LVU189
.LVL41:
.LBB311:
.LBI311:
	.loc 3 726 23 view .LVU190
.LBB312:
	.loc 3 728 2 view .LVU191
	.loc 3 728 12 is_stmt 0 view .LVU192
	ldrb	r7, [r1, #82]	@ zero_extendqisi2
.LVL42:
	.loc 3 728 12 view .LVU193
.LBE312:
.LBE311:
	.loc 1 383 2 is_stmt 1 view .LVU194
	.loc 1 383 15 is_stmt 0 view .LVU195
	mov	r0, r7
.LVL43:
	.loc 1 383 15 view .LVU196
	bl	net_rx_priority2tc
.LVL44:
	.loc 1 383 10 view .LVU197
	uxtb	r0, r0
.LVL45:
	.loc 1 386 2 is_stmt 1 view .LVU198
.LBB313:
.LBI313:
	.loc 4 517 20 view .LVU199
.LBB314:
	.loc 4 519 6 view .LVU200
	.loc 4 519 7 view .LVU201
	.loc 4 519 9 view .LVU202
	.loc 4 519 32 is_stmt 0 view .LVU203
	ldr	r3, .L27
	add	r3, r3, r0, lsl #5
	ldr	r2, [r3, #408]
	.loc 4 519 37 view .LVU204
	adds	r2, r2, #1
	str	r2, [r3, #408]
	.loc 4 519 43 is_stmt 1 view .LVU205
	.loc 4 519 68 is_stmt 0 view .LVU206
	add	r3, r0, #13
	lsls	r3, r3, #5
	ldr	r2, [r5, r3]
	.loc 4 519 73 view .LVU207
	adds	r2, r2, #1
	str	r2, [r5, r3]
	.loc 4 519 79 is_stmt 1 view .LVU208
.LVL46:
	.loc 4 519 79 is_stmt 0 view .LVU209
.LBE314:
.LBE313:
	.loc 1 387 2 is_stmt 1 view .LVU210
.LBB315:
.LBI315:
	.loc 3 961 22 view .LVU211
.LBB316:
	.loc 3 963 2 view .LVU212
	.loc 3 963 9 is_stmt 0 view .LVU213
	ldr	r3, [r6, #8]
.LVL47:
.LBB317:
.LBI317:
	.loc 6 2465 22 is_stmt 1 view .LVU214
.LBB318:
	.loc 6 2467 2 view .LVU215
	.loc 6 2469 2 view .LVU216
	.loc 6 2467 9 is_stmt 0 view .LVU217
	movs	r2, #0
.LVL48:
.L23:
	.loc 6 2469 8 is_stmt 1 view .LVU218
	cbz	r3, .L26
	.loc 6 2470 3 view .LVU219
	.loc 6 2470 15 is_stmt 0 view .LVU220
	ldrh	r4, [r3, #12]
	.loc 6 2470 9 view .LVU221
	add	r2, r2, r4
.LVL49:
	.loc 6 2471 3 is_stmt 1 view .LVU222
	.loc 6 2471 7 is_stmt 0 view .LVU223
	ldr	r3, [r3]
.LVL50:
	.loc 6 2471 7 view .LVU224
	b	.L23
.L26:
	.loc 6 2474 2 is_stmt 1 view .LVU225
.LVL51:
	.loc 6 2474 2 is_stmt 0 view .LVU226
.LBE318:
.LBE317:
.LBE316:
.LBE315:
.LBB319:
.LBI319:
	.loc 4 522 20 is_stmt 1 view .LVU227
.LBB320:
	.loc 4 525 6 view .LVU228
	.loc 4 525 7 view .LVU229
	.loc 4 525 9 view .LVU230
	.loc 4 525 39 is_stmt 0 view .LVU231
	ldr	r1, .L27
	add	r4, r1, r0, lsl #5
	ldr	r3, [r4, #412]
	add	r3, r3, r2
	str	r3, [r4, #412]
	.loc 4 525 51 is_stmt 1 view .LVU232
	.loc 4 525 83 is_stmt 0 view .LVU233
	add	r3, r0, #13
	lsls	r4, r3, #5
	add	r5, r5, r3, lsl #5
.LVL52:
	.loc 4 525 83 view .LVU234
	ldr	r3, [r5, #4]
	add	r2, r2, r3
.LVL53:
	.loc 4 525 83 view .LVU235
	str	r2, [r5, #4]
	.loc 4 525 95 is_stmt 1 view .LVU236
.LVL54:
	.loc 4 525 95 is_stmt 0 view .LVU237
.LBE320:
.LBE319:
	.loc 1 388 2 is_stmt 1 view .LVU238
.LBB321:
.LBI321:
	.loc 4 528 20 view .LVU239
.LBB322:
	.loc 4 531 6 view .LVU240
	.loc 4 531 7 view .LVU241
	.loc 4 531 9 view .LVU242
	.loc 4 531 42 is_stmt 0 view .LVU243
	strb	r7, [r1, r4]
	.loc 4 531 56 is_stmt 1 view .LVU244
	.loc 4 531 91 is_stmt 0 view .LVU245
	strb	r7, [r5, #8]
	.loc 4 531 105 is_stmt 1 view .LVU246
.LVL55:
	.loc 4 531 105 is_stmt 0 view .LVU247
.LBE322:
.LBE321:
	.loc 1 392 2 is_stmt 1 view .LVU248
.LBB323:
	.loc 1 392 7 view .LVU249
.LBE323:
	.loc 1 392 142 view .LVU250
	.loc 1 395 2 view .LVU251
	.loc 1 398 3 view .LVU252
	mov	r1, r6
	bl	net_tc_submit_to_rx_queue
.LVL56:
	.loc 1 400 1 is_stmt 0 view .LVU253
	pop	{r3, r4, r5, r6, r7, pc}
.LVL57:
.L28:
	.loc 1 400 1 view .LVU254
	.align	2
.L27:
	.word	net_stats
	.cfi_endproc
.LFE966:
	.size	net_queue_rx, .-net_queue_rx
	.section	.text.net_post_init,"ax",%progbits
	.align	1
	.syntax unified
	.thumb
	.thumb_func
	.fpu fpv4-sp-d16
	.type	net_post_init, %function
net_post_init:
.LFB960:
	.loc 1 166 1 is_stmt 1 view -0
	.cfi_startproc
	@ args = 0, pretend = 0, frame = 0
	@ frame_needed = 0, uses_anonymous_args = 0
	push	{r3, lr}
	.cfi_def_cfa_offset 8
	.cfi_offset 3, -8
	.cfi_offset 14, -4
	.loc 1 168 2 view .LVU256
	bl	net_lldp_init
.LVL58:
	.loc 1 171 2 view .LVU257
	bl	net_gptp_init
.LVL59:
	.loc 1 173 1 is_stmt 0 view .LVU258
	pop	{r3, pc}
	.cfi_endproc
.LFE960:
	.size	net_post_init, .-net_post_init
	.section	.text.init_rx_queues,"ax",%progbits
	.align	1
	.syntax unified
	.thumb
	.thumb_func
	.fpu fpv4-sp-d16
	.type	init_rx_queues, %function
init_rx_queues:
.LFB961:
	.loc 1 176 1 is_stmt 1 view -0
	.cfi_startproc
	@ args = 0, pretend = 0, frame = 0
	@ frame_needed = 0, uses_anonymous_args = 0
	push	{r3, lr}
	.cfi_def_cfa_offset 8
	.cfi_offset 3, -8
	.cfi_offset 14, -4
	.loc 1 180 2 view .LVU260
	bl	net_if_init
.LVL60:
	.loc 1 182 2 view .LVU261
	bl	net_tc_rx_init
.LVL61:
	.loc 1 185 2 view .LVU262
	bl	net_if_post_init
.LVL62:
	.loc 1 188 2 view .LVU263
	bl	net_post_init
.LVL63:
	.loc 1 189 1 is_stmt 0 view .LVU264
	pop	{r3, pc}
	.cfi_endproc
.LFE961:
	.size	init_rx_queues, .-init_rx_queues
	.section	.text.net_init,"ax",%progbits
	.align	1
	.syntax unified
	.thumb
	.thumb_func
	.fpu fpv4-sp-d16
	.type	net_init, %function
net_init:
.LVL64:
.LFB970:
	.loc 1 481 1 is_stmt 1 view -0
	.cfi_startproc
	@ args = 0, pretend = 0, frame = 0
	@ frame_needed = 0, uses_anonymous_args = 0
	.loc 1 481 1 is_stmt 0 view .LVU266
	push	{r3, lr}
	.cfi_def_cfa_offset 8
	.cfi_offset 3, -8
	.cfi_offset 14, -4
	.loc 1 482 2 is_stmt 1 view .LVU267
	.file 7 "/home/sebin/thesis/zephyrproject/zephyr/include/net/hostname.h"
	.loc 7 55 1 view .LVU268
	.loc 1 484 2 view .LVU269
.LBB332:
	.loc 1 484 7 view .LVU270
.LBE332:
	.loc 1 484 117 view .LVU271
	.loc 1 486 2 view .LVU272
	bl	net_pkt_init
.LVL65:
	.loc 1 488 2 view .LVU273
	bl	net_context_init
.LVL66:
	.loc 1 490 2 view .LVU274
.LBB333:
.LBI333:
	.loc 1 439 20 view .LVU275
.LBB334:
	.loc 1 441 2 view .LVU276
	bl	net_icmpv4_init
.LVL67:
	.loc 1 442 2 view .LVU277
	bl	net_icmpv6_init
.LVL68:
	.loc 1 443 2 view .LVU278
	bl	net_ipv6_init
.LVL69:
	.loc 1 445 2 view .LVU279
	.loc 1 447 2 view .LVU280
	.loc 1 451 3 view .LVU281
	bl	net_conn_init
.LVL70:
	.loc 1 454 2 view .LVU282
	bl	net_tcp_init
.LVL71:
	.loc 1 456 2 view .LVU283
	bl	net_route_init
.LVL72:
	.loc 1 458 2 view .LVU284
.LBB335:
	.loc 1 458 7 view .LVU285
.LBE335:
	.loc 1 458 122 view .LVU286
.LBE334:
.LBE333:
	.loc 1 492 2 view .LVU287
	bl	net_mgmt_event_init
.LVL73:
	.loc 1 494 2 view .LVU288
	bl	init_rx_queues
.LVL74:
	.loc 1 496 2 view .LVU289
	.loc 1 463 2 view .LVU290
	.loc 1 465 2 view .LVU291
	.loc 1 466 2 view .LVU292
	.loc 1 470 2 view .LVU293
	.loc 1 471 2 view .LVU294
	.file 8 "/home/sebin/thesis/zephyrproject/zephyr/include/net/websocket.h"
	.loc 8 190 1 view .LVU295
	.loc 1 473 2 view .LVU296
	.file 9 "/home/sebin/thesis/zephyrproject/zephyr/subsys/net/ip/net_private.h"
	.loc 9 111 2 view .LVU297
	.loc 1 475 2 view .LVU298
	.file 10 "/home/sebin/thesis/zephyrproject/zephyr/subsys/net/ip/net_shell.h"
	.loc 10 21 2 view .LVU299
	.loc 1 477 2 view .LVU300
	.loc 1 497 1 is_stmt 0 view .LVU301
	movs	r0, #0
	pop	{r3, pc}
	.cfi_endproc
.LFE970:
	.size	net_init, .-net_init
	.section	.text.net_send_data,"ax",%progbits
	.align	1
	.global	net_send_data
	.syntax unified
	.thumb
	.thumb_func
	.fpu fpv4-sp-d16
	.type	net_send_data, %function
net_send_data:
.LVL75:
.LFB963:
	.loc 1 302 1 is_stmt 1 view -0
	.cfi_startproc
	@ args = 0, pretend = 0, frame = 16
	@ frame_needed = 0, uses_anonymous_args = 0
	.loc 1 303 2 view .LVU303
	.loc 1 305 2 view .LVU304
	.loc 1 305 5 is_stmt 0 view .LVU305
	cmp	r0, #0
	beq	.L53
	.loc 1 302 1 discriminator 1 view .LVU306
	push	{r4, r5, r6, lr}
	.cfi_def_cfa_offset 16
	.cfi_offset 4, -16
	.cfi_offset 5, -12
	.cfi_offset 6, -8
	.cfi_offset 14, -4
	sub	sp, sp, #16
	.cfi_def_cfa_offset 32
	mov	r4, r0
	.loc 1 305 18 discriminator 1 view .LVU307
	ldr	r3, [r0, #8]
	.loc 1 305 11 discriminator 1 view .LVU308
	cmp	r3, #0
	beq	.L54
	.loc 1 309 2 is_stmt 1 view .LVU309
.LVL76:
.LBB463:
.LBI463:
	.loc 3 293 30 view .LVU310
.LBB464:
	.loc 3 295 2 view .LVU311
	.loc 3 295 12 is_stmt 0 view .LVU312
	ldr	r2, [r0, #24]
.LVL77:
	.loc 3 295 12 view .LVU313
.LBE464:
.LBE463:
	.loc 1 309 5 view .LVU314
	cmp	r2, #0
	beq	.L55
	.loc 1 314 2 is_stmt 1 view .LVU315
.LVL78:
.LBB465:
.LBI465:
	.loc 3 329 23 view .LVU316
.LBB466:
	.loc 3 331 2 view .LVU317
	.loc 3 331 12 is_stmt 0 view .LVU318
	ldrb	r3, [r0, #75]	@ zero_extendqisi2
	ubfx	r3, r3, #1, #3
.LVL79:
	.loc 3 331 12 view .LVU319
.LBE466:
.LBE465:
	.loc 1 314 2 view .LVU320
	cmp	r3, #1
	beq	.L37
	cmp	r3, #2
	beq	.L38
.L39:
	.loc 1 324 2 is_stmt 1 view .LVU321
	mov	r0, r4
.LVL80:
	.loc 1 324 2 is_stmt 0 view .LVU322
	bl	net_pkt_trim_buffer
.LVL81:
	.loc 1 325 2 is_stmt 1 view .LVU323
	mov	r0, r4
	bl	net_pkt_cursor_init
.LVL82:
	.loc 1 327 2 view .LVU324
.LBB467:
.LBI467:
	.loc 1 198 19 view .LVU325
.LBB468:
	.loc 1 201 2 view .LVU326
.LBB469:
.LBI469:
	.loc 3 329 23 view .LVU327
.LBB470:
	.loc 3 331 2 view .LVU328
	.loc 3 331 12 is_stmt 0 view .LVU329
	ldrb	r3, [r4, #75]	@ zero_extendqisi2
	ubfx	r3, r3, #1, #3
.LVL83:
	.loc 3 331 12 view .LVU330
.LBE470:
.LBE469:
	.loc 1 201 5 view .LVU331
	cmp	r3, #2
	beq	.L79
	.loc 1 252 2 is_stmt 1 view .LVU332
.LVL84:
	.loc 1 252 2 is_stmt 0 view .LVU333
.LBE468:
.LBE467:
	.loc 3 331 2 is_stmt 1 view .LVU334
.LBB619:
.LBB600:
	.loc 1 252 5 is_stmt 0 view .LVU335
	cmp	r3, #1
	beq	.L80
	.loc 1 294 9 view .LVU336
	movs	r0, #0
.L41:
.LVL85:
	.loc 1 294 9 view .LVU337
.LBE600:
.LBE619:
	.loc 1 328 2 is_stmt 1 view .LVU338
	.loc 1 328 5 is_stmt 0 view .LVU339
	cmp	r0, #0
	blt	.L35
	.loc 1 330 9 is_stmt 1 view .LVU340
	.loc 1 330 12 is_stmt 0 view .LVU341
	bgt	.L81
	.loc 1 339 2 is_stmt 1 view .LVU342
.LVL86:
.LBB620:
.LBI620:
	.loc 3 293 30 view .LVU343
.LBB621:
	.loc 3 295 2 view .LVU344
	.loc 3 295 2 is_stmt 0 view .LVU345
.LBE621:
.LBE620:
	.loc 1 339 6 view .LVU346
	mov	r1, r4
	ldr	r0, [r4, #24]
.LVL87:
	.loc 1 339 6 view .LVU347
	bl	net_if_send_data
.LVL88:
	.loc 1 339 5 view .LVU348
	cmp	r0, #2
	beq	.L74
	.loc 1 343 9 view .LVU349
	movs	r0, #0
.L35:
	.loc 1 344 1 view .LVU350
	add	sp, sp, #16
	.cfi_remember_state
	.cfi_def_cfa_offset 16
	@ sp needed
	pop	{r4, r5, r6, pc}
.LVL89:
.L37:
	.cfi_restore_state
	.loc 1 316 3 is_stmt 1 view .LVU351
	.loc 3 295 2 view .LVU352
.LBB622:
.LBI622:
	.loc 4 124 20 view .LVU353
.LBB623:
	.loc 4 126 6 view .LVU354
	.loc 4 126 7 view .LVU355
	.loc 4 126 9 view .LVU356
	.loc 4 126 25 is_stmt 0 view .LVU357
	ldr	r1, .L85
	ldr	r3, [r1, #56]
	.loc 4 126 30 view .LVU358
	adds	r3, r3, #1
	str	r3, [r1, #56]
	.loc 4 126 36 is_stmt 1 view .LVU359
	.loc 4 126 54 is_stmt 0 view .LVU360
	ldr	r3, [r2, #64]
	.loc 4 126 59 view .LVU361
	adds	r3, r3, #1
	str	r3, [r2, #64]
	.loc 4 126 65 is_stmt 1 view .LVU362
	.loc 4 127 1 is_stmt 0 view .LVU363
	b	.L39
.LVL90:
.L38:
	.loc 4 127 1 view .LVU364
.LBE623:
.LBE622:
	.loc 1 319 3 is_stmt 1 view .LVU365
	.loc 3 295 2 view .LVU366
.LBB624:
.LBI624:
	.loc 4 73 20 view .LVU367
.LBB625:
	.loc 4 75 6 view .LVU368
	.loc 4 75 7 view .LVU369
	.loc 4 75 9 view .LVU370
	.loc 4 75 25 is_stmt 0 view .LVU371
	ldr	r1, .L85
	ldr	r3, [r1, #40]
	.loc 4 75 30 view .LVU372
	adds	r3, r3, #1
	str	r3, [r1, #40]
	.loc 4 75 36 is_stmt 1 view .LVU373
	.loc 4 75 54 is_stmt 0 view .LVU374
	ldr	r3, [r2, #48]
	.loc 4 75 59 view .LVU375
	adds	r3, r3, #1
	str	r3, [r2, #48]
	.loc 4 75 65 is_stmt 1 view .LVU376
	.loc 4 76 1 is_stmt 0 view .LVU377
	b	.L39
.LVL91:
.L79:
	.loc 4 76 1 view .LVU378
.LBE625:
.LBE624:
.LBB626:
.LBB601:
	.loc 1 202 3 is_stmt 1 view .LVU379
.LBB471:
.LBI471:
	.loc 3 971 24 view .LVU380
.LBB472:
	.loc 3 973 2 view .LVU381
	.loc 3 973 12 is_stmt 0 view .LVU382
	ldr	r3, [r4, #8]
	.loc 3 973 19 view .LVU383
	ldr	r5, [r3, #8]
.LVL92:
	.loc 3 973 19 view .LVU384
.LBE472:
.LBE471:
	.loc 1 202 44 view .LVU385
	adds	r5, r5, #24
	.loc 1 202 7 view .LVU386
	bl	net_ipv6_unspecified_address
.LVL93:
	mov	r1, r0
.LVL94:
.LBB473:
.LBI473:
	.file 11 "/home/sebin/thesis/zephyrproject/zephyr/include/net/net_ip.h"
	.loc 11 803 19 is_stmt 1 view .LVU387
.LBB474:
	.loc 11 806 2 view .LVU388
	.loc 11 806 10 is_stmt 0 view .LVU389
	movs	r2, #16
	mov	r0, r5
.LVL95:
	.loc 11 806 10 view .LVU390
	bl	memcmp
.LVL96:
	.loc 11 806 10 view .LVU391
.LBE474:
.LBE473:
	.loc 1 202 6 view .LVU392
	cmp	r0, #0
	beq	.L56
	.loc 1 211 3 is_stmt 1 view .LVU393
.LVL97:
.LBB475:
.LBI475:
	.loc 3 971 24 view .LVU394
.LBB476:
	.loc 3 973 2 view .LVU395
	.loc 3 973 12 is_stmt 0 view .LVU396
	ldr	r3, [r4, #8]
.LVL98:
	.loc 3 973 12 view .LVU397
.LBE476:
.LBE475:
	.loc 1 212 24 view .LVU398
	ldr	r0, [r3, #8]
.LVL99:
.LBB477:
.LBI477:
	.loc 11 589 19 is_stmt 1 view .LVU399
.LBB478:
	.loc 11 591 2 view .LVU400
.LBB479:
	.loc 11 591 26 view .LVU401
	.loc 11 591 153 view .LVU402
	.loc 11 591 156 is_stmt 0 view .LVU403
	ldr	r3, [r0, #24]!	@ unaligned
.LVL100:
	.loc 11 591 156 view .LVU404
.LBE479:
	.loc 11 593 165 view .LVU405
	cbnz	r3, .L57
.LBB480:
	.loc 11 592 20 is_stmt 1 view .LVU406
.LVL101:
	.loc 11 592 147 view .LVU407
	.loc 11 592 150 is_stmt 0 view .LVU408
	ldr	r3, [r0, #4]	@ unaligned
.LBE480:
	.loc 11 591 171 view .LVU409
	cbnz	r3, .L58
.LBB481:
	.loc 11 593 20 is_stmt 1 view .LVU410
.LVL102:
	.loc 11 593 147 view .LVU411
	.loc 11 593 150 is_stmt 0 view .LVU412
	ldr	r3, [r0, #8]	@ unaligned
.LBE481:
	.loc 11 592 165 view .LVU413
	cbnz	r3, .L59
.LBB482:
	.loc 11 594 36 is_stmt 1 view .LVU414
.LVL103:
	.loc 11 594 163 view .LVU415
	.loc 11 594 166 is_stmt 0 view .LVU416
	ldr	r2, [r0, #12]	@ unaligned
.LBE482:
.LBB483:
	.loc 11 594 214 is_stmt 1 view .LVU417
.LVL104:
	.loc 11 594 341 view .LVU418
.LBE483:
	.loc 11 594 355 is_stmt 0 view .LVU419
	lsrs	r3, r2, #8
	.loc 11 594 361 view .LVU420
	and	r3, r3, #65280
	.loc 11 594 192 view .LVU421
	orr	r3, r3, r2, lsr #24
.LBB484:
	.loc 11 594 393 is_stmt 1 view .LVU422
.LVL105:
	.loc 11 594 520 view .LVU423
.LBE484:
	.loc 11 594 544 is_stmt 0 view .LVU424
	lsls	r1, r2, #8
	and	r1, r1, #16711680
	.loc 11 594 371 view .LVU425
	orrs	r3, r3, r1
.LBB485:
	.loc 11 594 572 is_stmt 1 view .LVU426
.LVL106:
	.loc 11 594 699 view .LVU427
.LBE485:
	.loc 11 594 550 is_stmt 0 view .LVU428
	orr	r3, r3, r2, lsl #24
	.loc 11 593 165 view .LVU429
	cmp	r3, #1
	beq	.L60
	movs	r3, #0
	b	.L42
.LVL107:
.L57:
	.loc 11 593 165 view .LVU430
	movs	r3, #0
.L42:
.LVL108:
	.loc 11 593 165 view .LVU431
.LBE478:
.LBE477:
	.loc 1 211 6 view .LVU432
	cbnz	r3, .L43
.LVL109:
	.loc 1 211 6 view .LVU433
.LBE601:
.LBE626:
	.loc 3 973 2 is_stmt 1 view .LVU434
.LBB627:
.LBB602:
.LBB487:
.LBI487:
	.loc 11 622 19 view .LVU435
.LBB488:
	.loc 11 624 2 view .LVU436
	.loc 11 624 9 is_stmt 0 view .LVU437
	movs	r1, #0
	bl	net_if_ipv6_addr_lookup
.LVL110:
	.loc 11 624 9 view .LVU438
.LBE488:
.LBE487:
	.loc 1 212 76 view .LVU439
	cbz	r0, .L44
.L43:
.LBB489:
	.loc 1 215 4 is_stmt 1 view .LVU440
	.loc 1 220 4 view .LVU441
.LVL111:
.LBB490:
.LBI490:
	.loc 3 971 24 view .LVU442
.LBB491:
	.loc 3 973 2 view .LVU443
	.loc 3 973 12 is_stmt 0 view .LVU444
	ldr	r6, [r4, #8]
.LVL112:
	.loc 3 973 12 view .LVU445
.LBE491:
.LBE490:
	.loc 1 220 90 view .LVU446
	ldr	r3, [r6, #8]
.LVL113:
.LBB492:
.LBI492:
	.loc 11 760 20 is_stmt 1 view .LVU447
.LBB493:
	.loc 11 763 1 view .LVU448
	.loc 11 763 23 is_stmt 0 view .LVU449
	mov	r5, sp
	ldr	r0, [r3, #8]!	@ unaligned
.LVL114:
	.loc 11 763 23 view .LVU450
	ldr	r1, [r3, #4]	@ unaligned
	ldr	r2, [r3, #8]	@ unaligned
	ldr	r3, [r3, #12]	@ unaligned
.LVL115:
	.loc 11 763 23 view .LVU451
	stmia	r5!, {r0, r1, r2, r3}
.LVL116:
	.loc 11 763 23 view .LVU452
.LBE493:
.LBE492:
	.loc 1 221 4 is_stmt 1 view .LVU453
.LBB494:
.LBI494:
	.loc 3 971 24 view .LVU454
.LBB495:
	.loc 3 973 2 view .LVU455
	.loc 3 973 19 is_stmt 0 view .LVU456
	ldr	r3, [r6, #8]
.LVL117:
	.loc 3 973 19 view .LVU457
.LBE495:
.LBE494:
.LBE489:
.LBE602:
.LBE627:
	.loc 3 973 2 is_stmt 1 view .LVU458
.LBB628:
.LBB603:
.LBB506:
	.loc 1 222 58 is_stmt 0 view .LVU459
	mov	r2, r3
.LVL118:
.LBB496:
.LBI496:
	.loc 11 760 20 is_stmt 1 view .LVU460
.LBE496:
.LBE506:
.LBE603:
.LBE628:
	.loc 11 763 1 view .LVU461
.LBB629:
.LBB604:
.LBB507:
.LBB499:
.LBB497:
.LBI497:
	.file 12 "/home/sebin/LIOT/gcc-arm-none-eabi-9-2019-q4-major/arm-none-eabi/include/ssp/string.h"
	.loc 12 83 216 view .LVU462
.LBB498:
	.loc 12 83 292 view .LVU463
	.loc 12 83 299 is_stmt 0 view .LVU464
	ldr	r5, [r2, #24]!	@ unaligned
.LVL119:
	.loc 12 83 299 view .LVU465
	ldr	r0, [r2, #4]	@ unaligned
	ldr	r1, [r2, #8]	@ unaligned
	ldr	r2, [r2, #12]	@ unaligned
.LVL120:
	.loc 12 83 299 view .LVU466
	str	r5, [r3, #8]	@ unaligned
	str	r0, [r3, #12]	@ unaligned
	str	r1, [r3, #16]	@ unaligned
	str	r2, [r3, #20]	@ unaligned
.LVL121:
	.loc 12 83 299 view .LVU467
.LBE498:
.LBE497:
.LBE499:
	.loc 1 223 4 is_stmt 1 view .LVU468
.LBB500:
.LBI500:
	.loc 3 971 24 view .LVU469
.LBB501:
	.loc 3 973 2 view .LVU470
	.loc 3 973 12 is_stmt 0 view .LVU471
	ldr	r3, [r4, #8]
	.loc 3 973 19 view .LVU472
	ldr	r6, [r3, #8]
.LVL122:
	.loc 3 973 19 view .LVU473
.LBE501:
.LBE500:
.LBB502:
.LBI502:
	.loc 11 760 20 is_stmt 1 view .LVU474
.LBE502:
.LBE507:
.LBE604:
.LBE629:
	.loc 11 763 1 view .LVU475
.LBB630:
.LBB605:
.LBB508:
.LBB505:
.LBB503:
.LBI503:
	.loc 12 83 216 view .LVU476
.LBB504:
	.loc 12 83 292 view .LVU477
	.loc 12 83 299 is_stmt 0 view .LVU478
	mov	r5, sp
	ldmia	r5!, {r0, r1, r2, r3}
	str	r0, [r6, #24]	@ unaligned
	str	r1, [r6, #28]	@ unaligned
	str	r2, [r6, #32]	@ unaligned
	str	r3, [r6, #36]	@ unaligned
.LVL123:
	.loc 12 83 299 view .LVU479
.LBE504:
.LBE503:
.LBE505:
	.loc 1 225 4 is_stmt 1 view .LVU480
	.loc 1 225 11 is_stmt 0 view .LVU481
	movs	r0, #1
	b	.L41
.LVL124:
.L58:
	.loc 1 225 11 view .LVU482
.LBE508:
.LBB509:
.LBB486:
	.loc 11 593 165 view .LVU483
	movs	r3, #0
	b	.L42
.LVL125:
.L59:
	.loc 11 593 165 view .LVU484
	movs	r3, #0
	b	.L42
.LVL126:
.L60:
	.loc 11 593 165 view .LVU485
	movs	r3, #1
	b	.L42
.LVL127:
.L44:
	.loc 11 593 165 view .LVU486
.LBE486:
.LBE509:
	.loc 1 234 3 is_stmt 1 view .LVU487
.LBB510:
.LBI510:
	.loc 3 971 24 view .LVU488
.LBB511:
	.loc 3 973 2 view .LVU489
	.loc 3 973 12 is_stmt 0 view .LVU490
	ldr	r3, [r4, #8]
	.loc 3 973 19 view .LVU491
	ldr	r3, [r3, #8]
.LVL128:
	.loc 3 973 19 view .LVU492
.LBE511:
.LBE510:
.LBB512:
.LBI512:
	.loc 11 1029 19 is_stmt 1 view .LVU493
.LBE512:
.LBE605:
.LBE630:
	.loc 11 1031 2 view .LVU494
.LBB631:
.LBB606:
.LBB517:
.LBB513:
.LBI513:
	.loc 11 986 19 view .LVU495
.LBB514:
	.loc 11 989 2 view .LVU496
	.loc 11 989 23 is_stmt 0 view .LVU497
	ldrb	r2, [r3, #24]	@ zero_extendqisi2
	.loc 11 989 36 view .LVU498
	cmp	r2, #255
	beq	.L82
	movs	r2, #0
.L45:
.LVL129:
	.loc 11 989 36 view .LVU499
.LBE514:
.LBE513:
.LBE517:
	.loc 1 234 6 view .LVU500
	cmp	r2, #0
	bne	.L63
	.loc 1 243 3 is_stmt 1 view .LVU501
.LVL130:
	.loc 1 243 3 is_stmt 0 view .LVU502
.LBE606:
.LBE631:
	.loc 3 973 2 is_stmt 1 view .LVU503
.LBB632:
.LBB607:
.LBB518:
.LBI518:
	.loc 11 589 19 view .LVU504
.LBB519:
	.loc 11 591 2 view .LVU505
.LBB520:
	.loc 11 591 26 view .LVU506
	.loc 11 591 153 view .LVU507
	.loc 11 591 156 is_stmt 0 view .LVU508
	ldr	r2, [r3, #8]!	@ unaligned
.LVL131:
	.loc 11 591 156 view .LVU509
.LBE520:
	.loc 11 593 165 view .LVU510
	cbnz	r2, .L64
.LBB521:
	.loc 11 592 20 is_stmt 1 view .LVU511
.LVL132:
	.loc 11 592 147 view .LVU512
	.loc 11 592 150 is_stmt 0 view .LVU513
	ldr	r2, [r3, #4]	@ unaligned
.LBE521:
	.loc 11 591 171 view .LVU514
	cbnz	r2, .L65
.LBB522:
	.loc 11 593 20 is_stmt 1 view .LVU515
.LVL133:
	.loc 11 593 147 view .LVU516
	.loc 11 593 150 is_stmt 0 view .LVU517
	ldr	r2, [r3, #8]	@ unaligned
.LBE522:
	.loc 11 592 165 view .LVU518
	cbnz	r2, .L66
.LBB523:
	.loc 11 594 36 is_stmt 1 view .LVU519
.LVL134:
	.loc 11 594 163 view .LVU520
	.loc 11 594 166 is_stmt 0 view .LVU521
	ldr	r2, [r3, #12]	@ unaligned
.LBE523:
.LBB524:
	.loc 11 594 214 is_stmt 1 view .LVU522
.LVL135:
	.loc 11 594 341 view .LVU523
.LBE524:
	.loc 11 594 355 is_stmt 0 view .LVU524
	lsrs	r3, r2, #8
.LVL136:
	.loc 11 594 361 view .LVU525
	and	r3, r3, #65280
	.loc 11 594 192 view .LVU526
	orr	r3, r3, r2, lsr #24
.LBB525:
	.loc 11 594 393 is_stmt 1 view .LVU527
.LVL137:
	.loc 11 594 520 view .LVU528
.LBE525:
	.loc 11 594 544 is_stmt 0 view .LVU529
	lsls	r1, r2, #8
	and	r1, r1, #16711680
	.loc 11 594 371 view .LVU530
	orrs	r3, r3, r1
.LBB526:
	.loc 11 594 572 is_stmt 1 view .LVU531
.LVL138:
	.loc 11 594 699 view .LVU532
.LBE526:
	.loc 11 594 550 is_stmt 0 view .LVU533
	orr	r3, r3, r2, lsl #24
	.loc 11 593 165 view .LVU534
	cmp	r3, #1
	beq	.L67
	movs	r3, #0
	b	.L46
.LVL139:
.L82:
	.loc 11 593 165 view .LVU535
.LBE519:
.LBE518:
.LBB529:
.LBB516:
.LBB515:
	.loc 11 989 53 view .LVU536
	ldrb	r2, [r3, #25]	@ zero_extendqisi2
	.loc 11 989 36 view .LVU537
	cmp	r2, #1
	beq	.L62
	movs	r2, #0
	b	.L45
.L62:
	movs	r2, #1
	b	.L45
.LVL140:
.L64:
	.loc 11 989 36 view .LVU538
.LBE515:
.LBE516:
.LBE529:
.LBB530:
.LBB527:
	.loc 11 593 165 view .LVU539
	movs	r3, #0
.LVL141:
.L46:
	.loc 11 593 165 view .LVU540
.LBE527:
.LBE530:
	.loc 1 243 6 view .LVU541
	cmp	r3, #0
	bne	.L68
	.loc 1 294 9 view .LVU542
	movs	r0, #0
	b	.L41
.LVL142:
.L65:
.LBB531:
.LBB528:
	.loc 11 593 165 view .LVU543
	movs	r3, #0
.LVL143:
	.loc 11 593 165 view .LVU544
	b	.L46
.LVL144:
.L66:
	.loc 11 593 165 view .LVU545
	movs	r3, #0
.LVL145:
	.loc 11 593 165 view .LVU546
	b	.L46
.LVL146:
.L67:
	.loc 11 593 165 view .LVU547
	movs	r3, #1
	b	.L46
.LVL147:
.L80:
	.loc 11 593 165 view .LVU548
.LBE528:
.LBE531:
	.loc 1 253 3 is_stmt 1 view .LVU549
.LBB532:
.LBI532:
	.loc 3 971 24 view .LVU550
.LBB533:
	.loc 3 973 2 view .LVU551
	.loc 3 973 12 is_stmt 0 view .LVU552
	ldr	r3, [r4, #8]
	.loc 3 973 19 view .LVU553
	ldr	r5, [r3, #8]
.LVL148:
	.loc 3 973 19 view .LVU554
.LBE533:
.LBE532:
	.loc 1 253 7 view .LVU555
	bl	net_ipv4_unspecified_address
.LVL149:
.LBB534:
.LBI534:
	.loc 11 774 19 is_stmt 1 view .LVU556
.LBE534:
.LBE607:
.LBE632:
	.loc 11 777 2 view .LVU557
.LBB633:
.LBB608:
.LBB537:
.LBB535:
	.loc 11 777 26 view .LVU558
	.loc 11 777 143 view .LVU559
	.loc 11 777 146 is_stmt 0 view .LVU560
	ldr	r2, [r5, #16]	@ unaligned
.LBE535:
.LBB536:
	.loc 11 777 176 is_stmt 1 view .LVU561
.LVL150:
	.loc 11 777 293 view .LVU562
	.loc 11 777 296 is_stmt 0 view .LVU563
	ldr	r3, [r0]	@ unaligned
.LVL151:
	.loc 11 777 296 view .LVU564
.LBE536:
.LBE537:
	.loc 1 253 6 view .LVU565
	cmp	r2, r3
	beq	.L70
	.loc 1 262 3 is_stmt 1 view .LVU566
.LVL152:
.LBB538:
.LBI538:
	.loc 3 971 24 view .LVU567
.LBB539:
	.loc 3 973 2 view .LVU568
	.loc 3 973 12 is_stmt 0 view .LVU569
	ldr	r3, [r4, #8]
	.loc 3 973 19 view .LVU570
	ldr	r5, [r3, #8]
.LVL153:
	.loc 3 973 19 view .LVU571
.LBE539:
.LBE538:
.LBB540:
.LBI540:
	.loc 11 689 19 is_stmt 1 view .LVU572
.LBB541:
	.loc 11 691 2 view .LVU573
	.loc 11 691 22 is_stmt 0 view .LVU574
	ldrb	r3, [r5, #16]	@ zero_extendqisi2
.LVL154:
	.loc 11 691 22 view .LVU575
.LBE541:
.LBE540:
	.loc 1 262 6 view .LVU576
	cmp	r3, #127
	beq	.L47
.LVL155:
.LBB542:
.LBI542:
	.loc 3 293 30 is_stmt 1 view .LVU577
.LBB543:
	.loc 3 295 2 view .LVU578
	.loc 3 295 12 is_stmt 0 view .LVU579
	ldr	r6, [r4, #24]
.LVL156:
	.loc 3 295 12 view .LVU580
.LBE543:
.LBE542:
.LBE608:
.LBE633:
	.loc 3 973 2 is_stmt 1 view .LVU581
.LBB634:
.LBB609:
.LBB544:
.LBI544:
	.loc 11 900 19 view .LVU582
.LBB545:
	.loc 11 903 2 view .LVU583
	.loc 11 903 6 is_stmt 0 view .LVU584
	bl	net_ipv4_broadcast_address
.LVL157:
.LBB546:
.LBI546:
	.loc 11 774 19 is_stmt 1 view .LVU585
.LBE546:
.LBE545:
.LBE544:
.LBE609:
.LBE634:
	.loc 11 777 2 view .LVU586
.LBB635:
.LBB610:
.LBB552:
.LBB550:
.LBB549:
.LBB547:
	.loc 11 777 26 view .LVU587
	.loc 11 777 143 view .LVU588
	.loc 11 777 146 is_stmt 0 view .LVU589
	ldr	r2, [r5, #16]!	@ unaligned
.LVL158:
	.loc 11 777 146 view .LVU590
.LBE547:
.LBB548:
	.loc 11 777 176 is_stmt 1 view .LVU591
	.loc 11 777 293 view .LVU592
	.loc 11 777 296 is_stmt 0 view .LVU593
	ldr	r3, [r0]	@ unaligned
.LVL159:
	.loc 11 777 296 view .LVU594
.LBE548:
.LBE549:
	.loc 11 903 5 view .LVU595
	cmp	r2, r3
	beq	.L71
	.loc 11 907 2 is_stmt 1 view .LVU596
	.loc 11 907 9 is_stmt 0 view .LVU597
	mov	r1, r5
	mov	r0, r6
.LVL160:
	.loc 11 907 9 view .LVU598
	bl	net_if_ipv4_is_addr_bcast
.LVL161:
.L48:
	.loc 11 907 9 view .LVU599
.LBE550:
.LBE552:
	.loc 1 262 103 view .LVU600
	cbz	r0, .L83
.LVL162:
.L49:
	.loc 1 283 3 is_stmt 1 view .LVU601
.LBB553:
.LBI553:
	.loc 3 971 24 view .LVU602
.LBB554:
	.loc 3 973 2 view .LVU603
	.loc 3 973 12 is_stmt 0 view .LVU604
	ldr	r3, [r4, #8]
	.loc 3 973 19 view .LVU605
	ldr	r3, [r3, #8]
.LVL163:
	.loc 3 973 19 view .LVU606
.LBE554:
.LBE553:
.LBB555:
.LBI555:
	.loc 11 689 19 is_stmt 1 view .LVU607
.LBB556:
	.loc 11 691 2 view .LVU608
	.loc 11 691 22 is_stmt 0 view .LVU609
	ldrb	r3, [r3, #12]	@ zero_extendqisi2
.LVL164:
	.loc 11 691 22 view .LVU610
.LBE556:
.LBE555:
	.loc 1 283 6 view .LVU611
	cmp	r3, #127
	beq	.L73
	.loc 1 294 9 view .LVU612
	movs	r0, #0
	b	.L41
.LVL165:
.L71:
.LBB557:
.LBB551:
	.loc 11 904 9 view .LVU613
	movs	r0, #1
.LVL166:
	.loc 11 904 9 view .LVU614
	b	.L48
.LVL167:
.L83:
	.loc 11 904 9 view .LVU615
.LBE551:
.LBE557:
.LBB558:
.LBI558:
	.loc 3 971 24 is_stmt 1 view .LVU616
.LBB559:
	.loc 3 973 2 view .LVU617
	.loc 3 973 12 is_stmt 0 view .LVU618
	ldr	r3, [r4, #8]
	.loc 3 973 19 view .LVU619
	ldr	r5, [r3, #8]
.LVL168:
	.loc 3 973 19 view .LVU620
.LBE559:
.LBE558:
	.loc 1 265 46 view .LVU621
	adds	r5, r5, #16
.LVL169:
.LBB560:
.LBI560:
	.loc 11 932 19 is_stmt 1 view .LVU622
.LBB561:
	.loc 11 934 1 view .LVU623
	.loc 11 936 2 view .LVU624
	.loc 11 936 8 is_stmt 0 view .LVU625
	movs	r1, #0
	mov	r0, r5
	bl	net_if_ipv4_addr_lookup
.LVL170:
	.loc 11 936 6 view .LVU626
	cmp	r0, #0
	ite	ne
	movne	r0, #1
	moveq	r0, #0
.LVL171:
	.loc 11 937 2 is_stmt 1 view .LVU627
	.loc 11 937 5 is_stmt 0 view .LVU628
	beq	.L84
.LVL172:
.L50:
	.loc 11 941 2 is_stmt 1 view .LVU629
	.loc 11 941 2 is_stmt 0 view .LVU630
.LBE561:
.LBE560:
	.loc 1 264 60 view .LVU631
	cmp	r0, #0
	beq	.L49
.L47:
.LBB572:
	.loc 1 266 4 is_stmt 1 view .LVU632
	.loc 1 271 4 view .LVU633
.LVL173:
.LBB573:
.LBI573:
	.loc 3 971 24 view .LVU634
.LBB574:
	.loc 3 973 2 view .LVU635
	.loc 3 973 12 is_stmt 0 view .LVU636
	ldr	r3, [r4, #8]
	.loc 3 973 19 view .LVU637
	ldr	r3, [r3, #8]
.LVL174:
	.loc 3 973 19 view .LVU638
.LBE574:
.LBE573:
.LBB575:
.LBI575:
	.loc 11 748 20 is_stmt 1 view .LVU639
.LBE575:
.LBE572:
.LBE610:
.LBE635:
	.loc 11 751 2 view .LVU640
.LBB636:
.LBB611:
.LBB591:
.LBB578:
.LBB576:
	.loc 11 751 7 view .LVU641
	.loc 11 751 138 view .LVU642
.LBB577:
	.loc 11 751 167 view .LVU643
	.loc 11 751 310 view .LVU644
	.loc 11 751 313 is_stmt 0 view .LVU645
	ldr	r2, [r3, #12]	@ unaligned
.LBE577:
	.loc 11 751 325 is_stmt 1 view .LVU646
	.loc 11 751 330 view .LVU647
	.loc 11 751 378 view .LVU648
.LBE576:
.LBE578:
.LBE591:
.LBE611:
.LBE636:
	.loc 11 751 12 view .LVU649
.LVL175:
.LBB637:
.LBB612:
.LBB592:
	.loc 1 272 4 view .LVU650
.LBB579:
.LBI579:
	.loc 3 971 24 view .LVU651
.LBB580:
	.loc 3 973 2 view .LVU652
	.loc 3 973 12 is_stmt 0 view .LVU653
	ldr	r3, [r4, #8]
.LVL176:
	.loc 3 973 19 view .LVU654
	ldr	r3, [r3, #8]
.LVL177:
	.loc 3 973 19 view .LVU655
.LBE580:
.LBE579:
.LBE592:
.LBE612:
.LBE637:
	.loc 3 973 2 is_stmt 1 view .LVU656
.LBB638:
.LBB613:
.LBB593:
.LBB581:
.LBI581:
	.loc 11 748 20 view .LVU657
.LBE581:
.LBE593:
.LBE613:
.LBE638:
	.loc 11 751 2 view .LVU658
.LBB639:
.LBB614:
.LBB594:
.LBB584:
.LBB582:
	.loc 11 751 7 view .LVU659
	.loc 11 751 138 view .LVU660
.LBB583:
	.loc 11 751 167 view .LVU661
	.loc 11 751 310 view .LVU662
	.loc 11 751 313 is_stmt 0 view .LVU663
	ldr	r1, [r3, #16]	@ unaligned
.LBE583:
	.loc 11 751 147 view .LVU664
	str	r1, [r3, #12]	@ unaligned
.LVL178:
	.loc 11 751 325 is_stmt 1 view .LVU665
	.loc 11 751 330 view .LVU666
	.loc 11 751 378 view .LVU667
.LBE582:
.LBE584:
.LBE594:
.LBE614:
.LBE639:
	.loc 11 751 12 view .LVU668
.LVL179:
.LBB640:
.LBB615:
.LBB595:
	.loc 1 274 4 view .LVU669
.LBB585:
.LBI585:
	.loc 3 971 24 view .LVU670
.LBB586:
	.loc 3 973 2 view .LVU671
	.loc 3 973 12 is_stmt 0 view .LVU672
	ldr	r3, [r4, #8]
.LVL180:
	.loc 3 973 19 view .LVU673
	ldr	r3, [r3, #8]
.LVL181:
	.loc 3 973 19 view .LVU674
.LBE586:
.LBE585:
.LBB587:
.LBI587:
	.loc 11 748 20 is_stmt 1 view .LVU675
.LBE587:
.LBE595:
.LBE615:
.LBE640:
	.loc 11 751 2 view .LVU676
.LBB641:
.LBB616:
.LBB596:
.LBB590:
.LBB588:
	.loc 11 751 7 view .LVU677
	.loc 11 751 138 view .LVU678
.LBB589:
	.loc 11 751 167 view .LVU679
	.loc 11 751 310 view .LVU680
.LBE589:
	.loc 11 751 147 is_stmt 0 view .LVU681
	str	r2, [r3, #16]	@ unaligned
	.loc 11 751 325 is_stmt 1 view .LVU682
	.loc 11 751 330 view .LVU683
	.loc 11 751 378 view .LVU684
.LBE588:
.LBE590:
.LBE596:
.LBE616:
.LBE641:
	.loc 11 751 12 view .LVU685
.LVL182:
.LBB642:
.LBB617:
.LBB597:
	.loc 1 276 4 view .LVU686
	.loc 1 276 11 is_stmt 0 view .LVU687
	movs	r0, #1
	b	.L41
.LVL183:
.L84:
	.loc 1 276 11 view .LVU688
.LBE597:
.LBB598:
.LBB570:
	.loc 11 938 3 is_stmt 1 view .LVU689
.LBB562:
.LBI562:
	.loc 11 900 19 view .LVU690
.LBB563:
	.loc 11 903 2 view .LVU691
	.loc 11 903 6 is_stmt 0 view .LVU692
	bl	net_ipv4_broadcast_address
.LVL184:
.LBB564:
.LBI564:
	.loc 11 774 19 is_stmt 1 view .LVU693
.LBE564:
.LBE563:
.LBE562:
.LBE570:
.LBE598:
.LBE617:
.LBE642:
	.loc 11 777 2 view .LVU694
.LBB643:
.LBB618:
.LBB599:
.LBB571:
.LBB569:
.LBB568:
.LBB567:
.LBB565:
	.loc 11 777 26 view .LVU695
	.loc 11 777 143 view .LVU696
	.loc 11 777 146 is_stmt 0 view .LVU697
	ldr	r2, [r5]	@ unaligned
.LBE565:
.LBB566:
	.loc 11 777 176 is_stmt 1 view .LVU698
.LVL185:
	.loc 11 777 293 view .LVU699
	.loc 11 777 296 is_stmt 0 view .LVU700
	ldr	r3, [r0]	@ unaligned
.LVL186:
	.loc 11 777 296 view .LVU701
.LBE566:
.LBE567:
	.loc 11 903 5 view .LVU702
	cmp	r2, r3
	beq	.L72
	.loc 11 907 2 is_stmt 1 view .LVU703
	.loc 11 907 9 is_stmt 0 view .LVU704
	mov	r1, r5
	movs	r0, #0
.LVL187:
	.loc 11 907 9 view .LVU705
	bl	net_if_ipv4_is_addr_bcast
.LVL188:
	b	.L50
.LVL189:
.L72:
	.loc 11 904 9 view .LVU706
	movs	r0, #1
.LVL190:
	.loc 11 904 9 view .LVU707
	b	.L50
.LVL191:
.L56:
	.loc 11 904 9 view .LVU708
.LBE568:
.LBE569:
.LBE571:
.LBE599:
	.loc 1 205 11 view .LVU709
	mvn	r0, #124
	b	.L41
.L63:
	.loc 1 237 11 view .LVU710
	movs	r0, #1
	b	.L41
.LVL192:
.L68:
	.loc 1 246 11 view .LVU711
	mvn	r0, #124
	b	.L41
.LVL193:
.L70:
	.loc 1 256 11 view .LVU712
	mvn	r0, #124
.LVL194:
	.loc 1 256 11 view .LVU713
	b	.L41
.LVL195:
.L73:
	.loc 1 285 11 view .LVU714
	mvn	r0, #124
	b	.L41
.LVL196:
.L81:
	.loc 1 285 11 view .LVU715
.LBE618:
.LBE643:
	.loc 1 334 3 is_stmt 1 view .LVU716
.LBB644:
	.loc 1 334 8 view .LVU717
.LBE644:
	.loc 1 334 134 view .LVU718
	.loc 1 335 3 view .LVU719
	movs	r1, #1
	mov	r0, r4
.LVL197:
	.loc 1 335 3 is_stmt 0 view .LVU720
	bl	processing_data
.LVL198:
	.loc 1 336 3 is_stmt 1 view .LVU721
	.loc 1 336 10 is_stmt 0 view .LVU722
	movs	r0, #0
	b	.L35
.LVL199:
.L53:
	.cfi_def_cfa_offset 0
	.cfi_restore 4
	.cfi_restore 5
	.cfi_restore 6
	.cfi_restore 14
	.loc 1 306 10 view .LVU723
	mvn	r0, #60
.LVL200:
	.loc 1 344 1 view .LVU724
	bx	lr
.LVL201:
.L54:
	.cfi_def_cfa_offset 32
	.cfi_offset 4, -16
	.cfi_offset 5, -12
	.cfi_offset 6, -8
	.cfi_offset 14, -4
	.loc 1 306 10 view .LVU725
	mvn	r0, #60
.LVL202:
	.loc 1 306 10 view .LVU726
	b	.L35
.LVL203:
.L55:
	.loc 1 310 10 view .LVU727
	mvn	r0, #21
.LVL204:
	.loc 1 310 10 view .LVU728
	b	.L35
.L74:
	.loc 1 340 10 view .LVU729
	mvn	r0, #4
	b	.L35
.L86:
	.align	2
.L85:
	.word	net_stats
	.cfi_endproc
.LFE963:
	.size	net_send_data, .-net_send_data
	.section	.text.net_process_rx_packet,"ax",%progbits
	.align	1
	.global	net_process_rx_packet
	.syntax unified
	.thumb
	.thumb_func
	.fpu fpv4-sp-d16
	.type	net_process_rx_packet, %function
net_process_rx_packet:
.LVL205:
.LFB965:
	.loc 1 372 1 is_stmt 1 view -0
	.cfi_startproc
	@ args = 0, pretend = 0, frame = 0
	@ frame_needed = 0, uses_anonymous_args = 0
	.loc 1 372 1 is_stmt 0 view .LVU731
	push	{r3, lr}
	.cfi_def_cfa_offset 8
	.cfi_offset 3, -8
	.cfi_offset 14, -4
	mov	r1, r0
	.loc 1 373 2 is_stmt 1 view .LVU732
	.loc 1 375 2 view .LVU733
.LVL206:
.LBB645:
.LBI645:
	.loc 3 293 30 view .LVU734
.LBB646:
	.loc 3 295 2 view .LVU735
	.loc 3 295 2 is_stmt 0 view .LVU736
.LBE646:
.LBE645:
	.file 13 "/home/sebin/thesis/zephyrproject/zephyr/include/net/capture.h"
	.loc 13 210 2 is_stmt 1 view .LVU737
	.loc 13 211 2 view .LVU738
	.loc 1 377 2 view .LVU739
	.loc 3 295 2 view .LVU740
	.loc 1 377 2 is_stmt 0 view .LVU741
	ldr	r0, [r0, #24]
.LVL207:
	.loc 1 377 2 view .LVU742
	bl	net_rx
.LVL208:
	.loc 1 378 1 view .LVU743
	pop	{r3, pc}
	.cfi_endproc
.LFE965:
	.size	net_process_rx_packet, .-net_process_rx_packet
	.section	.text.net_recv_data,"ax",%progbits
	.align	1
	.global	net_recv_data
	.syntax unified
	.thumb
	.thumb_func
	.fpu fpv4-sp-d16
	.type	net_recv_data, %function
net_recv_data:
.LVL209:
.LFB967:
	.loc 1 404 1 is_stmt 1 view -0
	.cfi_startproc
	@ args = 0, pretend = 0, frame = 0
	@ frame_needed = 0, uses_anonymous_args = 0
	.loc 1 405 2 view .LVU745
	.loc 1 405 5 is_stmt 0 view .LVU746
	cbz	r1, .L92
	.loc 1 404 1 discriminator 1 view .LVU747
	push	{r3, r4, r5, lr}
	.cfi_def_cfa_offset 16
	.cfi_offset 3, -16
	.cfi_offset 4, -12
	.cfi_offset 5, -8
	.cfi_offset 14, -4
	mov	r4, r0
	mov	r5, r1
	.loc 1 405 11 discriminator 1 view .LVU748
	cbz	r0, .L93
	.loc 1 409 2 is_stmt 1 view .LVU749
.LVL210:
.LBB647:
.LBI647:
	.loc 3 976 19 view .LVU750
.LBB648:
	.loc 3 978 2 view .LVU751
	.loc 3 978 13 is_stmt 0 view .LVU752
	ldr	r3, [r1, #8]
	.loc 3 978 44 view .LVU753
	cbz	r3, .L94
.LVL211:
.LBB649:
.LBI649:
	.loc 3 966 24 is_stmt 1 view .LVU754
.LBB650:
	.loc 3 968 2 view .LVU755
	.loc 3 968 19 is_stmt 0 view .LVU756
	ldr	r2, [r3, #8]
.LVL212:
	.loc 3 968 19 view .LVU757
.LBE650:
.LBE649:
	.loc 3 978 22 view .LVU758
	cbz	r2, .L95
	.loc 3 978 58 view .LVU759
	ldrh	r3, [r3, #12]
	.loc 3 978 44 view .LVU760
	cbz	r3, .L96
	movs	r3, #0
	b	.L91
.L94:
	movs	r3, #1
.L91:
.LVL213:
	.loc 3 978 44 view .LVU761
.LBE648:
.LBE647:
	.loc 1 409 5 view .LVU762
	cbnz	r3, .L97
	.loc 1 413 2 is_stmt 1 view .LVU763
.LVL214:
.LBB652:
.LBI652:
	.file 14 "/home/sebin/thesis/zephyrproject/zephyr/include/net/net_if.h"
	.loc 14 541 19 view .LVU764
.LBB653:
	.loc 14 544 2 view .LVU765
	.loc 14 548 2 view .LVU766
	.loc 14 548 30 is_stmt 0 view .LVU767
	ldr	r3, [r4]
.LVL215:
.LBB654:
.LBI654:
	.file 15 "/home/sebin/thesis/zephyrproject/zephyr/include/sys/atomic.h"
	.loc 15 128 19 is_stmt 1 view .LVU768
.LBB655:
	.loc 15 130 2 view .LVU769
.LBB656:
.LBI656:
	.file 16 "/home/sebin/thesis/zephyrproject/zephyr/include/sys/atomic_builtin.h"
	.loc 16 138 28 view .LVU770
.LBB657:
	.loc 16 140 2 view .LVU771
	.loc 16 140 9 is_stmt 0 view .LVU772
	dmb	ish
	ldr	r3, [r3, #12]
.LVL216:
	.loc 16 140 9 view .LVU773
	dmb	ish
.LVL217:
	.loc 16 140 9 view .LVU774
.LBE657:
.LBE656:
	.loc 15 132 2 is_stmt 1 view .LVU775
	.loc 15 132 2 is_stmt 0 view .LVU776
.LBE655:
.LBE654:
.LBE653:
.LBE652:
	.loc 1 413 5 view .LVU777
	tst	r3, #1
	beq	.L98
	.loc 1 417 2 is_stmt 1 view .LVU778
.LVL218:
.LBB658:
.LBI658:
	.loc 3 1205 20 view .LVU779
.LBB659:
	.loc 3 1207 2 view .LVU780
	.loc 3 1207 17 is_stmt 0 view .LVU781
	ldrb	r3, [r5, #73]	@ zero_extendqisi2
.LVL219:
	.loc 3 1207 17 view .LVU782
	orr	r3, r3, #1
	strb	r3, [r5, #73]
.LVL220:
	.loc 3 1207 17 view .LVU783
.LBE659:
.LBE658:
	.loc 1 418 2 is_stmt 1 view .LVU784
	mov	r0, r5
.LVL221:
	.loc 1 418 2 is_stmt 0 view .LVU785
	bl	net_pkt_cursor_init
.LVL222:
	.loc 1 420 2 is_stmt 1 view .LVU786
.LBB660:
	.loc 1 420 7 view .LVU787
.LBE660:
	.loc 1 420 190 view .LVU788
	.loc 1 423 2 view .LVU789
	.loc 1 427 2 view .LVU790
.LBB661:
.LBI661:
	.loc 3 298 20 view .LVU791
.LBB662:
	.loc 3 300 2 view .LVU792
	.loc 3 300 13 is_stmt 0 view .LVU793
	str	r4, [r5, #24]
	.loc 3 306 2 is_stmt 1 view .LVU794
	.loc 3 307 3 view .LVU795
.LVL223:
.LBB663:
.LBI663:
	.loc 14 680 36 view .LVU796
.LBB664:
	.loc 14 682 2 view .LVU797
	.loc 14 682 15 is_stmt 0 view .LVU798
	ldr	r3, [r4]
.LVL224:
	.loc 14 682 15 view .LVU799
.LBE664:
.LBE663:
	.loc 3 307 53 view .LVU800
	ldrb	r3, [r3, #21]	@ zero_extendqisi2
	.loc 3 307 24 view .LVU801
	strb	r3, [r5, #57]
	.loc 3 308 3 is_stmt 1 view .LVU802
.LVL225:
.LBB665:
.LBI665:
	.loc 14 680 36 view .LVU803
.LBB666:
	.loc 14 682 2 view .LVU804
	.loc 14 682 15 is_stmt 0 view .LVU805
	ldr	r3, [r4]
.LVL226:
	.loc 14 682 15 view .LVU806
.LBE666:
.LBE665:
	.loc 3 308 53 view .LVU807
	ldrb	r3, [r3, #21]	@ zero_extendqisi2
	.loc 3 308 24 view .LVU808
	strb	r3, [r5, #65]
.LVL227:
	.loc 3 308 24 view .LVU809
.LBE662:
.LBE661:
	.loc 1 429 2 is_stmt 1 view .LVU810
	.loc 3 1231 2 view .LVU811
	.loc 3 1233 2 view .LVU812
	.loc 1 433 3 view .LVU813
	mov	r1, r5
	mov	r0, r4
	bl	net_queue_rx
.LVL228:
	.loc 1 436 2 view .LVU814
	.loc 1 436 9 is_stmt 0 view .LVU815
	movs	r0, #0
.L89:
	.loc 1 437 1 view .LVU816
	pop	{r3, r4, r5, pc}
.LVL229:
.L95:
.LBB667:
.LBB651:
	.loc 3 978 44 view .LVU817
	movs	r3, #1
	b	.L91
.L96:
	movs	r3, #1
	b	.L91
.LVL230:
.L92:
	.cfi_def_cfa_offset 0
	.cfi_restore 3
	.cfi_restore 4
	.cfi_restore 5
	.cfi_restore 14
	.loc 3 978 44 view .LVU818
.LBE651:
.LBE667:
	.loc 1 406 10 view .LVU819
	mvn	r0, #21
.LVL231:
	.loc 1 437 1 view .LVU820
	bx	lr
.LVL232:
.L93:
	.cfi_def_cfa_offset 16
	.cfi_offset 3, -16
	.cfi_offset 4, -12
	.cfi_offset 5, -8
	.cfi_offset 14, -4
	.loc 1 406 10 view .LVU821
	mvn	r0, #21
.LVL233:
	.loc 1 406 10 view .LVU822
	b	.L89
.LVL234:
.L97:
	.loc 1 410 10 view .LVU823
	mvn	r0, #60
.LVL235:
	.loc 1 410 10 view .LVU824
	b	.L89
.LVL236:
.L98:
	.loc 1 414 10 view .LVU825
	mvn	r0, #114
.LVL237:
	.loc 1 414 10 view .LVU826
	b	.L89
	.cfi_endproc
.LFE967:
	.size	net_recv_data, .-net_recv_data
	.global	log_const_net_core
	.section	.rodata.str1.4,"aMS",%progbits,1
	.align	2
.LC0:
	.ascii	"net_core\000"
	.section	.log_const_net_core,"a"
	.align	2
	.type	log_const_net_core, %object
	.size	log_const_net_core, 8
log_const_net_core:
	.word	.LC0
	.byte	3
	.space	3
	.section	.z_init_POST_KERNEL90_,"a"
	.align	2
	.type	__init_sys_init_net_init0, %object
	.size	__init_sys_init_net_init0, 8
__init_sys_init_net_init0:
	.word	net_init
	.word	0
	.text
.Letext0:
	.file 17 "/home/sebin/LIOT/gcc-arm-none-eabi-9-2019-q4-major/lib/gcc/arm-none-eabi/9.2.1/include/stddef.h"
	.file 18 "/home/sebin/LIOT/gcc-arm-none-eabi-9-2019-q4-major/arm-none-eabi/include/machine/_default_types.h"
	.file 19 "/home/sebin/LIOT/gcc-arm-none-eabi-9-2019-q4-major/arm-none-eabi/include/sys/_stdint.h"
	.file 20 "/home/sebin/thesis/zephyrproject/zephyr/include/logging/log_instance.h"
	.file 21 "/home/sebin/LIOT/gcc-arm-none-eabi-9-2019-q4-major/arm-none-eabi/include/sys/lock.h"
	.file 22 "/home/sebin/LIOT/gcc-arm-none-eabi-9-2019-q4-major/arm-none-eabi/include/sys/_types.h"
	.file 23 "/home/sebin/LIOT/gcc-arm-none-eabi-9-2019-q4-major/arm-none-eabi/include/sys/reent.h"
	.file 24 "/home/sebin/LIOT/gcc-arm-none-eabi-9-2019-q4-major/arm-none-eabi/include/sys/errno.h"
	.file 25 "/home/sebin/thesis/zephyrproject/zephyr/include/sys/cbprintf_internal.h"
	.file 26 "/home/sebin/thesis/zephyrproject/zephyr/include/logging/log_msg2.h"
	.file 27 "/home/sebin/thesis/zephyrproject/zephyr/include/logging/log_msg.h"
	.file 28 "/home/sebin/thesis/zephyrproject/zephyr/include/logging/log_core.h"
	.file 29 "/home/sebin/thesis/zephyrproject/zephyr/include/sys/dlist.h"
	.file 30 "/home/sebin/thesis/zephyrproject/zephyr/include/sys/rb.h"
	.file 31 "/home/sebin/thesis/zephyrproject/zephyr/include/sys/slist.h"
	.file 32 "/home/sebin/thesis/zephyrproject/zephyr/include/sys/sys_heap.h"
	.file 33 "/home/sebin/thesis/zephyrproject/zephyr/include/kernel_structs.h"
	.file 34 "/home/sebin/thesis/zephyrproject/zephyr/include/kernel/thread.h"
	.file 35 "/home/sebin/thesis/zephyrproject/zephyr/include/kernel.h"
	.file 36 "/home/sebin/thesis/zephyrproject/zephyr/include/arch/arm/aarch32/thread.h"
	.file 37 "/home/sebin/thesis/zephyrproject/zephyr/include/arch/arm/aarch32/exc.h"
	.file 38 "/home/sebin/thesis/zephyrproject/zephyr/include/sw_isr_table.h"
	.file 39 "/home/sebin/thesis/zephyrproject/modules/hal/infineon/XMCLib/devices/XMC4500/Include/system_XMC4500.h"
	.file 40 "/home/sebin/thesis/zephyrproject/modules/hal/cmsis/CMSIS/Core/Include/core_cm4.h"
	.file 41 "/home/sebin/thesis/zephyrproject/zephyr/include/arch/arm/aarch32/mpu/arm_mpu_v7m.h"
	.file 42 "/home/sebin/thesis/zephyrproject/zephyr/include/arch/arm/aarch32/mpu/arm_mpu.h"
	.file 43 "/home/sebin/thesis/zephyrproject/zephyr/include/sys_clock.h"
	.file 44 "/home/sebin/thesis/zephyrproject/zephyr/include/spinlock.h"
	.file 45 "/home/sebin/thesis/zephyrproject/zephyr/include/init.h"
	.file 46 "/home/sebin/thesis/zephyrproject/zephyr/include/device.h"
	.file 47 "/home/sebin/thesis/dmz/zephyr_xmc_template/build/zephyr/include/generated/device_extern.h"
	.file 48 "/home/sebin/thesis/zephyrproject/zephyr/include/net/net_timeout.h"
	.file 49 "/home/sebin/thesis/zephyrproject/zephyr/include/net/net_core.h"
	.file 50 "/home/sebin/thesis/zephyrproject/zephyr/include/net/net_linkaddr.h"
	.file 51 "/home/sebin/thesis/zephyrproject/zephyr/include/net/net_l2.h"
	.file 52 "/home/sebin/thesis/zephyrproject/zephyr/include/net/net_stats.h"
	.file 53 "/home/sebin/thesis/zephyrproject/zephyr/include/net/net_context.h"
	.file 54 "/home/sebin/thesis/zephyrproject/zephyr/include/net/ptp_time.h"
	.file 55 "/home/sebin/thesis/zephyrproject/zephyr/include/net/http_parser_url.h"
	.file 56 "/home/sebin/thesis/zephyrproject/zephyr/subsys/net/ip/icmpv4.h"
	.file 57 "/home/sebin/thesis/zephyrproject/zephyr/subsys/net/ip/icmpv6.h"
	.file 58 "/home/sebin/thesis/zephyrproject/zephyr/subsys/net/ip/ipv6.h"
	.file 59 "/home/sebin/thesis/zephyrproject/zephyr/subsys/net/ip/connection.h"
	.file 60 "/home/sebin/thesis/zephyrproject/zephyr/subsys/net/ip/tcp_internal.h"
	.file 61 "/home/sebin/thesis/zephyrproject/zephyr/subsys/net/ip/route.h"
	.file 62 "/home/sebin/thesis/zephyrproject/zephyr/include/net/net_mgmt.h"
	.file 63 "/home/sebin/LIOT/gcc-arm-none-eabi-9-2019-q4-major/arm-none-eabi/include/string.h"
	.file 64 "/home/sebin/thesis/zephyrproject/zephyr/include/net/lldp.h"
	.file 65 "/home/sebin/thesis/zephyrproject/zephyr/include/arch/structs.h"