	.cpu cortex-m4
	.eabi_attribute 27, 1
	.eabi_attribute 28, 1
	.eabi_attribute 20, 1
	.eabi_attribute 21, 1
	.eabi_attribute 23, 3
	.eabi_attribute 24, 1
	.eabi_attribute 25, 1
	.eabi_attribute 26, 1
	.eabi_attribute 30, 1
	.eabi_attribute 34, 1
	.eabi_attribute 38, 1
	.eabi_attribute 18, 4
	.file	"net_tc.c"
	.text
.Ltext0:
	.cfi_sections	.debug_frame
	.section	.text.tx_tc2thread,"ax",%progbits
	.align	1
	.arch armv7e-m
	.syntax unified
	.thumb
	.thumb_func
	.fpu fpv4-sp-d16
	.type	tx_tc2thread, %function
tx_tc2thread:
.LVL0:
.LFB937:
	.file 1 "/home/sebin/thesis/zephyrproject/zephyr/subsys/net/ip/net_tc.c"
	.loc 1 127 1 view -0
	.cfi_startproc
	@ args = 0, pretend = 0, frame = 0
	@ frame_needed = 0, uses_anonymous_args = 0
	@ link register save eliminated.
	.loc 1 160 2 view .LVU1
	.loc 1 164 2 view .LVU2
	.loc 1 167 4 view .LVU3
	.loc 1 167 5 view .LVU4
	.loc 1 169 2 view .LVU5
	.loc 1 170 1 is_stmt 0 view .LVU6
	ldr	r3, .L2
	ldrb	r0, [r3, r0]	@ zero_extendqisi2
.LVL1:
	.loc 1 170 1 view .LVU7
	bx	lr
.L3:
	.align	2
.L2:
	.word	.LANCHOR0
	.cfi_endproc
.LFE937:
	.size	tx_tc2thread, .-tx_tc2thread
	.section	.text.rx_tc2thread,"ax",%progbits
	.align	1
	.syntax unified
	.thumb
	.thumb_func
	.fpu fpv4-sp-d16
	.type	rx_tc2thread, %function
rx_tc2thread:
.LVL2:
.LFB938:
	.loc 1 176 1 is_stmt 1 view -0
	.cfi_startproc
	@ args = 0, pretend = 0, frame = 0
	@ frame_needed = 0, uses_anonymous_args = 0
	@ link register save eliminated.
	.loc 1 177 2 view .LVU9
	.loc 1 181 2 view .LVU10
	.loc 1 184 4 view .LVU11
	.loc 1 184 5 view .LVU12
	.loc 1 186 2 view .LVU13
	.loc 1 187 1 is_stmt 0 view .LVU14
	ldr	r3, .L5
	ldrb	r0, [r3, r0]	@ zero_extendqisi2
.LVL3:
	.loc 1 187 1 view .LVU15
	bx	lr
.L6:
	.align	2
.L5:
	.word	.LANCHOR1
	.cfi_endproc
.LFE938:
	.size	rx_tc2thread, .-rx_tc2thread
	.section	.text.submit_to_queue,"ax",%progbits
	.align	1
	.syntax unified
	.thumb
	.thumb_func
	.fpu fpv4-sp-d16
	.type	submit_to_queue, %function
submit_to_queue:
.LVL4:
.LFB932:
	.loc 1 45 1 is_stmt 1 view -0
	.cfi_startproc
	@ args = 0, pretend = 0, frame = 0
	@ frame_needed = 0, uses_anonymous_args = 0
	.loc 1 45 1 is_stmt 0 view .LVU17
	push	{r3, lr}
	.cfi_def_cfa_offset 8
	.cfi_offset 3, -8
	.cfi_offset 14, -4
	.loc 1 46 2 is_stmt 1 view .LVU18
.LBB82:
	.loc 1 46 5 view .LVU19
	.loc 1 46 10 view .LVU20
	.loc 1 46 18 view .LVU21
	.loc 1 46 4 view .LVU22
	bl	k_queue_append
.LVL5:
	.loc 1 46 43 view .LVU23
	.loc 1 46 48 view .LVU24
	.loc 1 46 56 view .LVU25
.LBE82:
	.loc 1 47 1 is_stmt 0 view .LVU26
	pop	{r3, pc}
	.cfi_endproc
.LFE932:
	.size	submit_to_queue, .-submit_to_queue
	.section	.text.tc_tx_handler,"ax",%progbits
	.align	1
	.syntax unified
	.thumb
	.thumb_func
	.fpu fpv4-sp-d16
	.type	tc_tx_handler, %function
tc_tx_handler:
.LVL6:
.LFB944:
	.loc 1 257 1 is_stmt 1 view -0
	.cfi_startproc
	@ args = 0, pretend = 0, frame = 0
	@ frame_needed = 0, uses_anonymous_args = 0
	.loc 1 257 1 is_stmt 0 view .LVU28
	push	{r4, lr}
	.cfi_def_cfa_offset 8
	.cfi_offset 4, -8
	.cfi_offset 14, -4
	mov	r4, r0
	b	.L10
.LVL7:
.L13:
	.loc 1 266 3 is_stmt 1 view .LVU29
	bl	net_process_tx_packet
.LVL8:
.L10:
	.loc 1 258 2 view .LVU30
	.loc 1 260 2 view .LVU31
	.loc 1 261 3 view .LVU32
.LBB83:
	.loc 1 261 12 view .LVU33
	.loc 1 261 17 view .LVU34
	.loc 1 261 25 view .LVU35
	.loc 1 261 11 view .LVU36
.LBB84:
.LBI84:
	.file 2 "/home/sebin/thesis/dmz/zephyr_xmc_template/build/zephyr/include/generated/syscalls/kernel.h"
	.loc 2 646 22 view .LVU37
.LBB85:
	.loc 2 656 2 view .LVU38
	.loc 2 656 7 view .LVU39
	.loc 2 656 55 view .LVU40
	.loc 2 657 2 view .LVU41
	.loc 2 657 9 is_stmt 0 view .LVU42
	mov	r2, #-1
	mov	r3, #-1
	mov	r0, r4
	bl	z_impl_k_queue_get
.LVL9:
	.loc 2 657 9 view .LVU43
.LBE85:
.LBE84:
	.loc 1 261 102 is_stmt 1 view .LVU44
	.loc 1 261 107 view .LVU45
	.loc 1 261 115 view .LVU46
	.loc 1 261 11 view .LVU47
	.loc 1 261 11 is_stmt 0 view .LVU48
.LBE83:
	.loc 1 262 3 is_stmt 1 view .LVU49
	.loc 1 262 6 is_stmt 0 view .LVU50
	cmp	r0, #0
	bne	.L13
	b	.L10
	.cfi_endproc
.LFE944:
	.size	tc_tx_handler, .-tc_tx_handler
	.section	.text.tc_rx_handler,"ax",%progbits
	.align	1
	.syntax unified
	.thumb
	.thumb_func
	.fpu fpv4-sp-d16
	.type	tc_rx_handler, %function
tc_rx_handler:
.LVL10:
.LFB943:
	.loc 1 241 1 is_stmt 1 view -0
	.cfi_startproc
	@ args = 0, pretend = 0, frame = 0
	@ frame_needed = 0, uses_anonymous_args = 0
	.loc 1 241 1 is_stmt 0 view .LVU52
	push	{r4, lr}
	.cfi_def_cfa_offset 8
	.cfi_offset 4, -8
	.cfi_offset 14, -4
	mov	r4, r0
	b	.L15
.LVL11:
.L18:
	.loc 1 250 3 is_stmt 1 view .LVU53
	bl	net_process_rx_packet
.LVL12:
.L15:
	.loc 1 242 2 view .LVU54
	.loc 1 244 2 view .LVU55
	.loc 1 245 3 view .LVU56
.LBB86:
	.loc 1 245 12 view .LVU57
	.loc 1 245 17 view .LVU58
	.loc 1 245 25 view .LVU59
	.loc 1 245 11 view .LVU60
.LBB87:
.LBI87:
	.loc 2 646 22 view .LVU61
.LBB88:
	.loc 2 656 2 view .LVU62
	.loc 2 656 7 view .LVU63
	.loc 2 656 55 view .LVU64
	.loc 2 657 2 view .LVU65
	.loc 2 657 9 is_stmt 0 view .LVU66
	mov	r2, #-1
	mov	r3, #-1
	mov	r0, r4
	bl	z_impl_k_queue_get
.LVL13:
	.loc 2 657 9 view .LVU67
.LBE88:
.LBE87:
	.loc 1 245 102 is_stmt 1 view .LVU68
	.loc 1 245 107 view .LVU69
	.loc 1 245 115 view .LVU70
	.loc 1 245 11 view .LVU71
	.loc 1 245 11 is_stmt 0 view .LVU72
.LBE86:
	.loc 1 246 3 is_stmt 1 view .LVU73
	.loc 1 246 6 is_stmt 0 view .LVU74
	cmp	r0, #0
	bne	.L18
	b	.L15
	.cfi_endproc
.LFE943:
	.size	tc_rx_handler, .-tc_rx_handler
	.section	.text.net_tc_submit_to_tx_queue,"ax",%progbits
	.align	1
	.global	net_tc_submit_to_tx_queue
	.syntax unified
	.thumb
	.thumb_func
	.fpu fpv4-sp-d16
	.type	net_tc_submit_to_tx_queue, %function
net_tc_submit_to_tx_queue:
.LVL14:
.LFB933:
	.loc 1 51 1 is_stmt 1 view -0
	.cfi_startproc
	@ args = 0, pretend = 0, frame = 0
	@ frame_needed = 0, uses_anonymous_args = 0
	.loc 1 51 1 is_stmt 0 view .LVU76
	push	{r3, lr}
	.cfi_def_cfa_offset 8
	.cfi_offset 3, -8
	.cfi_offset 14, -4
	.loc 1 53 2 is_stmt 1 view .LVU77
	.loc 1 55 2 view .LVU78
	add	r0, r0, r0, lsl #4
.LVL15:
	.loc 1 55 2 is_stmt 0 view .LVU79
	ldr	r3, .L21
	add	r0, r3, r0, lsl #4
	bl	submit_to_queue
.LVL16:
	.loc 1 60 2 is_stmt 1 view .LVU80
	.loc 1 61 1 is_stmt 0 view .LVU81
	movs	r0, #1
	pop	{r3, pc}
.L22:
	.align	2
.L21:
	.word	.LANCHOR2
	.cfi_endproc
.LFE933:
	.size	net_tc_submit_to_tx_queue, .-net_tc_submit_to_tx_queue
	.section	.text.net_tc_submit_to_rx_queue,"ax",%progbits
	.align	1
	.global	net_tc_submit_to_rx_queue
	.syntax unified
	.thumb
	.thumb_func
	.fpu fpv4-sp-d16
	.type	net_tc_submit_to_rx_queue, %function
net_tc_submit_to_rx_queue:
.LVL17:
.LFB934:
	.loc 1 64 1 is_stmt 1 view -0
	.cfi_startproc
	@ args = 0, pretend = 0, frame = 0
	@ frame_needed = 0, uses_anonymous_args = 0
	.loc 1 64 1 is_stmt 0 view .LVU83
	push	{r3, lr}
	.cfi_def_cfa_offset 8
	.cfi_offset 3, -8
	.cfi_offset 14, -4
	.loc 1 66 2 is_stmt 1 view .LVU84
	.loc 1 68 2 view .LVU85
	add	r0, r0, r0, lsl #4
.LVL18:
	.loc 1 68 2 is_stmt 0 view .LVU86
	ldr	r3, .L25
	add	r0, r3, r0, lsl #4
	bl	submit_to_queue
.LVL19:
	.loc 1 73 1 view .LVU87
	pop	{r3, pc}
.L26:
	.align	2
.L25:
	.word	.LANCHOR3
	.cfi_endproc
.LFE934:
	.size	net_tc_submit_to_rx_queue, .-net_tc_submit_to_rx_queue
	.section	.text.net_tx_priority2tc,"ax",%progbits
	.align	1
	.global	net_tx_priority2tc
	.syntax unified
	.thumb
	.thumb_func
	.fpu fpv4-sp-d16
	.type	net_tx_priority2tc, %function
net_tx_priority2tc:
.LVL20:
.LFB935:
	.loc 1 76 1 is_stmt 1 view -0
	.cfi_startproc
	@ args = 0, pretend = 0, frame = 0
	@ frame_needed = 0, uses_anonymous_args = 0
	@ link register save eliminated.
	.loc 1 78 2 view .LVU89
	.loc 1 78 5 is_stmt 0 view .LVU90
	cmp	r0, #7
	bls	.L28
	.loc 1 80 8 view .LVU91
	movs	r0, #0
.LVL21:
.L28:
	.loc 1 83 2 is_stmt 1 view .LVU92
	.loc 1 89 1 is_stmt 0 view .LVU93
	ldr	r3, .L30
	ldrb	r0, [r3, r0]	@ zero_extendqisi2
.LVL22:
	.loc 1 89 1 view .LVU94
	bx	lr
.L31:
	.align	2
.L30:
	.word	.LANCHOR4
	.cfi_endproc
.LFE935:
	.size	net_tx_priority2tc, .-net_tx_priority2tc
	.section	.text.tc_tx_stats_priority_setup,"ax",%progbits
	.align	1
	.syntax unified
	.thumb
	.thumb_func
	.fpu fpv4-sp-d16
	.type	tc_tx_stats_priority_setup, %function
tc_tx_stats_priority_setup:
.LVL23:
.LFB939:
	.loc 1 196 1 is_stmt 1 view -0
	.cfi_startproc
	@ args = 0, pretend = 0, frame = 0
	@ frame_needed = 0, uses_anonymous_args = 0
	.loc 1 196 1 is_stmt 0 view .LVU96
	push	{r4, r5, r6, lr}
	.cfi_def_cfa_offset 16
	.cfi_offset 4, -16
	.cfi_offset 5, -12
	.cfi_offset 6, -8
	.cfi_offset 14, -4
	mov	r6, r0
	.loc 1 197 2 is_stmt 1 view .LVU97
	.loc 1 199 2 view .LVU98
.LVL24:
	.loc 1 199 9 is_stmt 0 view .LVU99
	movs	r4, #0
	.loc 1 199 2 view .LVU100
	b	.L33
.LVL25:
.L34:
	.loc 1 200 3 is_stmt 1 discriminator 3 view .LVU101
	.loc 1 200 44 is_stmt 0 discriminator 3 view .LVU102
	uxtb	r5, r4
	mov	r0, r5
	bl	net_tx_priority2tc
.LVL26:
.LBB89:
.LBI89:
	.file 3 "/home/sebin/thesis/zephyrproject/zephyr/subsys/net/ip/net_stats.h"
	.loc 3 427 20 is_stmt 1 discriminator 3 view .LVU103
.LBB90:
	.loc 3 430 6 discriminator 3 view .LVU104
	.loc 3 430 7 discriminator 3 view .LVU105
	.loc 3 430 9 discriminator 3 view .LVU106
	uxtb	r3, r0
	.loc 3 430 42 is_stmt 0 discriminator 3 view .LVU107
	adds	r3, r3, #7
	lsls	r3, r3, #5
	ldr	r2, .L36
	strb	r5, [r2, r3]
	.loc 3 430 56 is_stmt 1 discriminator 3 view .LVU108
	.loc 3 430 91 is_stmt 0 discriminator 3 view .LVU109
	add	r3, r3, r6
	strb	r5, [r3, #8]
	.loc 3 430 105 is_stmt 1 discriminator 3 view .LVU110
.LVL27:
	.loc 3 430 105 is_stmt 0 discriminator 3 view .LVU111
.LBE90:
.LBE89:
	.loc 1 199 21 is_stmt 1 discriminator 3 view .LVU112
	.loc 1 199 22 is_stmt 0 discriminator 3 view .LVU113
	adds	r4, r4, #1
.LVL28:
.L33:
	.loc 1 199 14 is_stmt 1 discriminator 1 view .LVU114
	.loc 1 199 2 is_stmt 0 discriminator 1 view .LVU115
	cmp	r4, #7
	ble	.L34
	.loc 1 203 1 view .LVU116
	pop	{r4, r5, r6, pc}
.LVL29:
.L37:
	.loc 1 203 1 view .LVU117
	.align	2
.L36:
	.word	net_stats
	.cfi_endproc
.LFE939:
	.size	tc_tx_stats_priority_setup, .-tc_tx_stats_priority_setup
	.section	.text.net_tc_tx_stats_priority_setup,"ax",%progbits
	.align	1
	.syntax unified
	.thumb
	.thumb_func
	.fpu fpv4-sp-d16
	.type	net_tc_tx_stats_priority_setup, %function
net_tc_tx_stats_priority_setup:
.LVL30:
.LFB941:
	.loc 1 221 1 is_stmt 1 view -0
	.cfi_startproc
	@ args = 0, pretend = 0, frame = 0
	@ frame_needed = 0, uses_anonymous_args = 0
	.loc 1 221 1 is_stmt 0 view .LVU119
	push	{r3, lr}
	.cfi_def_cfa_offset 8
	.cfi_offset 3, -8
	.cfi_offset 14, -4
	.loc 1 222 2 is_stmt 1 view .LVU120
	.loc 1 224 2 view .LVU121
	bl	tc_tx_stats_priority_setup
.LVL31:
	.loc 1 225 1 is_stmt 0 view .LVU122
	pop	{r3, pc}
	.cfi_endproc
.LFE941:
	.size	net_tc_tx_stats_priority_setup, .-net_tc_tx_stats_priority_setup
	.section	.text.net_rx_priority2tc,"ax",%progbits
	.align	1
	.global	net_rx_priority2tc
	.syntax unified
	.thumb
	.thumb_func
	.fpu fpv4-sp-d16
	.type	net_rx_priority2tc, %function
net_rx_priority2tc:
.LVL32:
.LFB936:
	.loc 1 92 1 is_stmt 1 view -0
	.cfi_startproc
	@ args = 0, pretend = 0, frame = 0
	@ frame_needed = 0, uses_anonymous_args = 0
	@ link register save eliminated.
	.loc 1 94 2 view .LVU124
	.loc 1 94 5 is_stmt 0 view .LVU125
	cmp	r0, #7
	bls	.L41
	.loc 1 96 8 view .LVU126
	movs	r0, #0
.LVL33:
.L41:
	.loc 1 99 2 is_stmt 1 view .LVU127
	.loc 1 105 1 is_stmt 0 view .LVU128
	ldr	r3, .L43
	ldrb	r0, [r3, r0]	@ zero_extendqisi2
.LVL34:
	.loc 1 105 1 view .LVU129
	bx	lr
.L44:
	.align	2
.L43:
	.word	.LANCHOR5
	.cfi_endproc
.LFE936:
	.size	net_rx_priority2tc, .-net_rx_priority2tc
	.section	.text.tc_rx_stats_priority_setup,"ax",%progbits
	.align	1
	.syntax unified
	.thumb
	.thumb_func
	.fpu fpv4-sp-d16
	.type	tc_rx_stats_priority_setup, %function
tc_rx_stats_priority_setup:
.LVL35:
.LFB940:
	.loc 1 208 1 is_stmt 1 view -0
	.cfi_startproc
	@ args = 0, pretend = 0, frame = 0
	@ frame_needed = 0, uses_anonymous_args = 0
	.loc 1 208 1 is_stmt 0 view .LVU131
	push	{r4, r5, r6, lr}
	.cfi_def_cfa_offset 16
	.cfi_offset 4, -16
	.cfi_offset 5, -12
	.cfi_offset 6, -8
	.cfi_offset 14, -4
	mov	r6, r0
	.loc 1 209 2 is_stmt 1 view .LVU132
	.loc 1 211 2 view .LVU133
.LVL36:
	.loc 1 211 9 is_stmt 0 view .LVU134
	movs	r4, #0
	.loc 1 211 2 view .LVU135
	b	.L46
.LVL37:
.L47:
	.loc 1 212 3 is_stmt 1 discriminator 3 view .LVU136
	.loc 1 212 44 is_stmt 0 discriminator 3 view .LVU137
	uxtb	r5, r4
	mov	r0, r5
	bl	net_rx_priority2tc
.LVL38:
.LBB91:
.LBI91:
	.loc 3 528 20 is_stmt 1 discriminator 3 view .LVU138
.LBB92:
	.loc 3 531 6 discriminator 3 view .LVU139
	.loc 3 531 7 discriminator 3 view .LVU140
	.loc 3 531 9 discriminator 3 view .LVU141
	uxtb	r3, r0
	.loc 3 531 42 is_stmt 0 discriminator 3 view .LVU142
	adds	r3, r3, #13
	lsls	r3, r3, #5
	ldr	r2, .L49
	strb	r5, [r2, r3]
	.loc 3 531 56 is_stmt 1 discriminator 3 view .LVU143
	.loc 3 531 91 is_stmt 0 discriminator 3 view .LVU144
	add	r3, r3, r6
	strb	r5, [r3, #8]
	.loc 3 531 105 is_stmt 1 discriminator 3 view .LVU145
.LVL39:
	.loc 3 531 105 is_stmt 0 discriminator 3 view .LVU146
.LBE92:
.LBE91:
	.loc 1 211 21 is_stmt 1 discriminator 3 view .LVU147
	.loc 1 211 22 is_stmt 0 discriminator 3 view .LVU148
	adds	r4, r4, #1
.LVL40:
.L46:
	.loc 1 211 14 is_stmt 1 discriminator 1 view .LVU149
	.loc 1 211 2 is_stmt 0 discriminator 1 view .LVU150
	cmp	r4, #7
	ble	.L47
	.loc 1 215 1 view .LVU151
	pop	{r4, r5, r6, pc}
.LVL41:
.L50:
	.loc 1 215 1 view .LVU152
	.align	2
.L49:
	.word	net_stats
	.cfi_endproc
.LFE940:
	.size	tc_rx_stats_priority_setup, .-tc_rx_stats_priority_setup
	.section	.text.net_tc_rx_stats_priority_setup,"ax",%progbits
	.align	1
	.syntax unified
	.thumb
	.thumb_func
	.fpu fpv4-sp-d16
	.type	net_tc_rx_stats_priority_setup, %function
net_tc_rx_stats_priority_setup:
.LVL42:
.LFB942:
	.loc 1 231 1 is_stmt 1 view -0
	.cfi_startproc
	@ args = 0, pretend = 0, frame = 0
	@ frame_needed = 0, uses_anonymous_args = 0
	.loc 1 231 1 is_stmt 0 view .LVU154
	push	{r3, lr}
	.cfi_def_cfa_offset 8
	.cfi_offset 3, -8
	.cfi_offset 14, -4
	.loc 1 232 2 is_stmt 1 view .LVU155
	.loc 1 234 2 view .LVU156
	bl	tc_rx_stats_priority_setup
.LVL43:
	.loc 1 235 1 is_stmt 0 view .LVU157
	pop	{r3, pc}
	.cfi_endproc
.LFE942:
	.size	net_tc_rx_stats_priority_setup, .-net_tc_rx_stats_priority_setup
	.section	.rodata.net_tc_tx_init.str1.4,"aMS",%progbits,1
	.align	2
.LC0:
	.ascii	"Cannot create TC handler thread %d\000"
	.align	2
.LC1:
	.ascii	"tx_q[%d]\000"
	.section	.text.net_tc_tx_init,"ax",%progbits
	.align	1
	.global	net_tc_tx_init
	.syntax unified
	.thumb
	.thumb_func
	.fpu fpv4-sp-d16
	.type	net_tc_tx_init, %function
net_tc_tx_init:
.LFB945:
	.loc 1 275 1 is_stmt 1 view -0
	.cfi_startproc
	@ args = 0, pretend = 0, frame = 32
	@ frame_needed = 0, uses_anonymous_args = 0
	push	{r4, r5, r6, r7, r8, r9, lr}
	.cfi_def_cfa_offset 28
	.cfi_offset 4, -28
	.cfi_offset 5, -24
	.cfi_offset 6, -20
	.cfi_offset 7, -16
	.cfi_offset 8, -12
	.cfi_offset 9, -8
	.cfi_offset 14, -4
	sub	sp, sp, #68
	.cfi_def_cfa_offset 96
	.loc 1 280 2 view .LVU159
	.loc 1 282 2 view .LVU160
	.loc 1 285 2 view .LVU161
	movs	r1, #0
	ldr	r0, .L61
	bl	net_if_foreach
.LVL44:
	.loc 1 288 2 view .LVU162
	.loc 1 288 9 is_stmt 0 view .LVU163
	movs	r5, #0
	.loc 1 288 2 view .LVU164
	b	.L54
.LVL45:
.L60:
.LBB93:
	.loc 1 316 4 is_stmt 1 view .LVU165
.LBB94:
	.loc 1 316 9 view .LVU166
	.loc 1 316 58 view .LVU167
	.loc 1 316 15 view .LVU168
	.loc 1 316 3 view .LVU169
.LBE94:
.LBE93:
	.file 4 "/home/sebin/thesis/zephyrproject/zephyr/include/syscall.h"
	.loc 4 120 2 view .LVU170
.LBB128:
.LBB112:
	.loc 1 316 42 view .LVU171
	.loc 1 316 108 view .LVU172
	.loc 1 316 207 view .LVU173
.LBB95:
	.loc 1 316 216 view .LVU174
	.loc 1 316 227 view .LVU175
	.loc 1 316 315 view .LVU176
	.loc 1 316 320 view .LVU177
	.loc 1 316 322 view .LVU178
.LBE95:
.LBE112:
.LBE128:
	.loc 1 316 4 view .LVU179
	.loc 1 316 4 view .LVU180
.LBB129:
.LBB113:
.LBB108:
	.loc 1 316 92 view .LVU181
.LBB96:
	.loc 1 316 97 view .LVU182
	.loc 1 316 108 view .LVU183
.LBE96:
.LBE108:
.LBE113:
.LBE129:
	.loc 1 316 4 view .LVU184
	.loc 1 316 218 view .LVU185
	.loc 1 316 3 view .LVU186
	.loc 1 316 32 view .LVU187
	.loc 1 316 5 view .LVU188
	.loc 1 316 25 view .LVU189
	.loc 1 316 49 view .LVU190
	.loc 1 316 24 view .LVU191
	.loc 1 316 42 view .LVU192
	.loc 1 316 62 view .LVU193
	.loc 1 316 109 view .LVU194
	.loc 1 316 141 view .LVU195
	.loc 1 316 14 view .LVU196
	.loc 1 316 56 view .LVU197
	.loc 1 316 98 view .LVU198
	.loc 1 316 143 view .LVU199
	.loc 1 316 148 view .LVU200
	.loc 1 316 406 view .LVU201
	.loc 1 316 412 view .LVU202
	.loc 1 316 1549 view .LVU203
	.loc 1 316 1573 view .LVU204
	.loc 1 316 1634 view .LVU205
	.loc 1 316 1752 view .LVU206
	.loc 1 316 1767 view .LVU207
	.loc 1 316 2058 view .LVU208
	.loc 1 316 2106 view .LVU209
	.loc 1 316 3438 view .LVU210
	.loc 1 316 3445 view .LVU211
	.loc 1 316 3468 view .LVU212
	.loc 1 316 3502 view .LVU213
	.loc 1 316 3508 view .LVU214
	.loc 1 316 3513 view .LVU215
	.loc 1 316 3736 view .LVU216
	.loc 1 316 3742 view .LVU217
	.loc 1 316 0 view .LVU218
	.loc 1 316 0 view .LVU219
	.loc 1 316 0 view .LVU220
	.loc 1 316 0 view .LVU221
	.loc 1 316 0 view .LVU222
	.loc 1 316 0 view .LVU223
	.loc 1 316 0 view .LVU224
	.loc 1 316 0 view .LVU225
	.loc 1 316 0 view .LVU226
	.loc 1 316 0 view .LVU227
	.loc 1 316 0 view .LVU228
	.loc 1 316 0 view .LVU229
	.loc 1 316 0 view .LVU230
	.loc 1 316 17 view .LVU231
.LBB130:
.LBB114:
.LBB109:
.LBB105:
	.loc 1 316 12 view .LVU232
	.loc 1 316 17 view .LVU233
	.loc 1 316 40 view .LVU234
	.loc 1 316 160 view .LVU235
	.loc 1 316 286 view .LVU236
	.loc 1 316 489 view .LVU237
	.loc 1 316 6 view .LVU238
	.loc 1 316 8 view .LVU239
	.loc 1 316 21 view .LVU240
.LBB97:
	.loc 1 316 4 view .LVU241
	.loc 1 316 218 view .LVU242
	.loc 1 316 3 view .LVU243
	.loc 1 316 32 view .LVU244
	.loc 1 316 61 view .LVU245
	.loc 1 316 81 view .LVU246
	.loc 1 316 105 view .LVU247
	.loc 1 316 28 view .LVU248
	.loc 1 316 46 view .LVU249
	.loc 1 316 66 view .LVU250
	.loc 1 316 113 view .LVU251
	.loc 1 316 145 view .LVU252
	.loc 1 316 14 view .LVU253
	.loc 1 316 56 view .LVU254
	.loc 1 316 98 view .LVU255
	.loc 1 316 143 view .LVU256
.LBB98:
	.loc 1 316 148 view .LVU257
	.loc 1 316 406 view .LVU258
	.loc 1 316 412 view .LVU259
	.loc 1 316 1549 view .LVU260
.LBE98:
.LBE97:
.LBE105:
.LBE109:
.LBE114:
.LBE130:
	.loc 1 316 1573 view .LVU261
	.loc 1 316 1634 view .LVU262
	.loc 1 316 1752 view .LVU263
.LBB131:
.LBB115:
.LBB110:
.LBB106:
.LBB103:
.LBB99:
	.loc 1 316 1767 view .LVU264
	.loc 1 316 2058 view .LVU265
	.loc 1 316 2106 view .LVU266
	.loc 1 316 2144 view .LVU267
	.loc 1 316 2149 view .LVU268
	.loc 1 316 2756 view .LVU269
	.loc 1 316 3388 is_stmt 0 view .LVU270
	ldr	r3, .L61+4
	str	r3, [sp, #56]
	.loc 1 316 3438 is_stmt 1 view .LVU271
	.loc 1 316 3445 view .LVU272
.LVL46:
	.loc 1 316 3468 view .LVU273
	.loc 1 316 3468 is_stmt 0 view .LVU274
.LBE99:
	.loc 1 316 3502 is_stmt 1 view .LVU275
	.loc 1 316 3508 view .LVU276
.LBB100:
	.loc 1 316 3513 view .LVU277
	.loc 1 316 3736 view .LVU278
	.loc 1 316 3742 view .LVU279
	.loc 1 316 0 view .LVU280
.LBE100:
.LBE103:
.LBE106:
.LBE110:
.LBE115:
.LBE131:
	.loc 1 316 0 view .LVU281
	.loc 1 316 0 view .LVU282
	.loc 1 316 0 view .LVU283
.LBB132:
.LBB116:
.LBB111:
.LBB107:
.LBB104:
.LBB101:
	.loc 1 316 0 view .LVU284
	.loc 1 316 0 view .LVU285
	.loc 1 316 0 view .LVU286
	.loc 1 316 0 view .LVU287
	.loc 1 316 0 view .LVU288
	str	r5, [sp, #60]
	.loc 1 316 0 view .LVU289
	.loc 1 316 0 view .LVU290
.LVL47:
	.loc 1 316 0 view .LVU291
	.loc 1 316 0 is_stmt 0 view .LVU292
.LBE101:
	.loc 1 316 0 is_stmt 1 view .LVU293
	.loc 1 316 0 view .LVU294
	.loc 1 316 0 view .LVU295
	.loc 1 316 0 view .LVU296
	.loc 1 316 17 view .LVU297
.LBB102:
	.loc 1 316 30 view .LVU298
	.loc 1 316 51 is_stmt 0 view .LVU299
	movs	r3, #0
	strh	r3, [sp, #33]	@ unaligned
	strb	r3, [sp, #35]
	movs	r2, #3
	strb	r2, [sp, #32]
	strb	r3, [sp, #34]
	.loc 1 316 176 is_stmt 1 view .LVU300
	.loc 1 316 186 is_stmt 0 view .LVU301
	ldr	r2, [sp, #32]
	str	r2, [sp, #52]
	.loc 1 316 186 view .LVU302
.LBE102:
.LBE104:
	.loc 1 316 12 is_stmt 1 view .LVU303
	.loc 1 316 19 view .LVU304
	.loc 1 316 40 is_stmt 0 view .LVU305
	bfi	r8, r3, #0, #1
	bfi	r8, r3, #1, #1
	bfi	r8, r3, #2, #1
	bfi	r8, r3, #3, #3
	movs	r2, #1
	bfi	r8, r2, #6, #3
	movs	r2, #12
	bfi	r8, r2, #9, #10
	bfi	r8, r3, #19, #12
	bfi	r8, r3, #31, #1
	.loc 1 316 175 is_stmt 1 view .LVU306
	mov	r2, r8
	ldr	r1, .L61+8
	add	r0, sp, #40
.LVL48:
	.loc 1 316 175 is_stmt 0 view .LVU307
	bl	z_log_msg2_finalize
.LVL49:
	.loc 1 316 175 view .LVU308
.LBE107:
	.loc 1 316 14 is_stmt 1 view .LVU309
	.loc 1 316 19 view .LVU310
.LVL50:
	.loc 1 316 59 view .LVU311
.LBE111:
	.loc 1 316 14 view .LVU312
	.loc 1 316 21 view .LVU313
	.loc 1 316 21 is_stmt 0 view .LVU314
.LBE116:
	.loc 1 316 84 is_stmt 1 view .LVU315
	.loc 1 317 4 view .LVU316
.L56:
	.loc 1 317 4 is_stmt 0 view .LVU317
.LBE132:
	.loc 1 288 21 is_stmt 1 discriminator 2 view .LVU318
	.loc 1 288 22 is_stmt 0 discriminator 2 view .LVU319
	adds	r5, r5, #1
.LVL51:
.L54:
	.loc 1 288 14 is_stmt 1 discriminator 1 view .LVU320
	.loc 1 288 2 is_stmt 0 discriminator 1 view .LVU321
	cmp	r5, #5
	bgt	.L59
.LBB133:
	.loc 1 289 3 is_stmt 1 view .LVU322
	.loc 1 290 3 view .LVU323
	.loc 1 291 3 view .LVU324
	.loc 1 293 3 view .LVU325
	.loc 1 293 21 is_stmt 0 view .LVU326
	uxtb	r0, r5
	bl	tx_tc2thread
.LVL52:
	.loc 1 295 3 is_stmt 1 view .LVU327
	.loc 1 295 12 is_stmt 0 view .LVU328
	sub	r7, r0, #16
.LVL53:
	.loc 1 299 3 is_stmt 1 view .LVU329
.LBB117:
	.loc 1 299 8 view .LVU330
.LBE117:
	.loc 1 299 279 view .LVU331
	.loc 1 308 3 view .LVU332
.LBB118:
	.loc 1 308 6 view .LVU333
	.loc 1 308 11 view .LVU334
	.loc 1 308 19 view .LVU335
	.loc 1 308 5 view .LVU336
	ldr	r9, .L61+24
	lsls	r4, r5, #4
	add	r6, r5, r5, lsl #4
	add	r6, r9, r6, lsl #4
.LVL54:
.LBB119:
.LBI119:
	.loc 2 580 20 view .LVU337
.LBB120:
	.loc 2 589 2 view .LVU338
	.loc 2 589 7 view .LVU339
	.loc 2 589 55 view .LVU340
	.loc 2 590 2 view .LVU341
	mov	r0, r6
.LVL55:
	.loc 2 590 2 is_stmt 0 view .LVU342
	bl	z_impl_k_queue_init
.LVL56:
	.loc 2 590 2 view .LVU343
.LBE120:
.LBE119:
	.loc 1 308 51 is_stmt 1 view .LVU344
	.loc 1 308 56 view .LVU345
	.loc 1 308 64 view .LVU346
.LBE118:
	.loc 1 310 3 view .LVU347
	.loc 1 310 9 is_stmt 0 view .LVU348
	adds	r0, r4, r5
	lsls	r0, r0, #4
	adds	r0, r0, #32
	add	r0, r0, r9
	.loc 1 310 57 view .LVU349
	add	r1, r5, r5, lsl #2
	ldr	r3, .L61+12
	add	r1, r3, r1, lsl #8
.LVL57:
.LBB121:
.LBI121:
	.loc 2 35 23 is_stmt 1 view .LVU350
.LBB122:
	.loc 2 53 2 view .LVU351
	.loc 2 53 7 view .LVU352
	.loc 2 53 55 view .LVU353
	.loc 2 54 2 view .LVU354
	.loc 2 54 9 is_stmt 0 view .LVU355
	mov	r2, #-1
	mov	r3, #-1
	strd	r2, [sp, #24]
	movs	r3, #0
	str	r3, [sp, #16]
	str	r7, [sp, #12]
	str	r3, [sp, #8]
	str	r3, [sp, #4]
	str	r6, [sp]
	ldr	r3, .L61+16
	mov	r2, #1248
	bl	z_impl_k_thread_create
.LVL58:
	.loc 2 54 9 view .LVU356
.LBE122:
.LBE121:
	.loc 1 315 3 is_stmt 1 view .LVU357
	.loc 1 315 6 is_stmt 0 view .LVU358
	mov	r4, r0
	cmp	r0, #0
	beq	.L60
	.loc 1 320 3 is_stmt 1 view .LVU359
.LBB123:
	.loc 1 321 4 view .LVU360
	.loc 1 323 4 view .LVU361
	mov	r3, r5
	ldr	r2, .L61+20
	movs	r1, #8
	add	r0, sp, #32
.LVL59:
	.loc 1 323 4 is_stmt 0 view .LVU362
	bl	snprintk
.LVL60:
	.loc 1 324 4 is_stmt 1 view .LVU363
.LBB124:
.LBI124:
	.loc 2 395 19 view .LVU364
.LBB125:
	.loc 2 403 2 view .LVU365
	.loc 2 403 7 view .LVU366
	.loc 2 403 55 view .LVU367
	.loc 2 404 2 view .LVU368
	.loc 2 404 9 is_stmt 0 view .LVU369
	add	r1, sp, #32
.LVL61:
	.loc 2 404 9 view .LVU370
	mov	r0, r4
	bl	z_impl_k_thread_name_set
.LVL62:
	.loc 2 404 9 view .LVU371
.LBE125:
.LBE124:
.LBE123:
	.loc 1 327 3 is_stmt 1 view .LVU372
.LBB126:
.LBI126:
	.loc 2 213 20 view .LVU373
.LBB127:
	.loc 2 222 2 view .LVU374
	.loc 2 222 7 view .LVU375
	.loc 2 222 55 view .LVU376
	.loc 2 223 2 view .LVU377
	mov	r0, r4
	bl	z_impl_k_thread_start
.LVL63:
	.loc 2 223 2 is_stmt 0 view .LVU378
.LBE127:
.LBE126:
	b	.L56
.LVL64:
.L59:
	.loc 2 223 2 view .LVU379
.LBE133:
	.loc 1 330 1 view .LVU380
	add	sp, sp, #68
	.cfi_def_cfa_offset 28
	@ sp needed
	pop	{r4, r5, r6, r7, r8, r9, pc}
.LVL65:
.L62:
	.loc 1 330 1 view .LVU381
	.align	2
.L61:
	.word	net_tc_tx_stats_priority_setup
	.word	.LC0
	.word	.LANCHOR6
	.word	tx_stack
	.word	tc_tx_handler
	.word	.LC1
	.word	.LANCHOR2
	.cfi_endproc
.LFE945:
	.size	net_tc_tx_init, .-net_tc_tx_init
	.section	.rodata.net_tc_rx_init.str1.4,"aMS",%progbits,1
	.align	2
.LC2:
	.ascii	"rx_q[%d]\000"
	.section	.text.net_tc_rx_init,"ax",%progbits
	.align	1
	.global	net_tc_rx_init
	.syntax unified
	.thumb
	.thumb_func
	.fpu fpv4-sp-d16
	.type	net_tc_rx_init, %function
net_tc_rx_init:
.LFB946:
	.loc 1 333 1 is_stmt 1 view -0
	.cfi_startproc
	@ args = 0, pretend = 0, frame = 32
	@ frame_needed = 0, uses_anonymous_args = 0
	push	{r4, r5, r6, r7, r8, r9, lr}
	.cfi_def_cfa_offset 28
	.cfi_offset 4, -28
	.cfi_offset 5, -24
	.cfi_offset 6, -20
	.cfi_offset 7, -16
	.cfi_offset 8, -12
	.cfi_offset 9, -8
	.cfi_offset 14, -4
	sub	sp, sp, #68
	.cfi_def_cfa_offset 96
	.loc 1 338 2 view .LVU383
	.loc 1 340 2 view .LVU384
	.loc 1 343 2 view .LVU385
	movs	r1, #0
	ldr	r0, .L71
	bl	net_if_foreach
.LVL66:
	.loc 1 346 2 view .LVU386
	.loc 1 346 9 is_stmt 0 view .LVU387
	movs	r5, #0
	.loc 1 346 2 view .LVU388
	b	.L64
.LVL67:
.L70:
.LBB134:
	.loc 1 374 4 is_stmt 1 view .LVU389
.LBB135:
	.loc 1 374 9 view .LVU390
	.loc 1 374 58 view .LVU391
	.loc 1 374 15 view .LVU392
	.loc 1 374 3 view .LVU393
.LBE135:
.LBE134:
	.loc 4 120 2 view .LVU394
.LBB169:
.LBB153:
	.loc 1 374 42 view .LVU395
	.loc 1 374 108 view .LVU396
	.loc 1 374 207 view .LVU397
.LBB136:
	.loc 1 374 216 view .LVU398
	.loc 1 374 227 view .LVU399
	.loc 1 374 315 view .LVU400
	.loc 1 374 320 view .LVU401
	.loc 1 374 322 view .LVU402
.LBE136:
.LBE153:
.LBE169:
	.loc 1 374 4 view .LVU403
	.loc 1 374 4 view .LVU404
.LBB170:
.LBB154:
.LBB149:
	.loc 1 374 92 view .LVU405
.LBB137:
	.loc 1 374 97 view .LVU406
	.loc 1 374 108 view .LVU407
.LBE137:
.LBE149:
.LBE154:
.LBE170:
	.loc 1 374 4 view .LVU408
	.loc 1 374 218 view .LVU409
	.loc 1 374 3 view .LVU410
	.loc 1 374 32 view .LVU411
	.loc 1 374 5 view .LVU412
	.loc 1 374 25 view .LVU413
	.loc 1 374 49 view .LVU414
	.loc 1 374 24 view .LVU415
	.loc 1 374 42 view .LVU416
	.loc 1 374 62 view .LVU417
	.loc 1 374 109 view .LVU418
	.loc 1 374 141 view .LVU419
	.loc 1 374 14 view .LVU420
	.loc 1 374 56 view .LVU421
	.loc 1 374 98 view .LVU422
	.loc 1 374 143 view .LVU423
	.loc 1 374 148 view .LVU424
	.loc 1 374 406 view .LVU425
	.loc 1 374 412 view .LVU426
	.loc 1 374 1549 view .LVU427
	.loc 1 374 1573 view .LVU428
	.loc 1 374 1634 view .LVU429
	.loc 1 374 1752 view .LVU430
	.loc 1 374 1767 view .LVU431
	.loc 1 374 2058 view .LVU432
	.loc 1 374 2106 view .LVU433
	.loc 1 374 3438 view .LVU434
	.loc 1 374 3445 view .LVU435
	.loc 1 374 3468 view .LVU436
	.loc 1 374 3502 view .LVU437
	.loc 1 374 3508 view .LVU438
	.loc 1 374 3513 view .LVU439
	.loc 1 374 3736 view .LVU440
	.loc 1 374 3742 view .LVU441
	.loc 1 374 0 view .LVU442
	.loc 1 374 0 view .LVU443
	.loc 1 374 0 view .LVU444
	.loc 1 374 0 view .LVU445
	.loc 1 374 0 view .LVU446
	.loc 1 374 0 view .LVU447
	.loc 1 374 0 view .LVU448
	.loc 1 374 0 view .LVU449
	.loc 1 374 0 view .LVU450
	.loc 1 374 0 view .LVU451
	.loc 1 374 0 view .LVU452
	.loc 1 374 0 view .LVU453
	.loc 1 374 0 view .LVU454
	.loc 1 374 17 view .LVU455
.LBB171:
.LBB155:
.LBB150:
.LBB146:
	.loc 1 374 12 view .LVU456
	.loc 1 374 17 view .LVU457
	.loc 1 374 40 view .LVU458
	.loc 1 374 160 view .LVU459
	.loc 1 374 286 view .LVU460
	.loc 1 374 489 view .LVU461
	.loc 1 374 6 view .LVU462
	.loc 1 374 8 view .LVU463
	.loc 1 374 21 view .LVU464
.LBB138:
	.loc 1 374 4 view .LVU465
	.loc 1 374 218 view .LVU466
	.loc 1 374 3 view .LVU467
	.loc 1 374 32 view .LVU468
	.loc 1 374 61 view .LVU469
	.loc 1 374 81 view .LVU470
	.loc 1 374 105 view .LVU471
	.loc 1 374 28 view .LVU472
	.loc 1 374 46 view .LVU473
	.loc 1 374 66 view .LVU474
	.loc 1 374 113 view .LVU475
	.loc 1 374 145 view .LVU476
	.loc 1 374 14 view .LVU477
	.loc 1 374 56 view .LVU478
	.loc 1 374 98 view .LVU479
	.loc 1 374 143 view .LVU480
.LBB139:
	.loc 1 374 148 view .LVU481
	.loc 1 374 406 view .LVU482
	.loc 1 374 412 view .LVU483
	.loc 1 374 1549 view .LVU484
.LBE139:
.LBE138:
.LBE146:
.LBE150:
.LBE155:
.LBE171:
	.loc 1 374 1573 view .LVU485
	.loc 1 374 1634 view .LVU486
	.loc 1 374 1752 view .LVU487
.LBB172:
.LBB156:
.LBB151:
.LBB147:
.LBB144:
.LBB140:
	.loc 1 374 1767 view .LVU488
	.loc 1 374 2058 view .LVU489
	.loc 1 374 2106 view .LVU490
	.loc 1 374 2144 view .LVU491
	.loc 1 374 2149 view .LVU492
	.loc 1 374 2756 view .LVU493
	.loc 1 374 3388 is_stmt 0 view .LVU494
	ldr	r3, .L71+4
	str	r3, [sp, #56]
	.loc 1 374 3438 is_stmt 1 view .LVU495
	.loc 1 374 3445 view .LVU496
.LVL68:
	.loc 1 374 3468 view .LVU497
	.loc 1 374 3468 is_stmt 0 view .LVU498
.LBE140:
	.loc 1 374 3502 is_stmt 1 view .LVU499
	.loc 1 374 3508 view .LVU500
.LBB141:
	.loc 1 374 3513 view .LVU501
	.loc 1 374 3736 view .LVU502
	.loc 1 374 3742 view .LVU503
	.loc 1 374 0 view .LVU504
.LBE141:
.LBE144:
.LBE147:
.LBE151:
.LBE156:
.LBE172:
	.loc 1 374 0 view .LVU505
	.loc 1 374 0 view .LVU506
	.loc 1 374 0 view .LVU507
.LBB173:
.LBB157:
.LBB152:
.LBB148:
.LBB145:
.LBB142:
	.loc 1 374 0 view .LVU508
	.loc 1 374 0 view .LVU509
	.loc 1 374 0 view .LVU510
	.loc 1 374 0 view .LVU511
	.loc 1 374 0 view .LVU512
	str	r5, [sp, #60]
	.loc 1 374 0 view .LVU513
	.loc 1 374 0 view .LVU514
.LVL69:
	.loc 1 374 0 view .LVU515
	.loc 1 374 0 is_stmt 0 view .LVU516
.LBE142:
	.loc 1 374 0 is_stmt 1 view .LVU517
	.loc 1 374 0 view .LVU518
	.loc 1 374 0 view .LVU519
	.loc 1 374 0 view .LVU520
	.loc 1 374 17 view .LVU521
.LBB143:
	.loc 1 374 30 view .LVU522
	.loc 1 374 51 is_stmt 0 view .LVU523
	movs	r3, #0
	strh	r3, [sp, #33]	@ unaligned
	strb	r3, [sp, #35]
	movs	r2, #3
	strb	r2, [sp, #32]
	strb	r3, [sp, #34]
	.loc 1 374 176 is_stmt 1 view .LVU524
	.loc 1 374 186 is_stmt 0 view .LVU525
	ldr	r2, [sp, #32]
	str	r2, [sp, #52]
	.loc 1 374 186 view .LVU526
.LBE143:
.LBE145:
	.loc 1 374 12 is_stmt 1 view .LVU527
	.loc 1 374 19 view .LVU528
	.loc 1 374 40 is_stmt 0 view .LVU529
	bfi	r8, r3, #0, #1
	bfi	r8, r3, #1, #1
	bfi	r8, r3, #2, #1
	bfi	r8, r3, #3, #3
	movs	r2, #1
	bfi	r8, r2, #6, #3
	movs	r2, #12
	bfi	r8, r2, #9, #10
	bfi	r8, r3, #19, #12
	bfi	r8, r3, #31, #1
	.loc 1 374 175 is_stmt 1 view .LVU530
	mov	r2, r8
	ldr	r1, .L71+8
	add	r0, sp, #40
.LVL70:
	.loc 1 374 175 is_stmt 0 view .LVU531
	bl	z_log_msg2_finalize
.LVL71:
	.loc 1 374 175 view .LVU532
.LBE148:
	.loc 1 374 14 is_stmt 1 view .LVU533
	.loc 1 374 19 view .LVU534
.LVL72:
	.loc 1 374 59 view .LVU535
.LBE152:
	.loc 1 374 14 view .LVU536
	.loc 1 374 21 view .LVU537
	.loc 1 374 21 is_stmt 0 view .LVU538
.LBE157:
	.loc 1 374 84 is_stmt 1 view .LVU539
	.loc 1 375 4 view .LVU540
.L66:
	.loc 1 375 4 is_stmt 0 view .LVU541
.LBE173:
	.loc 1 346 21 is_stmt 1 discriminator 2 view .LVU542
	.loc 1 346 22 is_stmt 0 discriminator 2 view .LVU543
	adds	r5, r5, #1
.LVL73:
.L64:
	.loc 1 346 14 is_stmt 1 discriminator 1 view .LVU544
	.loc 1 346 2 is_stmt 0 discriminator 1 view .LVU545
	cmp	r5, #3
	bgt	.L69
.LBB174:
	.loc 1 347 3 is_stmt 1 view .LVU546
	.loc 1 348 3 view .LVU547
	.loc 1 349 3 view .LVU548
	.loc 1 351 3 view .LVU549
	.loc 1 351 21 is_stmt 0 view .LVU550
	uxtb	r0, r5
	bl	rx_tc2thread
.LVL74:
	.loc 1 353 3 is_stmt 1 view .LVU551
	.loc 1 353 12 is_stmt 0 view .LVU552
	sub	r7, r0, #16
.LVL75:
	.loc 1 357 3 is_stmt 1 view .LVU553
.LBB158:
	.loc 1 357 8 view .LVU554
.LBE158:
	.loc 1 357 279 view .LVU555
	.loc 1 366 3 view .LVU556
.LBB159:
	.loc 1 366 6 view .LVU557
	.loc 1 366 11 view .LVU558
	.loc 1 366 19 view .LVU559
	.loc 1 366 5 view .LVU560
	ldr	r9, .L71+24
	lsls	r4, r5, #4
	add	r6, r5, r5, lsl #4
	add	r6, r9, r6, lsl #4
.LVL76:
.LBB160:
.LBI160:
	.loc 2 580 20 view .LVU561
.LBB161:
	.loc 2 589 2 view .LVU562
	.loc 2 589 7 view .LVU563
	.loc 2 589 55 view .LVU564
	.loc 2 590 2 view .LVU565
	mov	r0, r6
.LVL77:
	.loc 2 590 2 is_stmt 0 view .LVU566
	bl	z_impl_k_queue_init
.LVL78:
	.loc 2 590 2 view .LVU567
.LBE161:
.LBE160:
	.loc 1 366 51 is_stmt 1 view .LVU568
	.loc 1 366 56 view .LVU569
	.loc 1 366 64 view .LVU570
.LBE159:
	.loc 1 368 3 view .LVU571
	.loc 1 368 9 is_stmt 0 view .LVU572
	adds	r0, r4, r5
	lsls	r0, r0, #4
	adds	r0, r0, #32
	add	r0, r0, r9
	.loc 1 368 57 view .LVU573
	add	r1, r5, r5, lsl #1
	ldr	r3, .L71+12
	add	r1, r3, r1, lsl #9
.LVL79:
.LBB162:
.LBI162:
	.loc 2 35 23 is_stmt 1 view .LVU574
.LBB163:
	.loc 2 53 2 view .LVU575
	.loc 2 53 7 view .LVU576
	.loc 2 53 55 view .LVU577
	.loc 2 54 2 view .LVU578
	.loc 2 54 9 is_stmt 0 view .LVU579
	mov	r2, #-1
	mov	r3, #-1
	strd	r2, [sp, #24]
	movs	r3, #0
	str	r3, [sp, #16]
	str	r7, [sp, #12]
	str	r3, [sp, #8]
	str	r3, [sp, #4]
	str	r6, [sp]
	ldr	r3, .L71+16
	mov	r2, #1504
	bl	z_impl_k_thread_create
.LVL80:
	.loc 2 54 9 view .LVU580
.LBE163:
.LBE162:
	.loc 1 373 3 is_stmt 1 view .LVU581
	.loc 1 373 6 is_stmt 0 view .LVU582
	mov	r4, r0
	cmp	r0, #0
	beq	.L70
	.loc 1 378 3 is_stmt 1 view .LVU583
.LBB164:
	.loc 1 379 4 view .LVU584
	.loc 1 381 4 view .LVU585
	mov	r3, r5
	ldr	r2, .L71+20
	movs	r1, #8
	add	r0, sp, #32
.LVL81:
	.loc 1 381 4 is_stmt 0 view .LVU586
	bl	snprintk
.LVL82:
	.loc 1 382 4 is_stmt 1 view .LVU587
.LBB165:
.LBI165:
	.loc 2 395 19 view .LVU588
.LBB166:
	.loc 2 403 2 view .LVU589
	.loc 2 403 7 view .LVU590
	.loc 2 403 55 view .LVU591
	.loc 2 404 2 view .LVU592
	.loc 2 404 9 is_stmt 0 view .LVU593
	add	r1, sp, #32
.LVL83:
	.loc 2 404 9 view .LVU594
	mov	r0, r4
	bl	z_impl_k_thread_name_set
.LVL84:
	.loc 2 404 9 view .LVU595
.LBE166:
.LBE165:
.LBE164:
	.loc 1 385 3 is_stmt 1 view .LVU596
.LBB167:
.LBI167:
	.loc 2 213 20 view .LVU597
.LBB168:
	.loc 2 222 2 view .LVU598
	.loc 2 222 7 view .LVU599
	.loc 2 222 55 view .LVU600
	.loc 2 223 2 view .LVU601
	mov	r0, r4
	bl	z_impl_k_thread_start
.LVL85:
	.loc 2 223 2 is_stmt 0 view .LVU602
.LBE168:
.LBE167:
	b	.L66
.LVL86:
.L69:
	.loc 2 223 2 view .LVU603
.LBE174:
	.loc 1 388 1 view .LVU604
	add	sp, sp, #68
	.cfi_def_cfa_offset 28
	@ sp needed
	pop	{r4, r5, r6, r7, r8, r9, pc}
.LVL87:
.L72:
	.loc 1 388 1 view .LVU605
	.align	2
.L71:
	.word	net_tc_rx_stats_priority_setup
	.word	.LC0
	.word	.LANCHOR6
	.word	rx_stack
	.word	tc_rx_handler
	.word	.LC2
	.word	.LANCHOR3
	.cfi_endproc
.LFE946:
	.size	net_tc_rx_init, .-net_tc_rx_init
	.global	rx_stack
	.global	tx_stack
	.global	log_const_net_tc
	.section	.rodata.str1.4,"aMS",%progbits,1
	.align	2
.LC3:
	.ascii	"net_tc\000"
	.section	.bss.rx_classes,"aw",%nobits
	.align	3
	.set	.LANCHOR3,. + 0
	.type	rx_classes, %object
	.size	rx_classes, 1088
rx_classes:
	.space	1088
	.section	.bss.tx_classes,"aw",%nobits
	.align	3
	.set	.LANCHOR2,. + 0
	.type	tx_classes, %object
	.size	tx_classes, 1632
tx_classes:
	.space	1632
	.section	.log_const_net_tc,"a"
	.align	2
	.set	.LANCHOR6,. + 0
	.type	log_const_net_tc, %object
	.size	log_const_net_tc, 8
log_const_net_tc:
	.word	.LC3
	.byte	3
	.space	3
	.section	.noinit."WEST_TOPDIR/zephyr/subsys/net/ip/net_tc.c".0,"aw"
	.align	7
	.type	tx_stack, %object
	.size	tx_stack, 7680
tx_stack:
	.space	7680
	.section	.noinit."WEST_TOPDIR/zephyr/subsys/net/ip/net_tc.c".1,"aw"
	.align	7
	.type	rx_stack, %object
	.size	rx_stack, 6144
rx_stack:
	.space	6144
	.section	.rodata.priority2tc_strict_4,"a"
	.align	2
	.set	.LANCHOR5,. + 0
	.type	priority2tc_strict_4, %object
	.size	priority2tc_strict_4, 8
priority2tc_strict_4:
	.ascii	"\000\000\001\001\002\002\003\003"
	.section	.rodata.priority2tc_strict_6,"a"
	.align	2
	.set	.LANCHOR4,. + 0
	.type	priority2tc_strict_6, %object
	.size	priority2tc_strict_6, 8
priority2tc_strict_6:
	.ascii	"\001\000\002\002\003\003\004\005"
	.section	.rodata.thread_priorities.15801,"a"
	.align	2
	.set	.LANCHOR0,. + 0
	.type	thread_priorities.15801, %object
	.size	thread_priorities.15801, 6
thread_priorities.15801:
	.ascii	"\017\016\015\014\013\012"
	.section	.rodata.thread_priorities.15805,"a"
	.align	2
	.set	.LANCHOR1,. + 0
	.type	thread_priorities.15805, %object
	.size	thread_priorities.15805, 4
thread_priorities.15805:
	.ascii	"\017\016\015\014"
	.text
.Letext0:
	.file 5 "/home/sebin/LIOT/gcc-arm-none-eabi-9-2019-q4-major/lib/gcc/arm-none-eabi/9.2.1/include/stddef.h"
	.file 6 "/home/sebin/LIOT/gcc-arm-none-eabi-9-2019-q4-major/arm-none-eabi/include/machine/_default_types.h"
	.file 7 "/home/sebin/LIOT/gcc-arm-none-eabi-9-2019-q4-major/arm-none-eabi/include/sys/_stdint.h"
	.file 8 "/home/sebin/thesis/zephyrproject/zephyr/include/logging/log_instance.h"
	.file 9 "/home/sebin/thesis/zephyrproject/zephyr/include/sys/atomic.h"
	.file 10 "/home/sebin/LIOT/gcc-arm-none-eabi-9-2019-q4-major/arm-none-eabi/include/sys/lock.h"
	.file 11 "/home/sebin/LIOT/gcc-arm-none-eabi-9-2019-q4-major/arm-none-eabi/include/sys/_types.h"
	.file 12 "/home/sebin/LIOT/gcc-arm-none-eabi-9-2019-q4-major/arm-none-eabi/include/sys/reent.h"
	.file 13 "/home/sebin/LIOT/gcc-arm-none-eabi-9-2019-q4-major/lib/gcc/arm-none-eabi/9.2.1/include/stdarg.h"
	.file 14 "/home/sebin/LIOT/gcc-arm-none-eabi-9-2019-q4-major/arm-none-eabi/include/sys/errno.h"
	.file 15 "/home/sebin/thesis/zephyrproject/zephyr/include/sys/cbprintf_internal.h"
	.file 16 "/home/sebin/thesis/zephyrproject/zephyr/include/logging/log_msg2.h"
	.file 17 "/home/sebin/thesis/zephyrproject/zephyr/include/logging/log_msg.h"
	.file 18 "/home/sebin/thesis/zephyrproject/zephyr/include/logging/log_core.h"
	.file 19 "/home/sebin/thesis/zephyrproject/zephyr/include/sys/dlist.h"
	.file 20 "/home/sebin/thesis/zephyrproject/zephyr/include/sys/rb.h"
	.file 21 "/home/sebin/thesis/zephyrproject/zephyr/include/sys/slist.h"
	.file 22 "/home/sebin/thesis/zephyrproject/zephyr/include/sys/sflist.h"
	.file 23 "/home/sebin/thesis/zephyrproject/zephyr/include/sys/sys_heap.h"
	.file 24 "/home/sebin/thesis/zephyrproject/zephyr/include/kernel_structs.h"
	.file 25 "/home/sebin/thesis/zephyrproject/zephyr/include/kernel/thread.h"
	.file 26 "/home/sebin/thesis/zephyrproject/zephyr/include/kernel.h"
	.file 27 "/home/sebin/thesis/zephyrproject/zephyr/include/sys/arch_interface.h"
	.file 28 "/home/sebin/thesis/zephyrproject/zephyr/include/kernel/thread_stack.h"
	.file 29 "/home/sebin/thesis/zephyrproject/zephyr/include/arch/arm/aarch32/thread.h"
	.file 30 "/home/sebin/thesis/zephyrproject/zephyr/include/arch/arm/aarch32/exc.h"
	.file 31 "/home/sebin/thesis/zephyrproject/zephyr/include/sw_isr_table.h"
	.file 32 "/home/sebin/thesis/zephyrproject/modules/hal/infineon/XMCLib/devices/XMC4500/Include/system_XMC4500.h"
	.file 33 "/home/sebin/thesis/zephyrproject/modules/hal/cmsis/CMSIS/Core/Include/core_cm4.h"
	.file 34 "/home/sebin/thesis/zephyrproject/zephyr/include/arch/arm/aarch32/mpu/arm_mpu_v7m.h"
	.file 35 "/home/sebin/thesis/zephyrproject/zephyr/include/arch/arm/aarch32/mpu/arm_mpu.h"
	.file 36 "/home/sebin/thesis/zephyrproject/zephyr/include/sys_clock.h"
	.file 37 "/home/sebin/thesis/zephyrproject/zephyr/include/spinlock.h"
	.file 38 "/home/sebin/thesis/zephyrproject/zephyr/include/net/net_timeout.h"
	.file 39 "/home/sebin/thesis/zephyrproject/zephyr/include/net/net_core.h"
	.file 40 "/home/sebin/thesis/zephyrproject/zephyr/include/net/buf.h"
	.file 41 "/home/sebin/thesis/zephyrproject/zephyr/include/net/net_linkaddr.h"
	.file 42 "/home/sebin/thesis/zephyrproject/zephyr/include/net/net_ip.h"
	.file 43 "/home/sebin/thesis/zephyrproject/zephyr/include/device.h"
	.file 44 "/home/sebin/thesis/dmz/zephyr_xmc_template/build/zephyr/include/generated/device_extern.h"
	.file 45 "/home/sebin/thesis/zephyrproject/zephyr/include/net/net_if.h"
	.file 46 "/home/sebin/thesis/zephyrproject/zephyr/include/net/net_pkt.h"
	.file 47 "/home/sebin/thesis/zephyrproject/zephyr/include/net/net_l2.h"
	.file 48 "/home/sebin/thesis/zephyrproject/zephyr/include/net/net_stats.h"
	.file 49 "/home/sebin/thesis/zephyrproject/zephyr/include/net/net_context.h"
	.file 50 "/home/sebin/thesis/zephyrproject/zephyr/include/net/ptp_time.h"
	.file 51 "/home/sebin/thesis/zephyrproject/zephyr/subsys/net/ip/net_tc_mapping.h"
	.file 52 "/home/sebin/thesis/dmz/zephyr_xmc_template/build/zephyr/include/generated/syscalls/log_msg2.h"
	.file 53 "/home/sebin/thesis/zephyrproject/zephyr/include/sys/printk.h"
	.file 54 "/home/sebin/thesis/zephyrproject/zephyr/subsys/net/ip/net_private.h"
	.file 55 "<built-in>"
	.file 56 "/home/sebin/thesis/zephyrproject/zephyr/include/arch/structs.h"