	.cpu cortex-m4
	.eabi_attribute 27, 1
	.eabi_attribute 28, 1
	.eabi_attribute 20, 1
	.eabi_attribute 21, 1
	.eabi_attribute 23, 3
	.eabi_attribute 24, 1
	.eabi_attribute 25, 1
	.eabi_attribute 26, 1
	.eabi_attribute 30, 1
	.eabi_attribute 34, 1
	.eabi_attribute 38, 1
	.eabi_attribute 18, 4
	.file	"net_context.c"
	.text
.Ltext0:
	.cfi_sections	.debug_frame
	.section	.text.get_context_priority,"ax",%progbits
	.align	1
	.arch armv7e-m
	.syntax unified
	.thumb
	.thumb_func
	.fpu fpv4-sp-d16
	.type	get_context_priority, %function
get_context_priority:
.LVL0:
.LFB1034:
	.file 1 "/home/sebin/thesis/zephyrproject/zephyr/subsys/net/ip/net_context.c"
	.loc 1 1162 1 view -0
	.cfi_startproc
	@ args = 0, pretend = 0, frame = 0
	@ frame_needed = 0, uses_anonymous_args = 0
	@ link register save eliminated.
	.loc 1 1164 2 view .LVU1
	.loc 1 1164 40 is_stmt 0 view .LVU2
	ldrb	r3, [r0, #108]	@ zero_extendqisi2
	.loc 1 1164 22 view .LVU3
	strb	r3, [r1]
	.loc 1 1166 2 is_stmt 1 view .LVU4
	.loc 1 1166 5 is_stmt 0 view .LVU5
	mov	r3, r2
	cbz	r2, .L2
	.loc 1 1167 3 is_stmt 1 view .LVU6
	.loc 1 1167 8 is_stmt 0 view .LVU7
	movs	r2, #1
.LVL1:
	.loc 1 1167 8 view .LVU8
	str	r2, [r3]
.L2:
	.loc 1 1170 2 is_stmt 1 view .LVU9
	.loc 1 1174 1 is_stmt 0 view .LVU10
	movs	r0, #0
.LVL2:
	.loc 1 1174 1 view .LVU11
	bx	lr
	.cfi_endproc
.LFE1034:
	.size	get_context_priority, .-get_context_priority
	.section	.text.get_context_proxy,"ax",%progbits
	.align	1
	.syntax unified
	.thumb
	.thumb_func
	.fpu fpv4-sp-d16
	.type	get_context_proxy, %function
get_context_proxy:
.LVL3:
.LFB1035:
	.loc 1 1178 1 is_stmt 1 view -0
	.cfi_startproc
	@ args = 0, pretend = 0, frame = 0
	@ frame_needed = 0, uses_anonymous_args = 0
	@ link register save eliminated.
	.loc 1 1196 2 view .LVU13
	.loc 1 1198 1 is_stmt 0 view .LVU14
	mvn	r0, #133
.LVL4:
	.loc 1 1198 1 view .LVU15
	bx	lr
	.cfi_endproc
.LFE1035:
	.size	get_context_proxy, .-get_context_proxy
	.section	.text.get_context_txtime,"ax",%progbits
	.align	1
	.syntax unified
	.thumb
	.thumb_func
	.fpu fpv4-sp-d16
	.type	get_context_txtime, %function
get_context_txtime:
.LVL5:
.LFB1036:
	.loc 1 1202 1 is_stmt 1 view -0
	.cfi_startproc
	@ args = 0, pretend = 0, frame = 0
	@ frame_needed = 0, uses_anonymous_args = 0
	@ link register save eliminated.
	.loc 1 1212 2 view .LVU17
	.loc 1 1214 1 is_stmt 0 view .LVU18
	mvn	r0, #133
.LVL6:
	.loc 1 1214 1 view .LVU19
	bx	lr
	.cfi_endproc
.LFE1036:
	.size	get_context_txtime, .-get_context_txtime
	.section	.text.get_context_rcvtimeo,"ax",%progbits
	.align	1
	.syntax unified
	.thumb
	.thumb_func
	.fpu fpv4-sp-d16
	.type	get_context_rcvtimeo, %function
get_context_rcvtimeo:
.LVL7:
.LFB1037:
	.loc 1 1218 1 is_stmt 1 view -0
	.cfi_startproc
	@ args = 0, pretend = 0, frame = 0
	@ frame_needed = 0, uses_anonymous_args = 0
	@ link register save eliminated.
	.loc 1 1228 2 view .LVU21
	.loc 1 1230 1 is_stmt 0 view .LVU22
	mvn	r0, #133
.LVL8:
	.loc 1 1230 1 view .LVU23
	bx	lr
	.cfi_endproc
.LFE1037:
	.size	get_context_rcvtimeo, .-get_context_rcvtimeo
	.section	.text.get_context_sndtimeo,"ax",%progbits
	.align	1
	.syntax unified
	.thumb
	.thumb_func
	.fpu fpv4-sp-d16
	.type	get_context_sndtimeo, %function
get_context_sndtimeo:
.LVL9:
.LFB1038:
	.loc 1 1234 1 is_stmt 1 view -0
	.cfi_startproc
	@ args = 0, pretend = 0, frame = 0
	@ frame_needed = 0, uses_anonymous_args = 0
	@ link register save eliminated.
	.loc 1 1244 2 view .LVU25
	.loc 1 1246 1 is_stmt 0 view .LVU26
	mvn	r0, #133
.LVL10:
	.loc 1 1246 1 view .LVU27
	bx	lr
	.cfi_endproc
.LFE1038:
	.size	get_context_sndtimeo, .-get_context_sndtimeo
	.section	.text.set_context_priority,"ax",%progbits
	.align	1
	.syntax unified
	.thumb
	.thumb_func
	.fpu fpv4-sp-d16
	.type	set_context_priority, %function
set_context_priority:
.LVL11:
.LFB1054:
	.loc 1 2131 1 is_stmt 1 view -0
	.cfi_startproc
	@ args = 0, pretend = 0, frame = 0
	@ frame_needed = 0, uses_anonymous_args = 0
	@ link register save eliminated.
	.loc 1 2133 2 view .LVU29
	.loc 1 2133 5 is_stmt 0 view .LVU30
	cmp	r2, #1
	bhi	.L9
	.loc 1 2137 2 is_stmt 1 view .LVU31
	.loc 1 2137 30 is_stmt 0 view .LVU32
	ldrb	r3, [r1]	@ zero_extendqisi2
	.loc 1 2137 28 view .LVU33
	strb	r3, [r0, #108]
	.loc 1 2139 2 is_stmt 1 view .LVU34
	.loc 1 2139 9 is_stmt 0 view .LVU35
	movs	r0, #0
.LVL12:
	.loc 1 2139 9 view .LVU36
	bx	lr
.LVL13:
.L9:
	.loc 1 2134 10 view .LVU37
	mvn	r0, #21
.LVL14:
	.loc 1 2143 1 view .LVU38
	bx	lr
	.cfi_endproc
.LFE1054:
	.size	set_context_priority, .-set_context_priority
	.section	.text.set_context_txtime,"ax",%progbits
	.align	1
	.syntax unified
	.thumb
	.thumb_func
	.fpu fpv4-sp-d16
	.type	set_context_txtime, %function
set_context_txtime:
.LVL15:
.LFB1055:
	.loc 1 2147 1 is_stmt 1 view -0
	.cfi_startproc
	@ args = 0, pretend = 0, frame = 0
	@ frame_needed = 0, uses_anonymous_args = 0
	@ link register save eliminated.
	.loc 1 2157 2 view .LVU40
	.loc 1 2159 1 is_stmt 0 view .LVU41
	mvn	r0, #133
.LVL16:
	.loc 1 2159 1 view .LVU42
	bx	lr
	.cfi_endproc
.LFE1055:
	.size	set_context_txtime, .-set_context_txtime
	.section	.text.set_context_proxy,"ax",%progbits
	.align	1
	.syntax unified
	.thumb
	.thumb_func
	.fpu fpv4-sp-d16
	.type	set_context_proxy, %function
set_context_proxy:
.LVL17:
.LFB1056:
	.loc 1 2163 1 is_stmt 1 view -0
	.cfi_startproc
	@ args = 0, pretend = 0, frame = 0
	@ frame_needed = 0, uses_anonymous_args = 0
	@ link register save eliminated.
	.loc 1 2180 2 view .LVU44
	.loc 1 2182 1 is_stmt 0 view .LVU45
	mvn	r0, #133
.LVL18:
	.loc 1 2182 1 view .LVU46
	bx	lr
	.cfi_endproc
.LFE1056:
	.size	set_context_proxy, .-set_context_proxy
	.section	.text.set_context_rcvtimeo,"ax",%progbits
	.align	1
	.syntax unified
	.thumb
	.thumb_func
	.fpu fpv4-sp-d16
	.type	set_context_rcvtimeo, %function
set_context_rcvtimeo:
.LVL19:
.LFB1057:
	.loc 1 2186 1 is_stmt 1 view -0
	.cfi_startproc
	@ args = 0, pretend = 0, frame = 0
	@ frame_needed = 0, uses_anonymous_args = 0
	@ link register save eliminated.
	.loc 1 2196 2 view .LVU48
	.loc 1 2198 1 is_stmt 0 view .LVU49
	mvn	r0, #133
.LVL20:
	.loc 1 2198 1 view .LVU50
	bx	lr
	.cfi_endproc
.LFE1057:
	.size	set_context_rcvtimeo, .-set_context_rcvtimeo
	.section	.text.set_context_sndtimeo,"ax",%progbits
	.align	1
	.syntax unified
	.thumb
	.thumb_func
	.fpu fpv4-sp-d16
	.type	set_context_sndtimeo, %function
set_context_sndtimeo:
.LVL21:
.LFB1058:
	.loc 1 2202 1 is_stmt 1 view -0
	.cfi_startproc
	@ args = 0, pretend = 0, frame = 0
	@ frame_needed = 0, uses_anonymous_args = 0
	@ link register save eliminated.
	.loc 1 2212 2 view .LVU52
	.loc 1 2214 1 is_stmt 0 view .LVU53
	mvn	r0, #133
.LVL22:
	.loc 1 2214 1 view .LVU54
	bx	lr
	.cfi_endproc
.LFE1058:
	.size	set_context_sndtimeo, .-set_context_sndtimeo
	.section	.text.check_used_port,"ax",%progbits
	.align	1
	.syntax unified
	.thumb
	.thumb_func
	.fpu fpv4-sp-d16
	.type	check_used_port, %function
check_used_port:
.LVL23:
.LFB1019:
	.loc 1 67 1 is_stmt 1 view -0
	.cfi_startproc
	@ args = 0, pretend = 0, frame = 0
	@ frame_needed = 0, uses_anonymous_args = 0
	.loc 1 67 1 is_stmt 0 view .LVU56
	push	{r3, r4, r5, r6, r7, lr}
	.cfi_def_cfa_offset 24
	.cfi_offset 3, -24
	.cfi_offset 4, -20
	.cfi_offset 5, -16
	.cfi_offset 6, -12
	.cfi_offset 7, -8
	.cfi_offset 14, -4
	mov	r5, r0
	mov	r6, r1
	mov	r7, r2
	.loc 1 68 2 is_stmt 1 view .LVU57
	.loc 1 70 2 view .LVU58
.LVL24:
	.loc 1 70 9 is_stmt 0 view .LVU59
	movs	r4, #0
	.loc 1 70 2 view .LVU60
	b	.L15
.LVL25:
.L25:
	.loc 1 83 4 is_stmt 1 view .LVU61
	.file 2 "/home/sebin/thesis/zephyrproject/zephyr/include/net/net_ip.h"
	.loc 2 1392 2 view .LVU62
	.loc 1 83 40 is_stmt 0 view .LVU63
	ldr	r0, [r2, #4]
	.loc 1 83 7 view .LVU64
	cbz	r0, .L16
	.loc 1 87 4 is_stmt 1 view .LVU65
.LVL26:
	.loc 2 1392 2 view .LVU66
.LBB770:
.LBI770:
	.loc 2 803 19 view .LVU67
.LBB771:
	.loc 2 806 2 view .LVU68
	.loc 2 806 10 is_stmt 0 view .LVU69
	movs	r2, #16
	adds	r1, r7, #4
.LVL27:
	.loc 2 806 10 view .LVU70
	bl	memcmp
.LVL28:
	.loc 2 806 10 view .LVU71
.LBE771:
.LBE770:
	.loc 1 87 7 view .LVU72
	cbz	r0, .L23
.L16:
	.loc 1 70 22 is_stmt 1 discriminator 2 view .LVU73
	.loc 1 70 23 is_stmt 0 discriminator 2 view .LVU74
	adds	r4, r4, #1
.LVL29:
.L15:
	.loc 1 70 14 is_stmt 1 discriminator 1 view .LVU75
	.loc 1 70 2 is_stmt 0 discriminator 1 view .LVU76
	cmp	r4, #9
	bgt	.L24
	.loc 1 71 3 is_stmt 1 view .LVU77
.LVL30:
.LBB772:
.LBI772:
	.file 3 "/home/sebin/thesis/zephyrproject/zephyr/include/net/net_context.h"
	.loc 3 339 19 view .LVU78
.LBB773:
	.loc 3 341 4 view .LVU79
	.loc 3 341 5 view .LVU80
	.loc 3 343 2 view .LVU81
	.loc 3 343 16 is_stmt 0 view .LVU82
	ldr	r2, .L26
	movs	r3, #116
	mla	r3, r3, r4, r2
	ldrh	r3, [r3, #112]
.LVL31:
	.loc 3 343 16 view .LVU83
.LBE773:
.LBE772:
	.loc 1 71 6 view .LVU84
	tst	r3, #1
	beq	.L16
	.loc 1 75 3 is_stmt 1 view .LVU85
.LVL32:
.LBB774:
.LBI774:
	.loc 3 601 24 view .LVU86
.LBB775:
	.loc 3 603 2 view .LVU87
	.loc 3 603 16 is_stmt 0 view .LVU88
	movs	r3, #116
	mla	r3, r3, r4, r2
	ldrh	r3, [r3, #110]
.LVL33:
	.loc 3 603 16 view .LVU89
.LBE775:
.LBE774:
	.loc 1 75 48 view .LVU90
	uxth	r2, r5
	.loc 1 75 6 view .LVU91
	cmp	r2, r3
	bne	.L16
	.loc 1 76 36 discriminator 1 view .LVU92
	movs	r3, #116
	mul	r3, r3, r4
	adds	r3, r3, #24
	ldr	r2, .L26
	add	r3, r3, r2
	adds	r2, r3, #4
.LVL34:
	.loc 2 1378 2 is_stmt 1 discriminator 1 view .LVU93
	.loc 1 77 28 is_stmt 0 discriminator 1 view .LVU94
	ldrh	r3, [r3, #6]
	.loc 1 75 7 discriminator 1 view .LVU95
	cmp	r3, r6
	bne	.L16
	.loc 1 81 3 is_stmt 1 view .LVU96
	.loc 1 82 17 is_stmt 0 view .LVU97
	ldrh	r3, [r7]
	.loc 1 81 6 view .LVU98
	cmp	r3, #2
	beq	.L25
	.loc 1 94 10 is_stmt 1 view .LVU99
	.loc 1 94 13 is_stmt 0 view .LVU100
	cmp	r3, #1
	bne	.L16
	.loc 1 96 4 is_stmt 1 view .LVU101
.LVL35:
	.loc 2 1406 2 view .LVU102
	.loc 1 96 39 is_stmt 0 view .LVU103
	ldr	r3, [r2, #4]
	.loc 1 96 7 view .LVU104
	cmp	r3, #0
	beq	.L16
	.loc 1 100 4 is_stmt 1 view .LVU105
.LVL36:
	.loc 2 1406 2 view .LVU106
.LBB776:
.LBI776:
	.loc 2 774 19 view .LVU107
.LBE776:
	.loc 2 777 2 view .LVU108
.LBB779:
.LBB777:
	.loc 2 777 26 view .LVU109
	.loc 2 777 143 view .LVU110
	.loc 2 777 146 is_stmt 0 view .LVU111
	ldr	r3, [r3]	@ unaligned
.LVL37:
	.loc 2 777 146 view .LVU112
.LBE777:
.LBB778:
	.loc 2 777 176 is_stmt 1 view .LVU113
	.loc 2 777 293 view .LVU114
	.loc 2 777 296 is_stmt 0 view .LVU115
	ldr	r2, [r7, #4]	@ unaligned
.LVL38:
	.loc 2 777 296 view .LVU116
.LBE778:
.LBE779:
	.loc 1 100 7 view .LVU117
	cmp	r2, r3
	bne	.L16
	.loc 1 105 12 view .LVU118
	mvn	r0, #16
	b	.L14
.LVL39:
.L24:
	.loc 1 110 9 view .LVU119
	movs	r0, #0
.L14:
	.loc 1 111 1 view .LVU120
	pop	{r3, r4, r5, r6, r7, pc}
.LVL40:
.L23:
	.loc 1 92 12 view .LVU121
	mvn	r0, #16
	b	.L14
.L27:
	.align	2
.L26:
	.word	.LANCHOR0
	.cfi_endproc
.LFE1019:
	.size	check_used_port, .-check_used_port
	.section	.text.find_available_port,"ax",%progbits
	.align	1
	.syntax unified
	.thumb
	.thumb_func
	.fpu fpv4-sp-d16
	.type	find_available_port, %function
find_available_port:
.LVL41:
.LFB1020:
	.loc 1 115 1 is_stmt 1 view -0
	.cfi_startproc
	@ args = 0, pretend = 0, frame = 0
	@ frame_needed = 0, uses_anonymous_args = 0
	.loc 1 115 1 is_stmt 0 view .LVU123
	push	{r4, r5, r6, lr}
	.cfi_def_cfa_offset 16
	.cfi_offset 4, -16
	.cfi_offset 5, -12
	.cfi_offset 6, -8
	.cfi_offset 14, -4
	mov	r6, r0
	mov	r5, r1
.LVL42:
.L29:
	.loc 1 116 2 is_stmt 1 view .LVU124
	.loc 1 118 2 view .LVU125
	.loc 1 119 3 view .LVU126
.LBB780:
.LBI780:
	.file 4 "/home/sebin/thesis/dmz/zephyr_xmc_template/build/zephyr/include/generated/syscalls/rand32.h"
	.loc 4 35 24 view .LVU127
.LBB781:
	.loc 4 43 2 view .LVU128
	.loc 4 43 7 view .LVU129
	.loc 4 43 55 view .LVU130
	.loc 4 44 2 view .LVU131
	.loc 4 44 9 is_stmt 0 view .LVU132
	bl	z_impl_sys_rand32_get
.LVL43:
.LBE781:
.LBE780:
	.loc 1 119 14 view .LVU133
	mvn	r0, r0, lsl #17
	mvn	r0, r0, lsr #17
	uxth	r3, r0
.LVL44:
	.loc 1 120 3 is_stmt 1 view .LVU134
	.loc 1 124 10 view .LVU135
.LBB782:
.LBI782:
	.loc 3 601 24 view .LVU136
.LBB783:
	.loc 3 603 2 view .LVU137
	.loc 3 603 2 is_stmt 0 view .LVU138
.LBE783:
.LBE782:
	.loc 1 125 48 view .LVU139
	ubfx	r4, r0, #8, #8
	orr	r4, r4, r3, lsl #8
	.loc 1 124 11 view .LVU140
	uxth	r4, r4
	mov	r2, r5
	mov	r1, r4
	ldrb	r0, [r6, #110]	@ zero_extendqisi2
	bl	check_used_port
.LVL45:
	.loc 1 125 40 view .LVU141
	cmn	r0, #17
	beq	.L29
	.loc 1 127 2 is_stmt 1 view .LVU142
	.loc 1 128 1 is_stmt 0 view .LVU143
	mov	r0, r4
	pop	{r4, r5, r6, pc}
	.loc 1 128 1 view .LVU144
	.cfi_endproc
.LFE1020:
	.size	find_available_port, .-find_available_port
	.section	.text.z_log_msg2_runtime_create,"ax",%progbits
	.align	1
	.syntax unified
	.thumb
	.thumb_func
	.fpu fpv4-sp-d16
	.type	z_log_msg2_runtime_create, %function
z_log_msg2_runtime_create:
.LVL46:
.LFB40:
	.file 5 "/home/sebin/thesis/zephyrproject/zephyr/include/logging/log_msg2.h"
	.loc 5 490 1 is_stmt 1 view -0
	.cfi_startproc
	@ args = 8, pretend = 0, frame = 8
	@ frame_needed = 0, uses_anonymous_args = 1
	.loc 5 490 1 is_stmt 0 view .LVU146
	push	{r4, lr}
	.cfi_def_cfa_offset 8
	.cfi_offset 4, -8
	.cfi_offset 14, -4
	sub	sp, sp, #24
	.cfi_def_cfa_offset 32
	.loc 5 491 2 is_stmt 1 view .LVU147
	.loc 5 493 1 view .LVU148
	add	r4, sp, #40
	str	r4, [sp, #20]
	.loc 5 494 2 view .LVU149
.LVL47:
.LBB784:
.LBI784:
	.file 6 "/home/sebin/thesis/dmz/zephyr_xmc_template/build/zephyr/include/generated/syscalls/log_msg2.h"
	.loc 6 59 20 view .LVU150
.LBB785:
	.loc 6 72 2 view .LVU151
	.loc 6 72 7 view .LVU152
	.loc 6 72 55 view .LVU153
	.loc 6 73 2 view .LVU154
	str	r4, [sp, #8]
	ldr	r4, [sp, #36]
	str	r4, [sp, #4]
	ldr	r4, [sp, #32]
	str	r4, [sp]
	bl	z_impl_z_log_msg2_runtime_vcreate
.LVL48:
	.loc 6 73 2 is_stmt 0 view .LVU155
.LBE785:
.LBE784:
	.loc 5 496 1 is_stmt 1 view .LVU156
	.loc 5 497 1 is_stmt 0 view .LVU157
	add	sp, sp, #24
	.cfi_def_cfa_offset 8
	@ sp needed
	pop	{r4, pc}
	.loc 5 497 1 view .LVU158
	.cfi_endproc
.LFE40:
	.size	z_log_msg2_runtime_create, .-z_log_msg2_runtime_create
	.section	.text.context_alloc_pkt,"ax",%progbits
	.align	1
	.syntax unified
	.thumb
	.thumb_func
	.fpu fpv4-sp-d16
	.type	context_alloc_pkt, %function
context_alloc_pkt:
.LVL49:
.LFB1042:
	.loc 1 1354 1 is_stmt 1 view -0
	.cfi_startproc
	@ args = 0, pretend = 0, frame = 0
	@ frame_needed = 0, uses_anonymous_args = 0
	.loc 1 1354 1 is_stmt 0 view .LVU160
	push	{r4, r5, r6, r7, lr}
	.cfi_def_cfa_offset 20
	.cfi_offset 4, -20
	.cfi_offset 5, -16
	.cfi_offset 6, -12
	.cfi_offset 7, -8
	.cfi_offset 14, -4
	sub	sp, sp, #12
	.cfi_def_cfa_offset 32
	mov	r4, r0
	mov	r5, r1
	mov	r7, r2
.LVL50:
	.loc 1 1354 1 view .LVU161
	mov	r6, r3
	.loc 1 1355 2 is_stmt 1 view .LVU162
	.loc 1 1378 2 view .LVU163
.LVL51:
.LBB786:
.LBI786:
	.loc 3 633 16 view .LVU164
.LBB787:
	.loc 3 635 4 view .LVU165
	.loc 3 635 5 view .LVU166
	.loc 3 637 2 view .LVU167
	.loc 3 637 36 is_stmt 0 view .LVU168
	ldrsb	r0, [r0, #114]
.LVL52:
.LBB788:
.LBI788:
	.file 7 "/home/sebin/thesis/dmz/zephyr_xmc_template/build/zephyr/include/generated/syscalls/net_if.h"
	.loc 7 219 31 is_stmt 1 view .LVU169
.LBB789:
	.loc 7 227 2 view .LVU170
	.loc 7 227 7 view .LVU171
	.loc 7 227 55 view .LVU172
	.loc 7 228 2 view .LVU173
	.loc 7 228 9 is_stmt 0 view .LVU174
	bl	z_impl_net_if_get_by_index
.LVL53:
	.loc 7 228 9 view .LVU175
.LBE789:
.LBE788:
.LBE787:
.LBE786:
.LBB790:
.LBI790:
	.loc 3 467 27 is_stmt 1 view .LVU176
.LBB791:
	.loc 3 469 4 view .LVU177
	.loc 3 469 5 view .LVU178
	.loc 3 471 2 view .LVU179
	.loc 3 471 18 is_stmt 0 view .LVU180
	ldrh	r2, [r4, #112]
.LVL54:
	.loc 3 471 18 view .LVU181
.LBE791:
.LBE790:
.LBB792:
.LBI792:
	.loc 3 601 24 is_stmt 1 view .LVU182
.LBB793:
	.loc 3 603 2 view .LVU183
	.loc 3 603 2 is_stmt 0 view .LVU184
.LBE793:
.LBE792:
	.loc 1 1378 8 view .LVU185
	str	r7, [sp]
.LVL55:
	.loc 1 1378 8 view .LVU186
	str	r6, [sp, #4]
	ldrb	r3, [r4, #110]	@ zero_extendqisi2
	ubfx	r2, r2, #3, #3
	mov	r1, r5
	bl	net_pkt_alloc_with_buffer
.LVL56:
	.loc 1 1382 2 is_stmt 1 view .LVU187
	.loc 1 1382 5 is_stmt 0 view .LVU188
	cbz	r0, .L33
	.loc 1 1383 3 is_stmt 1 view .LVU189
.LVL57:
.LBB794:
.LBI794:
	.file 8 "/home/sebin/thesis/zephyrproject/zephyr/include/net/net_pkt.h"
	.loc 8 287 20 view .LVU190
.LBB795:
	.loc 8 290 2 view .LVU191
	.loc 8 290 15 is_stmt 0 view .LVU192
	str	r4, [r0, #20]
.LVL58:
	.loc 8 290 15 view .LVU193
.LBE795:
.LBE794:
	.loc 1 1386 2 is_stmt 1 view .LVU194
.L33:
	.loc 1 1387 1 is_stmt 0 view .LVU195
	add	sp, sp, #12
	.cfi_def_cfa_offset 20
	@ sp needed
	pop	{r4, r5, r6, r7, pc}
	.loc 1 1387 1 view .LVU196
	.cfi_endproc
.LFE1042:
	.size	context_alloc_pkt, .-context_alloc_pkt
	.section	.text.context_finalize_packet,"ax",%progbits
	.align	1
	.syntax unified
	.thumb
	.thumb_func
	.fpu fpv4-sp-d16
	.type	context_finalize_packet, %function
context_finalize_packet:
.LVL59:
.LFB1041:
	.loc 1 1336 1 is_stmt 1 view -0
	.cfi_startproc
	@ args = 0, pretend = 0, frame = 0
	@ frame_needed = 0, uses_anonymous_args = 0
	.loc 1 1336 1 is_stmt 0 view .LVU198
	push	{r3, r4, r5, lr}
	.cfi_def_cfa_offset 16
	.cfi_offset 3, -16
	.cfi_offset 4, -12
	.cfi_offset 5, -8
	.cfi_offset 14, -4
	mov	r5, r0
	mov	r4, r1
	.loc 1 1341 2 is_stmt 1 view .LVU199
	mov	r0, r1
.LVL60:
	.loc 1 1341 2 is_stmt 0 view .LVU200
	bl	net_pkt_cursor_init
.LVL61:
	.loc 1 1343 2 is_stmt 1 view .LVU201
.LBB796:
.LBI796:
	.loc 3 467 27 view .LVU202
.LBB797:
	.loc 3 469 4 view .LVU203
	.loc 3 469 5 view .LVU204
	.loc 3 471 2 view .LVU205
	.loc 3 471 18 is_stmt 0 view .LVU206
	ldrh	r3, [r5, #112]
	.loc 3 471 74 view .LVU207
	ubfx	r3, r3, #3, #3
.LVL62:
	.loc 3 471 74 view .LVU208
.LBE797:
.LBE796:
	.loc 1 1343 5 view .LVU209
	cmp	r3, #2
	beq	.L40
	.loc 1 1346 9 is_stmt 1 view .LVU210
.LVL63:
	.loc 3 469 4 view .LVU211
	.loc 3 469 5 view .LVU212
	.loc 3 471 2 view .LVU213
	.loc 1 1346 12 is_stmt 0 view .LVU214
	cmp	r3, #1
	beq	.L41
.L36:
	.loc 1 1350 1 view .LVU215
	pop	{r3, r4, r5, pc}
.LVL64:
.L40:
	.loc 1 1345 3 is_stmt 1 view .LVU216
.LBB798:
.LBI798:
	.loc 3 601 24 view .LVU217
.LBB799:
	.loc 3 603 2 view .LVU218
	.loc 3 603 2 is_stmt 0 view .LVU219
.LBE799:
.LBE798:
	.loc 1 1345 3 view .LVU220
	ldrb	r1, [r5, #110]	@ zero_extendqisi2
	mov	r0, r4
	bl	net_ipv6_finalize
.LVL65:
	b	.L36
.L41:
	.loc 1 1348 3 is_stmt 1 view .LVU221
.LVL66:
.LBB800:
.LBI800:
	.loc 3 601 24 view .LVU222
.LBB801:
	.loc 3 603 2 view .LVU223
	.loc 3 603 2 is_stmt 0 view .LVU224
.LBE801:
.LBE800:
	.loc 1 1348 3 view .LVU225
	ldrb	r1, [r5, #110]	@ zero_extendqisi2
	mov	r0, r4
	bl	net_ipv4_finalize
.LVL67:
	.loc 1 1350 1 view .LVU226
	b	.L36
	.cfi_endproc
.LFE1041:
	.size	context_finalize_packet, .-context_finalize_packet
	.section	.text.context_write_data,"ax",%progbits
	.align	1
	.syntax unified
	.thumb
	.thumb_func
	.fpu fpv4-sp-d16
	.type	context_write_data, %function
context_write_data:
.LVL68:
.LFB1039:
	.loc 1 1253 1 is_stmt 1 view -0
	.cfi_startproc
	@ args = 0, pretend = 0, frame = 0
	@ frame_needed = 0, uses_anonymous_args = 0
	.loc 1 1253 1 is_stmt 0 view .LVU228
	push	{r4, r5, r6, r7, r8, lr}
	.cfi_def_cfa_offset 24
	.cfi_offset 4, -24
	.cfi_offset 5, -20
	.cfi_offset 6, -16
	.cfi_offset 7, -12
	.cfi_offset 8, -8
	.cfi_offset 14, -4
	mov	r8, r0
	mov	r6, r2
	.loc 1 1254 2 is_stmt 1 view .LVU229
.LVL69:
	.loc 1 1256 2 view .LVU230
	.loc 1 1256 5 is_stmt 0 view .LVU231
	cbz	r3, .L50
	mov	r7, r3
.LBB802:
	.loc 1 1259 10 view .LVU232
	movs	r5, #0
.LBE802:
	.loc 1 1254 6 view .LVU233
	mov	r0, r5
.LVL70:
.L43:
.LBB804:
	.loc 1 1259 15 is_stmt 1 discriminator 1 view .LVU234
	.loc 1 1259 25 is_stmt 0 discriminator 1 view .LVU235
	ldr	r3, [r7, #12]
	.loc 1 1259 3 discriminator 1 view .LVU236
	cmp	r3, r5
	bls	.L42
.LBB803:
	.loc 1 1260 4 is_stmt 1 view .LVU237
	.loc 1 1260 23 is_stmt 0 view .LVU238
	ldr	r3, [r7, #8]
	.loc 1 1260 32 view .LVU239
	add	r2, r3, r5, lsl #3
	.loc 1 1260 35 view .LVU240
	ldr	r4, [r2, #4]
	.loc 1 1260 89 view .LVU241
	cmp	r4, r6
	it	cs
	movcs	r4, r6
.LVL71:
	.loc 1 1262 4 is_stmt 1 view .LVU242
	.loc 1 1262 10 is_stmt 0 view .LVU243
	mov	r2, r4
	ldr	r1, [r3, r5, lsl #3]
	mov	r0, r8
.LVL72:
	.loc 1 1262 10 view .LVU244
	bl	net_pkt_write
.LVL73:
	.loc 1 1264 4 is_stmt 1 view .LVU245
	.loc 1 1264 7 is_stmt 0 view .LVU246
	cmp	r0, #0
	.loc 1 1264 7 view .LVU247
	blt	.L42
	.loc 1 1268 4 is_stmt 1 view .LVU248
.LVL74:
	.loc 1 1269 4 view .LVU249
	.loc 1 1269 7 is_stmt 0 view .LVU250
	subs	r6, r6, r4
.LVL75:
	.loc 1 1269 7 view .LVU251
	beq	.L42
.LBE803:
	.loc 1 1259 39 is_stmt 1 discriminator 2 view .LVU252
	.loc 1 1259 40 is_stmt 0 discriminator 2 view .LVU253
	adds	r5, r5, #1
.LVL76:
	.loc 1 1259 40 discriminator 2 view .LVU254
	b	.L43
.LVL77:
.L50:
	.loc 1 1259 40 discriminator 2 view .LVU255
.LBE804:
	.loc 1 1274 3 is_stmt 1 view .LVU256
	.loc 1 1274 9 is_stmt 0 view .LVU257
	bl	net_pkt_write
.LVL78:
	.loc 1 1277 2 is_stmt 1 view .LVU258
.L42:
	.loc 1 1278 1 is_stmt 0 view .LVU259
	pop	{r4, r5, r6, r7, r8, pc}
	.loc 1 1278 1 view .LVU260
	.cfi_endproc
.LFE1039:
	.size	context_write_data, .-context_write_data
	.section	.text.net_context_packet_received,"ax",%progbits
	.align	1
	.global	net_context_packet_received
	.syntax unified
	.thumb
	.thumb_func
	.fpu fpv4-sp-d16
	.type	net_context_packet_received, %function
net_context_packet_received:
.LVL79:
.LFB1048:
	.loc 1 1833 1 is_stmt 1 view -0
	.cfi_startproc
	@ args = 4, pretend = 0, frame = 0
	@ frame_needed = 0, uses_anonymous_args = 0
	.loc 1 1833 1 is_stmt 0 view .LVU262
	push	{r4, r5, r6, r7, r8, r9, lr}
	.cfi_def_cfa_offset 28
	.cfi_offset 4, -28
	.cfi_offset 5, -24
	.cfi_offset 6, -20
	.cfi_offset 7, -16
	.cfi_offset 8, -12
	.cfi_offset 9, -8
	.cfi_offset 14, -4
	sub	sp, sp, #12
	.cfi_def_cfa_offset 40
	mov	r6, r1
	mov	r7, r2
	mov	r8, r3
	.loc 1 1834 2 is_stmt 1 view .LVU263
.LVL80:
.LBB805:
.LBI805:
	.loc 1 835 35 view .LVU264
.LBB806:
	.loc 1 837 2 view .LVU265
	.loc 1 839 2 view .LVU266
	.loc 1 839 9 is_stmt 0 view .LVU267
	movs	r4, #0
	.loc 1 839 2 view .LVU268
	b	.L52
.LVL81:
.L53:
	.loc 1 839 22 is_stmt 1 view .LVU269
	.loc 1 839 23 is_stmt 0 view .LVU270
	adds	r4, r4, #1
.LVL82:
.L52:
	.loc 1 839 14 is_stmt 1 view .LVU271
	.loc 1 839 2 is_stmt 0 view .LVU272
	cmp	r4, #9
	bgt	.L60
	.loc 1 840 3 is_stmt 1 view .LVU273
.LVL83:
.LBB807:
.LBI807:
	.loc 3 339 19 view .LVU274
.LBB808:
	.loc 3 341 4 view .LVU275
	.loc 3 341 5 view .LVU276
	.loc 3 343 2 view .LVU277
	.loc 3 343 16 is_stmt 0 view .LVU278
	ldr	r3, .L63
	movs	r5, #116
	mla	r5, r5, r4, r3
	ldrh	r3, [r5, #112]
.LVL84:
	.loc 3 343 16 view .LVU279
.LBE808:
.LBE807:
	.loc 1 840 6 view .LVU280
	tst	r3, #1
	beq	.L53
	.loc 1 844 3 is_stmt 1 view .LVU281
	.loc 1 844 18 is_stmt 0 view .LVU282
	ldr	r3, .L63
	movs	r5, #116
	mla	r5, r5, r4, r3
	ldr	r3, [r5, #64]
	.loc 1 844 6 view .LVU283
	cmp	r0, r3
	bne	.L53
	.loc 1 845 4 is_stmt 1 view .LVU284
	.loc 1 845 11 is_stmt 0 view .LVU285
	mov	r4, r5
.LVL85:
	.loc 1 845 11 view .LVU286
	b	.L54
.LVL86:
.L60:
	.loc 1 849 8 view .LVU287
	movs	r4, #0
.LVL87:
.L54:
	.loc 1 849 8 view .LVU288
.LBE806:
.LBE805:
	.loc 1 1835 2 is_stmt 1 view .LVU289
	.loc 1 1837 4 view .LVU290
	.loc 1 1837 5 view .LVU291
	.loc 1 1838 4 view .LVU292
	.loc 1 1838 5 view .LVU293
	.loc 1 1840 2 view .LVU294
	add	r5, r4, #8
.LVL88:
.LBB809:
.LBI809:
	.file 9 "/home/sebin/thesis/dmz/zephyr_xmc_template/build/zephyr/include/generated/syscalls/kernel.h"
	.loc 9 899 19 view .LVU295
.LBB810:
	.loc 9 909 2 view .LVU296
	.loc 9 909 7 view .LVU297
	.loc 9 909 55 view .LVU298
	.loc 9 910 2 view .LVU299
	.loc 9 910 9 is_stmt 0 view .LVU300
	mov	r2, #-1
.LVL89:
	.loc 9 910 9 view .LVU301
	mov	r3, #-1
	mov	r0, r5
.LVL90:
	.loc 9 910 9 view .LVU302
	bl	z_impl_k_mutex_lock
.LVL91:
	.loc 9 910 9 view .LVU303
.LBE810:
.LBE809:
	.loc 1 1842 2 is_stmt 1 view .LVU304
.LBB811:
.LBI811:
	.loc 8 293 30 view .LVU305
.LBB812:
	.loc 8 295 2 view .LVU306
	.loc 8 295 2 is_stmt 0 view .LVU307
.LBE812:
.LBE811:
.LBB813:
.LBI813:
	.loc 3 648 20 is_stmt 1 view .LVU308
.LBB814:
	.loc 3 651 4 view .LVU309
	.loc 3 651 5 view .LVU310
	.loc 3 653 2 view .LVU311
	.loc 3 653 19 is_stmt 0 view .LVU312
	ldr	r0, [r6, #24]
	bl	net_if_get_by_iface
.LVL92:
	.loc 3 653 17 view .LVU313
	strb	r0, [r4, #114]
.LVL93:
	.loc 3 653 17 view .LVU314
.LBE814:
.LBE813:
	.loc 1 1843 2 is_stmt 1 view .LVU315
.LBB815:
.LBI815:
	.loc 8 287 20 view .LVU316
.LBB816:
	.loc 8 290 2 view .LVU317
	.loc 8 290 15 is_stmt 0 view .LVU318
	str	r4, [r6, #20]
.LVL94:
	.loc 8 290 15 view .LVU319
.LBE816:
.LBE815:
	.loc 1 1848 2 is_stmt 1 view .LVU320
	.loc 1 1848 14 is_stmt 0 view .LVU321
	ldr	r3, [r4, #68]
	.loc 1 1848 5 view .LVU322
	cbz	r3, .L61
	.loc 1 1852 2 is_stmt 1 view .LVU323
.LVL95:
.LBB817:
.LBI817:
	.loc 3 601 24 view .LVU324
.LBB818:
	.loc 3 603 2 view .LVU325
	.loc 3 603 16 is_stmt 0 view .LVU326
	ldrh	r3, [r4, #110]
.LVL96:
	.loc 3 603 16 view .LVU327
.LBE818:
.LBE817:
	.loc 1 1852 5 view .LVU328
	cmp	r3, #6
	beq	.L62
.L58:
	.loc 1 1858 2 is_stmt 1 view .LVU329
	add	r0, r4, #84
.LVL97:
.LBB819:
.LBI819:
	.loc 9 1033 20 view .LVU330
.LBB820:
	.loc 9 1042 2 view .LVU331
	.loc 9 1042 7 view .LVU332
	.loc 9 1042 55 view .LVU333
	.loc 9 1043 2 view .LVU334
	bl	z_impl_k_sem_give
.LVL98:
	.loc 9 1043 2 is_stmt 0 view .LVU335
.LBE820:
.LBE819:
	.loc 1 1861 2 is_stmt 1 view .LVU336
.LBB821:
.LBI821:
	.loc 9 917 19 view .LVU337
.LBB822:
	.loc 9 925 2 view .LVU338
	.loc 9 925 7 view .LVU339
	.loc 9 925 55 view .LVU340
	.loc 9 926 2 view .LVU341
	.loc 9 926 9 is_stmt 0 view .LVU342
	mov	r0, r5
	bl	z_impl_k_mutex_unlock
.LVL99:
	.loc 9 926 9 view .LVU343
.LBE822:
.LBE821:
	.loc 1 1863 2 is_stmt 1 view .LVU344
	.loc 1 1863 9 is_stmt 0 view .LVU345
	ldr	r9, [r4, #68]
	.loc 1 1863 2 view .LVU346
	ldr	r3, [sp, #40]
	str	r3, [sp, #4]
	movs	r5, #0
	str	r5, [sp]
	mov	r3, r8
	mov	r2, r7
	mov	r1, r6
	mov	r0, r4
	blx	r9
.LVL100:
	.loc 1 1865 2 is_stmt 1 view .LVU347
	.loc 1 1867 2 view .LVU348
	.loc 1 1867 9 is_stmt 0 view .LVU349
	mov	r0, r5
.LVL101:
.L57:
	.loc 1 1873 1 view .LVU350
	add	sp, sp, #12
	.cfi_remember_state
	.cfi_def_cfa_offset 28
	@ sp needed
	pop	{r4, r5, r6, r7, r8, r9, pc}
.LVL102:
.L61:
	.cfi_restore_state
	.loc 1 1849 3 is_stmt 1 view .LVU351
.LDL1:
	.loc 1 1870 2 view .LVU352
.LBB823:
.LBI823:
	.loc 9 917 19 view .LVU353
.LBB824:
	.loc 9 925 2 view .LVU354
	.loc 9 925 7 view .LVU355
	.loc 9 925 55 view .LVU356
	.loc 9 926 2 view .LVU357
	.loc 9 926 9 is_stmt 0 view .LVU358
	mov	r0, r5
	bl	z_impl_k_mutex_unlock
.LVL103:
	.loc 9 926 9 view .LVU359
.LBE824:
.LBE823:
	.loc 1 1872 2 is_stmt 1 view .LVU360
	.loc 1 1872 9 is_stmt 0 view .LVU361
	movs	r0, #2
	b	.L57
.L62:
	.loc 1 1853 3 is_stmt 1 view .LVU362
.LVL104:
.LBB825:
.LBI825:
	.loc 8 293 30 view .LVU363
.LBB826:
	.loc 8 295 2 view .LVU364
	.loc 8 295 12 is_stmt 0 view .LVU365
	ldr	r9, [r6, #24]
.LVL105:
	.loc 8 295 12 view .LVU366
.LBE826:
.LBE825:
	.loc 1 1853 3 view .LVU367
	mov	r0, r6
	bl	net_pkt_remaining_data
.LVL106:
.LBB827:
.LBI827:
	.file 10 "/home/sebin/thesis/zephyrproject/zephyr/subsys/net/ip/net_stats.h"
	.loc 10 196 20 is_stmt 1 view .LVU368
.LBB828:
	.loc 10 198 6 view .LVU369
	.loc 10 198 7 view .LVU370
	.loc 10 198 9 view .LVU371
	.loc 10 198 40 is_stmt 0 view .LVU372
	ldr	r2, .L63+4
	ldr	r3, [r2, #92]
	add	r3, r3, r0
	str	r3, [r2, #92]
	.loc 10 198 52 is_stmt 1 view .LVU373
	.loc 10 198 85 is_stmt 0 view .LVU374
	ldr	r3, [r9, #100]
	add	r0, r0, r3
.LVL107:
	.loc 10 198 85 view .LVU375
	str	r0, [r9, #100]
	.loc 10 198 97 is_stmt 1 view .LVU376
	.loc 10 199 1 is_stmt 0 view .LVU377
	b	.L58
.L64:
	.align	2
.L63:
	.word	.LANCHOR0
	.word	net_stats
.LBE828:
.LBE827:
	.cfi_endproc
.LFE1048:
	.size	net_context_packet_received, .-net_context_packet_received
	.section	.text.net_context_port_in_use,"ax",%progbits
	.align	1
	.global	net_context_port_in_use
	.syntax unified
	.thumb
	.thumb_func
	.fpu fpv4-sp-d16
	.type	net_context_port_in_use, %function
net_context_port_in_use:
.LVL108:
.LFB1021:
	.loc 1 137 1 is_stmt 1 view -0
	.cfi_startproc
	@ args = 0, pretend = 0, frame = 0
	@ frame_needed = 0, uses_anonymous_args = 0
	.loc 1 137 1 is_stmt 0 view .LVU379
	push	{r3, lr}
	.cfi_def_cfa_offset 8
	.cfi_offset 3, -8
	.cfi_offset 14, -4
	.loc 1 138 2 is_stmt 1 view .LVU380
	.loc 1 138 77 is_stmt 0 view .LVU381
	lsrs	r3, r1, #8
	orr	r1, r3, r1, lsl #8
.LVL109:
	.loc 1 138 9 view .LVU382
	uxth	r1, r1
	bl	check_used_port
.LVL110:
	.loc 1 139 1 view .LVU383
	subs	r0, r0, #0
	it	ne
	movne	r0, #1
	pop	{r3, pc}
	.cfi_endproc
.LFE1021:
	.size	net_context_port_in_use, .-net_context_port_in_use
	.section	.text.net_context_get,"ax",%progbits
	.align	1
	.global	net_context_get
	.syntax unified
	.thumb
	.thumb_func
	.fpu fpv4-sp-d16
	.type	net_context_get, %function
net_context_get:
.LVL111:
.LFB1022:
	.loc 1 145 1 is_stmt 1 view -0
	.cfi_startproc
	@ args = 0, pretend = 0, frame = 0
	@ frame_needed = 0, uses_anonymous_args = 0
	.loc 1 145 1 is_stmt 0 view .LVU385
	push	{r3, r4, r5, r6, r7, r8, r9, lr}
	.cfi_def_cfa_offset 32
	.cfi_offset 3, -32
	.cfi_offset 4, -28
	.cfi_offset 5, -24
	.cfi_offset 6, -20
	.cfi_offset 7, -16
	.cfi_offset 8, -12
	.cfi_offset 9, -8
	.cfi_offset 14, -4
	.loc 1 146 2 is_stmt 1 view .LVU386
.LVL112:
	.loc 1 148 2 view .LVU387
	.loc 1 149 3 view .LVU388
	.loc 1 154 3 view .LVU389
	.loc 1 159 3 view .LVU390
	.loc 1 159 6 is_stmt 0 view .LVU391
	cmp	r0, #4
	beq	.L81
	mov	r5, r0
	mov	r4, r1
	mov	r9, r2
	mov	r7, r3
	.loc 1 164 3 is_stmt 1 view .LVU392
	.loc 1 164 6 is_stmt 0 view .LVU393
	cmp	r1, #3
	beq	.L69
	.loc 1 185 4 is_stmt 1 view .LVU394
	.loc 1 189 11 view .LVU395
	.loc 1 189 27 is_stmt 0 view .LVU396
	subs	r3, r0, #3
.LVL113:
	.loc 1 189 27 view .LVU397
	uxth	r3, r3
	.loc 1 189 14 view .LVU398
	cmp	r3, #1
	bls	.L82
.L69:
	.loc 1 195 3 is_stmt 1 view .LVU399
	.loc 1 207 3 view .LVU400
	.loc 1 219 3 view .LVU401
	.loc 1 220 19 is_stmt 0 view .LVU402
	subs	r3, r5, #1
	uxth	r3, r3
	.loc 1 219 6 view .LVU403
	cmp	r3, #3
	bhi	.L83
	.loc 1 225 3 is_stmt 1 view .LVU404
	.loc 1 225 49 is_stmt 0 view .LVU405
	subs	r3, r4, #1
	uxtb	r3, r3
	.loc 1 225 6 view .LVU406
	cmp	r3, #2
	bhi	.L84
	.loc 1 231 3 is_stmt 1 view .LVU407
	.loc 1 231 6 is_stmt 0 view .LVU408
	cmp	r4, #3
	beq	.L70
	.loc 1 231 24 discriminator 1 view .LVU409
	cmp	r9, #17
	beq	.L70
	.loc 1 231 51 discriminator 2 view .LVU410
	cmp	r9, #6
	bne	.L85
.L70:
	.loc 1 237 3 is_stmt 1 view .LVU411
	.loc 1 237 6 is_stmt 0 view .LVU412
	cmp	r4, #1
	beq	.L95
.L71:
	.loc 1 237 56 discriminator 3 view .LVU413
	cmp	r4, #2
	beq	.L96
.L72:
	.loc 1 245 3 is_stmt 1 view .LVU414
	.loc 1 245 6 is_stmt 0 view .LVU415
	cmp	r7, #0
	beq	.L88
	.loc 1 251 2 is_stmt 1 view .LVU416
.LVL114:
.LBB829:
.LBI829:
	.loc 9 1015 19 view .LVU417
.LBB830:
	.loc 9 1025 2 view .LVU418
	.loc 9 1025 7 view .LVU419
	.loc 9 1025 55 view .LVU420
	.loc 9 1026 2 view .LVU421
	.loc 9 1026 9 is_stmt 0 view .LVU422
	mov	r2, #-1
.LVL115:
	.loc 9 1026 9 view .LVU423
	mov	r3, #-1
	ldr	r0, .L102
.LVL116:
	.loc 9 1026 9 view .LVU424
	bl	z_impl_k_sem_take
.LVL117:
	.loc 9 1026 9 view .LVU425
.LBE830:
.LBE829:
	.loc 1 253 2 is_stmt 1 view .LVU426
	.loc 1 253 9 is_stmt 0 view .LVU427
	movs	r6, #0
.LVL118:
.L73:
	.loc 1 253 14 is_stmt 1 discriminator 1 view .LVU428
	.loc 1 253 2 is_stmt 0 discriminator 1 view .LVU429
	cmp	r6, #9
	bgt	.L97
	.loc 1 254 3 is_stmt 1 view .LVU430
.LVL119:
.LBB831:
.LBI831:
	.loc 3 339 19 view .LVU431
.LBB832:
	.loc 3 341 4 view .LVU432
	.loc 3 341 5 view .LVU433
	.loc 3 343 2 view .LVU434
	.loc 3 343 16 is_stmt 0 view .LVU435
	ldr	r2, .L102+4
	movs	r3, #116
	mla	r3, r3, r6, r2
	ldrh	r3, [r3, #112]
.LVL120:
	.loc 3 343 16 view .LVU436
.LBE832:
.LBE831:
	.loc 1 254 6 view .LVU437
	tst	r3, #1
	bne	.L98
	.loc 1 258 2 is_stmt 1 view .LVU438
	.loc 1 258 2 is_stmt 0 view .LVU439
	movs	r2, #116
	ldr	r3, .L102+4
	mla	r8, r2, r6, r3
.LVL121:
.LBB833:
.LBI833:
	.file 11 "/home/sebin/LIOT/gcc-arm-none-eabi-9-2019-q4-major/arm-none-eabi/include/ssp/string.h"
	.loc 11 86 189 is_stmt 1 view .LVU440
.LBB834:
	.loc 11 86 238 view .LVU441
	.loc 11 86 245 is_stmt 0 view .LVU442
	movs	r1, #0
	mov	r0, r8
	bl	memset
.LVL122:
	.loc 11 86 245 view .LVU443
.LBE834:
.LBE833:
	.loc 1 262 3 is_stmt 1 view .LVU444
	.loc 1 262 8 is_stmt 0 view .LVU445
	bl	net_if_get_default
.LVL123:
	.file 12 "/home/sebin/thesis/zephyrproject/zephyr/include/net/net_if.h"
	.loc 12 631 2 is_stmt 1 view .LVU446
	.loc 12 633 2 view .LVU447
	.loc 1 263 4 is_stmt 0 view .LVU448
	cmp	r9, #6
	beq	.L99
.L75:
	.loc 1 269 3 is_stmt 1 view .LVU449
	.loc 1 269 21 is_stmt 0 view .LVU450
	ldr	r2, .L102+4
	movs	r3, #116
	mla	r3, r3, r6, r2
	movs	r2, #255
	strb	r2, [r3, #114]
	.loc 1 270 3 is_stmt 1 view .LVU451
	.loc 1 270 21 is_stmt 0 view .LVU452
	movs	r2, #0
	strh	r2, [r3, #112]	@ movhi
	.loc 1 271 3 is_stmt 1 view .LVU453
	adds	r3, r3, #4
.LVL124:
.LBB835:
.LBI835:
	.file 13 "/home/sebin/thesis/zephyrproject/zephyr/include/sys/atomic_builtin.h"
	.loc 13 170 28 view .LVU454
.LBB836:
	.loc 13 176 2 view .LVU455
	.loc 13 176 9 is_stmt 0 view .LVU456
	movs	r2, #1
	dmb	ish
.L93:
	ldrex	r1, [r3]
	strex	r0, r2, [r3]
	cmp	r0, #0
	bne	.L93
	dmb	ish
.LVL125:
	.loc 13 176 9 view .LVU457
.LBE836:
.LBE835:
	.loc 1 273 3 is_stmt 1 view .LVU458
.LBB837:
.LBI837:
	.loc 3 483 20 view .LVU459
.LBB838:
	.loc 3 486 2 view .LVU460
	.loc 3 488 4 view .LVU461
	.loc 3 488 5 view .LVU462
	.loc 3 490 2 view .LVU463
	.loc 3 490 5 is_stmt 0 view .LVU464
	cmp	r5, #4
	bhi	.L90
	.loc 3 493 3 is_stmt 1 view .LVU465
	.loc 3 493 17 is_stmt 0 view .LVU466
	uxtb	r1, r5
	.loc 3 493 8 view .LVU467
	lsls	r1, r1, #3
	uxtb	r1, r1
.LVL126:
.L77:
	.loc 3 496 2 is_stmt 1 view .LVU468
	.loc 3 496 17 is_stmt 0 view .LVU469
	ldr	r0, .L102+4
	movs	r2, #116
	mul	r2, r2, r6
	adds	r3, r0, r2
	ldrh	ip, [r3, #112]
	orr	r1, r1, ip
.LVL127:
	.loc 3 496 17 view .LVU470
	uxth	r1, r1
.LVL128:
	.loc 3 496 17 view .LVU471
.LBE838:
.LBE837:
	.loc 1 274 3 is_stmt 1 view .LVU472
.LBB840:
.LBI840:
	.loc 3 526 20 view .LVU473
.LBB841:
	.loc 3 529 2 view .LVU474
	.loc 3 531 4 view .LVU475
	.loc 3 531 5 view .LVU476
	.loc 3 533 2 view .LVU477
	.loc 3 535 3 view .LVU478
	.loc 3 538 2 view .LVU479
	.loc 3 538 17 is_stmt 0 view .LVU480
	orr	r4, r1, r4, lsl #6
.LVL129:
	.loc 3 538 17 view .LVU481
	strh	r4, [r3, #112]	@ movhi
.LVL130:
	.loc 3 538 17 view .LVU482
.LBE841:
.LBE840:
	.loc 1 275 3 is_stmt 1 view .LVU483
.LBB842:
.LBI842:
	.loc 3 616 20 view .LVU484
.LBB843:
	.loc 3 619 2 view .LVU485
	.loc 3 619 17 is_stmt 0 view .LVU486
	strh	r9, [r3, #110]	@ movhi
.LVL131:
	.loc 3 619 17 view .LVU487
.LBE843:
.LBE842:
	.loc 1 284 3 is_stmt 1 view .LVU488
	.loc 1 286 4 view .LVU489
	.loc 1 286 9 is_stmt 0 view .LVU490
	add	r4, r2, #40
	adds	r3, r0, r4
.LVL132:
.LBB844:
.LBI844:
	.loc 11 86 189 is_stmt 1 view .LVU491
.LBB845:
	.loc 11 86 238 view .LVU492
	.loc 11 86 245 is_stmt 0 view .LVU493
	movs	r1, #0
	str	r1, [r0, r4]	@ unaligned
	str	r1, [r3, #4]	@ unaligned
	str	r1, [r3, #8]	@ unaligned
	str	r1, [r3, #12]	@ unaligned
	str	r1, [r3, #16]	@ unaligned
	str	r1, [r3, #20]	@ unaligned
.LVL133:
	.loc 11 86 245 view .LVU494
.LBE845:
.LBE844:
	.loc 1 288 4 is_stmt 1 view .LVU495
	.loc 1 288 9 is_stmt 0 view .LVU496
	adds	r2, r2, #24
	add	r2, r2, r0
	adds	r4, r2, #4
.LVL134:
.LBB846:
.LBI846:
	.loc 11 86 189 is_stmt 1 view .LVU497
.LBB847:
	.loc 11 86 238 view .LVU498
	.loc 11 86 245 is_stmt 0 view .LVU499
	str	r1, [r2, #4]	@ unaligned
	str	r1, [r2, #8]	@ unaligned
	str	r1, [r2, #12]	@ unaligned
.LVL135:
	.loc 11 86 245 view .LVU500
.LBE847:
.LBE846:
	.loc 1 292 3 is_stmt 1 view .LVU501
	.loc 1 292 6 is_stmt 0 view .LVU502
	cmp	r5, #2
	beq	.L100
.L78:
	.loc 1 304 3 is_stmt 1 view .LVU503
	.loc 1 304 6 is_stmt 0 view .LVU504
	cmp	r5, #1
	beq	.L101
.L79:
	.loc 1 317 3 is_stmt 1 view .LVU505
	ldr	r4, .L102+4
	movs	r3, #116
	mul	r6, r3, r6
.LVL136:
	.loc 1 317 3 is_stmt 0 view .LVU506
	add	r0, r6, #80
	add	r0, r0, r4
	adds	r0, r0, #4
.LVL137:
.LBB848:
.LBI848:
	.loc 9 999 19 is_stmt 1 view .LVU507
.LBB849:
	.loc 9 1007 2 view .LVU508
	.loc 9 1007 7 view .LVU509
	.loc 9 1007 55 view .LVU510
	.loc 9 1008 2 view .LVU511
	.loc 9 1008 9 is_stmt 0 view .LVU512
	mov	r2, #-1
	movs	r1, #1
	bl	z_impl_k_sem_init
.LVL138:
	.loc 9 1008 9 view .LVU513
.LBE849:
.LBE848:
	.loc 1 320 3 is_stmt 1 view .LVU514
	add	r0, r6, #8
	add	r0, r0, r4
.LVL139:
.LBB850:
.LBI850:
	.loc 9 883 19 view .LVU515
.LBB851:
	.loc 9 891 2 view .LVU516
	.loc 9 891 7 view .LVU517
	.loc 9 891 55 view .LVU518
	.loc 9 892 2 view .LVU519
	.loc 9 892 9 is_stmt 0 view .LVU520
	bl	z_impl_k_mutex_init
.LVL140:
	.loc 9 892 9 view .LVU521
.LBE851:
.LBE850:
	.loc 1 322 3 is_stmt 1 view .LVU522
	.loc 1 322 21 is_stmt 0 view .LVU523
	add	r4, r4, r6
	ldrh	r3, [r4, #112]
	orr	r3, r3, #1
	strh	r3, [r4, #112]	@ movhi
	.loc 1 323 3 is_stmt 1 view .LVU524
	.loc 1 323 12 is_stmt 0 view .LVU525
	str	r8, [r7]
	.loc 1 325 3 is_stmt 1 view .LVU526
.LVL141:
	.loc 1 326 3 view .LVU527
	.loc 1 325 7 is_stmt 0 view .LVU528
	movs	r4, #0
.LVL142:
.L76:
	.loc 1 329 2 is_stmt 1 view .LVU529
.LBB852:
.LBI852:
	.loc 9 1033 20 view .LVU530
.LBB853:
	.loc 9 1042 2 view .LVU531
	.loc 9 1042 7 view .LVU532
	.loc 9 1042 55 view .LVU533
	.loc 9 1043 2 view .LVU534
	ldr	r0, .L102
	bl	z_impl_k_sem_give
.LVL143:
	.loc 9 1043 2 is_stmt 0 view .LVU535
.LBE853:
.LBE852:
	.loc 1 334 2 is_stmt 1 view .LVU536
	.loc 1 349 2 view .LVU537
.L68:
	.loc 1 350 1 is_stmt 0 view .LVU538
	mov	r0, r4
	pop	{r3, r4, r5, r6, r7, r8, r9, pc}
.LVL144:
.L95:
	.loc 1 237 28 discriminator 1 view .LVU539
	cmp	r9, #17
	bne	.L71
	.loc 1 241 11 view .LVU540
	mvn	r4, #94
	b	.L68
.L96:
	.loc 1 238 27 view .LVU541
	cmp	r9, #6
	bne	.L72
	.loc 1 241 11 view .LVU542
	mvn	r4, #94
	b	.L68
.LVL145:
.L98:
	.loc 1 255 4 is_stmt 1 view .LVU543
	.loc 1 253 22 view .LVU544
	.loc 1 253 23 is_stmt 0 view .LVU545
	adds	r6, r6, #1
.LVL146:
	.loc 1 253 23 view .LVU546
	b	.L73
.L99:
	.loc 1 264 4 is_stmt 1 view .LVU547
	.loc 1 264 8 is_stmt 0 view .LVU548
	mov	r0, r8
	bl	net_tcp_get
.LVL147:
	.loc 1 264 7 view .LVU549
	cmp	r0, #0
	bge	.L75
	.loc 1 146 9 view .LVU550
	mvn	r4, #1
	b	.L76
.LVL148:
.L90:
.LBB854:
.LBB839:
	.loc 3 486 10 view .LVU551
	movs	r1, #0
	b	.L77
.LVL149:
.L100:
	.loc 3 486 10 view .LVU552
.LBE839:
.LBE854:
.LBB855:
	.loc 1 293 4 is_stmt 1 view .LVU553
	.loc 1 295 4 view .LVU554
	.loc 1 295 23 is_stmt 0 view .LVU555
	mov	r1, r4
	mov	r0, r8
	bl	find_available_port
.LVL150:
	.loc 1 295 21 view .LVU556
	strh	r0, [r4, #2]	@ movhi
	.loc 1 298 4 is_stmt 1 view .LVU557
	.loc 1 298 7 is_stmt 0 view .LVU558
	cmp	r0, #0
	bne	.L78
	.loc 1 299 9 view .LVU559
	mvn	r4, #111
.LVL151:
	.loc 1 299 9 view .LVU560
	b	.L76
.LVL152:
.L101:
	.loc 1 299 9 view .LVU561
.LBE855:
.LBB856:
	.loc 1 305 4 is_stmt 1 view .LVU562
	.loc 1 307 4 view .LVU563
	.loc 1 307 21 is_stmt 0 view .LVU564
	mov	r1, r4
	mov	r0, r8
	bl	find_available_port
.LVL153:
	.loc 1 307 19 view .LVU565
	strh	r0, [r4, #2]	@ movhi
	.loc 1 310 4 is_stmt 1 view .LVU566
	.loc 1 310 7 is_stmt 0 view .LVU567
	cmp	r0, #0
	bne	.L79
	.loc 1 311 9 view .LVU568
	mvn	r4, #111
.LVL154:
	.loc 1 311 9 view .LVU569
	b	.L76
.LVL155:
.L97:
	.loc 1 311 9 view .LVU570
.LBE856:
	.loc 1 146 9 view .LVU571
	mvn	r4, #1
	b	.L76
.LVL156:
.L81:
	.loc 1 161 11 view .LVU572
	mvn	r4, #95
	b	.L68
.LVL157:
.L82:
	.loc 1 191 12 view .LVU573
	mvn	r4, #106
	b	.L68
.L83:
	.loc 1 222 11 view .LVU574
	mvn	r4, #105
	b	.L68
.L84:
	.loc 1 228 11 view .LVU575
	mvn	r4, #106
	b	.L68
.L85:
	.loc 1 234 11 view .LVU576
	mvn	r4, #122
	b	.L68
.L88:
	.loc 1 247 11 view .LVU577
	mvn	r4, #21
	b	.L68
.L103:
	.align	2
.L102:
	.word	.LANCHOR1
	.word	.LANCHOR0
	.cfi_endproc
.LFE1022:
	.size	net_context_get, .-net_context_get
	.section	.text.net_context_ref,"ax",%progbits
	.align	1
	.global	net_context_ref
	.syntax unified
	.thumb
	.thumb_func
	.fpu fpv4-sp-d16
	.type	net_context_ref, %function
net_context_ref:
.LVL158:
.LFB1023:
	.loc 1 353 1 is_stmt 1 view -0
	.cfi_startproc
	@ args = 0, pretend = 0, frame = 0
	@ frame_needed = 0, uses_anonymous_args = 0
	@ link register save eliminated.
	.loc 1 354 2 view .LVU579
	.loc 1 354 15 is_stmt 0 view .LVU580
	adds	r3, r0, #4
.LVL159:
.LBB857:
.LBI857:
	.loc 13 108 28 is_stmt 1 view .LVU581
.LBE857:
	.loc 13 110 2 view .LVU582
.LBB860:
.LBB858:
.LBI858:
	.loc 13 77 28 view .LVU583
.LBB859:
	.loc 13 79 2 view .LVU584
	.loc 13 79 9 is_stmt 0 view .LVU585
	dmb	ish
.LVL160:
.L105:
	.loc 13 79 9 view .LVU586
	ldrex	r0, [r3]
	adds	r2, r0, #1
	strex	r1, r2, [r3]
	cmp	r1, #0
	bne	.L105
	dmb	ish
.LVL161:
	.loc 13 79 9 view .LVU587
.LBE859:
.LBE858:
.LBE860:
	.loc 1 356 2 is_stmt 1 view .LVU588
	.loc 1 357 1 is_stmt 0 view .LVU589
	adds	r0, r0, #1
.LVL162:
	.loc 1 357 1 view .LVU590
	bx	lr
	.cfi_endproc
.LFE1023:
	.size	net_context_ref, .-net_context_ref
	.section	.text.net_context_unref,"ax",%progbits
	.align	1
	.global	net_context_unref
	.syntax unified
	.thumb
	.thumb_func
	.fpu fpv4-sp-d16
	.type	net_context_unref, %function
net_context_unref:
.LVL163:
.LFB1024:
	.loc 1 360 1 is_stmt 1 view -0
	.cfi_startproc
	@ args = 0, pretend = 0, frame = 0
	@ frame_needed = 0, uses_anonymous_args = 0
	.loc 1 360 1 is_stmt 0 view .LVU592
	push	{r3, r4, r5, lr}
	.cfi_def_cfa_offset 16
	.cfi_offset 3, -16
	.cfi_offset 4, -12
	.cfi_offset 5, -8
	.cfi_offset 14, -4
	mov	r4, r0
	.loc 1 361 2 is_stmt 1 view .LVU593
	.loc 1 361 15 is_stmt 0 view .LVU594
	adds	r3, r0, #4
.LVL164:
.LBB861:
.LBI861:
	.loc 13 123 28 is_stmt 1 view .LVU595
.LBE861:
	.loc 13 125 2 view .LVU596
.LBB864:
.LBB862:
.LBI862:
	.loc 13 93 28 view .LVU597
.LBB863:
	.loc 13 95 2 view .LVU598
	.loc 13 95 9 is_stmt 0 view .LVU599
	dmb	ish
.LVL165:
.L110:
	.loc 13 95 9 view .LVU600
	ldrex	r0, [r3]
	subs	r2, r0, #1
	strex	r1, r2, [r3]
	cmp	r1, #0
	bne	.L110
	dmb	ish
.LVL166:
	.loc 13 95 9 view .LVU601
.LBE863:
.LBE862:
.LBE864:
	.loc 1 363 2 is_stmt 1 view .LVU602
	.loc 1 363 5 is_stmt 0 view .LVU603
	cmp	r0, #1
	beq	.L107
	.loc 1 364 3 is_stmt 1 view .LVU604
	.loc 1 364 17 is_stmt 0 view .LVU605
	subs	r0, r0, #1
.LVL167:
.L108:
	.loc 1 389 1 view .LVU606
	pop	{r3, r4, r5, pc}
.LVL168:
.L107:
	.loc 1 367 2 is_stmt 1 view .LVU607
	add	r5, r4, #8
.LVL169:
.LBB865:
.LBI865:
	.loc 9 899 19 view .LVU608
.LBB866:
	.loc 9 909 2 view .LVU609
	.loc 9 909 7 view .LVU610
	.loc 9 909 55 view .LVU611
	.loc 9 910 2 view .LVU612
	.loc 9 910 9 is_stmt 0 view .LVU613
	mov	r2, #-1
	mov	r3, #-1
	mov	r0, r5
.LVL170:
	.loc 9 910 9 view .LVU614
	bl	z_impl_k_mutex_lock
.LVL171:
	.loc 9 910 9 view .LVU615
.LBE866:
.LBE865:
	.loc 1 369 2 is_stmt 1 view .LVU616
	mov	r0, r4
	bl	net_tcp_unref
.LVL172:
	.loc 1 371 2 view .LVU617
	.loc 1 371 13 is_stmt 0 view .LVU618
	ldr	r0, [r4, #64]
	.loc 1 371 5 view .LVU619
	cbz	r0, .L109
	.loc 1 372 3 is_stmt 1 view .LVU620
	.loc 1 374 4 view .LVU621
	bl	net_conn_unregister
.LVL173:
	.loc 1 377 3 view .LVU622
	.loc 1 377 25 is_stmt 0 view .LVU623
	movs	r3, #0
	str	r3, [r4, #64]
.L109:
	.loc 1 380 2 is_stmt 1 view .LVU624
.LVL174:
.LBB867:
.LBI867:
	.loc 3 447 20 view .LVU625
.LBB868:
	.loc 3 450 4 view .LVU626
	.loc 3 450 5 view .LVU627
	.loc 3 452 2 view .LVU628
	.loc 3 452 17 is_stmt 0 view .LVU629
	ldrh	r3, [r4, #112]
	bic	r3, r3, #6
	uxth	r3, r3
	.loc 3 453 2 is_stmt 1 view .LVU630
.LVL175:
	.loc 3 453 2 is_stmt 0 view .LVU631
.LBE868:
.LBE867:
	.loc 1 382 2 is_stmt 1 view .LVU632
	.loc 1 382 17 is_stmt 0 view .LVU633
	bic	r3, r3, #1
	strh	r3, [r4, #112]	@ movhi
	.loc 1 384 2 is_stmt 1 view .LVU634
.LBB869:
	.loc 1 384 7 view .LVU635
.LBE869:
	.loc 1 384 130 view .LVU636
	.loc 1 386 2 view .LVU637
.LVL176:
.LBB870:
.LBI870:
	.loc 9 917 19 view .LVU638
.LBB871:
	.loc 9 925 2 view .LVU639
	.loc 9 925 7 view .LVU640
	.loc 9 925 55 view .LVU641
	.loc 9 926 2 view .LVU642
	.loc 9 926 9 is_stmt 0 view .LVU643
	mov	r0, r5
	bl	z_impl_k_mutex_unlock
.LVL177:
	.loc 9 926 9 view .LVU644
.LBE871:
.LBE870:
	.loc 1 388 2 is_stmt 1 view .LVU645
	.loc 1 388 9 is_stmt 0 view .LVU646
	movs	r0, #0
	b	.L108
	.cfi_endproc
.LFE1024:
	.size	net_context_unref, .-net_context_unref
	.section	.text.net_context_put,"ax",%progbits
	.align	1
	.global	net_context_put
	.syntax unified
	.thumb
	.thumb_func
	.fpu fpv4-sp-d16
	.type	net_context_put, %function
net_context_put:
.LVL178:
.LFB1025:
	.loc 1 392 1 is_stmt 1 view -0
	.cfi_startproc
	@ args = 0, pretend = 0, frame = 0
	@ frame_needed = 0, uses_anonymous_args = 0
	.loc 1 393 2 view .LVU648
	.loc 1 395 4 view .LVU649
	.loc 1 395 5 view .LVU650
	.loc 1 397 2 view .LVU651
	.loc 1 397 5 is_stmt 0 view .LVU652
	cbz	r0, .L114
	.loc 1 392 1 discriminator 1 view .LVU653
	push	{r4, r5, r6, lr}
	.cfi_def_cfa_offset 16
	.cfi_offset 4, -16
	.cfi_offset 5, -12
	.cfi_offset 6, -8
	.cfi_offset 14, -4
	mov	r4, r0
	.loc 1 397 6 discriminator 1 view .LVU654
	ldr	r3, .L121
	cmp	r0, r3
	bcc	.L115
	.loc 1 397 48 discriminator 2 view .LVU655
	add	r3, r3, #1160
	cmp	r0, r3
	bcs	.L116
	.loc 1 401 2 is_stmt 1 view .LVU656
	add	r6, r0, #8
.LVL179:
.LBB872:
.LBI872:
	.loc 9 899 19 view .LVU657
.LBB873:
	.loc 9 909 2 view .LVU658
	.loc 9 909 7 view .LVU659
	.loc 9 909 55 view .LVU660
	.loc 9 910 2 view .LVU661
	.loc 9 910 9 is_stmt 0 view .LVU662
	mov	r2, #-1
	mov	r3, #-1
	mov	r0, r6
.LVL180:
	.loc 9 910 9 view .LVU663
	bl	z_impl_k_mutex_lock
.LVL181:
	.loc 9 910 9 view .LVU664
.LBE873:
.LBE872:
	.loc 1 403 2 is_stmt 1 view .LVU665
	.loc 1 410 2 view .LVU666
	.loc 1 410 22 is_stmt 0 view .LVU667
	movs	r5, #0
	str	r5, [r4, #76]
	.loc 1 411 2 is_stmt 1 view .LVU668
	.loc 1 411 19 is_stmt 0 view .LVU669
	str	r5, [r4, #68]
	.loc 1 412 2 is_stmt 1 view .LVU670
	.loc 1 412 19 is_stmt 0 view .LVU671
	str	r5, [r4, #72]
	.loc 1 415 2 is_stmt 1 view .LVU672
	mov	r0, r4
	bl	net_tcp_put
.LVL182:
	.loc 1 418 2 view .LVU673
	mov	r0, r4
	bl	net_context_unref
.LVL183:
.LDL2:
	.loc 1 421 2 view .LVU674
.LBB874:
.LBI874:
	.loc 9 917 19 view .LVU675
.LBB875:
	.loc 9 925 2 view .LVU676
	.loc 9 925 7 view .LVU677
	.loc 9 925 55 view .LVU678
	.loc 9 926 2 view .LVU679
	.loc 9 926 9 is_stmt 0 view .LVU680
	mov	r0, r6
	bl	z_impl_k_mutex_unlock
.LVL184:
	.loc 9 926 9 view .LVU681
.LBE875:
.LBE874:
	.loc 1 423 2 is_stmt 1 view .LVU682
	.loc 1 423 9 is_stmt 0 view .LVU683
	mov	r0, r5
.L113:
	.loc 1 424 1 view .LVU684
	pop	{r4, r5, r6, pc}
.LVL185:
.L114:
	.cfi_def_cfa_offset 0
	.cfi_restore 4
	.cfi_restore 5
	.cfi_restore 6
	.cfi_restore 14
	.loc 1 398 10 view .LVU685
	mvn	r0, #21
.LVL186:
	.loc 1 424 1 view .LVU686
	bx	lr
.LVL187:
.L115:
	.cfi_def_cfa_offset 16
	.cfi_offset 4, -16
	.cfi_offset 5, -12
	.cfi_offset 6, -8
	.cfi_offset 14, -4
	.loc 1 398 10 view .LVU687
	mvn	r0, #21
.LVL188:
	.loc 1 398 10 view .LVU688
	b	.L113
.LVL189:
.L116:
	.loc 1 398 10 view .LVU689
	mvn	r0, #21
.LVL190:
	.loc 1 398 10 view .LVU690
	b	.L113
.L122:
	.align	2
.L121:
	.word	.LANCHOR0
	.cfi_endproc
.LFE1025:
	.size	net_context_put, .-net_context_put
	.section	.rodata.net_context_bind.str1.4,"aMS",%progbits,1
	.align	2
.LC0:
	.ascii	"Cannot bind to %s\000"
	.align	2
.LC1:
	.ascii	"Port %d is in use!\000"
	.section	.text.net_context_bind,"ax",%progbits
	.align	1
	.global	net_context_bind
	.syntax unified
	.thumb
	.thumb_func
	.fpu fpv4-sp-d16
	.type	net_context_bind, %function
net_context_bind:
.LVL191:
.LFB1027:
	.loc 1 514 1 is_stmt 1 view -0
	.cfi_startproc
	@ args = 0, pretend = 0, frame = 56
	@ frame_needed = 0, uses_anonymous_args = 0
	.loc 1 514 1 is_stmt 0 view .LVU692
	push	{r4, r5, r6, r7, lr}
	.cfi_def_cfa_offset 20
	.cfi_offset 4, -20
	.cfi_offset 5, -16
	.cfi_offset 6, -12
	.cfi_offset 7, -8
	.cfi_offset 14, -4
	sub	sp, sp, #76
	.cfi_def_cfa_offset 96
	.loc 1 515 2 is_stmt 1 view .LVU693
	.loc 1 517 4 view .LVU694
	.loc 1 517 5 view .LVU695
	.loc 1 518 4 view .LVU696
	.loc 1 518 5 view .LVU697
	.loc 1 526 2 view .LVU698
	.loc 1 526 13 is_stmt 0 view .LVU699
	ldr	r6, [r0, #64]
	.loc 1 526 5 view .LVU700
	cmp	r6, #0
	bne	.L149
	mov	r4, r0
	mov	r5, r1
	.loc 1 530 2 is_stmt 1 view .LVU701
	.loc 1 530 15 is_stmt 0 view .LVU702
	ldrh	r3, [r1]
	.loc 1 530 5 view .LVU703
	cmp	r3, #2
	beq	.L162
	.loc 1 630 2 is_stmt 1 view .LVU704
	.loc 1 630 5 is_stmt 0 view .LVU705
	cmp	r3, #1
	bne	.L157
.LBB876:
	.loc 1 631 3 is_stmt 1 view .LVU706
.LVL192:
	.loc 1 632 3 view .LVU707
	.loc 1 632 18 is_stmt 0 view .LVU708
	movs	r3, #0
	str	r3, [sp, #16]
	.loc 1 633 3 is_stmt 1 view .LVU709
	.loc 1 634 3 view .LVU710
	.loc 1 636 3 view .LVU711
	.loc 1 636 6 is_stmt 0 view .LVU712
	cmp	r2, #7
	bls	.L158
	.loc 1 640 3 is_stmt 1 view .LVU713
.LVL193:
.LBB877:
.LBI877:
	.loc 3 346 19 view .LVU714
.LBB878:
	.loc 3 348 4 view .LVU715
	.loc 3 348 5 view .LVU716
	.loc 3 350 2 view .LVU717
	.loc 3 350 16 is_stmt 0 view .LVU718
	ldrh	r3, [r0, #112]
.LVL194:
	.loc 3 350 16 view .LVU719
.LBE878:
.LBE877:
	.loc 1 640 6 view .LVU720
	tst	r3, #2048
	bne	.L163
.LVL195:
.L139:
	.loc 1 644 3 is_stmt 1 view .LVU721
.LBB879:
.LBI879:
	.loc 2 713 19 view .LVU722
.LBB880:
	.loc 2 715 2 view .LVU723
.LBB881:
	.loc 2 715 43 view .LVU724
	.loc 2 715 158 view .LVU725
	.loc 2 715 161 is_stmt 0 view .LVU726
	ldr	r1, [r5, #4]	@ unaligned
.LBE881:
.LBB882:
	.loc 2 715 209 is_stmt 1 view .LVU727
.LVL196:
	.loc 2 715 324 view .LVU728
.LBE882:
	.loc 2 715 338 is_stmt 0 view .LVU729
	lsrs	r3, r1, #8
	.loc 2 715 344 view .LVU730
	and	r3, r3, #65280
	.loc 2 715 187 view .LVU731
	orr	r2, r3, r1, lsr #24
.LBB883:
	.loc 2 715 376 is_stmt 1 view .LVU732
.LVL197:
	.loc 2 715 491 view .LVU733
.LBE883:
	.loc 2 715 515 is_stmt 0 view .LVU734
	lsls	r3, r1, #8
	and	r3, r3, #16711680
	.loc 2 715 354 view .LVU735
	orrs	r3, r3, r2
.LBB884:
	.loc 2 715 543 is_stmt 1 view .LVU736
.LVL198:
	.loc 2 715 658 view .LVU737
.LBE884:
	.loc 2 715 11 is_stmt 0 view .LVU738
	orr	r3, r3, r1, lsl #24
	.loc 2 715 689 view .LVU739
	and	r3, r3, #-268435456
.LVL199:
	.loc 2 715 689 view .LVU740
.LBE880:
.LBE879:
	.loc 1 644 6 view .LVU741
	cmp	r3, #-536870912
	beq	.L164
	.loc 1 655 10 is_stmt 1 view .LVU742
	.loc 1 655 13 is_stmt 0 view .LVU743
	cmp	r1, #0
	bne	.L142
	.loc 1 656 4 is_stmt 1 view .LVU744
	.loc 1 656 14 is_stmt 0 view .LVU745
	ldr	r3, [sp, #16]
	.loc 1 656 7 view .LVU746
	cmp	r3, #0
	beq	.L165
.L143:
	.loc 1 661 4 is_stmt 1 view .LVU747
	.loc 1 661 28 is_stmt 0 view .LVU748
	bl	net_ipv4_unspecified_address
.LVL200:
	mov	r6, r0
.LVL201:
.L141:
	.loc 1 673 3 is_stmt 1 view .LVU749
	.loc 1 673 7 is_stmt 0 view .LVU750
	ldr	r3, [sp, #16]
	.loc 1 673 6 view .LVU751
	cmp	r3, #0
	beq	.L166
	.loc 1 681 3 is_stmt 1 view .LVU752
	.loc 1 691 3 view .LVU753
	add	r7, r4, #8
.LVL202:
.LBB885:
.LBI885:
	.loc 9 899 19 view .LVU754
.LBB886:
	.loc 9 909 2 view .LVU755
	.loc 9 909 7 view .LVU756
	.loc 9 909 55 view .LVU757
	.loc 9 910 2 view .LVU758
	.loc 9 910 9 is_stmt 0 view .LVU759
	mov	r2, #-1
	mov	r3, #-1
	mov	r0, r7
	bl	z_impl_k_mutex_lock
.LVL203:
	.loc 9 910 9 view .LVU760
.LBE886:
.LBE885:
	.loc 1 693 3 is_stmt 1 view .LVU761
	.loc 1 695 3 view .LVU762
.LBB887:
.LBI887:
	.loc 3 648 20 view .LVU763
.LBB888:
	.loc 3 651 4 view .LVU764
	.loc 3 651 5 view .LVU765
	.loc 3 653 2 view .LVU766
	.loc 3 653 19 is_stmt 0 view .LVU767
	ldr	r0, [sp, #16]
	bl	net_if_get_by_iface
.LVL204:
	.loc 3 653 17 view .LVU768
	strb	r0, [r4, #114]
.LVL205:
	.loc 3 653 17 view .LVU769
.LBE888:
.LBE887:
	.loc 1 697 3 is_stmt 1 view .LVU770
	.loc 1 697 3 is_stmt 0 view .LVU771
.LBE876:
	.loc 2 1406 2 is_stmt 1 view .LVU772
.LBB923:
	.loc 1 697 44 is_stmt 0 view .LVU773
	movs	r3, #1
	strh	r3, [r4, #28]	@ movhi
	.loc 1 698 3 is_stmt 1 view .LVU774
.LVL206:
	.loc 1 698 3 is_stmt 0 view .LVU775
.LBE923:
	.loc 2 1406 2 is_stmt 1 view .LVU776
.LBB924:
	.loc 1 698 42 is_stmt 0 view .LVU777
	str	r6, [r4, #32]
	.loc 1 699 3 is_stmt 1 view .LVU778
	.loc 1 699 12 is_stmt 0 view .LVU779
	ldrh	r1, [r5, #2]
	.loc 1 699 6 view .LVU780
	cmp	r1, #0
	bne	.L167
	.loc 1 711 4 is_stmt 1 view .LVU781
.LVL207:
	.loc 1 711 4 is_stmt 0 view .LVU782
.LBE924:
	.loc 2 1406 2 is_stmt 1 view .LVU783
.LBB925:
	.loc 1 712 33 is_stmt 0 view .LVU784
	ldrh	r3, [r4, #30]
	.loc 1 711 20 view .LVU785
	strh	r3, [r5, #2]	@ movhi
	.loc 1 693 7 view .LVU786
	movs	r6, #0
.LVL208:
.L148:
	.loc 1 715 367 is_stmt 1 view .LVU787
	.loc 1 724 3 view .LVU788
.LBB889:
.LBI889:
	.loc 9 917 19 view .LVU789
.LBB890:
	.loc 9 925 2 view .LVU790
	.loc 9 925 7 view .LVU791
	.loc 9 925 55 view .LVU792
	.loc 9 926 2 view .LVU793
	.loc 9 926 9 is_stmt 0 view .LVU794
	mov	r0, r7
	bl	z_impl_k_mutex_unlock
.LVL209:
	.loc 9 926 9 view .LVU795
.LBE890:
.LBE889:
	.loc 1 726 3 is_stmt 1 view .LVU796
.L123:
	.loc 1 726 3 is_stmt 0 view .LVU797
.LBE925:
	.loc 1 833 1 view .LVU798
	mov	r0, r6
	add	sp, sp, #76
	.cfi_remember_state
	.cfi_def_cfa_offset 20
	@ sp needed
	pop	{r4, r5, r6, r7, pc}
.LVL210:
.L162:
	.cfi_restore_state
.LBB926:
	.loc 1 531 3 is_stmt 1 view .LVU799
	.loc 1 531 18 is_stmt 0 view .LVU800
	movs	r3, #0
	str	r3, [sp, #16]
	.loc 1 532 3 is_stmt 1 view .LVU801
	.loc 1 533 3 view .LVU802
.LVL211:
	.loc 1 535 3 view .LVU803
	.loc 1 535 6 is_stmt 0 view .LVU804
	cmp	r2, #23
	bls	.L150
	.loc 1 539 3 is_stmt 1 view .LVU805
.LVL212:
.LBB927:
.LBI927:
	.loc 3 346 19 view .LVU806
.LBB928:
	.loc 3 348 4 view .LVU807
	.loc 3 348 5 view .LVU808
	.loc 3 350 2 view .LVU809
	.loc 3 350 16 is_stmt 0 view .LVU810
	ldrh	r3, [r0, #112]
.LVL213:
	.loc 3 350 16 view .LVU811
.LBE928:
.LBE927:
	.loc 1 539 6 view .LVU812
	tst	r3, #2048
	bne	.L168
.LVL214:
.L127:
	.loc 1 543 3 is_stmt 1 view .LVU813
.LBB929:
.LBI929:
	.loc 2 604 19 view .LVU814
.LBB930:
	.loc 2 606 2 view .LVU815
	.loc 2 606 22 is_stmt 0 view .LVU816
	ldrb	r3, [r5, #4]	@ zero_extendqisi2
.LVL215:
	.loc 2 606 22 view .LVU817
.LBE930:
.LBE929:
	.loc 1 543 6 view .LVU818
	cmp	r3, #255
	beq	.L169
	.loc 1 554 10 is_stmt 1 view .LVU819
.LVL216:
.LBB931:
.LBI931:
	.loc 2 951 19 view .LVU820
.LBB932:
	.loc 2 953 2 view .LVU821
.LBB933:
	.loc 2 953 26 view .LVU822
	.loc 2 953 153 view .LVU823
	.loc 2 953 156 is_stmt 0 view .LVU824
	ldr	r3, [r5, #4]	@ unaligned
.LBE933:
	.loc 2 955 165 view .LVU825
	cbnz	r3, .L152
.LBB934:
	.loc 2 954 20 is_stmt 1 view .LVU826
.LVL217:
	.loc 2 954 147 view .LVU827
	.loc 2 954 150 is_stmt 0 view .LVU828
	ldr	r3, [r5, #8]	@ unaligned
.LBE934:
	.loc 2 953 171 view .LVU829
	cmp	r3, #0
	bne	.L153
.LBB935:
	.loc 2 955 20 is_stmt 1 view .LVU830
.LVL218:
	.loc 2 955 147 view .LVU831
	.loc 2 955 150 is_stmt 0 view .LVU832
	ldr	r3, [r5, #12]	@ unaligned
.LBE935:
	.loc 2 954 165 view .LVU833
	cmp	r3, #0
	bne	.L154
.LBB936:
	.loc 2 956 20 is_stmt 1 view .LVU834
.LVL219:
	.loc 2 956 147 view .LVU835
	.loc 2 956 150 is_stmt 0 view .LVU836
	ldr	r3, [r5, #16]	@ unaligned
.LBE936:
	.loc 2 955 165 view .LVU837
	cmp	r3, #0
	beq	.L155
	movs	r3, #0
	b	.L130
.LVL220:
.L168:
	.loc 2 955 165 view .LVU838
.LBE932:
.LBE931:
	.loc 1 540 4 is_stmt 1 view .LVU839
.LBB939:
.LBI939:
	.loc 3 633 16 view .LVU840
.LBB940:
	.loc 3 635 4 view .LVU841
	.loc 3 635 5 view .LVU842
	.loc 3 637 2 view .LVU843
	.loc 3 637 36 is_stmt 0 view .LVU844
	ldrsb	r0, [r0, #114]
.LVL221:
.LBB941:
.LBI941:
	.loc 7 219 31 is_stmt 1 view .LVU845
.LBB942:
	.loc 7 227 2 view .LVU846
	.loc 7 227 7 view .LVU847
	.loc 7 227 55 view .LVU848
	.loc 7 228 2 view .LVU849
	.loc 7 228 9 is_stmt 0 view .LVU850
	bl	z_impl_net_if_get_by_index
.LVL222:
	.loc 7 228 9 view .LVU851
.LBE942:
.LBE941:
.LBE940:
.LBE939:
	.loc 1 540 10 view .LVU852
	str	r0, [sp, #16]
	b	.L127
.L169:
.LBB943:
	.loc 1 544 4 is_stmt 1 view .LVU853
	.loc 1 546 4 view .LVU854
	.loc 1 546 12 is_stmt 0 view .LVU855
	add	r1, sp, #16
	adds	r0, r5, #4
	bl	net_if_ipv6_maddr_lookup
.LVL223:
	.loc 1 548 4 is_stmt 1 view .LVU856
	.loc 1 548 7 is_stmt 0 view .LVU857
	mov	r6, r0
	cmp	r0, #0
	beq	.L151
	.loc 1 552 4 is_stmt 1 view .LVU858
	.loc 1 552 8 is_stmt 0 view .LVU859
	adds	r6, r6, #4
.LVL224:
	.loc 1 552 8 view .LVU860
.LBE943:
	b	.L129
.LVL225:
.L152:
.LBB944:
.LBB937:
	.loc 2 955 165 view .LVU861
	movs	r3, #0
.L130:
.LVL226:
	.loc 2 955 165 view .LVU862
.LBE937:
.LBE944:
	.loc 1 554 13 view .LVU863
	cbz	r3, .L131
	.loc 1 555 4 is_stmt 1 view .LVU864
	.loc 1 555 14 is_stmt 0 view .LVU865
	ldr	r3, [sp, #16]
	.loc 1 555 7 view .LVU866
	cbz	r3, .L170
.L132:
	.loc 1 560 4 is_stmt 1 view .LVU867
	.loc 1 560 29 is_stmt 0 view .LVU868
	bl	net_ipv6_unspecified_address
.LVL227:
	mov	r6, r0
.LVL228:
.L129:
	.loc 1 574 3 is_stmt 1 view .LVU869
	.loc 1 574 7 is_stmt 0 view .LVU870
	ldr	r3, [sp, #16]
	.loc 1 574 6 view .LVU871
	cbz	r3, .L171
	.loc 1 582 3 is_stmt 1 view .LVU872
	.loc 1 592 3 view .LVU873
	add	r7, r4, #8
.LVL229:
.LBB945:
.LBI945:
	.loc 9 899 19 view .LVU874
.LBB946:
	.loc 9 909 2 view .LVU875
	.loc 9 909 7 view .LVU876
	.loc 9 909 55 view .LVU877
	.loc 9 910 2 view .LVU878
	.loc 9 910 9 is_stmt 0 view .LVU879
	mov	r2, #-1
	mov	r3, #-1
	mov	r0, r7
	bl	z_impl_k_mutex_lock
.LVL230:
	.loc 9 910 9 view .LVU880
.LBE946:
.LBE945:
	.loc 1 594 3 is_stmt 1 view .LVU881
	.loc 1 596 3 view .LVU882
.LBB947:
.LBI947:
	.loc 3 648 20 view .LVU883
.LBB948:
	.loc 3 651 4 view .LVU884
	.loc 3 651 5 view .LVU885
	.loc 3 653 2 view .LVU886
	.loc 3 653 19 is_stmt 0 view .LVU887
	ldr	r0, [sp, #16]
	bl	net_if_get_by_iface
.LVL231:
	.loc 3 653 17 view .LVU888
	strb	r0, [r4, #114]
.LVL232:
	.loc 3 653 17 view .LVU889
.LBE948:
.LBE947:
	.loc 1 598 3 is_stmt 1 view .LVU890
	.loc 1 598 3 is_stmt 0 view .LVU891
.LBE926:
	.loc 2 1392 2 is_stmt 1 view .LVU892
.LBB981:
	.loc 1 598 46 is_stmt 0 view .LVU893
	movs	r3, #2
	strh	r3, [r4, #28]	@ movhi
	.loc 1 599 3 is_stmt 1 view .LVU894
.LVL233:
	.loc 1 599 3 is_stmt 0 view .LVU895
.LBE981:
	.loc 2 1392 2 is_stmt 1 view .LVU896
.LBB982:
	.loc 1 599 44 is_stmt 0 view .LVU897
	str	r6, [r4, #32]
	.loc 1 600 3 is_stmt 1 view .LVU898
	.loc 1 600 12 is_stmt 0 view .LVU899
	ldrh	r1, [r5, #2]
	.loc 1 600 6 view .LVU900
	cbnz	r1, .L172
	.loc 1 612 4 is_stmt 1 view .LVU901
.LVL234:
	.loc 1 612 4 is_stmt 0 view .LVU902
.LBE982:
	.loc 2 1392 2 is_stmt 1 view .LVU903
.LBB983:
	.loc 1 613 34 is_stmt 0 view .LVU904
	ldrh	r3, [r4, #30]
	.loc 1 612 21 view .LVU905
	strh	r3, [r5, #2]	@ movhi
	.loc 1 594 7 view .LVU906
	movs	r6, #0
.LVL235:
.L137:
	.loc 1 616 371 is_stmt 1 view .LVU907
	.loc 1 625 3 view .LVU908
.LBB949:
.LBI949:
	.loc 9 917 19 view .LVU909
.LBB950:
	.loc 9 925 2 view .LVU910
	.loc 9 925 7 view .LVU911
	.loc 9 925 55 view .LVU912
	.loc 9 926 2 view .LVU913
	.loc 9 926 9 is_stmt 0 view .LVU914
	mov	r0, r7
	bl	z_impl_k_mutex_unlock
.LVL236:
	.loc 9 926 9 view .LVU915
.LBE950:
.LBE949:
	.loc 1 627 3 is_stmt 1 view .LVU916
	.loc 1 627 10 is_stmt 0 view .LVU917
	b	.L123
.LVL237:
.L153:
.LBB951:
.LBB938:
	.loc 2 955 165 view .LVU918
	movs	r3, #0
	b	.L130
.LVL238:
.L154:
	.loc 2 955 165 view .LVU919
	movs	r3, #0
	b	.L130
.LVL239:
.L155:
	.loc 2 955 165 view .LVU920
	movs	r3, #1
	b	.L130
.LVL240:
.L170:
	.loc 2 955 165 view .LVU921
.LBE938:
.LBE951:
	.loc 1 556 5 is_stmt 1 view .LVU922
	.loc 1 556 5 is_stmt 0 view .LVU923
.LBE983:
	.loc 2 1365 2 is_stmt 1 view .LVU924
.LBB984:
	.loc 1 556 13 is_stmt 0 view .LVU925
	add	r0, r4, #44
	bl	net_if_ipv6_select_src_iface
.LVL241:
	.loc 1 556 11 view .LVU926
	str	r0, [sp, #16]
	b	.L132
.L131:
.LBB952:
	.loc 1 562 4 is_stmt 1 view .LVU927
	.loc 1 564 4 view .LVU928
	.loc 1 565 6 is_stmt 0 view .LVU929
	adds	r0, r5, #4
	.loc 1 566 12 view .LVU930
	ldr	r3, [sp, #16]
	.loc 1 564 13 view .LVU931
	cbz	r3, .L173
.L133:
	.loc 1 564 13 discriminator 4 view .LVU932
	mov	r1, r6
	bl	net_if_ipv6_addr_lookup
.LVL242:
	.loc 1 567 4 is_stmt 1 discriminator 4 view .LVU933
	.loc 1 567 7 is_stmt 0 discriminator 4 view .LVU934
	mov	r6, r0
	cmp	r0, #0
	beq	.L156
	.loc 1 571 4 is_stmt 1 view .LVU935
	.loc 1 571 8 is_stmt 0 view .LVU936
	adds	r6, r6, #4
.LVL243:
	.loc 1 571 8 view .LVU937
	b	.L129
.LVL244:
.L173:
	.loc 1 564 13 view .LVU938
	add	r6, sp, #16
	b	.L133
.LVL245:
.L171:
	.loc 1 564 13 view .LVU939
.LBE952:
	.loc 1 575 4 is_stmt 1 view .LVU940
.LBB953:
	.loc 1 575 9 view .LVU941
	.loc 1 575 58 view .LVU942
	.loc 1 575 15 view .LVU943
	.loc 1 575 3 view .LVU944
.LBE953:
.LBE984:
	.file 14 "/home/sebin/thesis/zephyrproject/zephyr/include/syscall.h"
	.loc 14 120 2 view .LVU945
.LBB985:
.LBB957:
	.loc 1 575 42 view .LVU946
	.loc 1 575 108 view .LVU947
	.loc 1 575 207 view .LVU948
.LBB954:
	.loc 1 575 216 view .LVU949
	.loc 1 575 227 view .LVU950
	.loc 1 575 315 view .LVU951
	.loc 1 575 320 view .LVU952
	.loc 1 575 322 view .LVU953
.LBE954:
.LBE957:
.LBE985:
	.loc 1 575 4 view .LVU954
	.loc 1 575 4 view .LVU955
.LBB986:
.LBB958:
.LBB955:
	.loc 1 575 15 view .LVU956
	.loc 1 575 17 view .LVU957
	.loc 1 575 40 is_stmt 0 view .LVU958
	adds	r1, r5, #4
	movs	r0, #2
	bl	net_sprint_addr
.LVL246:
	.loc 1 575 40 view .LVU959
.LBE955:
.LBE958:
.LBE986:
	.file 15 "/home/sebin/thesis/zephyrproject/zephyr/include/logging/log.h"
	.loc 15 290 2 is_stmt 1 view .LVU960
	.loc 15 291 3 view .LVU961
.LBB987:
.LBB959:
.LBB956:
	.loc 1 575 17 is_stmt 0 view .LVU962
	str	r0, [sp, #8]
	ldr	r3, .L175
	str	r3, [sp, #4]
	movs	r0, #0
	str	r0, [sp]
	mov	r3, r0
	movs	r2, #1
	ldr	r1, .L175+4
	bl	z_log_msg2_runtime_create
.LVL247:
	.loc 1 575 81 is_stmt 1 view .LVU963
	.loc 1 575 59 view .LVU964
.LBE956:
	.loc 1 575 14 view .LVU965
	.loc 1 575 21 view .LVU966
	.loc 1 575 21 is_stmt 0 view .LVU967
.LBE959:
	.loc 1 575 115 is_stmt 1 view .LVU968
	.loc 1 579 4 view .LVU969
	.loc 1 579 11 is_stmt 0 view .LVU970
	mvn	r6, #124
.LVL248:
	.loc 1 579 11 view .LVU971
	b	.L123
.LVL249:
.L172:
	.loc 1 601 4 is_stmt 1 view .LVU972
	.loc 1 601 10 is_stmt 0 view .LVU973
	mov	r2, r5
	mov	r0, r3
	bl	check_used_port
.LVL250:
	.loc 1 603 4 is_stmt 1 view .LVU974
	.loc 1 603 7 is_stmt 0 view .LVU975
	mov	r6, r0
.LVL251:
	.loc 1 603 7 view .LVU976
	cbnz	r0, .L136
	.loc 1 604 5 is_stmt 1 view .LVU977
.LVL252:
	.loc 1 604 5 is_stmt 0 view .LVU978
.LBE987:
	.loc 2 1392 2 is_stmt 1 view .LVU979
.LBB988:
	.loc 1 605 11 is_stmt 0 view .LVU980
	ldrh	r3, [r5, #2]
	.loc 1 604 46 view .LVU981
	strh	r3, [r4, #30]	@ movhi
	b	.L137
.L136:
	.loc 1 607 5 is_stmt 1 view .LVU982
.LBB960:
	.loc 1 607 10 view .LVU983
	.loc 1 607 59 view .LVU984
	.loc 1 607 16 view .LVU985
	.loc 1 607 4 view .LVU986
.LBE960:
.LBE988:
	.loc 14 120 2 view .LVU987
.LVL253:
.LBB989:
.LBB975:
	.loc 1 607 43 view .LVU988
	.loc 1 607 109 view .LVU989
	.loc 1 607 208 view .LVU990
.LBB961:
	.loc 1 607 217 view .LVU991
	.loc 1 607 228 view .LVU992
	.loc 1 607 316 view .LVU993
	.loc 1 607 321 view .LVU994
	.loc 1 607 323 view .LVU995
.LBE961:
.LBE975:
.LBE989:
	.loc 1 607 5 view .LVU996
	.loc 1 607 5 view .LVU997
.LBB990:
.LBB976:
.LBB972:
	.loc 1 607 162 view .LVU998
.LBB962:
	.loc 1 607 167 view .LVU999
	.loc 1 607 178 view .LVU1000
.LBE962:
.LBE972:
.LBE976:
.LBE990:
	.loc 1 607 5 view .LVU1001
	.loc 1 607 219 view .LVU1002
	.loc 1 607 4 view .LVU1003
	.loc 1 607 33 view .LVU1004
	.loc 1 607 6 view .LVU1005
	.loc 1 607 26 view .LVU1006
	.loc 1 607 50 view .LVU1007
	.loc 1 607 25 view .LVU1008
	.loc 1 607 43 view .LVU1009
	.loc 1 607 63 view .LVU1010
	.loc 1 607 110 view .LVU1011
	.loc 1 607 142 view .LVU1012
	.loc 1 607 15 view .LVU1013
	.loc 1 607 57 view .LVU1014
	.loc 1 607 99 view .LVU1015
	.loc 1 607 144 view .LVU1016
	.loc 1 607 149 view .LVU1017
	.loc 1 607 391 view .LVU1018
	.loc 1 607 397 view .LVU1019
	.loc 1 607 1470 view .LVU1020
	.loc 1 607 1494 view .LVU1021
	.loc 1 607 1539 view .LVU1022
	.loc 1 607 1641 view .LVU1023
	.loc 1 607 1656 view .LVU1024
	.loc 1 607 1931 view .LVU1025
	.loc 1 607 1979 view .LVU1026
	.loc 1 607 3183 view .LVU1027
	.loc 1 607 3190 view .LVU1028
	.loc 1 607 3213 view .LVU1029
	.loc 1 607 3247 view .LVU1030
	.loc 1 607 3253 view .LVU1031
	.loc 1 607 3258 view .LVU1032
	.loc 1 607 3566 view .LVU1033
	.loc 1 607 3572 view .LVU1034
	.loc 1 607 0 view .LVU1035
	.loc 1 607 0 view .LVU1036
	.loc 1 607 0 view .LVU1037
	.loc 1 607 0 view .LVU1038
	.loc 1 607 0 view .LVU1039
	.loc 1 607 0 view .LVU1040
	.loc 1 607 0 view .LVU1041
	.loc 1 607 0 view .LVU1042
	.loc 1 607 0 view .LVU1043
	.loc 1 607 0 view .LVU1044
	.loc 1 607 0 view .LVU1045
	.loc 1 607 0 view .LVU1046
	.loc 1 607 0 view .LVU1047
	.loc 1 607 18 view .LVU1048
.LBB991:
.LBB977:
.LBB973:
.LBB970:
	.loc 1 607 13 view .LVU1049
	.loc 1 607 18 view .LVU1050
	.loc 1 607 41 view .LVU1051
	.loc 1 607 161 view .LVU1052
	.loc 1 607 287 view .LVU1053
	.loc 1 607 490 view .LVU1054
	.loc 1 607 7 view .LVU1055
	.loc 1 607 9 view .LVU1056
	.loc 1 607 22 view .LVU1057
.LBB963:
	.loc 1 607 5 view .LVU1058
	.loc 1 607 219 view .LVU1059
	.loc 1 607 4 view .LVU1060
	.loc 1 607 33 view .LVU1061
	.loc 1 607 62 view .LVU1062
	.loc 1 607 82 view .LVU1063
	.loc 1 607 106 view .LVU1064
	.loc 1 607 29 view .LVU1065
	.loc 1 607 47 view .LVU1066
	.loc 1 607 67 view .LVU1067
	.loc 1 607 114 view .LVU1068
	.loc 1 607 146 view .LVU1069
	.loc 1 607 15 view .LVU1070
	.loc 1 607 57 view .LVU1071
	.loc 1 607 99 view .LVU1072
	.loc 1 607 144 view .LVU1073
.LBB964:
	.loc 1 607 149 view .LVU1074
	.loc 1 607 391 view .LVU1075
	.loc 1 607 397 view .LVU1076
	.loc 1 607 1470 view .LVU1077
.LBE964:
.LBE963:
.LBE970:
.LBE973:
.LBE977:
.LBE991:
	.loc 1 607 1494 view .LVU1078
	.loc 1 607 1539 view .LVU1079
	.loc 1 607 1641 view .LVU1080
.LBB992:
.LBB978:
.LBB974:
.LBB971:
.LBB969:
.LBB965:
	.loc 1 607 1656 view .LVU1081
	.loc 1 607 1931 view .LVU1082
	.loc 1 607 1979 view .LVU1083
	.loc 1 607 2017 view .LVU1084
	.loc 1 607 2022 view .LVU1085
	.loc 1 607 2533 view .LVU1086
	.loc 1 607 3149 is_stmt 0 view .LVU1087
	ldr	r3, .L175+8
	str	r3, [sp, #64]
.LVL254:
	.loc 1 607 3183 is_stmt 1 view .LVU1088
	.loc 1 607 3190 view .LVU1089
	.loc 1 607 3213 view .LVU1090
	.loc 1 607 3213 is_stmt 0 view .LVU1091
.LBE965:
	.loc 1 607 3247 is_stmt 1 view .LVU1092
	.loc 1 607 3253 view .LVU1093
.LBB966:
	.loc 1 607 3258 view .LVU1094
	.loc 1 607 3566 view .LVU1095
	.loc 1 607 3572 view .LVU1096
	.loc 1 607 0 view .LVU1097
.LBB967:
	.loc 1 607 0 view .LVU1098
	ldrh	r2, [r5, #2]
	lsls	r3, r2, #8
	orr	r3, r3, r2, lsr #8
	uxth	r3, r3
.LVL255:
	.loc 1 607 0 view .LVU1099
	.loc 1 607 0 view .LVU1100
	.loc 1 607 0 is_stmt 0 view .LVU1101
.LBE967:
	.loc 1 607 0 is_stmt 1 view .LVU1102
	.loc 1 607 0 view .LVU1103
	.loc 1 607 0 view .LVU1104
	.loc 1 607 0 view .LVU1105
	.loc 1 607 0 view .LVU1106
	str	r3, [sp, #68]
	.loc 1 607 0 view .LVU1107
	.loc 1 607 0 view .LVU1108
.LVL256:
	.loc 1 607 0 view .LVU1109
	.loc 1 607 0 is_stmt 0 view .LVU1110
.LBE966:
	.loc 1 607 0 is_stmt 1 view .LVU1111
	.loc 1 607 0 view .LVU1112
	.loc 1 607 0 view .LVU1113
	.loc 1 607 0 view .LVU1114
	.loc 1 607 18 view .LVU1115
.LBB968:
	.loc 1 607 31 view .LVU1116
	.loc 1 607 52 is_stmt 0 view .LVU1117
	movs	r3, #0
.LVL257:
	.loc 1 607 52 view .LVU1118
	strh	r3, [sp, #21]	@ unaligned
	strb	r3, [sp, #23]
	movs	r2, #3
	strb	r2, [sp, #20]
	strb	r3, [sp, #22]
	.loc 1 607 177 is_stmt 1 view .LVU1119
	.loc 1 607 187 is_stmt 0 view .LVU1120
	ldr	r2, [sp, #20]
	str	r2, [sp, #60]
	.loc 1 607 187 view .LVU1121
.LBE968:
.LBE969:
	.loc 1 607 13 is_stmt 1 view .LVU1122
	.loc 1 607 20 view .LVU1123
	.loc 1 607 41 is_stmt 0 view .LVU1124
	mov	r2, r3
.LVL258:
	.loc 1 607 41 view .LVU1125
	bfi	r2, r3, #0, #1
.LVL259:
	.loc 1 607 41 view .LVU1126
	bfi	r2, r3, #1, #1
	bfi	r2, r3, #2, #1
	bfi	r2, r3, #3, #3
	movs	r1, #1
	bfi	r2, r1, #6, #3
	movs	r1, #12
	bfi	r2, r1, #9, #10
	.loc 1 607 176 is_stmt 1 view .LVU1127
	ubfx	r2, r2, #0, #19
.LVL260:
	.loc 1 607 176 is_stmt 0 view .LVU1128
	ldr	r1, .L175+4
	add	r0, sp, #48
.LVL261:
	.loc 1 607 176 view .LVU1129
	bl	z_log_msg2_finalize
.LVL262:
	.loc 1 607 176 view .LVU1130
.LBE971:
	.loc 1 607 15 is_stmt 1 view .LVU1131
	.loc 1 607 20 view .LVU1132
.LVL263:
	.loc 1 607 60 view .LVU1133
.LBE974:
	.loc 1 607 15 view .LVU1134
	.loc 1 607 22 view .LVU1135
	.loc 1 607 22 is_stmt 0 view .LVU1136
.LBE978:
	.loc 1 607 154 is_stmt 1 view .LVU1137
	.loc 1 609 5 view .LVU1138
	b	.L137
.LVL264:
.L150:
	.loc 1 536 11 is_stmt 0 view .LVU1139
	mvn	r6, #21
	b	.L123
.LVL265:
.L151:
.LBB979:
	.loc 1 549 12 view .LVU1140
	mvn	r6, #1
	b	.L123
.LVL266:
.L156:
	.loc 1 549 12 view .LVU1141
.LBE979:
.LBB980:
	.loc 1 568 12 view .LVU1142
	mvn	r6, #1
	b	.L123
.LVL267:
.L163:
	.loc 1 568 12 view .LVU1143
.LBE980:
.LBE992:
.LBB993:
	.loc 1 641 4 is_stmt 1 view .LVU1144
.LBB891:
.LBI891:
	.loc 3 633 16 view .LVU1145
.LBB892:
	.loc 3 635 4 view .LVU1146
	.loc 3 635 5 view .LVU1147
	.loc 3 637 2 view .LVU1148
	.loc 3 637 36 is_stmt 0 view .LVU1149
	ldrsb	r0, [r0, #114]
.LVL268:
.LBB893:
.LBI893:
	.loc 7 219 31 is_stmt 1 view .LVU1150
.LBB894:
	.loc 7 227 2 view .LVU1151
	.loc 7 227 7 view .LVU1152
	.loc 7 227 55 view .LVU1153
	.loc 7 228 2 view .LVU1154
	.loc 7 228 9 is_stmt 0 view .LVU1155
	bl	z_impl_net_if_get_by_index
.LVL269:
	.loc 7 228 9 view .LVU1156
.LBE894:
.LBE893:
.LBE892:
.LBE891:
	.loc 1 641 10 view .LVU1157
	str	r0, [sp, #16]
	b	.L139
.LVL270:
.L164:
.LBB895:
	.loc 1 645 4 is_stmt 1 view .LVU1158
	.loc 1 647 4 view .LVU1159
	.loc 1 647 12 is_stmt 0 view .LVU1160
	add	r1, sp, #16
	adds	r0, r5, #4
	bl	net_if_ipv4_maddr_lookup
.LVL271:
	.loc 1 649 4 is_stmt 1 view .LVU1161
	.loc 1 649 7 is_stmt 0 view .LVU1162
	mov	r6, r0
	cmp	r0, #0
	beq	.L159
	.loc 1 653 4 is_stmt 1 view .LVU1163
	.loc 1 653 8 is_stmt 0 view .LVU1164
	adds	r6, r6, #4
.LVL272:
	.loc 1 653 8 view .LVU1165
.LBE895:
	b	.L141
.LVL273:
.L165:
	.loc 1 657 5 is_stmt 1 view .LVU1166
	.loc 1 657 5 is_stmt 0 view .LVU1167
.LBE993:
	.loc 2 1378 2 is_stmt 1 view .LVU1168
.LBB994:
	.loc 1 657 13 is_stmt 0 view .LVU1169
	add	r0, r4, #44
	bl	net_if_ipv4_select_src_iface
.LVL274:
	.loc 1 657 11 view .LVU1170
	str	r0, [sp, #16]
	b	.L143
.L142:
	.loc 1 663 4 is_stmt 1 view .LVU1171
	.loc 1 664 6 is_stmt 0 view .LVU1172
	adds	r0, r5, #4
	.loc 1 665 12 view .LVU1173
	ldr	r3, [sp, #16]
	.loc 1 663 13 view .LVU1174
	cbz	r3, .L174
.L144:
	.loc 1 663 13 discriminator 4 view .LVU1175
	mov	r1, r6
	bl	net_if_ipv4_addr_lookup
.LVL275:
	.loc 1 666 4 is_stmt 1 discriminator 4 view .LVU1176
	.loc 1 666 7 is_stmt 0 discriminator 4 view .LVU1177
	mov	r6, r0
	cmp	r0, #0
	beq	.L160
	.loc 1 670 4 is_stmt 1 view .LVU1178
	.loc 1 670 8 is_stmt 0 view .LVU1179
	adds	r6, r6, #4
.LVL276:
	.loc 1 670 8 view .LVU1180
	b	.L141
.LVL277:
.L174:
	.loc 1 663 13 view .LVU1181
	add	r6, sp, #16
	b	.L144
.LVL278:
.L166:
	.loc 1 674 4 is_stmt 1 view .LVU1182
.LBB896:
	.loc 1 674 9 view .LVU1183
	.loc 1 674 58 view .LVU1184
	.loc 1 674 15 view .LVU1185
	.loc 1 674 3 view .LVU1186
.LBE896:
.LBE994:
	.loc 14 120 2 view .LVU1187
.LBB995:
.LBB900:
	.loc 1 674 42 view .LVU1188
	.loc 1 674 108 view .LVU1189
	.loc 1 674 207 view .LVU1190
.LBB897:
	.loc 1 674 216 view .LVU1191
	.loc 1 674 227 view .LVU1192
	.loc 1 674 315 view .LVU1193
	.loc 1 674 320 view .LVU1194
	.loc 1 674 322 view .LVU1195
.LBE897:
.LBE900:
.LBE995:
	.loc 1 674 4 view .LVU1196
	.loc 1 674 4 view .LVU1197
.LBB996:
.LBB901:
.LBB898:
	.loc 1 674 15 view .LVU1198
	.loc 1 674 17 view .LVU1199
	.loc 1 674 40 is_stmt 0 view .LVU1200
	adds	r1, r5, #4
	movs	r0, #1
	bl	net_sprint_addr
.LVL279:
	.loc 1 674 40 view .LVU1201
.LBE898:
.LBE901:
.LBE996:
	.loc 15 290 2 is_stmt 1 view .LVU1202
	.loc 15 291 3 view .LVU1203
.LBB997:
.LBB902:
.LBB899:
	.loc 1 674 17 is_stmt 0 view .LVU1204
	str	r0, [sp, #8]
	ldr	r3, .L175
	str	r3, [sp, #4]
	movs	r0, #0
	str	r0, [sp]
	mov	r3, r0
	movs	r2, #1
	ldr	r1, .L175+4
	bl	z_log_msg2_runtime_create
.LVL280:
	.loc 1 674 80 is_stmt 1 view .LVU1205
	.loc 1 674 59 view .LVU1206
.LBE899:
	.loc 1 674 14 view .LVU1207
	.loc 1 674 21 view .LVU1208
	.loc 1 674 21 is_stmt 0 view .LVU1209
.LBE902:
	.loc 1 674 114 is_stmt 1 view .LVU1210
	.loc 1 678 4 view .LVU1211
	.loc 1 678 11 is_stmt 0 view .LVU1212
	mvn	r6, #124
.LVL281:
	.loc 1 678 11 view .LVU1213
	b	.L123
.LVL282:
.L167:
	.loc 1 700 4 is_stmt 1 view .LVU1214
	.loc 1 700 10 is_stmt 0 view .LVU1215
	mov	r2, r5
	mov	r0, r3
	bl	check_used_port
.LVL283:
	.loc 1 702 4 is_stmt 1 view .LVU1216
	.loc 1 702 7 is_stmt 0 view .LVU1217
	mov	r6, r0
.LVL284:
	.loc 1 702 7 view .LVU1218
	cbnz	r0, .L147
	.loc 1 703 5 is_stmt 1 view .LVU1219
.LVL285:
	.loc 1 703 5 is_stmt 0 view .LVU1220
.LBE997:
	.loc 2 1406 2 is_stmt 1 view .LVU1221
.LBB998:
	.loc 1 704 11 is_stmt 0 view .LVU1222
	ldrh	r3, [r5, #2]
	.loc 1 703 44 view .LVU1223
	strh	r3, [r4, #30]	@ movhi
	b	.L148
.L147:
	.loc 1 706 5 is_stmt 1 view .LVU1224
.LBB903:
	.loc 1 706 10 view .LVU1225
	.loc 1 706 59 view .LVU1226
	.loc 1 706 16 view .LVU1227
	.loc 1 706 4 view .LVU1228
.LBE903:
.LBE998:
	.loc 14 120 2 view .LVU1229
.LVL286:
.LBB999:
.LBB918:
	.loc 1 706 43 view .LVU1230
	.loc 1 706 109 view .LVU1231
	.loc 1 706 208 view .LVU1232
.LBB904:
	.loc 1 706 217 view .LVU1233
	.loc 1 706 228 view .LVU1234
	.loc 1 706 316 view .LVU1235
	.loc 1 706 321 view .LVU1236
	.loc 1 706 323 view .LVU1237
.LBE904:
.LBE918:
.LBE999:
	.loc 1 706 5 view .LVU1238
	.loc 1 706 5 view .LVU1239
.LBB1000:
.LBB919:
.LBB915:
	.loc 1 706 160 view .LVU1240
.LBB905:
	.loc 1 706 165 view .LVU1241
	.loc 1 706 176 view .LVU1242
.LBE905:
.LBE915:
.LBE919:
.LBE1000:
	.loc 1 706 5 view .LVU1243
	.loc 1 706 219 view .LVU1244
	.loc 1 706 4 view .LVU1245
	.loc 1 706 33 view .LVU1246
	.loc 1 706 6 view .LVU1247
	.loc 1 706 26 view .LVU1248
	.loc 1 706 50 view .LVU1249
	.loc 1 706 25 view .LVU1250
	.loc 1 706 43 view .LVU1251
	.loc 1 706 63 view .LVU1252
	.loc 1 706 110 view .LVU1253
	.loc 1 706 142 view .LVU1254
	.loc 1 706 15 view .LVU1255
	.loc 1 706 57 view .LVU1256
	.loc 1 706 99 view .LVU1257
	.loc 1 706 144 view .LVU1258
	.loc 1 706 149 view .LVU1259
	.loc 1 706 391 view .LVU1260
	.loc 1 706 397 view .LVU1261
	.loc 1 706 1470 view .LVU1262
	.loc 1 706 1494 view .LVU1263
	.loc 1 706 1539 view .LVU1264
	.loc 1 706 1641 view .LVU1265
	.loc 1 706 1656 view .LVU1266
	.loc 1 706 1931 view .LVU1267
	.loc 1 706 1979 view .LVU1268
	.loc 1 706 3183 view .LVU1269
	.loc 1 706 3190 view .LVU1270
	.loc 1 706 3213 view .LVU1271
	.loc 1 706 3247 view .LVU1272
	.loc 1 706 3253 view .LVU1273
	.loc 1 706 3258 view .LVU1274
	.loc 1 706 3564 view .LVU1275
	.loc 1 706 3570 view .LVU1276
	.loc 1 706 0 view .LVU1277
	.loc 1 706 0 view .LVU1278
	.loc 1 706 0 view .LVU1279
	.loc 1 706 0 view .LVU1280
	.loc 1 706 0 view .LVU1281
	.loc 1 706 0 view .LVU1282
	.loc 1 706 0 view .LVU1283
	.loc 1 706 0 view .LVU1284
	.loc 1 706 0 view .LVU1285
	.loc 1 706 0 view .LVU1286
	.loc 1 706 0 view .LVU1287
	.loc 1 706 0 view .LVU1288
	.loc 1 706 0 view .LVU1289
	.loc 1 706 18 view .LVU1290
.LBB1001:
.LBB920:
.LBB916:
.LBB913:
	.loc 1 706 13 view .LVU1291
	.loc 1 706 18 view .LVU1292
	.loc 1 706 41 view .LVU1293
	.loc 1 706 161 view .LVU1294
	.loc 1 706 287 view .LVU1295
	.loc 1 706 490 view .LVU1296
	.loc 1 706 7 view .LVU1297
	.loc 1 706 9 view .LVU1298
	.loc 1 706 22 view .LVU1299
.LBB906:
	.loc 1 706 5 view .LVU1300
	.loc 1 706 219 view .LVU1301
	.loc 1 706 4 view .LVU1302
	.loc 1 706 33 view .LVU1303
	.loc 1 706 62 view .LVU1304
	.loc 1 706 82 view .LVU1305
	.loc 1 706 106 view .LVU1306
	.loc 1 706 29 view .LVU1307
	.loc 1 706 47 view .LVU1308
	.loc 1 706 67 view .LVU1309
	.loc 1 706 114 view .LVU1310
	.loc 1 706 146 view .LVU1311
	.loc 1 706 15 view .LVU1312
	.loc 1 706 57 view .LVU1313
	.loc 1 706 99 view .LVU1314
	.loc 1 706 144 view .LVU1315
.LBB907:
	.loc 1 706 149 view .LVU1316
	.loc 1 706 391 view .LVU1317
	.loc 1 706 397 view .LVU1318
	.loc 1 706 1470 view .LVU1319
.LBE907:
.LBE906:
.LBE913:
.LBE916:
.LBE920:
.LBE1001:
	.loc 1 706 1494 view .LVU1320
	.loc 1 706 1539 view .LVU1321
	.loc 1 706 1641 view .LVU1322
.LBB1002:
.LBB921:
.LBB917:
.LBB914:
.LBB912:
.LBB908:
	.loc 1 706 1656 view .LVU1323
	.loc 1 706 1931 view .LVU1324
	.loc 1 706 1979 view .LVU1325
	.loc 1 706 2017 view .LVU1326
	.loc 1 706 2022 view .LVU1327
	.loc 1 706 2533 view .LVU1328
	.loc 1 706 3149 is_stmt 0 view .LVU1329
	ldr	r3, .L175+8
	str	r3, [sp, #40]
.LVL287:
	.loc 1 706 3183 is_stmt 1 view .LVU1330
	.loc 1 706 3190 view .LVU1331
	.loc 1 706 3213 view .LVU1332
	.loc 1 706 3213 is_stmt 0 view .LVU1333
.LBE908:
	.loc 1 706 3247 is_stmt 1 view .LVU1334
	.loc 1 706 3253 view .LVU1335
.LBB909:
	.loc 1 706 3258 view .LVU1336
	.loc 1 706 3564 view .LVU1337
	.loc 1 706 3570 view .LVU1338
	.loc 1 706 0 view .LVU1339
.LBB910:
	.loc 1 706 0 view .LVU1340
	ldrh	r2, [r5, #2]
	lsls	r3, r2, #8
	orr	r3, r3, r2, lsr #8
	uxth	r3, r3
.LVL288:
	.loc 1 706 0 view .LVU1341
	.loc 1 706 0 view .LVU1342
	.loc 1 706 0 is_stmt 0 view .LVU1343
.LBE910:
	.loc 1 706 0 is_stmt 1 view .LVU1344
	.loc 1 706 0 view .LVU1345
	.loc 1 706 0 view .LVU1346
	.loc 1 706 0 view .LVU1347
	.loc 1 706 0 view .LVU1348
	str	r3, [sp, #44]
	.loc 1 706 0 view .LVU1349
	.loc 1 706 0 view .LVU1350
.LVL289:
	.loc 1 706 0 view .LVU1351
	.loc 1 706 0 is_stmt 0 view .LVU1352
.LBE909:
	.loc 1 706 0 is_stmt 1 view .LVU1353
	.loc 1 706 0 view .LVU1354
	.loc 1 706 0 view .LVU1355
	.loc 1 706 0 view .LVU1356
	.loc 1 706 18 view .LVU1357
.LBB911:
	.loc 1 706 31 view .LVU1358
	.loc 1 706 52 is_stmt 0 view .LVU1359
	movs	r3, #0
.LVL290:
	.loc 1 706 52 view .LVU1360
	strh	r3, [sp, #21]	@ unaligned
	strb	r3, [sp, #23]
	movs	r2, #3
	strb	r2, [sp, #20]
	strb	r3, [sp, #22]
	.loc 1 706 177 is_stmt 1 view .LVU1361
	.loc 1 706 187 is_stmt 0 view .LVU1362
	ldr	r2, [sp, #20]
	str	r2, [sp, #36]
	.loc 1 706 187 view .LVU1363
.LBE911:
.LBE912:
	.loc 1 706 13 is_stmt 1 view .LVU1364
	.loc 1 706 20 view .LVU1365
	.loc 1 706 41 is_stmt 0 view .LVU1366
	mov	r2, r3
.LVL291:
	.loc 1 706 41 view .LVU1367
	bfi	r2, r3, #0, #1
.LVL292:
	.loc 1 706 41 view .LVU1368
	bfi	r2, r3, #1, #1
	bfi	r2, r3, #2, #1
	bfi	r2, r3, #3, #3
	movs	r1, #1
	bfi	r2, r1, #6, #3
	movs	r1, #12
	bfi	r2, r1, #9, #10
	.loc 1 706 176 is_stmt 1 view .LVU1369
	ubfx	r2, r2, #0, #19
.LVL293:
	.loc 1 706 176 is_stmt 0 view .LVU1370
	ldr	r1, .L175+4
	add	r0, sp, #24
.LVL294:
	.loc 1 706 176 view .LVU1371
	bl	z_log_msg2_finalize
.LVL295:
	.loc 1 706 176 view .LVU1372
.LBE914:
	.loc 1 706 15 is_stmt 1 view .LVU1373
	.loc 1 706 20 view .LVU1374
.LVL296:
	.loc 1 706 60 view .LVU1375
.LBE917:
	.loc 1 706 15 view .LVU1376
	.loc 1 706 22 view .LVU1377
	.loc 1 706 22 is_stmt 0 view .LVU1378
.LBE921:
	.loc 1 706 152 is_stmt 1 view .LVU1379
	.loc 1 708 5 view .LVU1380
	b	.L148
.LVL297:
.L158:
	.loc 1 637 11 is_stmt 0 view .LVU1381
	mvn	r6, #21
	b	.L123
.LVL298:
.L159:
.LBB922:
	.loc 1 650 12 view .LVU1382
	mvn	r6, #1
	b	.L123
.LVL299:
.L160:
	.loc 1 650 12 view .LVU1383
.LBE922:
	.loc 1 667 12 view .LVU1384
	mvn	r6, #1
	b	.L123
.LVL300:
.L149:
	.loc 1 667 12 view .LVU1385
.LBE1002:
	.loc 1 527 10 view .LVU1386
	mvn	r6, #126
	b	.L123
.L157:
	.loc 1 832 9 view .LVU1387
	mvn	r6, #21
	b	.L123
.L176:
	.align	2
.L175:
	.word	.LC0
	.word	.LANCHOR2
	.word	.LC1
	.cfi_endproc
.LFE1027:
	.size	net_context_bind, .-net_context_bind
	.section	.text.bind_default,"ax",%progbits
	.align	1
	.syntax unified
	.thumb
	.thumb_func
	.fpu fpv4-sp-d16
	.type	bind_default, %function
bind_default:
.LVL301:
.LFB1026:
	.loc 1 428 1 is_stmt 1 view -0
	.cfi_startproc
	@ args = 0, pretend = 0, frame = 24
	@ frame_needed = 0, uses_anonymous_args = 0
	.loc 1 428 1 is_stmt 0 view .LVU1389
	push	{r4, r5, lr}
	.cfi_def_cfa_offset 12
	.cfi_offset 4, -12
	.cfi_offset 5, -8
	.cfi_offset 14, -4
	sub	sp, sp, #28
	.cfi_def_cfa_offset 40
	mov	r4, r0
	.loc 1 429 2 is_stmt 1 view .LVU1390
.LVL302:
.LBB1003:
.LBI1003:
	.loc 3 467 27 view .LVU1391
.LBB1004:
	.loc 3 469 4 view .LVU1392
	.loc 3 469 5 view .LVU1393
	.loc 3 471 2 view .LVU1394
	.loc 3 471 18 is_stmt 0 view .LVU1395
	ldrh	r3, [r0, #112]
	.loc 3 471 74 view .LVU1396
	ubfx	r3, r3, #3, #3
.LVL303:
	.loc 3 471 74 view .LVU1397
.LBE1004:
.LBE1003:
	.loc 1 431 2 is_stmt 1 view .LVU1398
	.loc 1 431 5 is_stmt 0 view .LVU1399
	cmp	r3, #2
	beq	.L186
	.loc 1 449 2 is_stmt 1 view .LVU1400
	.loc 1 449 5 is_stmt 0 view .LVU1401
	cmp	r3, #1
	bne	.L183
.LBB1005:
	.loc 1 450 3 is_stmt 1 view .LVU1402
	.loc 1 452 3 view .LVU1403
.LVL304:
	.loc 1 452 3 is_stmt 0 view .LVU1404
.LBE1005:
	.loc 2 1406 2 is_stmt 1 view .LVU1405
.LBB1006:
	.loc 1 452 35 is_stmt 0 view .LVU1406
	ldr	r3, [r0, #32]
.LVL305:
	.loc 1 452 6 view .LVU1407
	cbz	r3, .L187
	.loc 1 453 11 view .LVU1408
	movs	r0, #0
.LVL306:
.L177:
	.loc 1 453 11 view .LVU1409
.LBE1006:
	.loc 1 510 1 view .LVU1410
	add	sp, sp, #28
	.cfi_remember_state
	.cfi_def_cfa_offset 12
	@ sp needed
	pop	{r4, r5, pc}
.LVL307:
.L186:
	.cfi_restore_state
.LBB1007:
	.loc 1 432 3 is_stmt 1 view .LVU1411
	.loc 1 434 3 view .LVU1412
	.loc 1 434 3 is_stmt 0 view .LVU1413
.LBE1007:
	.loc 2 1392 2 is_stmt 1 view .LVU1414
.LBB1008:
	.loc 1 434 36 is_stmt 0 view .LVU1415
	ldr	r3, [r0, #32]
.LVL308:
	.loc 1 434 6 view .LVU1416
	cbz	r3, .L188
	.loc 1 435 11 view .LVU1417
	movs	r0, #0
.LVL309:
	.loc 1 435 11 view .LVU1418
	b	.L177
.LVL310:
.L188:
	.loc 1 438 3 is_stmt 1 view .LVU1419
	.loc 1 438 21 is_stmt 0 view .LVU1420
	movs	r3, #2
	strh	r3, [sp]	@ movhi
.LVL311:
	.loc 1 439 2 is_stmt 1 view .LVU1421
	.loc 1 439 2 is_stmt 0 view .LVU1422
	bl	net_ipv6_unspecified_address
.LVL312:
	.loc 1 439 2 view .LVU1423
	mov	r3, r0
	.loc 1 439 24 view .LVU1424
	add	r5, sp, #4
	ldr	r0, [r0]	@ unaligned
	ldr	r1, [r3, #4]	@ unaligned
	ldr	r2, [r3, #8]	@ unaligned
	ldr	r3, [r3, #12]	@ unaligned
	stmia	r5!, {r0, r1, r2, r3}
	.loc 1 441 3 is_stmt 1 view .LVU1425
	.loc 1 442 4 is_stmt 0 view .LVU1426
	mov	r1, sp
	mov	r0, r4
	bl	find_available_port
.LVL313:
	.loc 1 441 19 view .LVU1427
	strh	r0, [sp, #2]	@ movhi
	.loc 1 445 3 is_stmt 1 view .LVU1428
	.loc 1 445 10 is_stmt 0 view .LVU1429
	movs	r2, #24
	mov	r1, sp
	mov	r0, r4
	bl	net_context_bind
.LVL314:
	b	.L177
.LVL315:
.L187:
	.loc 1 445 10 view .LVU1430
.LBE1008:
.LBB1009:
	.loc 1 456 3 is_stmt 1 view .LVU1431
	.loc 1 456 20 is_stmt 0 view .LVU1432
	movs	r3, #1
	strh	r3, [sp]	@ movhi
.LVL316:
	.loc 1 457 3 is_stmt 1 view .LVU1433
	.loc 1 457 25 is_stmt 0 view .LVU1434
	movs	r3, #0
	str	r3, [sp, #4]
	.loc 1 458 3 is_stmt 1 view .LVU1435
	.loc 1 459 4 is_stmt 0 view .LVU1436
	mov	r1, sp
	bl	find_available_port
.LVL317:
	.loc 1 458 18 view .LVU1437
	strh	r0, [sp, #2]	@ movhi
	.loc 1 462 3 is_stmt 1 view .LVU1438
	.loc 1 462 10 is_stmt 0 view .LVU1439
	movs	r2, #8
	mov	r1, sp
	mov	r0, r4
	bl	net_context_bind
.LVL318:
	b	.L177
.LVL319:
.L183:
	.loc 1 462 10 view .LVU1440
.LBE1009:
	.loc 1 509 9 view .LVU1441
	mvn	r0, #21
.LVL320:
	.loc 1 509 9 view .LVU1442
	b	.L177
	.cfi_endproc
.LFE1026:
	.size	bind_default, .-bind_default
	.section	.text.recv_udp,"ax",%progbits
	.align	1
	.syntax unified
	.thumb
	.thumb_func
	.fpu fpv4-sp-d16
	.type	recv_udp, %function
recv_udp:
.LVL321:
.LFB1049:
	.loc 1 1880 1 is_stmt 1 view -0
	.cfi_startproc
	@ args = 4, pretend = 0, frame = 40
	@ frame_needed = 0, uses_anonymous_args = 0
	.loc 1 1880 1 is_stmt 0 view .LVU1444
	push	{r4, r5, r6, r7, lr}
	.cfi_def_cfa_offset 20
	.cfi_offset 4, -20
	.cfi_offset 5, -16
	.cfi_offset 6, -12
	.cfi_offset 7, -8
	.cfi_offset 14, -4
	sub	sp, sp, #68
	.cfi_def_cfa_offset 88
	mov	r4, r0
	mov	r5, r1
	.loc 1 1881 2 is_stmt 1 view .LVU1445
	.loc 1 1881 18 is_stmt 0 view .LVU1446
	movs	r3, #0
	str	r3, [sp, #24]
	str	r3, [sp, #28]
	str	r3, [sp, #32]
	str	r3, [sp, #36]
	str	r3, [sp, #40]
	str	r3, [sp, #44]
.LVL322:
.LBB1010:
.LBI1010:
	.loc 3 467 27 is_stmt 1 view .LVU1447
.LBB1011:
	.loc 3 469 4 view .LVU1448
	.loc 3 469 5 view .LVU1449
	.loc 3 471 2 view .LVU1450
	.loc 3 471 18 is_stmt 0 view .LVU1451
	ldrh	r3, [r0, #112]
	.loc 3 471 74 view .LVU1452
	ubfx	r3, r3, #3, #3
.LVL323:
	.loc 3 471 74 view .LVU1453
.LBE1011:
.LBE1010:
	.loc 1 1881 18 view .LVU1454
	strh	r3, [sp, #24]	@ movhi
	.loc 1 1884 2 is_stmt 1 view .LVU1455
.LVL324:
	.loc 1 1885 2 view .LVU1456
	.loc 1 1886 2 view .LVU1457
	.loc 1 1888 2 view .LVU1458
	.loc 1 1890 2 view .LVU1459
	.loc 1 1890 13 is_stmt 0 view .LVU1460
	ldr	r0, [r0, #64]
.LVL325:
	.loc 1 1890 5 view .LVU1461
	cbz	r0, .L190
	.loc 1 1891 3 is_stmt 1 view .LVU1462
	bl	net_conn_unregister
.LVL326:
	.loc 1 1892 3 view .LVU1463
	.loc 1 1892 25 is_stmt 0 view .LVU1464
	movs	r3, #0
	str	r3, [r4, #64]
.LVL327:
.L190:
	.loc 1 1895 2 is_stmt 1 view .LVU1465
	.loc 1 1895 8 is_stmt 0 view .LVU1466
	mov	r0, r4
	bl	bind_default
.LVL328:
	.loc 1 1896 2 is_stmt 1 view .LVU1467
	.loc 1 1896 5 is_stmt 0 view .LVU1468
	cmp	r0, #0
	bne	.L189
	.loc 1 1900 2 is_stmt 1 view .LVU1469
.LVL329:
.LBB1012:
.LBI1012:
	.loc 3 467 27 view .LVU1470
.LBB1013:
	.loc 3 469 4 view .LVU1471
	.loc 3 469 5 view .LVU1472
	.loc 3 471 2 view .LVU1473
	.loc 3 471 18 is_stmt 0 view .LVU1474
	ldrh	r3, [r4, #112]
	.loc 3 471 74 view .LVU1475
	ubfx	r3, r3, #3, #3
.LVL330:
	.loc 3 471 74 view .LVU1476
.LBE1013:
.LBE1012:
	.loc 1 1900 5 view .LVU1477
	cmp	r3, #2
	beq	.L200
	.loc 1 1912 9 is_stmt 1 view .LVU1478
.LVL331:
	.loc 3 469 4 view .LVU1479
	.loc 3 469 5 view .LVU1480
	.loc 3 471 2 view .LVU1481
	.loc 1 1912 12 is_stmt 0 view .LVU1482
	cmp	r3, #1
	beq	.L201
	.loc 1 1885 11 view .LVU1483
	movs	r7, #0
	.loc 1 1884 19 view .LVU1484
	mov	r3, r7
.LVL332:
.L194:
	.loc 1 1924 2 is_stmt 1 view .LVU1485
	.loc 1 1924 19 is_stmt 0 view .LVU1486
	str	r5, [r4, #68]
	.loc 1 1926 2 is_stmt 1 view .LVU1487
.LVL333:
.LBB1014:
.LBI1014:
	.loc 3 601 24 view .LVU1488
.LBB1015:
	.loc 3 603 2 view .LVU1489
	.loc 3 603 16 is_stmt 0 view .LVU1490
	ldrh	r0, [r4, #110]
.LVL334:
	.loc 3 603 16 view .LVU1491
.LBE1015:
.LBE1014:
.LBB1016:
.LBI1016:
	.loc 3 467 27 is_stmt 1 view .LVU1492
.LBB1017:
	.loc 3 469 4 view .LVU1493
	.loc 3 469 5 view .LVU1494
	.loc 3 471 2 view .LVU1495
	.loc 3 471 18 is_stmt 0 view .LVU1496
	ldrh	r2, [r4, #112]
.LVL335:
	.loc 3 471 18 view .LVU1497
.LBE1017:
.LBE1016:
	.loc 1 1926 8 view .LVU1498
	ubfx	r1, r2, #3, #3
	tst	r2, #256
	beq	.L198
	.loc 1 1926 8 discriminator 1 view .LVU1499
	add	r2, r4, #40
	b	.L196
.LVL336:
.L200:
	.loc 1 1902 3 is_stmt 1 view .LVU1500
	.loc 2 1392 2 view .LVU1501
	.loc 1 1902 36 is_stmt 0 view .LVU1502
	ldr	r3, [r4, #32]
	.loc 1 1902 6 view .LVU1503
	cbz	r3, .L193
	.loc 1 1903 4 is_stmt 1 view .LVU1504
.LBB1018:
	.loc 1 1903 9 view .LVU1505
.LVL337:
	.loc 1 1903 9 is_stmt 0 view .LVU1506
.LBE1018:
	.loc 2 1365 2 is_stmt 1 view .LVU1507
.LBB1021:
	.loc 1 1903 162 view .LVU1508
.LBB1019:
	.loc 1 1903 191 view .LVU1509
	.loc 1 1903 191 is_stmt 0 view .LVU1510
.LBE1019:
.LBE1021:
	.loc 2 1392 2 is_stmt 1 view .LVU1511
.LBB1022:
.LBB1020:
	.loc 1 1903 360 view .LVU1512
	.loc 1 1903 363 is_stmt 0 view .LVU1513
	add	r6, sp, #48
	ldr	r0, [r3]	@ unaligned
.LVL338:
	.loc 1 1903 363 view .LVU1514
	ldr	r1, [r3, #4]	@ unaligned
	ldr	r2, [r3, #8]	@ unaligned
	ldr	r3, [r3, #12]	@ unaligned
.LVL339:
	.loc 1 1903 363 view .LVU1515
	stmia	r6!, {r0, r1, r2, r3}
.LBE1020:
	.loc 1 1903 171 view .LVU1516
	add	r6, sp, #28
.LVL340:
	.loc 1 1903 171 view .LVU1517
	add	r3, sp, #64
	ldmdb	r3, {r0, r1, r2, r3}
	stm	r6, {r0, r1, r2, r3}
	.loc 1 1903 375 is_stmt 1 view .LVU1518
	.loc 1 1903 380 view .LVU1519
	.loc 1 1903 428 view .LVU1520
.LBE1022:
	.loc 1 1903 14 view .LVU1521
	.loc 1 1906 4 view .LVU1522
.LVL341:
	.loc 1 1906 10 is_stmt 0 view .LVU1523
	add	r3, sp, #24
.LVL342:
.L193:
	.loc 1 1909 3 is_stmt 1 view .LVU1524
	.loc 2 1365 2 view .LVU1525
	.loc 2 1365 2 view .LVU1526
	.loc 1 1910 48 is_stmt 0 view .LVU1527
	ldrh	r7, [r4, #30]
	.loc 1 1909 36 view .LVU1528
	strh	r7, [sp, #26]	@ movhi
	.loc 1 1911 3 is_stmt 1 view .LVU1529
.LVL343:
	.loc 2 1365 2 view .LVU1530
	.loc 2 1365 2 is_stmt 0 view .LVU1531
	b	.L194
.LVL344:
.L201:
	.loc 1 1914 3 is_stmt 1 view .LVU1532
	.loc 2 1406 2 view .LVU1533
	.loc 1 1914 35 is_stmt 0 view .LVU1534
	ldr	r3, [r4, #32]
	.loc 1 1914 6 view .LVU1535
	cbz	r3, .L195
	.loc 1 1915 4 is_stmt 1 view .LVU1536
.LBB1023:
	.loc 1 1915 9 view .LVU1537
.LVL345:
	.loc 1 1915 9 is_stmt 0 view .LVU1538
.LBE1023:
	.loc 2 1378 2 is_stmt 1 view .LVU1539
.LBB1026:
	.loc 1 1915 158 view .LVU1540
.LBB1024:
	.loc 1 1915 187 view .LVU1541
	.loc 1 1915 187 is_stmt 0 view .LVU1542
.LBE1024:
.LBE1026:
	.loc 2 1406 2 is_stmt 1 view .LVU1543
.LBB1027:
.LBB1025:
	.loc 1 1915 352 view .LVU1544
	.loc 1 1915 355 is_stmt 0 view .LVU1545
	ldr	r3, [r3]	@ unaligned
.LVL346:
	.loc 1 1915 355 view .LVU1546
.LBE1025:
	.loc 1 1915 167 view .LVU1547
	str	r3, [sp, #28]
	.loc 1 1915 367 is_stmt 1 view .LVU1548
	.loc 1 1915 372 view .LVU1549
	.loc 1 1915 420 view .LVU1550
.LBE1027:
	.loc 1 1915 14 view .LVU1551
	.loc 1 1918 4 view .LVU1552
.LVL347:
	.loc 1 1918 10 is_stmt 0 view .LVU1553
	add	r3, sp, #24
.LVL348:
.L195:
	.loc 1 1921 3 is_stmt 1 view .LVU1554
	.loc 2 1378 2 view .LVU1555
	.loc 1 1921 9 is_stmt 0 view .LVU1556
	ldrh	r7, [r4, #30]
.LVL349:
	.loc 1 1921 9 view .LVU1557
	b	.L194
.LVL350:
.L198:
	.loc 1 1926 8 view .LVU1558
	movs	r2, #0
.L196:
.LVL351:
	.loc 2 1378 2 is_stmt 1 view .LVU1559
	.loc 1 1931 46 is_stmt 0 view .LVU1560
	ldrh	r6, [r4, #42]
.LVL352:
	.loc 2 1378 2 is_stmt 1 view .LVU1561
	.loc 1 1931 72 is_stmt 0 view .LVU1562
	lsls	r5, r6, #8
.LVL353:
	.loc 1 1931 72 view .LVU1563
	orr	r5, r5, r6, lsr #8
	.loc 1 1932 42 view .LVU1564
	lsrs	r6, r7, #8
	orr	r6, r6, r7, lsl #8
	.loc 1 1926 8 view .LVU1565
	add	r7, r4, #64
.LVL354:
	.loc 1 1926 8 view .LVU1566
	str	r7, [sp, #20]
.LVL355:
	.loc 1 1926 8 view .LVU1567
	ldr	r7, [sp, #88]
	str	r7, [sp, #16]
	ldr	r7, .L202
	str	r7, [sp, #12]
	str	r4, [sp, #8]
	uxth	r6, r6
	str	r6, [sp, #4]
	uxth	r5, r5
	str	r5, [sp]
	bl	net_conn_register
.LVL356:
	.loc 1 1938 2 is_stmt 1 view .LVU1568
.L189:
	.loc 1 1939 1 is_stmt 0 view .LVU1569
	add	sp, sp, #68
	.cfi_def_cfa_offset 20
	@ sp needed
	pop	{r4, r5, r6, r7, pc}
.LVL357:
.L203:
	.loc 1 1939 1 view .LVU1570
	.align	2
.L202:
	.word	net_context_packet_received
	.cfi_endproc
.LFE1049:
	.size	recv_udp, .-recv_udp
	.section	.text.net_context_listen,"ax",%progbits
	.align	1
	.global	net_context_listen
	.syntax unified
	.thumb
	.thumb_func
	.fpu fpv4-sp-d16
	.type	net_context_listen, %function
net_context_listen:
.LVL358:
.LFB1029:
	.loc 1 853 1 is_stmt 1 view -0
	.cfi_startproc
	@ args = 0, pretend = 0, frame = 0
	@ frame_needed = 0, uses_anonymous_args = 0
	.loc 1 853 1 is_stmt 0 view .LVU1572
	push	{r3, r4, r5, lr}
	.cfi_def_cfa_offset 16
	.cfi_offset 3, -16
	.cfi_offset 4, -12
	.cfi_offset 5, -8
	.cfi_offset 14, -4
	.loc 1 854 2 is_stmt 1 view .LVU1573
	.loc 1 856 4 view .LVU1574
	.loc 1 856 5 view .LVU1575
	.loc 1 858 2 view .LVU1576
.LVL359:
.LBB1028:
.LBI1028:
	.loc 3 339 19 view .LVU1577
.LBB1029:
	.loc 3 341 4 view .LVU1578
	.loc 3 341 5 view .LVU1579
	.loc 3 343 2 view .LVU1580
	.loc 3 343 16 is_stmt 0 view .LVU1581
	ldrh	r3, [r0, #112]
.LVL360:
	.loc 3 343 16 view .LVU1582
.LBE1029:
.LBE1028:
	.loc 1 858 5 view .LVU1583
	tst	r3, #1
	beq	.L207
	mov	r4, r0
	.loc 1 862 2 is_stmt 1 view .LVU1584
	.loc 1 868 2 view .LVU1585
	add	r5, r0, #8
.LVL361:
.LBB1030:
.LBI1030:
	.loc 9 899 19 view .LVU1586
.LBB1031:
	.loc 9 909 2 view .LVU1587
	.loc 9 909 7 view .LVU1588
	.loc 9 909 55 view .LVU1589
	.loc 9 910 2 view .LVU1590
	.loc 9 910 9 is_stmt 0 view .LVU1591
	mov	r2, #-1
	mov	r3, #-1
	mov	r0, r5
.LVL362:
	.loc 9 910 9 view .LVU1592
	bl	z_impl_k_mutex_lock
.LVL363:
	.loc 9 910 9 view .LVU1593
.LBE1031:
.LBE1030:
	.loc 1 870 2 is_stmt 1 view .LVU1594
	.loc 1 870 6 is_stmt 0 view .LVU1595
	mov	r0, r4
	bl	net_tcp_listen
.LVL364:
	.loc 1 870 5 view .LVU1596
	cmp	r0, #0
	blt	.L206
	.loc 1 871 3 is_stmt 1 view .LVU1597
.LVL365:
.LBB1032:
.LBI1032:
	.loc 9 917 19 view .LVU1598
.LBB1033:
	.loc 9 925 2 view .LVU1599
	.loc 9 925 7 view .LVU1600
	.loc 9 925 55 view .LVU1601
	.loc 9 926 2 view .LVU1602
	.loc 9 926 9 is_stmt 0 view .LVU1603
	mov	r0, r5
	bl	z_impl_k_mutex_unlock
.LVL366:
	.loc 9 926 9 view .LVU1604
.LBE1033:
.LBE1032:
	.loc 1 872 3 is_stmt 1 view .LVU1605
	.loc 1 872 10 is_stmt 0 view .LVU1606
	movs	r0, #0
.LVL367:
.L205:
	.loc 1 878 1 view .LVU1607
	pop	{r3, r4, r5, pc}
.LVL368:
.L206:
	.loc 1 875 2 is_stmt 1 view .LVU1608
.LBB1034:
.LBI1034:
	.loc 9 917 19 view .LVU1609
.LBB1035:
	.loc 9 925 2 view .LVU1610
	.loc 9 925 7 view .LVU1611
	.loc 9 925 55 view .LVU1612
	.loc 9 926 2 view .LVU1613
	.loc 9 926 9 is_stmt 0 view .LVU1614
	mov	r0, r5
	bl	z_impl_k_mutex_unlock
.LVL369:
	.loc 9 926 9 view .LVU1615
.LBE1035:
.LBE1034:
	.loc 1 877 2 is_stmt 1 view .LVU1616
	.loc 1 877 9 is_stmt 0 view .LVU1617
	mvn	r0, #94
	b	.L205
.LVL370:
.L207:
	.loc 1 859 10 view .LVU1618
	mvn	r0, #8
.LVL371:
	.loc 1 859 10 view .LVU1619
	b	.L205
	.cfi_endproc
.LFE1029:
	.size	net_context_listen, .-net_context_listen
	.section	.text.net_context_create_ipv4_new,"ax",%progbits
	.align	1
	.global	net_context_create_ipv4_new
	.syntax unified
	.thumb
	.thumb_func
	.fpu fpv4-sp-d16
	.type	net_context_create_ipv4_new, %function
net_context_create_ipv4_new:
.LVL372:
.LFB1030:
	.loc 1 885 1 is_stmt 1 view -0
	.cfi_startproc
	@ args = 0, pretend = 0, frame = 0
	@ frame_needed = 0, uses_anonymous_args = 0
	.loc 1 885 1 is_stmt 0 view .LVU1621
	push	{r4, r5, r6, lr}
	.cfi_def_cfa_offset 16
	.cfi_offset 4, -16
	.cfi_offset 5, -12
	.cfi_offset 6, -8
	.cfi_offset 14, -4
	mov	r6, r0
	mov	r4, r1
	mov	r5, r3
	.loc 1 886 2 is_stmt 1 view .LVU1622
	.loc 1 886 5 is_stmt 0 view .LVU1623
	mov	r1, r2
.LVL373:
	.loc 1 886 5 view .LVU1624
	cbz	r2, .L216
.LVL374:
.L210:
	.loc 1 893 2 is_stmt 1 view .LVU1625
.LBB1036:
.LBI1036:
	.loc 2 701 19 view .LVU1626
.LBE1036:
	.loc 2 703 2 view .LVU1627
.LBB1038:
.LBB1037:
	.loc 2 703 26 view .LVU1628
	.loc 2 703 141 view .LVU1629
	.loc 2 703 144 is_stmt 0 view .LVU1630
	ldr	r3, [r1]	@ unaligned
.LVL375:
	.loc 2 703 144 view .LVU1631
.LBE1037:
.LBE1038:
	.loc 1 893 5 view .LVU1632
	cbz	r3, .L211
.LVL376:
.LBB1039:
.LBI1039:
	.loc 2 713 19 is_stmt 1 view .LVU1633
.LBB1040:
	.loc 2 715 2 view .LVU1634
.LBB1041:
	.loc 2 715 43 view .LVU1635
	.loc 2 715 158 view .LVU1636
.LBE1041:
.LBB1042:
	.loc 2 715 209 view .LVU1637
	.loc 2 715 324 view .LVU1638
.LBE1042:
	.loc 2 715 338 is_stmt 0 view .LVU1639
	lsrs	r2, r3, #8
	.loc 2 715 344 view .LVU1640
	and	r2, r2, #65280
	.loc 2 715 187 view .LVU1641
	orr	r2, r2, r3, lsr #24
.LBB1043:
	.loc 2 715 376 is_stmt 1 view .LVU1642
.LVL377:
	.loc 2 715 491 view .LVU1643
.LBE1043:
	.loc 2 715 515 is_stmt 0 view .LVU1644
	lsls	r0, r3, #8
.LVL378:
	.loc 2 715 515 view .LVU1645
	and	r0, r0, #16711680
	.loc 2 715 354 view .LVU1646
	orrs	r2, r2, r0
.LBB1044:
	.loc 2 715 543 is_stmt 1 view .LVU1647
.LVL379:
	.loc 2 715 658 view .LVU1648
.LBE1044:
	.loc 2 715 11 is_stmt 0 view .LVU1649
	orr	r2, r2, r3, lsl #24
	.loc 2 715 689 view .LVU1650
	and	r2, r2, #-268435456
.LVL380:
	.loc 2 715 689 view .LVU1651
.LBE1040:
.LBE1039:
	.loc 1 894 6 view .LVU1652
	cmp	r2, #-536870912
	bne	.L212
.LVL381:
.L211:
	.loc 1 895 3 is_stmt 1 view .LVU1653
.LBB1045:
.LBI1045:
	.loc 8 293 30 view .LVU1654
.LBB1046:
	.loc 8 295 2 view .LVU1655
	.loc 8 295 2 is_stmt 0 view .LVU1656
.LBE1046:
.LBE1045:
	.loc 1 895 9 view .LVU1657
	mov	r1, r5
.LVL382:
	.loc 1 895 9 view .LVU1658
	ldr	r0, [r4, #24]
	bl	net_if_ipv4_select_src_addr
.LVL383:
	mov	r1, r0
.LVL384:
	.loc 1 898 3 is_stmt 1 view .LVU1659
.LBB1047:
.LBI1047:
	.loc 2 701 19 view .LVU1660
.LBE1047:
	.loc 2 703 2 view .LVU1661
.LBB1049:
.LBB1048:
	.loc 2 703 26 view .LVU1662
	.loc 2 703 141 view .LVU1663
	.loc 2 703 144 is_stmt 0 view .LVU1664
	ldr	r3, [r0]	@ unaligned
.LVL385:
	.loc 2 703 144 view .LVU1665
.LBE1048:
.LBE1049:
	.loc 1 898 6 view .LVU1666
	cbz	r3, .L214
.LVL386:
.L212:
	.loc 1 904 2 is_stmt 1 view .LVU1667
.LBB1050:
.LBI1050:
	.loc 3 656 23 view .LVU1668
.LBB1051:
	.loc 3 658 2 view .LVU1669
	.loc 3 658 16 is_stmt 0 view .LVU1670
	ldrb	r3, [r6, #115]	@ zero_extendqisi2
.LVL387:
	.loc 3 658 16 view .LVU1671
.LBE1051:
.LBE1050:
.LBB1052:
.LBI1052:
	.loc 8 455 20 is_stmt 1 view .LVU1672
.LBB1053:
	.loc 8 458 2 view .LVU1673
	.loc 8 458 16 is_stmt 0 view .LVU1674
	strb	r3, [r4, #78]
.LVL388:
	.loc 8 458 16 view .LVU1675
.LBE1053:
.LBE1052:
	.loc 1 906 2 is_stmt 1 view .LVU1676
	.loc 1 906 9 is_stmt 0 view .LVU1677
	mov	r2, r5
	mov	r0, r4
	bl	net_ipv4_create
.LVL389:
.L209:
	.loc 1 907 1 view .LVU1678
	pop	{r4, r5, r6, pc}
.LVL390:
.L216:
	.loc 1 887 5 is_stmt 1 view .LVU1679
	.loc 1 888 56 view .LVU1680
	.loc 1 890 3 view .LVU1681
	.loc 1 890 7 is_stmt 0 view .LVU1682
	ldr	r1, [r0, #32]
.LVL391:
	.loc 1 890 7 view .LVU1683
	b	.L210
.LVL392:
.L214:
	.loc 1 900 11 view .LVU1684
	mvn	r0, #21
.LVL393:
	.loc 1 900 11 view .LVU1685
	b	.L209
	.cfi_endproc
.LFE1030:
	.size	net_context_create_ipv4_new, .-net_context_create_ipv4_new
	.section	.text.net_context_create_ipv6_new,"ax",%progbits
	.align	1
	.global	net_context_create_ipv6_new
	.syntax unified
	.thumb
	.thumb_func
	.fpu fpv4-sp-d16
	.type	net_context_create_ipv6_new, %function
net_context_create_ipv6_new:
.LVL394:
.LFB1031:
	.loc 1 915 1 is_stmt 1 view -0
	.cfi_startproc
	@ args = 0, pretend = 0, frame = 0
	@ frame_needed = 0, uses_anonymous_args = 0
	.loc 1 915 1 is_stmt 0 view .LVU1687
	push	{r4, r5, r6, lr}
	.cfi_def_cfa_offset 16
	.cfi_offset 4, -16
	.cfi_offset 5, -12
	.cfi_offset 6, -8
	.cfi_offset 14, -4
	mov	r6, r0
	mov	r4, r1
	mov	r5, r3
	.loc 1 916 2 is_stmt 1 view .LVU1688
	.loc 1 916 5 is_stmt 0 view .LVU1689
	mov	r1, r2
.LVL395:
	.loc 1 916 5 view .LVU1690
	cbz	r2, .L227
.LVL396:
.L218:
	.loc 1 923 2 is_stmt 1 view .LVU1691
.LBB1054:
.LBI1054:
	.loc 2 951 19 view .LVU1692
.LBB1055:
	.loc 2 953 2 view .LVU1693
.LBB1056:
	.loc 2 953 26 view .LVU1694
	.loc 2 953 153 view .LVU1695
	.loc 2 953 156 is_stmt 0 view .LVU1696
	ldr	r3, [r1]	@ unaligned
.LVL397:
	.loc 2 953 156 view .LVU1697
.LBE1056:
	.loc 2 955 165 view .LVU1698
	cbnz	r3, .L222
.LBB1057:
	.loc 2 954 20 is_stmt 1 view .LVU1699
.LVL398:
	.loc 2 954 147 view .LVU1700
	.loc 2 954 150 is_stmt 0 view .LVU1701
	ldr	r3, [r1, #4]	@ unaligned
.LBE1057:
	.loc 2 953 171 view .LVU1702
	cbnz	r3, .L223
.LBB1058:
	.loc 2 955 20 is_stmt 1 view .LVU1703
.LVL399:
	.loc 2 955 147 view .LVU1704
	.loc 2 955 150 is_stmt 0 view .LVU1705
	ldr	r3, [r1, #8]	@ unaligned
.LBE1058:
	.loc 2 954 165 view .LVU1706
	cbnz	r3, .L224
.LBB1059:
	.loc 2 956 20 is_stmt 1 view .LVU1707
.LVL400:
	.loc 2 956 147 view .LVU1708
	.loc 2 956 150 is_stmt 0 view .LVU1709
	ldr	r3, [r1, #12]	@ unaligned
.LBE1059:
	.loc 2 955 165 view .LVU1710
	cbz	r3, .L225
	movs	r3, #0
	b	.L219
.LVL401:
.L227:
	.loc 2 955 165 view .LVU1711
.LBE1055:
.LBE1054:
	.loc 1 917 5 is_stmt 1 view .LVU1712
	.loc 1 918 58 view .LVU1713
	.loc 1 920 3 view .LVU1714
	.loc 1 920 7 is_stmt 0 view .LVU1715
	ldr	r1, [r0, #32]
.LVL402:
	.loc 1 920 7 view .LVU1716
	b	.L218
.LVL403:
.L222:
.LBB1062:
.LBB1060:
	.loc 2 955 165 view .LVU1717
	movs	r3, #0
.L219:
.LVL404:
	.loc 2 955 165 view .LVU1718
.LBE1060:
.LBE1062:
	.loc 1 923 5 view .LVU1719
	cbnz	r3, .L220
.LVL405:
.LBB1063:
.LBI1063:
	.loc 2 604 19 is_stmt 1 view .LVU1720
.LBB1064:
	.loc 2 606 2 view .LVU1721
	.loc 2 606 22 is_stmt 0 view .LVU1722
	ldrb	r3, [r1]	@ zero_extendqisi2
.LVL406:
	.loc 2 606 22 view .LVU1723
.LBE1064:
.LBE1063:
	.loc 1 924 6 view .LVU1724
	cmp	r3, #255
	bne	.L221
.L220:
	.loc 1 925 3 is_stmt 1 view .LVU1725
.LVL407:
.LBB1065:
.LBI1065:
	.loc 8 293 30 view .LVU1726
.LBB1066:
	.loc 8 295 2 view .LVU1727
	.loc 8 295 2 is_stmt 0 view .LVU1728
.LBE1066:
.LBE1065:
	.loc 1 925 9 view .LVU1729
	mov	r1, r5
.LVL408:
	.loc 1 925 9 view .LVU1730
	ldr	r0, [r4, #24]
.LVL409:
	.loc 1 925 9 view .LVU1731
	bl	net_if_ipv6_select_src_addr
.LVL410:
	mov	r1, r0
.LVL411:
.L221:
	.loc 1 929 2 is_stmt 1 view .LVU1732
.LBB1067:
.LBI1067:
	.loc 3 667 23 view .LVU1733
.LBB1068:
	.loc 3 669 2 view .LVU1734
	.loc 3 669 16 is_stmt 0 view .LVU1735
	ldrb	r3, [r6, #115]	@ zero_extendqisi2
.LVL412:
	.loc 3 669 16 view .LVU1736
.LBE1068:
.LBE1067:
.LBB1069:
.LBI1069:
	.loc 8 549 20 is_stmt 1 view .LVU1737
.LBB1070:
	.loc 8 552 2 view .LVU1738
	.loc 8 552 22 is_stmt 0 view .LVU1739
	strb	r3, [r4, #78]
.LVL413:
	.loc 8 552 22 view .LVU1740
.LBE1070:
.LBE1069:
	.loc 1 932 2 is_stmt 1 view .LVU1741
	.loc 1 932 9 is_stmt 0 view .LVU1742
	mov	r2, r5
	mov	r0, r4
	bl	net_ipv6_create
.LVL414:
	.loc 1 933 1 view .LVU1743
	pop	{r4, r5, r6, pc}
.LVL415:
.L223:
.LBB1071:
.LBB1061:
	.loc 2 955 165 view .LVU1744
	movs	r3, #0
	b	.L219
.LVL416:
.L224:
	.loc 2 955 165 view .LVU1745
	movs	r3, #0
	b	.L219
.LVL417:
.L225:
	.loc 2 955 165 view .LVU1746
	movs	r3, #1
	b	.L219
.LBE1061:
.LBE1071:
	.cfi_endproc
.LFE1031:
	.size	net_context_create_ipv6_new, .-net_context_create_ipv6_new
	.section	.text.context_setup_udp_packet,"ax",%progbits
	.align	1
	.syntax unified
	.thumb
	.thumb_func
	.fpu fpv4-sp-d16
	.type	context_setup_udp_packet, %function
context_setup_udp_packet:
.LVL418:
.LFB1040:
	.loc 1 1287 1 is_stmt 1 view -0
	.cfi_startproc
	@ args = 12, pretend = 0, frame = 0
	@ frame_needed = 0, uses_anonymous_args = 0
	.loc 1 1287 1 is_stmt 0 view .LVU1748
	push	{r4, r5, r6, r7, r8, lr}
	.cfi_def_cfa_offset 24
	.cfi_offset 4, -24
	.cfi_offset 5, -20
	.cfi_offset 6, -16
	.cfi_offset 7, -12
	.cfi_offset 8, -8
	.cfi_offset 14, -4
	mov	r4, r0
	mov	r5, r1
	mov	r6, r2
	mov	r7, r3
	.loc 1 1288 2 is_stmt 1 view .LVU1749
.LVL419:
	.loc 1 1289 2 view .LVU1750
	.loc 1 1291 2 view .LVU1751
.LBB1072:
.LBI1072:
	.loc 3 467 27 view .LVU1752
.LBB1073:
	.loc 3 469 4 view .LVU1753
	.loc 3 469 5 view .LVU1754
	.loc 3 471 2 view .LVU1755
	.loc 3 471 18 is_stmt 0 view .LVU1756
	ldrh	r0, [r0, #112]
.LVL420:
	.loc 3 471 74 view .LVU1757
	ubfx	r0, r0, #3, #3
.LVL421:
	.loc 3 471 74 view .LVU1758
.LBE1073:
.LBE1072:
	.loc 1 1291 5 view .LVU1759
	cmp	r0, #2
	beq	.L236
	.loc 1 1299 9 is_stmt 1 view .LVU1760
.LVL422:
	.loc 3 469 4 view .LVU1761
	.loc 3 469 5 view .LVU1762
	.loc 3 471 2 view .LVU1763
	.loc 1 1299 12 is_stmt 0 view .LVU1764
	cmp	r0, #1
	beq	.L237
	.loc 1 1288 6 view .LVU1765
	mvn	r0, #21
.LVL423:
	.loc 1 1310 3 is_stmt 1 view .LVU1766
.L228:
	.loc 1 1332 1 is_stmt 0 view .LVU1767
	pop	{r4, r5, r6, r7, r8, pc}
.LVL424:
.L236:
.LBB1074:
	.loc 1 1293 3 is_stmt 1 view .LVU1768
	.loc 1 1295 3 view .LVU1769
	.loc 1 1295 12 is_stmt 0 view .LVU1770
	ldr	r3, [sp, #28]
.LVL425:
	.loc 1 1295 12 view .LVU1771
	ldrh	r8, [r3, #2]
.LVL426:
	.loc 1 1297 3 is_stmt 1 view .LVU1772
	.loc 1 1297 9 is_stmt 0 view .LVU1773
	adds	r3, r3, #4
	movs	r2, #0
.LVL427:
	.loc 1 1297 9 view .LVU1774
	mov	r0, r4
	bl	net_context_create_ipv6_new
.LVL428:
	.loc 1 1297 9 view .LVU1775
.LBE1074:
	b	.L230
.LVL429:
.L237:
.LBB1075:
	.loc 1 1301 3 is_stmt 1 view .LVU1776
	.loc 1 1303 3 view .LVU1777
	.loc 1 1303 12 is_stmt 0 view .LVU1778
	ldr	r3, [sp, #28]
.LVL430:
	.loc 1 1303 12 view .LVU1779
	ldrh	r8, [r3, #2]
.LVL431:
	.loc 1 1305 3 is_stmt 1 view .LVU1780
	.loc 1 1305 9 is_stmt 0 view .LVU1781
	adds	r3, r3, #4
	movs	r2, #0
.LVL432:
	.loc 1 1305 9 view .LVU1782
	mov	r0, r4
	bl	net_context_create_ipv4_new
.LVL433:
.L230:
	.loc 1 1305 9 view .LVU1783
.LBE1075:
	.loc 1 1309 2 is_stmt 1 view .LVU1784
	.loc 1 1309 5 is_stmt 0 view .LVU1785
	cmp	r0, #0
	blt	.L228
	.loc 1 1313 2 is_stmt 1 view .LVU1786
	.loc 1 1313 8 is_stmt 0 view .LVU1787
	mov	r0, r4
.LVL434:
	.loc 1 1313 8 view .LVU1788
	bl	bind_default
.LVL435:
	.loc 1 1314 2 is_stmt 1 view .LVU1789
	.loc 1 1314 5 is_stmt 0 view .LVU1790
	cmp	r0, #0
	bne	.L228
	.loc 1 1318 2 is_stmt 1 view .LVU1791
.LVL436:
	.loc 2 1378 2 view .LVU1792
	.loc 1 1318 8 is_stmt 0 view .LVU1793
	mov	r2, r8
	ldrh	r1, [r4, #30]
	mov	r0, r5
.LVL437:
	.loc 1 1318 8 view .LVU1794
	bl	net_udp_create
.LVL438:
	.loc 1 1322 2 is_stmt 1 view .LVU1795
	.loc 1 1322 5 is_stmt 0 view .LVU1796
	cmp	r0, #0
	bne	.L228
	.loc 1 1326 2 is_stmt 1 view .LVU1797
	.loc 1 1326 8 is_stmt 0 view .LVU1798
	ldr	r3, [sp, #24]
	mov	r2, r7
	mov	r1, r6
	mov	r0, r5
.LVL439:
	.loc 1 1326 8 view .LVU1799
	bl	context_write_data
.LVL440:
	.loc 1 1327 2 is_stmt 1 view .LVU1800
	b	.L228
	.cfi_endproc
.LFE1040:
	.size	context_setup_udp_packet, .-context_setup_udp_packet
	.section	.text.context_sendto,"ax",%progbits
	.align	1
	.syntax unified
	.thumb
	.thumb_func
	.fpu fpv4-sp-d16
	.type	context_sendto, %function
context_sendto:
.LVL441:
.LFB1044:
	.loc 1 1415 1 view -0
	.cfi_startproc
	@ args = 24, pretend = 0, frame = 8
	@ frame_needed = 0, uses_anonymous_args = 0
	.loc 1 1415 1 is_stmt 0 view .LVU1802
	push	{r4, r5, r6, r7, r8, r9, r10, fp, lr}
	.cfi_def_cfa_offset 36
	.cfi_offset 4, -36
	.cfi_offset 5, -32
	.cfi_offset 6, -28
	.cfi_offset 7, -24
	.cfi_offset 8, -20
	.cfi_offset 9, -16
	.cfi_offset 10, -12
	.cfi_offset 11, -8
	.cfi_offset 14, -4
	sub	sp, sp, #28
	.cfi_def_cfa_offset 64
	mov	r5, r2
	mov	r7, r3
	ldr	fp, [sp, #64]
	ldrb	r2, [sp, #84]	@ zero_extendqisi2
.LVL442:
	.loc 1 1416 2 is_stmt 1 view .LVU1803
	.loc 1 1417 2 view .LVU1804
	.loc 1 1418 2 view .LVU1805
	.loc 1 1419 2 view .LVU1806
	.loc 1 1420 2 view .LVU1807
	.loc 1 1422 4 view .LVU1808
	.loc 1 1422 5 view .LVU1809
	.loc 1 1424 2 view .LVU1810
.LBB1076:
.LBI1076:
	.loc 3 339 19 view .LVU1811
.LBB1077:
	.loc 3 341 4 view .LVU1812
	.loc 3 341 5 view .LVU1813
	.loc 3 343 2 view .LVU1814
	.loc 3 343 16 is_stmt 0 view .LVU1815
	ldrh	r3, [r0, #112]
.LVL443:
	.loc 3 343 16 view .LVU1816
.LBE1077:
.LBE1076:
	.loc 1 1424 5 view .LVU1817
	tst	r3, #1
	beq	.L258
	mov	r4, r0
	mov	r10, r1
	.loc 1 1428 2 is_stmt 1 view .LVU1818
	.loc 1 1428 5 is_stmt 0 view .LVU1819
	cbz	r2, .L240
	.loc 1 1428 13 discriminator 1 view .LVU1820
	cmp	fp, #0
	bne	.L240
	.loc 1 1428 29 discriminator 2 view .LVU1821
	cmp	r7, #0
	beq	.L279
.L240:
.LVL444:
	.loc 1 1433 14 discriminator 1 view .LVU1822
	cmp	r7, #0
	beq	.L260
	movs	r6, #0
.L241:
	.loc 1 1437 2 is_stmt 1 view .LVU1823
.LVL445:
.LBB1078:
.LBI1078:
	.loc 3 467 27 view .LVU1824
.LBB1079:
	.loc 3 469 4 view .LVU1825
	.loc 3 469 5 view .LVU1826
	.loc 3 471 2 view .LVU1827
	.loc 3 471 74 is_stmt 0 view .LVU1828
	ubfx	r2, r3, #3, #3
.LVL446:
	.loc 3 471 74 view .LVU1829
.LBE1079:
.LBE1078:
	.loc 1 1437 5 view .LVU1830
	cmp	r2, #2
	beq	.L280
	.loc 1 1478 9 is_stmt 1 view .LVU1831
.LVL447:
	.loc 3 469 4 view .LVU1832
	.loc 3 469 5 view .LVU1833
	.loc 3 471 2 view .LVU1834
	.loc 1 1478 12 is_stmt 0 view .LVU1835
	cmp	r2, #1
	bne	.L271
.LBB1080:
	.loc 1 1480 3 is_stmt 1 view .LVU1836
.LVL448:
	.loc 1 1483 3 view .LVU1837
	.loc 1 1483 6 is_stmt 0 view .LVU1838
	cbz	r6, .L247
	.loc 1 1484 4 is_stmt 1 view .LVU1839
	.loc 1 1484 10 is_stmt 0 view .LVU1840
	ldr	r7, [r6]
.LVL449:
	.loc 1 1485 4 is_stmt 1 view .LVU1841
	.loc 1 1485 12 is_stmt 0 view .LVU1842
	ldr	fp, [r6, #4]
.LVL450:
	.loc 1 1487 4 is_stmt 1 view .LVU1843
	.loc 1 1487 7 is_stmt 0 view .LVU1844
	cmp	r7, #0
	beq	.L281
.LVL451:
.L247:
	.loc 1 1497 3 is_stmt 1 view .LVU1845
	.loc 1 1497 6 is_stmt 0 view .LVU1846
	cmp	fp, #7
	bls	.L272
	.loc 1 1501 3 is_stmt 1 view .LVU1847
	.loc 1 1501 23 is_stmt 0 view .LVU1848
	ldr	r2, [r7, #4]
	.loc 1 1501 6 view .LVU1849
	cmp	r2, #0
	beq	.L273
	.loc 1 1512 3 is_stmt 1 view .LVU1850
.LVL452:
	.loc 1 1512 3 is_stmt 0 view .LVU1851
.LBE1080:
	.loc 2 1378 2 is_stmt 1 view .LVU1852
.LBB1083:
	.loc 1 1512 42 is_stmt 0 view .LVU1853
	ldr	r2, [r4, #44]
	.loc 1 1512 6 view .LVU1854
	cbnz	r2, .L246
.LVL453:
	.loc 1 1512 6 view .LVU1855
.LBE1083:
	.loc 3 348 4 is_stmt 1 view .LVU1856
	.loc 3 348 5 view .LVU1857
	.loc 3 350 2 view .LVU1858
.LBB1084:
	.loc 1 1512 56 is_stmt 0 view .LVU1859
	tst	r3, #2048
	beq	.L282
.LVL454:
.L246:
	.loc 1 1512 56 view .LVU1860
.LBE1084:
	.loc 1 1611 2 is_stmt 1 view .LVU1861
	.loc 1 1611 5 is_stmt 0 view .LVU1862
	cbz	r6, .L248
	.loc 1 1611 13 discriminator 1 view .LVU1863
	cmp	r5, #0
	beq	.L274
.L248:
	.loc 1 1619 2 is_stmt 1 view .LVU1864
.LVL455:
.LBB1085:
.LBI1085:
	.loc 3 633 16 view .LVU1865
.LBB1086:
	.loc 3 635 4 view .LVU1866
	.loc 3 635 5 view .LVU1867
	.loc 3 637 2 view .LVU1868
	.loc 3 637 36 is_stmt 0 view .LVU1869
	ldrsb	r0, [r4, #114]
.LVL456:
.LBB1087:
.LBI1087:
	.loc 7 219 31 is_stmt 1 view .LVU1870
.LBB1088:
	.loc 7 227 2 view .LVU1871
	.loc 7 227 7 view .LVU1872
	.loc 7 227 55 view .LVU1873
	.loc 7 228 2 view .LVU1874
	.loc 7 228 9 is_stmt 0 view .LVU1875
	bl	z_impl_net_if_get_by_index
.LVL457:
	.loc 7 228 9 view .LVU1876
.LBE1088:
.LBE1087:
.LBE1086:
.LBE1085:
	.loc 1 1620 2 is_stmt 1 view .LVU1877
	.loc 1 1620 5 is_stmt 0 view .LVU1878
	cbz	r0, .L251
.LVL458:
.LBB1089:
.LBI1089:
	.loc 12 2022 19 is_stmt 1 view .LVU1879
.LBE1089:
	.loc 12 2024 4 view .LVU1880
	.loc 12 2024 5 view .LVU1881
	.loc 12 2026 2 view .LVU1882
.LBB1096:
.LBB1090:
.LBI1090:
	.loc 12 541 19 view .LVU1883
.LBB1091:
	.loc 12 544 2 view .LVU1884
	.loc 12 548 2 view .LVU1885
	.loc 12 548 30 is_stmt 0 view .LVU1886
	ldr	r3, [r0]
.LVL459:
.LBB1092:
.LBI1092:
	.file 16 "/home/sebin/thesis/zephyrproject/zephyr/include/sys/atomic.h"
	.loc 16 128 19 is_stmt 1 view .LVU1887
.LBB1093:
	.loc 16 130 2 view .LVU1888
.LBB1094:
.LBI1094:
	.loc 13 138 28 view .LVU1889
.LBB1095:
	.loc 13 140 2 view .LVU1890
	.loc 13 140 9 is_stmt 0 view .LVU1891
	dmb	ish
	ldr	r3, [r3, #12]
.LVL460:
	.loc 13 140 9 view .LVU1892
	dmb	ish
.LVL461:
	.loc 13 140 9 view .LVU1893
.LBE1095:
.LBE1094:
	.loc 16 132 2 is_stmt 1 view .LVU1894
	.loc 16 132 2 is_stmt 0 view .LVU1895
.LBE1093:
.LBE1092:
.LBE1091:
.LBE1090:
.LBE1096:
	.loc 1 1620 12 view .LVU1896
	tst	r3, #1
	beq	.L275
.LVL462:
.L251:
	.loc 1 1624 2 is_stmt 1 view .LVU1897
	.file 17 "/home/sebin/thesis/zephyrproject/zephyr/include/sys/time_units.h"
	.loc 17 405 2 view .LVU1898
	.loc 17 106 1 view .LVU1899
	.loc 17 108 1 view .LVU1900
	.loc 17 111 2 view .LVU1901
	.loc 17 115 2 view .LVU1902
	.loc 17 117 2 view .LVU1903
	.loc 17 133 2 view .LVU1904
	.loc 17 140 9 view .LVU1905
	.loc 17 141 3 view .LVU1906
	.loc 17 144 4 view .LVU1907
	.loc 1 1624 8 is_stmt 0 view .LVU1908
	movw	r2, #10000
	movs	r3, #0
	mov	r1, r5
	mov	r0, r4
.LVL463:
	.loc 1 1624 8 view .LVU1909
	bl	context_alloc_pkt
.LVL464:
	.loc 1 1625 2 is_stmt 1 view .LVU1910
	.loc 1 1625 5 is_stmt 0 view .LVU1911
	mov	r9, r0
	cmp	r0, #0
	beq	.L276
	.loc 1 1629 2 is_stmt 1 view .LVU1912
.LVL465:
.LBB1097:
.LBI1097:
	.loc 3 601 24 view .LVU1913
.LBB1098:
	.loc 3 603 2 view .LVU1914
	.loc 3 603 2 is_stmt 0 view .LVU1915
.LBE1098:
.LBE1097:
	.loc 1 1629 12 view .LVU1916
	ldrb	r1, [r4, #110]	@ zero_extendqisi2
	bl	net_pkt_available_payload_buffer
.LVL466:
	.loc 1 1629 12 view .LVU1917
	mov	r8, r0
.LVL467:
	.loc 1 1631 2 is_stmt 1 view .LVU1918
	.loc 1 1631 5 is_stmt 0 view .LVU1919
	cmp	r0, r5
	bcc	.L252
	mov	r8, r5
.L252:
.LVL468:
	.loc 1 1635 2 is_stmt 1 view .LVU1920
	.loc 1 1635 19 is_stmt 0 view .LVU1921
	ldr	r3, [sp, #68]
	str	r3, [r4, #72]
	.loc 1 1636 2 is_stmt 1 view .LVU1922
	.loc 1 1636 21 is_stmt 0 view .LVU1923
	ldr	r3, [sp, #80]
	str	r3, [r4]
	.loc 1 1638 2 is_stmt 1 view .LVU1924
.LBB1099:
	.loc 1 1639 3 view .LVU1925
	.loc 1 1641 3 view .LVU1926
	movs	r2, #0
	add	r1, sp, #23
	mov	r0, r4
.LVL469:
	.loc 1 1641 3 is_stmt 0 view .LVU1927
	bl	get_context_priority
.LVL470:
	.loc 1 1642 3 is_stmt 1 view .LVU1928
	ldrb	r3, [sp, #23]	@ zero_extendqisi2
.LVL471:
.LBB1100:
.LBI1100:
	.loc 8 731 20 view .LVU1929
.LBB1101:
	.loc 8 734 2 view .LVU1930
	.loc 8 734 16 is_stmt 0 view .LVU1931
	strb	r3, [r9, #82]
.LVL472:
	.loc 8 734 16 view .LVU1932
.LBE1101:
.LBE1100:
.LBE1099:
	.loc 1 1648 2 is_stmt 1 view .LVU1933
	.loc 1 1659 2 view .LVU1934
	.loc 1 1676 9 view .LVU1935
.LBB1102:
.LBI1102:
	.loc 3 601 24 view .LVU1936
.LBB1103:
	.loc 3 603 2 view .LVU1937
	.loc 3 603 16 is_stmt 0 view .LVU1938
	ldrh	r3, [r4, #110]
.LVL473:
	.loc 3 603 16 view .LVU1939
.LBE1103:
.LBE1102:
	.loc 1 1676 12 view .LVU1940
	cmp	r3, #17
	beq	.L283
	.loc 1 1687 9 is_stmt 1 view .LVU1941
.LVL474:
	.loc 3 603 2 view .LVU1942
	.loc 1 1687 12 is_stmt 0 view .LVU1943
	cmp	r3, #6
	beq	.L284
	.loc 1 1731 7 view .LVU1944
	mvn	r5, #122
	.loc 1 1735 3 is_stmt 1 view .LVU1945
.L254:
.LVL475:
	.loc 1 1740 2 view .LVU1946
	mov	r0, r9
	bl	net_pkt_unref
.LVL476:
	.loc 1 1742 2 view .LVU1947
.L239:
	.loc 1 1743 1 is_stmt 0 view .LVU1948
	mov	r0, r5
	add	sp, sp, #28
	.cfi_remember_state
	.cfi_def_cfa_offset 36
	@ sp needed
	pop	{r4, r5, r6, r7, r8, r9, r10, fp, pc}
.LVL477:
.L279:
	.cfi_restore_state
	.loc 1 1428 48 discriminator 3 view .LVU1949
	cmp	r1, #0
	beq	.L240
	.loc 1 1430 10 view .LVU1950
	mov	r6, r1
	b	.L241
.LVL478:
.L280:
.LBB1104:
	.loc 1 1439 3 is_stmt 1 view .LVU1951
	.loc 1 1442 3 view .LVU1952
	.loc 1 1442 6 is_stmt 0 view .LVU1953
	cbz	r6, .L243
	.loc 1 1443 4 is_stmt 1 view .LVU1954
	.loc 1 1443 10 is_stmt 0 view .LVU1955
	ldr	r7, [r6]
.LVL479:
	.loc 1 1444 4 is_stmt 1 view .LVU1956
	.loc 1 1444 12 is_stmt 0 view .LVU1957
	ldr	fp, [r6, #4]
.LVL480:
	.loc 1 1446 4 is_stmt 1 view .LVU1958
	.loc 1 1446 7 is_stmt 0 view .LVU1959
	cbz	r7, .L285
.LVL481:
.L243:
	.loc 1 1456 3 is_stmt 1 view .LVU1960
	.loc 1 1456 6 is_stmt 0 view .LVU1961
	cmp	fp, #23
	bls	.L261
	.loc 1 1460 3 is_stmt 1 view .LVU1962
.LVL482:
.LBB1105:
.LBI1105:
	.loc 2 951 19 view .LVU1963
.LBB1106:
	.loc 2 953 2 view .LVU1964
.LBB1107:
	.loc 2 953 26 view .LVU1965
	.loc 2 953 153 view .LVU1966
	.loc 2 953 156 is_stmt 0 view .LVU1967
	ldr	r2, [r7, #4]	@ unaligned
.LBE1107:
	.loc 2 955 165 view .LVU1968
	cbnz	r2, .L262
.LBB1108:
	.loc 2 954 20 is_stmt 1 view .LVU1969
.LVL483:
	.loc 2 954 147 view .LVU1970
	.loc 2 954 150 is_stmt 0 view .LVU1971
	ldr	r2, [r7, #8]	@ unaligned
.LBE1108:
	.loc 2 953 171 view .LVU1972
	cbnz	r2, .L263
.LBB1109:
	.loc 2 955 20 is_stmt 1 view .LVU1973
.LVL484:
	.loc 2 955 147 view .LVU1974
	.loc 2 955 150 is_stmt 0 view .LVU1975
	ldr	r2, [r7, #12]	@ unaligned
.LBE1109:
	.loc 2 954 165 view .LVU1976
	cbnz	r2, .L264
.LBB1110:
	.loc 2 956 20 is_stmt 1 view .LVU1977
.LVL485:
	.loc 2 956 147 view .LVU1978
	.loc 2 956 150 is_stmt 0 view .LVU1979
	ldr	r2, [r7, #16]	@ unaligned
.LBE1110:
	.loc 2 955 165 view .LVU1980
	cbz	r2, .L265
	movs	r2, #0
	b	.L244
.LVL486:
.L285:
	.loc 2 955 165 view .LVU1981
.LBE1106:
.LBE1105:
	.loc 1 1447 5 is_stmt 1 view .LVU1982
	.loc 1 1447 22 is_stmt 0 view .LVU1983
	add	r7, r4, #40
.LVL487:
	.loc 1 1447 22 view .LVU1984
.LBE1104:
	.loc 2 1365 2 is_stmt 1 view .LVU1985
.LBB1127:
	.loc 1 1448 5 view .LVU1986
	.loc 1 1448 13 is_stmt 0 view .LVU1987
	mov	fp, #24
	b	.L243
.LVL488:
.L262:
.LBB1113:
.LBB1111:
	.loc 2 955 165 view .LVU1988
	movs	r2, #0
.L244:
.LVL489:
	.loc 2 955 165 view .LVU1989
.LBE1111:
.LBE1113:
	.loc 1 1460 6 view .LVU1990
	cmp	r2, #0
	bne	.L266
	.loc 1 1471 3 is_stmt 1 view .LVU1991
.LVL490:
	.loc 1 1471 3 is_stmt 0 view .LVU1992
.LBE1127:
	.loc 2 1365 2 is_stmt 1 view .LVU1993
.LBB1128:
.LBB1114:
.LBI1114:
	.loc 2 951 19 view .LVU1994
.LBB1115:
	.loc 2 953 2 view .LVU1995
.LBB1116:
	.loc 2 953 26 view .LVU1996
	.loc 2 953 153 view .LVU1997
	.loc 2 953 156 is_stmt 0 view .LVU1998
	ldr	r2, [r4, #44]	@ unaligned
.LBE1116:
	.loc 2 955 165 view .LVU1999
	cbnz	r2, .L267
.LBB1117:
	.loc 2 954 20 is_stmt 1 view .LVU2000
.LVL491:
	.loc 2 954 147 view .LVU2001
	.loc 2 954 150 is_stmt 0 view .LVU2002
	ldr	r2, [r4, #48]	@ unaligned
.LBE1117:
	.loc 2 953 171 view .LVU2003
	cbnz	r2, .L268
.LBB1118:
	.loc 2 955 20 is_stmt 1 view .LVU2004
.LVL492:
	.loc 2 955 147 view .LVU2005
	.loc 2 955 150 is_stmt 0 view .LVU2006
	ldr	r2, [r4, #52]	@ unaligned
.LBE1118:
	.loc 2 954 165 view .LVU2007
	cbnz	r2, .L269
.LBB1119:
	.loc 2 956 20 is_stmt 1 view .LVU2008
.LVL493:
	.loc 2 956 147 view .LVU2009
	.loc 2 956 150 is_stmt 0 view .LVU2010
	ldr	r2, [r4, #56]	@ unaligned
.LBE1119:
	.loc 2 955 165 view .LVU2011
	cbz	r2, .L270
	movs	r2, #0
	b	.L245
.LVL494:
.L263:
	.loc 2 955 165 view .LVU2012
.LBE1115:
.LBE1114:
.LBB1122:
.LBB1112:
	movs	r2, #0
	b	.L244
.LVL495:
.L264:
	.loc 2 955 165 view .LVU2013
	movs	r2, #0
	b	.L244
.LVL496:
.L265:
	.loc 2 955 165 view .LVU2014
	movs	r2, #1
	b	.L244
.LVL497:
.L267:
	.loc 2 955 165 view .LVU2015
.LBE1112:
.LBE1122:
.LBB1123:
.LBB1120:
	movs	r2, #0
.L245:
.LVL498:
	.loc 2 955 165 view .LVU2016
.LBE1120:
.LBE1123:
	.loc 1 1471 6 view .LVU2017
	cmp	r2, #0
	beq	.L246
.LVL499:
	.loc 1 1471 6 view .LVU2018
.LBE1128:
	.loc 3 348 4 is_stmt 1 view .LVU2019
	.loc 3 348 5 view .LVU2020
	.loc 3 350 2 view .LVU2021
.LBB1129:
	.loc 1 1472 45 is_stmt 0 view .LVU2022
	tst	r3, #2048
	bne	.L246
	.loc 1 1474 4 is_stmt 1 view .LVU2023
	.loc 1 1474 12 is_stmt 0 view .LVU2024
	adds	r0, r7, #4
.LVL500:
	.loc 1 1474 12 view .LVU2025
	bl	net_if_ipv6_select_src_iface
.LVL501:
	.loc 1 1475 4 is_stmt 1 view .LVU2026
.LBB1124:
.LBI1124:
	.loc 3 648 20 view .LVU2027
.LBB1125:
	.loc 3 651 4 view .LVU2028
	.loc 3 651 5 view .LVU2029
	.loc 3 653 2 view .LVU2030
	.loc 3 653 19 is_stmt 0 view .LVU2031
	bl	net_if_get_by_iface
.LVL502:
	.loc 3 653 17 view .LVU2032
	strb	r0, [r4, #114]
	.loc 3 654 1 view .LVU2033
	b	.L246
.LVL503:
.L268:
	.loc 3 654 1 view .LVU2034
.LBE1125:
.LBE1124:
.LBB1126:
.LBB1121:
	.loc 2 955 165 view .LVU2035
	movs	r2, #0
	b	.L245
.LVL504:
.L269:
	.loc 2 955 165 view .LVU2036
	movs	r2, #0
	b	.L245
.LVL505:
.L270:
	.loc 2 955 165 view .LVU2037
	movs	r2, #1
	b	.L245
.LVL506:
.L281:
	.loc 2 955 165 view .LVU2038
.LBE1121:
.LBE1126:
.LBE1129:
.LBB1130:
	.loc 1 1488 5 is_stmt 1 view .LVU2039
	.loc 1 1488 21 is_stmt 0 view .LVU2040
	add	r7, r4, #40
.LVL507:
	.loc 1 1488 21 view .LVU2041
.LBE1130:
	.loc 2 1378 2 is_stmt 1 view .LVU2042
.LBB1131:
	.loc 1 1489 5 view .LVU2043
	.loc 1 1489 13 is_stmt 0 view .LVU2044
	mov	fp, #8
	b	.L247
.LVL508:
.L282:
	.loc 1 1514 4 is_stmt 1 view .LVU2045
	.loc 1 1514 12 is_stmt 0 view .LVU2046
	adds	r0, r7, #4
.LVL509:
	.loc 1 1514 12 view .LVU2047
	bl	net_if_ipv4_select_src_iface
.LVL510:
	.loc 1 1515 4 is_stmt 1 view .LVU2048
.LBB1081:
.LBI1081:
	.loc 3 648 20 view .LVU2049
.LBB1082:
	.loc 3 651 4 view .LVU2050
	.loc 3 651 5 view .LVU2051
	.loc 3 653 2 view .LVU2052
	.loc 3 653 19 is_stmt 0 view .LVU2053
	bl	net_if_get_by_iface
.LVL511:
	.loc 3 653 17 view .LVU2054
	strb	r0, [r4, #114]
	.loc 3 654 1 view .LVU2055
	b	.L246
.LVL512:
.L250:
	.loc 3 654 1 view .LVU2056
.LBE1082:
.LBE1081:
.LBE1131:
.LBB1132:
	.loc 1 1615 4 is_stmt 1 discriminator 3 view .LVU2057
	.loc 1 1615 17 is_stmt 0 discriminator 3 view .LVU2058
	ldr	r2, [r6, #8]
	.loc 1 1615 26 discriminator 3 view .LVU2059
	add	r2, r2, r3, lsl #3
	.loc 1 1615 29 discriminator 3 view .LVU2060
	ldr	r2, [r2, #4]
	.loc 1 1615 8 discriminator 3 view .LVU2061
	add	r5, r5, r2
.LVL513:
	.loc 1 1614 39 is_stmt 1 discriminator 3 view .LVU2062
	.loc 1 1614 40 is_stmt 0 discriminator 3 view .LVU2063
	adds	r3, r3, #1
.LVL514:
.L249:
	.loc 1 1614 15 is_stmt 1 discriminator 1 view .LVU2064
	.loc 1 1614 25 is_stmt 0 discriminator 1 view .LVU2065
	ldr	r2, [r6, #12]
	.loc 1 1614 3 discriminator 1 view .LVU2066
	cmp	r2, r3
	bhi	.L250
	.loc 1 1614 3 discriminator 1 view .LVU2067
	b	.L248
.LVL515:
.L274:
	.loc 1 1614 10 view .LVU2068
	movs	r3, #0
	b	.L249
.LVL516:
.L283:
	.loc 1 1614 10 view .LVU2069
.LBE1132:
	.loc 1 1678 3 is_stmt 1 view .LVU2070
	.loc 1 1678 9 is_stmt 0 view .LVU2071
	str	fp, [sp, #8]
	str	r7, [sp, #4]
	str	r6, [sp]
	mov	r3, r8
	mov	r2, r10
	mov	r1, r9
	mov	r0, r4
	bl	context_setup_udp_packet
.LVL517:
	.loc 1 1680 3 is_stmt 1 view .LVU2072
	.loc 1 1680 6 is_stmt 0 view .LVU2073
	subs	r5, r0, #0
	blt	.L254
	.loc 1 1684 3 is_stmt 1 view .LVU2074
	mov	r1, r9
	mov	r0, r4
.LVL518:
	.loc 1 1684 3 is_stmt 0 view .LVU2075
	bl	context_finalize_packet
.LVL519:
	.loc 1 1686 3 is_stmt 1 view .LVU2076
	.loc 1 1686 9 is_stmt 0 view .LVU2077
	mov	r0, r9
	bl	net_send_data
.LVL520:
	mov	r5, r0
.LVL521:
.L255:
	.loc 1 1734 2 is_stmt 1 view .LVU2078
	.loc 1 1734 5 is_stmt 0 view .LVU2079
	cmp	r5, #0
	blt	.L254
	.loc 1 1738 2 is_stmt 1 view .LVU2080
	.loc 1 1738 9 is_stmt 0 view .LVU2081
	mov	r5, r8
	b	.L239
.LVL522:
.L284:
	.loc 1 1690 3 is_stmt 1 view .LVU2082
	.loc 1 1690 9 is_stmt 0 view .LVU2083
	mov	r3, r6
	mov	r2, r8
	mov	r1, r10
	mov	r0, r9
	bl	context_write_data
.LVL523:
	.loc 1 1691 3 is_stmt 1 view .LVU2084
	.loc 1 1691 6 is_stmt 0 view .LVU2085
	subs	r5, r0, #0
	blt	.L254
	.loc 1 1695 3 is_stmt 1 view .LVU2086
	mov	r0, r9
.LVL524:
	.loc 1 1695 3 is_stmt 0 view .LVU2087
	bl	net_pkt_cursor_init
.LVL525:
	.loc 1 1696 3 is_stmt 1 view .LVU2088
	.loc 1 1696 9 is_stmt 0 view .LVU2089
	mov	r1, r9
	mov	r0, r4
	bl	net_tcp_queue_data
.LVL526:
	.loc 1 1697 3 is_stmt 1 view .LVU2090
	.loc 1 1697 6 is_stmt 0 view .LVU2091
	subs	r5, r0, #0
	blt	.L254
	.loc 1 1701 3 is_stmt 1 view .LVU2092
	.loc 1 1701 9 is_stmt 0 view .LVU2093
	ldr	r2, [sp, #80]
	ldr	r1, [sp, #68]
	mov	r0, r4
.LVL527:
	.loc 1 1701 9 view .LVU2094
	bl	net_tcp_send_data
.LVL528:
	mov	r5, r0
.LVL529:
	.loc 1 1701 9 view .LVU2095
	b	.L255
.LVL530:
.L258:
	.loc 1 1425 10 view .LVU2096
	mvn	r5, #8
.LVL531:
	.loc 1 1425 10 view .LVU2097
	b	.L239
.LVL532:
.L260:
	.loc 1 1434 10 view .LVU2098
	mvn	r5, #120
.LVL533:
	.loc 1 1434 10 view .LVU2099
	b	.L239
.LVL534:
.L261:
.LBB1133:
	.loc 1 1457 11 view .LVU2100
	mvn	r5, #21
.LVL535:
	.loc 1 1457 11 view .LVU2101
	b	.L239
.LVL536:
.L266:
	.loc 1 1461 11 view .LVU2102
	mvn	r5, #120
.LVL537:
	.loc 1 1461 11 view .LVU2103
	b	.L239
.LVL538:
.L271:
	.loc 1 1461 11 view .LVU2104
.LBE1133:
	.loc 1 1608 10 view .LVU2105
	mvn	r5, #21
.LVL539:
	.loc 1 1608 10 view .LVU2106
	b	.L239
.LVL540:
.L272:
.LBB1134:
	.loc 1 1498 11 view .LVU2107
	mvn	r5, #21
.LVL541:
	.loc 1 1498 11 view .LVU2108
	b	.L239
.LVL542:
.L273:
	.loc 1 1502 11 view .LVU2109
	mvn	r5, #120
.LVL543:
	.loc 1 1502 11 view .LVU2110
	b	.L239
.LVL544:
.L275:
	.loc 1 1502 11 view .LVU2111
.LBE1134:
	.loc 1 1621 10 view .LVU2112
	mvn	r5, #114
.LVL545:
	.loc 1 1621 10 view .LVU2113
	b	.L239
.LVL546:
.L276:
	.loc 1 1626 10 view .LVU2114
	mvn	r5, #104
.LVL547:
	.loc 1 1626 10 view .LVU2115
	b	.L239
	.cfi_endproc
.LFE1044:
	.size	context_sendto, .-context_sendto
	.section	.text.net_context_connect,"ax",%progbits
	.align	1
	.global	net_context_connect
	.syntax unified
	.thumb
	.thumb_func
	.fpu fpv4-sp-d16
	.type	net_context_connect, %function
net_context_connect:
.LVL548:
.LFB1032:
	.loc 1 942 1 is_stmt 1 view -0
	.cfi_startproc
	@ args = 12, pretend = 0, frame = 40
	@ frame_needed = 0, uses_anonymous_args = 0
	.loc 1 942 1 is_stmt 0 view .LVU2117
	push	{r4, r5, r6, r7, r8, r9, lr}
	.cfi_def_cfa_offset 28
	.cfi_offset 4, -28
	.cfi_offset 5, -24
	.cfi_offset 6, -20
	.cfi_offset 7, -16
	.cfi_offset 8, -12
	.cfi_offset 9, -8
	.cfi_offset 14, -4
	sub	sp, sp, #68
	.cfi_def_cfa_offset 96
	mov	r4, r0
	mov	r5, r1
	mov	r7, r2
	mov	r6, r3
	.loc 1 943 2 is_stmt 1 view .LVU2118
.LVL549:
	.loc 1 944 2 view .LVU2119
	.loc 1 945 2 view .LVU2120
	.loc 1 946 2 view .LVU2121
	.loc 1 948 4 view .LVU2122
	.loc 1 948 5 view .LVU2123
	.loc 1 949 4 view .LVU2124
	.loc 1 949 5 view .LVU2125
	.loc 1 951 2 view .LVU2126
	add	r8, r0, #8
.LVL550:
.LBB1135:
.LBI1135:
	.loc 9 899 19 view .LVU2127
.LBB1136:
	.loc 9 909 2 view .LVU2128
	.loc 9 909 7 view .LVU2129
	.loc 9 909 55 view .LVU2130
	.loc 9 910 2 view .LVU2131
	.loc 9 910 9 is_stmt 0 view .LVU2132
	mov	r2, #-1
.LVL551:
	.loc 9 910 9 view .LVU2133
	mov	r3, #-1
.LVL552:
	.loc 9 910 9 view .LVU2134
	mov	r0, r8
.LVL553:
	.loc 9 910 9 view .LVU2135
	bl	z_impl_k_mutex_lock
.LVL554:
	.loc 9 910 9 view .LVU2136
.LBE1136:
.LBE1135:
	.loc 1 953 2 is_stmt 1 view .LVU2137
.LBB1137:
.LBI1137:
	.loc 3 339 19 view .LVU2138
.LBB1138:
	.loc 3 341 4 view .LVU2139
	.loc 3 341 5 view .LVU2140
	.loc 3 343 2 view .LVU2141
	.loc 3 343 16 is_stmt 0 view .LVU2142
	ldrh	r0, [r4, #112]
.LVL555:
	.loc 3 343 16 view .LVU2143
.LBE1138:
.LBE1137:
	.loc 1 953 5 view .LVU2144
	tst	r0, #1
	beq	.L297
	.loc 1 958 2 is_stmt 1 view .LVU2145
	.loc 1 958 10 is_stmt 0 view .LVU2146
	ldrh	r2, [r5]
.LVL556:
.LBB1139:
.LBI1139:
	.loc 3 467 27 is_stmt 1 view .LVU2147
.LBB1140:
	.loc 3 469 4 view .LVU2148
	.loc 3 469 5 view .LVU2149
	.loc 3 471 2 view .LVU2150
	.loc 3 471 74 is_stmt 0 view .LVU2151
	ubfx	r3, r0, #3, #3
.LVL557:
	.loc 3 471 74 view .LVU2152
.LBE1140:
.LBE1139:
	.loc 1 958 5 view .LVU2153
	cmp	r2, r3
	bne	.L298
	.loc 1 967 2 is_stmt 1 view .LVU2154
	.loc 1 973 2 view .LVU2155
.LVL558:
.LBB1141:
.LBI1141:
	.loc 3 430 24 view .LVU2156
.LBB1142:
	.loc 3 432 4 view .LVU2157
	.loc 3 432 5 view .LVU2158
	.loc 3 434 2 view .LVU2159
	.loc 3 434 9 is_stmt 0 view .LVU2160
	ubfx	r2, r0, #1, #2
.LVL559:
	.loc 3 434 9 view .LVU2161
.LBE1142:
.LBE1141:
	.loc 1 973 5 view .LVU2162
	cmp	r2, #3
	beq	.L299
	.loc 1 978 2 is_stmt 1 view .LVU2163
.LVL560:
	.loc 3 469 4 view .LVU2164
	.loc 3 469 5 view .LVU2165
	.loc 3 471 2 view .LVU2166
	.loc 1 978 5 is_stmt 0 view .LVU2167
	cmp	r3, #2
	beq	.L311
	.loc 1 1030 9 is_stmt 1 view .LVU2168
.LVL561:
	.loc 3 469 4 view .LVU2169
	.loc 3 469 5 view .LVU2170
	.loc 3 471 2 view .LVU2171
	.loc 1 1030 12 is_stmt 0 view .LVU2172
	cmp	r3, #1
	bne	.L306
.LBB1143:
	.loc 1 1032 3 is_stmt 1 view .LVU2173
.LVL562:
	.loc 1 1035 3 view .LVU2174
	.loc 1 1035 6 is_stmt 0 view .LVU2175
	cmp	r7, #7
	bls	.L307
	.loc 1 1042 3 is_stmt 1 view .LVU2176
	.loc 1 1044 2 view .LVU2177
.LVL563:
	.loc 1 1044 2 is_stmt 0 view .LVU2178
.LBE1143:
	.loc 2 1378 2 is_stmt 1 view .LVU2179
.LBB1151:
.LBB1144:
.LBI1144:
	.loc 11 83 216 view .LVU2180
.LBB1145:
	.loc 11 83 292 view .LVU2181
	ldr	r3, [r5, #4]	@ unaligned
	.loc 11 83 299 is_stmt 0 view .LVU2182
	str	r3, [r4, #44]	@ unaligned
.LVL564:
	.loc 11 83 299 view .LVU2183
.LBE1145:
.LBE1144:
	.loc 1 1047 3 is_stmt 1 view .LVU2184
	.loc 1 1047 3 is_stmt 0 view .LVU2185
.LBE1151:
	.loc 2 1378 2 is_stmt 1 view .LVU2186
.LBB1152:
	.loc 1 1047 34 is_stmt 0 view .LVU2187
	ldrh	r9, [r5, #2]
	.loc 1 1047 19 view .LVU2188
	strh	r9, [r4, #42]	@ movhi
	.loc 1 1048 3 is_stmt 1 view .LVU2189
	.loc 1 1048 21 is_stmt 0 view .LVU2190
	movs	r3, #1
	strh	r3, [r4, #40]	@ movhi
	.loc 1 1050 3 is_stmt 1 view .LVU2191
	.loc 1 1050 22 is_stmt 0 view .LVU2192
	ldr	r3, [r4, #44]
	.loc 1 1050 6 view .LVU2193
	cmp	r3, #0
	beq	.L294
	.loc 1 1051 4 is_stmt 1 view .LVU2194
	.loc 1 1051 19 is_stmt 0 view .LVU2195
	orr	r0, r0, #256
	strh	r0, [r4, #112]	@ movhi
.L295:
	.loc 1 1056 3 is_stmt 1 view .LVU2196
.LVL565:
	.loc 1 1058 3 view .LVU2197
	.loc 1 1058 9 is_stmt 0 view .LVU2198
	mov	r0, r4
	bl	bind_default
.LVL566:
	.loc 1 1059 3 is_stmt 1 view .LVU2199
	.loc 1 1059 6 is_stmt 0 view .LVU2200
	mov	r7, r0
.LVL567:
	.loc 1 1059 6 view .LVU2201
	cbnz	r0, .L287
	.loc 1 1063 3 is_stmt 1 view .LVU2202
.LVL568:
	.loc 1 1063 3 is_stmt 0 view .LVU2203
.LBE1152:
	.loc 2 1406 2 is_stmt 1 view .LVU2204
.LBB1153:
	.loc 1 1063 44 is_stmt 0 view .LVU2205
	movs	r3, #1
	strh	r3, [r4, #28]	@ movhi
	.loc 1 1064 3 is_stmt 1 view .LVU2206
.LVL569:
	.loc 1 1064 3 is_stmt 0 view .LVU2207
.LBE1153:
	.loc 2 1378 2 is_stmt 1 view .LVU2208
.LBB1154:
	.loc 1 1064 36 is_stmt 0 view .LVU2209
	strh	r3, [sp, #24]	@ movhi
	.loc 1 1065 3 is_stmt 1 view .LVU2210
.LVL570:
	.loc 1 1065 3 is_stmt 0 view .LVU2211
.LBE1154:
	.loc 2 1378 2 is_stmt 1 view .LVU2212
.LBB1155:
	.loc 1 1065 42 is_stmt 0 view .LVU2213
	ldrh	ip, [r4, #30]
.LVL571:
	.loc 1 1065 42 view .LVU2214
.LBE1155:
	.loc 2 1378 2 is_stmt 1 view .LVU2215
.LBB1156:
	.loc 1 1065 34 is_stmt 0 view .LVU2216
	strh	ip, [sp, #26]	@ movhi
	.loc 1 1068 3 is_stmt 1 view .LVU2217
.LVL572:
	.loc 1 1068 3 is_stmt 0 view .LVU2218
.LBE1156:
	.loc 2 1406 2 is_stmt 1 view .LVU2219
.LBB1157:
	.loc 1 1068 35 is_stmt 0 view .LVU2220
	ldr	r7, [r4, #32]
	.loc 1 1068 6 view .LVU2221
	cbz	r7, .L293
	.loc 1 1069 4 is_stmt 1 view .LVU2222
.LBB1146:
	.loc 1 1069 9 view .LVU2223
.LVL573:
	.loc 1 1069 9 is_stmt 0 view .LVU2224
.LBE1146:
.LBE1157:
	.loc 2 1378 2 is_stmt 1 view .LVU2225
.LBB1158:
.LBB1149:
	.loc 1 1069 158 view .LVU2226
.LBB1147:
	.loc 1 1069 187 view .LVU2227
	.loc 1 1069 187 is_stmt 0 view .LVU2228
.LBE1147:
.LBE1149:
.LBE1158:
	.loc 2 1406 2 is_stmt 1 view .LVU2229
.LBB1159:
.LBB1150:
.LBB1148:
	.loc 1 1069 352 view .LVU2230
	.loc 1 1069 355 is_stmt 0 view .LVU2231
	ldr	r3, [r7]	@ unaligned
.LBE1148:
	.loc 1 1069 167 view .LVU2232
	str	r3, [sp, #28]
	.loc 1 1069 367 is_stmt 1 view .LVU2233
	.loc 1 1069 372 view .LVU2234
	.loc 1 1069 420 view .LVU2235
.LBE1150:
	.loc 1 1069 14 view .LVU2236
	.loc 1 1072 4 view .LVU2237
.LVL574:
	.loc 1 1072 10 is_stmt 0 view .LVU2238
	add	r7, sp, #24
.LVL575:
.L293:
	.loc 1 1072 10 view .LVU2239
.LBE1159:
	.loc 1 1079 2 is_stmt 1 view .LVU2240
	.loc 1 1092 2 view .LVU2241
.LBB1160:
.LBI1160:
	.loc 3 510 20 view .LVU2242
.LBB1161:
	.loc 3 512 4 view .LVU2243
	.loc 3 512 5 view .LVU2244
	.loc 3 514 2 view .LVU2245
	.loc 3 514 38 is_stmt 0 view .LVU2246
	ldrh	r3, [r4, #112]
	.loc 3 514 9 view .LVU2247
	ubfx	r3, r3, #6, #2
.LVL576:
	.loc 3 514 9 view .LVU2248
.LBE1161:
.LBE1160:
	.loc 1 1092 5 view .LVU2249
	cmp	r3, #2
	beq	.L312
	.loc 1 1099 9 is_stmt 1 view .LVU2250
.LVL577:
	.loc 3 512 4 view .LVU2251
	.loc 3 512 5 view .LVU2252
	.loc 3 514 2 view .LVU2253
	.loc 1 1099 12 is_stmt 0 view .LVU2254
	cmp	r3, #1
	bne	.L309
	.loc 1 1101 3 is_stmt 1 view .LVU2255
	.loc 1 1101 9 is_stmt 0 view .LVU2256
	ldr	r3, [sp, #104]
	str	r3, [sp, #20]
	str	r6, [sp, #16]
	ldrd	r2, [sp, #96]
	strd	r2, [sp, #8]
	str	ip, [sp]
	mov	r3, r9
	mov	r2, r7
	mov	r1, r5
	mov	r0, r4
	bl	net_tcp_connect
.LVL578:
	.loc 1 1101 9 view .LVU2257
	mov	r7, r0
.LVL579:
.L287:
	.loc 1 1108 2 is_stmt 1 view .LVU2258
.LBB1162:
.LBI1162:
	.loc 9 917 19 view .LVU2259
.LBB1163:
	.loc 9 925 2 view .LVU2260
	.loc 9 925 7 view .LVU2261
	.loc 9 925 55 view .LVU2262
	.loc 9 926 2 view .LVU2263
	.loc 9 926 9 is_stmt 0 view .LVU2264
	mov	r0, r8
	bl	z_impl_k_mutex_unlock
.LVL580:
	.loc 9 926 9 view .LVU2265
.LBE1163:
.LBE1162:
	.loc 1 1110 2 is_stmt 1 view .LVU2266
	.loc 1 1111 1 is_stmt 0 view .LVU2267
	mov	r0, r7
	add	sp, sp, #68
	.cfi_remember_state
	.cfi_def_cfa_offset 28
	@ sp needed
	pop	{r4, r5, r6, r7, r8, r9, pc}
.LVL581:
.L311:
	.cfi_restore_state
.LBB1164:
	.loc 1 980 3 is_stmt 1 view .LVU2268
	.loc 1 983 3 view .LVU2269
	.loc 1 983 6 is_stmt 0 view .LVU2270
	cmp	r7, #23
	bls	.L300
	.loc 1 988 3 is_stmt 1 view .LVU2271
.LVL582:
.LBB1165:
.LBI1165:
	.loc 3 601 24 view .LVU2272
.LBB1166:
	.loc 3 603 2 view .LVU2273
	.loc 3 603 16 is_stmt 0 view .LVU2274
	ldrh	r3, [r4, #110]
.LVL583:
	.loc 3 603 16 view .LVU2275
.LBE1166:
.LBE1165:
	.loc 1 988 6 view .LVU2276
	cmp	r3, #6
	beq	.L313
.L289:
	.loc 1 994 2 is_stmt 1 view .LVU2277
.LVL584:
	.loc 1 994 2 is_stmt 0 view .LVU2278
.LBE1164:
	.loc 2 1365 2 is_stmt 1 view .LVU2279
.LBB1186:
	.loc 1 994 2 is_stmt 0 view .LVU2280
	mov	r3, r5
.LVL585:
.LBB1167:
.LBI1167:
	.loc 11 83 216 is_stmt 1 view .LVU2281
.LBB1168:
	.loc 11 83 292 view .LVU2282
	.loc 11 83 299 is_stmt 0 view .LVU2283
	ldr	r7, [r3, #4]!	@ unaligned
.LVL586:
	.loc 11 83 299 view .LVU2284
	ldr	r1, [r3, #4]	@ unaligned
	ldr	r2, [r3, #8]	@ unaligned
	ldr	r3, [r3, #12]	@ unaligned
.LVL587:
	.loc 11 83 299 view .LVU2285
	str	r7, [r4, #44]	@ unaligned
	str	r1, [r4, #48]	@ unaligned
	str	r2, [r4, #52]	@ unaligned
	str	r3, [r4, #56]	@ unaligned
.LVL588:
	.loc 11 83 299 view .LVU2286
.LBE1168:
.LBE1167:
	.loc 1 997 3 is_stmt 1 view .LVU2287
	.loc 1 997 3 is_stmt 0 view .LVU2288
.LBE1186:
	.loc 2 1365 2 is_stmt 1 view .LVU2289
.LBB1187:
	.loc 1 997 36 is_stmt 0 view .LVU2290
	ldrh	r9, [r5, #2]
	.loc 1 997 20 view .LVU2291
	strh	r9, [r4, #42]	@ movhi
	.loc 1 998 3 is_stmt 1 view .LVU2292
	.loc 1 998 22 is_stmt 0 view .LVU2293
	movs	r3, #2
	strh	r3, [r4, #40]	@ movhi
	.loc 1 1000 3 is_stmt 1 view .LVU2294
.LVL589:
.LBB1169:
.LBI1169:
	.loc 2 951 19 view .LVU2295
.LBB1170:
	.loc 2 953 2 view .LVU2296
.LBB1171:
	.loc 2 953 26 view .LVU2297
	.loc 2 953 153 view .LVU2298
	.loc 2 953 156 is_stmt 0 view .LVU2299
	ldr	r3, [r4, #44]	@ unaligned
.LBE1171:
	.loc 2 955 165 view .LVU2300
	cbnz	r3, .L302
.LBB1172:
	.loc 2 954 20 is_stmt 1 view .LVU2301
.LVL590:
	.loc 2 954 147 view .LVU2302
	.loc 2 954 150 is_stmt 0 view .LVU2303
	ldr	r3, [r4, #48]	@ unaligned
.LBE1172:
	.loc 2 953 171 view .LVU2304
	cbnz	r3, .L303
.LBB1173:
	.loc 2 955 20 is_stmt 1 view .LVU2305
.LVL591:
	.loc 2 955 147 view .LVU2306
	.loc 2 955 150 is_stmt 0 view .LVU2307
	ldr	r3, [r4, #52]	@ unaligned
.LBE1173:
	.loc 2 954 165 view .LVU2308
	cbnz	r3, .L304
.LBB1174:
	.loc 2 956 20 is_stmt 1 view .LVU2309
.LVL592:
	.loc 2 956 147 view .LVU2310
	.loc 2 956 150 is_stmt 0 view .LVU2311
	ldr	r3, [r4, #56]	@ unaligned
.LBE1174:
	.loc 2 955 165 view .LVU2312
	cbz	r3, .L305
	movs	r3, #0
	b	.L290
.LVL593:
.L313:
	.loc 2 955 165 view .LVU2313
.LBE1170:
.LBE1169:
.LBB1177:
.LBI1177:
	.loc 2 604 19 is_stmt 1 discriminator 1 view .LVU2314
.LBB1178:
	.loc 2 606 2 discriminator 1 view .LVU2315
	.loc 2 606 22 is_stmt 0 discriminator 1 view .LVU2316
	ldrb	r3, [r4, #44]	@ zero_extendqisi2
.LVL594:
	.loc 2 606 22 discriminator 1 view .LVU2317
.LBE1178:
.LBE1177:
	.loc 1 988 56 discriminator 1 view .LVU2318
	cmp	r3, #255
	bne	.L289
	.loc 1 990 8 view .LVU2319
	mvn	r7, #124
.LVL595:
	.loc 1 990 8 view .LVU2320
	b	.L287
.LVL596:
.L302:
.LBB1179:
.LBB1175:
	.loc 2 955 165 view .LVU2321
	movs	r3, #0
.L290:
.LVL597:
	.loc 2 955 165 view .LVU2322
.LBE1175:
.LBE1179:
	.loc 1 1000 6 view .LVU2323
	cbnz	r3, .L291
	.loc 1 1001 4 is_stmt 1 view .LVU2324
	.loc 1 1001 19 is_stmt 0 view .LVU2325
	orr	r0, r0, #256
	strh	r0, [r4, #112]	@ movhi
.L292:
	.loc 1 1006 3 is_stmt 1 view .LVU2326
.LVL598:
	.loc 1 1014 3 view .LVU2327
	.loc 1 1014 9 is_stmt 0 view .LVU2328
	mov	r0, r4
	bl	bind_default
.LVL599:
	.loc 1 1015 3 is_stmt 1 view .LVU2329
	.loc 1 1015 6 is_stmt 0 view .LVU2330
	mov	r7, r0
	cmp	r0, #0
	bne	.L287
	.loc 1 1019 3 is_stmt 1 view .LVU2331
.LVL600:
	.loc 1 1019 3 is_stmt 0 view .LVU2332
.LBE1187:
	.loc 2 1392 2 is_stmt 1 view .LVU2333
.LBB1188:
	.loc 1 1019 46 is_stmt 0 view .LVU2334
	movs	r3, #2
	strh	r3, [r4, #28]	@ movhi
	.loc 1 1020 3 is_stmt 1 view .LVU2335
.LVL601:
	.loc 1 1020 3 is_stmt 0 view .LVU2336
.LBE1188:
	.loc 2 1365 2 is_stmt 1 view .LVU2337
.LBB1189:
	.loc 1 1020 38 is_stmt 0 view .LVU2338
	strh	r3, [sp, #24]	@ movhi
	.loc 1 1021 3 is_stmt 1 view .LVU2339
.LVL602:
	.loc 1 1021 3 is_stmt 0 view .LVU2340
.LBE1189:
	.loc 2 1365 2 is_stmt 1 view .LVU2341
.LBB1190:
	.loc 1 1021 44 is_stmt 0 view .LVU2342
	ldrh	ip, [r4, #30]
.LVL603:
	.loc 1 1021 44 view .LVU2343
.LBE1190:
	.loc 2 1365 2 is_stmt 1 view .LVU2344
.LBB1191:
	.loc 1 1021 36 is_stmt 0 view .LVU2345
	strh	ip, [sp, #26]	@ movhi
	.loc 1 1024 3 is_stmt 1 view .LVU2346
.LVL604:
	.loc 1 1024 3 is_stmt 0 view .LVU2347
.LBE1191:
	.loc 2 1392 2 is_stmt 1 view .LVU2348
.LBB1192:
	.loc 1 1024 36 is_stmt 0 view .LVU2349
	ldr	r7, [r4, #32]
	.loc 1 1024 6 view .LVU2350
	cmp	r7, #0
	beq	.L293
	.loc 1 1025 4 is_stmt 1 view .LVU2351
.LBB1180:
	.loc 1 1025 9 view .LVU2352
.LVL605:
	.loc 1 1025 9 is_stmt 0 view .LVU2353
.LBE1180:
.LBE1192:
	.loc 2 1365 2 is_stmt 1 view .LVU2354
.LBB1193:
.LBB1183:
	.loc 1 1025 162 view .LVU2355
.LBB1181:
	.loc 1 1025 191 view .LVU2356
	.loc 1 1025 191 is_stmt 0 view .LVU2357
.LBE1181:
.LBE1183:
.LBE1193:
	.loc 2 1392 2 is_stmt 1 view .LVU2358
.LBB1194:
.LBB1184:
.LBB1182:
	.loc 1 1025 360 view .LVU2359
	.loc 1 1025 363 is_stmt 0 view .LVU2360
	add	lr, sp, #48
	ldr	r0, [r7]	@ unaligned
.LVL606:
	.loc 1 1025 363 view .LVU2361
	ldr	r1, [r7, #4]	@ unaligned
	ldr	r2, [r7, #8]	@ unaligned
	ldr	r3, [r7, #12]	@ unaligned
	stmia	lr!, {r0, r1, r2, r3}
.LBE1182:
	.loc 1 1025 171 view .LVU2362
	add	r7, sp, #28
.LVL607:
	.loc 1 1025 171 view .LVU2363
	add	r3, sp, #64
	ldmdb	r3, {r0, r1, r2, r3}
	stm	r7, {r0, r1, r2, r3}
	.loc 1 1025 375 is_stmt 1 view .LVU2364
	.loc 1 1025 380 view .LVU2365
	.loc 1 1025 428 view .LVU2366
.LBE1184:
	.loc 1 1025 14 view .LVU2367
	.loc 1 1028 4 view .LVU2368
.LVL608:
	.loc 1 1028 10 is_stmt 0 view .LVU2369
	add	r7, sp, #24
.LVL609:
	.loc 1 1028 10 view .LVU2370
	b	.L293
.LVL610:
.L303:
.LBB1185:
.LBB1176:
	.loc 2 955 165 view .LVU2371
	movs	r3, #0
	b	.L290
.LVL611:
.L304:
	.loc 2 955 165 view .LVU2372
	movs	r3, #0
	b	.L290
.LVL612:
.L305:
	.loc 2 955 165 view .LVU2373
	movs	r3, #1
	b	.L290
.LVL613:
.L291:
	.loc 2 955 165 view .LVU2374
.LBE1176:
.LBE1185:
	.loc 1 1003 4 is_stmt 1 view .LVU2375
	.loc 1 1003 19 is_stmt 0 view .LVU2376
	bic	r0, r0, #256
	strh	r0, [r4, #112]	@ movhi
	b	.L292
.LVL614:
.L294:
	.loc 1 1003 19 view .LVU2377
.LBE1194:
.LBB1195:
	.loc 1 1053 4 is_stmt 1 view .LVU2378
	.loc 1 1053 19 is_stmt 0 view .LVU2379
	bic	r0, r0, #256
	strh	r0, [r4, #112]	@ movhi
	b	.L295
.LVL615:
.L312:
	.loc 1 1053 19 view .LVU2380
.LBE1195:
	.loc 1 1094 3 is_stmt 1 view .LVU2381
	.loc 1 1094 6 is_stmt 0 view .LVU2382
	cbz	r6, .L308
	.loc 1 1095 4 is_stmt 1 view .LVU2383
	ldr	r2, [sp, #104]
	movs	r1, #0
	mov	r0, r4
	blx	r6
.LVL616:
	.loc 1 1098 7 is_stmt 0 view .LVU2384
	movs	r7, #0
.LVL617:
	.loc 1 1098 7 view .LVU2385
	b	.L287
.LVL618:
.L297:
	.loc 1 954 7 view .LVU2386
	mvn	r7, #8
.LVL619:
	.loc 1 954 7 view .LVU2387
	b	.L287
.LVL620:
.L298:
	.loc 1 963 7 view .LVU2388
	mvn	r7, #21
.LVL621:
	.loc 1 963 7 view .LVU2389
	b	.L287
.LVL622:
.L299:
	.loc 1 974 7 view .LVU2390
	mvn	r7, #94
.LVL623:
	.loc 1 974 7 view .LVU2391
	b	.L287
.LVL624:
.L300:
.LBB1196:
	.loc 1 984 8 view .LVU2392
	mvn	r7, #21
.LVL625:
	.loc 1 984 8 view .LVU2393
	b	.L287
.LVL626:
.L306:
	.loc 1 984 8 view .LVU2394
.LBE1196:
	.loc 1 1075 7 view .LVU2395
	mvn	r7, #21
.LVL627:
	.loc 1 1075 7 view .LVU2396
	b	.L287
.LVL628:
.L307:
.LBB1197:
	.loc 1 1036 8 view .LVU2397
	mvn	r7, #21
.LVL629:
	.loc 1 1036 8 view .LVU2398
	b	.L287
.LVL630:
.L308:
	.loc 1 1036 8 view .LVU2399
.LBE1197:
	.loc 1 1098 7 view .LVU2400
	movs	r7, #0
.LVL631:
	.loc 1 1098 7 view .LVU2401
	b	.L287
.LVL632:
.L309:
	.loc 1 1104 7 view .LVU2402
	mvn	r7, #133
.LVL633:
	.loc 1 1104 7 view .LVU2403
	b	.L287
	.cfi_endproc
.LFE1032:
	.size	net_context_connect, .-net_context_connect
	.section	.text.net_context_accept,"ax",%progbits
	.align	1
	.global	net_context_accept
	.syntax unified
	.thumb
	.thumb_func
	.fpu fpv4-sp-d16
	.type	net_context_accept, %function
net_context_accept:
.LVL634:
.LFB1033:
	.loc 1 1117 1 is_stmt 1 view -0
	.cfi_startproc
	@ args = 4, pretend = 0, frame = 0
	@ frame_needed = 0, uses_anonymous_args = 0
	.loc 1 1117 1 is_stmt 0 view .LVU2405
	push	{r4, r5, r6, lr}
	.cfi_def_cfa_offset 16
	.cfi_offset 4, -16
	.cfi_offset 5, -12
	.cfi_offset 6, -8
	.cfi_offset 14, -4
	.loc 1 1118 2 is_stmt 1 view .LVU2406
.LVL635:
	.loc 1 1120 4 view .LVU2407
	.loc 1 1120 5 view .LVU2408
	.loc 1 1122 2 view .LVU2409
.LBB1198:
.LBI1198:
	.loc 3 339 19 view .LVU2410
.LBB1199:
	.loc 3 341 4 view .LVU2411
	.loc 3 341 5 view .LVU2412
	.loc 3 343 2 view .LVU2413
	.loc 3 343 16 is_stmt 0 view .LVU2414
	ldrh	r3, [r0, #112]
.LVL636:
	.loc 3 343 16 view .LVU2415
.LBE1199:
.LBE1198:
	.loc 1 1122 5 view .LVU2416
	tst	r3, #1
	beq	.L318
	mov	r4, r0
	mov	r5, r1
	.loc 1 1126 2 is_stmt 1 view .LVU2417
	add	r6, r0, #8
.LVL637:
.LBB1200:
.LBI1200:
	.loc 9 899 19 view .LVU2418
.LBB1201:
	.loc 9 909 2 view .LVU2419
	.loc 9 909 7 view .LVU2420
	.loc 9 909 55 view .LVU2421
	.loc 9 910 2 view .LVU2422
	.loc 9 910 9 is_stmt 0 view .LVU2423
	mov	r2, #-1
.LVL638:
	.loc 9 910 9 view .LVU2424
	mov	r3, #-1
	mov	r0, r6
.LVL639:
	.loc 9 910 9 view .LVU2425
	bl	z_impl_k_mutex_lock
.LVL640:
	.loc 9 910 9 view .LVU2426
.LBE1201:
.LBE1200:
	.loc 1 1128 2 is_stmt 1 view .LVU2427
	.loc 1 1139 2 view .LVU2428
.LBB1202:
.LBI1202:
	.loc 3 430 24 view .LVU2429
.LBB1203:
	.loc 3 432 4 view .LVU2430
	.loc 3 432 5 view .LVU2431
	.loc 3 434 2 view .LVU2432
	.loc 3 435 12 is_stmt 0 view .LVU2433
	ldrh	r3, [r4, #112]
	.loc 3 434 9 view .LVU2434
	ubfx	r2, r3, #1, #2
.LVL641:
	.loc 3 434 9 view .LVU2435
.LBE1203:
.LBE1202:
	.loc 1 1139 5 view .LVU2436
	cmp	r2, #3
	beq	.L316
.LVL642:
.LBB1204:
.LBI1204:
	.loc 3 510 20 is_stmt 1 view .LVU2437
.LBB1205:
	.loc 3 512 4 view .LVU2438
	.loc 3 512 5 view .LVU2439
	.loc 3 514 2 view .LVU2440
	.loc 3 514 9 is_stmt 0 view .LVU2441
	ubfx	r3, r3, #6, #2
.LVL643:
	.loc 3 514 9 view .LVU2442
.LBE1205:
.LBE1204:
	.loc 1 1139 64 view .LVU2443
	cmp	r3, #1
	bne	.L319
.L316:
	.loc 1 1148 2 is_stmt 1 view .LVU2444
.LVL644:
.LBB1206:
.LBI1206:
	.loc 3 601 24 view .LVU2445
.LBB1207:
	.loc 3 603 2 view .LVU2446
	.loc 3 603 16 is_stmt 0 view .LVU2447
	ldrh	r3, [r4, #110]
.LVL645:
	.loc 3 603 16 view .LVU2448
.LBE1207:
.LBE1206:
	.loc 1 1148 5 view .LVU2449
	cmp	r3, #6
	beq	.L322
	.loc 1 1118 6 view .LVU2450
	movs	r4, #0
.LVL646:
.L317:
	.loc 1 1154 2 is_stmt 1 view .LVU2451
.LBB1208:
.LBI1208:
	.loc 9 917 19 view .LVU2452
.LBB1209:
	.loc 9 925 2 view .LVU2453
	.loc 9 925 7 view .LVU2454
	.loc 9 925 55 view .LVU2455
	.loc 9 926 2 view .LVU2456
	.loc 9 926 9 is_stmt 0 view .LVU2457
	mov	r0, r6
	bl	z_impl_k_mutex_unlock
.LVL647:
	.loc 9 926 9 view .LVU2458
.LBE1209:
.LBE1208:
	.loc 1 1156 2 is_stmt 1 view .LVU2459
.L315:
	.loc 1 1157 1 is_stmt 0 view .LVU2460
	mov	r0, r4
	pop	{r4, r5, r6, pc}
.LVL648:
.L322:
	.loc 1 1149 3 is_stmt 1 view .LVU2461
	.loc 1 1149 9 is_stmt 0 view .LVU2462
	ldr	r2, [sp, #16]
	mov	r1, r5
	mov	r0, r4
	bl	net_tcp_accept
.LVL649:
	mov	r4, r0
.LVL650:
	.loc 1 1150 3 is_stmt 1 view .LVU2463
	b	.L317
.LVL651:
.L319:
	.loc 1 1144 7 is_stmt 0 view .LVU2464
	mvn	r4, #21
.LVL652:
	.loc 1 1144 7 view .LVU2465
	b	.L317
.LVL653:
.L318:
	.loc 1 1123 10 view .LVU2466
	mvn	r4, #8
	b	.L315
	.cfi_endproc
.LFE1033:
	.size	net_context_accept, .-net_context_accept
	.section	.text.net_context_send,"ax",%progbits
	.align	1
	.global	net_context_send
	.syntax unified
	.thumb
	.thumb_func
	.fpu fpv4-sp-d16
	.type	net_context_send, %function
net_context_send:
.LVL654:
.LFB1045:
	.loc 1 1751 1 is_stmt 1 view -0
	.cfi_startproc
	@ args = 12, pretend = 0, frame = 0
	@ frame_needed = 0, uses_anonymous_args = 0
	.loc 1 1751 1 is_stmt 0 view .LVU2468
	push	{r4, r5, r6, r7, r8, lr}
	.cfi_def_cfa_offset 24
	.cfi_offset 4, -24
	.cfi_offset 5, -20
	.cfi_offset 6, -16
	.cfi_offset 7, -12
	.cfi_offset 8, -8
	.cfi_offset 14, -4
	sub	sp, sp, #24
	.cfi_def_cfa_offset 48
	mov	r4, r0
	mov	r5, r1
	mov	r8, r2
	mov	r6, r3
	.loc 1 1752 2 is_stmt 1 view .LVU2469
	.loc 1 1753 2 view .LVU2470
.LVL655:
	.loc 1 1755 2 view .LVU2471
	add	r7, r0, #8
.LVL656:
.LBB1210:
.LBI1210:
	.loc 9 899 19 view .LVU2472
.LBB1211:
	.loc 9 909 2 view .LVU2473
	.loc 9 909 7 view .LVU2474
	.loc 9 909 55 view .LVU2475
	.loc 9 910 2 view .LVU2476
	.loc 9 910 9 is_stmt 0 view .LVU2477
	mov	r2, #-1
.LVL657:
	.loc 9 910 9 view .LVU2478
	mov	r3, #-1
.LVL658:
	.loc 9 910 9 view .LVU2479
	mov	r0, r7
.LVL659:
	.loc 9 910 9 view .LVU2480
	bl	z_impl_k_mutex_lock
.LVL660:
	.loc 9 910 9 view .LVU2481
.LBE1211:
.LBE1210:
	.loc 1 1757 2 is_stmt 1 view .LVU2482
	.loc 1 1757 15 is_stmt 0 view .LVU2483
	ldrh	r0, [r4, #112]
	.loc 1 1757 5 view .LVU2484
	tst	r0, #256
	beq	.L326
.LVL661:
	.loc 2 1378 2 is_stmt 1 discriminator 1 view .LVU2485
	.loc 1 1758 32 is_stmt 0 discriminator 1 view .LVU2486
	ldrh	r3, [r4, #42]
	.loc 1 1757 39 discriminator 1 view .LVU2487
	cbz	r3, .L327
	.loc 1 1763 2 is_stmt 1 view .LVU2488
.LVL662:
.LBB1212:
.LBI1212:
	.loc 3 467 27 view .LVU2489
.LBB1213:
	.loc 3 469 4 view .LVU2490
	.loc 3 469 5 view .LVU2491
	.loc 3 471 2 view .LVU2492
	.loc 3 471 74 is_stmt 0 view .LVU2493
	ubfx	r0, r0, #3, #3
.LVL663:
	.loc 3 471 74 view .LVU2494
.LBE1213:
.LBE1212:
	.loc 1 1763 5 view .LVU2495
	cmp	r0, #2
	beq	.L328
	.loc 1 1766 9 is_stmt 1 view .LVU2496
.LVL664:
	.loc 3 469 4 view .LVU2497
	.loc 3 469 5 view .LVU2498
	.loc 3 471 2 view .LVU2499
	.loc 1 1766 12 is_stmt 0 view .LVU2500
	cmp	r0, #1
	beq	.L331
	.loc 1 1777 11 view .LVU2501
	movs	r1, #0
.L325:
.LVL665:
	.loc 1 1780 2 is_stmt 1 view .LVU2502
	.loc 1 1780 8 is_stmt 0 view .LVU2503
	movs	r3, #0
	str	r3, [sp, #20]
	ldr	r3, [sp, #56]
	str	r3, [sp, #16]
	ldrd	r2, [sp, #48]
	strd	r2, [sp, #8]
	str	r6, [sp, #4]
	str	r1, [sp]
	add	r3, r4, #40
	mov	r2, r8
	mov	r1, r5
.LVL666:
	.loc 1 1780 8 view .LVU2504
	mov	r0, r4
	bl	context_sendto
.LVL667:
	.loc 1 1780 8 view .LVU2505
	mov	r4, r0
.LVL668:
.L324:
	.loc 1 1783 2 is_stmt 1 view .LVU2506
.LBB1214:
.LBI1214:
	.loc 9 917 19 view .LVU2507
.LBB1215:
	.loc 9 925 2 view .LVU2508
	.loc 9 925 7 view .LVU2509
	.loc 9 925 55 view .LVU2510
	.loc 9 926 2 view .LVU2511
	.loc 9 926 9 is_stmt 0 view .LVU2512
	mov	r0, r7
	bl	z_impl_k_mutex_unlock
.LVL669:
	.loc 9 926 9 view .LVU2513
.LBE1215:
.LBE1214:
	.loc 1 1785 2 is_stmt 1 view .LVU2514
	.loc 1 1786 1 is_stmt 0 view .LVU2515
	mov	r0, r4
	add	sp, sp, #24
	.cfi_remember_state
	.cfi_def_cfa_offset 24
	@ sp needed
	pop	{r4, r5, r6, r7, r8, pc}
.LVL670:
.L331:
	.cfi_restore_state
	.loc 1 1768 11 view .LVU2516
	movs	r1, #8
	b	.L325
.L328:
	.loc 1 1765 11 view .LVU2517
	movs	r1, #24
	b	.L325
.L326:
	.loc 1 1759 7 view .LVU2518
	mvn	r4, #120
.LVL671:
	.loc 1 1759 7 view .LVU2519
	b	.L324
.LVL672:
.L327:
	.loc 1 1759 7 view .LVU2520
	mvn	r4, #120
.LVL673:
	.loc 1 1759 7 view .LVU2521
	b	.L324
	.cfi_endproc
.LFE1045:
	.size	net_context_send, .-net_context_send
	.section	.text.net_context_sendmsg,"ax",%progbits
	.align	1
	.global	net_context_sendmsg
	.syntax unified
	.thumb
	.thumb_func
	.fpu fpv4-sp-d16
	.type	net_context_sendmsg, %function
net_context_sendmsg:
.LVL674:
.LFB1046:
	.loc 1 1794 1 is_stmt 1 view -0
	.cfi_startproc
	@ args = 12, pretend = 0, frame = 0
	@ frame_needed = 0, uses_anonymous_args = 0
	.loc 1 1794 1 is_stmt 0 view .LVU2523
	push	{r4, r5, r6, r7, lr}
	.cfi_def_cfa_offset 20
	.cfi_offset 4, -20
	.cfi_offset 5, -16
	.cfi_offset 6, -12
	.cfi_offset 7, -8
	.cfi_offset 14, -4
	sub	sp, sp, #28
	.cfi_def_cfa_offset 48
	mov	r4, r0
	mov	r5, r1
	mov	r6, r3
	.loc 1 1795 2 is_stmt 1 view .LVU2524
	.loc 1 1797 2 view .LVU2525
	add	r7, r0, #8
.LVL675:
.LBB1216:
.LBI1216:
	.loc 9 899 19 view .LVU2526
.LBB1217:
	.loc 9 909 2 view .LVU2527
	.loc 9 909 7 view .LVU2528
	.loc 9 909 55 view .LVU2529
	.loc 9 910 2 view .LVU2530
	.loc 9 910 9 is_stmt 0 view .LVU2531
	mov	r2, #-1
.LVL676:
	.loc 9 910 9 view .LVU2532
	mov	r3, #-1
.LVL677:
	.loc 9 910 9 view .LVU2533
	mov	r0, r7
.LVL678:
	.loc 9 910 9 view .LVU2534
	bl	z_impl_k_mutex_lock
.LVL679:
	.loc 9 910 9 view .LVU2535
.LBE1217:
.LBE1216:
	.loc 1 1799 2 is_stmt 1 view .LVU2536
	.loc 1 1799 8 is_stmt 0 view .LVU2537
	movs	r3, #1
	str	r3, [sp, #20]
	ldr	r3, [sp, #56]
	str	r3, [sp, #16]
	ldrd	r2, [sp, #48]
	strd	r2, [sp, #8]
	str	r6, [sp, #4]
	movs	r2, #0
	str	r2, [sp]
	mov	r3, r2
	mov	r1, r5
	mov	r0, r4
	bl	context_sendto
.LVL680:
	mov	r4, r0
.LVL681:
	.loc 1 1802 2 is_stmt 1 view .LVU2538
.LBB1218:
.LBI1218:
	.loc 9 917 19 view .LVU2539
.LBB1219:
	.loc 9 925 2 view .LVU2540
	.loc 9 925 7 view .LVU2541
	.loc 9 925 55 view .LVU2542
	.loc 9 926 2 view .LVU2543
	.loc 9 926 9 is_stmt 0 view .LVU2544
	mov	r0, r7
.LVL682:
	.loc 9 926 9 view .LVU2545
	bl	z_impl_k_mutex_unlock
.LVL683:
	.loc 9 926 9 view .LVU2546
.LBE1219:
.LBE1218:
	.loc 1 1804 2 is_stmt 1 view .LVU2547
	.loc 1 1805 1 is_stmt 0 view .LVU2548
	mov	r0, r4
	add	sp, sp, #28
	.cfi_def_cfa_offset 20
	@ sp needed
	pop	{r4, r5, r6, r7, pc}
	.loc 1 1805 1 view .LVU2549
	.cfi_endproc
.LFE1046:
	.size	net_context_sendmsg, .-net_context_sendmsg
	.section	.text.net_context_sendto,"ax",%progbits
	.align	1
	.global	net_context_sendto
	.syntax unified
	.thumb
	.thumb_func
	.fpu fpv4-sp-d16
	.type	net_context_sendto, %function
net_context_sendto:
.LVL684:
.LFB1047:
	.loc 1 1815 1 is_stmt 1 view -0
	.cfi_startproc
	@ args = 20, pretend = 0, frame = 0
	@ frame_needed = 0, uses_anonymous_args = 0
	.loc 1 1815 1 is_stmt 0 view .LVU2551
	push	{r4, r5, r6, r7, r8, lr}
	.cfi_def_cfa_offset 24
	.cfi_offset 4, -24
	.cfi_offset 5, -20
	.cfi_offset 6, -16
	.cfi_offset 7, -12
	.cfi_offset 8, -8
	.cfi_offset 14, -4
	sub	sp, sp, #24
	.cfi_def_cfa_offset 48
	mov	r4, r0
	mov	r5, r1
	mov	r6, r2
	mov	r7, r3
	.loc 1 1816 2 is_stmt 1 view .LVU2552
	.loc 1 1818 2 view .LVU2553
	add	r8, r0, #8
.LVL685:
.LBB1220:
.LBI1220:
	.loc 9 899 19 view .LVU2554
.LBB1221:
	.loc 9 909 2 view .LVU2555
	.loc 9 909 7 view .LVU2556
	.loc 9 909 55 view .LVU2557
	.loc 9 910 2 view .LVU2558
	.loc 9 910 9 is_stmt 0 view .LVU2559
	mov	r2, #-1
.LVL686:
	.loc 9 910 9 view .LVU2560
	mov	r3, #-1
.LVL687:
	.loc 9 910 9 view .LVU2561
	mov	r0, r8
.LVL688:
	.loc 9 910 9 view .LVU2562
	bl	z_impl_k_mutex_lock
.LVL689:
	.loc 9 910 9 view .LVU2563
.LBE1221:
.LBE1220:
	.loc 1 1820 2 is_stmt 1 view .LVU2564
	.loc 1 1820 8 is_stmt 0 view .LVU2565
	movs	r3, #1
	str	r3, [sp, #20]
	ldr	r3, [sp, #64]
	str	r3, [sp, #16]
	ldrd	r2, [sp, #56]
.LVL690:
	.loc 1 1820 8 view .LVU2566
	strd	r2, [sp, #8]
	ldr	r3, [sp, #52]
	str	r3, [sp, #4]
	ldr	r3, [sp, #48]
	str	r3, [sp]
	mov	r3, r7
	mov	r2, r6
.LVL691:
	.loc 1 1820 8 view .LVU2567
	mov	r1, r5
	mov	r0, r4
	bl	context_sendto
.LVL692:
	mov	r4, r0
.LVL693:
	.loc 1 1823 2 is_stmt 1 view .LVU2568
.LBB1222:
.LBI1222:
	.loc 9 917 19 view .LVU2569
.LBB1223:
	.loc 9 925 2 view .LVU2570
	.loc 9 925 7 view .LVU2571
	.loc 9 925 55 view .LVU2572
	.loc 9 926 2 view .LVU2573
	.loc 9 926 9 is_stmt 0 view .LVU2574
	mov	r0, r8
.LVL694:
	.loc 9 926 9 view .LVU2575
	bl	z_impl_k_mutex_unlock
.LVL695:
	.loc 9 926 9 view .LVU2576
.LBE1223:
.LBE1222:
	.loc 1 1825 2 is_stmt 1 view .LVU2577
	.loc 1 1826 1 is_stmt 0 view .LVU2578
	mov	r0, r4
	add	sp, sp, #24
	.cfi_def_cfa_offset 24
	@ sp needed
	pop	{r4, r5, r6, r7, r8, pc}
	.loc 1 1826 1 view .LVU2579
	.cfi_endproc
.LFE1047:
	.size	net_context_sendto, .-net_context_sendto
	.section	.text.net_context_recv,"ax",%progbits
	.align	1
	.global	net_context_recv
	.syntax unified
	.thumb
	.thumb_func
	.fpu fpv4-sp-d16
	.type	net_context_recv, %function
net_context_recv:
.LVL696:
.LFB1052:
	.loc 1 2013 1 is_stmt 1 view -0
	.cfi_startproc
	@ args = 4, pretend = 0, frame = 0
	@ frame_needed = 0, uses_anonymous_args = 0
	.loc 1 2013 1 is_stmt 0 view .LVU2581
	push	{r4, r5, r6, r7, r8, lr}
	.cfi_def_cfa_offset 24
	.cfi_offset 4, -24
	.cfi_offset 5, -20
	.cfi_offset 6, -16
	.cfi_offset 7, -12
	.cfi_offset 8, -8
	.cfi_offset 14, -4
	sub	sp, sp, #8
	.cfi_def_cfa_offset 32
	mov	r7, r3
	.loc 1 2014 2 is_stmt 1 view .LVU2582
	.loc 1 2015 4 view .LVU2583
	.loc 1 2015 5 view .LVU2584
	.loc 1 2017 2 view .LVU2585
.LVL697:
.LBB1224:
.LBI1224:
	.loc 3 339 19 view .LVU2586
.LBB1225:
	.loc 3 341 4 view .LVU2587
	.loc 3 341 5 view .LVU2588
	.loc 3 343 2 view .LVU2589
	.loc 3 343 16 is_stmt 0 view .LVU2590
	ldrh	r3, [r0, #112]
.LVL698:
	.loc 3 343 16 view .LVU2591
.LBE1225:
.LBE1224:
	.loc 1 2017 5 view .LVU2592
	tst	r3, #1
	beq	.L345
	mov	r4, r0
	mov	r5, r1
	mov	r6, r2
.LVL699:
	.loc 1 2021 2 is_stmt 1 view .LVU2593
	add	r8, r0, #8
.LVL700:
.LBB1226:
.LBI1226:
	.loc 9 899 19 view .LVU2594
.LBB1227:
	.loc 9 909 2 view .LVU2595
	.loc 9 909 7 view .LVU2596
	.loc 9 909 55 view .LVU2597
	.loc 9 910 2 view .LVU2598
	.loc 9 910 9 is_stmt 0 view .LVU2599
	mov	r2, #-1
	mov	r3, #-1
	mov	r0, r8
.LVL701:
	.loc 9 910 9 view .LVU2600
	bl	z_impl_k_mutex_lock
.LVL702:
	.loc 9 910 9 view .LVU2601
.LBE1227:
.LBE1226:
	.loc 1 2023 2 is_stmt 1 view .LVU2602
	.loc 1 2031 2 view .LVU2603
.LBB1228:
.LBI1228:
	.loc 3 601 24 view .LVU2604
.LBB1229:
	.loc 3 603 2 view .LVU2605
	.loc 3 603 16 is_stmt 0 view .LVU2606
	ldrh	r3, [r4, #110]
.LVL703:
	.loc 3 603 16 view .LVU2607
.LBE1229:
.LBE1228:
	.loc 1 2031 5 view .LVU2608
	cmp	r3, #17
	beq	.L348
	.loc 1 2034 9 is_stmt 1 view .LVU2609
.LVL704:
	.loc 3 603 2 view .LVU2610
	.loc 1 2034 12 is_stmt 0 view .LVU2611
	cmp	r3, #6
	beq	.L349
	.loc 1 2073 8 view .LVU2612
	mvn	r5, #106
.LVL705:
	.loc 1 2078 3 is_stmt 1 view .LVU2613
.L342:
	.loc 1 2105 2 view .LVU2614
.LBB1230:
.LBI1230:
	.loc 9 917 19 view .LVU2615
.LBB1231:
	.loc 9 925 2 view .LVU2616
	.loc 9 925 7 view .LVU2617
	.loc 9 925 55 view .LVU2618
	.loc 9 926 2 view .LVU2619
	.loc 9 926 9 is_stmt 0 view .LVU2620
	mov	r0, r8
	bl	z_impl_k_mutex_unlock
.LVL706:
	.loc 9 926 9 view .LVU2621
.LBE1231:
.LBE1230:
	.loc 1 2107 2 is_stmt 1 view .LVU2622
.L337:
	.loc 1 2108 1 is_stmt 0 view .LVU2623
	mov	r0, r5
	add	sp, sp, #8
	.cfi_remember_state
	.cfi_def_cfa_offset 24
	@ sp needed
	pop	{r4, r5, r6, r7, r8, pc}
.LVL707:
.L348:
	.cfi_restore_state
	.loc 1 2033 3 is_stmt 1 view .LVU2624
	.loc 1 2033 9 is_stmt 0 view .LVU2625
	ldr	r3, [sp, #32]
	str	r3, [sp]
	.loc 1 2033 9 view .LVU2626
	mov	r2, r6
.LVL708:
	.loc 1 2033 9 view .LVU2627
	mov	r3, r7
	mov	r1, r5
	mov	r0, r4
	bl	recv_udp
.LVL709:
	mov	r5, r0
.LVL710:
	.loc 1 2033 9 view .LVU2628
	b	.L339
.LVL711:
.L349:
	.loc 1 2036 3 is_stmt 1 view .LVU2629
	.loc 1 2036 9 is_stmt 0 view .LVU2630
	ldr	r2, [sp, #32]
	mov	r1, r5
	mov	r0, r4
	bl	net_tcp_recv
.LVL712:
	mov	r5, r0
.LVL713:
.L339:
	.loc 1 2077 2 is_stmt 1 view .LVU2631
	.loc 1 2077 5 is_stmt 0 view .LVU2632
	cmp	r5, #0
	blt	.L342
	.loc 1 2082 2 is_stmt 1 view .LVU2633
.LBB1232:
	.loc 1 2082 5 is_stmt 0 view .LVU2634
	orrs	r3, r6, r7
	beq	.L342
.LBB1233:
	.loc 1 2083 3 is_stmt 1 view .LVU2635
	.loc 1 2089 3 view .LVU2636
	adds	r4, r4, #84
.LVL714:
.LBB1234:
.LBI1234:
	.loc 9 1050 20 view .LVU2637
.LBB1235:
	.loc 9 1059 2 view .LVU2638
	.loc 9 1059 7 view .LVU2639
	.loc 9 1059 55 view .LVU2640
	.loc 9 1060 2 view .LVU2641
	mov	r0, r4
.LVL715:
	.loc 9 1060 2 is_stmt 0 view .LVU2642
	bl	z_impl_k_sem_reset
.LVL716:
	.loc 9 1060 2 view .LVU2643
.LBE1235:
.LBE1234:
	.loc 1 2091 3 is_stmt 1 view .LVU2644
.LBB1236:
.LBI1236:
	.loc 9 917 19 view .LVU2645
.LBB1237:
	.loc 9 925 2 view .LVU2646
	.loc 9 925 7 view .LVU2647
	.loc 9 925 55 view .LVU2648
	.loc 9 926 2 view .LVU2649
	.loc 9 926 9 is_stmt 0 view .LVU2650
	mov	r0, r8
	bl	z_impl_k_mutex_unlock
.LVL717:
	.loc 9 926 9 view .LVU2651
.LBE1237:
.LBE1236:
	.loc 1 2093 3 is_stmt 1 view .LVU2652
.LBB1238:
.LBI1238:
	.loc 9 1015 19 view .LVU2653
.LBB1239:
	.loc 9 1025 2 view .LVU2654
	.loc 9 1025 7 view .LVU2655
	.loc 9 1025 55 view .LVU2656
	.loc 9 1026 2 view .LVU2657
	.loc 9 1026 9 is_stmt 0 view .LVU2658
	mov	r2, r6
	mov	r3, r7
	mov	r0, r4
	bl	z_impl_k_sem_take
.LVL718:
	.loc 9 1026 9 view .LVU2659
.LBE1239:
.LBE1238:
	.loc 1 2095 3 is_stmt 1 view .LVU2660
.LBB1240:
.LBI1240:
	.loc 9 899 19 view .LVU2661
.LBB1241:
	.loc 9 909 2 view .LVU2662
	.loc 9 909 7 view .LVU2663
	.loc 9 909 55 view .LVU2664
	.loc 9 910 2 view .LVU2665
	.loc 9 910 9 is_stmt 0 view .LVU2666
	mov	r2, #-1
	mov	r3, #-1
	mov	r0, r8
.LVL719:
	.loc 9 910 9 view .LVU2667
	bl	z_impl_k_mutex_lock
.LVL720:
	.loc 9 910 9 view .LVU2668
.LBE1241:
.LBE1240:
	.loc 1 2097 3 is_stmt 1 view .LVU2669
	b	.L342
.LVL721:
.L345:
	.loc 1 2097 3 is_stmt 0 view .LVU2670
.LBE1233:
.LBE1232:
	.loc 1 2018 10 view .LVU2671
	mvn	r5, #8
	b	.L337
	.cfi_endproc
.LFE1052:
	.size	net_context_recv, .-net_context_recv
	.section	.text.net_context_update_recv_wnd,"ax",%progbits
	.align	1
	.global	net_context_update_recv_wnd
	.syntax unified
	.thumb
	.thumb_func
	.fpu fpv4-sp-d16
	.type	net_context_update_recv_wnd, %function
net_context_update_recv_wnd:
.LVL722:
.LFB1053:
	.loc 1 2112 1 is_stmt 1 view -0
	.cfi_startproc
	@ args = 0, pretend = 0, frame = 0
	@ frame_needed = 0, uses_anonymous_args = 0
	.loc 1 2112 1 is_stmt 0 view .LVU2673
	push	{r4, r5, r6, lr}
	.cfi_def_cfa_offset 16
	.cfi_offset 4, -16
	.cfi_offset 5, -12
	.cfi_offset 6, -8
	.cfi_offset 14, -4
	mov	r4, r0
	mov	r5, r1
	.loc 1 2113 2 is_stmt 1 view .LVU2674
	.loc 1 2115 2 view .LVU2675
	.loc 1 2120 2 view .LVU2676
	add	r6, r0, #8
.LVL723:
.LBB1242:
.LBI1242:
	.loc 9 899 19 view .LVU2677
.LBB1243:
	.loc 9 909 2 view .LVU2678
	.loc 9 909 7 view .LVU2679
	.loc 9 909 55 view .LVU2680
	.loc 9 910 2 view .LVU2681
	.loc 9 910 9 is_stmt 0 view .LVU2682
	mov	r2, #-1
	mov	r3, #-1
	mov	r0, r6
.LVL724:
	.loc 9 910 9 view .LVU2683
	bl	z_impl_k_mutex_lock
.LVL725:
	.loc 9 910 9 view .LVU2684
.LBE1243:
.LBE1242:
	.loc 1 2122 2 is_stmt 1 view .LVU2685
	.loc 1 2122 8 is_stmt 0 view .LVU2686
	mov	r1, r5
	mov	r0, r4
	bl	net_tcp_update_recv_wnd
.LVL726:
	mov	r4, r0
.LVL727:
	.loc 1 2124 2 is_stmt 1 view .LVU2687
.LBB1244:
.LBI1244:
	.loc 9 917 19 view .LVU2688
.LBB1245:
	.loc 9 925 2 view .LVU2689
	.loc 9 925 7 view .LVU2690
	.loc 9 925 55 view .LVU2691
	.loc 9 926 2 view .LVU2692
	.loc 9 926 9 is_stmt 0 view .LVU2693
	mov	r0, r6
.LVL728:
	.loc 9 926 9 view .LVU2694
	bl	z_impl_k_mutex_unlock
.LVL729:
	.loc 9 926 9 view .LVU2695
.LBE1245:
.LBE1244:
	.loc 1 2126 2 is_stmt 1 view .LVU2696
	.loc 1 2127 1 is_stmt 0 view .LVU2697
	mov	r0, r4
	pop	{r4, r5, r6, pc}
	.loc 1 2127 1 view .LVU2698
	.cfi_endproc
.LFE1053:
	.size	net_context_update_recv_wnd, .-net_context_update_recv_wnd
	.section	.text.net_context_set_option,"ax",%progbits
	.align	1
	.global	net_context_set_option
	.syntax unified
	.thumb
	.thumb_func
	.fpu fpv4-sp-d16
	.type	net_context_set_option, %function
net_context_set_option:
.LVL730:
.LFB1059:
	.loc 1 2219 1 is_stmt 1 view -0
	.cfi_startproc
	@ args = 0, pretend = 0, frame = 0
	@ frame_needed = 0, uses_anonymous_args = 0
	.loc 1 2219 1 is_stmt 0 view .LVU2700
	push	{r4, r5, r6, r7, r8, lr}
	.cfi_def_cfa_offset 24
	.cfi_offset 4, -24
	.cfi_offset 5, -20
	.cfi_offset 6, -16
	.cfi_offset 7, -12
	.cfi_offset 8, -8
	.cfi_offset 14, -4
	.loc 1 2220 2 is_stmt 1 view .LVU2701
.LVL731:
	.loc 1 2222 4 view .LVU2702
	.loc 1 2222 5 view .LVU2703
	.loc 1 2224 2 view .LVU2704
	.loc 1 2224 5 is_stmt 0 view .LVU2705
	cmp	r0, #0
	beq	.L361
	mov	r8, r1
	mov	r7, r2
	mov	r6, r3
	mov	r4, r0
	.loc 1 2224 6 discriminator 1 view .LVU2706
	ldr	r3, .L366
.LVL732:
	.loc 1 2224 6 discriminator 1 view .LVU2707
	cmp	r0, r3
	bcc	.L362
	.loc 1 2224 48 discriminator 2 view .LVU2708
	add	r3, r3, #1160
	cmp	r0, r3
	bcs	.L363
	.loc 1 2228 2 is_stmt 1 view .LVU2709
	add	r5, r0, #8
.LVL733:
.LBB1246:
.LBI1246:
	.loc 9 899 19 view .LVU2710
.LBB1247:
	.loc 9 909 2 view .LVU2711
	.loc 9 909 7 view .LVU2712
	.loc 9 909 55 view .LVU2713
	.loc 9 910 2 view .LVU2714
	.loc 9 910 9 is_stmt 0 view .LVU2715
	mov	r2, #-1
.LVL734:
	.loc 9 910 9 view .LVU2716
	mov	r3, #-1
	mov	r0, r5
.LVL735:
	.loc 9 910 9 view .LVU2717
	bl	z_impl_k_mutex_lock
.LVL736:
	.loc 9 910 9 view .LVU2718
.LBE1247:
.LBE1246:
	.loc 1 2230 2 is_stmt 1 view .LVU2719
	add	r1, r8, #-1
	cmp	r1, #4
	bhi	.L364
	tbb	[pc, r1]
.L356:
	.byte	(.L360-.L356)/2
	.byte	(.L359-.L356)/2
	.byte	(.L358-.L356)/2
	.byte	(.L357-.L356)/2
	.byte	(.L355-.L356)/2
	.p2align 1
.L360:
	.loc 1 2232 3 view .LVU2720
	.loc 1 2232 9 is_stmt 0 view .LVU2721
	mov	r2, r6
	mov	r1, r7
	mov	r0, r4
	bl	set_context_priority
.LVL737:
	mov	r4, r0
.LVL738:
	.loc 1 2233 3 is_stmt 1 view .LVU2722
.L354:
	.loc 1 2248 2 view .LVU2723
.LBB1248:
.LBI1248:
	.loc 9 917 19 view .LVU2724
.LBB1249:
	.loc 9 925 2 view .LVU2725
	.loc 9 925 7 view .LVU2726
	.loc 9 925 55 view .LVU2727
	.loc 9 926 2 view .LVU2728
	.loc 9 926 9 is_stmt 0 view .LVU2729
	mov	r0, r5
	bl	z_impl_k_mutex_unlock
.LVL739:
	.loc 9 926 9 view .LVU2730
.LBE1249:
.LBE1248:
	.loc 1 2250 2 is_stmt 1 view .LVU2731
.L353:
	.loc 1 2251 1 is_stmt 0 view .LVU2732
	mov	r0, r4
	pop	{r4, r5, r6, r7, r8, pc}
.LVL740:
.L359:
	.loc 1 2235 3 is_stmt 1 view .LVU2733
	.loc 1 2235 9 is_stmt 0 view .LVU2734
	mov	r2, r6
	mov	r1, r7
	mov	r0, r4
	bl	set_context_txtime
.LVL741:
	mov	r4, r0
.LVL742:
	.loc 1 2236 3 is_stmt 1 view .LVU2735
	b	.L354
.LVL743:
.L358:
	.loc 1 2238 3 view .LVU2736
	.loc 1 2238 9 is_stmt 0 view .LVU2737
	mov	r2, r6
	mov	r1, r7
	mov	r0, r4
	bl	set_context_proxy
.LVL744:
	mov	r4, r0
.LVL745:
	.loc 1 2239 3 is_stmt 1 view .LVU2738
	b	.L354
.LVL746:
.L357:
	.loc 1 2241 3 view .LVU2739
	.loc 1 2241 9 is_stmt 0 view .LVU2740
	mov	r2, r6
	mov	r1, r7
	mov	r0, r4
	bl	set_context_rcvtimeo
.LVL747:
	mov	r4, r0
.LVL748:
	.loc 1 2242 3 is_stmt 1 view .LVU2741
	b	.L354
.LVL749:
.L355:
	.loc 1 2244 3 view .LVU2742
	.loc 1 2244 9 is_stmt 0 view .LVU2743
	mov	r2, r6
	mov	r1, r7
	mov	r0, r4
	bl	set_context_sndtimeo
.LVL750:
	mov	r4, r0
.LVL751:
	.loc 1 2245 3 is_stmt 1 view .LVU2744
	b	.L354
.LVL752:
.L364:
	.loc 1 2228 2 is_stmt 0 view .LVU2745
	movs	r4, #0
.LVL753:
	.loc 1 2228 2 view .LVU2746
	b	.L354
.LVL754:
.L361:
	.loc 1 2225 10 view .LVU2747
	mvn	r4, #21
	b	.L353
.LVL755:
.L362:
	.loc 1 2225 10 view .LVU2748
	mvn	r4, #21
	b	.L353
.L363:
	.loc 1 2225 10 view .LVU2749
	mvn	r4, #21
	b	.L353
.L367:
	.align	2
.L366:
	.word	.LANCHOR0
	.cfi_endproc
.LFE1059:
	.size	net_context_set_option, .-net_context_set_option
	.section	.text.net_context_get_option,"ax",%progbits
	.align	1
	.global	net_context_get_option
	.syntax unified
	.thumb
	.thumb_func
	.fpu fpv4-sp-d16
	.type	net_context_get_option, %function
net_context_get_option:
.LVL756:
.LFB1060:
	.loc 1 2256 1 is_stmt 1 view -0
	.cfi_startproc
	@ args = 0, pretend = 0, frame = 0
	@ frame_needed = 0, uses_anonymous_args = 0
	.loc 1 2256 1 is_stmt 0 view .LVU2751
	push	{r4, r5, r6, r7, r8, lr}
	.cfi_def_cfa_offset 24
	.cfi_offset 4, -24
	.cfi_offset 5, -20
	.cfi_offset 6, -16
	.cfi_offset 7, -12
	.cfi_offset 8, -8
	.cfi_offset 14, -4
	.loc 1 2257 2 is_stmt 1 view .LVU2752
.LVL757:
	.loc 1 2259 4 view .LVU2753
	.loc 1 2259 5 view .LVU2754
	.loc 1 2261 2 view .LVU2755
	.loc 1 2261 5 is_stmt 0 view .LVU2756
	cmp	r0, #0
	beq	.L377
	mov	r8, r1
	mov	r7, r2
	mov	r6, r3
	mov	r4, r0
	.loc 1 2261 6 discriminator 1 view .LVU2757
	ldr	r3, .L382
.LVL758:
	.loc 1 2261 6 discriminator 1 view .LVU2758
	cmp	r0, r3
	bcc	.L378
	.loc 1 2261 48 discriminator 2 view .LVU2759
	add	r3, r3, #1160
	cmp	r0, r3
	bcs	.L379
	.loc 1 2265 2 is_stmt 1 view .LVU2760
	add	r5, r0, #8
.LVL759:
.LBB1250:
.LBI1250:
	.loc 9 899 19 view .LVU2761
.LBB1251:
	.loc 9 909 2 view .LVU2762
	.loc 9 909 7 view .LVU2763
	.loc 9 909 55 view .LVU2764
	.loc 9 910 2 view .LVU2765
	.loc 9 910 9 is_stmt 0 view .LVU2766
	mov	r2, #-1
.LVL760:
	.loc 9 910 9 view .LVU2767
	mov	r3, #-1
	mov	r0, r5
.LVL761:
	.loc 9 910 9 view .LVU2768
	bl	z_impl_k_mutex_lock
.LVL762:
	.loc 9 910 9 view .LVU2769
.LBE1251:
.LBE1250:
	.loc 1 2267 2 is_stmt 1 view .LVU2770
	add	r1, r8, #-1
	cmp	r1, #4
	bhi	.L380
	tbb	[pc, r1]
.L372:
	.byte	(.L376-.L372)/2
	.byte	(.L375-.L372)/2
	.byte	(.L374-.L372)/2
	.byte	(.L373-.L372)/2
	.byte	(.L371-.L372)/2
	.p2align 1
.L376:
	.loc 1 2269 3 view .LVU2771
	.loc 1 2269 9 is_stmt 0 view .LVU2772
	mov	r2, r6
	mov	r1, r7
	mov	r0, r4
	bl	get_context_priority
.LVL763:
	mov	r4, r0
.LVL764:
	.loc 1 2270 3 is_stmt 1 view .LVU2773
.L370:
	.loc 1 2285 2 view .LVU2774
.LBB1252:
.LBI1252:
	.loc 9 917 19 view .LVU2775
.LBB1253:
	.loc 9 925 2 view .LVU2776
	.loc 9 925 7 view .LVU2777
	.loc 9 925 55 view .LVU2778
	.loc 9 926 2 view .LVU2779
	.loc 9 926 9 is_stmt 0 view .LVU2780
	mov	r0, r5
	bl	z_impl_k_mutex_unlock
.LVL765:
	.loc 9 926 9 view .LVU2781
.LBE1253:
.LBE1252:
	.loc 1 2287 2 is_stmt 1 view .LVU2782
.L369:
	.loc 1 2288 1 is_stmt 0 view .LVU2783
	mov	r0, r4
	pop	{r4, r5, r6, r7, r8, pc}
.LVL766:
.L375:
	.loc 1 2272 3 is_stmt 1 view .LVU2784
	.loc 1 2272 9 is_stmt 0 view .LVU2785
	mov	r2, r6
	mov	r1, r7
	mov	r0, r4
	bl	get_context_txtime
.LVL767:
	mov	r4, r0
.LVL768:
	.loc 1 2273 3 is_stmt 1 view .LVU2786
	b	.L370
.LVL769:
.L374:
	.loc 1 2275 3 view .LVU2787
	.loc 1 2275 9 is_stmt 0 view .LVU2788
	mov	r2, r6
	mov	r1, r7
	mov	r0, r4
	bl	get_context_proxy
.LVL770:
	mov	r4, r0
.LVL771:
	.loc 1 2276 3 is_stmt 1 view .LVU2789
	b	.L370
.LVL772:
.L373:
	.loc 1 2278 3 view .LVU2790
	.loc 1 2278 9 is_stmt 0 view .LVU2791
	mov	r2, r6
	mov	r1, r7
	mov	r0, r4
	bl	get_context_rcvtimeo
.LVL773:
	mov	r4, r0
.LVL774:
	.loc 1 2279 3 is_stmt 1 view .LVU2792
	b	.L370
.LVL775:
.L371:
	.loc 1 2281 3 view .LVU2793
	.loc 1 2281 9 is_stmt 0 view .LVU2794
	mov	r2, r6
	mov	r1, r7
	mov	r0, r4
	bl	get_context_sndtimeo
.LVL776:
	mov	r4, r0
.LVL777:
	.loc 1 2282 3 is_stmt 1 view .LVU2795
	b	.L370
.LVL778:
.L380:
	.loc 1 2265 2 is_stmt 0 view .LVU2796
	movs	r4, #0
.LVL779:
	.loc 1 2265 2 view .LVU2797
	b	.L370
.LVL780:
.L377:
	.loc 1 2262 10 view .LVU2798
	mvn	r4, #21
	b	.L369
.LVL781:
.L378:
	.loc 1 2262 10 view .LVU2799
	mvn	r4, #21
	b	.L369
.L379:
	.loc 1 2262 10 view .LVU2800
	mvn	r4, #21
	b	.L369
.L383:
	.align	2
.L382:
	.word	.LANCHOR0
	.cfi_endproc
.LFE1060:
	.size	net_context_get_option, .-net_context_get_option
	.section	.text.net_context_foreach,"ax",%progbits
	.align	1
	.global	net_context_foreach
	.syntax unified
	.thumb
	.thumb_func
	.fpu fpv4-sp-d16
	.type	net_context_foreach, %function
net_context_foreach:
.LVL782:
.LFB1061:
	.loc 1 2291 1 is_stmt 1 view -0
	.cfi_startproc
	@ args = 0, pretend = 0, frame = 0
	@ frame_needed = 0, uses_anonymous_args = 0
	.loc 1 2291 1 is_stmt 0 view .LVU2802
	push	{r3, r4, r5, r6, r7, r8, r9, lr}
	.cfi_def_cfa_offset 32
	.cfi_offset 3, -32
	.cfi_offset 4, -28
	.cfi_offset 5, -24
	.cfi_offset 6, -20
	.cfi_offset 7, -16
	.cfi_offset 8, -12
	.cfi_offset 9, -8
	.cfi_offset 14, -4
	mov	r8, r0
	mov	r7, r1
	.loc 1 2292 2 is_stmt 1 view .LVU2803
	.loc 1 2294 2 view .LVU2804
.LVL783:
.LBB1254:
.LBI1254:
	.loc 9 1015 19 view .LVU2805
.LBB1255:
	.loc 9 1025 2 view .LVU2806
	.loc 9 1025 7 view .LVU2807
	.loc 9 1025 55 view .LVU2808
	.loc 9 1026 2 view .LVU2809
	.loc 9 1026 9 is_stmt 0 view .LVU2810
	mov	r2, #-1
	mov	r3, #-1
	ldr	r0, .L391
.LVL784:
	.loc 9 1026 9 view .LVU2811
	bl	z_impl_k_sem_take
.LVL785:
	.loc 9 1026 9 view .LVU2812
.LBE1255:
.LBE1254:
	.loc 1 2296 2 is_stmt 1 view .LVU2813
	.loc 1 2296 9 is_stmt 0 view .LVU2814
	movs	r4, #0
	.loc 1 2296 2 view .LVU2815
	b	.L385
.LVL786:
.L387:
	.loc 1 2296 22 is_stmt 1 discriminator 2 view .LVU2816
	.loc 1 2296 23 is_stmt 0 discriminator 2 view .LVU2817
	adds	r4, r4, #1
.LVL787:
.L385:
	.loc 1 2296 14 is_stmt 1 discriminator 1 view .LVU2818
	.loc 1 2296 2 is_stmt 0 discriminator 1 view .LVU2819
	cmp	r4, #9
	bgt	.L390
.LBB1256:
	.loc 1 2297 3 is_stmt 1 view .LVU2820
.LVL788:
.LBB1257:
.LBI1257:
	.loc 3 339 19 view .LVU2821
.LBB1258:
	.loc 3 341 4 view .LVU2822
	.loc 3 341 5 view .LVU2823
	.loc 3 343 2 view .LVU2824
	.loc 3 343 16 is_stmt 0 view .LVU2825
	ldr	r2, .L391+4
	movs	r3, #116
	mla	r3, r3, r4, r2
	ldrh	r3, [r3, #112]
.LVL789:
	.loc 3 343 16 view .LVU2826
.LBE1258:
.LBE1257:
	.loc 1 2297 6 view .LVU2827
	tst	r3, #1
	beq	.L387
	.loc 1 2301 3 is_stmt 1 view .LVU2828
	mov	r9, r2
	movs	r6, #116
	mul	r6, r6, r4
	add	r5, r6, #8
	add	r5, r5, r2
.LVL790:
.LBB1259:
.LBI1259:
	.loc 9 899 19 view .LVU2829
.LBB1260:
	.loc 9 909 2 view .LVU2830
	.loc 9 909 7 view .LVU2831
	.loc 9 909 55 view .LVU2832
	.loc 9 910 2 view .LVU2833
	.loc 9 910 9 is_stmt 0 view .LVU2834
	mov	r2, #-1
	mov	r3, #-1
	mov	r0, r5
	bl	z_impl_k_mutex_lock
.LVL791:
	.loc 9 910 9 view .LVU2835
.LBE1260:
.LBE1259:
	.loc 1 2303 3 is_stmt 1 view .LVU2836
	mov	r1, r7
	add	r0, r9, r6
	blx	r8
.LVL792:
	.loc 1 2305 3 view .LVU2837
.LBB1261:
.LBI1261:
	.loc 9 917 19 view .LVU2838
.LBB1262:
	.loc 9 925 2 view .LVU2839
	.loc 9 925 7 view .LVU2840
	.loc 9 925 55 view .LVU2841
	.loc 9 926 2 view .LVU2842
	.loc 9 926 9 is_stmt 0 view .LVU2843
	mov	r0, r5
	bl	z_impl_k_mutex_unlock
.LVL793:
	.loc 9 926 9 view .LVU2844
.LBE1262:
.LBE1261:
	b	.L387
.L390:
	.loc 9 926 9 view .LVU2845
.LBE1256:
	.loc 1 2308 2 is_stmt 1 view .LVU2846
.LVL794:
.LBB1263:
.LBI1263:
	.loc 9 1033 20 view .LVU2847
.LBB1264:
	.loc 9 1042 2 view .LVU2848
	.loc 9 1042 7 view .LVU2849
	.loc 9 1042 55 view .LVU2850
	.loc 9 1043 2 view .LVU2851
	ldr	r0, .L391
	bl	z_impl_k_sem_give
.LVL795:
	.loc 9 1043 2 is_stmt 0 view .LVU2852
.LBE1264:
.LBE1263:
	.loc 1 2309 1 view .LVU2853
	pop	{r3, r4, r5, r6, r7, r8, r9, pc}
.LVL796:
.L392:
	.loc 1 2309 1 view .LVU2854
	.align	2
.L391:
	.word	.LANCHOR1
	.word	.LANCHOR0
	.cfi_endproc
.LFE1061:
	.size	net_context_foreach, .-net_context_foreach
	.section	.rodata.net_context_state.str1.4,"aMS",%progbits,1
	.align	2
.LC2:
	.ascii	"CONNECTING\000"
	.align	2
.LC3:
	.ascii	"CONNECTED\000"
	.align	2
.LC4:
	.ascii	"LISTENING\000"
	.align	2
.LC5:
	.ascii	"IDLE\000"
	.section	.text.net_context_state,"ax",%progbits
	.align	1
	.global	net_context_state
	.syntax unified
	.thumb
	.thumb_func
	.fpu fpv4-sp-d16
	.type	net_context_state, %function
net_context_state:
.LVL797:
.LFB1062:
	.loc 1 2312 1 is_stmt 1 view -0
	.cfi_startproc
	@ args = 0, pretend = 0, frame = 0
	@ frame_needed = 0, uses_anonymous_args = 0
	@ link register save eliminated.
	.loc 1 2313 2 view .LVU2856
.LBB1265:
.LBI1265:
	.loc 3 430 24 view .LVU2857
.LBB1266:
	.loc 3 432 4 view .LVU2858
	.loc 3 432 5 view .LVU2859
	.loc 3 434 2 view .LVU2860
	.loc 3 435 12 is_stmt 0 view .LVU2861
	ldrh	r3, [r0, #112]
	.loc 3 434 9 view .LVU2862
	ubfx	r3, r3, #1, #2
.LVL798:
	.loc 3 434 9 view .LVU2863
	cmp	r3, #3
	bhi	.L394
	tbb	[pc, r3]
.L396:
	.byte	(.L399-.L396)/2
	.byte	(.L400-.L396)/2
	.byte	(.L397-.L396)/2
	.byte	(.L395-.L396)/2
	.p2align 1
.L399:
	ldr	r0, .L401
.LVL799:
	.loc 3 434 9 view .LVU2864
	bx	lr
.LVL800:
.L397:
	.loc 3 434 9 view .LVU2865
.LBE1266:
.LBE1265:
	.loc 1 2319 3 is_stmt 1 view .LVU2866
	.loc 1 2319 10 is_stmt 0 view .LVU2867
	ldr	r0, .L401+4
.LVL801:
	.loc 1 2319 10 view .LVU2868
	bx	lr
.LVL802:
.L395:
	.loc 1 2321 3 is_stmt 1 view .LVU2869
	.loc 1 2321 10 is_stmt 0 view .LVU2870
	ldr	r0, .L401+8
.LVL803:
	.loc 1 2321 10 view .LVU2871
	bx	lr
.LVL804:
.L394:
	.loc 1 2324 2 is_stmt 1 view .LVU2872
	.loc 1 2324 8 is_stmt 0 view .LVU2873
	movs	r0, #0
.LVL805:
	.loc 1 2324 8 view .LVU2874
	bx	lr
.LVL806:
.L400:
	.loc 1 2317 10 view .LVU2875
	ldr	r0, .L401+12
.LVL807:
	.loc 1 2325 1 view .LVU2876
	bx	lr
.L402:
	.align	2
.L401:
	.word	.LC5
	.word	.LC3
	.word	.LC4
	.word	.LC2
	.cfi_endproc
.LFE1062:
	.size	net_context_state, .-net_context_state
	.section	.text.net_context_init,"ax",%progbits
	.align	1
	.global	net_context_init
	.syntax unified
	.thumb
	.thumb_func
	.fpu fpv4-sp-d16
	.type	net_context_init, %function
net_context_init:
.LFB1063:
	.loc 1 2328 1 is_stmt 1 view -0
	.cfi_startproc
	@ args = 0, pretend = 0, frame = 0
	@ frame_needed = 0, uses_anonymous_args = 0
	push	{r3, lr}
	.cfi_def_cfa_offset 8
	.cfi_offset 3, -8
	.cfi_offset 14, -4
	.loc 1 2329 2 view .LVU2878
.LVL808:
.LBB1267:
.LBI1267:
	.loc 9 999 19 view .LVU2879
.LBB1268:
	.loc 9 1007 2 view .LVU2880
	.loc 9 1007 7 view .LVU2881
	.loc 9 1007 55 view .LVU2882
	.loc 9 1008 2 view .LVU2883
	.loc 9 1008 9 is_stmt 0 view .LVU2884
	mov	r2, #-1
	movs	r1, #1
	ldr	r0, .L405
	bl	z_impl_k_sem_init
.LVL809:
	.loc 9 1008 9 view .LVU2885
.LBE1268:
.LBE1267:
	.loc 1 2330 1 view .LVU2886
	pop	{r3, pc}
.L406:
	.align	2
.L405:
	.word	.LANCHOR1
	.cfi_endproc
.LFE1063:
	.size	net_context_init, .-net_context_init
	.global	log_const_net_ctx
	.section	.rodata.str1.4,"aMS",%progbits,1
	.align	2
.LC6:
	.ascii	"net_ctx\000"
	.section	.bss.contexts,"aw",%nobits
	.align	2
	.set	.LANCHOR0,. + 0
	.type	contexts, %object
	.size	contexts, 1160
contexts:
	.space	1160
	.section	.bss.contexts_lock,"aw",%nobits
	.align	2
	.set	.LANCHOR1,. + 0
	.type	contexts_lock, %object
	.size	contexts_lock, 24
contexts_lock:
	.space	24
	.section	.log_const_net_ctx,"a"
	.align	2
	.set	.LANCHOR2,. + 0
	.type	log_const_net_ctx, %object
	.size	log_const_net_ctx, 8
log_const_net_ctx:
	.word	.LC6
	.byte	3
	.space	3
	.text
.Letext0:
	.file 18 "/home/sebin/LIOT/gcc-arm-none-eabi-9-2019-q4-major/lib/gcc/arm-none-eabi/9.2.1/include/stddef.h"
	.file 19 "/home/sebin/LIOT/gcc-arm-none-eabi-9-2019-q4-major/arm-none-eabi/include/machine/_default_types.h"
	.file 20 "/home/sebin/LIOT/gcc-arm-none-eabi-9-2019-q4-major/arm-none-eabi/include/sys/_stdint.h"
	.file 21 "/home/sebin/thesis/zephyrproject/zephyr/include/logging/log_instance.h"
	.file 22 "/home/sebin/LIOT/gcc-arm-none-eabi-9-2019-q4-major/arm-none-eabi/include/sys/lock.h"
	.file 23 "/home/sebin/LIOT/gcc-arm-none-eabi-9-2019-q4-major/arm-none-eabi/include/sys/_types.h"
	.file 24 "/home/sebin/LIOT/gcc-arm-none-eabi-9-2019-q4-major/arm-none-eabi/include/sys/reent.h"
	.file 25 "/home/sebin/LIOT/gcc-arm-none-eabi-9-2019-q4-major/lib/gcc/arm-none-eabi/9.2.1/include/stdarg.h"
	.file 26 "/home/sebin/LIOT/gcc-arm-none-eabi-9-2019-q4-major/arm-none-eabi/include/sys/errno.h"
	.file 27 "/home/sebin/thesis/zephyrproject/zephyr/include/sys/cbprintf_internal.h"
	.file 28 "/home/sebin/thesis/zephyrproject/zephyr/include/logging/log_msg.h"
	.file 29 "/home/sebin/thesis/zephyrproject/zephyr/include/logging/log_core.h"
	.file 30 "/home/sebin/thesis/zephyrproject/zephyr/include/sys/dlist.h"
	.file 31 "/home/sebin/thesis/zephyrproject/zephyr/include/sys/rb.h"
	.file 32 "/home/sebin/thesis/zephyrproject/zephyr/include/sys/slist.h"
	.file 33 "/home/sebin/thesis/zephyrproject/zephyr/include/sys/sys_heap.h"
	.file 34 "/home/sebin/thesis/zephyrproject/zephyr/include/kernel_structs.h"
	.file 35 "/home/sebin/thesis/zephyrproject/zephyr/include/kernel/thread.h"
	.file 36 "/home/sebin/thesis/zephyrproject/zephyr/include/kernel.h"
	.file 37 "/home/sebin/thesis/zephyrproject/zephyr/include/arch/arm/aarch32/thread.h"
	.file 38 "/home/sebin/thesis/zephyrproject/zephyr/include/arch/arm/aarch32/exc.h"
	.file 39 "/home/sebin/thesis/zephyrproject/zephyr/include/sw_isr_table.h"
	.file 40 "/home/sebin/thesis/zephyrproject/modules/hal/infineon/XMCLib/devices/XMC4500/Include/system_XMC4500.h"
	.file 41 "/home/sebin/thesis/zephyrproject/modules/hal/cmsis/CMSIS/Core/Include/core_cm4.h"
	.file 42 "/home/sebin/thesis/zephyrproject/zephyr/include/arch/arm/aarch32/mpu/arm_mpu_v7m.h"
	.file 43 "/home/sebin/thesis/zephyrproject/zephyr/include/arch/arm/aarch32/mpu/arm_mpu.h"
	.file 44 "/home/sebin/thesis/zephyrproject/zephyr/include/sys_clock.h"
	.file 45 "/home/sebin/thesis/zephyrproject/zephyr/include/spinlock.h"
	.file 46 "/home/sebin/thesis/zephyrproject/zephyr/include/net/buf.h"
	.file 47 "/home/sebin/thesis/zephyrproject/zephyr/include/net/net_timeout.h"
	.file 48 "/home/sebin/thesis/zephyrproject/zephyr/include/net/net_core.h"
	.file 49 "/home/sebin/thesis/zephyrproject/zephyr/include/net/net_linkaddr.h"
	.file 50 "/home/sebin/thesis/zephyrproject/zephyr/include/device.h"
	.file 51 "/home/sebin/thesis/dmz/zephyr_xmc_template/build/zephyr/include/generated/device_extern.h"
	.file 52 "/home/sebin/thesis/zephyrproject/zephyr/include/net/net_l2.h"
	.file 53 "/home/sebin/thesis/zephyrproject/zephyr/include/net/net_stats.h"
	.file 54 "/home/sebin/thesis/zephyrproject/zephyr/include/net/ptp_time.h"
	.file 55 "/home/sebin/thesis/zephyrproject/zephyr/include/net/socket_can.h"
	.file 56 "/home/sebin/thesis/zephyrproject/zephyr/subsys/net/ip/connection.h"
	.file 57 "/home/sebin/thesis/zephyrproject/zephyr/subsys/net/ip/tcp.h"
	.file 58 "/home/sebin/thesis/zephyrproject/zephyr/subsys/net/ip/tcp_internal.h"
	.file 59 "/home/sebin/thesis/zephyrproject/zephyr/subsys/net/ip/ipv6.h"
	.file 60 "/home/sebin/thesis/zephyrproject/zephyr/subsys/net/ip/ipv4.h"
	.file 61 "/home/sebin/thesis/zephyrproject/zephyr/subsys/net/ip/udp_internal.h"
	.file 62 "/home/sebin/thesis/zephyrproject/zephyr/subsys/net/ip/net_private.h"
	.file 63 "/home/sebin/LIOT/gcc-arm-none-eabi-9-2019-q4-major/arm-none-eabi/include/string.h"
	.file 64 "<built-in>"
	.file 65 "/home/sebin/thesis/zephyrproject/zephyr/include/arch/structs.h"