	.cpu cortex-m4
	.eabi_attribute 27, 1
	.eabi_attribute 28, 1
	.eabi_attribute 20, 1
	.eabi_attribute 21, 1
	.eabi_attribute 23, 3
	.eabi_attribute 24, 1
	.eabi_attribute 25, 1
	.eabi_attribute 26, 1
	.eabi_attribute 30, 1
	.eabi_attribute 34, 1
	.eabi_attribute 38, 1
	.eabi_attribute 18, 4
	.file	"net_if.c"
	.text
.Ltext0:
	.cfi_sections	.debug_frame
	.section	.text.l2_flags_get,"ax",%progbits
	.align	1
	.arch armv7e-m
	.syntax unified
	.thumb
	.thumb_func
	.fpu fpv4-sp-d16
	.type	l2_flags_get, %function
l2_flags_get:
.LVL0:
.LFB969:
	.file 1 "/home/sebin/thesis/zephyrproject/zephyr/subsys/net/ip/net_if.c"
	.loc 1 608 1 view -0
	.cfi_startproc
	@ args = 0, pretend = 0, frame = 0
	@ frame_needed = 0, uses_anonymous_args = 0
	.loc 1 609 2 view .LVU1
	.loc 1 611 2 view .LVU2
.LBB2357:
.LBI2357:
	.file 2 "/home/sebin/thesis/zephyrproject/zephyr/include/net/net_if.h"
	.loc 2 568 43 view .LVU3
.LBB2358:
	.loc 2 570 2 view .LVU4
	.loc 2 570 5 is_stmt 0 view .LVU5
	cbz	r0, .L3
.LBE2358:
.LBE2357:
	.loc 1 608 1 view .LVU6
	push	{r3, lr}
	.cfi_def_cfa_offset 8
	.cfi_offset 3, -8
	.cfi_offset 14, -4
.LBB2360:
.LBB2359:
	.loc 2 570 22 view .LVU7
	ldr	r3, [r0]
	.loc 2 570 13 view .LVU8
	cbz	r3, .L4
	.loc 2 574 2 is_stmt 1 view .LVU9
	.loc 2 574 22 is_stmt 0 view .LVU10
	ldr	r3, [r3, #4]
.LVL1:
	.loc 2 574 22 view .LVU11
.LBE2359:
.LBE2360:
	.loc 1 611 5 view .LVU12
	cbz	r3, .L5
.LVL2:
	.loc 2 570 2 is_stmt 1 view .LVU13
	.loc 2 574 2 view .LVU14
	.loc 1 611 42 is_stmt 0 view .LVU15
	ldr	r3, [r3, #12]
	.loc 1 611 23 view .LVU16
	cbz	r3, .L6
	.loc 1 612 3 is_stmt 1 view .LVU17
	.loc 2 570 2 view .LVU18
	.loc 2 574 2 view .LVU19
	.loc 1 612 11 is_stmt 0 view .LVU20
	blx	r3
.LVL3:
.L2:
	.loc 1 615 2 is_stmt 1 view .LVU21
	.loc 1 616 1 is_stmt 0 view .LVU22
	pop	{r3, pc}
.LVL4:
.L3:
	.cfi_def_cfa_offset 0
	.cfi_restore 3
	.cfi_restore 14
	.loc 1 609 20 view .LVU23
	movs	r0, #0
.LVL5:
	.loc 1 615 2 is_stmt 1 view .LVU24
	.loc 1 616 1 is_stmt 0 view .LVU25
	bx	lr
.LVL6:
.L4:
	.cfi_def_cfa_offset 8
	.cfi_offset 3, -8
	.cfi_offset 14, -4
	.loc 1 609 20 view .LVU26
	movs	r0, #0
.LVL7:
	.loc 1 609 20 view .LVU27
	b	.L2
.LVL8:
.L5:
	.loc 1 609 20 view .LVU28
	movs	r0, #0
.LVL9:
	.loc 1 609 20 view .LVU29
	b	.L2
.LVL10:
.L6:
	.loc 1 609 20 view .LVU30
	movs	r0, #0
.LVL11:
	.loc 1 609 20 view .LVU31
	b	.L2
	.cfi_endproc
.LFE969:
	.size	l2_flags_get, .-l2_flags_get
	.section	.text.get_ipaddr_diff,"ax",%progbits
	.align	1
	.syntax unified
	.thumb
	.thumb_func
	.fpu fpv4-sp-d16
	.type	get_ipaddr_diff, %function
get_ipaddr_diff:
.LVL12:
.LFB970:
	.loc 1 621 1 is_stmt 1 view -0
	.cfi_startproc
	@ args = 0, pretend = 0, frame = 0
	@ frame_needed = 0, uses_anonymous_args = 0
	@ link register save eliminated.
	.loc 1 621 1 is_stmt 0 view .LVU33
	push	{r4, r5, r6}
	.cfi_def_cfa_offset 12
	.cfi_offset 4, -12
	.cfi_offset 5, -8
	.cfi_offset 6, -4
	mov	r6, r0
	.loc 1 622 2 is_stmt 1 view .LVU34
	.loc 1 623 2 view .LVU35
.LVL13:
	.loc 1 625 2 view .LVU36
	.loc 1 623 10 is_stmt 0 view .LVU37
	movs	r0, #0
.LVL14:
	.loc 1 625 9 view .LVU38
	mov	r3, r0
.LVL15:
.L12:
	.loc 1 625 15 is_stmt 1 discriminator 1 view .LVU39
	.loc 1 625 2 is_stmt 0 discriminator 1 view .LVU40
	cmp	r3, r2
	bge	.L15
	.loc 1 626 3 is_stmt 1 view .LVU41
	.loc 1 626 10 is_stmt 0 view .LVU42
	ldrb	r4, [r6, r3]	@ zero_extendqisi2
	.loc 1 626 20 view .LVU43
	ldrb	r5, [r1, r3]	@ zero_extendqisi2
	.loc 1 626 6 view .LVU44
	cmp	r4, r5
	bne	.L13
	.loc 1 627 4 is_stmt 1 view .LVU45
	.loc 1 627 8 is_stmt 0 view .LVU46
	adds	r0, r0, #8
.LVL16:
	.loc 1 627 8 view .LVU47
	uxtb	r0, r0
.LVL17:
	.loc 1 625 29 is_stmt 1 view .LVU48
	.loc 1 625 30 is_stmt 0 view .LVU49
	adds	r3, r3, #1
.LVL18:
	.loc 1 625 30 view .LVU50
	uxtb	r3, r3
.LVL19:
	.loc 1 625 30 view .LVU51
	b	.L12
.L13:
	.loc 1 629 4 is_stmt 1 view .LVU52
	.loc 1 629 8 is_stmt 0 view .LVU53
	eors	r4, r4, r5
.LVL20:
	.loc 1 630 4 is_stmt 1 view .LVU54
	.loc 1 630 11 is_stmt 0 view .LVU55
	movs	r3, #0
.LVL21:
.L14:
	.loc 1 630 17 is_stmt 1 discriminator 1 view .LVU56
	.loc 1 630 4 is_stmt 0 discriminator 1 view .LVU57
	cmp	r3, #7
	bhi	.L15
	.loc 1 631 5 is_stmt 1 view .LVU58
	.loc 1 631 8 is_stmt 0 view .LVU59
	tst	r4, #128
	bne	.L15
	.loc 1 632 6 is_stmt 1 discriminator 2 view .LVU60
	.loc 1 632 9 is_stmt 0 discriminator 2 view .LVU61
	adds	r0, r0, #1
.LVL22:
	.loc 1 632 9 discriminator 2 view .LVU62
	uxtb	r0, r0
.LVL23:
	.loc 1 633 6 is_stmt 1 discriminator 2 view .LVU63
	.loc 1 633 10 is_stmt 0 discriminator 2 view .LVU64
	lsls	r4, r4, #1
.LVL24:
	.loc 1 633 10 discriminator 2 view .LVU65
	uxtb	r4, r4
.LVL25:
	.loc 1 630 24 is_stmt 1 discriminator 2 view .LVU66
	.loc 1 630 25 is_stmt 0 discriminator 2 view .LVU67
	adds	r3, r3, #1
.LVL26:
	.loc 1 630 25 discriminator 2 view .LVU68
	uxtb	r3, r3
.LVL27:
	.loc 1 630 25 discriminator 2 view .LVU69
	b	.L14
.LVL28:
.L15:
	.loc 1 642 2 is_stmt 1 view .LVU70
	.loc 1 643 1 is_stmt 0 view .LVU71
	pop	{r4, r5, r6}
	.cfi_restore 6
	.cfi_restore 5
	.cfi_restore 4
	.cfi_def_cfa_offset 0
.LVL29:
	.loc 1 643 1 view .LVU72
	bx	lr
	.cfi_endproc
.LFE970:
	.size	get_ipaddr_diff, .-get_ipaddr_diff
	.section	.text.net_if_ipv6_prefix_init,"ax",%progbits
	.align	1
	.syntax unified
	.thumb
	.thumb_func
	.fpu fpv4-sp-d16
	.type	net_if_ipv6_prefix_init, %function
net_if_ipv6_prefix_init:
.LVL30:
.LFB1023:
	.loc 1 2184 1 is_stmt 1 view -0
	.cfi_startproc
	@ args = 4, pretend = 0, frame = 16
	@ frame_needed = 0, uses_anonymous_args = 0
	@ link register save eliminated.
	.loc 1 2184 1 is_stmt 0 view .LVU74
	push	{r4, r5, r6}
	.cfi_def_cfa_offset 12
	.cfi_offset 4, -12
	.cfi_offset 5, -8
	.cfi_offset 6, -4
	sub	sp, sp, #20
	.cfi_def_cfa_offset 32
	mov	r4, r1
	mov	r6, r2
	.loc 1 2185 2 is_stmt 1 view .LVU75
	.loc 1 2185 20 is_stmt 0 view .LVU76
	ldrb	r2, [r1, #37]	@ zero_extendqisi2
.LVL31:
	.loc 1 2185 20 view .LVU77
	orr	r2, r2, #2
	strb	r2, [r1, #37]
	.loc 1 2186 2 is_stmt 1 view .LVU78
	.loc 1 2186 16 is_stmt 0 view .LVU79
	strb	r3, [r1, #36]
	.loc 1 2187 2 is_stmt 1 view .LVU80
	.loc 1 2187 18 is_stmt 0 view .LVU81
	str	r0, [r1, #32]
	.loc 1 2188 2 is_stmt 1 view .LVU82
.LBB2361:
	.loc 1 2188 7 view .LVU83
.LVL32:
	.loc 1 2188 128 view .LVU84
.LBB2362:
	.loc 1 2188 157 view .LVU85
	.loc 1 2188 254 view .LVU86
	.loc 1 2188 257 is_stmt 0 view .LVU87
	mov	r5, sp
	ldr	r0, [r6]	@ unaligned
.LVL33:
	.loc 1 2188 257 view .LVU88
	ldr	r1, [r6, #4]	@ unaligned
.LVL34:
	.loc 1 2188 257 view .LVU89
	ldr	r2, [r6, #8]	@ unaligned
	ldr	r3, [r6, #12]	@ unaligned
.LVL35:
	.loc 1 2188 257 view .LVU90
	stmia	r5!, {r0, r1, r2, r3}
.LBE2362:
	.loc 1 2188 137 view .LVU91
	mov	r5, sp
	ldmia	r5!, {r0, r1, r2, r3}
	str	r0, [r4, #16]	@ unaligned
	str	r1, [r4, #20]	@ unaligned
	str	r2, [r4, #24]	@ unaligned
	str	r3, [r4, #28]	@ unaligned
	.loc 1 2188 269 is_stmt 1 view .LVU92
	.loc 1 2188 274 view .LVU93
	.loc 1 2188 322 view .LVU94
.LBE2361:
	.loc 1 2188 12 view .LVU95
	.loc 1 2190 2 view .LVU96
	.loc 1 2190 5 is_stmt 0 view .LVU97
	ldr	r3, [sp, #32]
	cmp	r3, #-1
	beq	.L23
	.loc 1 2193 3 is_stmt 1 view .LVU98
	.loc 1 2193 25 is_stmt 0 view .LVU99
	ldrb	r3, [r4, #37]	@ zero_extendqisi2
	bfc	r3, #0, #1
	strb	r3, [r4, #37]
.L19:
	.loc 1 2195 1 view .LVU100
	add	sp, sp, #20
	.cfi_remember_state
	.cfi_def_cfa_offset 12
	@ sp needed
	pop	{r4, r5, r6}
	.cfi_restore 6
	.cfi_restore 5
	.cfi_restore 4
	.cfi_def_cfa_offset 0
.LVL36:
	.loc 1 2195 1 view .LVU101
	bx	lr
.LVL37:
.L23:
	.cfi_restore_state
	.loc 1 2191 3 is_stmt 1 view .LVU102
	.loc 1 2191 25 is_stmt 0 view .LVU103
	ldrb	r3, [r4, #37]	@ zero_extendqisi2
	orr	r3, r3, #1
	strb	r3, [r4, #37]
	b	.L19
	.cfi_endproc
.LFE1023:
	.size	net_if_ipv6_prefix_init, .-net_if_ipv6_prefix_init
	.section	.text.get_diff_ipv6,"ax",%progbits
	.align	1
	.syntax unified
	.thumb
	.thumb_func
	.fpu fpv4-sp-d16
	.type	get_diff_ipv6, %function
get_diff_ipv6:
.LVL38:
.LFB1042:
	.loc 1 2616 1 is_stmt 1 view -0
	.cfi_startproc
	@ args = 0, pretend = 0, frame = 0
	@ frame_needed = 0, uses_anonymous_args = 0
	.loc 1 2616 1 is_stmt 0 view .LVU105
	push	{r3, lr}
	.cfi_def_cfa_offset 8
	.cfi_offset 3, -8
	.cfi_offset 14, -4
	.loc 1 2617 2 is_stmt 1 view .LVU106
	.loc 1 2617 9 is_stmt 0 view .LVU107
	movs	r2, #16
	bl	get_ipaddr_diff
.LVL39:
	.loc 1 2618 1 view .LVU108
	pop	{r3, pc}
	.cfi_endproc
.LFE1042:
	.size	get_diff_ipv6, .-get_diff_ipv6
	.section	.text.net_if_ipv6_get_best_match,"ax",%progbits
	.align	1
	.syntax unified
	.thumb
	.thumb_func
	.fpu fpv4-sp-d16
	.type	net_if_ipv6_get_best_match, %function
net_if_ipv6_get_best_match:
.LVL40:
.LFB1044:
	.loc 1 2634 1 is_stmt 1 view -0
	.cfi_startproc
	@ args = 0, pretend = 0, frame = 0
	@ frame_needed = 0, uses_anonymous_args = 0
	.loc 1 2634 1 is_stmt 0 view .LVU110
	push	{r3, r4, r5, r6, r7, r8, r9, lr}
	.cfi_def_cfa_offset 32
	.cfi_offset 3, -32
	.cfi_offset 4, -28
	.cfi_offset 5, -24
	.cfi_offset 6, -20
	.cfi_offset 7, -16
	.cfi_offset 8, -12
	.cfi_offset 9, -8
	.cfi_offset 14, -4
	.loc 1 2635 2 is_stmt 1 view .LVU111
	.loc 1 2635 22 is_stmt 0 view .LVU112
	ldr	r5, [r0, #528]
.LVL41:
	.loc 1 2636 2 is_stmt 1 view .LVU113
	.loc 1 2637 2 view .LVU114
	.loc 1 2638 2 view .LVU115
	.loc 1 2640 2 view .LVU116
	.loc 1 2640 5 is_stmt 0 view .LVU117
	cmp	r5, #0
	beq	.L33
	mov	r7, r1
	mov	r6, r2
	.loc 1 2644 9 view .LVU118
	movs	r4, #0
	.loc 1 2636 19 view .LVU119
	mov	r8, r4
	b	.L28
.LVL42:
.L37:
.LBB2363:
.LBB2364:
.LBB2365:
	.file 3 "/home/sebin/thesis/zephyrproject/zephyr/include/net/net_ip.h"
	.loc 3 989 53 view .LVU120
	ldrb	r3, [r7, #1]	@ zero_extendqisi2
	.loc 3 989 36 view .LVU121
	cmp	r3, #3
	beq	.L35
	movs	r3, #0
.L31:
.LVL43:
	.loc 3 989 36 view .LVU122
.LBE2365:
.LBE2364:
.LBE2363:
	.loc 1 2654 51 view .LVU123
	cbz	r3, .L29
.L30:
	.loc 1 2659 4 is_stmt 1 view .LVU124
	.loc 1 2659 17 is_stmt 0 view .LVU125
	strb	r0, [r6]
	.loc 1 2660 4 is_stmt 1 view .LVU126
.LVL44:
	.loc 1 2660 8 is_stmt 0 view .LVU127
	mov	r8, r9
.LVL45:
.L29:
	.loc 1 2644 21 is_stmt 1 discriminator 2 view .LVU128
	.loc 1 2644 22 is_stmt 0 discriminator 2 view .LVU129
	adds	r4, r4, #1
.LVL46:
.L28:
	.loc 1 2644 14 is_stmt 1 discriminator 1 view .LVU130
	.loc 1 2644 2 is_stmt 0 discriminator 1 view .LVU131
	cmp	r4, #1
	bgt	.L26
	.loc 1 2645 3 is_stmt 1 view .LVU132
	.loc 1 2645 8 is_stmt 0 view .LVU133
	add	r0, r4, r4, lsl #1
	add	r0, r5, r0, lsl #4
.LVL47:
.LBB2368:
.LBI2368:
	.loc 1 2620 19 is_stmt 1 view .LVU134
.LBB2369:
	.loc 1 2622 2 view .LVU135
	.loc 1 2622 20 is_stmt 0 view .LVU136
	ldr	r3, [r0, #44]
	bic	r3, r3, #-50331648
	and	r3, r3, #-16711936
	.loc 1 2622 5 view .LVU137
	ldr	r2, .L38
	cmp	r3, r2
	bne	.L29
	.loc 1 2623 19 view .LVU138
	add	r3, r4, r4, lsl #1
	lsls	r3, r3, #4
	ldrh	r3, [r5, r3]
	.loc 1 2622 62 view .LVU139
	cmp	r3, #2
	bne	.L29
.LVL48:
.LBB2370:
.LBI2370:
	.loc 3 831 19 is_stmt 1 view .LVU140
.LBE2370:
.LBE2369:
.LBE2368:
	.loc 3 833 2 view .LVU141
.LBB2374:
.LBB2373:
.LBB2372:
.LBB2371:
	.loc 3 833 26 view .LVU142
	.loc 3 833 153 view .LVU143
	.loc 3 833 156 is_stmt 0 view .LVU144
	ldrh	r2, [r0, #4]	@ unaligned
.LVL49:
	.loc 3 833 156 view .LVU145
.LBE2371:
.LBE2372:
	.loc 1 2623 32 view .LVU146
	movw	r3, #33022
	cmp	r2, r3
	beq	.L29
	.loc 1 2625 3 is_stmt 1 view .LVU147
.LVL50:
	.loc 1 2625 3 is_stmt 0 view .LVU148
.LBE2373:
.LBE2374:
	.loc 1 2649 3 is_stmt 1 view .LVU149
	.loc 1 2649 28 is_stmt 0 view .LVU150
	add	r9, r0, #4
.LVL51:
	.loc 1 2649 9 view .LVU151
	mov	r1, r9
	mov	r0, r7
	bl	get_diff_ipv6
.LVL52:
	.loc 1 2650 3 is_stmt 1 view .LVU152
	.loc 1 2650 14 is_stmt 0 view .LVU153
	ldrb	r3, [r6]	@ zero_extendqisi2
	.loc 1 2650 6 view .LVU154
	cmp	r3, r0
	bhi	.L29
	.loc 1 2654 4 is_stmt 1 view .LVU155
	.loc 1 2654 24 is_stmt 0 view .LVU156
	add	r3, r4, r4, lsl #1
	add	r3, r5, r3, lsl #4
	ldrb	r3, [r3, #47]	@ zero_extendqisi2
	.loc 1 2654 7 view .LVU157
	tst	r3, #4
	beq	.L30
	.loc 1 2654 39 discriminator 1 view .LVU158
	cmp	r0, #63
	bhi	.L30
.LVL53:
.LBB2375:
.LBI2363:
	.loc 3 1057 19 is_stmt 1 view .LVU159
.LBE2375:
	.loc 3 1059 2 view .LVU160
.LBB2376:
.LBB2367:
.LBI2364:
	.loc 3 986 19 view .LVU161
.LBB2366:
	.loc 3 989 2 view .LVU162
	.loc 3 989 23 is_stmt 0 view .LVU163
	ldrb	r3, [r7]	@ zero_extendqisi2
	.loc 3 989 36 view .LVU164
	cmp	r3, #255
	beq	.L37
	movs	r3, #0
	b	.L31
.L35:
	.loc 3 989 36 view .LVU165
	movs	r3, #1
	b	.L31
.LVL54:
.L33:
	.loc 3 989 36 view .LVU166
.LBE2366:
.LBE2367:
.LBE2376:
	.loc 1 2641 9 view .LVU167
	mov	r8, r5
.LVL55:
.L26:
	.loc 1 2665 1 view .LVU168
	mov	r0, r8
	pop	{r3, r4, r5, r6, r7, r8, r9, pc}
.LVL56:
.L39:
	.loc 1 2665 1 view .LVU169
	.align	2
.L38:
	.word	33554688
	.cfi_endproc
.LFE1044:
	.size	net_if_ipv6_get_best_match, .-net_if_ipv6_get_best_match
	.section	.text.get_diff_ipv4,"ax",%progbits
	.align	1
	.syntax unified
	.thumb
	.thumb_func
	.fpu fpv4-sp-d16
	.type	get_diff_ipv4, %function
get_diff_ipv4:
.LVL57:
.LFB1062:
	.loc 1 3092 1 is_stmt 1 view -0
	.cfi_startproc
	@ args = 0, pretend = 0, frame = 0
	@ frame_needed = 0, uses_anonymous_args = 0
	.loc 1 3092 1 is_stmt 0 view .LVU171
	push	{r3, lr}
	.cfi_def_cfa_offset 8
	.cfi_offset 3, -8
	.cfi_offset 14, -4
	.loc 1 3093 2 is_stmt 1 view .LVU172
	.loc 1 3093 9 is_stmt 0 view .LVU173
	movs	r2, #4
	bl	get_ipaddr_diff
.LVL58:
	.loc 1 3094 1 view .LVU174
	pop	{r3, pc}
	.cfi_endproc
.LFE1062:
	.size	get_diff_ipv4, .-get_diff_ipv4
	.section	.text.net_if_ipv4_get_best_match,"ax",%progbits
	.align	1
	.syntax unified
	.thumb
	.thumb_func
	.fpu fpv4-sp-d16
	.type	net_if_ipv4_get_best_match, %function
net_if_ipv4_get_best_match:
.LVL59:
.LFB1064:
	.loc 1 3110 1 is_stmt 1 view -0
	.cfi_startproc
	@ args = 0, pretend = 0, frame = 0
	@ frame_needed = 0, uses_anonymous_args = 0
	.loc 1 3110 1 is_stmt 0 view .LVU176
	push	{r3, r4, r5, r6, r7, r8, r9, lr}
	.cfi_def_cfa_offset 32
	.cfi_offset 3, -32
	.cfi_offset 4, -28
	.cfi_offset 5, -24
	.cfi_offset 6, -20
	.cfi_offset 7, -16
	.cfi_offset 8, -12
	.cfi_offset 9, -8
	.cfi_offset 14, -4
	.loc 1 3111 2 is_stmt 1 view .LVU177
	.loc 1 3111 22 is_stmt 0 view .LVU178
	ldr	r4, [r0, #532]
.LVL60:
	.loc 1 3112 2 is_stmt 1 view .LVU179
	.loc 1 3113 2 view .LVU180
	.loc 1 3114 2 view .LVU181
	.loc 1 3116 2 view .LVU182
	.loc 1 3116 5 is_stmt 0 view .LVU183
	cbnz	r4, .L52
.LVL61:
.L42:
	.loc 1 3133 1 view .LVU184
	mov	r0, r4
	pop	{r3, r4, r5, r6, r7, r8, r9, pc}
.LVL62:
.L52:
	.loc 1 3133 1 view .LVU185
	mov	r7, r1
	mov	r6, r2
	.loc 1 3120 9 view .LVU186
	movs	r5, #0
	.loc 1 3112 18 view .LVU187
	mov	r8, r5
	b	.L44
.LVL63:
.L47:
	.loc 1 3121 3 is_stmt 1 view .LVU188
	.loc 1 3121 8 is_stmt 0 view .LVU189
	add	r3, r5, r5, lsl #1
	lsls	r0, r3, #4
	add	r2, r4, r3, lsl #4
.LVL64:
.LBB2385:
.LBI2385:
	.loc 1 3096 19 is_stmt 1 view .LVU190
.LBB2386:
	.loc 1 3098 2 view .LVU191
	.loc 1 3098 20 is_stmt 0 view .LVU192
	ldr	r3, [r2, #44]
	bic	r3, r3, #-50331648
	and	r3, r3, #-16711936
	.loc 1 3098 5 view .LVU193
	ldr	r1, .L55
	cmp	r3, r1
	beq	.L53
	.loc 1 3104 8 view .LVU194
	movs	r3, #0
.LVL65:
.L45:
	.loc 1 3104 8 view .LVU195
.LBE2386:
.LBE2385:
	.loc 1 3121 6 view .LVU196
	cbz	r3, .L46
	.loc 1 3125 3 is_stmt 1 view .LVU197
	.loc 1 3125 28 is_stmt 0 view .LVU198
	add	r9, r5, r5, lsl #1
	add	r9, r4, r9, lsl #4
	add	r9, r9, #4
	.loc 1 3125 9 view .LVU199
	mov	r1, r9
	mov	r0, r7
	bl	get_diff_ipv4
.LVL66:
	.loc 1 3126 3 is_stmt 1 view .LVU200
	.loc 1 3126 14 is_stmt 0 view .LVU201
	ldrb	r3, [r6]	@ zero_extendqisi2
	.loc 1 3126 6 view .LVU202
	cmp	r3, r0
	bhi	.L46
	.loc 1 3127 4 is_stmt 1 view .LVU203
	.loc 1 3127 17 is_stmt 0 view .LVU204
	strb	r0, [r6]
	.loc 1 3128 4 is_stmt 1 view .LVU205
.LVL67:
	.loc 1 3128 8 is_stmt 0 view .LVU206
	mov	r8, r9
.LVL68:
.L46:
	.loc 1 3120 21 is_stmt 1 discriminator 2 view .LVU207
	.loc 1 3120 22 is_stmt 0 discriminator 2 view .LVU208
	adds	r5, r5, #1
.LVL69:
.L44:
	.loc 1 3120 14 is_stmt 1 discriminator 1 view .LVU209
	.loc 1 3120 2 is_stmt 0 discriminator 1 view .LVU210
	cmp	r5, #0
	ble	.L47
	.loc 1 3132 9 view .LVU211
	mov	r4, r8
.LVL70:
	.loc 1 3132 9 view .LVU212
	b	.L42
.LVL71:
.L53:
.LBB2394:
.LBB2393:
	.loc 1 3099 19 view .LVU213
	ldrh	r3, [r4, r0]
	.loc 1 3098 62 view .LVU214
	cmp	r3, #1
	beq	.L54
	.loc 1 3104 8 view .LVU215
	movs	r3, #0
	b	.L45
.L54:
.LVL72:
.LBB2387:
.LBI2387:
	.loc 3 725 19 is_stmt 1 view .LVU216
.LBB2388:
	.loc 3 727 2 view .LVU217
.LBB2389:
	.loc 3 727 43 view .LVU218
	.loc 3 727 158 view .LVU219
	.loc 3 727 161 is_stmt 0 view .LVU220
	ldr	r2, [r2, #4]	@ unaligned
.LVL73:
	.loc 3 727 161 view .LVU221
.LBE2389:
.LBB2390:
	.loc 3 727 209 is_stmt 1 view .LVU222
	.loc 3 727 324 view .LVU223
.LBE2390:
	.loc 3 727 338 is_stmt 0 view .LVU224
	lsrs	r3, r2, #8
	.loc 3 727 344 view .LVU225
	and	r3, r3, #65280
	.loc 3 727 187 view .LVU226
	orr	r3, r3, r2, lsr #24
.LBB2391:
	.loc 3 727 376 is_stmt 1 view .LVU227
.LVL74:
	.loc 3 727 491 view .LVU228
.LBE2391:
	.loc 3 727 515 is_stmt 0 view .LVU229
	lsls	r1, r2, #8
	and	r1, r1, #16711680
	.loc 3 727 354 view .LVU230
	orrs	r3, r3, r1
.LBB2392:
	.loc 3 727 543 is_stmt 1 view .LVU231
.LVL75:
	.loc 3 727 658 view .LVU232
.LBE2392:
	.loc 3 727 11 is_stmt 0 view .LVU233
	orr	r3, r3, r2, lsl #24
.LVL76:
	.loc 3 727 11 view .LVU234
.LBE2388:
.LBE2387:
	.loc 1 3099 32 view .LVU235
	ldr	r2, .L55+4
	bics	r3, r2, r3
	bne	.L50
	.loc 1 3104 8 view .LVU236
	movs	r3, #0
	b	.L45
.L50:
	.loc 1 3101 9 view .LVU237
	movs	r3, #1
	b	.L45
.L56:
	.align	2
.L55:
	.word	33554688
	.word	-1442971648
.LBE2393:
.LBE2394:
	.cfi_endproc
.LFE1064:
	.size	net_if_ipv4_get_best_match, .-net_if_ipv4_get_best_match
	.section	.text.ipv4_addr_find,"ax",%progbits
	.align	1
	.syntax unified
	.thumb
	.thumb_func
	.fpu fpv4-sp-d16
	.type	ipv4_addr_find, %function
ipv4_addr_find:
.LVL77:
.LFB1075:
	.loc 1 3426 1 is_stmt 1 view -0
	.cfi_startproc
	@ args = 0, pretend = 0, frame = 0
	@ frame_needed = 0, uses_anonymous_args = 0
	@ link register save eliminated.
	.loc 1 3427 2 view .LVU239
	.loc 1 3427 22 is_stmt 0 view .LVU240
	ldr	r0, [r0, #532]
.LVL78:
	.loc 1 3428 2 is_stmt 1 view .LVU241
	.loc 1 3430 2 view .LVU242
	.loc 1 3430 9 is_stmt 0 view .LVU243
	movs	r3, #0
.LVL79:
	.loc 1 3430 14 is_stmt 1 view .LVU244
	.loc 1 3430 2 is_stmt 0 view .LVU245
	cmp	r3, #0
	ble	.L66
	.loc 1 3441 8 view .LVU246
	movs	r0, #0
.LVL80:
	.loc 1 3442 1 view .LVU247
	bx	lr
.LVL81:
.L67:
	.cfi_def_cfa_offset 4
	.cfi_offset 4, -4
	.loc 1 3437 4 is_stmt 1 view .LVU248
	.loc 1 3437 11 is_stmt 0 view .LVU249
	add	r3, r3, r3, lsl #1
.LVL82:
	.loc 1 3437 11 view .LVU250
	add	r0, r0, r3, lsl #4
.LVL83:
	.loc 1 3437 11 view .LVU251
	b	.L57
.LVL84:
.L66:
	.cfi_def_cfa_offset 0
	.cfi_restore 4
	.loc 1 3426 1 view .LVU252
	push	{r4}
	.cfi_def_cfa_offset 4
	.cfi_offset 4, -4
.L61:
	.loc 1 3431 3 is_stmt 1 view .LVU253
	.loc 1 3431 24 is_stmt 0 view .LVU254
	add	r2, r3, r3, lsl #1
	add	r2, r0, r2, lsl #4
	ldrb	r2, [r2, #47]	@ zero_extendqisi2
	.loc 1 3431 6 view .LVU255
	tst	r2, #2
	beq	.L59
	.loc 1 3435 3 is_stmt 1 view .LVU256
	.loc 1 3436 11 is_stmt 0 view .LVU257
	add	r2, r3, r3, lsl #1
	add	r2, r0, r2, lsl #4
.LVL85:
.LBB2395:
.LBI2395:
	.loc 3 774 19 is_stmt 1 view .LVU258
.LBE2395:
	.loc 3 777 2 view .LVU259
.LBB2398:
.LBB2396:
	.loc 3 777 26 view .LVU260
	.loc 3 777 143 view .LVU261
	.loc 3 777 146 is_stmt 0 view .LVU262
	ldr	r4, [r1]	@ unaligned
.LBE2396:
.LBB2397:
	.loc 3 777 176 is_stmt 1 view .LVU263
.LVL86:
	.loc 3 777 293 view .LVU264
	.loc 3 777 296 is_stmt 0 view .LVU265
	ldr	r2, [r2, #4]	@ unaligned
.LVL87:
	.loc 3 777 296 view .LVU266
.LBE2397:
.LBE2398:
	.loc 1 3435 6 view .LVU267
	cmp	r4, r2
	beq	.L67
.LVL88:
.L59:
	.loc 1 3430 21 is_stmt 1 discriminator 2 view .LVU268
	.loc 1 3430 22 is_stmt 0 discriminator 2 view .LVU269
	adds	r3, r3, #1
.LVL89:
	.loc 1 3430 14 is_stmt 1 discriminator 2 view .LVU270
	.loc 1 3430 2 is_stmt 0 discriminator 2 view .LVU271
	cmp	r3, #0
	ble	.L61
	.loc 1 3441 8 view .LVU272
	movs	r0, #0
.LVL90:
.L57:
	.loc 1 3442 1 view .LVU273
	ldr	r4, [sp], #4
	.cfi_restore 4
	.cfi_def_cfa_offset 0
	bx	lr
	.cfi_endproc
.LFE1075:
	.size	ipv4_addr_find, .-ipv4_addr_find
	.section	.text.ipv4_maddr_find,"ax",%progbits
	.align	1
	.syntax unified
	.thumb
	.thumb_func
	.fpu fpv4-sp-d16
	.type	ipv4_maddr_find, %function
ipv4_maddr_find:
.LVL91:
.LFB1080:
	.loc 1 3637 1 is_stmt 1 view -0
	.cfi_startproc
	@ args = 0, pretend = 0, frame = 0
	@ frame_needed = 0, uses_anonymous_args = 0
	@ link register save eliminated.
	.loc 1 3638 2 view .LVU275
	.loc 1 3638 22 is_stmt 0 view .LVU276
	ldr	r0, [r0, #532]
.LVL92:
	.loc 1 3639 2 is_stmt 1 view .LVU277
	.loc 1 3641 2 view .LVU278
	.loc 1 3641 5 is_stmt 0 view .LVU279
	cbnz	r0, .L82
	.loc 1 3662 1 view .LVU280
	bx	lr
.LVL93:
.L72:
	.cfi_def_cfa_offset 8
	.cfi_offset 4, -8
	.cfi_offset 5, -4
	.loc 1 3645 21 is_stmt 1 discriminator 2 view .LVU281
	.loc 1 3645 22 is_stmt 0 discriminator 2 view .LVU282
	adds	r3, r3, #1
.LVL94:
	.loc 1 3645 14 is_stmt 1 discriminator 2 view .LVU283
	.loc 1 3645 2 is_stmt 0 discriminator 2 view .LVU284
	cmp	r3, #0
	ble	.L75
	.loc 1 3661 8 view .LVU285
	movs	r0, #0
.LVL95:
.L68:
	.loc 1 3662 1 view .LVU286
	pop	{r4, r5}
	.cfi_restore 5
	.cfi_restore 4
	.cfi_def_cfa_offset 0
	bx	lr
.LVL96:
.L82:
	.loc 1 3645 9 view .LVU287
	movs	r3, #0
.LVL97:
	.loc 1 3645 14 is_stmt 1 view .LVU288
	.loc 1 3645 2 is_stmt 0 view .LVU289
	cmp	r3, #0
	ble	.L80
	.loc 1 3661 8 view .LVU290
	movs	r0, #0
.LVL98:
	.loc 1 3661 8 view .LVU291
	bx	lr
.LVL99:
.L80:
	.loc 1 3637 1 view .LVU292
	push	{r4, r5}
	.cfi_def_cfa_offset 8
	.cfi_offset 4, -8
	.cfi_offset 5, -4
.L75:
	.loc 1 3646 3 is_stmt 1 view .LVU293
	.loc 1 3646 6 is_stmt 0 view .LVU294
	cbz	r1, .L71
	.loc 1 3646 34 discriminator 1 view .LVU295
	add	r4, r3, r3, lsl #1
	add	r4, r0, r4, lsl #3
	ldrb	r4, [r4, #68]	@ zero_extendqisi2
	.loc 1 3646 16 discriminator 1 view .LVU296
	tst	r4, #1
	beq	.L72
.L71:
	.loc 1 3646 44 discriminator 3 view .LVU297
	cbnz	r1, .L73
	.loc 1 3647 34 view .LVU298
	add	r4, r3, r3, lsl #1
	add	r4, r0, r4, lsl #3
	ldrb	r4, [r4, #68]	@ zero_extendqisi2
	.loc 1 3647 17 view .LVU299
	tst	r4, #1
	bne	.L72
.L73:
	.loc 1 3651 3 is_stmt 1 view .LVU300
	.loc 1 3651 6 is_stmt 0 view .LVU301
	cbz	r2, .L74
	.loc 1 3652 4 is_stmt 1 view .LVU302
	.loc 1 3652 27 is_stmt 0 view .LVU303
	add	r4, r3, r3, lsl #1
	lsls	r4, r4, #3
	adds	r4, r4, #48
	add	r4, r4, r0
.LVL100:
.LBB2399:
.LBI2399:
	.loc 3 774 19 is_stmt 1 view .LVU304
.LBE2399:
	.loc 3 777 2 view .LVU305
.LBB2402:
.LBB2400:
	.loc 3 777 26 view .LVU306
	.loc 3 777 143 view .LVU307
	.loc 3 777 146 is_stmt 0 view .LVU308
	ldr	r5, [r4, #4]	@ unaligned
.LBE2400:
.LBB2401:
	.loc 3 777 176 is_stmt 1 view .LVU309
.LVL101:
	.loc 3 777 293 view .LVU310
	.loc 3 777 296 is_stmt 0 view .LVU311
	ldr	r4, [r2]	@ unaligned
.LVL102:
	.loc 3 777 296 view .LVU312
.LBE2401:
.LBE2402:
	.loc 1 3652 7 view .LVU313
	cmp	r5, r4
	bne	.L72
.LVL103:
.L74:
	.loc 1 3658 3 is_stmt 1 view .LVU314
	.loc 1 3658 10 is_stmt 0 view .LVU315
	add	r3, r3, r3, lsl #1
.LVL104:
	.loc 1 3658 10 view .LVU316
	lsls	r3, r3, #3
	adds	r3, r3, #48
	add	r0, r0, r3
.LVL105:
	.loc 1 3658 10 view .LVU317
	b	.L68
	.cfi_endproc
.LFE1080:
	.size	ipv4_maddr_find, .-ipv4_maddr_find
	.section	.text.need_calc_checksum,"ax",%progbits
	.align	1
	.syntax unified
	.thumb
	.thumb_func
	.fpu fpv4-sp-d16
	.type	need_calc_checksum, %function
need_calc_checksum:
.LVL106:
.LFB1093:
	.loc 1 3958 1 is_stmt 1 view -0
	.cfi_startproc
	@ args = 0, pretend = 0, frame = 0
	@ frame_needed = 0, uses_anonymous_args = 0
	.loc 1 3958 1 is_stmt 0 view .LVU319
	push	{r4, lr}
	.cfi_def_cfa_offset 8
	.cfi_offset 4, -8
	.cfi_offset 14, -4
	mov	r4, r1
	.loc 1 3960 2 is_stmt 1 view .LVU320
.LVL107:
.LBB2403:
.LBI2403:
	.loc 2 568 43 view .LVU321
.LBB2404:
	.loc 2 570 2 view .LVU322
	.loc 2 570 5 is_stmt 0 view .LVU323
	mov	r2, r0
	cbz	r0, .L87
	.loc 2 570 22 view .LVU324
	ldr	r3, [r0]
	.loc 2 570 13 view .LVU325
	cbz	r3, .L84
	.loc 2 574 2 is_stmt 1 view .LVU326
	.loc 2 574 22 is_stmt 0 view .LVU327
	ldr	r3, [r3, #4]
.L84:
.LVL108:
	.loc 2 574 22 view .LVU328
.LBE2404:
.LBE2403:
	.loc 1 3960 5 view .LVU329
	ldr	r0, .L92
.LVL109:
	.loc 1 3960 5 view .LVU330
	cmp	r3, r0
	beq	.L91
	.loc 1 3961 9 view .LVU331
	movs	r0, #1
.LVL110:
.L85:
	.loc 1 3971 1 view .LVU332
	pop	{r4, pc}
.LVL111:
.L87:
.LBB2406:
.LBB2405:
	.loc 2 571 9 view .LVU333
	mov	r3, r0
	b	.L84
.LVL112:
.L91:
	.loc 2 571 9 view .LVU334
.LBE2405:
.LBE2406:
	.loc 1 3964 2 is_stmt 1 view .LVU335
.LBB2407:
.LBI2407:
	.file 4 "/home/sebin/thesis/zephyrproject/zephyr/include/net/ethernet.h"
	.loc 4 724 23 view .LVU336
.LBB2408:
	.loc 4 726 2 view .LVU337
.LBB2409:
.LBI2409:
	.loc 2 606 36 view .LVU338
.LBB2410:
	.loc 2 608 2 view .LVU339
	.loc 2 608 14 is_stmt 0 view .LVU340
	ldr	r3, [r2]
	.loc 2 608 22 view .LVU341
	ldr	r0, [r3]
.LVL113:
	.loc 2 608 22 view .LVU342
.LBE2410:
.LBE2409:
	.loc 4 726 29 view .LVU343
	ldr	r3, [r0, #8]
.LVL114:
	.loc 4 729 2 is_stmt 1 view .LVU344
	.loc 4 729 10 is_stmt 0 view .LVU345
	ldr	r3, [r3, #16]
.LVL115:
	.loc 4 729 5 view .LVU346
	cbz	r3, .L89
	.loc 4 733 2 is_stmt 1 view .LVU347
.LVL116:
	.loc 4 733 2 is_stmt 0 view .LVU348
.LBE2408:
.LBE2407:
	.loc 2 608 2 is_stmt 1 view .LVU349
.LBB2413:
.LBB2411:
	.loc 4 733 9 is_stmt 0 view .LVU350
	blx	r3
.LVL117:
.L86:
	.loc 4 733 9 view .LVU351
.LBE2411:
.LBE2413:
	.loc 1 3964 9 view .LVU352
	tst	r4, r0
	ite	eq
	moveq	r0, #1
	movne	r0, #0
	b	.L85
.LVL118:
.L89:
.LBB2414:
.LBB2412:
	.loc 4 730 10 view .LVU353
	movs	r0, #0
.LVL119:
	.loc 4 730 10 view .LVU354
	b	.L86
.L93:
	.align	2
.L92:
	.word	_net_l2_ETHERNET
.LBE2412:
.LBE2414:
	.cfi_endproc
.LFE1093:
	.size	need_calc_checksum, .-need_calc_checksum
	.section	.rodata.iface_ipv4_init.str1.4,"aMS",%progbits,1
	.align	2
.LC0:
	.ascii	"You have %lu IPv4 net_if addresses but %d network i"
	.ascii	"nterfaces\000"
	.align	2
.LC1:
	.ascii	"Consider increasing CONFIG_NET_IF_MAX_IPV4_COUNT va"
	.ascii	"lue.\000"
	.section	.text.iface_ipv4_init,"ax",%progbits
	.align	1
	.syntax unified
	.thumb
	.thumb_func
	.fpu fpv4-sp-d16
	.type	iface_ipv4_init, %function
iface_ipv4_init:
.LVL120:
.LFB1086:
	.loc 1 3779 1 is_stmt 1 view -0
	.cfi_startproc
	@ args = 0, pretend = 0, frame = 32
	@ frame_needed = 1, uses_anonymous_args = 0
	.loc 1 3779 1 is_stmt 0 view .LVU356
	push	{r4, r5, r6, r7, lr}
	.cfi_def_cfa_offset 20
	.cfi_offset 4, -20
	.cfi_offset 5, -16
	.cfi_offset 6, -12
	.cfi_offset 7, -8
	.cfi_offset 14, -4
	sub	sp, sp, #36
	.cfi_def_cfa_offset 56
	add	r7, sp, #0
	.cfi_def_cfa_register 7
	.loc 1 3780 2 is_stmt 1 view .LVU357
	.loc 1 3782 2 view .LVU358
	.loc 1 3782 5 is_stmt 0 view .LVU359
	cmp	r0, #1
	ble	.L95
	mov	r3, r0
	.loc 1 3783 3 is_stmt 1 view .LVU360
.LBB2415:
	.loc 1 3783 8 view .LVU361
	.loc 1 3783 57 view .LVU362
	.loc 1 3783 14 view .LVU363
	.loc 1 3783 2 view .LVU364
.LBE2415:
	.file 5 "/home/sebin/thesis/zephyrproject/zephyr/include/syscall.h"
	.loc 5 120 2 view .LVU365
.LVL121:
.LBB2441:
	.loc 1 3783 41 view .LVU366
	.loc 1 3783 107 view .LVU367
	.loc 1 3783 206 view .LVU368
.LBB2416:
	.loc 1 3783 215 view .LVU369
	.loc 1 3783 226 view .LVU370
	.loc 1 3783 314 view .LVU371
	.loc 1 3783 319 view .LVU372
	.loc 1 3783 321 view .LVU373
.LBE2416:
.LBE2441:
	.loc 1 3783 3 view .LVU374
	.loc 1 3783 3 view .LVU375
.LBB2442:
.LBB2435:
	.loc 1 3783 325 view .LVU376
.LBB2417:
	.loc 1 3783 330 view .LVU377
	.loc 1 3783 341 view .LVU378
.LBE2417:
.LBE2435:
.LBE2442:
	.loc 1 3783 3 view .LVU379
	.loc 1 3783 217 view .LVU380
	.loc 1 3783 2 view .LVU381
	.loc 1 3783 31 view .LVU382
	.loc 1 3783 4 view .LVU383
	.loc 1 3783 24 view .LVU384
	.loc 1 3783 48 view .LVU385
	.loc 1 3783 23 view .LVU386
	.loc 1 3783 41 view .LVU387
	.loc 1 3783 61 view .LVU388
	.loc 1 3783 108 view .LVU389
	.loc 1 3783 140 view .LVU390
	.loc 1 3783 13 view .LVU391
	.loc 1 3783 55 view .LVU392
	.loc 1 3783 97 view .LVU393
	.loc 1 3783 142 view .LVU394
	.loc 1 3783 147 view .LVU395
	.loc 1 3783 434 view .LVU396
	.loc 1 3783 440 view .LVU397
	.loc 1 3783 1693 view .LVU398
	.loc 1 3783 1717 view .LVU399
	.loc 1 3783 1807 view .LVU400
	.loc 1 3783 1954 view .LVU401
	.loc 1 3783 1969 view .LVU402
	.loc 1 3783 2289 view .LVU403
	.loc 1 3783 2337 view .LVU404
	.loc 1 3783 3901 view .LVU405
	.loc 1 3783 3908 view .LVU406
	.loc 1 3783 3931 view .LVU407
	.loc 1 3783 3965 view .LVU408
	.loc 1 3783 3971 view .LVU409
	.loc 1 3783 3976 view .LVU410
	.loc 1 3783 0 view .LVU411
	.loc 1 3783 0 view .LVU412
	.loc 1 3783 0 view .LVU413
	.loc 1 3783 0 view .LVU414
	.loc 1 3783 0 view .LVU415
	.loc 1 3783 0 view .LVU416
	.loc 1 3783 0 view .LVU417
	.loc 1 3783 0 view .LVU418
	.loc 1 3783 0 view .LVU419
	.loc 1 3783 0 view .LVU420
	.loc 1 3783 0 view .LVU421
	.loc 1 3783 0 view .LVU422
	.loc 1 3783 0 view .LVU423
	.loc 1 3783 0 view .LVU424
	.loc 1 3783 0 view .LVU425
	.loc 1 3783 0 view .LVU426
	.loc 1 3783 0 view .LVU427
	.loc 1 3783 0 view .LVU428
	.loc 1 3783 0 view .LVU429
	.loc 1 3783 0 view .LVU430
	.loc 1 3783 0 view .LVU431
	.loc 1 3783 0 view .LVU432
	.loc 1 3783 0 view .LVU433
	.loc 1 3783 0 view .LVU434
	.loc 1 3783 0 view .LVU435
	.loc 1 3783 0 view .LVU436
	.loc 1 3783 0 view .LVU437
	.loc 1 3783 0 view .LVU438
	.loc 1 3783 0 view .LVU439
	.loc 1 3783 16 view .LVU440
.LBB2443:
.LBB2436:
.LBB2430:
	.loc 1 3783 11 view .LVU441
	.loc 1 3783 16 view .LVU442
	.loc 1 3783 39 view .LVU443
	.loc 1 3783 75 is_stmt 0 view .LVU444
	mov	r5, sp
.LVL122:
	.loc 1 3783 159 is_stmt 1 view .LVU445
	.loc 1 3783 171 is_stmt 0 view .LVU446
	sub	sp, sp, #32
	mov	r0, sp
.LVL123:
	.loc 1 3783 285 is_stmt 1 view .LVU447
	.loc 1 3783 488 view .LVU448
	.loc 1 3783 5 view .LVU449
	.loc 1 3783 7 view .LVU450
	.loc 1 3783 20 view .LVU451
.LBB2418:
	.loc 1 3783 3 view .LVU452
	.loc 1 3783 217 view .LVU453
	.loc 1 3783 2 view .LVU454
	.loc 1 3783 31 view .LVU455
	.loc 1 3783 60 view .LVU456
	.loc 1 3783 80 view .LVU457
	.loc 1 3783 104 view .LVU458
	.loc 1 3783 12 is_stmt 0 view .LVU459
	adds	r2, r0, #12
.LVL124:
	.loc 1 3783 12 view .LVU460
	beq	.L104
	movs	r1, #16
.L96:
	.loc 1 3783 13 is_stmt 1 discriminator 94 view .LVU461
.LVL125:
	.loc 1 3783 55 discriminator 94 view .LVU462
	.loc 1 3783 97 discriminator 94 view .LVU463
	.loc 1 3783 142 discriminator 94 view .LVU464
.LBB2419:
	.loc 1 3783 147 discriminator 94 view .LVU465
	.loc 1 3783 434 discriminator 94 view .LVU466
	.loc 1 3783 440 discriminator 94 view .LVU467
	.loc 1 3783 1693 discriminator 94 view .LVU468
.LBE2419:
.LBE2418:
.LBE2430:
.LBE2436:
.LBE2443:
	.loc 1 3783 1717 discriminator 94 view .LVU469
	.loc 1 3783 1807 discriminator 94 view .LVU470
	.loc 1 3783 1954 discriminator 94 view .LVU471
.LBB2444:
.LBB2437:
.LBB2431:
.LBB2426:
.LBB2420:
	.loc 1 3783 1969 discriminator 94 view .LVU472
	.loc 1 3783 2289 discriminator 94 view .LVU473
	.loc 1 3783 2337 discriminator 94 view .LVU474
	.loc 1 3783 2340 is_stmt 0 discriminator 94 view .LVU475
	cbz	r2, .L97
	.loc 1 3783 2347 discriminator 98 view .LVU476
	cmp	r1, #4
	ble	.L97
	.loc 1 3783 2375 is_stmt 1 discriminator 103 view .LVU477
	.loc 1 3783 2380 discriminator 103 view .LVU478
	.loc 1 3783 3161 discriminator 103 view .LVU479
	.loc 1 3783 3822 is_stmt 0 discriminator 103 view .LVU480
	ldr	r4, .L107
	str	r4, [r0, #16]
.L97:
	.loc 1 3783 3901 is_stmt 1 discriminator 104 view .LVU481
	.loc 1 3783 3908 discriminator 104 view .LVU482
.LVL126:
	.loc 1 3783 3931 discriminator 104 view .LVU483
	.loc 1 3783 3931 is_stmt 0 discriminator 104 view .LVU484
.LBE2420:
	.loc 1 3783 3965 is_stmt 1 discriminator 104 view .LVU485
	.loc 1 3783 3971 discriminator 104 view .LVU486
.LBB2421:
	.loc 1 3783 3976 discriminator 104 view .LVU487
	.loc 1 3783 0 discriminator 104 view .LVU488
	.loc 1 3783 0 discriminator 104 view .LVU489
	.loc 1 3783 0 discriminator 104 view .LVU490
.LBE2421:
.LBE2426:
.LBE2431:
.LBE2437:
.LBE2444:
	.loc 1 3783 0 discriminator 104 view .LVU491
	.loc 1 3783 0 discriminator 104 view .LVU492
	.loc 1 3783 0 discriminator 104 view .LVU493
.LBB2445:
.LBB2438:
.LBB2432:
.LBB2427:
.LBB2422:
	.loc 1 3783 0 discriminator 104 view .LVU494
	.loc 1 3783 0 discriminator 104 view .LVU495
	cbz	r2, .L98
	.loc 1 3783 0 is_stmt 0 discriminator 112 view .LVU496
	cmp	r1, #8
	ble	.L98
	.loc 1 3783 0 is_stmt 1 discriminator 117 view .LVU497
	.loc 1 3783 0 discriminator 117 view .LVU498
	.loc 1 3783 0 discriminator 117 view .LVU499
	movs	r4, #1
	str	r4, [r0, #20]
.L98:
	.loc 1 3783 0 discriminator 118 view .LVU500
	.loc 1 3783 0 discriminator 118 view .LVU501
.LVL127:
	.loc 1 3783 0 discriminator 118 view .LVU502
	.loc 1 3783 0 is_stmt 0 discriminator 118 view .LVU503
.LBE2422:
	.loc 1 3783 0 is_stmt 1 discriminator 118 view .LVU504
	.loc 1 3783 0 discriminator 118 view .LVU505
.LBB2423:
	.loc 1 3783 0 discriminator 118 view .LVU506
	.loc 1 3783 0 discriminator 118 view .LVU507
	.loc 1 3783 0 discriminator 118 view .LVU508
	.loc 1 3783 0 discriminator 118 view .LVU509
.LBE2423:
.LBE2427:
.LBE2432:
.LBE2438:
.LBE2445:
	.loc 1 3783 0 discriminator 118 view .LVU510
	.loc 1 3783 0 discriminator 118 view .LVU511
	.loc 1 3783 0 discriminator 118 view .LVU512
.LBB2446:
.LBB2439:
.LBB2433:
.LBB2428:
.LBB2424:
	.loc 1 3783 0 discriminator 118 view .LVU513
	.loc 1 3783 0 discriminator 118 view .LVU514
	cbz	r2, .L99
	.loc 1 3783 0 is_stmt 0 discriminator 126 view .LVU515
	cmp	r1, #12
	ble	.L99
	.loc 1 3783 0 is_stmt 1 discriminator 131 view .LVU516
	.loc 1 3783 0 discriminator 131 view .LVU517
	.loc 1 3783 0 discriminator 131 view .LVU518
	str	r3, [r0, #24]
.L99:
	.loc 1 3783 0 discriminator 132 view .LVU519
	.loc 1 3783 0 discriminator 132 view .LVU520
.LVL128:
	.loc 1 3783 0 discriminator 132 view .LVU521
	.loc 1 3783 0 is_stmt 0 discriminator 132 view .LVU522
.LBE2424:
	.loc 1 3783 0 is_stmt 1 discriminator 132 view .LVU523
	.loc 1 3783 0 discriminator 132 view .LVU524
	.loc 1 3783 0 discriminator 132 view .LVU525
	.loc 1 3783 0 discriminator 132 view .LVU526
	.loc 1 3783 2 is_stmt 0 discriminator 132 view .LVU527
	cmp	r1, #15
	ble	.L105
	.loc 1 3783 2 view .LVU528
	movs	r3, #16
.LVL129:
.L100:
	.loc 1 3783 16 is_stmt 1 discriminator 144 view .LVU529
	.loc 1 3783 19 is_stmt 0 discriminator 144 view .LVU530
	cbz	r2, .L101
.LBB2425:
	.loc 1 3783 29 is_stmt 1 discriminator 145 view .LVU531
	.loc 1 3783 50 is_stmt 0 discriminator 145 view .LVU532
	movs	r2, #0
.LVL130:
	.loc 1 3783 50 discriminator 145 view .LVU533
	strh	r2, [r7, #5]	@ unaligned
	strb	r2, [r7, #7]
	movs	r1, #4
	strb	r1, [r7, #4]
	strb	r2, [r7, #6]
	.loc 1 3783 175 is_stmt 1 discriminator 145 view .LVU534
	.loc 1 3783 185 is_stmt 0 discriminator 145 view .LVU535
	ldr	r2, [r7, #4]
	str	r2, [r0, #12]
.L101:
	.loc 1 3783 185 discriminator 145 view .LVU536
.LBE2425:
.LBE2428:
	.loc 1 3783 11 is_stmt 1 discriminator 2 view .LVU537
	.loc 1 3783 18 discriminator 2 view .LVU538
	.loc 1 3783 39 is_stmt 0 discriminator 2 view .LVU539
	movs	r2, #0
.LVL131:
	.loc 1 3783 39 discriminator 2 view .LVU540
	bfc	r2, #0, #1
.LVL132:
	.loc 1 3783 39 discriminator 2 view .LVU541
	bfc	r2, #1, #1
	bfc	r2, #2, #1
	bfc	r2, #3, #3
	movs	r4, #2
	bfi	r2, r4, #6, #3
	.loc 1 3783 124 discriminator 2 view .LVU542
	and	r3, r3, #1012
.LVL133:
	.loc 1 3783 39 discriminator 2 view .LVU543
	bfi	r2, r3, #9, #10
	.loc 1 3783 174 is_stmt 1 discriminator 2 view .LVU544
	ldr	r6, .L107+4
	movs	r3, #0
	ubfx	r2, r2, #0, #19
.LVL134:
	.loc 1 3783 174 is_stmt 0 discriminator 2 view .LVU545
	mov	r1, r6
	bl	z_log_msg2_finalize
.LVL135:
	.loc 1 3783 174 discriminator 2 view .LVU546
	mov	sp, r5
.LVL136:
	.loc 1 3783 174 discriminator 2 view .LVU547
.LBE2433:
	.loc 1 3783 13 is_stmt 1 discriminator 2 view .LVU548
	.loc 1 3783 18 discriminator 2 view .LVU549
	.loc 1 3783 58 discriminator 2 view .LVU550
.LBE2439:
	.loc 1 3783 13 discriminator 2 view .LVU551
	.loc 1 3783 20 discriminator 2 view .LVU552
	.loc 1 3783 20 is_stmt 0 discriminator 2 view .LVU553
.LBE2446:
	.loc 1 3783 317 is_stmt 1 discriminator 2 view .LVU554
	.loc 1 3786 3 discriminator 2 view .LVU555
.LBB2447:
	.loc 1 3786 8 discriminator 2 view .LVU556
	.loc 1 3786 57 discriminator 2 view .LVU557
	.loc 1 3786 14 discriminator 2 view .LVU558
	.loc 1 3786 2 discriminator 2 view .LVU559
.LBE2447:
	.loc 5 120 2 discriminator 2 view .LVU560
.LBB2460:
	.loc 1 3786 41 discriminator 2 view .LVU561
	.loc 1 3786 107 discriminator 2 view .LVU562
	.loc 1 3786 206 discriminator 2 view .LVU563
.LBB2448:
	.loc 1 3786 215 discriminator 2 view .LVU564
	.loc 1 3786 226 discriminator 2 view .LVU565
	.loc 1 3786 314 discriminator 2 view .LVU566
	.loc 1 3786 319 discriminator 2 view .LVU567
	.loc 1 3786 321 discriminator 2 view .LVU568
.LBE2448:
.LBE2460:
	.loc 1 3786 3 discriminator 2 view .LVU569
	.loc 1 3786 3 discriminator 2 view .LVU570
.LBB2461:
.LBB2457:
	.loc 1 3786 112 discriminator 2 view .LVU571
.LBB2449:
	.loc 1 3786 117 discriminator 2 view .LVU572
	.loc 1 3786 128 discriminator 2 view .LVU573
.LBE2449:
.LBE2457:
.LBE2461:
	.loc 1 3786 3 discriminator 2 view .LVU574
	.loc 1 3786 217 discriminator 2 view .LVU575
	.loc 1 3786 2 discriminator 2 view .LVU576
	.loc 1 3786 31 discriminator 2 view .LVU577
	.loc 1 3786 4 discriminator 2 view .LVU578
	.loc 1 3786 24 discriminator 2 view .LVU579
	.loc 1 3786 48 discriminator 2 view .LVU580
	.loc 1 3786 23 discriminator 2 view .LVU581
	.loc 1 3786 41 discriminator 2 view .LVU582
	.loc 1 3786 61 discriminator 2 view .LVU583
	.loc 1 3786 108 discriminator 2 view .LVU584
	.loc 1 3786 140 discriminator 2 view .LVU585
	.loc 1 3786 13 discriminator 2 view .LVU586
	.loc 1 3786 55 discriminator 2 view .LVU587
	.loc 1 3786 97 discriminator 2 view .LVU588
	.loc 1 3786 142 discriminator 2 view .LVU589
	.loc 1 3786 147 discriminator 2 view .LVU590
	.loc 1 3786 429 discriminator 2 view .LVU591
	.loc 1 3786 435 discriminator 2 view .LVU592
	.loc 1 3786 1668 discriminator 2 view .LVU593
	.loc 1 3786 1692 discriminator 2 view .LVU594
	.loc 1 3786 1777 discriminator 2 view .LVU595
	.loc 1 3786 1919 discriminator 2 view .LVU596
	.loc 1 3786 1934 discriminator 2 view .LVU597
	.loc 1 3786 2249 discriminator 2 view .LVU598
	.loc 1 3786 2297 discriminator 2 view .LVU599
	.loc 1 3786 3821 discriminator 2 view .LVU600
	.loc 1 3786 3828 discriminator 2 view .LVU601
	.loc 1 3786 3851 discriminator 2 view .LVU602
	.loc 1 3786 3885 discriminator 2 view .LVU603
	.loc 1 3786 3890 discriminator 2 view .LVU604
	.loc 1 3786 3913 discriminator 2 view .LVU605
	.loc 1 3786 4041 discriminator 2 view .LVU606
	.loc 1 3786 16 discriminator 2 view .LVU607
.LBB2462:
.LBB2458:
.LBB2455:
	.loc 1 3786 11 discriminator 2 view .LVU608
	.loc 1 3786 16 discriminator 2 view .LVU609
	.loc 1 3786 39 discriminator 2 view .LVU610
	.loc 1 3786 159 discriminator 2 view .LVU611
	.loc 1 3786 285 discriminator 2 view .LVU612
	.loc 1 3786 488 discriminator 2 view .LVU613
	.loc 1 3786 5 discriminator 2 view .LVU614
	.loc 1 3786 7 discriminator 2 view .LVU615
	.loc 1 3786 20 discriminator 2 view .LVU616
.LBB2450:
	.loc 1 3786 3 discriminator 2 view .LVU617
	.loc 1 3786 217 discriminator 2 view .LVU618
	.loc 1 3786 2 discriminator 2 view .LVU619
	.loc 1 3786 31 discriminator 2 view .LVU620
	.loc 1 3786 60 discriminator 2 view .LVU621
	.loc 1 3786 80 discriminator 2 view .LVU622
	.loc 1 3786 104 discriminator 2 view .LVU623
	.loc 1 3786 27 discriminator 2 view .LVU624
	.loc 1 3786 45 discriminator 2 view .LVU625
	.loc 1 3786 65 discriminator 2 view .LVU626
	.loc 1 3786 112 discriminator 2 view .LVU627
	.loc 1 3786 144 discriminator 2 view .LVU628
	.loc 1 3786 13 discriminator 2 view .LVU629
	.loc 1 3786 55 discriminator 2 view .LVU630
	.loc 1 3786 97 discriminator 2 view .LVU631
	.loc 1 3786 142 discriminator 2 view .LVU632
.LBB2451:
	.loc 1 3786 147 discriminator 2 view .LVU633
	.loc 1 3786 429 discriminator 2 view .LVU634
	.loc 1 3786 435 discriminator 2 view .LVU635
	.loc 1 3786 1668 discriminator 2 view .LVU636
.LBE2451:
.LBE2450:
.LBE2455:
.LBE2458:
.LBE2462:
	.loc 1 3786 1692 discriminator 2 view .LVU637
	.loc 1 3786 1777 discriminator 2 view .LVU638
	.loc 1 3786 1919 discriminator 2 view .LVU639
.LBB2463:
.LBB2459:
.LBB2456:
.LBB2454:
.LBB2452:
	.loc 1 3786 1934 discriminator 2 view .LVU640
	.loc 1 3786 2249 discriminator 2 view .LVU641
	.loc 1 3786 2297 discriminator 2 view .LVU642
	.loc 1 3786 2335 discriminator 2 view .LVU643
	.loc 1 3786 2340 discriminator 2 view .LVU644
	.loc 1 3786 3091 discriminator 2 view .LVU645
	.loc 1 3786 3747 is_stmt 0 discriminator 2 view .LVU646
	ldr	r3, .L107+8
	str	r3, [r7, #24]
	.loc 1 3786 3821 is_stmt 1 discriminator 2 view .LVU647
	.loc 1 3786 3828 discriminator 2 view .LVU648
.LVL137:
	.loc 1 3786 3851 discriminator 2 view .LVU649
	.loc 1 3786 3851 is_stmt 0 discriminator 2 view .LVU650
.LBE2452:
	.loc 1 3786 3885 is_stmt 1 discriminator 2 view .LVU651
	.loc 1 3786 3890 discriminator 2 view .LVU652
	.loc 1 3786 3913 discriminator 2 view .LVU653
	.loc 1 3786 4041 discriminator 2 view .LVU654
	.loc 1 3786 16 discriminator 2 view .LVU655
.LBB2453:
	.loc 1 3786 29 discriminator 2 view .LVU656
	.loc 1 3786 50 is_stmt 0 discriminator 2 view .LVU657
	movs	r3, #0
	strh	r3, [r7, #5]	@ unaligned
	strb	r3, [r7, #7]
	strb	r4, [r7, #4]
	strb	r3, [r7, #6]
	.loc 1 3786 175 is_stmt 1 discriminator 2 view .LVU658
	.loc 1 3786 185 is_stmt 0 discriminator 2 view .LVU659
	ldr	r2, [r7, #4]
	str	r2, [r7, #20]
	.loc 1 3786 185 discriminator 2 view .LVU660
.LBE2453:
.LBE2454:
	.loc 1 3786 11 is_stmt 1 discriminator 2 view .LVU661
	.loc 1 3786 18 discriminator 2 view .LVU662
	.loc 1 3786 39 is_stmt 0 discriminator 2 view .LVU663
	mov	r2, r3
.LVL138:
	.loc 1 3786 39 discriminator 2 view .LVU664
	bfi	r2, r3, #0, #1
.LVL139:
	.loc 1 3786 39 discriminator 2 view .LVU665
	bfi	r2, r3, #1, #1
	bfi	r2, r3, #2, #1
	bfi	r2, r3, #3, #3
	bfi	r2, r4, #6, #3
	movs	r1, #8
	bfi	r2, r1, #9, #10
	.loc 1 3786 174 is_stmt 1 discriminator 2 view .LVU666
	ubfx	r2, r2, #0, #19
.LVL140:
	.loc 1 3786 174 is_stmt 0 discriminator 2 view .LVU667
	mov	r1, r6
	add	r0, r7, #8
.LVL141:
	.loc 1 3786 174 discriminator 2 view .LVU668
	bl	z_log_msg2_finalize
.LVL142:
	.loc 1 3786 174 discriminator 2 view .LVU669
.LBE2456:
	.loc 1 3786 13 is_stmt 1 discriminator 2 view .LVU670
	.loc 1 3786 18 discriminator 2 view .LVU671
.LVL143:
	.loc 1 3786 58 discriminator 2 view .LVU672
.LBE2459:
	.loc 1 3786 13 discriminator 2 view .LVU673
	.loc 1 3786 20 discriminator 2 view .LVU674
.L95:
	.loc 1 3786 20 is_stmt 0 discriminator 2 view .LVU675
.LBE2463:
.LBB2464:
.LBB2440:
.LBB2434:
.LBB2429:
	.loc 1 3783 2 discriminator 1 view .LVU676
	movs	r3, #0
	b	.L102
.LVL144:
.L104:
	.loc 1 3783 12 view .LVU677
	mvn	r1, #-2147483648
	b	.L96
.LVL145:
.L105:
	.loc 1 3783 2 view .LVU678
	mvn	r3, #27
.LVL146:
	.loc 1 3783 2 view .LVU679
	b	.L100
.LVL147:
.L103:
	.loc 1 3783 2 view .LVU680
.LBE2429:
.LBE2434:
.LBE2440:
.LBE2464:
	.loc 1 3791 3 is_stmt 1 discriminator 3 view .LVU681
	.loc 1 3791 30 is_stmt 0 discriminator 3 view .LVU682
	ldr	r1, .L107+12
	movs	r2, #88
	mla	r2, r2, r3, r1
	movs	r1, #64
	strb	r1, [r2, #80]
	.loc 1 3790 216 is_stmt 1 discriminator 3 view .LVU683
	.loc 1 3790 217 is_stmt 0 discriminator 3 view .LVU684
	adds	r3, r3, #1
.LVL148:
.L102:
	.loc 1 3790 14 is_stmt 1 discriminator 1 view .LVU685
	.loc 1 3790 2 is_stmt 0 discriminator 1 view .LVU686
	cmp	r3, #0
	ble	.L103
	.loc 1 3793 1 view .LVU687
	adds	r7, r7, #36
	.cfi_def_cfa_offset 20
	mov	sp, r7
	.cfi_def_cfa_register 13
	@ sp needed
	pop	{r4, r5, r6, r7, pc}
.L108:
	.align	2
.L107:
	.word	.LC0
	.word	.LANCHOR0
	.word	.LC1
	.word	.LANCHOR1
	.cfi_endproc
.LFE1086:
	.size	iface_ipv4_init, .-iface_ipv4_init
	.section	.text.z_log_msg2_runtime_create,"ax",%progbits
	.align	1
	.syntax unified
	.thumb
	.thumb_func
	.fpu fpv4-sp-d16
	.type	z_log_msg2_runtime_create, %function
z_log_msg2_runtime_create:
.LVL149:
.LFB40:
	.file 6 "/home/sebin/thesis/zephyrproject/zephyr/include/logging/log_msg2.h"
	.loc 6 490 1 is_stmt 1 view -0
	.cfi_startproc
	@ args = 8, pretend = 0, frame = 8
	@ frame_needed = 0, uses_anonymous_args = 1
	.loc 6 490 1 is_stmt 0 view .LVU689
	push	{r4, lr}
	.cfi_def_cfa_offset 8
	.cfi_offset 4, -8
	.cfi_offset 14, -4
	sub	sp, sp, #24
	.cfi_def_cfa_offset 32
	.loc 6 491 2 is_stmt 1 view .LVU690
	.loc 6 493 1 view .LVU691
	add	r4, sp, #40
	str	r4, [sp, #20]
	.loc 6 494 2 view .LVU692
.LVL150:
.LBB2465:
.LBI2465:
	.file 7 "/home/sebin/thesis/dmz/zephyr_xmc_template/build/zephyr/include/generated/syscalls/log_msg2.h"
	.loc 7 59 20 view .LVU693
.LBB2466:
	.loc 7 72 2 view .LVU694
	.loc 7 72 7 view .LVU695
	.loc 7 72 55 view .LVU696
	.loc 7 73 2 view .LVU697
	str	r4, [sp, #8]
	ldr	r4, [sp, #36]
	str	r4, [sp, #4]
	ldr	r4, [sp, #32]
	str	r4, [sp]
	bl	z_impl_z_log_msg2_runtime_vcreate
.LVL151:
	.loc 7 73 2 is_stmt 0 view .LVU698
.LBE2466:
.LBE2465:
	.loc 6 496 1 is_stmt 1 view .LVU699
	.loc 6 497 1 is_stmt 0 view .LVU700
	add	sp, sp, #24
	.cfi_def_cfa_offset 8
	@ sp needed
	pop	{r4, pc}
	.loc 6 497 1 view .LVU701
	.cfi_endproc
.LFE40:
	.size	z_log_msg2_runtime_create, .-z_log_msg2_runtime_create
	.section	.text.iface_router_find_default,"ax",%progbits
	.align	1
	.syntax unified
	.thumb
	.thumb_func
	.fpu fpv4-sp-d16
	.type	iface_router_find_default, %function
iface_router_find_default:
.LVL152:
.LFB979:
	.loc 1 891 1 is_stmt 1 view -0
	.cfi_startproc
	@ args = 0, pretend = 0, frame = 0
	@ frame_needed = 0, uses_anonymous_args = 0
	.loc 1 891 1 is_stmt 0 view .LVU703
	push	{r4, r5, r6, lr}
	.cfi_def_cfa_offset 16
	.cfi_offset 4, -16
	.cfi_offset 5, -12
	.cfi_offset 6, -8
	.cfi_offset 14, -4
	mov	r5, r0
	mov	r6, r1
	.loc 1 892 2 is_stmt 1 view .LVU704
.LVL153:
	.loc 1 893 2 view .LVU705
	.loc 1 896 2 view .LVU706
	.loc 1 898 2 view .LVU707
.LBB2467:
.LBI2467:
	.file 8 "/home/sebin/thesis/dmz/zephyr_xmc_template/build/zephyr/include/generated/syscalls/kernel.h"
	.loc 8 899 19 view .LVU708
.LBB2468:
	.loc 8 909 2 view .LVU709
	.loc 8 909 7 view .LVU710
	.loc 8 909 55 view .LVU711
	.loc 8 910 2 view .LVU712
	.loc 8 910 9 is_stmt 0 view .LVU713
	mov	r2, #-1
.LVL154:
	.loc 8 910 9 view .LVU714
	mov	r3, #-1
	ldr	r0, .L119
.LVL155:
	.loc 8 910 9 view .LVU715
	bl	z_impl_k_mutex_lock
.LVL156:
	.loc 8 910 9 view .LVU716
.LBE2468:
.LBE2467:
	.loc 1 900 2 is_stmt 1 view .LVU717
	.loc 1 900 9 is_stmt 0 view .LVU718
	movs	r3, #0
	.loc 1 900 2 view .LVU719
	b	.L112
.LVL157:
.L113:
	.loc 1 900 21 is_stmt 1 discriminator 2 view .LVU720
	.loc 1 900 22 is_stmt 0 discriminator 2 view .LVU721
	adds	r3, r3, #1
.LVL158:
.L112:
	.loc 1 900 14 is_stmt 1 discriminator 1 view .LVU722
	.loc 1 900 2 is_stmt 0 discriminator 1 view .LVU723
	cmp	r3, #1
	bgt	.L118
	.loc 1 901 3 is_stmt 1 view .LVU724
	.loc 1 901 18 is_stmt 0 view .LVU725
	add	r2, r3, r3, lsl #3
	ldr	r4, .L119+4
	add	r2, r4, r2, lsl #2
	ldrb	r2, [r2, #34]	@ zero_extendqisi2
	.loc 1 901 6 view .LVU726
	tst	r2, #1
	beq	.L113
	.loc 1 902 18 discriminator 1 view .LVU727
	add	r2, r3, r3, lsl #3
	add	r2, r4, r2, lsl #2
	ldrb	r2, [r2, #34]	@ zero_extendqisi2
	.loc 1 901 27 discriminator 1 view .LVU728
	tst	r2, #2
	beq	.L113
	.loc 1 903 25 view .LVU729
	add	r2, r3, r3, lsl #3
	add	r2, r4, r2, lsl #2
	ldrh	r1, [r2, #4]
	.loc 1 903 33 view .LVU730
	uxth	r2, r6
	.loc 1 902 30 view .LVU731
	cmp	r1, r2
	bne	.L113
	.loc 1 907 3 is_stmt 1 view .LVU732
	.loc 1 907 6 is_stmt 0 view .LVU733
	cbz	r5, .L114
	.loc 1 907 35 discriminator 1 view .LVU734
	add	r2, r3, r3, lsl #3
	add	r2, r4, r2, lsl #2
	ldr	r2, [r2, #24]
	.loc 1 907 13 discriminator 1 view .LVU735
	cmp	r2, r5
	bne	.L113
.L114:
	.loc 1 911 3 is_stmt 1 view .LVU736
	.loc 1 911 10 is_stmt 0 view .LVU737
	add	r3, r3, r3, lsl #3
.LVL159:
	.loc 1 911 10 view .LVU738
	ldr	r4, .L119+4
	add	r4, r4, r3, lsl #2
.LVL160:
	.loc 1 912 3 is_stmt 1 view .LVU739
	b	.L115
.LVL161:
.L118:
	.loc 1 892 24 is_stmt 0 view .LVU740
	movs	r4, #0
.LVL162:
.L115:
	.loc 1 916 2 is_stmt 1 view .LVU741
.LBB2469:
.LBI2469:
	.loc 8 917 19 view .LVU742
.LBB2470:
	.loc 8 925 2 view .LVU743
	.loc 8 925 7 view .LVU744
	.loc 8 925 55 view .LVU745
	.loc 8 926 2 view .LVU746
	.loc 8 926 9 is_stmt 0 view .LVU747
	ldr	r0, .L119
	bl	z_impl_k_mutex_unlock
.LVL163:
	.loc 8 926 9 view .LVU748
.LBE2470:
.LBE2469:
	.loc 1 918 2 is_stmt 1 view .LVU749
	.loc 1 919 1 is_stmt 0 view .LVU750
	mov	r0, r4
	pop	{r4, r5, r6, pc}
.LVL164:
.L120:
	.loc 1 919 1 view .LVU751
	.align	2
.L119:
	.word	.LANCHOR2
	.word	.LANCHOR3
	.cfi_endproc
.LFE979:
	.size	iface_router_find_default, .-iface_router_find_default
	.section	.text.if_ipv4_get_addr,"ax",%progbits
	.align	1
	.syntax unified
	.thumb
	.thumb_func
	.fpu fpv4-sp-d16
	.type	if_ipv4_get_addr, %function
if_ipv4_get_addr:
.LVL165:
.LFB1065:
	.loc 1 3137 1 is_stmt 1 view -0
	.cfi_startproc
	@ args = 0, pretend = 0, frame = 0
	@ frame_needed = 0, uses_anonymous_args = 0
	.loc 1 3137 1 is_stmt 0 view .LVU753
	push	{r3, r4, r5, r6, r7, lr}
	.cfi_def_cfa_offset 24
	.cfi_offset 3, -24
	.cfi_offset 4, -20
	.cfi_offset 5, -16
	.cfi_offset 6, -12
	.cfi_offset 7, -8
	.cfi_offset 14, -4
	mov	r4, r0
	mov	r6, r1
	mov	r5, r2
	.loc 1 3138 2 is_stmt 1 view .LVU754
.LVL166:
	.loc 1 3139 2 view .LVU755
	.loc 1 3140 2 view .LVU756
	.loc 1 3142 2 view .LVU757
.LBB2471:
.LBI2471:
	.loc 8 899 19 view .LVU758
.LBB2472:
	.loc 8 909 2 view .LVU759
	.loc 8 909 7 view .LVU760
	.loc 8 909 55 view .LVU761
	.loc 8 910 2 view .LVU762
	.loc 8 910 9 is_stmt 0 view .LVU763
	mov	r2, #-1
.LVL167:
	.loc 8 910 9 view .LVU764
	mov	r3, #-1
	ldr	r0, .L134
.LVL168:
	.loc 8 910 9 view .LVU765
	bl	z_impl_k_mutex_lock
.LVL169:
	.loc 8 910 9 view .LVU766
.LBE2472:
.LBE2471:
	.loc 1 3144 2 is_stmt 1 view .LVU767
	.loc 1 3144 5 is_stmt 0 view .LVU768
	cbz	r4, .L122
	.loc 1 3148 2 is_stmt 1 view .LVU769
	.loc 1 3148 7 is_stmt 0 view .LVU770
	ldr	r4, [r4, #532]
.LVL170:
	.loc 1 3149 2 is_stmt 1 view .LVU771
	.loc 1 3149 5 is_stmt 0 view .LVU772
	cbnz	r4, .L132
.LVL171:
.L122:
	.loc 1 3176 2 is_stmt 1 view .LVU773
.LBB2473:
.LBI2473:
	.loc 8 917 19 view .LVU774
.LBB2474:
	.loc 8 925 2 view .LVU775
	.loc 8 925 7 view .LVU776
	.loc 8 925 55 view .LVU777
	.loc 8 926 2 view .LVU778
	.loc 8 926 9 is_stmt 0 view .LVU779
	ldr	r0, .L134
	bl	z_impl_k_mutex_unlock
.LVL172:
	.loc 8 926 9 view .LVU780
.LBE2474:
.LBE2473:
	.loc 1 3178 2 is_stmt 1 view .LVU781
	.loc 1 3179 1 is_stmt 0 view .LVU782
	mov	r0, r4
	pop	{r3, r4, r5, r6, r7, pc}
.LVL173:
.L132:
	.loc 1 3153 9 view .LVU783
	movs	r3, #0
.L123:
.LVL174:
	.loc 1 3153 14 is_stmt 1 discriminator 1 view .LVU784
	.loc 1 3153 2 is_stmt 0 discriminator 1 view .LVU785
	cmp	r3, #0
	ble	.L127
	.loc 1 3138 18 view .LVU786
	movs	r4, #0
.LVL175:
	.loc 1 3175 1 view .LVU787
	b	.L122
.LVL176:
.L127:
	.loc 1 3154 3 is_stmt 1 view .LVU788
	.loc 1 3154 24 is_stmt 0 view .LVU789
	add	r2, r3, r3, lsl #1
	add	r2, r4, r2, lsl #4
	ldrb	r2, [r2, #47]	@ zero_extendqisi2
	.loc 1 3154 6 view .LVU790
	tst	r2, #2
	beq	.L124
	.loc 1 3154 33 discriminator 1 view .LVU791
	cmp	r6, #-1
	beq	.L125
	.loc 1 3156 24 view .LVU792
	add	r2, r3, r3, lsl #1
	add	r2, r4, r2, lsl #4
	ldrsb	r2, [r2, #45]
	.loc 1 3155 41 view .LVU793
	cmp	r2, r6
	bne	.L124
.L125:
	.loc 1 3157 31 view .LVU794
	add	r2, r3, r3, lsl #1
	lsls	r2, r2, #4
	ldrh	r2, [r4, r2]
	.loc 1 3156 51 view .LVU795
	cmp	r2, #1
	bne	.L124
	.loc 1 3161 3 is_stmt 1 view .LVU796
	.loc 1 3161 27 is_stmt 0 view .LVU797
	add	r1, r3, r3, lsl #1
	add	r1, r4, r1, lsl #4
.LVL177:
.LBB2475:
.LBI2475:
	.loc 3 725 19 is_stmt 1 view .LVU798
.LBB2476:
	.loc 3 727 2 view .LVU799
.LBB2477:
	.loc 3 727 43 view .LVU800
	.loc 3 727 158 view .LVU801
	.loc 3 727 161 is_stmt 0 view .LVU802
	ldr	r0, [r1, #4]!	@ unaligned
.LVL178:
	.loc 3 727 161 view .LVU803
.LBE2477:
.LBB2478:
	.loc 3 727 209 is_stmt 1 view .LVU804
	.loc 3 727 324 view .LVU805
.LBE2478:
	.loc 3 727 338 is_stmt 0 view .LVU806
	lsrs	r2, r0, #8
	.loc 3 727 344 view .LVU807
	and	r2, r2, #65280
	.loc 3 727 187 view .LVU808
	orr	r2, r2, r0, lsr #24
.LBB2479:
	.loc 3 727 376 is_stmt 1 view .LVU809
.LVL179:
	.loc 3 727 491 view .LVU810
.LBE2479:
	.loc 3 727 515 is_stmt 0 view .LVU811
	lsls	r7, r0, #8
	and	r7, r7, #16711680
	.loc 3 727 354 view .LVU812
	orrs	r2, r2, r7
.LBB2480:
	.loc 3 727 543 is_stmt 1 view .LVU813
.LVL180:
	.loc 3 727 658 view .LVU814
.LBE2480:
	.loc 3 727 11 is_stmt 0 view .LVU815
	orr	r2, r2, r0, lsl #24
.LVL181:
	.loc 3 727 11 view .LVU816
.LBE2476:
.LBE2475:
	.loc 1 3161 6 view .LVU817
	ldr	r0, .L134+4
	bics	r2, r0, r2
	beq	.L133
	.loc 1 3166 4 is_stmt 1 view .LVU818
	.loc 1 3166 7 is_stmt 0 view .LVU819
	cbnz	r5, .L124
	.loc 1 3171 8 view .LVU820
	mov	r4, r1
.LVL182:
	.loc 1 3171 8 view .LVU821
	b	.L122
.LVL183:
.L133:
	.loc 1 3162 4 is_stmt 1 view .LVU822
	.loc 1 3162 7 is_stmt 0 view .LVU823
	cbz	r5, .L124
	.loc 1 3171 8 view .LVU824
	mov	r4, r1
.LVL184:
	.loc 1 3171 8 view .LVU825
	b	.L122
.LVL185:
.L124:
	.loc 1 3153 21 is_stmt 1 discriminator 2 view .LVU826
	.loc 1 3153 22 is_stmt 0 discriminator 2 view .LVU827
	adds	r3, r3, #1
.LVL186:
	.loc 1 3153 22 discriminator 2 view .LVU828
	b	.L123
.L135:
	.align	2
.L134:
	.word	.LANCHOR2
	.word	-1442971648
	.cfi_endproc
.LFE1065:
	.size	if_ipv4_get_addr, .-if_ipv4_get_addr
	.section	.text.ipv6_addr_find,"ax",%progbits
	.align	1
	.syntax unified
	.thumb
	.thumb_func
	.fpu fpv4-sp-d16
	.type	ipv6_addr_find, %function
ipv6_addr_find:
.LVL187:
.LFB1006:
	.loc 1 1619 1 is_stmt 1 view -0
	.cfi_startproc
	@ args = 0, pretend = 0, frame = 0
	@ frame_needed = 0, uses_anonymous_args = 0
	.loc 1 1619 1 is_stmt 0 view .LVU830
	push	{r4, r5, r6, lr}
	.cfi_def_cfa_offset 16
	.cfi_offset 4, -16
	.cfi_offset 5, -12
	.cfi_offset 6, -8
	.cfi_offset 14, -4
	mov	r6, r1
	.loc 1 1620 2 is_stmt 1 view .LVU831
	.loc 1 1620 22 is_stmt 0 view .LVU832
	ldr	r5, [r0, #528]
.LVL188:
	.loc 1 1621 2 is_stmt 1 view .LVU833
	.loc 1 1623 2 view .LVU834
	.loc 1 1623 9 is_stmt 0 view .LVU835
	movs	r4, #0
	.loc 1 1623 2 view .LVU836
	b	.L137
.LVL189:
.L138:
	.loc 1 1623 21 is_stmt 1 discriminator 2 view .LVU837
	.loc 1 1623 22 is_stmt 0 discriminator 2 view .LVU838
	adds	r4, r4, #1
.LVL190:
.L137:
	.loc 1 1623 14 is_stmt 1 discriminator 1 view .LVU839
	.loc 1 1623 2 is_stmt 0 discriminator 1 view .LVU840
	cmp	r4, #1
	bgt	.L142
	.loc 1 1624 3 is_stmt 1 view .LVU841
	.loc 1 1624 24 is_stmt 0 view .LVU842
	add	r3, r4, r4, lsl #1
	add	r3, r5, r3, lsl #4
	ldrb	r3, [r3, #47]	@ zero_extendqisi2
	.loc 1 1624 6 view .LVU843
	tst	r3, #2
	beq	.L138
	.loc 1 1628 3 is_stmt 1 view .LVU844
	.loc 1 1629 14 is_stmt 0 view .LVU845
	add	r1, r4, r4, lsl #1
	add	r1, r5, r1, lsl #4
.LVL191:
.LBB2481:
.LBI2481:
	.loc 3 803 19 is_stmt 1 view .LVU846
.LBB2482:
	.loc 3 806 2 view .LVU847
	.loc 3 806 10 is_stmt 0 view .LVU848
	movs	r2, #16
	adds	r1, r1, #4
.LVL192:
	.loc 3 806 10 view .LVU849
	mov	r0, r6
	bl	memcmp
.LVL193:
	.loc 3 806 10 view .LVU850
.LBE2482:
.LBE2481:
	.loc 1 1628 6 view .LVU851
	cmp	r0, #0
	bne	.L138
	.loc 1 1631 4 is_stmt 1 view .LVU852
	.loc 1 1631 11 is_stmt 0 view .LVU853
	add	r4, r4, r4, lsl #1
.LVL194:
	.loc 1 1631 11 view .LVU854
	add	r0, r5, r4, lsl #4
	b	.L136
.LVL195:
.L142:
	.loc 1 1635 8 view .LVU855
	movs	r0, #0
.LVL196:
.L136:
	.loc 1 1636 1 view .LVU856
	pop	{r4, r5, r6, pc}
	.loc 1 1636 1 view .LVU857
	.cfi_endproc
.LFE1006:
	.size	ipv6_addr_find, .-ipv6_addr_find
	.section	.text.ipv6_prefix_find,"ax",%progbits
	.align	1
	.syntax unified
	.thumb
	.thumb_func
	.fpu fpv4-sp-d16
	.type	ipv6_prefix_find, %function
ipv6_prefix_find:
.LVL197:
.LFB1022:
	.loc 1 2158 1 is_stmt 1 view -0
	.cfi_startproc
	@ args = 0, pretend = 0, frame = 0
	@ frame_needed = 0, uses_anonymous_args = 0
	.loc 1 2158 1 is_stmt 0 view .LVU859
	push	{r3, r4, r5, r6, r7, lr}
	.cfi_def_cfa_offset 24
	.cfi_offset 3, -24
	.cfi_offset 4, -20
	.cfi_offset 5, -16
	.cfi_offset 6, -12
	.cfi_offset 7, -8
	.cfi_offset 14, -4
	.loc 1 2159 2 is_stmt 1 view .LVU860
	.loc 1 2159 22 is_stmt 0 view .LVU861
	ldr	r5, [r0, #528]
.LVL198:
	.loc 1 2160 2 is_stmt 1 view .LVU862
	.loc 1 2162 2 view .LVU863
	.loc 1 2162 5 is_stmt 0 view .LVU864
	cbz	r5, .L143
	mov	r6, r1
	mov	r7, r2
	.loc 1 2166 9 view .LVU865
	movs	r4, #0
	b	.L145
.LVL199:
.L146:
	.loc 1 2166 21 is_stmt 1 discriminator 2 view .LVU866
	.loc 1 2166 22 is_stmt 0 discriminator 2 view .LVU867
	adds	r4, r4, #1
.LVL200:
.L145:
	.loc 1 2166 14 is_stmt 1 discriminator 1 view .LVU868
	.loc 1 2166 2 is_stmt 0 discriminator 1 view .LVU869
	cmp	r4, #1
	bgt	.L149
	.loc 1 2167 3 is_stmt 1 view .LVU870
	.loc 1 2167 23 is_stmt 0 view .LVU871
	add	r3, r4, r4, lsl #2
	add	r3, r5, r3, lsl #3
	ldrb	r3, [r3, #205]	@ zero_extendqisi2
	.loc 1 2167 6 view .LVU872
	tst	r3, #2
	beq	.L146
	.loc 1 2171 3 is_stmt 1 view .LVU873
	.loc 1 2171 33 is_stmt 0 view .LVU874
	add	r3, r4, r4, lsl #2
	lsls	r3, r3, #3
	adds	r3, r3, #184
.LVL201:
.LBB2483:
.LBI2483:
	.loc 3 803 19 is_stmt 1 view .LVU875
.LBB2484:
	.loc 3 806 2 view .LVU876
	.loc 3 806 10 is_stmt 0 view .LVU877
	movs	r2, #16
	adds	r1, r5, r3
.LVL202:
	.loc 3 806 10 view .LVU878
	mov	r0, r6
	bl	memcmp
.LVL203:
	.loc 3 806 10 view .LVU879
.LBE2484:
.LBE2483:
	.loc 1 2171 6 view .LVU880
	cmp	r0, #0
	bne	.L146
	.loc 1 2172 36 discriminator 1 view .LVU881
	add	r3, r4, r4, lsl #2
	add	r3, r5, r3, lsl #3
	ldrb	r3, [r3, #204]	@ zero_extendqisi2
	.loc 1 2171 58 discriminator 1 view .LVU882
	cmp	r3, r7
	bne	.L146
	.loc 1 2173 4 is_stmt 1 view .LVU883
	.loc 1 2173 11 is_stmt 0 view .LVU884
	add	r3, r4, r4, lsl #2
	lsls	r3, r3, #3
	adds	r3, r3, #168
	add	r5, r5, r3
.LVL204:
	.loc 1 2173 11 view .LVU885
	b	.L143
.LVL205:
.L149:
	.loc 1 2177 8 view .LVU886
	movs	r5, #0
.LVL206:
.L143:
	.loc 1 2178 1 view .LVU887
	mov	r0, r5
	pop	{r3, r4, r5, r6, r7, pc}
	.cfi_endproc
.LFE1022:
	.size	ipv6_prefix_find, .-ipv6_prefix_find
	.section	.text.iface_router_lookup,"ax",%progbits
	.align	1
	.syntax unified
	.thumb
	.thumb_func
	.fpu fpv4-sp-d16
	.type	iface_router_lookup, %function
iface_router_lookup:
.LVL207:
.LFB971:
	.loc 1 647 1 is_stmt 1 view -0
	.cfi_startproc
	@ args = 0, pretend = 0, frame = 0
	@ frame_needed = 0, uses_anonymous_args = 0
	.loc 1 647 1 is_stmt 0 view .LVU889
	push	{r4, r5, r6, r7, r8, lr}
	.cfi_def_cfa_offset 24
	.cfi_offset 4, -24
	.cfi_offset 5, -20
	.cfi_offset 6, -16
	.cfi_offset 7, -12
	.cfi_offset 8, -8
	.cfi_offset 14, -4
	mov	r7, r0
	mov	r6, r1
	mov	r8, r2
	.loc 1 648 2 is_stmt 1 view .LVU890
.LVL208:
	.loc 1 649 2 view .LVU891
	.loc 1 651 2 view .LVU892
.LBB2485:
.LBI2485:
	.loc 8 899 19 view .LVU893
.LBB2486:
	.loc 8 909 2 view .LVU894
	.loc 8 909 7 view .LVU895
	.loc 8 909 55 view .LVU896
	.loc 8 910 2 view .LVU897
	.loc 8 910 9 is_stmt 0 view .LVU898
	mov	r2, #-1
.LVL209:
	.loc 8 910 9 view .LVU899
	mov	r3, #-1
	ldr	r0, .L160
.LVL210:
	.loc 8 910 9 view .LVU900
	bl	z_impl_k_mutex_lock
.LVL211:
	.loc 8 910 9 view .LVU901
.LBE2486:
.LBE2485:
	.loc 1 653 2 is_stmt 1 view .LVU902
	.loc 1 653 9 is_stmt 0 view .LVU903
	movs	r4, #0
	.loc 1 653 2 view .LVU904
	b	.L151
.LVL212:
.L159:
.LBB2487:
.LBI2487:
	.loc 2 1227 32 is_stmt 1 discriminator 1 view .LVU905
.LBB2488:
	.loc 2 1229 2 discriminator 1 view .LVU906
	.loc 2 1229 9 is_stmt 0 discriminator 1 view .LVU907
	add	r0, r4, r4, lsl #3
	add	r0, r5, r0, lsl #2
.LVL213:
	.loc 2 1229 9 discriminator 1 view .LVU908
.LBE2488:
.LBE2487:
.LBB2489:
.LBI2489:
	.loc 3 803 19 is_stmt 1 discriminator 1 view .LVU909
.LBB2490:
	.loc 3 806 2 discriminator 1 view .LVU910
	.loc 3 806 10 is_stmt 0 discriminator 1 view .LVU911
	movs	r2, #16
	mov	r1, r8
	adds	r0, r0, #8
.LVL214:
	.loc 3 806 10 discriminator 1 view .LVU912
	bl	memcmp
.LVL215:
	.loc 3 806 10 discriminator 1 view .LVU913
.LBE2490:
.LBE2489:
	.loc 1 660 25 discriminator 1 view .LVU914
	cbnz	r0, .L153
	.loc 1 660 25 discriminator 1 view .LVU915
	b	.L154
.L152:
	.loc 1 653 21 is_stmt 1 discriminator 2 view .LVU916
	.loc 1 653 22 is_stmt 0 discriminator 2 view .LVU917
	adds	r4, r4, #1
.LVL216:
.L151:
	.loc 1 653 14 is_stmt 1 discriminator 1 view .LVU918
	.loc 1 653 2 is_stmt 0 discriminator 1 view .LVU919
	cmp	r4, #1
	bgt	.L158
	.loc 1 654 3 is_stmt 1 view .LVU920
	.loc 1 654 18 is_stmt 0 view .LVU921
	add	r3, r4, r4, lsl #3
	ldr	r5, .L160+4
	add	r3, r5, r3, lsl #2
	ldrb	r3, [r3, #34]	@ zero_extendqisi2
	.loc 1 654 6 view .LVU922
	tst	r3, #1
	beq	.L152
	.loc 1 655 25 discriminator 1 view .LVU923
	add	r3, r4, r4, lsl #3
	add	r3, r5, r3, lsl #2
	ldrh	r2, [r3, #4]
	.loc 1 655 33 discriminator 1 view .LVU924
	uxth	r3, r6
	.loc 1 654 27 discriminator 1 view .LVU925
	cmp	r2, r3
	bne	.L152
	.loc 1 656 17 view .LVU926
	add	r3, r4, r4, lsl #3
	add	r3, r5, r3, lsl #2
	ldr	r3, [r3, #24]
	.loc 1 655 43 view .LVU927
	cmp	r3, r7
	bne	.L152
	.loc 1 660 3 is_stmt 1 view .LVU928
	.loc 1 660 6 is_stmt 0 view .LVU929
	cmp	r6, #2
	beq	.L159
.L153:
	.loc 1 662 38 view .LVU930
	cmp	r6, #1
	bne	.L152
.LVL217:
.LBB2491:
.LBI2491:
	.loc 2 1686 31 is_stmt 1 view .LVU931
.LBB2492:
	.loc 2 1688 2 view .LVU932
	.loc 2 1688 9 is_stmt 0 view .LVU933
	add	r3, r4, r4, lsl #3
	ldr	r2, .L160+4
	add	r3, r2, r3, lsl #2
.LVL218:
	.loc 2 1688 9 view .LVU934
.LBE2492:
.LBE2491:
.LBB2493:
.LBI2493:
	.loc 3 774 19 is_stmt 1 view .LVU935
.LBE2493:
	.loc 3 777 2 view .LVU936
.LBB2496:
.LBB2494:
	.loc 3 777 26 view .LVU937
	.loc 3 777 143 view .LVU938
	.loc 3 777 146 is_stmt 0 view .LVU939
	ldr	r2, [r3, #8]	@ unaligned
.LBE2494:
.LBB2495:
	.loc 3 777 176 is_stmt 1 view .LVU940
.LVL219:
	.loc 3 777 293 view .LVU941
	.loc 3 777 296 is_stmt 0 view .LVU942
	ldr	r3, [r8]	@ unaligned
.LVL220:
	.loc 3 777 296 view .LVU943
.LBE2495:
.LBE2496:
	.loc 1 663 25 view .LVU944
	cmp	r2, r3
	bne	.L152
.LVL221:
.L154:
	.loc 1 666 4 is_stmt 1 view .LVU945
	.loc 1 666 11 is_stmt 0 view .LVU946
	add	r4, r4, r4, lsl #3
.LVL222:
	.loc 1 666 11 view .LVU947
	ldr	r3, .L160+4
	add	r4, r3, r4, lsl #2
.LVL223:
	.loc 1 667 4 is_stmt 1 view .LVU948
	b	.L155
.LVL224:
.L158:
	.loc 1 648 24 is_stmt 0 view .LVU949
	movs	r4, #0
.LVL225:
.L155:
	.loc 1 672 2 is_stmt 1 view .LVU950
.LBB2497:
.LBI2497:
	.loc 8 917 19 view .LVU951
.LBB2498:
	.loc 8 925 2 view .LVU952
	.loc 8 925 7 view .LVU953
	.loc 8 925 55 view .LVU954
	.loc 8 926 2 view .LVU955
	.loc 8 926 9 is_stmt 0 view .LVU956
	ldr	r0, .L160
	bl	z_impl_k_mutex_unlock
.LVL226:
	.loc 8 926 9 view .LVU957
.LBE2498:
.LBE2497:
	.loc 1 674 2 is_stmt 1 view .LVU958
	.loc 1 675 1 is_stmt 0 view .LVU959
	mov	r0, r4
	pop	{r4, r5, r6, r7, r8, pc}
.LVL227:
.L161:
	.loc 1 675 1 view .LVU960
	.align	2
.L160:
	.word	.LANCHOR2
	.word	.LANCHOR3
	.cfi_endproc
.LFE971:
	.size	iface_router_lookup, .-iface_router_lookup
	.global	__aeabi_uldivmod
	.section	.text.net_if_ipv6_start_dad,"ax",%progbits
	.align	1
	.syntax unified
	.thumb
	.thumb_func
	.fpu fpv4-sp-d16
	.type	net_if_ipv6_start_dad, %function
net_if_ipv6_start_dad:
.LVL228:
.LFB991:
	.loc 1 1188 1 is_stmt 1 view -0
	.cfi_startproc
	@ args = 0, pretend = 0, frame = 0
	@ frame_needed = 0, uses_anonymous_args = 0
	.loc 1 1189 2 view .LVU962
	.loc 1 1189 21 is_stmt 0 view .LVU963
	movs	r3, #0
	strb	r3, [r1, #45]
	.loc 1 1191 2 is_stmt 1 view .LVU964
.LVL229:
.LBB2499:
.LBI2499:
	.loc 2 2022 19 view .LVU965
.LBE2499:
	.loc 2 2024 4 view .LVU966
	.loc 2 2024 5 view .LVU967
	.loc 2 2026 2 view .LVU968
.LBB2508:
.LBB2500:
.LBI2500:
	.loc 2 541 19 view .LVU969
.LBB2501:
	.loc 2 544 2 view .LVU970
	.loc 2 544 5 is_stmt 0 view .LVU971
	cmp	r0, #0
	beq	.L167
.LBE2501:
.LBE2500:
.LBE2508:
	.loc 1 1188 1 view .LVU972
	push	{r4, lr}
	.cfi_def_cfa_offset 8
	.cfi_offset 4, -8
	.cfi_offset 14, -4
	mov	r4, r1
.LBB2509:
.LBB2507:
.LBB2506:
	.loc 2 548 2 is_stmt 1 view .LVU973
	.loc 2 548 30 is_stmt 0 view .LVU974
	ldr	r2, [r0]
.LVL230:
.LBB2502:
.LBI2502:
	.file 9 "/home/sebin/thesis/zephyrproject/zephyr/include/sys/atomic.h"
	.loc 9 128 19 is_stmt 1 view .LVU975
.LBB2503:
	.loc 9 130 2 view .LVU976
.LBB2504:
.LBI2504:
	.file 10 "/home/sebin/thesis/zephyrproject/zephyr/include/sys/atomic_builtin.h"
	.loc 10 138 28 view .LVU977
.LBB2505:
	.loc 10 140 2 view .LVU978
	.loc 10 140 9 is_stmt 0 view .LVU979
	dmb	ish
	ldr	r2, [r2, #12]
.LVL231:
	.loc 10 140 9 view .LVU980
	dmb	ish
.LVL232:
	.loc 10 140 9 view .LVU981
.LBE2505:
.LBE2504:
	.loc 9 132 2 is_stmt 1 view .LVU982
	.loc 9 132 2 is_stmt 0 view .LVU983
.LBE2503:
.LBE2502:
.LBE2506:
.LBE2507:
.LBE2509:
	.loc 1 1191 5 view .LVU984
	tst	r2, #1
	bne	.L170
.LVL233:
.L162:
	.loc 1 1218 1 view .LVU985
	pop	{r4, pc}
.LVL234:
.L170:
	.loc 1 1192 3 is_stmt 1 view .LVU986
.LBB2510:
	.loc 1 1192 8 view .LVU987
.LBE2510:
	.loc 1 1192 317 view .LVU988
	.loc 1 1200 3 view .LVU989
	.loc 1 1200 21 is_stmt 0 view .LVU990
	movs	r2, #1
.LVL235:
	.loc 1 1200 21 view .LVU991
	strb	r2, [r1, #46]
	.loc 1 1202 3 is_stmt 1 view .LVU992
	.loc 1 1202 8 is_stmt 0 view .LVU993
	bl	net_ipv6_start_dad
.LVL236:
	.loc 1 1202 6 view .LVU994
	cmp	r0, #0
	bne	.L162
	.loc 1 1203 4 is_stmt 1 view .LVU995
.LBB2511:
.LBI2511:
	.file 11 "/home/sebin/thesis/zephyrproject/zephyr/include/kernel.h"
	.loc 11 1563 24 view .LVU996
.LBB2512:
	.loc 11 1565 2 view .LVU997
.LBB2513:
.LBI2513:
	.loc 11 1539 23 view .LVU998
.LBB2514:
	.loc 11 1541 2 view .LVU999
.LBB2515:
.LBI2515:
	.loc 8 562 23 view .LVU1000
.LBB2516:
	.loc 8 572 2 view .LVU1001
	.loc 8 572 7 view .LVU1002
	.loc 8 572 55 view .LVU1003
	.loc 8 573 2 view .LVU1004
	.loc 8 573 9 is_stmt 0 view .LVU1005
	bl	z_impl_k_uptime_ticks
.LVL237:
	.loc 8 573 9 view .LVU1006
.LBE2516:
.LBE2515:
.LBB2517:
.LBI2517:
	.file 12 "/home/sebin/thesis/zephyrproject/zephyr/include/sys/time_units.h"
	.loc 12 1102 24 is_stmt 1 view .LVU1007
.LBE2517:
.LBE2514:
.LBE2513:
.LBE2512:
.LBE2511:
	.loc 12 1105 2 view .LVU1008
.LBB2530:
.LBB2528:
.LBB2526:
.LBB2524:
.LBB2522:
.LBB2518:
.LBI2518:
	.loc 12 101 55 view .LVU1009
.LBB2519:
	.loc 12 106 1 view .LVU1010
	.loc 12 108 1 view .LVU1011
	.loc 12 111 2 view .LVU1012
	.loc 12 115 2 view .LVU1013
	.loc 12 117 2 view .LVU1014
.LBE2519:
.LBE2518:
.LBE2522:
.LBE2524:
.LBE2526:
.LBE2528:
.LBE2530:
	.loc 12 118 3 view .LVU1015
	.loc 12 120 3 view .LVU1016
	.loc 12 123 3 view .LVU1017
.LBB2531:
.LBB2529:
.LBB2527:
.LBB2525:
.LBB2523:
.LBB2521:
.LBB2520:
	.loc 12 133 2 view .LVU1018
	.loc 12 134 3 view .LVU1019
	.loc 12 135 3 view .LVU1020
	.loc 12 138 4 view .LVU1021
	.loc 12 138 13 is_stmt 0 view .LVU1022
	movs	r2, #10
	movs	r3, #0
	bl	__aeabi_uldivmod
.LVL238:
	.loc 12 138 13 view .LVU1023
.LBE2520:
.LBE2521:
.LBE2523:
.LBE2525:
.LBE2527:
.LBE2529:
.LBE2531:
	.loc 1 1203 22 view .LVU1024
	str	r0, [r4, #40]
	.loc 1 1204 4 is_stmt 1 view .LVU1025
	add	r3, r4, #36
.LVL239:
.LBB2532:
.LBI2532:
	.file 13 "/home/sebin/thesis/zephyrproject/zephyr/include/sys/slist.h"
	.loc 13 311 20 view .LVU1026
.LBB2533:
	.loc 13 311 77 view .LVU1027
.LBB2534:
.LBI2534:
	.loc 13 209 20 view .LVU1028
.LBB2535:
	.loc 13 211 2 view .LVU1029
	.loc 13 211 15 is_stmt 0 view .LVU1030
	movs	r2, #0
	str	r2, [r4, #36]
.LVL240:
	.loc 13 211 15 view .LVU1031
.LBE2535:
.LBE2534:
	.loc 13 311 4 is_stmt 1 view .LVU1032
.LBB2536:
.LBI2536:
	.loc 13 243 28 view .LVU1033
.LBB2537:
	.loc 13 245 2 view .LVU1034
	.loc 13 245 13 is_stmt 0 view .LVU1035
	ldr	r2, .L172
	ldr	r2, [r2, #4]
.LVL241:
	.loc 13 245 13 view .LVU1036
.LBE2537:
.LBE2536:
	.loc 13 311 7 view .LVU1037
	cbz	r2, .L171
	.loc 13 311 74 is_stmt 1 view .LVU1038
.LVL242:
	.loc 13 311 74 is_stmt 0 view .LVU1039
.LBE2533:
.LBE2532:
	.loc 13 245 2 is_stmt 1 view .LVU1040
.LBB2548:
.LBB2546:
.LBB2538:
.LBI2538:
	.loc 13 209 20 view .LVU1041
.LBB2539:
	.loc 13 211 2 view .LVU1042
	.loc 13 211 15 is_stmt 0 view .LVU1043
	str	r3, [r2]
.LVL243:
	.loc 13 211 15 view .LVU1044
.LBE2539:
.LBE2538:
	.loc 13 311 126 is_stmt 1 view .LVU1045
.LBB2540:
.LBI2540:
	.loc 13 219 20 view .LVU1046
.LBB2541:
	.loc 13 221 2 view .LVU1047
	.loc 13 221 13 is_stmt 0 view .LVU1048
	ldr	r2, .L172
	str	r3, [r2, #4]
.LVL244:
.L165:
	.loc 13 221 13 view .LVU1049
.LBE2541:
.LBE2540:
.LBE2546:
.LBE2548:
	.loc 1 1207 4 is_stmt 1 view .LVU1050
.LBB2549:
.LBI2549:
	.loc 11 3765 25 view .LVU1051
.LBB2550:
	.loc 11 3768 2 view .LVU1052
	.loc 11 3768 9 is_stmt 0 view .LVU1053
	ldr	r0, .L172+4
	bl	z_timeout_remaining
.LVL245:
	.loc 11 3768 9 view .LVU1054
.LBE2550:
.LBE2549:
	.loc 1 1207 7 view .LVU1055
	orrs	r3, r0, r1
	bne	.L162
.LBB2551:
	.loc 1 1208 5 is_stmt 1 view .LVU1056
.LVL246:
	.loc 1 1208 5 is_stmt 0 view .LVU1057
.LBE2551:
	.loc 12 405 2 is_stmt 1 view .LVU1058
	.loc 12 106 1 view .LVU1059
	.loc 12 108 1 view .LVU1060
	.loc 12 111 2 view .LVU1061
	.loc 12 115 2 view .LVU1062
	.loc 12 117 2 view .LVU1063
	.loc 12 133 2 view .LVU1064
	.loc 12 140 9 view .LVU1065
	.loc 12 141 3 view .LVU1066
	.loc 12 144 4 view .LVU1067
.LBB2552:
	.loc 1 1208 5 is_stmt 0 view .LVU1068
	mov	r2, #1000
	movs	r3, #0
	ldr	r0, .L172+8
	bl	k_work_reschedule
.LVL247:
.LBE2552:
	.loc 1 1213 217 is_stmt 1 view .LVU1069
	.loc 1 1218 1 is_stmt 0 view .LVU1070
	b	.L162
.LVL248:
.L171:
.LBB2553:
.LBB2547:
	.loc 13 311 5 is_stmt 1 view .LVU1071
.LBB2542:
.LBI2542:
	.loc 13 219 20 view .LVU1072
.LBB2543:
	.loc 13 221 2 view .LVU1073
	.loc 13 221 13 is_stmt 0 view .LVU1074
	ldr	r2, .L172
	str	r3, [r2, #4]
.LVL249:
	.loc 13 221 13 view .LVU1075
.LBE2543:
.LBE2542:
	.loc 13 311 35 is_stmt 1 view .LVU1076
.LBB2544:
.LBI2544:
	.loc 13 214 20 view .LVU1077
.LBB2545:
	.loc 13 216 2 view .LVU1078
	.loc 13 216 13 is_stmt 0 view .LVU1079
	str	r3, [r2]
	.loc 13 217 1 view .LVU1080
	b	.L165
.LVL250:
.L167:
	.cfi_def_cfa_offset 0
	.cfi_restore 4
	.cfi_restore 14
	.loc 13 217 1 view .LVU1081
	bx	lr
.L173:
	.align	2
.L172:
	.word	.LANCHOR4
	.word	.LANCHOR5+16
	.word	.LANCHOR5
.LBE2545:
.LBE2544:
.LBE2547:
.LBE2553:
	.cfi_endproc
.LFE991:
	.size	net_if_ipv6_start_dad, .-net_if_ipv6_start_dad
	.section	.text.iface_router_notify_deletion,"ax",%progbits
	.align	1
	.syntax unified
	.thumb
	.thumb_func
	.fpu fpv4-sp-d16
	.type	iface_router_notify_deletion, %function
iface_router_notify_deletion:
.LVL251:
.LFB972:
	.loc 1 679 1 is_stmt 1 view -0
	.cfi_startproc
	@ args = 0, pretend = 0, frame = 0
	@ frame_needed = 0, uses_anonymous_args = 0
	.loc 1 679 1 is_stmt 0 view .LVU1083
	push	{r3, lr}
	.cfi_def_cfa_offset 8
	.cfi_offset 3, -8
	.cfi_offset 14, -4
	.loc 1 680 2 is_stmt 1 view .LVU1084
	.loc 1 681 21 is_stmt 0 view .LVU1085
	ldrh	r3, [r0, #4]
	.loc 1 680 5 view .LVU1086
	cmp	r3, #2
	beq	.L178
	.loc 1 691 9 is_stmt 1 view .LVU1087
	.loc 1 691 12 is_stmt 0 view .LVU1088
	cmp	r3, #1
	beq	.L179
.LVL252:
.L174:
	.loc 1 703 1 view .LVU1089
	pop	{r3, pc}
.LVL253:
.L178:
	.loc 1 682 3 is_stmt 1 view .LVU1090
.LBB2554:
	.loc 1 682 8 view .LVU1091
.LBE2554:
	.loc 1 682 195 view .LVU1092
	.loc 1 687 3 view .LVU1093
	movs	r3, #16
	add	r2, r0, #8
	ldr	r1, [r0, #24]
.LVL254:
	.loc 1 687 3 is_stmt 0 view .LVU1094
	ldr	r0, .L180
.LVL255:
	.loc 1 687 3 view .LVU1095
	bl	net_mgmt_event_notify_with_info
.LVL256:
	.loc 1 687 3 view .LVU1096
	b	.L174
.LVL257:
.L179:
	.loc 1 693 3 is_stmt 1 view .LVU1097
.LBB2555:
	.loc 1 693 8 view .LVU1098
.LBE2555:
	.loc 1 693 195 view .LVU1099
	.loc 1 698 3 view .LVU1100
	movs	r3, #16
	add	r2, r0, #8
	ldr	r1, [r0, #24]
.LVL258:
	.loc 1 698 3 is_stmt 0 view .LVU1101
	ldr	r0, .L180+4
.LVL259:
	.loc 1 698 3 view .LVU1102
	bl	net_mgmt_event_notify_with_info
.LVL260:
	.loc 1 703 1 view .LVU1103
	b	.L174
.L181:
	.align	2
.L180:
	.word	-530579446
	.word	-536608762
	.cfi_endproc
.LFE972:
	.size	iface_router_notify_deletion, .-iface_router_notify_deletion
	.section	.text.address_start_timer,"ax",%progbits
	.align	1
	.syntax unified
	.thumb
	.thumb_func
	.fpu fpv4-sp-d16
	.type	address_start_timer, %function
address_start_timer:
.LVL261:
.LFB1004:
	.loc 1 1593 1 is_stmt 1 view -0
	.cfi_startproc
	@ args = 0, pretend = 0, frame = 0
	@ frame_needed = 0, uses_anonymous_args = 0
	.loc 1 1593 1 is_stmt 0 view .LVU1105
	push	{r3, r4, r5, lr}
	.cfi_def_cfa_offset 16
	.cfi_offset 3, -16
	.cfi_offset 4, -12
	.cfi_offset 5, -8
	.cfi_offset 14, -4
	mov	r4, r0
	mov	r5, r1
	.loc 1 1594 2 is_stmt 1 view .LVU1106
	add	r3, r0, #20
.LVL262:
.LBB2556:
.LBI2556:
	.loc 13 311 20 view .LVU1107
.LBB2557:
	.loc 13 311 77 view .LVU1108
.LBB2558:
.LBI2558:
	.loc 13 209 20 view .LVU1109
.LBB2559:
	.loc 13 211 2 view .LVU1110
	.loc 13 211 15 is_stmt 0 view .LVU1111
	movs	r2, #0
	str	r2, [r0, #20]
.LVL263:
	.loc 13 211 15 view .LVU1112
.LBE2559:
.LBE2558:
	.loc 13 311 4 is_stmt 1 view .LVU1113
.LBB2560:
.LBI2560:
	.loc 13 243 28 view .LVU1114
.LBB2561:
	.loc 13 245 2 view .LVU1115
	.loc 13 245 13 is_stmt 0 view .LVU1116
	ldr	r2, .L187
	ldr	r2, [r2, #4]
.LVL264:
	.loc 13 245 13 view .LVU1117
.LBE2561:
.LBE2560:
	.loc 13 311 7 view .LVU1118
	cbz	r2, .L186
	.loc 13 311 74 is_stmt 1 view .LVU1119
.LVL265:
	.loc 13 311 74 is_stmt 0 view .LVU1120
.LBE2557:
.LBE2556:
	.loc 13 245 2 is_stmt 1 view .LVU1121
.LBB2572:
.LBB2570:
.LBB2562:
.LBI2562:
	.loc 13 209 20 view .LVU1122
.LBB2563:
	.loc 13 211 2 view .LVU1123
	.loc 13 211 15 is_stmt 0 view .LVU1124
	str	r3, [r2]
.LVL266:
	.loc 13 211 15 view .LVU1125
.LBE2563:
.LBE2562:
	.loc 13 311 126 is_stmt 1 view .LVU1126
.LBB2564:
.LBI2564:
	.loc 13 219 20 view .LVU1127
.LBB2565:
	.loc 13 221 2 view .LVU1128
	.loc 13 221 13 is_stmt 0 view .LVU1129
	ldr	r2, .L187
	str	r3, [r2, #4]
.LVL267:
.L184:
	.loc 13 221 13 view .LVU1130
.LBE2565:
.LBE2564:
.LBE2570:
.LBE2572:
	.loc 1 1597 2 is_stmt 1 view .LVU1131
.LBB2573:
.LBI2573:
	.loc 11 1563 24 view .LVU1132
.LBB2574:
	.loc 11 1565 2 view .LVU1133
.LBB2575:
.LBI2575:
	.loc 11 1539 23 view .LVU1134
.LBB2576:
	.loc 11 1541 2 view .LVU1135
.LBB2577:
.LBI2577:
	.loc 8 562 23 view .LVU1136
.LBB2578:
	.loc 8 572 2 view .LVU1137
	.loc 8 572 7 view .LVU1138
	.loc 8 572 55 view .LVU1139
	.loc 8 573 2 view .LVU1140
	.loc 8 573 9 is_stmt 0 view .LVU1141
	bl	z_impl_k_uptime_ticks
.LVL268:
	.loc 8 573 9 view .LVU1142
.LBE2578:
.LBE2577:
.LBB2579:
.LBI2579:
	.loc 12 1102 24 is_stmt 1 view .LVU1143
.LBE2579:
.LBE2576:
.LBE2575:
.LBE2574:
.LBE2573:
	.loc 12 1105 2 view .LVU1144
.LBB2592:
.LBB2590:
.LBB2588:
.LBB2586:
.LBB2584:
.LBB2580:
.LBI2580:
	.loc 12 101 55 view .LVU1145
.LBB2581:
	.loc 12 106 1 view .LVU1146
	.loc 12 108 1 view .LVU1147
	.loc 12 111 2 view .LVU1148
	.loc 12 115 2 view .LVU1149
	.loc 12 117 2 view .LVU1150
.LBE2581:
.LBE2580:
.LBE2584:
.LBE2586:
.LBE2588:
.LBE2590:
.LBE2592:
	.loc 12 118 3 view .LVU1151
	.loc 12 120 3 view .LVU1152
	.loc 12 123 3 view .LVU1153
.LBB2593:
.LBB2591:
.LBB2589:
.LBB2587:
.LBB2585:
.LBB2583:
.LBB2582:
	.loc 12 133 2 view .LVU1154
	.loc 12 134 3 view .LVU1155
	.loc 12 135 3 view .LVU1156
	.loc 12 138 4 view .LVU1157
	.loc 12 138 13 is_stmt 0 view .LVU1158
	movs	r2, #10
	movs	r3, #0
	bl	__aeabi_uldivmod
.LVL269:
	.loc 12 138 13 view .LVU1159
	mov	r2, r0
.LVL270:
	.loc 12 138 13 view .LVU1160
.LBE2582:
.LBE2583:
.LBE2585:
.LBE2587:
.LBE2589:
.LBE2591:
.LBE2593:
	.loc 1 1597 2 view .LVU1161
	mov	r1, r5
	add	r0, r4, #20
	bl	net_timeout_set
.LVL271:
	.loc 1 1598 2 is_stmt 1 view .LVU1162
	movs	r2, #0
	movs	r3, #0
	ldr	r0, .L187+4
	bl	k_work_reschedule
.LVL272:
	.loc 1 1599 1 is_stmt 0 view .LVU1163
	pop	{r3, r4, r5, pc}
.LVL273:
.L186:
.LBB2594:
.LBB2571:
	.loc 13 311 5 is_stmt 1 view .LVU1164
.LBB2566:
.LBI2566:
	.loc 13 219 20 view .LVU1165
.LBB2567:
	.loc 13 221 2 view .LVU1166
	.loc 13 221 13 is_stmt 0 view .LVU1167
	ldr	r2, .L187
	str	r3, [r2, #4]
.LVL274:
	.loc 13 221 13 view .LVU1168
.LBE2567:
.LBE2566:
	.loc 13 311 35 is_stmt 1 view .LVU1169
.LBB2568:
.LBI2568:
	.loc 13 214 20 view .LVU1170
.LBB2569:
	.loc 13 216 2 view .LVU1171
	.loc 13 216 13 is_stmt 0 view .LVU1172
	str	r3, [r2]
	.loc 13 217 1 view .LVU1173
	b	.L184
.L188:
	.align	2
.L187:
	.word	.LANCHOR6
	.word	.LANCHOR7
.LBE2569:
.LBE2568:
.LBE2571:
.LBE2594:
	.cfi_endproc
.LFE1004:
	.size	address_start_timer, .-address_start_timer
	.section	.text.prefix_start_timer,"ax",%progbits
	.align	1
	.syntax unified
	.thumb
	.thumb_func
	.fpu fpv4-sp-d16
	.type	prefix_start_timer, %function
prefix_start_timer:
.LVL275:
.LFB1021:
	.loc 1 2141 1 is_stmt 1 view -0
	.cfi_startproc
	@ args = 0, pretend = 0, frame = 0
	@ frame_needed = 0, uses_anonymous_args = 0
	.loc 1 2141 1 is_stmt 0 view .LVU1175
	push	{r4, r5, r6, lr}
	.cfi_def_cfa_offset 16
	.cfi_offset 4, -16
	.cfi_offset 5, -12
	.cfi_offset 6, -8
	.cfi_offset 14, -4
	mov	r5, r0
	mov	r6, r1
	.loc 1 2142 2 is_stmt 1 view .LVU1176
.LVL276:
.LBB2595:
.LBI2595:
	.loc 8 899 19 view .LVU1177
.LBB2596:
	.loc 8 909 2 view .LVU1178
	.loc 8 909 7 view .LVU1179
	.loc 8 909 55 view .LVU1180
	.loc 8 910 2 view .LVU1181
	.loc 8 910 9 is_stmt 0 view .LVU1182
	mov	r2, #-1
	mov	r3, #-1
	ldr	r0, .L203
.LVL277:
	.loc 8 910 9 view .LVU1183
	bl	z_impl_k_mutex_lock
.LVL278:
	.loc 8 910 9 view .LVU1184
.LBE2596:
.LBE2595:
	.loc 1 2144 2 is_stmt 1 view .LVU1185
	.loc 1 2144 8 is_stmt 0 view .LVU1186
	mov	r4, r5
.LVL279:
.LBB2597:
.LBI2597:
	.loc 13 417 1 is_stmt 1 view .LVU1187
.LBB2598:
	.loc 13 417 67 view .LVU1188
	.loc 13 417 3 view .LVU1189
	.loc 13 417 22 view .LVU1190
.LBB2599:
.LBI2599:
	.loc 13 231 28 view .LVU1191
.LBB2600:
	.loc 13 233 2 view .LVU1192
	.loc 13 233 13 is_stmt 0 view .LVU1193
	ldr	r3, .L203+4
	ldr	r3, [r3]
.LVL280:
	.loc 13 233 13 view .LVU1194
.LBE2600:
.LBE2599:
	.loc 13 417 80 view .LVU1195
	movs	r2, #0
.LVL281:
.L190:
	.loc 13 417 61 is_stmt 1 view .LVU1196
	.loc 13 417 22 is_stmt 0 view .LVU1197
	cbz	r3, .L194
	.loc 13 417 39 is_stmt 1 view .LVU1198
	.loc 13 417 42 is_stmt 0 view .LVU1199
	cmp	r4, r3
	beq	.L199
	.loc 13 417 5 is_stmt 1 view .LVU1200
.LVL282:
	.loc 13 417 3 view .LVU1201
.LBB2601:
.LBI2601:
	.loc 13 285 29 view .LVU1202
.LBE2601:
.LBE2598:
.LBE2597:
	.loc 13 285 70 view .LVU1203
.LBB2635:
.LBB2630:
.LBB2606:
.LBB2602:
.LBI2602:
	.loc 13 274 29 view .LVU1204
.LBE2602:
.LBE2606:
.LBE2630:
.LBE2635:
	.loc 13 274 79 view .LVU1205
.LBB2636:
.LBB2631:
.LBB2607:
.LBB2605:
.LBB2603:
.LBI2603:
	.loc 13 204 28 view .LVU1206
.LBB2604:
	.loc 13 206 2 view .LVU1207
	.loc 13 206 2 is_stmt 0 view .LVU1208
.LBE2604:
.LBE2603:
.LBE2605:
.LBE2607:
	.loc 13 417 10 view .LVU1209
	mov	r2, r3
	.loc 13 417 10 view .LVU1210
	ldr	r3, [r3]
.LVL283:
	.loc 13 417 10 view .LVU1211
	b	.L190
.L199:
	.loc 13 417 59 is_stmt 1 view .LVU1212
.LVL284:
.LBB2608:
.LBI2608:
	.loc 13 401 20 view .LVU1213
.LBB2609:
	.loc 13 401 101 view .LVU1214
	.loc 13 401 104 is_stmt 0 view .LVU1215
	cbz	r2, .L200
	.loc 13 401 157 is_stmt 1 view .LVU1216
.LVL285:
.LBB2610:
.LBI2610:
	.loc 13 204 28 view .LVU1217
.LBB2611:
	.loc 13 206 2 view .LVU1218
	.loc 13 206 13 is_stmt 0 view .LVU1219
	ldr	r3, [r5]
.LVL286:
	.loc 13 206 13 view .LVU1220
.LBE2611:
.LBE2610:
.LBB2612:
.LBI2612:
	.loc 13 209 20 is_stmt 1 view .LVU1221
.LBB2613:
	.loc 13 211 2 view .LVU1222
	.loc 13 211 15 is_stmt 0 view .LVU1223
	str	r3, [r2]
.LVL287:
	.loc 13 211 15 view .LVU1224
.LBE2613:
.LBE2612:
	.loc 13 401 211 is_stmt 1 view .LVU1225
.LBB2614:
.LBI2614:
	.loc 13 243 28 view .LVU1226
.LBB2615:
	.loc 13 245 2 view .LVU1227
	.loc 13 245 13 is_stmt 0 view .LVU1228
	ldr	r3, .L203+4
	ldr	r3, [r3, #4]
.LVL288:
	.loc 13 245 13 view .LVU1229
.LBE2615:
.LBE2614:
	.loc 13 401 214 view .LVU1230
	cmp	r5, r3
	beq	.L201
.LVL289:
.L194:
	.loc 13 401 214 view .LVU1231
.LBE2609:
.LBE2608:
.LBE2631:
.LBE2636:
	.loc 1 2146 2 is_stmt 1 view .LVU1232
.LBB2637:
.LBI2637:
	.loc 13 311 20 view .LVU1233
.LBB2638:
	.loc 13 311 77 view .LVU1234
.LBB2639:
.LBI2639:
	.loc 13 209 20 view .LVU1235
.LBB2640:
	.loc 13 211 2 view .LVU1236
	.loc 13 211 15 is_stmt 0 view .LVU1237
	movs	r3, #0
	str	r3, [r5]
.LVL290:
	.loc 13 211 15 view .LVU1238
.LBE2640:
.LBE2639:
	.loc 13 311 4 is_stmt 1 view .LVU1239
.LBB2641:
.LBI2641:
	.loc 13 243 28 view .LVU1240
.LBB2642:
	.loc 13 245 2 view .LVU1241
	.loc 13 245 13 is_stmt 0 view .LVU1242
	ldr	r3, .L203+4
	ldr	r3, [r3, #4]
.LVL291:
	.loc 13 245 13 view .LVU1243
.LBE2642:
.LBE2641:
	.loc 13 311 7 view .LVU1244
	cbz	r3, .L202
	.loc 13 311 74 is_stmt 1 view .LVU1245
.LVL292:
	.loc 13 311 74 is_stmt 0 view .LVU1246
.LBE2638:
.LBE2637:
	.loc 13 245 2 is_stmt 1 view .LVU1247
.LBB2653:
.LBB2651:
.LBB2643:
.LBI2643:
	.loc 13 209 20 view .LVU1248
.LBB2644:
	.loc 13 211 2 view .LVU1249
	.loc 13 211 15 is_stmt 0 view .LVU1250
	str	r5, [r3]
.LVL293:
	.loc 13 211 15 view .LVU1251
.LBE2644:
.LBE2643:
	.loc 13 311 126 is_stmt 1 view .LVU1252
.LBB2645:
.LBI2645:
	.loc 13 219 20 view .LVU1253
.LBB2646:
	.loc 13 221 2 view .LVU1254
	.loc 13 221 13 is_stmt 0 view .LVU1255
	ldr	r3, .L203+4
	str	r5, [r3, #4]
.LVL294:
.L197:
	.loc 13 221 13 view .LVU1256
.LBE2646:
.LBE2645:
.LBE2651:
.LBE2653:
	.loc 1 2149 2 is_stmt 1 view .LVU1257
.LBB2654:
.LBI2654:
	.loc 11 1563 24 view .LVU1258
.LBB2655:
	.loc 11 1565 2 view .LVU1259
.LBB2656:
.LBI2656:
	.loc 11 1539 23 view .LVU1260
.LBB2657:
	.loc 11 1541 2 view .LVU1261
.LBB2658:
.LBI2658:
	.loc 8 562 23 view .LVU1262
.LBB2659:
	.loc 8 572 2 view .LVU1263
	.loc 8 572 7 view .LVU1264
	.loc 8 572 55 view .LVU1265
	.loc 8 573 2 view .LVU1266
	.loc 8 573 9 is_stmt 0 view .LVU1267
	bl	z_impl_k_uptime_ticks
.LVL295:
	.loc 8 573 9 view .LVU1268
.LBE2659:
.LBE2658:
.LBB2660:
.LBI2660:
	.loc 12 1102 24 is_stmt 1 view .LVU1269
.LBE2660:
.LBE2657:
.LBE2656:
.LBE2655:
.LBE2654:
	.loc 12 1105 2 view .LVU1270
.LBB2673:
.LBB2671:
.LBB2669:
.LBB2667:
.LBB2665:
.LBB2661:
.LBI2661:
	.loc 12 101 55 view .LVU1271
.LBB2662:
	.loc 12 106 1 view .LVU1272
	.loc 12 108 1 view .LVU1273
	.loc 12 111 2 view .LVU1274
	.loc 12 115 2 view .LVU1275
	.loc 12 117 2 view .LVU1276
.LBE2662:
.LBE2661:
.LBE2665:
.LBE2667:
.LBE2669:
.LBE2671:
.LBE2673:
	.loc 12 118 3 view .LVU1277
	.loc 12 120 3 view .LVU1278
	.loc 12 123 3 view .LVU1279
.LBB2674:
.LBB2672:
.LBB2670:
.LBB2668:
.LBB2666:
.LBB2664:
.LBB2663:
	.loc 12 133 2 view .LVU1280
	.loc 12 134 3 view .LVU1281
	.loc 12 135 3 view .LVU1282
	.loc 12 138 4 view .LVU1283
	.loc 12 138 13 is_stmt 0 view .LVU1284
	movs	r2, #10
	movs	r3, #0
	bl	__aeabi_uldivmod
.LVL296:
	.loc 12 138 13 view .LVU1285
	mov	r2, r0
.LVL297:
	.loc 12 138 13 view .LVU1286
.LBE2663:
.LBE2664:
.LBE2666:
.LBE2668:
.LBE2670:
.LBE2672:
.LBE2674:
	.loc 1 2149 2 view .LVU1287
	mov	r1, r6
	mov	r0, r5
	bl	net_timeout_set
.LVL298:
	.loc 1 2150 2 is_stmt 1 view .LVU1288
	movs	r2, #0
	movs	r3, #0
	ldr	r0, .L203+8
	bl	k_work_reschedule
.LVL299:
	.loc 1 2152 2 view .LVU1289
.LBB2675:
.LBI2675:
	.loc 8 917 19 view .LVU1290
.LBB2676:
	.loc 8 925 2 view .LVU1291
	.loc 8 925 7 view .LVU1292
	.loc 8 925 55 view .LVU1293
	.loc 8 926 2 view .LVU1294
	.loc 8 926 9 is_stmt 0 view .LVU1295
	ldr	r0, .L203
	bl	z_impl_k_mutex_unlock
.LVL300:
	.loc 8 926 9 view .LVU1296
.LBE2676:
.LBE2675:
	.loc 1 2153 1 view .LVU1297
	pop	{r4, r5, r6, pc}
.LVL301:
.L200:
.LBB2677:
.LBB2632:
.LBB2628:
.LBB2626:
	.loc 13 401 5 is_stmt 1 view .LVU1298
.LBB2616:
.LBI2616:
	.loc 13 204 28 view .LVU1299
.LBB2617:
	.loc 13 206 2 view .LVU1300
	.loc 13 206 13 is_stmt 0 view .LVU1301
	ldr	r2, [r5]
.LVL302:
	.loc 13 206 13 view .LVU1302
.LBE2617:
.LBE2616:
.LBB2618:
.LBI2618:
	.loc 13 214 20 is_stmt 1 view .LVU1303
.LBB2619:
	.loc 13 216 2 view .LVU1304
	.loc 13 216 13 is_stmt 0 view .LVU1305
	ldr	r3, .L203+4
.LVL303:
	.loc 13 216 13 view .LVU1306
	str	r2, [r3]
.LVL304:
	.loc 13 216 13 view .LVU1307
.LBE2619:
.LBE2618:
	.loc 13 401 54 is_stmt 1 view .LVU1308
.LBB2620:
.LBI2620:
	.loc 13 243 28 view .LVU1309
.LBB2621:
	.loc 13 245 2 view .LVU1310
	.loc 13 245 13 is_stmt 0 view .LVU1311
	ldr	r3, [r3, #4]
.LVL305:
	.loc 13 245 13 view .LVU1312
.LBE2621:
.LBE2620:
	.loc 13 401 57 view .LVU1313
	cmp	r5, r3
	bne	.L194
	.loc 13 401 95 is_stmt 1 view .LVU1314
.LVL306:
	.loc 13 401 95 is_stmt 0 view .LVU1315
.LBE2626:
.LBE2628:
.LBE2632:
.LBE2677:
	.loc 13 233 2 is_stmt 1 view .LVU1316
.LBB2678:
.LBB2633:
.LBB2629:
.LBB2627:
.LBB2622:
.LBI2622:
	.loc 13 219 20 view .LVU1317
.LBB2623:
	.loc 13 221 2 view .LVU1318
	.loc 13 221 13 is_stmt 0 view .LVU1319
	ldr	r3, .L203+4
	str	r2, [r3, #4]
	.loc 13 222 1 view .LVU1320
	b	.L194
.LVL307:
.L201:
	.loc 13 222 1 view .LVU1321
.LBE2623:
.LBE2622:
	.loc 13 401 252 is_stmt 1 view .LVU1322
.LBB2624:
.LBI2624:
	.loc 13 219 20 view .LVU1323
.LBB2625:
	.loc 13 221 2 view .LVU1324
	.loc 13 221 13 is_stmt 0 view .LVU1325
	ldr	r3, .L203+4
	str	r2, [r3, #4]
.LVL308:
	.loc 13 221 13 view .LVU1326
.LBE2625:
.LBE2624:
	.loc 13 401 291 is_stmt 1 view .LVU1327
	.loc 13 401 291 is_stmt 0 view .LVU1328
.LBE2627:
.LBE2629:
.LBE2633:
.LBE2678:
	.loc 13 211 2 is_stmt 1 view .LVU1329
.LBB2679:
.LBB2634:
	.loc 13 417 95 view .LVU1330
	.loc 13 417 1 is_stmt 0 view .LVU1331
	b	.L194
.LVL309:
.L202:
	.loc 13 417 1 view .LVU1332
.LBE2634:
.LBE2679:
.LBB2680:
.LBB2652:
	.loc 13 311 5 is_stmt 1 view .LVU1333
.LBB2647:
.LBI2647:
	.loc 13 219 20 view .LVU1334
.LBB2648:
	.loc 13 221 2 view .LVU1335
	.loc 13 221 13 is_stmt 0 view .LVU1336
	ldr	r3, .L203+4
	str	r5, [r3, #4]
.LVL310:
	.loc 13 221 13 view .LVU1337
.LBE2648:
.LBE2647:
	.loc 13 311 35 is_stmt 1 view .LVU1338
.LBB2649:
.LBI2649:
	.loc 13 214 20 view .LVU1339
.LBB2650:
	.loc 13 216 2 view .LVU1340
	.loc 13 216 13 is_stmt 0 view .LVU1341
	str	r5, [r3]
	.loc 13 217 1 view .LVU1342
	b	.L197
.L204:
	.align	2
.L203:
	.word	.LANCHOR2
	.word	.LANCHOR8
	.word	.LANCHOR9
.LBE2650:
.LBE2649:
.LBE2652:
.LBE2680:
	.cfi_endproc
.LFE1021:
	.size	prefix_start_timer, .-prefix_start_timer
	.section	.text.prefix_timer_remove,"ax",%progbits
	.align	1
	.syntax unified
	.thumb
	.thumb_func
	.fpu fpv4-sp-d16
	.type	prefix_timer_remove, %function
prefix_timer_remove:
.LVL311:
.LFB1019:
	.loc 1 2087 1 is_stmt 1 view -0
	.cfi_startproc
	@ args = 0, pretend = 0, frame = 0
	@ frame_needed = 0, uses_anonymous_args = 0
	.loc 1 2087 1 is_stmt 0 view .LVU1344
	push	{r4, lr}
	.cfi_def_cfa_offset 8
	.cfi_offset 4, -8
	.cfi_offset 14, -4
	mov	r4, r0
	.loc 1 2088 2 is_stmt 1 view .LVU1345
.LVL312:
.LBB2681:
.LBI2681:
	.loc 8 899 19 view .LVU1346
.LBB2682:
	.loc 8 909 2 view .LVU1347
	.loc 8 909 7 view .LVU1348
	.loc 8 909 55 view .LVU1349
	.loc 8 910 2 view .LVU1350
	.loc 8 910 9 is_stmt 0 view .LVU1351
	mov	r2, #-1
	mov	r3, #-1
	ldr	r0, .L216
.LVL313:
	.loc 8 910 9 view .LVU1352
	bl	z_impl_k_mutex_lock
.LVL314:
	.loc 8 910 9 view .LVU1353
.LBE2682:
.LBE2681:
	.loc 1 2090 2 is_stmt 1 view .LVU1354
.LBB2683:
	.loc 1 2090 7 view .LVU1355
.LBE2683:
	.loc 1 2090 193 view .LVU1356
	.loc 1 2094 2 view .LVU1357
	mov	r1, r4
.LVL315:
.LBB2684:
.LBI2684:
	.loc 13 417 1 view .LVU1358
.LBB2685:
	.loc 13 417 67 view .LVU1359
	.loc 13 417 3 view .LVU1360
	.loc 13 417 22 view .LVU1361
.LBB2686:
.LBI2686:
	.loc 13 231 28 view .LVU1362
.LBB2687:
	.loc 13 233 2 view .LVU1363
	.loc 13 233 13 is_stmt 0 view .LVU1364
	ldr	r3, .L216+4
	ldr	r3, [r3]
.LVL316:
	.loc 13 233 13 view .LVU1365
.LBE2687:
.LBE2686:
	.loc 13 417 80 view .LVU1366
	movs	r2, #0
.LVL317:
.L206:
	.loc 13 417 61 is_stmt 1 view .LVU1367
	.loc 13 417 22 is_stmt 0 view .LVU1368
	cbz	r3, .L210
	.loc 13 417 39 is_stmt 1 view .LVU1369
	.loc 13 417 42 is_stmt 0 view .LVU1370
	cmp	r3, r1
	beq	.L213
	.loc 13 417 5 is_stmt 1 view .LVU1371
.LVL318:
	.loc 13 417 3 view .LVU1372
.LBB2688:
.LBI2688:
	.loc 13 285 29 view .LVU1373
.LBE2688:
.LBE2685:
.LBE2684:
	.loc 13 285 70 view .LVU1374
.LBB2723:
.LBB2719:
.LBB2693:
.LBB2689:
.LBI2689:
	.loc 13 274 29 view .LVU1375
.LBE2689:
.LBE2693:
.LBE2719:
.LBE2723:
	.loc 13 274 79 view .LVU1376
.LBB2724:
.LBB2720:
.LBB2694:
.LBB2692:
.LBB2690:
.LBI2690:
	.loc 13 204 28 view .LVU1377
.LBB2691:
	.loc 13 206 2 view .LVU1378
	.loc 13 206 2 is_stmt 0 view .LVU1379
.LBE2691:
.LBE2690:
.LBE2692:
.LBE2694:
	.loc 13 417 10 view .LVU1380
	mov	r2, r3
	.loc 13 417 10 view .LVU1381
	ldr	r3, [r3]
.LVL319:
	.loc 13 417 10 view .LVU1382
	b	.L206
.L213:
	.loc 13 417 59 is_stmt 1 view .LVU1383
.LVL320:
.LBB2695:
.LBI2695:
	.loc 13 401 20 view .LVU1384
.LBB2696:
	.loc 13 401 101 view .LVU1385
	.loc 13 401 104 is_stmt 0 view .LVU1386
	cbz	r2, .L214
	.loc 13 401 157 is_stmt 1 view .LVU1387
.LVL321:
.LBB2697:
.LBI2697:
	.loc 13 204 28 view .LVU1388
.LBB2698:
	.loc 13 206 2 view .LVU1389
	.loc 13 206 13 is_stmt 0 view .LVU1390
	ldr	r3, [r4]
.LVL322:
	.loc 13 206 13 view .LVU1391
.LBE2698:
.LBE2697:
.LBB2699:
.LBI2699:
	.loc 13 209 20 is_stmt 1 view .LVU1392
.LBB2700:
	.loc 13 211 2 view .LVU1393
	.loc 13 211 15 is_stmt 0 view .LVU1394
	str	r3, [r2]
.LVL323:
	.loc 13 211 15 view .LVU1395
.LBE2700:
.LBE2699:
	.loc 13 401 211 is_stmt 1 view .LVU1396
.LBB2701:
.LBI2701:
	.loc 13 243 28 view .LVU1397
.LBB2702:
	.loc 13 245 2 view .LVU1398
	.loc 13 245 13 is_stmt 0 view .LVU1399
	ldr	r3, .L216+4
	ldr	r3, [r3, #4]
.LVL324:
	.loc 13 245 13 view .LVU1400
.LBE2702:
.LBE2701:
	.loc 13 401 214 view .LVU1401
	cmp	r3, r4
	beq	.L215
.LVL325:
.L209:
	.loc 13 401 291 is_stmt 1 view .LVU1402
.LBB2703:
.LBI2703:
	.loc 13 209 20 view .LVU1403
.LBB2704:
	.loc 13 211 2 view .LVU1404
	.loc 13 211 15 is_stmt 0 view .LVU1405
	movs	r3, #0
	str	r3, [r4]
.LVL326:
	.loc 13 211 15 view .LVU1406
.LBE2704:
.LBE2703:
.LBE2696:
.LBE2695:
	.loc 13 417 95 is_stmt 1 view .LVU1407
.L210:
	.loc 13 417 95 is_stmt 0 view .LVU1408
.LBE2720:
.LBE2724:
	.loc 1 2097 2 is_stmt 1 view .LVU1409
	movs	r2, #0
	mov	r1, r2
.LVL327:
	.loc 1 2097 2 is_stmt 0 view .LVU1410
	mov	r0, r4
	bl	net_timeout_set
.LVL328:
	.loc 1 2099 2 is_stmt 1 view .LVU1411
.LBB2725:
.LBI2725:
	.loc 8 917 19 view .LVU1412
.LBB2726:
	.loc 8 925 2 view .LVU1413
	.loc 8 925 7 view .LVU1414
	.loc 8 925 55 view .LVU1415
	.loc 8 926 2 view .LVU1416
	.loc 8 926 9 is_stmt 0 view .LVU1417
	ldr	r0, .L216
	bl	z_impl_k_mutex_unlock
.LVL329:
	.loc 8 926 9 view .LVU1418
.LBE2726:
.LBE2725:
	.loc 1 2100 1 view .LVU1419
	pop	{r4, pc}
.LVL330:
.L214:
.LBB2727:
.LBB2721:
.LBB2717:
.LBB2715:
	.loc 13 401 5 is_stmt 1 view .LVU1420
.LBB2705:
.LBI2705:
	.loc 13 204 28 view .LVU1421
.LBB2706:
	.loc 13 206 2 view .LVU1422
	.loc 13 206 13 is_stmt 0 view .LVU1423
	ldr	r2, [r4]
.LVL331:
	.loc 13 206 13 view .LVU1424
.LBE2706:
.LBE2705:
.LBB2707:
.LBI2707:
	.loc 13 214 20 is_stmt 1 view .LVU1425
.LBB2708:
	.loc 13 216 2 view .LVU1426
	.loc 13 216 13 is_stmt 0 view .LVU1427
	ldr	r3, .L216+4
.LVL332:
	.loc 13 216 13 view .LVU1428
	str	r2, [r3]
.LVL333:
	.loc 13 216 13 view .LVU1429
.LBE2708:
.LBE2707:
	.loc 13 401 54 is_stmt 1 view .LVU1430
.LBB2709:
.LBI2709:
	.loc 13 243 28 view .LVU1431
.LBB2710:
	.loc 13 245 2 view .LVU1432
	.loc 13 245 13 is_stmt 0 view .LVU1433
	ldr	r3, [r3, #4]
.LVL334:
	.loc 13 245 13 view .LVU1434
.LBE2710:
.LBE2709:
	.loc 13 401 57 view .LVU1435
	cmp	r3, r4
	bne	.L209
	.loc 13 401 95 is_stmt 1 view .LVU1436
.LVL335:
	.loc 13 401 95 is_stmt 0 view .LVU1437
.LBE2715:
.LBE2717:
.LBE2721:
.LBE2727:
	.loc 13 233 2 is_stmt 1 view .LVU1438
.LBB2728:
.LBB2722:
.LBB2718:
.LBB2716:
.LBB2711:
.LBI2711:
	.loc 13 219 20 view .LVU1439
.LBB2712:
	.loc 13 221 2 view .LVU1440
	.loc 13 221 13 is_stmt 0 view .LVU1441
	ldr	r3, .L216+4
	str	r2, [r3, #4]
	.loc 13 222 1 view .LVU1442
	b	.L209
.LVL336:
.L215:
	.loc 13 222 1 view .LVU1443
.LBE2712:
.LBE2711:
	.loc 13 401 252 is_stmt 1 view .LVU1444
.LBB2713:
.LBI2713:
	.loc 13 219 20 view .LVU1445
.LBB2714:
	.loc 13 221 2 view .LVU1446
	.loc 13 221 13 is_stmt 0 view .LVU1447
	ldr	r3, .L216+4
	str	r2, [r3, #4]
	.loc 13 222 1 view .LVU1448
	b	.L209
.L217:
	.align	2
.L216:
	.word	.LANCHOR2
	.word	.LANCHOR8
.LBE2714:
.LBE2713:
.LBE2716:
.LBE2718:
.LBE2722:
.LBE2728:
	.cfi_endproc
.LFE1019:
	.size	prefix_timer_remove, .-prefix_timer_remove
	.section	.text.address_expired,"ax",%progbits
	.align	1
	.syntax unified
	.thumb
	.thumb_func
	.fpu fpv4-sp-d16
	.type	address_expired, %function
address_expired:
.LVL337:
.LFB1002:
	.loc 1 1534 1 is_stmt 1 view -0
	.cfi_startproc
	@ args = 0, pretend = 0, frame = 0
	@ frame_needed = 0, uses_anonymous_args = 0
	.loc 1 1534 1 is_stmt 0 view .LVU1450
	push	{r3, lr}
	.cfi_def_cfa_offset 8
	.cfi_offset 3, -8
	.cfi_offset 14, -4
	.loc 1 1535 2 is_stmt 1 view .LVU1451
.LBB2729:
	.loc 1 1535 7 view .LVU1452
.LBE2729:
	.loc 1 1535 190 view .LVU1453
	.loc 1 1538 2 view .LVU1454
	.loc 1 1538 21 is_stmt 0 view .LVU1455
	movs	r3, #2
	strb	r3, [r0, #45]
	.loc 1 1540 2 is_stmt 1 view .LVU1456
	add	r2, r0, #20
.LVL338:
.LBB2730:
.LBI2730:
	.loc 13 417 1 view .LVU1457
.LBB2731:
	.loc 13 417 67 view .LVU1458
	.loc 13 417 3 view .LVU1459
	.loc 13 417 22 view .LVU1460
.LBB2732:
.LBI2732:
	.loc 13 231 28 view .LVU1461
.LBB2733:
	.loc 13 233 2 view .LVU1462
	.loc 13 233 13 is_stmt 0 view .LVU1463
	ldr	r3, .L229
	ldr	r3, [r3]
.LVL339:
	.loc 13 233 13 view .LVU1464
.LBE2733:
.LBE2732:
	.loc 13 417 80 view .LVU1465
	movs	r1, #0
.LVL340:
.L219:
	.loc 13 417 61 is_stmt 1 view .LVU1466
	.loc 13 417 22 is_stmt 0 view .LVU1467
	cbz	r3, .L223
	.loc 13 417 39 is_stmt 1 view .LVU1468
	.loc 13 417 42 is_stmt 0 view .LVU1469
	cmp	r3, r2
	beq	.L226
	.loc 13 417 5 is_stmt 1 view .LVU1470
.LVL341:
	.loc 13 417 3 view .LVU1471
.LBB2734:
.LBI2734:
	.loc 13 285 29 view .LVU1472
.LBE2734:
.LBE2731:
.LBE2730:
	.loc 13 285 70 view .LVU1473
.LBB2769:
.LBB2765:
.LBB2739:
.LBB2735:
.LBI2735:
	.loc 13 274 29 view .LVU1474
.LBE2735:
.LBE2739:
.LBE2765:
.LBE2769:
	.loc 13 274 79 view .LVU1475
.LBB2770:
.LBB2766:
.LBB2740:
.LBB2738:
.LBB2736:
.LBI2736:
	.loc 13 204 28 view .LVU1476
.LBB2737:
	.loc 13 206 2 view .LVU1477
	.loc 13 206 2 is_stmt 0 view .LVU1478
.LBE2737:
.LBE2736:
.LBE2738:
.LBE2740:
	.loc 13 417 10 view .LVU1479
	mov	r1, r3
	.loc 13 417 10 view .LVU1480
	ldr	r3, [r3]
.LVL342:
	.loc 13 417 10 view .LVU1481
	b	.L219
.L226:
	.loc 13 417 59 is_stmt 1 view .LVU1482
.LVL343:
.LBB2741:
.LBI2741:
	.loc 13 401 20 view .LVU1483
.LBB2742:
	.loc 13 401 101 view .LVU1484
	.loc 13 401 104 is_stmt 0 view .LVU1485
	cbz	r1, .L227
	.loc 13 401 157 is_stmt 1 view .LVU1486
.LVL344:
.LBB2743:
.LBI2743:
	.loc 13 204 28 view .LVU1487
.LBB2744:
	.loc 13 206 2 view .LVU1488
	.loc 13 206 13 is_stmt 0 view .LVU1489
	ldr	r3, [r0, #20]
.LVL345:
	.loc 13 206 13 view .LVU1490
.LBE2744:
.LBE2743:
.LBB2745:
.LBI2745:
	.loc 13 209 20 is_stmt 1 view .LVU1491
.LBB2746:
	.loc 13 211 2 view .LVU1492
	.loc 13 211 15 is_stmt 0 view .LVU1493
	str	r3, [r1]
.LVL346:
	.loc 13 211 15 view .LVU1494
.LBE2746:
.LBE2745:
	.loc 13 401 211 is_stmt 1 view .LVU1495
.LBB2747:
.LBI2747:
	.loc 13 243 28 view .LVU1496
.LBB2748:
	.loc 13 245 2 view .LVU1497
	.loc 13 245 13 is_stmt 0 view .LVU1498
	ldr	r3, .L229
	ldr	r3, [r3, #4]
.LVL347:
	.loc 13 245 13 view .LVU1499
.LBE2748:
.LBE2747:
	.loc 13 401 214 view .LVU1500
	cmp	r3, r2
	beq	.L228
.LVL348:
.L222:
	.loc 13 401 291 is_stmt 1 view .LVU1501
.LBB2749:
.LBI2749:
	.loc 13 209 20 view .LVU1502
.LBB2750:
	.loc 13 211 2 view .LVU1503
	.loc 13 211 15 is_stmt 0 view .LVU1504
	movs	r3, #0
	str	r3, [r0, #20]
.LVL349:
	.loc 13 211 15 view .LVU1505
.LBE2750:
.LBE2749:
.LBE2742:
.LBE2741:
	.loc 13 417 95 is_stmt 1 view .LVU1506
.L223:
	.loc 13 417 95 is_stmt 0 view .LVU1507
.LBE2766:
.LBE2770:
	.loc 1 1543 2 is_stmt 1 view .LVU1508
	movs	r2, #0
	mov	r1, r2
	adds	r0, r0, #20
.LVL350:
	.loc 1 1543 2 is_stmt 0 view .LVU1509
	bl	net_timeout_set
.LVL351:
	.loc 1 1544 1 view .LVU1510
	pop	{r3, pc}
.LVL352:
.L227:
.LBB2771:
.LBB2767:
.LBB2763:
.LBB2761:
	.loc 13 401 5 is_stmt 1 view .LVU1511
.LBB2751:
.LBI2751:
	.loc 13 204 28 view .LVU1512
.LBB2752:
	.loc 13 206 2 view .LVU1513
	.loc 13 206 13 is_stmt 0 view .LVU1514
	ldr	r1, [r0, #20]
.LVL353:
	.loc 13 206 13 view .LVU1515
.LBE2752:
.LBE2751:
.LBB2753:
.LBI2753:
	.loc 13 214 20 is_stmt 1 view .LVU1516
.LBB2754:
	.loc 13 216 2 view .LVU1517
	.loc 13 216 13 is_stmt 0 view .LVU1518
	ldr	r3, .L229
.LVL354:
	.loc 13 216 13 view .LVU1519
	str	r1, [r3]
.LVL355:
	.loc 13 216 13 view .LVU1520
.LBE2754:
.LBE2753:
	.loc 13 401 54 is_stmt 1 view .LVU1521
.LBB2755:
.LBI2755:
	.loc 13 243 28 view .LVU1522
.LBB2756:
	.loc 13 245 2 view .LVU1523
	.loc 13 245 13 is_stmt 0 view .LVU1524
	ldr	r3, [r3, #4]
.LVL356:
	.loc 13 245 13 view .LVU1525
.LBE2756:
.LBE2755:
	.loc 13 401 57 view .LVU1526
	cmp	r3, r2
	bne	.L222
	.loc 13 401 95 is_stmt 1 view .LVU1527
.LVL357:
	.loc 13 401 95 is_stmt 0 view .LVU1528
.LBE2761:
.LBE2763:
.LBE2767:
.LBE2771:
	.loc 13 233 2 is_stmt 1 view .LVU1529
.LBB2772:
.LBB2768:
.LBB2764:
.LBB2762:
.LBB2757:
.LBI2757:
	.loc 13 219 20 view .LVU1530
.LBB2758:
	.loc 13 221 2 view .LVU1531
	.loc 13 221 13 is_stmt 0 view .LVU1532
	ldr	r3, .L229
	str	r1, [r3, #4]
	.loc 13 222 1 view .LVU1533
	b	.L222
.LVL358:
.L228:
	.loc 13 222 1 view .LVU1534
.LBE2758:
.LBE2757:
	.loc 13 401 252 is_stmt 1 view .LVU1535
.LBB2759:
.LBI2759:
	.loc 13 219 20 view .LVU1536
.LBB2760:
	.loc 13 221 2 view .LVU1537
	.loc 13 221 13 is_stmt 0 view .LVU1538
	ldr	r3, .L229
	str	r1, [r3, #4]
	.loc 13 222 1 view .LVU1539
	b	.L222
.L230:
	.align	2
.L229:
	.word	.LANCHOR6
.LBE2760:
.LBE2759:
.LBE2762:
.LBE2764:
.LBE2768:
.LBE2772:
	.cfi_endproc
.LFE1002:
	.size	address_expired, .-address_expired
	.section	.rodata.join_mcast_allnodes.str1.4,"aMS",%progbits,1
	.align	2
.LC2:
	.ascii	"Cannot join all nodes address %s (%d)\000"
	.section	.text.join_mcast_allnodes,"ax",%progbits
	.align	1
	.syntax unified
	.thumb
	.thumb_func
	.fpu fpv4-sp-d16
	.type	join_mcast_allnodes, %function
join_mcast_allnodes:
.LVL359:
.LFB986:
	.loc 1 1054 1 is_stmt 1 view -0
	.cfi_startproc
	@ args = 0, pretend = 0, frame = 16
	@ frame_needed = 0, uses_anonymous_args = 0
	.loc 1 1054 1 is_stmt 0 view .LVU1541
	push	{r4, lr}
	.cfi_def_cfa_offset 8
	.cfi_offset 4, -8
	.cfi_offset 14, -4
	sub	sp, sp, #32
	.cfi_def_cfa_offset 40
	.loc 1 1055 2 is_stmt 1 view .LVU1542
	.loc 1 1056 2 view .LVU1543
	.loc 1 1058 2 view .LVU1544
.LVL360:
.LBB2773:
.LBI2773:
	.loc 3 1219 20 view .LVU1545
.LBE2773:
	.loc 3 1221 2 view .LVU1546
.LBB2791:
.LBB2774:
.LBI2774:
	.loc 3 1198 20 view .LVU1547
.LBE2774:
.LBE2791:
	.loc 3 1204 2 view .LVU1548
.LBB2792:
.LBB2783:
.LBB2775:
	.loc 3 1204 7 view .LVU1549
	.loc 3 1204 132 view .LVU1550
	.loc 3 1204 141 is_stmt 0 view .LVU1551
	movw	r3, #767
	strh	r3, [sp, #16]	@ movhi
	.loc 3 1204 211 is_stmt 1 view .LVU1552
	.loc 3 1204 216 view .LVU1553
	.loc 3 1204 264 view .LVU1554
.LBE2775:
.LBE2783:
.LBE2792:
	.loc 3 1204 12 view .LVU1555
	.loc 3 1205 2 view .LVU1556
.LBB2793:
.LBB2784:
.LBB2776:
	.loc 3 1205 7 view .LVU1557
.LVL361:
	.loc 3 1205 132 view .LVU1558
	.loc 3 1205 141 is_stmt 0 view .LVU1559
	movs	r3, #0
	strh	r3, [sp, #18]	@ movhi
	.loc 3 1205 211 is_stmt 1 view .LVU1560
	.loc 3 1205 216 view .LVU1561
	.loc 3 1205 264 view .LVU1562
.LBE2776:
.LBE2784:
.LBE2793:
	.loc 3 1205 12 view .LVU1563
	.loc 3 1206 2 view .LVU1564
.LBB2794:
.LBB2785:
.LBB2777:
	.loc 3 1206 7 view .LVU1565
.LVL362:
	.loc 3 1206 132 view .LVU1566
	.loc 3 1206 141 is_stmt 0 view .LVU1567
	strh	r3, [sp, #20]	@ movhi
	.loc 3 1206 211 is_stmt 1 view .LVU1568
	.loc 3 1206 216 view .LVU1569
	.loc 3 1206 264 view .LVU1570
.LBE2777:
.LBE2785:
.LBE2794:
	.loc 3 1206 12 view .LVU1571
	.loc 3 1207 2 view .LVU1572
.LBB2795:
.LBB2786:
.LBB2778:
	.loc 3 1207 7 view .LVU1573
.LVL363:
	.loc 3 1207 132 view .LVU1574
	.loc 3 1207 141 is_stmt 0 view .LVU1575
	strh	r3, [sp, #22]	@ movhi
	.loc 3 1207 211 is_stmt 1 view .LVU1576
	.loc 3 1207 216 view .LVU1577
	.loc 3 1207 264 view .LVU1578
.LBE2778:
.LBE2786:
.LBE2795:
	.loc 3 1207 12 view .LVU1579
	.loc 3 1208 2 view .LVU1580
.LBB2796:
.LBB2787:
.LBB2779:
	.loc 3 1208 7 view .LVU1581
.LVL364:
	.loc 3 1208 132 view .LVU1582
	.loc 3 1208 141 is_stmt 0 view .LVU1583
	strh	r3, [sp, #24]	@ movhi
	.loc 3 1208 211 is_stmt 1 view .LVU1584
	.loc 3 1208 216 view .LVU1585
	.loc 3 1208 264 view .LVU1586
.LBE2779:
.LBE2787:
.LBE2796:
	.loc 3 1208 12 view .LVU1587
	.loc 3 1209 2 view .LVU1588
.LBB2797:
.LBB2788:
.LBB2780:
	.loc 3 1209 7 view .LVU1589
.LVL365:
	.loc 3 1209 132 view .LVU1590
	.loc 3 1209 141 is_stmt 0 view .LVU1591
	strh	r3, [sp, #26]	@ movhi
	.loc 3 1209 211 is_stmt 1 view .LVU1592
	.loc 3 1209 216 view .LVU1593
	.loc 3 1209 264 view .LVU1594
.LBE2780:
.LBE2788:
.LBE2797:
	.loc 3 1209 12 view .LVU1595
	.loc 3 1210 2 view .LVU1596
.LBB2798:
.LBB2789:
.LBB2781:
	.loc 3 1210 7 view .LVU1597
.LVL366:
	.loc 3 1210 132 view .LVU1598
	.loc 3 1210 141 is_stmt 0 view .LVU1599
	strh	r3, [sp, #28]	@ movhi
	.loc 3 1210 211 is_stmt 1 view .LVU1600
	.loc 3 1210 216 view .LVU1601
	.loc 3 1210 264 view .LVU1602
.LBE2781:
.LBE2789:
.LBE2798:
	.loc 3 1210 12 view .LVU1603
	.loc 3 1211 2 view .LVU1604
.LBB2799:
.LBB2790:
.LBB2782:
	.loc 3 1211 7 view .LVU1605
.LVL367:
	.loc 3 1211 132 view .LVU1606
	.loc 3 1211 141 is_stmt 0 view .LVU1607
	mov	r3, #256
	strh	r3, [sp, #30]	@ movhi
	.loc 3 1211 211 is_stmt 1 view .LVU1608
	.loc 3 1211 216 view .LVU1609
	.loc 3 1211 264 view .LVU1610
.LBE2782:
.LBE2790:
.LBE2799:
	.loc 3 1211 12 view .LVU1611
.LVL368:
	.loc 1 1060 2 view .LVU1612
	.loc 1 1060 8 is_stmt 0 view .LVU1613
	add	r1, sp, #16
.LVL369:
	.loc 1 1060 8 view .LVU1614
	bl	net_ipv6_mld_join
.LVL370:
	.loc 1 1061 2 is_stmt 1 view .LVU1615
	.loc 1 1061 5 is_stmt 0 view .LVU1616
	subs	r4, r0, #0
	blt	.L234
.LVL371:
.L231:
	.loc 1 1065 1 view .LVU1617
	add	sp, sp, #32
	.cfi_remember_state
	.cfi_def_cfa_offset 8
	@ sp needed
	pop	{r4, pc}
.LVL372:
.L234:
	.cfi_restore_state
	.loc 1 1061 14 discriminator 1 view .LVU1618
	cmn	r4, #120
	beq	.L231
	.loc 1 1062 3 is_stmt 1 view .LVU1619
.LBB2800:
	.loc 1 1062 8 view .LVU1620
	.loc 1 1062 57 view .LVU1621
	.loc 1 1062 14 view .LVU1622
	.loc 1 1062 2 view .LVU1623
.LBE2800:
	.loc 5 120 2 view .LVU1624
.LVL373:
.LBB2804:
	.loc 1 1062 41 view .LVU1625
	.loc 1 1062 107 view .LVU1626
	.loc 1 1062 206 view .LVU1627
.LBB2801:
	.loc 1 1062 215 view .LVU1628
	.loc 1 1062 226 view .LVU1629
	.loc 1 1062 314 view .LVU1630
	.loc 1 1062 319 view .LVU1631
	.loc 1 1062 321 view .LVU1632
.LBE2801:
.LBE2804:
	.loc 1 1062 3 view .LVU1633
	.loc 1 1062 3 view .LVU1634
.LBB2805:
.LBB2802:
	.loc 1 1062 14 view .LVU1635
	.loc 1 1062 16 view .LVU1636
	.loc 1 1062 59 is_stmt 0 view .LVU1637
	add	r1, sp, #16
.LVL374:
	.loc 1 1062 59 view .LVU1638
	movs	r0, #2
.LVL375:
	.loc 1 1062 59 view .LVU1639
	bl	net_sprint_addr
.LVL376:
	.loc 1 1062 59 view .LVU1640
.LBE2802:
.LBE2805:
	.file 14 "/home/sebin/thesis/zephyrproject/zephyr/include/logging/log.h"
	.loc 14 290 2 is_stmt 1 view .LVU1641
	.loc 14 291 3 view .LVU1642
.LBB2806:
.LBB2803:
	.loc 1 1062 16 is_stmt 0 view .LVU1643
	str	r4, [sp, #12]
	str	r0, [sp, #8]
	ldr	r3, .L235
	str	r3, [sp, #4]
	movs	r0, #0
	str	r0, [sp]
	mov	r3, r0
	movs	r2, #1
	ldr	r1, .L235+4
	bl	z_log_msg2_runtime_create
.LVL377:
	.loc 1 1062 93 is_stmt 1 view .LVU1644
	.loc 1 1062 58 view .LVU1645
.LBE2803:
	.loc 1 1062 13 view .LVU1646
	.loc 1 1062 20 view .LVU1647
	.loc 1 1062 20 is_stmt 0 view .LVU1648
.LBE2806:
	.loc 1 1062 127 is_stmt 1 view .LVU1649
	.loc 1 1065 1 is_stmt 0 view .LVU1650
	b	.L231
.L236:
	.align	2
.L235:
	.word	.LC2
	.word	.LANCHOR0
	.cfi_endproc
.LFE986:
	.size	join_mcast_allnodes, .-join_mcast_allnodes
	.section	.rodata.join_mcast_solicit_node.str1.4,"aMS",%progbits,1
	.align	2
.LC3:
	.ascii	"Cannot join solicit node address %s (%d)\000"
	.section	.text.join_mcast_solicit_node,"ax",%progbits
	.align	1
	.syntax unified
	.thumb
	.thumb_func
	.fpu fpv4-sp-d16
	.type	join_mcast_solicit_node, %function
join_mcast_solicit_node:
.LVL378:
.LFB987:
	.loc 1 1069 1 is_stmt 1 view -0
	.cfi_startproc
	@ args = 0, pretend = 0, frame = 16
	@ frame_needed = 0, uses_anonymous_args = 0
	.loc 1 1069 1 is_stmt 0 view .LVU1652
	push	{r4, lr}
	.cfi_def_cfa_offset 8
	.cfi_offset 4, -8
	.cfi_offset 14, -4
	sub	sp, sp, #32
	.cfi_def_cfa_offset 40
	.loc 1 1070 2 is_stmt 1 view .LVU1653
	.loc 1 1071 2 view .LVU1654
	.loc 1 1074 2 view .LVU1655
.LVL379:
.LBB2807:
.LBI2807:
	.loc 3 1170 6 view .LVU1656
.LBB2808:
	.loc 3 1173 2 view .LVU1657
	.loc 3 1173 18 is_stmt 0 view .LVU1658
	movs	r2, #255
	strb	r2, [sp, #16]
	.loc 3 1174 2 is_stmt 1 view .LVU1659
	.loc 3 1174 18 is_stmt 0 view .LVU1660
	movs	r3, #2
	strb	r3, [sp, #17]
	.loc 3 1175 2 is_stmt 1 view .LVU1661
.LBB2809:
	.loc 3 1175 7 view .LVU1662
.LVL380:
	.loc 3 1175 130 view .LVU1663
	.loc 3 1175 139 is_stmt 0 view .LVU1664
	movs	r3, #0
	strh	r3, [sp, #18]	@ movhi
	.loc 3 1175 146 is_stmt 1 view .LVU1665
	.loc 3 1175 151 view .LVU1666
	.loc 3 1175 199 view .LVU1667
.LBE2809:
	.loc 3 1175 12 view .LVU1668
	.loc 3 1176 2 view .LVU1669
.LBB2810:
	.loc 3 1176 7 view .LVU1670
.LVL381:
	.loc 3 1176 130 view .LVU1671
	.loc 3 1176 139 is_stmt 0 view .LVU1672
	strh	r3, [sp, #20]	@ movhi
	.loc 3 1176 146 is_stmt 1 view .LVU1673
	.loc 3 1176 151 view .LVU1674
	.loc 3 1176 199 view .LVU1675
.LBE2810:
	.loc 3 1176 12 view .LVU1676
	.loc 3 1177 2 view .LVU1677
.LBB2811:
	.loc 3 1177 7 view .LVU1678
.LVL382:
	.loc 3 1177 130 view .LVU1679
	.loc 3 1177 139 is_stmt 0 view .LVU1680
	strh	r3, [sp, #22]	@ movhi
	.loc 3 1177 146 is_stmt 1 view .LVU1681
	.loc 3 1177 151 view .LVU1682
	.loc 3 1177 199 view .LVU1683
.LBE2811:
	.loc 3 1177 12 view .LVU1684
	.loc 3 1178 2 view .LVU1685
.LBB2812:
	.loc 3 1178 7 view .LVU1686
.LVL383:
	.loc 3 1178 130 view .LVU1687
	.loc 3 1178 139 is_stmt 0 view .LVU1688
	strh	r3, [sp, #24]	@ movhi
	.loc 3 1178 146 is_stmt 1 view .LVU1689
	.loc 3 1178 151 view .LVU1690
	.loc 3 1178 199 view .LVU1691
.LBE2812:
	.loc 3 1178 12 view .LVU1692
	.loc 3 1179 2 view .LVU1693
	.loc 3 1179 19 is_stmt 0 view .LVU1694
	strb	r3, [sp, #26]
	.loc 3 1180 2 is_stmt 1 view .LVU1695
	.loc 3 1180 19 is_stmt 0 view .LVU1696
	movs	r3, #1
	strb	r3, [sp, #27]
	.loc 3 1181 2 is_stmt 1 view .LVU1697
	.loc 3 1181 19 is_stmt 0 view .LVU1698
	strb	r2, [sp, #28]
	.loc 3 1182 2 is_stmt 1 view .LVU1699
	.loc 3 1182 33 is_stmt 0 view .LVU1700
	ldrb	r3, [r1, #13]	@ zero_extendqisi2
	.loc 3 1182 19 view .LVU1701
	strb	r3, [sp, #29]
	.loc 3 1183 2 is_stmt 1 view .LVU1702
.LBB2813:
	.loc 3 1183 7 view .LVU1703
.LVL384:
	.loc 3 1183 130 view .LVU1704
.LBB2814:
	.loc 3 1183 159 view .LVU1705
	.loc 3 1183 284 view .LVU1706
	.loc 3 1183 287 is_stmt 0 view .LVU1707
	ldrh	r3, [r1, #14]	@ unaligned
.LBE2814:
	.loc 3 1183 139 view .LVU1708
	strh	r3, [sp, #30]	@ movhi
	.loc 3 1183 299 is_stmt 1 view .LVU1709
	.loc 3 1183 304 view .LVU1710
	.loc 3 1183 352 view .LVU1711
.LBE2813:
	.loc 3 1183 12 view .LVU1712
.LVL385:
	.loc 3 1183 12 is_stmt 0 view .LVU1713
.LBE2808:
.LBE2807:
	.loc 1 1076 2 is_stmt 1 view .LVU1714
	.loc 1 1076 8 is_stmt 0 view .LVU1715
	add	r1, sp, #16
.LVL386:
	.loc 1 1076 8 view .LVU1716
	bl	net_ipv6_mld_join
.LVL387:
	.loc 1 1077 2 is_stmt 1 view .LVU1717
	.loc 1 1077 5 is_stmt 0 view .LVU1718
	subs	r4, r0, #0
	blt	.L240
.LVL388:
.L237:
	.loc 1 1081 1 view .LVU1719
	add	sp, sp, #32
	.cfi_remember_state
	.cfi_def_cfa_offset 8
	@ sp needed
	pop	{r4, pc}
.LVL389:
.L240:
	.cfi_restore_state
	.loc 1 1077 14 discriminator 1 view .LVU1720
	cmn	r4, #120
	beq	.L237
	.loc 1 1078 3 is_stmt 1 view .LVU1721
.LBB2815:
	.loc 1 1078 8 view .LVU1722
	.loc 1 1078 57 view .LVU1723
	.loc 1 1078 14 view .LVU1724
	.loc 1 1078 2 view .LVU1725
.LBE2815:
	.loc 5 120 2 view .LVU1726
.LVL390:
.LBB2819:
	.loc 1 1078 41 view .LVU1727
	.loc 1 1078 107 view .LVU1728
	.loc 1 1078 206 view .LVU1729
.LBB2816:
	.loc 1 1078 215 view .LVU1730
	.loc 1 1078 226 view .LVU1731
	.loc 1 1078 314 view .LVU1732
	.loc 1 1078 319 view .LVU1733
	.loc 1 1078 321 view .LVU1734
.LBE2816:
.LBE2819:
	.loc 1 1078 3 view .LVU1735
	.loc 1 1078 3 view .LVU1736
.LBB2820:
.LBB2817:
	.loc 1 1078 14 view .LVU1737
	.loc 1 1078 16 view .LVU1738
	.loc 1 1078 62 is_stmt 0 view .LVU1739
	add	r1, sp, #16
	movs	r0, #2
.LVL391:
	.loc 1 1078 62 view .LVU1740
	bl	net_sprint_addr
.LVL392:
	.loc 1 1078 62 view .LVU1741
.LBE2817:
.LBE2820:
	.loc 14 290 2 is_stmt 1 view .LVU1742
	.loc 14 291 3 view .LVU1743
.LBB2821:
.LBB2818:
	.loc 1 1078 16 is_stmt 0 view .LVU1744
	str	r4, [sp, #12]
	str	r0, [sp, #8]
	ldr	r3, .L241
	str	r3, [sp, #4]
	movs	r0, #0
	str	r0, [sp]
	mov	r3, r0
	movs	r2, #1
	ldr	r1, .L241+4
	bl	z_log_msg2_runtime_create
.LVL393:
	.loc 1 1078 96 is_stmt 1 view .LVU1745
	.loc 1 1078 58 view .LVU1746
.LBE2818:
	.loc 1 1078 13 view .LVU1747
	.loc 1 1078 20 view .LVU1748
	.loc 1 1078 20 is_stmt 0 view .LVU1749
.LBE2821:
	.loc 1 1078 130 is_stmt 1 view .LVU1750
	.loc 1 1081 1 is_stmt 0 view .LVU1751
	b	.L237
.L242:
	.align	2
.L241:
	.word	.LC3
	.word	.LANCHOR0
	.cfi_endproc
.LFE987:
	.size	join_mcast_solicit_node, .-join_mcast_solicit_node
	.section	.text.join_mcast_nodes,"ax",%progbits
	.align	1
	.syntax unified
	.thumb
	.thumb_func
	.fpu fpv4-sp-d16
	.type	join_mcast_nodes, %function
join_mcast_nodes:
.LVL394:
.LFB989:
	.loc 1 1103 1 is_stmt 1 view -0
	.cfi_startproc
	@ args = 0, pretend = 0, frame = 0
	@ frame_needed = 0, uses_anonymous_args = 0
	.loc 1 1103 1 is_stmt 0 view .LVU1753
	push	{r4, r5, r6, lr}
	.cfi_def_cfa_offset 16
	.cfi_offset 4, -16
	.cfi_offset 5, -12
	.cfi_offset 6, -8
	.cfi_offset 14, -4
	mov	r5, r0
	mov	r6, r1
	.loc 1 1104 2 is_stmt 1 view .LVU1754
.LVL395:
	.loc 1 1106 2 view .LVU1755
	.loc 1 1106 10 is_stmt 0 view .LVU1756
	bl	l2_flags_get
.LVL396:
	.loc 1 1107 2 is_stmt 1 view .LVU1757
	.loc 1 1107 5 is_stmt 0 view .LVU1758
	tst	r0, #1
	bne	.L246
.LVL397:
.L243:
	.loc 1 1114 1 view .LVU1759
	pop	{r4, r5, r6, pc}
.LVL398:
.L246:
	.loc 1 1114 1 view .LVU1760
	mov	r4, r0
	.loc 1 1108 3 is_stmt 1 view .LVU1761
	mov	r0, r5
.LVL399:
	.loc 1 1108 3 is_stmt 0 view .LVU1762
	bl	join_mcast_allnodes
.LVL400:
	.loc 1 1110 3 is_stmt 1 view .LVU1763
	.loc 1 1110 6 is_stmt 0 view .LVU1764
	tst	r4, #2
	bne	.L243
	.loc 1 1111 4 is_stmt 1 view .LVU1765
	mov	r1, r6
	mov	r0, r5
	bl	join_mcast_solicit_node
.LVL401:
	.loc 1 1114 1 is_stmt 0 view .LVU1766
	b	.L243
	.cfi_endproc
.LFE989:
	.size	join_mcast_nodes, .-join_mcast_nodes
	.section	.text.iface_router_update_timer,"ax",%progbits
	.align	1
	.syntax unified
	.thumb
	.thumb_func
	.fpu fpv4-sp-d16
	.type	iface_router_update_timer, %function
iface_router_update_timer:
.LVL402:
.LFB974:
	.loc 1 717 1 is_stmt 1 view -0
	.cfi_startproc
	@ args = 0, pretend = 0, frame = 0
	@ frame_needed = 0, uses_anonymous_args = 0
	.loc 1 717 1 is_stmt 0 view .LVU1768
	push	{r3, r4, r5, lr}
	.cfi_def_cfa_offset 16
	.cfi_offset 3, -16
	.cfi_offset 4, -12
	.cfi_offset 5, -8
	.cfi_offset 14, -4
	mov	r5, r0
	.loc 1 718 2 is_stmt 1 view .LVU1769
	.loc 1 719 2 view .LVU1770
.LVL403:
	.loc 1 721 2 view .LVU1771
.LBB2822:
.LBI2822:
	.loc 8 899 19 view .LVU1772
.LBB2823:
	.loc 8 909 2 view .LVU1773
	.loc 8 909 7 view .LVU1774
	.loc 8 909 55 view .LVU1775
	.loc 8 910 2 view .LVU1776
	.loc 8 910 9 is_stmt 0 view .LVU1777
	mov	r2, #-1
	mov	r3, #-1
	ldr	r0, .L260
.LVL404:
	.loc 8 910 9 view .LVU1778
	bl	z_impl_k_mutex_lock
.LVL405:
	.loc 8 910 9 view .LVU1779
.LBE2823:
.LBE2822:
	.loc 1 723 2 is_stmt 1 view .LVU1780
.LBB2824:
.LBI2824:
	.loc 13 231 28 view .LVU1781
.LBB2825:
	.loc 13 233 2 view .LVU1782
	.loc 13 233 13 is_stmt 0 view .LVU1783
	ldr	r3, .L260+4
	ldr	r1, [r3]
.LVL406:
	.loc 13 233 13 view .LVU1784
.LBE2825:
.LBE2824:
	.loc 1 723 4 view .LVU1785
	cbz	r1, .L255
.LVL407:
	.loc 13 233 2 is_stmt 1 discriminator 5 view .LVU1786
	.loc 1 723 25 is_stmt 0 discriminator 5 view .LVU1787
	mov	r2, r1
.LVL408:
.LBB2826:
.LBI2826:
	.loc 13 285 29 is_stmt 1 discriminator 5 view .LVU1788
.LBB2827:
	.loc 13 285 70 discriminator 5 view .LVU1789
	.loc 13 285 38 is_stmt 0 discriminator 5 view .LVU1790
	cbz	r1, .L248
.LVL409:
.LBB2828:
.LBI2828:
	.loc 13 274 29 is_stmt 1 view .LVU1791
.LBE2828:
.LBE2827:
.LBE2826:
	.loc 13 274 79 view .LVU1792
.LBB2833:
.LBB2832:
.LBB2831:
.LBB2829:
.LBI2829:
	.loc 13 204 28 view .LVU1793
.LBB2830:
	.loc 13 206 2 view .LVU1794
	.loc 13 206 13 is_stmt 0 view .LVU1795
	ldr	r2, [r1]
.LVL410:
.L248:
	.loc 13 206 13 view .LVU1796
.LBE2830:
.LBE2829:
.LBE2831:
.LBE2832:
.LBE2833:
	.loc 1 723 3 discriminator 22 view .LVU1797
	mov	r4, #-1
	b	.L251
.L255:
	.loc 1 723 3 view .LVU1798
	mov	r2, r1
	b	.L248
.LVL411:
.L257:
	.loc 1 723 3 view .LVU1799
	mov	r3, r2
.LVL412:
.L250:
	.loc 1 723 3 discriminator 22 view .LVU1800
	mov	r1, r2
.LVL413:
	.loc 1 723 3 discriminator 22 view .LVU1801
	mov	r2, r3
.LVL414:
.L251:
	.loc 1 723 4 is_stmt 1 discriminator 22 view .LVU1802
	.loc 1 723 2 is_stmt 0 discriminator 22 view .LVU1803
	cbz	r1, .L249
.LBB2834:
	.loc 1 725 3 is_stmt 1 view .LVU1804
.LVL415:
.LBB2835:
.LBI2835:
	.loc 1 705 23 view .LVU1805
.LBB2836:
	.loc 1 708 2 view .LVU1806
	.loc 1 708 11 is_stmt 0 view .LVU1807
	ldr	r0, [r1, #28]
.LVL416:
	.loc 1 710 2 is_stmt 1 view .LVU1808
	.loc 1 710 24 is_stmt 0 view .LVU1809
	ldrh	r3, [r1, #32]
	.loc 1 710 7 view .LVU1810
	mov	r1, #1000
.LVL417:
	.loc 1 710 7 view .LVU1811
	mla	r3, r1, r3, r0
.LVL418:
	.loc 1 713 2 is_stmt 1 view .LVU1812
	.loc 1 713 24 is_stmt 0 view .LVU1813
	subs	r3, r3, r5
.LVL419:
	.loc 1 713 24 view .LVU1814
.LBE2836:
.LBE2835:
	.loc 1 727 3 is_stmt 1 view .LVU1815
	.loc 1 727 6 is_stmt 0 view .LVU1816
	cmp	r3, #0
	ble	.L256
	.loc 1 732 3 is_stmt 1 view .LVU1817
	.loc 1 732 13 is_stmt 0 view .LVU1818
	cmp	r4, r3
	it	cs
	movcs	r4, r3
.LVL420:
	.loc 1 732 13 view .LVU1819
.LBE2834:
	.loc 1 723 3 is_stmt 1 view .LVU1820
	.loc 1 723 3 is_stmt 0 view .LVU1821
	cmp	r2, #0
	beq	.L257
	.loc 1 723 39 discriminator 14 view .LVU1822
	mov	r3, r2
.LVL421:
.LBB2837:
.LBI2837:
	.loc 13 285 29 is_stmt 1 discriminator 14 view .LVU1823
.LBB2838:
	.loc 13 285 70 discriminator 14 view .LVU1824
	.loc 13 285 38 is_stmt 0 discriminator 14 view .LVU1825
	cmp	r2, #0
	beq	.L250
.LVL422:
.LBB2839:
.LBI2839:
	.loc 13 274 29 is_stmt 1 view .LVU1826
.LBE2839:
.LBE2838:
.LBE2837:
	.loc 13 274 79 view .LVU1827
.LBB2844:
.LBB2843:
.LBB2842:
.LBB2840:
.LBI2840:
	.loc 13 204 28 view .LVU1828
.LBB2841:
	.loc 13 206 2 view .LVU1829
	.loc 13 206 13 is_stmt 0 view .LVU1830
	ldr	r3, [r2]
.LVL423:
	.loc 13 206 13 view .LVU1831
.LBE2841:
.LBE2840:
.LBE2842:
.LBE2843:
.LBE2844:
	b	.L250
.LVL424:
.L256:
.LBB2845:
	.loc 1 728 14 view .LVU1832
	movs	r4, #0
.LVL425:
.L249:
	.loc 1 728 14 view .LVU1833
.LBE2845:
	.loc 1 735 2 is_stmt 1 view .LVU1834
	.loc 1 735 5 is_stmt 0 view .LVU1835
	cmp	r4, #-1
	beq	.L259
.LBB2846:
	.loc 1 738 3 is_stmt 1 view .LVU1836
.LVL426:
.LBB2847:
.LBI2847:
	.loc 12 402 24 view .LVU1837
.LBE2847:
.LBE2846:
	.loc 12 405 2 view .LVU1838
.LBB2851:
.LBB2850:
.LBB2848:
.LBI2848:
	.loc 12 101 55 view .LVU1839
.LBB2849:
	.loc 12 106 1 view .LVU1840
	.loc 12 108 1 view .LVU1841
	.loc 12 111 2 view .LVU1842
	.loc 12 115 2 view .LVU1843
	.loc 12 117 2 view .LVU1844
	.loc 12 133 2 view .LVU1845
	.loc 12 140 9 view .LVU1846
	.loc 12 141 3 view .LVU1847
	.loc 12 144 4 view .LVU1848
	.loc 12 144 13 is_stmt 0 view .LVU1849
	lsls	r0, r4, #2
	lsrs	r1, r4, #30
	adds	r0, r0, r4
	adc	r1, r1, #0
.LVL427:
	.loc 12 144 13 view .LVU1850
.LBE2849:
.LBE2848:
.LBE2850:
	.loc 1 738 3 view .LVU1851
	adds	r2, r0, r0
.LVL428:
	.loc 1 738 3 view .LVU1852
	adc	r3, r1, r1
	ldr	r0, .L260+8
	bl	k_work_reschedule
.LVL429:
.L254:
.LBE2851:
	.loc 1 741 2 is_stmt 1 view .LVU1853
.LBB2852:
.LBI2852:
	.loc 8 917 19 view .LVU1854
.LBB2853:
	.loc 8 925 2 view .LVU1855
	.loc 8 925 7 view .LVU1856
	.loc 8 925 55 view .LVU1857
	.loc 8 926 2 view .LVU1858
	.loc 8 926 9 is_stmt 0 view .LVU1859
	ldr	r0, .L260
	bl	z_impl_k_mutex_unlock
.LVL430:
	.loc 8 926 9 view .LVU1860
.LBE2853:
.LBE2852:
	.loc 1 742 1 view .LVU1861
	pop	{r3, r4, r5, pc}
.LVL431:
.L259:
	.loc 1 736 3 is_stmt 1 view .LVU1862
	ldr	r0, .L260+8
	bl	k_work_cancel_delayable
.LVL432:
	.loc 1 736 3 is_stmt 0 view .LVU1863
	b	.L254
.L261:
	.align	2
.L260:
	.word	.LANCHOR2
	.word	.LANCHOR10
	.word	.LANCHOR11
	.cfi_endproc
.LFE974:
	.size	iface_router_update_timer, .-iface_router_update_timer
	.section	.text.iface_router_add,"ax",%progbits
	.align	1
	.syntax unified
	.thumb
	.thumb_func
	.fpu fpv4-sp-d16
	.type	iface_router_add, %function
iface_router_add:
.LVL433:
.LFB976:
	.loc 1 781 1 is_stmt 1 view -0
	.cfi_startproc
	@ args = 4, pretend = 0, frame = 8
	@ frame_needed = 0, uses_anonymous_args = 0
	.loc 1 781 1 is_stmt 0 view .LVU1865
	push	{r4, r5, r6, r7, r8, r9, r10, fp, lr}
	.cfi_def_cfa_offset 36
	.cfi_offset 4, -36
	.cfi_offset 5, -32
	.cfi_offset 6, -28
	.cfi_offset 7, -24
	.cfi_offset 8, -20
	.cfi_offset 9, -16
	.cfi_offset 10, -12
	.cfi_offset 11, -8
	.cfi_offset 14, -4
	sub	sp, sp, #12
	.cfi_def_cfa_offset 48
	mov	r6, r0
	mov	r5, r1
	mov	r7, r2
	str	r3, [sp, #4]
	ldrh	r8, [sp, #48]
	.loc 1 782 2 is_stmt 1 view .LVU1866
.LVL434:
	.loc 1 783 2 view .LVU1867
	.loc 1 785 2 view .LVU1868
.LBB2854:
.LBI2854:
	.loc 8 899 19 view .LVU1869
.LBB2855:
	.loc 8 909 2 view .LVU1870
	.loc 8 909 7 view .LVU1871
	.loc 8 909 55 view .LVU1872
	.loc 8 910 2 view .LVU1873
	.loc 8 910 9 is_stmt 0 view .LVU1874
	mov	r2, #-1
.LVL435:
	.loc 8 910 9 view .LVU1875
	mov	r3, #-1
.LVL436:
	.loc 8 910 9 view .LVU1876
	ldr	r0, .L280
.LVL437:
	.loc 8 910 9 view .LVU1877
	bl	z_impl_k_mutex_lock
.LVL438:
	.loc 8 910 9 view .LVU1878
.LBE2855:
.LBE2854:
	.loc 1 787 2 is_stmt 1 view .LVU1879
	.loc 1 787 9 is_stmt 0 view .LVU1880
	movs	r4, #0
.LVL439:
.L263:
	.loc 1 787 14 is_stmt 1 discriminator 1 view .LVU1881
	.loc 1 787 2 is_stmt 0 discriminator 1 view .LVU1882
	cmp	r4, #1
	bgt	.L274
	.loc 1 788 3 is_stmt 1 view .LVU1883
	.loc 1 788 17 is_stmt 0 view .LVU1884
	add	r3, r4, r4, lsl #3
	ldr	r2, .L280+4
	add	r3, r2, r3, lsl #2
	ldrb	r3, [r3, #34]	@ zero_extendqisi2
	.loc 1 788 6 view .LVU1885
	tst	r3, #1
	bne	.L275
	.loc 1 792 3 is_stmt 1 view .LVU1886
	.loc 1 792 22 is_stmt 0 view .LVU1887
	add	r3, r4, r4, lsl #3
	ldr	r2, .L280+4
	add	r3, r2, r3, lsl #2
	ldrb	r2, [r3, #34]	@ zero_extendqisi2
	orr	r2, r2, #1
	strb	r2, [r3, #34]
	.loc 1 793 3 is_stmt 1 view .LVU1888
	.loc 1 793 20 is_stmt 0 view .LVU1889
	str	r6, [r3, #24]
	.loc 1 794 3 is_stmt 1 view .LVU1890
	.loc 1 794 29 is_stmt 0 view .LVU1891
	strh	r5, [r3, #4]	@ movhi
	.loc 1 796 3 is_stmt 1 view .LVU1892
	.loc 1 796 6 is_stmt 0 view .LVU1893
	cmp	r8, #0
	bne	.L276
	.loc 1 807 4 is_stmt 1 view .LVU1894
	.loc 1 807 26 is_stmt 0 view .LVU1895
	add	r3, r4, r4, lsl #3
	ldr	r2, .L280+4
	add	r3, r2, r3, lsl #2
	ldrb	r2, [r3, #34]	@ zero_extendqisi2
	.loc 1 808 4 is_stmt 1 view .LVU1896
	.loc 1 808 27 is_stmt 0 view .LVU1897
	and	r2, r2, #253
	orr	r2, r2, #4
	strb	r2, [r3, #34]
	.loc 1 809 4 is_stmt 1 view .LVU1898
	.loc 1 809 24 is_stmt 0 view .LVU1899
	movs	r2, #0
	strh	r2, [r3, #32]	@ movhi
.L268:
	.loc 1 812 3 is_stmt 1 view .LVU1900
	.loc 1 812 6 is_stmt 0 view .LVU1901
	cmp	r5, #2
	beq	.L277
	.loc 1 825 10 is_stmt 1 view .LVU1902
	.loc 1 825 13 is_stmt 0 view .LVU1903
	cmp	r5, #1
	beq	.L278
.L270:
	.loc 1 835 243 is_stmt 1 view .LVU1904
	.loc 1 842 3 view .LVU1905
	.loc 1 842 10 is_stmt 0 view .LVU1906
	add	r4, r4, r4, lsl #3
.LVL440:
	.loc 1 842 10 view .LVU1907
	ldr	r3, .L280+4
	add	r4, r3, r4, lsl #2
.LVL441:
	.loc 1 843 3 is_stmt 1 view .LVU1908
.L271:
	.loc 1 847 2 view .LVU1909
.LBB2856:
.LBI2856:
	.loc 8 917 19 view .LVU1910
.LBB2857:
	.loc 8 925 2 view .LVU1911
	.loc 8 925 7 view .LVU1912
	.loc 8 925 55 view .LVU1913
	.loc 8 926 2 view .LVU1914
	.loc 8 926 9 is_stmt 0 view .LVU1915
	ldr	r0, .L280
	bl	z_impl_k_mutex_unlock
.LVL442:
	.loc 8 926 9 view .LVU1916
.LBE2857:
.LBE2856:
	.loc 1 849 2 is_stmt 1 view .LVU1917
	.loc 1 850 1 is_stmt 0 view .LVU1918
	mov	r0, r4
	add	sp, sp, #12
	.cfi_remember_state
	.cfi_def_cfa_offset 36
	@ sp needed
	pop	{r4, r5, r6, r7, r8, r9, r10, fp, pc}
.LVL443:
.L275:
	.cfi_restore_state
	.loc 1 789 4 is_stmt 1 view .LVU1919
	.loc 1 787 21 view .LVU1920
	.loc 1 787 22 is_stmt 0 view .LVU1921
	adds	r4, r4, #1
.LVL444:
	.loc 1 787 22 view .LVU1922
	b	.L263
.L276:
	.loc 1 797 4 is_stmt 1 view .LVU1923
	.loc 1 797 26 is_stmt 0 view .LVU1924
	ldr	r10, .L280+4
	add	r9, r4, r4, lsl #3
	lsl	fp, r9, #2
	mov	r9, r3
	uxtb	r3, r2
	.loc 1 798 4 is_stmt 1 view .LVU1925
	.loc 1 798 27 is_stmt 0 view .LVU1926
	orr	r3, r3, #2
	bfc	r3, #2, #1
	strb	r3, [r9, #34]
	.loc 1 799 4 is_stmt 1 view .LVU1927
	.loc 1 799 24 is_stmt 0 view .LVU1928
	strh	r8, [r9, #32]	@ movhi
	.loc 1 800 4 is_stmt 1 view .LVU1929
.LBB2858:
.LBI2858:
	.loc 11 1563 24 view .LVU1930
.LBB2859:
	.loc 11 1565 2 view .LVU1931
.LBB2860:
.LBI2860:
	.loc 11 1539 23 view .LVU1932
.LBB2861:
	.loc 11 1541 2 view .LVU1933
.LBB2862:
.LBI2862:
	.loc 8 562 23 view .LVU1934
.LBB2863:
	.loc 8 572 2 view .LVU1935
	.loc 8 572 7 view .LVU1936
	.loc 8 572 55 view .LVU1937
	.loc 8 573 2 view .LVU1938
	.loc 8 573 9 is_stmt 0 view .LVU1939
	bl	z_impl_k_uptime_ticks
.LVL445:
	.loc 8 573 9 view .LVU1940
.LBE2863:
.LBE2862:
.LBB2864:
.LBI2864:
	.loc 12 1102 24 is_stmt 1 view .LVU1941
.LBE2864:
.LBE2861:
.LBE2860:
.LBE2859:
.LBE2858:
	.loc 12 1105 2 view .LVU1942
.LBB2877:
.LBB2875:
.LBB2873:
.LBB2871:
.LBB2869:
.LBB2865:
.LBI2865:
	.loc 12 101 55 view .LVU1943
.LBB2866:
	.loc 12 106 1 view .LVU1944
	.loc 12 108 1 view .LVU1945
	.loc 12 111 2 view .LVU1946
	.loc 12 115 2 view .LVU1947
	.loc 12 117 2 view .LVU1948
.LBE2866:
.LBE2865:
.LBE2869:
.LBE2871:
.LBE2873:
.LBE2875:
.LBE2877:
	.loc 12 118 3 view .LVU1949
	.loc 12 120 3 view .LVU1950
	.loc 12 123 3 view .LVU1951
.LBB2878:
.LBB2876:
.LBB2874:
.LBB2872:
.LBB2870:
.LBB2868:
.LBB2867:
	.loc 12 133 2 view .LVU1952
	.loc 12 134 3 view .LVU1953
	.loc 12 135 3 view .LVU1954
	.loc 12 138 4 view .LVU1955
	.loc 12 138 13 is_stmt 0 view .LVU1956
	movs	r2, #10
	movs	r3, #0
	bl	__aeabi_uldivmod
.LVL446:
	.loc 12 138 13 view .LVU1957
.LBE2867:
.LBE2868:
.LBE2870:
.LBE2872:
.LBE2874:
.LBE2876:
.LBE2878:
	.loc 1 800 26 view .LVU1958
	str	r0, [r9, #28]
	.loc 1 802 4 is_stmt 1 view .LVU1959
.LVL447:
.LBB2879:
.LBI2879:
	.loc 13 311 20 view .LVU1960
.LBB2880:
	.loc 13 311 77 view .LVU1961
.LBB2881:
.LBI2881:
	.loc 13 209 20 view .LVU1962
.LBB2882:
	.loc 13 211 2 view .LVU1963
	.loc 13 211 15 is_stmt 0 view .LVU1964
	movs	r3, #0
	str	r3, [r10, fp]
.LVL448:
	.loc 13 211 15 view .LVU1965
.LBE2882:
.LBE2881:
	.loc 13 311 4 is_stmt 1 view .LVU1966
.LBB2883:
.LBI2883:
	.loc 13 243 28 view .LVU1967
.LBB2884:
	.loc 13 245 2 view .LVU1968
	.loc 13 245 13 is_stmt 0 view .LVU1969
	ldr	r3, .L280+8
	ldr	r3, [r3, #4]
.LVL449:
	.loc 13 245 13 view .LVU1970
.LBE2884:
.LBE2883:
	.loc 13 311 7 view .LVU1971
	cbz	r3, .L279
	.loc 13 311 74 is_stmt 1 view .LVU1972
.LVL450:
	.loc 13 311 74 is_stmt 0 view .LVU1973
.LBE2880:
.LBE2879:
	.loc 13 245 2 is_stmt 1 view .LVU1974
.LBB2895:
.LBB2893:
.LBB2885:
.LBI2885:
	.loc 13 209 20 view .LVU1975
.LBB2886:
	.loc 13 211 2 view .LVU1976
	.loc 13 211 15 is_stmt 0 view .LVU1977
	str	r9, [r3]
.LVL451:
	.loc 13 211 15 view .LVU1978
.LBE2886:
.LBE2885:
	.loc 13 311 126 is_stmt 1 view .LVU1979
.LBB2887:
.LBI2887:
	.loc 13 219 20 view .LVU1980
.LBB2888:
	.loc 13 221 2 view .LVU1981
	.loc 13 221 13 is_stmt 0 view .LVU1982
	ldr	r3, .L280+8
	str	r9, [r3, #4]
.LVL452:
.L267:
	.loc 13 221 13 view .LVU1983
.LBE2888:
.LBE2887:
.LBE2893:
.LBE2895:
	.loc 1 805 4 is_stmt 1 view .LVU1984
	add	r3, r4, r4, lsl #3
	ldr	r2, .L280+4
	add	r3, r2, r3, lsl #2
	ldr	r0, [r3, #28]
	bl	iface_router_update_timer
.LVL453:
	b	.L268
.LVL454:
.L279:
.LBB2896:
.LBB2894:
	.loc 13 311 5 view .LVU1985
.LBB2889:
.LBI2889:
	.loc 13 219 20 view .LVU1986
.LBB2890:
	.loc 13 221 2 view .LVU1987
	.loc 13 221 13 is_stmt 0 view .LVU1988
	ldr	r3, .L280+8
	str	r9, [r3, #4]
.LVL455:
	.loc 13 221 13 view .LVU1989
.LBE2890:
.LBE2889:
	.loc 13 311 35 is_stmt 1 view .LVU1990
.LBB2891:
.LBI2891:
	.loc 13 214 20 view .LVU1991
.LBB2892:
	.loc 13 216 2 view .LVU1992
	.loc 13 216 13 is_stmt 0 view .LVU1993
	str	r9, [r3]
	.loc 13 217 1 view .LVU1994
	b	.L267
.LVL456:
.L277:
	.loc 13 217 1 view .LVU1995
.LBE2892:
.LBE2891:
.LBE2894:
.LBE2896:
	.loc 1 813 3 is_stmt 1 view .LVU1996
.LBB2897:
.LBI2897:
	.loc 2 1227 32 view .LVU1997
.LBB2898:
	.loc 2 1229 2 view .LVU1998
	.loc 2 1229 9 is_stmt 0 view .LVU1999
	add	r2, r4, r4, lsl #3
	ldr	r3, .L280+4
	add	r2, r3, r2, lsl #2
.LVL457:
	.loc 2 1229 9 view .LVU2000
.LBE2898:
.LBE2897:
.LBB2899:
.LBI2899:
	.file 15 "/home/sebin/LIOT/gcc-arm-none-eabi-9-2019-q4-major/arm-none-eabi/include/ssp/string.h"
	.loc 15 83 216 is_stmt 1 view .LVU2001
.LBB2900:
	.loc 15 83 292 view .LVU2002
	.loc 15 83 299 is_stmt 0 view .LVU2003
	ldr	r5, [r7]	@ unaligned
	ldr	r0, [r7, #4]	@ unaligned
	ldr	r1, [r7, #8]	@ unaligned
	ldr	r3, [r7, #12]	@ unaligned
	str	r5, [r2, #8]	@ unaligned
	str	r0, [r2, #12]	@ unaligned
	str	r1, [r2, #16]	@ unaligned
	str	r3, [r2, #20]	@ unaligned
.LVL458:
	.loc 15 83 299 view .LVU2004
.LBE2900:
.LBE2899:
	.loc 1 815 4 is_stmt 1 view .LVU2005
	movs	r3, #16
	adds	r2, r2, #8
	mov	r1, r6
	ldr	r0, .L280+12
	bl	net_mgmt_event_notify_with_info
.LVL459:
	.loc 1 820 4 view .LVU2006
.LBB2901:
	.loc 1 820 9 view .LVU2007
	b	.L270
.L278:
	.loc 1 820 9 is_stmt 0 view .LVU2008
.LBE2901:
	.loc 1 826 3 is_stmt 1 view .LVU2009
.LVL460:
.LBB2902:
.LBI2902:
	.loc 2 1686 31 view .LVU2010
.LBB2903:
	.loc 2 1688 2 view .LVU2011
	.loc 2 1688 9 is_stmt 0 view .LVU2012
	add	r2, r4, r4, lsl #3
	ldr	r3, .L280+4
	add	r2, r3, r2, lsl #2
.LVL461:
	.loc 2 1688 9 view .LVU2013
.LBE2903:
.LBE2902:
.LBB2904:
.LBI2904:
	.loc 15 83 216 is_stmt 1 view .LVU2014
.LBB2905:
	.loc 15 83 292 view .LVU2015
	ldr	r3, [r7]	@ unaligned
	.loc 15 83 299 is_stmt 0 view .LVU2016
	str	r3, [r2, #8]	@ unaligned
.LVL462:
	.loc 15 83 299 view .LVU2017
.LBE2905:
.LBE2904:
	.loc 1 828 4 is_stmt 1 view .LVU2018
	.loc 1 828 26 is_stmt 0 view .LVU2019
	ldrb	r3, [r2, #34]	@ zero_extendqisi2
	ldr	r1, [sp, #4]
	bfi	r3, r1, #1, #1
	strb	r3, [r2, #34]
	.loc 1 830 4 is_stmt 1 view .LVU2020
	movs	r3, #4
	adds	r2, r2, #8
	mov	r1, r6
	ldr	r0, .L280+16
	bl	net_mgmt_event_notify_with_info
.LVL463:
	.loc 1 835 4 view .LVU2021
.LBB2906:
	.loc 1 835 9 view .LVU2022
	b	.L270
.L274:
	.loc 1 835 9 is_stmt 0 view .LVU2023
.LBE2906:
	.loc 1 782 24 view .LVU2024
	movs	r4, #0
.LVL464:
	.loc 1 782 24 view .LVU2025
	b	.L271
.L281:
	.align	2
.L280:
	.word	.LANCHOR2
	.word	.LANCHOR3
	.word	.LANCHOR10
	.word	-530579447
	.word	-536608763
	.cfi_endproc
.LFE976:
	.size	iface_router_add, .-iface_router_add
	.section	.rodata.iface_router_rm.str1.4,"aMS",%progbits,1
	.align	2
.LC4:
	.ascii	"has been removed\000"
	.section	.text.iface_router_rm,"ax",%progbits
	.align	1
	.syntax unified
	.thumb
	.thumb_func
	.fpu fpv4-sp-d16
	.type	iface_router_rm, %function
iface_router_rm:
.LVL465:
.LFB977:
	.loc 1 853 1 is_stmt 1 view -0
	.cfi_startproc
	@ args = 0, pretend = 0, frame = 0
	@ frame_needed = 0, uses_anonymous_args = 0
	.loc 1 853 1 is_stmt 0 view .LVU2027
	push	{r4, lr}
	.cfi_def_cfa_offset 8
	.cfi_offset 4, -8
	.cfi_offset 14, -4
	mov	r4, r0
	.loc 1 854 1 is_stmt 1 view .LVU2028
.LVL466:
	.loc 1 856 2 view .LVU2029
.LBB2907:
.LBI2907:
	.loc 8 899 19 view .LVU2030
.LBB2908:
	.loc 8 909 2 view .LVU2031
	.loc 8 909 7 view .LVU2032
	.loc 8 909 55 view .LVU2033
	.loc 8 910 2 view .LVU2034
	.loc 8 910 9 is_stmt 0 view .LVU2035
	mov	r2, #-1
	mov	r3, #-1
	ldr	r0, .L295
.LVL467:
	.loc 8 910 9 view .LVU2036
	bl	z_impl_k_mutex_lock
.LVL468:
	.loc 8 910 9 view .LVU2037
.LBE2908:
.LBE2907:
	.loc 1 858 2 is_stmt 1 view .LVU2038
	.loc 1 858 6 is_stmt 0 view .LVU2039
	ldrb	r3, [r4, #34]	@ zero_extendqisi2
	.loc 1 858 5 view .LVU2040
	tst	r3, #1
	bne	.L292
	.loc 1 854 6 view .LVU2041
	movs	r4, #0
.LVL469:
.L283:
	.loc 1 873 2 is_stmt 1 view .LVU2042
.LBB2909:
.LBI2909:
	.loc 8 917 19 view .LVU2043
.LBB2910:
	.loc 8 925 2 view .LVU2044
	.loc 8 925 7 view .LVU2045
	.loc 8 925 55 view .LVU2046
	.loc 8 926 2 view .LVU2047
	.loc 8 926 9 is_stmt 0 view .LVU2048
	ldr	r0, .L295
	bl	z_impl_k_mutex_unlock
.LVL470:
	.loc 8 926 9 view .LVU2049
.LBE2910:
.LBE2909:
	.loc 1 875 2 is_stmt 1 view .LVU2050
	.loc 1 876 1 is_stmt 0 view .LVU2051
	mov	r0, r4
	pop	{r4, pc}
.LVL471:
.L292:
	.loc 1 862 2 is_stmt 1 view .LVU2052
	ldr	r1, .L295+4
	mov	r0, r4
	bl	iface_router_notify_deletion
.LVL472:
	.loc 1 865 2 view .LVU2053
	.loc 1 865 6 is_stmt 0 view .LVU2054
	mov	r1, r4
.LVL473:
.LBB2911:
.LBI2911:
	.loc 13 417 1 is_stmt 1 view .LVU2055
.LBB2912:
	.loc 13 417 67 view .LVU2056
	.loc 13 417 3 view .LVU2057
	.loc 13 417 22 view .LVU2058
.LBB2913:
.LBI2913:
	.loc 13 231 28 view .LVU2059
.LBB2914:
	.loc 13 233 2 view .LVU2060
	.loc 13 233 13 is_stmt 0 view .LVU2061
	ldr	r3, .L295+8
	ldr	r3, [r3]
.LVL474:
	.loc 13 233 13 view .LVU2062
.LBE2914:
.LBE2913:
	.loc 13 417 80 view .LVU2063
	movs	r2, #0
	.loc 13 417 22 view .LVU2064
	b	.L284
.LVL475:
.L293:
.LBB2915:
.LBB2916:
	.loc 13 401 5 is_stmt 1 view .LVU2065
.LBB2917:
.LBI2917:
	.loc 13 204 28 view .LVU2066
.LBB2918:
	.loc 13 206 2 view .LVU2067
	.loc 13 206 13 is_stmt 0 view .LVU2068
	ldr	r2, [r4]
.LVL476:
	.loc 13 206 13 view .LVU2069
.LBE2918:
.LBE2917:
.LBB2919:
.LBI2919:
	.loc 13 214 20 is_stmt 1 view .LVU2070
.LBB2920:
	.loc 13 216 2 view .LVU2071
	.loc 13 216 13 is_stmt 0 view .LVU2072
	ldr	r3, .L295+8
.LVL477:
	.loc 13 216 13 view .LVU2073
	str	r2, [r3]
.LVL478:
	.loc 13 216 13 view .LVU2074
.LBE2920:
.LBE2919:
	.loc 13 401 54 is_stmt 1 view .LVU2075
.LBB2921:
.LBI2921:
	.loc 13 243 28 view .LVU2076
.LBB2922:
	.loc 13 245 2 view .LVU2077
	.loc 13 245 13 is_stmt 0 view .LVU2078
	ldr	r3, [r3, #4]
.LVL479:
	.loc 13 245 13 view .LVU2079
.LBE2922:
.LBE2921:
	.loc 13 401 57 view .LVU2080
	cmp	r4, r3
	bne	.L287
	.loc 13 401 95 is_stmt 1 view .LVU2081
.LVL480:
	.loc 13 401 95 is_stmt 0 view .LVU2082
.LBE2916:
.LBE2915:
.LBE2912:
.LBE2911:
	.loc 13 233 2 is_stmt 1 view .LVU2083
.LBB2949:
.LBB2946:
.LBB2937:
.LBB2935:
.LBB2923:
.LBI2923:
	.loc 13 219 20 view .LVU2084
.LBB2924:
	.loc 13 221 2 view .LVU2085
	.loc 13 221 13 is_stmt 0 view .LVU2086
	ldr	r3, .L295+8
	str	r2, [r3, #4]
	.loc 13 222 1 view .LVU2087
	b	.L287
.LVL481:
.L294:
	.loc 13 222 1 view .LVU2088
.LBE2924:
.LBE2923:
	.loc 13 401 252 is_stmt 1 view .LVU2089
.LBB2925:
.LBI2925:
	.loc 13 219 20 view .LVU2090
.LBB2926:
	.loc 13 221 2 view .LVU2091
	.loc 13 221 13 is_stmt 0 view .LVU2092
	ldr	r3, .L295+8
	str	r2, [r3, #4]
	.loc 13 222 1 view .LVU2093
	b	.L287
.LVL482:
.L285:
	.loc 13 222 1 view .LVU2094
.LBE2926:
.LBE2925:
.LBE2935:
.LBE2937:
	.loc 13 417 5 is_stmt 1 view .LVU2095
	.loc 13 417 3 view .LVU2096
.LBB2938:
.LBI2938:
	.loc 13 285 29 view .LVU2097
.LBE2938:
.LBE2946:
.LBE2949:
	.loc 13 285 70 view .LVU2098
.LBB2950:
.LBB2947:
.LBB2943:
.LBB2939:
.LBI2939:
	.loc 13 274 29 view .LVU2099
.LBE2939:
.LBE2943:
.LBE2947:
.LBE2950:
	.loc 13 274 79 view .LVU2100
.LBB2951:
.LBB2948:
.LBB2944:
.LBB2942:
.LBB2940:
.LBI2940:
	.loc 13 204 28 view .LVU2101
.LBB2941:
	.loc 13 206 2 view .LVU2102
	.loc 13 206 2 is_stmt 0 view .LVU2103
.LBE2941:
.LBE2940:
.LBE2942:
.LBE2944:
	.loc 13 417 10 view .LVU2104
	mov	r2, r3
	.loc 13 417 10 view .LVU2105
	ldr	r3, [r3]
.LVL483:
.L284:
	.loc 13 417 61 is_stmt 1 view .LVU2106
	.loc 13 417 22 is_stmt 0 view .LVU2107
	cbz	r3, .L288
	.loc 13 417 39 is_stmt 1 view .LVU2108
	.loc 13 417 42 is_stmt 0 view .LVU2109
	cmp	r1, r3
	bne	.L285
	.loc 13 417 59 is_stmt 1 view .LVU2110
.LVL484:
.LBB2945:
.LBI2915:
	.loc 13 401 20 view .LVU2111
.LBB2936:
	.loc 13 401 101 view .LVU2112
	.loc 13 401 104 is_stmt 0 view .LVU2113
	cmp	r2, #0
	beq	.L293
	.loc 13 401 157 is_stmt 1 view .LVU2114
.LVL485:
.LBB2927:
.LBI2927:
	.loc 13 204 28 view .LVU2115
.LBB2928:
	.loc 13 206 2 view .LVU2116
	.loc 13 206 13 is_stmt 0 view .LVU2117
	ldr	r3, [r4]
.LVL486:
	.loc 13 206 13 view .LVU2118
.LBE2928:
.LBE2927:
.LBB2929:
.LBI2929:
	.loc 13 209 20 is_stmt 1 view .LVU2119
.LBB2930:
	.loc 13 211 2 view .LVU2120
	.loc 13 211 15 is_stmt 0 view .LVU2121
	str	r3, [r2]
.LVL487:
	.loc 13 211 15 view .LVU2122
.LBE2930:
.LBE2929:
	.loc 13 401 211 is_stmt 1 view .LVU2123
.LBB2931:
.LBI2931:
	.loc 13 243 28 view .LVU2124
.LBB2932:
	.loc 13 245 2 view .LVU2125
	.loc 13 245 13 is_stmt 0 view .LVU2126
	ldr	r3, .L295+8
	ldr	r3, [r3, #4]
.LVL488:
	.loc 13 245 13 view .LVU2127
.LBE2932:
.LBE2931:
	.loc 13 401 214 view .LVU2128
	cmp	r4, r3
	beq	.L294
.LVL489:
.L287:
	.loc 13 401 291 is_stmt 1 view .LVU2129
.LBB2933:
.LBI2933:
	.loc 13 209 20 view .LVU2130
.LBB2934:
	.loc 13 211 2 view .LVU2131
	.loc 13 211 15 is_stmt 0 view .LVU2132
	movs	r3, #0
	str	r3, [r4]
.LVL490:
	.loc 13 211 15 view .LVU2133
.LBE2934:
.LBE2933:
.LBE2936:
.LBE2945:
	.loc 13 417 95 is_stmt 1 view .LVU2134
	.loc 13 417 95 is_stmt 0 view .LVU2135
.LBE2948:
.LBE2951:
	.loc 1 866 3 is_stmt 1 view .LVU2136
.LBB2952:
.LBI2952:
	.loc 11 1563 24 view .LVU2137
.LBB2953:
	.loc 11 1565 2 view .LVU2138
.LBB2954:
.LBI2954:
	.loc 11 1539 23 view .LVU2139
.LBB2955:
	.loc 11 1541 2 view .LVU2140
.LBB2956:
.LBI2956:
	.loc 8 562 23 view .LVU2141
.LBB2957:
	.loc 8 572 2 view .LVU2142
	.loc 8 572 7 view .LVU2143
	.loc 8 572 55 view .LVU2144
	.loc 8 573 2 view .LVU2145
	.loc 8 573 9 is_stmt 0 view .LVU2146
	bl	z_impl_k_uptime_ticks
.LVL491:
	.loc 8 573 9 view .LVU2147
.LBE2957:
.LBE2956:
.LBB2958:
.LBI2958:
	.loc 12 1102 24 is_stmt 1 view .LVU2148
.LBE2958:
.LBE2955:
.LBE2954:
.LBE2953:
.LBE2952:
	.loc 12 1105 2 view .LVU2149
.LBB2971:
.LBB2969:
.LBB2967:
.LBB2965:
.LBB2963:
.LBB2959:
.LBI2959:
	.loc 12 101 55 view .LVU2150
.LBB2960:
	.loc 12 106 1 view .LVU2151
	.loc 12 108 1 view .LVU2152
	.loc 12 111 2 view .LVU2153
	.loc 12 115 2 view .LVU2154
	.loc 12 117 2 view .LVU2155
.LBE2960:
.LBE2959:
.LBE2963:
.LBE2965:
.LBE2967:
.LBE2969:
.LBE2971:
	.loc 12 118 3 view .LVU2156
	.loc 12 120 3 view .LVU2157
	.loc 12 123 3 view .LVU2158
.LBB2972:
.LBB2970:
.LBB2968:
.LBB2966:
.LBB2964:
.LBB2962:
.LBB2961:
	.loc 12 133 2 view .LVU2159
	.loc 12 134 3 view .LVU2160
	.loc 12 135 3 view .LVU2161
	.loc 12 138 4 view .LVU2162
	.loc 12 138 13 is_stmt 0 view .LVU2163
	movs	r2, #10
	movs	r3, #0
	bl	__aeabi_uldivmod
.LVL492:
	.loc 12 138 13 view .LVU2164
.LBE2961:
.LBE2962:
.LBE2964:
.LBE2966:
.LBE2968:
.LBE2970:
.LBE2972:
	.loc 1 866 3 view .LVU2165
	bl	iface_router_update_timer
.LVL493:
.L288:
	.loc 1 869 2 is_stmt 1 view .LVU2166
	.loc 1 869 18 is_stmt 0 view .LVU2167
	ldrb	r3, [r4, #34]	@ zero_extendqisi2
	bfc	r3, #0, #1
	strb	r3, [r4, #34]
	.loc 1 870 2 is_stmt 1 view .LVU2168
.LVL494:
	.loc 1 870 6 is_stmt 0 view .LVU2169
	movs	r4, #1
.LVL495:
	.loc 1 870 6 view .LVU2170
	b	.L283
.L296:
	.align	2
.L295:
	.word	.LANCHOR2
	.word	.LC4
	.word	.LANCHOR10
	.cfi_endproc
.LFE977:
	.size	iface_router_rm, .-iface_router_rm
	.section	.rodata.iface_router_expired.str1.4,"aMS",%progbits,1
	.align	2
.LC5:
	.ascii	"has expired\000"
	.section	.text.iface_router_expired,"ax",%progbits
	.align	1
	.syntax unified
	.thumb
	.thumb_func
	.fpu fpv4-sp-d16
	.type	iface_router_expired, %function
iface_router_expired:
.LVL496:
.LFB975:
	.loc 1 745 1 is_stmt 1 view -0
	.cfi_startproc
	@ args = 0, pretend = 0, frame = 0
	@ frame_needed = 0, uses_anonymous_args = 0
	.loc 1 745 1 is_stmt 0 view .LVU2172
	push	{r4, r5, r6, r7, r8, lr}
	.cfi_def_cfa_offset 24
	.cfi_offset 4, -24
	.cfi_offset 5, -20
	.cfi_offset 6, -16
	.cfi_offset 7, -12
	.cfi_offset 8, -8
	.cfi_offset 14, -4
	.loc 1 746 2 is_stmt 1 view .LVU2173
.LBB2973:
.LBI2973:
	.loc 11 1563 24 view .LVU2174
.LBB2974:
	.loc 11 1565 2 view .LVU2175
.LBB2975:
.LBI2975:
	.loc 11 1539 23 view .LVU2176
.LBB2976:
	.loc 11 1541 2 view .LVU2177
.LBB2977:
.LBI2977:
	.loc 8 562 23 view .LVU2178
.LBB2978:
	.loc 8 572 2 view .LVU2179
	.loc 8 572 7 view .LVU2180
	.loc 8 572 55 view .LVU2181
	.loc 8 573 2 view .LVU2182
	.loc 8 573 9 is_stmt 0 view .LVU2183
	bl	z_impl_k_uptime_ticks
.LVL497:
	.loc 8 573 9 view .LVU2184
.LBE2978:
.LBE2977:
.LBB2979:
.LBI2979:
	.loc 12 1102 24 is_stmt 1 view .LVU2185
.LBE2979:
.LBE2976:
.LBE2975:
.LBE2974:
.LBE2973:
	.loc 12 1105 2 view .LVU2186
.LBB2992:
.LBB2990:
.LBB2988:
.LBB2986:
.LBB2984:
.LBB2980:
.LBI2980:
	.loc 12 101 55 view .LVU2187
.LBB2981:
	.loc 12 106 1 view .LVU2188
	.loc 12 108 1 view .LVU2189
	.loc 12 111 2 view .LVU2190
	.loc 12 115 2 view .LVU2191
	.loc 12 117 2 view .LVU2192
.LBE2981:
.LBE2980:
.LBE2984:
.LBE2986:
.LBE2988:
.LBE2990:
.LBE2992:
	.loc 12 118 3 view .LVU2193
	.loc 12 120 3 view .LVU2194
	.loc 12 123 3 view .LVU2195
.LBB2993:
.LBB2991:
.LBB2989:
.LBB2987:
.LBB2985:
.LBB2983:
.LBB2982:
	.loc 12 133 2 view .LVU2196
	.loc 12 134 3 view .LVU2197
	.loc 12 135 3 view .LVU2198
	.loc 12 138 4 view .LVU2199
	.loc 12 138 13 is_stmt 0 view .LVU2200
	movs	r2, #10
	movs	r3, #0
	bl	__aeabi_uldivmod
.LVL498:
	.loc 12 138 13 view .LVU2201
	mov	r8, r0
.LVL499:
	.loc 12 138 13 view .LVU2202
.LBE2982:
.LBE2983:
.LBE2985:
.LBE2987:
.LBE2989:
	.loc 11 1565 9 view .LVU2203
	mov	r7, r0
.LVL500:
	.loc 11 1565 9 view .LVU2204
.LBE2991:
.LBE2993:
	.loc 1 747 2 is_stmt 1 view .LVU2205
	.loc 1 748 2 view .LVU2206
	.loc 1 750 2 view .LVU2207
	.loc 1 752 2 view .LVU2208
.LBB2994:
.LBI2994:
	.loc 8 899 19 view .LVU2209
.LBB2995:
	.loc 8 909 2 view .LVU2210
	.loc 8 909 7 view .LVU2211
	.loc 8 909 55 view .LVU2212
	.loc 8 910 2 view .LVU2213
	.loc 8 910 9 is_stmt 0 view .LVU2214
	mov	r2, #-1
	mov	r3, #-1
	ldr	r0, .L312
.LVL501:
	.loc 8 910 9 view .LVU2215
	bl	z_impl_k_mutex_lock
.LVL502:
	.loc 8 910 9 view .LVU2216
.LBE2995:
.LBE2994:
	.loc 1 754 2 is_stmt 1 view .LVU2217
.LBB2996:
.LBI2996:
	.loc 13 231 28 view .LVU2218
.LBB2997:
	.loc 13 233 2 view .LVU2219
	.loc 13 233 13 is_stmt 0 view .LVU2220
	ldr	r3, .L312+4
	ldr	r4, [r3]
.LVL503:
	.loc 13 233 13 view .LVU2221
.LBE2997:
.LBE2996:
	.loc 1 754 4 view .LVU2222
	cmp	r4, #0
	beq	.L306
.LVL504:
	.loc 13 233 2 is_stmt 1 discriminator 5 view .LVU2223
	.loc 1 754 25 is_stmt 0 discriminator 5 view .LVU2224
	mov	r5, r4
.LVL505:
.LBB2998:
.LBI2998:
	.loc 13 285 29 is_stmt 1 discriminator 5 view .LVU2225
.LBB2999:
	.loc 13 285 70 discriminator 5 view .LVU2226
	.loc 13 285 38 is_stmt 0 discriminator 5 view .LVU2227
	cbz	r4, .L298
.LVL506:
.LBB3000:
.LBI3000:
	.loc 13 274 29 is_stmt 1 view .LVU2228
.LBE3000:
.LBE2999:
.LBE2998:
	.loc 13 274 79 view .LVU2229
.LBB3005:
.LBB3004:
.LBB3003:
.LBB3001:
.LBI3001:
	.loc 13 204 28 view .LVU2230
.LBB3002:
	.loc 13 206 2 view .LVU2231
	.loc 13 206 13 is_stmt 0 view .LVU2232
	ldr	r5, [r4]
.LVL507:
.L298:
	.loc 13 206 13 view .LVU2233
.LBE3002:
.LBE3001:
.LBE3003:
.LBE3004:
.LBE3005:
	.loc 1 754 3 discriminator 22 view .LVU2234
	movs	r6, #0
	b	.L304
.LVL508:
.L299:
.LBB3006:
	.loc 1 766 3 is_stmt 1 view .LVU2235
	ldr	r1, .L312+8
	mov	r0, r4
	bl	iface_router_notify_deletion
.LVL509:
	.loc 1 767 3 view .LVU2236
.LBB3007:
.LBI3007:
	.loc 13 401 20 view .LVU2237
.LBB3008:
	.loc 13 401 101 view .LVU2238
	.loc 13 401 104 is_stmt 0 view .LVU2239
	cbz	r6, .L309
	.loc 13 401 157 is_stmt 1 view .LVU2240
.LVL510:
.LBB3009:
.LBI3009:
	.loc 13 204 28 view .LVU2241
.LBB3010:
	.loc 13 206 2 view .LVU2242
	.loc 13 206 13 is_stmt 0 view .LVU2243
	ldr	r3, [r4]
.LVL511:
	.loc 13 206 13 view .LVU2244
.LBE3010:
.LBE3009:
.LBB3011:
.LBI3011:
	.loc 13 209 20 is_stmt 1 view .LVU2245
.LBB3012:
	.loc 13 211 2 view .LVU2246
	.loc 13 211 15 is_stmt 0 view .LVU2247
	str	r3, [r6]
.LVL512:
	.loc 13 211 15 view .LVU2248
.LBE3012:
.LBE3011:
	.loc 13 401 211 is_stmt 1 view .LVU2249
.LBB3013:
.LBI3013:
	.loc 13 243 28 view .LVU2250
.LBB3014:
	.loc 13 245 2 view .LVU2251
	.loc 13 245 13 is_stmt 0 view .LVU2252
	ldr	r3, .L312+4
	ldr	r3, [r3, #4]
.LVL513:
	.loc 13 245 13 view .LVU2253
.LBE3014:
.LBE3013:
	.loc 13 401 214 view .LVU2254
	cmp	r4, r3
	beq	.L310
.L302:
	.loc 13 401 291 is_stmt 1 view .LVU2255
.LVL514:
.LBB3015:
.LBI3015:
	.loc 13 209 20 view .LVU2256
.LBB3016:
	.loc 13 211 2 view .LVU2257
	.loc 13 211 15 is_stmt 0 view .LVU2258
	movs	r2, #0
	str	r2, [r4]
.LVL515:
	.loc 13 211 15 view .LVU2259
.LBE3016:
.LBE3015:
.LBE3008:
.LBE3007:
	.loc 1 769 3 is_stmt 1 view .LVU2260
	.loc 1 769 19 is_stmt 0 view .LVU2261
	ldrb	r3, [r4, #34]	@ zero_extendqisi2
	bfi	r3, r2, #0, #1
	strb	r3, [r4, #34]
.LVL516:
.L300:
	.loc 1 769 19 view .LVU2262
.LBE3006:
	.loc 1 754 3 is_stmt 1 view .LVU2263
	.loc 1 754 3 is_stmt 0 view .LVU2264
	cbz	r5, .L307
	.loc 1 754 39 discriminator 14 view .LVU2265
	mov	r3, r5
.LVL517:
.LBB3033:
.LBI3033:
	.loc 13 285 29 is_stmt 1 discriminator 14 view .LVU2266
.LBB3034:
	.loc 13 285 70 discriminator 14 view .LVU2267
	.loc 13 285 38 is_stmt 0 discriminator 14 view .LVU2268
	cbz	r5, .L303
.LVL518:
.LBB3035:
.LBI3035:
	.loc 13 274 29 is_stmt 1 view .LVU2269
.LBE3035:
.LBE3034:
.LBE3033:
	.loc 13 274 79 view .LVU2270
.LBB3040:
.LBB3039:
.LBB3038:
.LBB3036:
.LBI3036:
	.loc 13 204 28 view .LVU2271
.LBB3037:
	.loc 13 206 2 view .LVU2272
	.loc 13 206 13 is_stmt 0 view .LVU2273
	ldr	r3, [r5]
.LVL519:
.L303:
	.loc 13 206 13 view .LVU2274
.LBE3037:
.LBE3036:
.LBE3038:
.LBE3039:
.LBE3040:
	.loc 1 754 3 discriminator 22 view .LVU2275
	mov	r4, r5
.LVL520:
	.loc 1 754 3 discriminator 22 view .LVU2276
	mov	r5, r3
.LVL521:
.L304:
	.loc 1 754 4 is_stmt 1 discriminator 22 view .LVU2277
	.loc 1 754 2 is_stmt 0 discriminator 22 view .LVU2278
	cbz	r4, .L311
.LBB3041:
	.loc 1 756 3 is_stmt 1 view .LVU2279
.LVL522:
.LBB3029:
.LBI3029:
	.loc 1 705 23 view .LVU2280
.LBB3030:
	.loc 1 708 2 view .LVU2281
	.loc 1 708 11 is_stmt 0 view .LVU2282
	ldr	r2, [r4, #28]
.LVL523:
	.loc 1 710 2 is_stmt 1 view .LVU2283
	.loc 1 710 24 is_stmt 0 view .LVU2284
	ldrh	r3, [r4, #32]
	.loc 1 710 7 view .LVU2285
	mov	r1, #1000
	mla	r3, r1, r3, r2
.LVL524:
	.loc 1 713 2 is_stmt 1 view .LVU2286
	.loc 1 713 24 is_stmt 0 view .LVU2287
	subs	r3, r3, r7
.LVL525:
	.loc 1 713 24 view .LVU2288
.LBE3030:
.LBE3029:
	.loc 1 758 3 is_stmt 1 view .LVU2289
	.loc 1 758 6 is_stmt 0 view .LVU2290
	cmp	r3, #0
	ble	.L299
	.loc 1 762 4 is_stmt 1 view .LVU2291
	.loc 1 762 14 is_stmt 0 view .LVU2292
	mov	r6, r4
.LVL526:
	.loc 1 763 4 is_stmt 1 view .LVU2293
	b	.L300
.LVL527:
.L309:
.LBB3031:
.LBB3027:
	.loc 13 401 5 view .LVU2294
.LBB3017:
.LBI3017:
	.loc 13 204 28 view .LVU2295
.LBB3018:
	.loc 13 206 2 view .LVU2296
	.loc 13 206 13 is_stmt 0 view .LVU2297
	ldr	r2, [r4]
.LVL528:
	.loc 13 206 13 view .LVU2298
.LBE3018:
.LBE3017:
.LBB3019:
.LBI3019:
	.loc 13 214 20 is_stmt 1 view .LVU2299
.LBB3020:
	.loc 13 216 2 view .LVU2300
	.loc 13 216 13 is_stmt 0 view .LVU2301
	ldr	r3, .L312+4
	str	r2, [r3]
.LVL529:
	.loc 13 216 13 view .LVU2302
.LBE3020:
.LBE3019:
	.loc 13 401 54 is_stmt 1 view .LVU2303
.LBB3021:
.LBI3021:
	.loc 13 243 28 view .LVU2304
.LBB3022:
	.loc 13 245 2 view .LVU2305
	.loc 13 245 13 is_stmt 0 view .LVU2306
	ldr	r3, [r3, #4]
.LVL530:
	.loc 13 245 13 view .LVU2307
.LBE3022:
.LBE3021:
	.loc 13 401 57 view .LVU2308
	cmp	r4, r3
	bne	.L302
	.loc 13 401 95 is_stmt 1 view .LVU2309
.LVL531:
	.loc 13 401 95 is_stmt 0 view .LVU2310
.LBE3027:
.LBE3031:
.LBE3041:
	.loc 13 233 2 is_stmt 1 view .LVU2311
.LBB3042:
.LBB3032:
.LBB3028:
.LBB3023:
.LBI3023:
	.loc 13 219 20 view .LVU2312
.LBB3024:
	.loc 13 221 2 view .LVU2313
	.loc 13 221 13 is_stmt 0 view .LVU2314
	ldr	r3, .L312+4
	str	r2, [r3, #4]
	.loc 13 222 1 view .LVU2315
	b	.L302
.LVL532:
.L310:
	.loc 13 222 1 view .LVU2316
.LBE3024:
.LBE3023:
	.loc 13 401 252 is_stmt 1 view .LVU2317
.LBB3025:
.LBI3025:
	.loc 13 219 20 view .LVU2318
.LBB3026:
	.loc 13 221 2 view .LVU2319
	.loc 13 221 13 is_stmt 0 view .LVU2320
	ldr	r3, .L312+4
	str	r6, [r3, #4]
	.loc 13 222 1 view .LVU2321
	b	.L302
.LVL533:
.L306:
	.loc 13 222 1 view .LVU2322
.LBE3026:
.LBE3025:
.LBE3028:
.LBE3032:
.LBE3042:
	.loc 1 754 3 view .LVU2323
	mov	r5, r4
	b	.L298
.LVL534:
.L307:
	.loc 1 754 3 view .LVU2324
	mov	r3, r5
	b	.L303
.LVL535:
.L311:
	.loc 1 772 2 is_stmt 1 view .LVU2325
	mov	r0, r8
	bl	iface_router_update_timer
.LVL536:
	.loc 1 774 2 view .LVU2326
.LBB3043:
.LBI3043:
	.loc 8 917 19 view .LVU2327
.LBB3044:
	.loc 8 925 2 view .LVU2328
	.loc 8 925 7 view .LVU2329
	.loc 8 925 55 view .LVU2330
	.loc 8 926 2 view .LVU2331
	.loc 8 926 9 is_stmt 0 view .LVU2332
	ldr	r0, .L312
	bl	z_impl_k_mutex_unlock
.LVL537:
	.loc 8 926 9 view .LVU2333
.LBE3044:
.LBE3043:
	.loc 1 775 1 view .LVU2334
	pop	{r4, r5, r6, r7, r8, pc}
.LVL538:
.L313:
	.loc 1 775 1 view .LVU2335
	.align	2
.L312:
	.word	.LANCHOR2
	.word	.LANCHOR10
	.word	.LC5
	.cfi_endproc
.LFE975:
	.size	iface_router_expired, .-iface_router_expired
	.section	.text.leave_mcast_all,"ax",%progbits
	.align	1
	.syntax unified
	.thumb
	.thumb_func
	.fpu fpv4-sp-d16
	.type	leave_mcast_all, %function
leave_mcast_all:
.LVL539:
.LFB988:
	.loc 1 1084 1 is_stmt 1 view -0
	.cfi_startproc
	@ args = 0, pretend = 0, frame = 0
	@ frame_needed = 0, uses_anonymous_args = 0
	.loc 1 1084 1 is_stmt 0 view .LVU2337
	push	{r4, r5, r6, lr}
	.cfi_def_cfa_offset 16
	.cfi_offset 4, -16
	.cfi_offset 5, -12
	.cfi_offset 6, -8
	.cfi_offset 14, -4
	.loc 1 1085 2 is_stmt 1 view .LVU2338
	.loc 1 1085 22 is_stmt 0 view .LVU2339
	ldr	r5, [r0, #528]
.LVL540:
	.loc 1 1086 2 is_stmt 1 view .LVU2340
	.loc 1 1088 2 view .LVU2341
	.loc 1 1088 5 is_stmt 0 view .LVU2342
	cbz	r5, .L314
	mov	r6, r0
	.loc 1 1092 9 view .LVU2343
	movs	r4, #0
	b	.L316
.LVL541:
.L317:
	.loc 1 1092 21 is_stmt 1 discriminator 2 view .LVU2344
	.loc 1 1092 22 is_stmt 0 discriminator 2 view .LVU2345
	adds	r4, r4, #1
.LVL542:
.L316:
	.loc 1 1092 14 is_stmt 1 discriminator 1 view .LVU2346
	.loc 1 1092 2 is_stmt 0 discriminator 1 view .LVU2347
	cmp	r4, #2
	bgt	.L314
	.loc 1 1093 3 is_stmt 1 view .LVU2348
	.loc 1 1093 22 is_stmt 0 view .LVU2349
	add	r3, r4, r4, lsl #1
	add	r3, r5, r3, lsl #3
	ldrb	r3, [r3, #116]	@ zero_extendqisi2
	.loc 1 1093 6 view .LVU2350
	tst	r3, #1
	beq	.L317
	.loc 1 1094 22 discriminator 1 view .LVU2351
	add	r3, r4, r4, lsl #1
	add	r3, r5, r3, lsl #3
	ldrb	r3, [r3, #116]	@ zero_extendqisi2
	.loc 1 1093 31 discriminator 1 view .LVU2352
	tst	r3, #2
	beq	.L317
	.loc 1 1098 3 is_stmt 1 view .LVU2353
	.loc 1 1098 29 is_stmt 0 view .LVU2354
	add	r1, r4, r4, lsl #1
	lsls	r1, r1, #3
	adds	r1, r1, #96
	add	r1, r1, r5
	.loc 1 1098 3 view .LVU2355
	adds	r1, r1, #4
	mov	r0, r6
	bl	net_ipv6_mld_leave
.LVL543:
	b	.L317
.LVL544:
.L314:
	.loc 1 1100 1 view .LVU2356
	pop	{r4, r5, r6, pc}
	.loc 1 1100 1 view .LVU2357
	.cfi_endproc
.LFE988:
	.size	leave_mcast_all, .-leave_mcast_all
	.section	.text.leave_ipv4_mcast_all,"ax",%progbits
	.align	1
	.syntax unified
	.thumb
	.thumb_func
	.fpu fpv4-sp-d16
	.type	leave_ipv4_mcast_all, %function
leave_ipv4_mcast_all:
.LVL545:
.LFB1087:
	.loc 1 3796 1 is_stmt 1 view -0
	.cfi_startproc
	@ args = 0, pretend = 0, frame = 0
	@ frame_needed = 0, uses_anonymous_args = 0
	.loc 1 3796 1 is_stmt 0 view .LVU2359
	push	{r4, r5, r6, lr}
	.cfi_def_cfa_offset 16
	.cfi_offset 4, -16
	.cfi_offset 5, -12
	.cfi_offset 6, -8
	.cfi_offset 14, -4
	.loc 1 3797 2 is_stmt 1 view .LVU2360
	.loc 1 3797 22 is_stmt 0 view .LVU2361
	ldr	r6, [r0, #532]
.LVL546:
	.loc 1 3798 2 is_stmt 1 view .LVU2362
	.loc 1 3800 2 view .LVU2363
	.loc 1 3800 5 is_stmt 0 view .LVU2364
	cbnz	r6, .L326
.LVL547:
.L320:
	.loc 1 3812 1 view .LVU2365
	pop	{r4, r5, r6, pc}
.LVL548:
.L326:
	.loc 1 3812 1 view .LVU2366
	mov	r4, r0
	.loc 1 3804 9 view .LVU2367
	movs	r5, #0
	b	.L322
.LVL549:
.L323:
	.loc 1 3804 21 is_stmt 1 discriminator 2 view .LVU2368
	.loc 1 3804 22 is_stmt 0 discriminator 2 view .LVU2369
	adds	r5, r5, #1
.LVL550:
.L322:
	.loc 1 3804 14 is_stmt 1 discriminator 1 view .LVU2370
	.loc 1 3804 2 is_stmt 0 discriminator 1 view .LVU2371
	cmp	r5, #0
	bgt	.L320
	.loc 1 3805 3 is_stmt 1 view .LVU2372
	.loc 1 3805 22 is_stmt 0 view .LVU2373
	add	r3, r5, r5, lsl #1
	add	r3, r6, r3, lsl #3
	ldrb	r3, [r3, #68]	@ zero_extendqisi2
	.loc 1 3805 6 view .LVU2374
	tst	r3, #1
	beq	.L323
	.loc 1 3806 22 discriminator 1 view .LVU2375
	add	r3, r5, r5, lsl #1
	add	r3, r6, r3, lsl #3
	ldrb	r3, [r3, #68]	@ zero_extendqisi2
	.loc 1 3805 31 discriminator 1 view .LVU2376
	tst	r3, #2
	beq	.L323
	.loc 1 3810 3 is_stmt 1 view .LVU2377
	.loc 1 3810 30 is_stmt 0 view .LVU2378
	add	r1, r5, r5, lsl #1
	lsls	r1, r1, #3
	adds	r1, r1, #48
	add	r1, r1, r6
	.loc 1 3810 3 view .LVU2379
	adds	r1, r1, #4
	mov	r0, r4
	bl	net_ipv4_igmp_leave
.LVL551:
	b	.L323
	.cfi_endproc
.LFE1087:
	.size	leave_ipv4_mcast_all, .-leave_ipv4_mcast_all
	.section	.text.promisc_mode_set,"ax",%progbits
	.align	1
	.syntax unified
	.thumb
	.thumb_func
	.fpu fpv4-sp-d16
	.type	promisc_mode_set, %function
promisc_mode_set:
.LVL552:
.LFB1101:
	.loc 1 4120 1 is_stmt 1 view -0
	.cfi_startproc
	@ args = 0, pretend = 0, frame = 0
	@ frame_needed = 0, uses_anonymous_args = 0
	.loc 1 4120 1 is_stmt 0 view .LVU2381
	push	{r3, r4, r5, lr}
	.cfi_def_cfa_offset 16
	.cfi_offset 3, -16
	.cfi_offset 4, -12
	.cfi_offset 5, -8
	.cfi_offset 14, -4
	mov	r4, r0
	mov	r5, r1
	.loc 1 4121 2 is_stmt 1 view .LVU2382
.LVL553:
	.loc 1 4123 4 view .LVU2383
	.loc 1 4123 5 view .LVU2384
	.loc 1 4125 2 view .LVU2385
	.loc 1 4125 13 is_stmt 0 view .LVU2386
	bl	l2_flags_get
.LVL554:
	.loc 1 4126 2 is_stmt 1 view .LVU2387
	.loc 1 4126 5 is_stmt 0 view .LVU2388
	tst	r0, #4
	beq	.L330
	.loc 1 4131 2 is_stmt 1 view .LVU2389
.LVL555:
.LBB3045:
.LBI3045:
	.loc 2 568 43 view .LVU2390
.LBB3046:
	.loc 2 570 2 view .LVU2391
	.loc 2 570 5 is_stmt 0 view .LVU2392
	cbz	r4, .L331
	.loc 2 570 22 view .LVU2393
	ldr	r3, [r4]
	.loc 2 570 13 view .LVU2394
	cbz	r3, .L329
	.loc 2 574 2 is_stmt 1 view .LVU2395
	.loc 2 574 22 is_stmt 0 view .LVU2396
	ldr	r3, [r3, #4]
.L329:
.LVL556:
	.loc 2 574 22 view .LVU2397
.LBE3046:
.LBE3045:
	.loc 1 4131 5 view .LVU2398
	ldr	r2, .L335
	cmp	r3, r2
	beq	.L334
	.loc 1 4144 9 view .LVU2399
	movs	r0, #0
.LVL557:
.L327:
	.loc 1 4145 1 view .LVU2400
	pop	{r3, r4, r5, pc}
.LVL558:
.L331:
.LBB3048:
.LBB3047:
	.loc 2 571 9 view .LVU2401
	mov	r3, r4
	b	.L329
.LVL559:
.L334:
	.loc 2 571 9 view .LVU2402
.LBE3047:
.LBE3048:
.LBB3049:
	.loc 1 4132 3 is_stmt 1 view .LVU2403
	.loc 1 4132 13 is_stmt 0 view .LVU2404
	mov	r1, r5
	mov	r0, r4
.LVL560:
	.loc 1 4132 13 view .LVU2405
	bl	net_eth_promisc_mode
.LVL561:
	.loc 1 4134 3 is_stmt 1 view .LVU2406
	.loc 1 4134 6 is_stmt 0 view .LVU2407
	cmp	r0, #0
	.loc 1 4134 6 view .LVU2408
	blt	.L327
.LBE3049:
	.loc 1 4144 9 view .LVU2409
	movs	r0, #0
.LVL562:
	.loc 1 4144 9 view .LVU2410
	b	.L327
.LVL563:
.L330:
	.loc 1 4127 10 view .LVU2411
	mvn	r0, #133
.LVL564:
	.loc 1 4127 10 view .LVU2412
	b	.L327
.L336:
	.align	2
.L335:
	.word	_net_l2_ETHERNET
	.cfi_endproc
.LFE1101:
	.size	promisc_mode_set, .-promisc_mode_set
	.section	.text.iface_router_init,"ax",%progbits
	.align	1
	.syntax unified
	.thumb
	.thumb_func
	.fpu fpv4-sp-d16
	.type	iface_router_init, %function
iface_router_init:
.LFB980:
	.loc 1 922 1 is_stmt 1 view -0
	.cfi_startproc
	@ args = 0, pretend = 0, frame = 0
	@ frame_needed = 0, uses_anonymous_args = 0
	push	{r3, lr}
	.cfi_def_cfa_offset 8
	.cfi_offset 3, -8
	.cfi_offset 14, -4
	.loc 1 923 2 view .LVU2414
	ldr	r1, .L339
	ldr	r0, .L339+4
	bl	k_work_init_delayable
.LVL565:
	.loc 1 924 2 view .LVU2415
.LBB3050:
.LBI3050:
	.loc 13 196 20 view .LVU2416
.LBB3051:
	.loc 13 198 2 view .LVU2417
	.loc 13 198 13 is_stmt 0 view .LVU2418
	ldr	r3, .L339+8
	movs	r2, #0
	str	r2, [r3]
	.loc 13 199 2 is_stmt 1 view .LVU2419
	.loc 13 199 13 is_stmt 0 view .LVU2420
	str	r2, [r3, #4]
.LVL566:
	.loc 13 199 13 view .LVU2421
.LBE3051:
.LBE3050:
	.loc 1 925 1 view .LVU2422
	pop	{r3, pc}
.L340:
	.align	2
.L339:
	.word	iface_router_expired
	.word	.LANCHOR11
	.word	.LANCHOR10
	.cfi_endproc
.LFE980:
	.size	iface_router_init, .-iface_router_init
	.section	.text.address_lifetime_timeout,"ax",%progbits
	.align	1
	.syntax unified
	.thumb
	.thumb_func
	.fpu fpv4-sp-d16
	.type	address_lifetime_timeout, %function
address_lifetime_timeout:
.LVL567:
.LFB1003:
	.loc 1 1547 1 is_stmt 1 view -0
	.cfi_startproc
	@ args = 0, pretend = 0, frame = 0
	@ frame_needed = 0, uses_anonymous_args = 0
	.loc 1 1547 1 is_stmt 0 view .LVU2424
	push	{r3, r4, r5, r6, r7, lr}
	.cfi_def_cfa_offset 24
	.cfi_offset 3, -24
	.cfi_offset 4, -20
	.cfi_offset 5, -16
	.cfi_offset 6, -12
	.cfi_offset 7, -8
	.cfi_offset 14, -4
	.loc 1 1548 2 is_stmt 1 view .LVU2425
.LVL568:
	.loc 1 1549 2 view .LVU2426
.LBB3052:
.LBI3052:
	.loc 11 1563 24 view .LVU2427
.LBB3053:
	.loc 11 1565 2 view .LVU2428
.LBB3054:
.LBI3054:
	.loc 11 1539 23 view .LVU2429
.LBB3055:
	.loc 11 1541 2 view .LVU2430
.LBB3056:
.LBI3056:
	.loc 8 562 23 view .LVU2431
.LBB3057:
	.loc 8 572 2 view .LVU2432
	.loc 8 572 7 view .LVU2433
	.loc 8 572 55 view .LVU2434
	.loc 8 573 2 view .LVU2435
	.loc 8 573 9 is_stmt 0 view .LVU2436
	bl	z_impl_k_uptime_ticks
.LVL569:
	.loc 8 573 9 view .LVU2437
.LBE3057:
.LBE3056:
.LBB3058:
.LBI3058:
	.loc 12 1102 24 is_stmt 1 view .LVU2438
.LBE3058:
.LBE3055:
.LBE3054:
.LBE3053:
.LBE3052:
	.loc 12 1105 2 view .LVU2439
.LBB3071:
.LBB3069:
.LBB3067:
.LBB3065:
.LBB3063:
.LBB3059:
.LBI3059:
	.loc 12 101 55 view .LVU2440
.LBB3060:
	.loc 12 106 1 view .LVU2441
	.loc 12 108 1 view .LVU2442
	.loc 12 111 2 view .LVU2443
	.loc 12 115 2 view .LVU2444
	.loc 12 117 2 view .LVU2445
.LBE3060:
.LBE3059:
.LBE3063:
.LBE3065:
.LBE3067:
.LBE3069:
.LBE3071:
	.loc 12 118 3 view .LVU2446
	.loc 12 120 3 view .LVU2447
	.loc 12 123 3 view .LVU2448
.LBB3072:
.LBB3070:
.LBB3068:
.LBB3066:
.LBB3064:
.LBB3062:
.LBB3061:
	.loc 12 133 2 view .LVU2449
	.loc 12 134 3 view .LVU2450
	.loc 12 135 3 view .LVU2451
	.loc 12 138 4 view .LVU2452
	.loc 12 138 13 is_stmt 0 view .LVU2453
	movs	r2, #10
	movs	r3, #0
	bl	__aeabi_uldivmod
.LVL570:
	.loc 12 138 13 view .LVU2454
.LBE3061:
.LBE3062:
.LBE3064:
.LBE3066:
.LBE3068:
	.loc 11 1565 9 view .LVU2455
	mov	r7, r0
.LVL571:
	.loc 11 1565 9 view .LVU2456
.LBE3070:
.LBE3072:
	.loc 1 1550 2 is_stmt 1 view .LVU2457
	.loc 1 1552 2 view .LVU2458
	.loc 1 1554 2 view .LVU2459
.LBB3073:
.LBI3073:
	.loc 8 899 19 view .LVU2460
.LBB3074:
	.loc 8 909 2 view .LVU2461
	.loc 8 909 7 view .LVU2462
	.loc 8 909 55 view .LVU2463
	.loc 8 910 2 view .LVU2464
	.loc 8 910 9 is_stmt 0 view .LVU2465
	mov	r2, #-1
	mov	r3, #-1
	ldr	r0, .L358
.LVL572:
	.loc 8 910 9 view .LVU2466
	bl	z_impl_k_mutex_lock
.LVL573:
	.loc 8 910 9 view .LVU2467
.LBE3074:
.LBE3073:
	.loc 1 1556 2 is_stmt 1 view .LVU2468
.LBB3075:
.LBI3075:
	.loc 13 231 28 view .LVU2469
.LBB3076:
	.loc 13 233 2 view .LVU2470
	.loc 13 233 13 is_stmt 0 view .LVU2471
	ldr	r3, .L358+4
	ldr	r5, [r3]
.LVL574:
	.loc 13 233 13 view .LVU2472
.LBE3076:
.LBE3075:
	.loc 1 1556 4 view .LVU2473
	cbz	r5, .L351
.LVL575:
	.loc 13 233 2 is_stmt 1 view .LVU2474
	.loc 1 1556 3 is_stmt 0 view .LVU2475
	subs	r5, r5, #20
.LVL576:
	.loc 1 1556 3 view .LVU2476
	beq	.L352
.LVL577:
.LBB3077:
.LBI3077:
	.loc 13 285 29 is_stmt 1 discriminator 5 view .LVU2477
.LBB3078:
	.loc 13 285 70 discriminator 5 view .LVU2478
	.loc 13 285 38 is_stmt 0 discriminator 5 view .LVU2479
	adds	r4, r5, #20
.LVL578:
	.loc 13 285 38 discriminator 5 view .LVU2480
	beq	.L342
.LVL579:
.LBB3079:
.LBI3079:
	.loc 13 274 29 is_stmt 1 view .LVU2481
.LBE3079:
.LBE3078:
.LBE3077:
	.loc 13 274 79 view .LVU2482
.LBB3084:
.LBB3083:
.LBB3082:
.LBB3080:
.LBI3080:
	.loc 13 204 28 view .LVU2483
.LBB3081:
	.loc 13 206 2 view .LVU2484
	.loc 13 206 13 is_stmt 0 view .LVU2485
	ldr	r4, [r5, #20]
.LVL580:
	.loc 13 206 13 view .LVU2486
.LBE3081:
.LBE3080:
.LBE3082:
.LBE3083:
.LBE3084:
	.loc 1 1556 4 view .LVU2487
	cbz	r4, .L342
.LVL581:
	.loc 13 285 70 is_stmt 1 view .LVU2488
	.loc 13 274 79 view .LVU2489
	.loc 13 206 2 view .LVU2490
	.loc 1 1556 4 is_stmt 0 view .LVU2491
	subs	r4, r4, #20
	b	.L342
.LVL582:
.L356:
.LBB3085:
	.loc 1 1563 4 is_stmt 1 view .LVU2492
	mov	r0, r5
.LVL583:
	.loc 1 1563 4 is_stmt 0 view .LVU2493
	bl	address_expired
.LVL584:
	.loc 1 1564 4 is_stmt 1 view .LVU2494
	b	.L344
.LVL585:
.L351:
	.loc 1 1564 4 is_stmt 0 view .LVU2495
.LBE3085:
	.loc 1 1556 3 view .LVU2496
	mov	r4, r5
.L342:
	.loc 1 1556 3 discriminator 22 view .LVU2497
	mov	r6, #-1
	b	.L348
.LVL586:
.L352:
	.loc 1 1556 3 view .LVU2498
	mov	r4, r5
	b	.L342
.LVL587:
.L354:
	.loc 1 1556 3 view .LVU2499
	mov	r3, r4
.L347:
	.loc 1 1556 3 discriminator 22 view .LVU2500
	mov	r5, r4
.LVL588:
	.loc 1 1556 3 discriminator 22 view .LVU2501
	mov	r4, r3
.LVL589:
.L348:
	.loc 1 1556 4 is_stmt 1 discriminator 22 view .LVU2502
	.loc 1 1556 2 is_stmt 0 discriminator 22 view .LVU2503
	cbz	r5, .L346
.LBB3086:
	.loc 1 1558 3 is_stmt 1 view .LVU2504
.LVL590:
	.loc 1 1559 3 view .LVU2505
	.loc 1 1559 26 is_stmt 0 view .LVU2506
	mov	r1, r7
	add	r0, r5, #20
.LVL591:
	.loc 1 1559 26 view .LVU2507
	bl	net_timeout_evaluate
.LVL592:
	.loc 1 1562 3 is_stmt 1 view .LVU2508
	.loc 1 1562 6 is_stmt 0 view .LVU2509
	cmp	r0, #0
	beq	.L356
	.loc 1 1567 3 is_stmt 1 view .LVU2510
	.loc 1 1567 6 is_stmt 0 view .LVU2511
	cmp	r0, r6
	bcs	.L345
	.loc 1 1568 16 view .LVU2512
	mov	r6, r0
.LVL593:
.L345:
	.loc 1 1571 3 is_stmt 1 view .LVU2513
	.loc 1 1571 6 is_stmt 0 view .LVU2514
	cmp	r5, r4
	beq	.L346
.LVL594:
.L344:
	.loc 1 1571 6 view .LVU2515
.LBE3086:
	.loc 1 1556 3 is_stmt 1 view .LVU2516
	.loc 1 1556 3 is_stmt 0 view .LVU2517
	cmp	r4, #0
	beq	.L354
.LVL595:
.LBB3087:
.LBI3087:
	.loc 13 285 29 is_stmt 1 discriminator 14 view .LVU2518
.LBB3088:
	.loc 13 285 70 discriminator 14 view .LVU2519
	.loc 13 285 38 is_stmt 0 discriminator 14 view .LVU2520
	adds	r3, r4, #20
	beq	.L347
.LVL596:
.LBB3089:
.LBI3089:
	.loc 13 274 29 is_stmt 1 view .LVU2521
.LBE3089:
.LBE3088:
.LBE3087:
	.loc 13 274 79 view .LVU2522
.LBB3094:
.LBB3093:
.LBB3092:
.LBB3090:
.LBI3090:
	.loc 13 204 28 view .LVU2523
.LBB3091:
	.loc 13 206 2 view .LVU2524
	.loc 13 206 13 is_stmt 0 view .LVU2525
	ldr	r3, [r4, #20]
.LVL597:
	.loc 13 206 13 view .LVU2526
.LBE3091:
.LBE3090:
.LBE3092:
.LBE3093:
.LBE3094:
	.loc 1 1556 4 view .LVU2527
	cmp	r3, #0
	beq	.L347
.LVL598:
	.loc 13 285 70 is_stmt 1 view .LVU2528
	.loc 13 274 79 view .LVU2529
	.loc 13 206 2 view .LVU2530
	.loc 1 1556 4 is_stmt 0 view .LVU2531
	subs	r3, r3, #20
	b	.L347
.LVL599:
.L346:
	.loc 1 1576 2 is_stmt 1 view .LVU2532
	.loc 1 1576 5 is_stmt 0 view .LVU2533
	cmp	r6, #-1
	bne	.L357
.L350:
	.loc 1 1582 2 is_stmt 1 view .LVU2534
.LVL600:
.LBB3095:
.LBI3095:
	.loc 8 917 19 view .LVU2535
.LBB3096:
	.loc 8 925 2 view .LVU2536
	.loc 8 925 7 view .LVU2537
	.loc 8 925 55 view .LVU2538
	.loc 8 926 2 view .LVU2539
	.loc 8 926 9 is_stmt 0 view .LVU2540
	ldr	r0, .L358
	bl	z_impl_k_mutex_unlock
.LVL601:
	.loc 8 926 9 view .LVU2541
.LBE3096:
.LBE3095:
	.loc 1 1583 1 view .LVU2542
	pop	{r3, r4, r5, r6, r7, pc}
.LVL602:
.L357:
.LBB3097:
	.loc 1 1577 3 is_stmt 1 discriminator 4 view .LVU2543
.LBB3098:
	.loc 1 1577 8 discriminator 4 view .LVU2544
.LBE3098:
	.loc 1 1577 142 discriminator 4 view .LVU2545
	.loc 1 1579 3 discriminator 4 view .LVU2546
.LBB3099:
.LBI3099:
	.loc 12 402 24 discriminator 4 view .LVU2547
.LBE3099:
.LBE3097:
	.loc 12 405 2 discriminator 4 view .LVU2548
.LBB3103:
.LBB3102:
.LBB3100:
.LBI3100:
	.loc 12 101 55 discriminator 4 view .LVU2549
.LBB3101:
	.loc 12 106 1 discriminator 4 view .LVU2550
	.loc 12 108 1 discriminator 4 view .LVU2551
	.loc 12 111 2 discriminator 4 view .LVU2552
	.loc 12 115 2 discriminator 4 view .LVU2553
	.loc 12 117 2 discriminator 4 view .LVU2554
	.loc 12 133 2 discriminator 4 view .LVU2555
	.loc 12 140 9 discriminator 4 view .LVU2556
	.loc 12 141 3 discriminator 4 view .LVU2557
	.loc 12 144 4 discriminator 4 view .LVU2558
	.loc 12 144 13 is_stmt 0 discriminator 4 view .LVU2559
	lsls	r0, r6, #2
	lsrs	r1, r6, #30
	adds	r0, r0, r6
	adc	r1, r1, #0
.LVL603:
	.loc 12 144 13 discriminator 4 view .LVU2560
.LBE3101:
.LBE3100:
.LBE3102:
	.loc 1 1579 3 discriminator 4 view .LVU2561
	adds	r2, r0, r0
	adc	r3, r1, r1
	ldr	r0, .L358+8
	bl	k_work_reschedule
.LVL604:
	b	.L350
.L359:
	.align	2
.L358:
	.word	.LANCHOR2
	.word	.LANCHOR6
	.word	.LANCHOR7
.LBE3103:
	.cfi_endproc
.LFE1003:
	.size	address_lifetime_timeout, .-address_lifetime_timeout
	.section	.text.z_impl_net_if_get_by_index,"ax",%progbits
	.align	1
	.global	z_impl_net_if_get_by_index
	.syntax unified
	.thumb
	.thumb_func
	.fpu fpv4-sp-d16
	.type	z_impl_net_if_get_by_index, %function
z_impl_net_if_get_by_index:
.LVL605:
.LFB954:
	.loc 1 131 1 is_stmt 1 view -0
	.cfi_startproc
	@ args = 0, pretend = 0, frame = 0
	@ frame_needed = 0, uses_anonymous_args = 0
	@ link register save eliminated.
	.loc 1 132 2 view .LVU2563
	.loc 1 132 5 is_stmt 0 view .LVU2564
	cmp	r0, #0
	.loc 1 132 5 view .LVU2565
	ble	.L362
	.loc 1 136 2 is_stmt 1 view .LVU2566
	.loc 1 136 32 is_stmt 0 view .LVU2567
	subs	r0, r0, #1
.LVL606:
	.loc 1 136 6 view .LVU2568
	mov	r2, #536
	ldr	r3, .L365
	mla	r0, r2, r0, r3
.LVL607:
	.loc 1 136 5 view .LVU2569
	ldr	r3, .L365+4
	cmp	r0, r3
	bcs	.L364
.L360:
	.loc 1 142 1 view .LVU2570
	bx	lr
.LVL608:
.L362:
	.loc 1 133 9 view .LVU2571
	movs	r0, #0
.LVL609:
	.loc 1 133 9 view .LVU2572
	bx	lr
.L364:
	.loc 1 138 9 view .LVU2573
	movs	r0, #0
	b	.L360
.L366:
	.align	2
.L365:
	.word	_net_if_list_start
	.word	_net_if_list_end
	.cfi_endproc
.LFE954:
	.size	z_impl_net_if_get_by_index, .-z_impl_net_if_get_by_index
	.section	.text.net_if_queue_tx,"ax",%progbits
	.align	1
	.global	net_if_queue_tx
	.syntax unified
	.thumb
	.thumb_func
	.fpu fpv4-sp-d16
	.type	net_if_queue_tx, %function
net_if_queue_tx:
.LVL610:
.LFB959:
	.loc 1 336 1 is_stmt 1 view -0
	.cfi_startproc
	@ args = 0, pretend = 0, frame = 0
	@ frame_needed = 0, uses_anonymous_args = 0
	.loc 1 336 1 is_stmt 0 view .LVU2575
	push	{r3, r4, r5, r6, r7, lr}
	.cfi_def_cfa_offset 24
	.cfi_offset 3, -24
	.cfi_offset 4, -20
	.cfi_offset 5, -16
	.cfi_offset 6, -12
	.cfi_offset 7, -8
	.cfi_offset 14, -4
	mov	r5, r0
	mov	r6, r1
	.loc 1 337 2 is_stmt 1 view .LVU2576
.LVL611:
	.file 16 "/home/sebin/thesis/zephyrproject/zephyr/include/net/net_pkt.h"
	.loc 16 1224 2 view .LVU2577
	.loc 16 1226 2 view .LVU2578
	.loc 1 343 2 view .LVU2579
.LBB3104:
.LBI3104:
	.loc 16 726 23 view .LVU2580
.LBB3105:
	.loc 16 728 2 view .LVU2581
	.loc 16 728 12 is_stmt 0 view .LVU2582
	ldrb	r7, [r1, #82]	@ zero_extendqisi2
.LVL612:
	.loc 16 728 12 view .LVU2583
.LBE3105:
.LBE3104:
	.loc 1 344 2 is_stmt 1 view .LVU2584
	.loc 1 344 15 is_stmt 0 view .LVU2585
	mov	r0, r7
.LVL613:
	.loc 1 344 15 view .LVU2586
	bl	net_tx_priority2tc
.LVL614:
	.loc 1 344 10 view .LVU2587
	uxtb	r0, r0
.LVL615:
	.loc 1 346 2 is_stmt 1 view .LVU2588
.LBB3106:
.LBI3106:
	.file 17 "/home/sebin/thesis/zephyrproject/zephyr/subsys/net/ip/net_stats.h"
	.loc 17 416 20 view .LVU2589
.LBB3107:
	.loc 17 418 6 view .LVU2590
	.loc 17 418 7 view .LVU2591
	.loc 17 418 9 view .LVU2592
	.loc 17 418 32 is_stmt 0 view .LVU2593
	ldr	r3, .L372
	add	r3, r3, r0, lsl #5
	ldr	r2, [r3, #216]
	.loc 17 418 37 view .LVU2594
	adds	r2, r2, #1
	str	r2, [r3, #216]
	.loc 17 418 43 is_stmt 1 view .LVU2595
	.loc 17 418 68 is_stmt 0 view .LVU2596
	adds	r3, r0, #7
	lsls	r3, r3, #5
	ldr	r2, [r5, r3]
	.loc 17 418 73 view .LVU2597
	adds	r2, r2, #1
	str	r2, [r5, r3]
	.loc 17 418 79 is_stmt 1 view .LVU2598
.LVL616:
	.loc 17 418 79 is_stmt 0 view .LVU2599
.LBE3107:
.LBE3106:
	.loc 1 347 2 is_stmt 1 view .LVU2600
.LBB3108:
.LBI3108:
	.loc 16 961 22 view .LVU2601
.LBB3109:
	.loc 16 963 2 view .LVU2602
	.loc 16 963 9 is_stmt 0 view .LVU2603
	ldr	r3, [r6, #8]
.LVL617:
.LBB3110:
.LBI3110:
	.file 18 "/home/sebin/thesis/zephyrproject/zephyr/include/net/buf.h"
	.loc 18 2465 22 is_stmt 1 view .LVU2604
.LBB3111:
	.loc 18 2467 2 view .LVU2605
	.loc 18 2469 2 view .LVU2606
	.loc 18 2467 9 is_stmt 0 view .LVU2607
	movs	r2, #0
.LVL618:
.L368:
	.loc 18 2469 8 is_stmt 1 view .LVU2608
	cbz	r3, .L371
	.loc 18 2470 3 view .LVU2609
	.loc 18 2470 15 is_stmt 0 view .LVU2610
	ldrh	r4, [r3, #12]
	.loc 18 2470 9 view .LVU2611
	add	r2, r2, r4
.LVL619:
	.loc 18 2471 3 is_stmt 1 view .LVU2612
	.loc 18 2471 7 is_stmt 0 view .LVU2613
	ldr	r3, [r3]
.LVL620:
	.loc 18 2471 7 view .LVU2614
	b	.L368
.L371:
	.loc 18 2474 2 is_stmt 1 view .LVU2615
.LVL621:
	.loc 18 2474 2 is_stmt 0 view .LVU2616
.LBE3111:
.LBE3110:
.LBE3109:
.LBE3108:
.LBB3112:
.LBI3112:
	.loc 17 421 20 is_stmt 1 view .LVU2617
.LBB3113:
	.loc 17 424 6 view .LVU2618
	.loc 17 424 7 view .LVU2619
	.loc 17 424 9 view .LVU2620
	.loc 17 424 39 is_stmt 0 view .LVU2621
	ldr	r1, .L372
	add	r4, r1, r0, lsl #5
	ldr	r3, [r4, #220]
	add	r3, r3, r2
	str	r3, [r4, #220]
	.loc 17 424 51 is_stmt 1 view .LVU2622
	.loc 17 424 83 is_stmt 0 view .LVU2623
	adds	r3, r0, #7
	lsls	r4, r3, #5
	add	r5, r5, r3, lsl #5
.LVL622:
	.loc 17 424 83 view .LVU2624
	ldr	r3, [r5, #4]
	add	r2, r2, r3
.LVL623:
	.loc 17 424 83 view .LVU2625
	str	r2, [r5, #4]
	.loc 17 424 95 is_stmt 1 view .LVU2626
.LVL624:
	.loc 17 424 95 is_stmt 0 view .LVU2627
.LBE3113:
.LBE3112:
	.loc 1 348 2 is_stmt 1 view .LVU2628
.LBB3114:
.LBI3114:
	.loc 17 427 20 view .LVU2629
.LBB3115:
	.loc 17 430 6 view .LVU2630
	.loc 17 430 7 view .LVU2631
	.loc 17 430 9 view .LVU2632
	.loc 17 430 42 is_stmt 0 view .LVU2633
	strb	r7, [r1, r4]
	.loc 17 430 56 is_stmt 1 view .LVU2634
	.loc 17 430 91 is_stmt 0 view .LVU2635
	strb	r7, [r5, #8]
	.loc 17 430 105 is_stmt 1 view .LVU2636
.LVL625:
	.loc 17 430 105 is_stmt 0 view .LVU2637
.LBE3115:
.LBE3114:
	.loc 1 354 2 is_stmt 1 view .LVU2638
	.loc 1 363 2 view .LVU2639
.LBB3116:
	.loc 1 363 7 view .LVU2640
.LBE3116:
	.loc 1 363 142 view .LVU2641
	.loc 1 370 2 view .LVU2642
	.loc 1 370 7 is_stmt 0 view .LVU2643
	mov	r1, r6
	bl	net_tc_submit_to_tx_queue
.LVL626:
	.loc 1 374 4 is_stmt 1 view .LVU2644
	.loc 1 376 1 is_stmt 0 view .LVU2645
	pop	{r3, r4, r5, r6, r7, pc}
.LVL627:
.L373:
	.loc 1 376 1 view .LVU2646
	.align	2
.L372:
	.word	net_stats
	.cfi_endproc
.LFE959:
	.size	net_if_queue_tx, .-net_if_queue_tx
	.section	.text.net_if_stats_reset,"ax",%progbits
	.align	1
	.global	net_if_stats_reset
	.syntax unified
	.thumb
	.thumb_func
	.fpu fpv4-sp-d16
	.type	net_if_stats_reset, %function
net_if_stats_reset:
.LVL628:
.LFB960:
	.loc 1 379 1 is_stmt 1 view -0
	.cfi_startproc
	@ args = 0, pretend = 0, frame = 0
	@ frame_needed = 0, uses_anonymous_args = 0
	.loc 1 379 1 is_stmt 0 view .LVU2648
	push	{r3, lr}
	.cfi_def_cfa_offset 8
	.cfi_offset 3, -8
	.cfi_offset 14, -4
	.loc 1 381 2 is_stmt 1 view .LVU2649
	.loc 1 381 45 view .LVU2650
	.loc 1 381 86 view .LVU2651
.LBB3117:
	.loc 1 381 91 view .LVU2652
.LVL629:
	.loc 1 381 106 is_stmt 0 view .LVU2653
	ldr	r3, .L381
.LVL630:
.L375:
	.loc 1 381 132 is_stmt 1 discriminator 1 view .LVU2654
.LBE3117:
	.loc 1 381 137 discriminator 1 view .LVU2655
	.loc 1 381 138 discriminator 1 view .LVU2656
	.loc 1 381 140 discriminator 1 view .LVU2657
.LBB3120:
	.loc 1 381 86 is_stmt 0 discriminator 1 view .LVU2658
	ldr	r2, .L381+4
	cmp	r3, r2
	bcs	.L374
	.loc 1 382 3 is_stmt 1 view .LVU2659
	.loc 1 382 6 is_stmt 0 view .LVU2660
	cmp	r3, r0
	beq	.L380
	.loc 1 381 168 is_stmt 1 discriminator 2 view .LVU2661
	.loc 1 381 171 is_stmt 0 discriminator 2 view .LVU2662
	add	r3, r3, #536
.LVL631:
	.loc 1 381 171 discriminator 2 view .LVU2663
	b	.L375
.L380:
	.loc 1 383 3 is_stmt 1 view .LVU2664
.LVL632:
.LBB3118:
.LBI3118:
	.loc 15 86 189 view .LVU2665
.LBB3119:
	.loc 15 86 238 view .LVU2666
	.loc 15 86 245 is_stmt 0 view .LVU2667
	mov	r2, #520
	movs	r1, #0
	adds	r0, r0, #8
.LVL633:
	.loc 15 86 245 view .LVU2668
	bl	memset
.LVL634:
	.loc 15 86 245 view .LVU2669
.LBE3119:
.LBE3118:
	.loc 1 384 4 is_stmt 1 view .LVU2670
.L374:
	.loc 1 384 4 is_stmt 0 view .LVU2671
.LBE3120:
	.loc 1 390 1 view .LVU2672
	pop	{r3, pc}
.L382:
	.align	2
.L381:
	.word	_net_if_list_start
	.word	_net_if_list_end
	.cfi_endproc
.LFE960:
	.size	net_if_stats_reset, .-net_if_stats_reset
	.section	.text.net_if_stats_reset_all,"ax",%progbits
	.align	1
	.global	net_if_stats_reset_all
	.syntax unified
	.thumb
	.thumb_func
	.fpu fpv4-sp-d16
	.type	net_if_stats_reset_all, %function
net_if_stats_reset_all:
.LFB961:
	.loc 1 393 1 is_stmt 1 view -0
	.cfi_startproc
	@ args = 0, pretend = 0, frame = 0
	@ frame_needed = 0, uses_anonymous_args = 0
	push	{r4, lr}
	.cfi_def_cfa_offset 8
	.cfi_offset 4, -8
	.cfi_offset 14, -4
	.loc 1 395 2 view .LVU2674
.LVL635:
.LBB3121:
.LBI3121:
	.loc 8 899 19 view .LVU2675
.LBB3122:
	.loc 8 909 2 view .LVU2676
	.loc 8 909 7 view .LVU2677
	.loc 8 909 55 view .LVU2678
	.loc 8 910 2 view .LVU2679
	.loc 8 910 9 is_stmt 0 view .LVU2680
	mov	r2, #-1
	mov	r3, #-1
	ldr	r0, .L388
	bl	z_impl_k_mutex_lock
.LVL636:
	.loc 8 910 9 view .LVU2681
.LBE3122:
.LBE3121:
	.loc 1 397 2 is_stmt 1 view .LVU2682
	.loc 1 397 45 view .LVU2683
	.loc 1 397 86 view .LVU2684
.LBB3123:
	.loc 1 397 91 view .LVU2685
	.loc 1 397 106 is_stmt 0 view .LVU2686
	ldr	r4, .L388+4
.LVL637:
.L384:
	.loc 1 397 134 is_stmt 1 discriminator 1 view .LVU2687
.LBE3123:
	.loc 1 397 139 discriminator 1 view .LVU2688
	.loc 1 397 140 discriminator 1 view .LVU2689
	.loc 1 397 142 discriminator 1 view .LVU2690
.LBB3126:
	.loc 1 397 86 is_stmt 0 discriminator 1 view .LVU2691
	ldr	r3, .L388+8
	cmp	r4, r3
	bcs	.L387
	.loc 1 398 2 is_stmt 1 view .LVU2692
.LVL638:
.LBB3124:
.LBI3124:
	.loc 15 86 189 view .LVU2693
.LBB3125:
	.loc 15 86 238 view .LVU2694
	.loc 15 86 245 is_stmt 0 view .LVU2695
	mov	r2, #520
	movs	r1, #0
	add	r0, r4, #8
.LVL639:
	.loc 15 86 245 view .LVU2696
	bl	memset
.LVL640:
	.loc 15 86 245 view .LVU2697
.LBE3125:
.LBE3124:
	.loc 1 397 172 is_stmt 1 view .LVU2698
	.loc 1 397 177 is_stmt 0 view .LVU2699
	add	r4, r4, #536
.LVL641:
	.loc 1 397 177 view .LVU2700
	b	.L384
.L387:
	.loc 1 397 177 view .LVU2701
.LBE3126:
	.loc 1 401 2 is_stmt 1 view .LVU2702
.LVL642:
.LBB3127:
.LBI3127:
	.loc 8 917 19 view .LVU2703
.LBB3128:
	.loc 8 925 2 view .LVU2704
	.loc 8 925 7 view .LVU2705
	.loc 8 925 55 view .LVU2706
	.loc 8 926 2 view .LVU2707
	.loc 8 926 9 is_stmt 0 view .LVU2708
	ldr	r0, .L388
	bl	z_impl_k_mutex_unlock
.LVL643:
	.loc 8 926 9 view .LVU2709
.LBE3128:
.LBE3127:
	.loc 1 403 1 view .LVU2710
	pop	{r4, pc}
.LVL644:
.L389:
	.loc 1 403 1 view .LVU2711
	.align	2
.L388:
	.word	.LANCHOR2
	.word	_net_if_list_start
	.word	_net_if_list_end
	.cfi_endproc
.LFE961:
	.size	net_if_stats_reset_all, .-net_if_stats_reset_all
	.section	.text.net_if_set_link_addr_locked,"ax",%progbits
	.align	1
	.global	net_if_set_link_addr_locked
	.syntax unified
	.thumb
	.thumb_func
	.fpu fpv4-sp-d16
	.type	net_if_set_link_addr_locked, %function
net_if_set_link_addr_locked:
.LVL645:
.LFB964:
	.loc 1 520 1 is_stmt 1 view -0
	.cfi_startproc
	@ args = 0, pretend = 0, frame = 0
	@ frame_needed = 0, uses_anonymous_args = 0
	.loc 1 520 1 is_stmt 0 view .LVU2713
	push	{r3, r4, r5, r6, r7, lr}
	.cfi_def_cfa_offset 24
	.cfi_offset 3, -24
	.cfi_offset 4, -20
	.cfi_offset 5, -16
	.cfi_offset 6, -12
	.cfi_offset 7, -8
	.cfi_offset 14, -4
	mov	r4, r0
	mov	r7, r1
	mov	r6, r2
	mov	r5, r3
	.loc 1 521 2 is_stmt 1 view .LVU2714
	.loc 1 523 2 view .LVU2715
.LVL646:
.LBB3147:
.LBI3147:
	.loc 8 899 19 view .LVU2716
.LBB3148:
	.loc 8 909 2 view .LVU2717
	.loc 8 909 7 view .LVU2718
	.loc 8 909 55 view .LVU2719
	.loc 8 910 2 view .LVU2720
	.loc 8 910 9 is_stmt 0 view .LVU2721
	mov	r2, #-1
.LVL647:
	.loc 8 910 9 view .LVU2722
	mov	r3, #-1
.LVL648:
	.loc 8 910 9 view .LVU2723
	ldr	r0, .L395
.LVL649:
	.loc 8 910 9 view .LVU2724
	bl	z_impl_k_mutex_lock
.LVL650:
	.loc 8 910 9 view .LVU2725
.LBE3148:
.LBE3147:
	.loc 1 525 2 is_stmt 1 view .LVU2726
.LBB3149:
.LBI3149:
	.loc 2 735 19 view .LVU2727
.LBB3150:
	.loc 2 739 2 view .LVU2728
.LBB3151:
.LBI3151:
	.loc 2 541 19 view .LVU2729
.LBB3152:
	.loc 2 544 2 view .LVU2730
	.loc 2 544 5 is_stmt 0 view .LVU2731
	cbz	r4, .L391
	.loc 2 548 2 is_stmt 1 view .LVU2732
	.loc 2 548 30 is_stmt 0 view .LVU2733
	ldr	r3, [r4]
.LVL651:
.LBB3153:
.LBI3153:
	.loc 9 128 19 is_stmt 1 view .LVU2734
.LBB3154:
	.loc 9 130 2 view .LVU2735
.LBB3155:
.LBI3155:
	.loc 10 138 28 view .LVU2736
.LBB3156:
	.loc 10 140 2 view .LVU2737
	.loc 10 140 9 is_stmt 0 view .LVU2738
	dmb	ish
	ldr	r3, [r3, #12]
.LVL652:
	.loc 10 140 9 view .LVU2739
	dmb	ish
.LVL653:
	.loc 10 140 9 view .LVU2740
.LBE3156:
.LBE3155:
	.loc 9 132 2 is_stmt 1 view .LVU2741
	.loc 9 132 2 is_stmt 0 view .LVU2742
.LBE3154:
.LBE3153:
.LBE3152:
.LBE3151:
	.loc 2 739 5 view .LVU2743
	tst	r3, #1
	bne	.L393
.LVL654:
.L391:
	.loc 2 743 2 is_stmt 1 view .LVU2744
.LBB3157:
.LBI3157:
	.loc 2 680 36 view .LVU2745
.LBB3158:
	.loc 2 682 2 view .LVU2746
	.loc 2 682 15 is_stmt 0 view .LVU2747
	ldr	r3, [r4]
.LVL655:
	.loc 2 682 15 view .LVU2748
.LBE3158:
.LBE3157:
	.loc 2 743 36 view .LVU2749
	str	r7, [r3, #16]
	.loc 2 744 2 is_stmt 1 view .LVU2750
.LVL656:
.LBB3159:
.LBI3159:
	.loc 2 680 36 view .LVU2751
.LBB3160:
	.loc 2 682 2 view .LVU2752
	.loc 2 682 15 is_stmt 0 view .LVU2753
	ldr	r3, [r4]
.LVL657:
	.loc 2 682 15 view .LVU2754
.LBE3160:
.LBE3159:
	.loc 2 744 35 view .LVU2755
	strb	r6, [r3, #20]
	.loc 2 745 2 is_stmt 1 view .LVU2756
.LVL658:
.LBB3161:
.LBI3161:
	.loc 2 680 36 view .LVU2757
.LBB3162:
	.loc 2 682 2 view .LVU2758
	.loc 2 682 15 is_stmt 0 view .LVU2759
	ldr	r3, [r4]
.LVL659:
	.loc 2 682 15 view .LVU2760
.LBE3162:
.LBE3161:
	.loc 2 745 36 view .LVU2761
	strb	r5, [r3, #21]
	.loc 2 747 2 is_stmt 1 view .LVU2762
.LVL660:
	.loc 2 747 2 is_stmt 0 view .LVU2763
.LBE3150:
.LBE3149:
	.file 19 "/home/sebin/thesis/zephyrproject/zephyr/include/net/hostname.h"
	.loc 19 77 2 is_stmt 1 view .LVU2764
.LBB3165:
.LBB3163:
	.loc 2 749 2 view .LVU2765
	.loc 2 749 9 is_stmt 0 view .LVU2766
	movs	r4, #0
.LVL661:
.L392:
	.loc 2 749 9 view .LVU2767
.LBE3163:
.LBE3165:
	.loc 1 527 2 is_stmt 1 view .LVU2768
.LBB3166:
.LBI3166:
	.loc 8 917 19 view .LVU2769
.LBB3167:
	.loc 8 925 2 view .LVU2770
	.loc 8 925 7 view .LVU2771
	.loc 8 925 55 view .LVU2772
	.loc 8 926 2 view .LVU2773
	.loc 8 926 9 is_stmt 0 view .LVU2774
	ldr	r0, .L395
	bl	z_impl_k_mutex_unlock
.LVL662:
	.loc 8 926 9 view .LVU2775
.LBE3167:
.LBE3166:
	.loc 1 529 2 is_stmt 1 view .LVU2776
	.loc 1 530 1 is_stmt 0 view .LVU2777
	mov	r0, r4
	pop	{r3, r4, r5, r6, r7, pc}
.LVL663:
.L393:
.LBB3168:
.LBB3164:
	.loc 2 740 10 view .LVU2778
	mov	r4, #-1
.LVL664:
	.loc 2 740 10 view .LVU2779
	b	.L392
.L396:
	.align	2
.L395:
	.word	.LANCHOR2
.LBE3164:
.LBE3168:
	.cfi_endproc
.LFE964:
	.size	net_if_set_link_addr_locked, .-net_if_set_link_addr_locked
	.section	.text.net_if_get_by_link_addr,"ax",%progbits
	.align	1
	.global	net_if_get_by_link_addr
	.syntax unified
	.thumb
	.thumb_func
	.fpu fpv4-sp-d16
	.type	net_if_get_by_link_addr, %function
net_if_get_by_link_addr:
.LVL665:
.LFB965:
	.loc 1 533 1 is_stmt 1 view -0
	.cfi_startproc
	@ args = 0, pretend = 0, frame = 0
	@ frame_needed = 0, uses_anonymous_args = 0
	.loc 1 533 1 is_stmt 0 view .LVU2781
	push	{r3, r4, r5, lr}
	.cfi_def_cfa_offset 16
	.cfi_offset 3, -16
	.cfi_offset 4, -12
	.cfi_offset 5, -8
	.cfi_offset 14, -4
	mov	r5, r0
	.loc 1 534 2 is_stmt 1 view .LVU2782
	.loc 1 534 45 view .LVU2783
	.loc 1 534 86 view .LVU2784
.LBB3169:
	.loc 1 534 91 view .LVU2785
.LVL666:
	.loc 1 534 106 is_stmt 0 view .LVU2786
	ldr	r4, .L403
.LVL667:
.L398:
	.loc 1 534 134 is_stmt 1 discriminator 1 view .LVU2787
.LBE3169:
	.loc 1 534 139 discriminator 1 view .LVU2788
	.loc 1 534 140 discriminator 1 view .LVU2789
	.loc 1 534 142 discriminator 1 view .LVU2790
.LBB3172:
	.loc 1 534 86 is_stmt 0 discriminator 1 view .LVU2791
	ldr	r3, .L403+4
	cmp	r4, r3
	bcs	.L402
	.loc 1 535 3 is_stmt 1 view .LVU2792
.LVL668:
.LBB3170:
.LBI3170:
	.loc 2 680 36 view .LVU2793
.LBB3171:
	.loc 2 682 2 view .LVU2794
	.loc 2 682 15 is_stmt 0 view .LVU2795
	ldr	r3, [r4]
.LVL669:
	.loc 2 682 15 view .LVU2796
.LBE3171:
.LBE3170:
	.loc 1 535 8 view .LVU2797
	ldrb	r2, [r5, #4]	@ zero_extendqisi2
	ldr	r1, [r5]
	ldr	r0, [r3, #16]
	bl	memcmp
.LVL670:
	.loc 1 535 6 view .LVU2798
	cbz	r0, .L397
	.loc 1 534 172 is_stmt 1 discriminator 2 view .LVU2799
	.loc 1 534 177 is_stmt 0 discriminator 2 view .LVU2800
	add	r4, r4, #536
.LVL671:
	.loc 1 534 177 discriminator 2 view .LVU2801
	b	.L398
.L402:
	.loc 1 534 177 discriminator 2 view .LVU2802
.LBE3172:
	.loc 1 541 8 view .LVU2803
	movs	r4, #0
.LVL672:
.L397:
	.loc 1 542 1 view .LVU2804
	mov	r0, r4
	pop	{r3, r4, r5, pc}
.LVL673:
.L404:
	.loc 1 542 1 view .LVU2805
	.align	2
.L403:
	.word	_net_if_list_start
	.word	_net_if_list_end
	.cfi_endproc
.LFE965:
	.size	net_if_get_by_link_addr, .-net_if_get_by_link_addr
	.section	.text.net_if_lookup_by_dev,"ax",%progbits
	.align	1
	.global	net_if_lookup_by_dev
	.syntax unified
	.thumb
	.thumb_func
	.fpu fpv4-sp-d16
	.type	net_if_lookup_by_dev, %function
net_if_lookup_by_dev:
.LVL674:
.LFB966:
	.loc 1 545 1 is_stmt 1 view -0
	.cfi_startproc
	@ args = 0, pretend = 0, frame = 0
	@ frame_needed = 0, uses_anonymous_args = 0
	@ link register save eliminated.
	.loc 1 545 1 is_stmt 0 view .LVU2807
	mov	r2, r0
	.loc 1 546 2 is_stmt 1 view .LVU2808
	.loc 1 546 45 view .LVU2809
	.loc 1 546 86 view .LVU2810
.LBB3173:
	.loc 1 546 91 view .LVU2811
.LVL675:
	.loc 1 546 106 is_stmt 0 view .LVU2812
	ldr	r0, .L410
.LVL676:
.L406:
	.loc 1 546 134 is_stmt 1 discriminator 1 view .LVU2813
.LBE3173:
	.loc 1 546 139 discriminator 1 view .LVU2814
	.loc 1 546 140 discriminator 1 view .LVU2815
	.loc 1 546 142 discriminator 1 view .LVU2816
.LBB3176:
	.loc 1 546 86 is_stmt 0 discriminator 1 view .LVU2817
	ldr	r3, .L410+4
	cmp	r0, r3
	bcs	.L409
	.loc 1 547 3 is_stmt 1 view .LVU2818
.LVL677:
.LBB3174:
.LBI3174:
	.loc 2 606 36 view .LVU2819
.LBB3175:
	.loc 2 608 2 view .LVU2820
	.loc 2 608 14 is_stmt 0 view .LVU2821
	ldr	r3, [r0]
	.loc 2 608 22 view .LVU2822
	ldr	r3, [r3]
.LVL678:
	.loc 2 608 22 view .LVU2823
.LBE3175:
.LBE3174:
	.loc 1 547 6 view .LVU2824
	cmp	r2, r3
	beq	.L405
	.loc 1 546 172 is_stmt 1 discriminator 2 view .LVU2825
	.loc 1 546 177 is_stmt 0 discriminator 2 view .LVU2826
	add	r0, r0, #536
.LVL679:
	.loc 1 546 177 discriminator 2 view .LVU2827
	b	.L406
.L409:
	.loc 1 546 177 discriminator 2 view .LVU2828
.LBE3176:
	.loc 1 552 8 view .LVU2829
	movs	r0, #0
.LVL680:
.L405:
	.loc 1 553 1 view .LVU2830
	bx	lr
.L411:
	.align	2
.L410:
	.word	_net_if_list_start
	.word	_net_if_list_end
	.cfi_endproc
.LFE966:
	.size	net_if_lookup_by_dev, .-net_if_lookup_by_dev
	.section	.text.net_if_get_default,"ax",%progbits
	.align	1
	.global	net_if_get_default
	.syntax unified
	.thumb
	.thumb_func
	.fpu fpv4-sp-d16
	.type	net_if_get_default, %function
net_if_get_default:
.LFB967:
	.loc 1 556 1 is_stmt 1 view -0
	.cfi_startproc
	@ args = 0, pretend = 0, frame = 0
	@ frame_needed = 0, uses_anonymous_args = 0
	@ link register save eliminated.
	.loc 1 557 2 view .LVU2832
.LVL681:
	.loc 1 559 2 view .LVU2833
	.loc 1 559 5 is_stmt 0 view .LVU2834
	ldr	r2, .L415
	ldr	r3, .L415+4
	cmp	r2, r3
	beq	.L414
	.loc 1 588 23 view .LVU2835
	mov	r0, r2
	bx	lr
.L414:
	.loc 1 560 9 view .LVU2836
	movs	r0, #0
	.loc 1 589 1 view .LVU2837
	bx	lr
.L416:
	.align	2
.L415:
	.word	_net_if_list_start
	.word	_net_if_list_end
	.cfi_endproc
.LFE967:
	.size	net_if_get_default, .-net_if_get_default
	.section	.text.net_if_get_first_by_type,"ax",%progbits
	.align	1
	.global	net_if_get_first_by_type
	.syntax unified
	.thumb
	.thumb_func
	.fpu fpv4-sp-d16
	.type	net_if_get_first_by_type, %function
net_if_get_first_by_type:
.LVL682:
.LFB968:
	.loc 1 592 1 is_stmt 1 view -0
	.cfi_startproc
	@ args = 0, pretend = 0, frame = 0
	@ frame_needed = 0, uses_anonymous_args = 0
	@ link register save eliminated.
	.loc 1 592 1 is_stmt 0 view .LVU2839
	mov	r2, r0
	.loc 1 593 2 is_stmt 1 view .LVU2840
	.loc 1 593 45 view .LVU2841
	.loc 1 593 86 view .LVU2842
.LBB3177:
	.loc 1 593 91 view .LVU2843
.LVL683:
	.loc 1 593 106 is_stmt 0 view .LVU2844
	ldr	r0, .L424
.LVL684:
	.loc 1 593 86 view .LVU2845
	b	.L418
.LVL685:
.L422:
.LBB3178:
.LBB3179:
	.loc 2 571 9 view .LVU2846
	mov	r3, r0
.L419:
.LVL686:
	.loc 2 571 9 view .LVU2847
.LBE3179:
.LBE3178:
	.loc 1 599 6 view .LVU2848
	cmp	r2, r3
	beq	.L417
	.loc 1 593 172 is_stmt 1 discriminator 2 view .LVU2849
	.loc 1 593 177 is_stmt 0 discriminator 2 view .LVU2850
	add	r0, r0, #536
.LVL687:
.L418:
	.loc 1 593 134 is_stmt 1 discriminator 1 view .LVU2851
.LBE3177:
	.loc 1 593 139 discriminator 1 view .LVU2852
	.loc 1 593 140 discriminator 1 view .LVU2853
	.loc 1 593 142 discriminator 1 view .LVU2854
.LBB3182:
	.loc 1 593 86 is_stmt 0 discriminator 1 view .LVU2855
	ldr	r3, .L424+4
	cmp	r0, r3
	bcs	.L423
	.loc 1 594 3 is_stmt 1 view .LVU2856
	.loc 1 599 3 view .LVU2857
.LVL688:
.LBB3181:
.LBI3178:
	.loc 2 568 43 view .LVU2858
.LBB3180:
	.loc 2 570 2 view .LVU2859
	.loc 2 570 5 is_stmt 0 view .LVU2860
	cmp	r0, #0
	beq	.L422
	.loc 2 570 22 view .LVU2861
	ldr	r3, [r0]
	.loc 2 570 13 view .LVU2862
	cmp	r3, #0
	beq	.L419
	.loc 2 574 2 is_stmt 1 view .LVU2863
	.loc 2 574 22 is_stmt 0 view .LVU2864
	ldr	r3, [r3, #4]
	b	.L419
.LVL689:
.L423:
	.loc 2 574 22 view .LVU2865
.LBE3180:
.LBE3181:
.LBE3182:
	.loc 1 604 8 view .LVU2866
	movs	r0, #0
.LVL690:
.L417:
	.loc 1 605 1 view .LVU2867
	bx	lr
.L425:
	.align	2
.L424:
	.word	_net_if_list_start
	.word	_net_if_list_end
	.cfi_endproc
.LFE968:
	.size	net_if_get_first_by_type, .-net_if_get_first_by_type
	.section	.text.net_if_router_rm,"ax",%progbits
	.align	1
	.global	net_if_router_rm
	.syntax unified
	.thumb
	.thumb_func
	.fpu fpv4-sp-d16
	.type	net_if_router_rm, %function
net_if_router_rm:
.LVL691:
.LFB978:
	.loc 1 879 1 is_stmt 1 view -0
	.cfi_startproc
	@ args = 0, pretend = 0, frame = 0
	@ frame_needed = 0, uses_anonymous_args = 0
	.loc 1 879 1 is_stmt 0 view .LVU2869
	push	{r3, r4, r5, lr}
	.cfi_def_cfa_offset 16
	.cfi_offset 3, -16
	.cfi_offset 4, -12
	.cfi_offset 5, -8
	.cfi_offset 14, -4
	mov	r4, r0
	.loc 1 880 2 is_stmt 1 view .LVU2870
.LVL692:
.LBB3183:
.LBI3183:
	.loc 8 899 19 view .LVU2871
.LBB3184:
	.loc 8 909 2 view .LVU2872
	.loc 8 909 7 view .LVU2873
	.loc 8 909 55 view .LVU2874
	.loc 8 910 2 view .LVU2875
	.loc 8 910 9 is_stmt 0 view .LVU2876
	ldr	r5, .L428
	mov	r2, #-1
	mov	r3, #-1
	mov	r0, r5
.LVL693:
	.loc 8 910 9 view .LVU2877
	bl	z_impl_k_mutex_lock
.LVL694:
	.loc 8 910 9 view .LVU2878
.LBE3184:
.LBE3183:
	.loc 1 882 2 is_stmt 1 view .LVU2879
	.loc 1 882 18 is_stmt 0 view .LVU2880
	ldrb	r3, [r4, #34]	@ zero_extendqisi2
	bfc	r3, #0, #1
	strb	r3, [r4, #34]
	.loc 1 886 2 is_stmt 1 view .LVU2881
.LVL695:
.LBB3185:
.LBI3185:
	.loc 8 917 19 view .LVU2882
.LBB3186:
	.loc 8 925 2 view .LVU2883
	.loc 8 925 7 view .LVU2884
	.loc 8 925 55 view .LVU2885
	.loc 8 926 2 view .LVU2886
	.loc 8 926 9 is_stmt 0 view .LVU2887
	mov	r0, r5
	bl	z_impl_k_mutex_unlock
.LVL696:
	.loc 8 926 9 view .LVU2888
.LBE3186:
.LBE3185:
	.loc 1 887 1 view .LVU2889
	pop	{r3, r4, r5, pc}
.LVL697:
.L429:
	.loc 1 887 1 view .LVU2890
	.align	2
.L428:
	.word	.LANCHOR2
	.cfi_endproc
.LFE978:
	.size	net_if_router_rm, .-net_if_router_rm
	.section	.text.net_if_mcast_mon_register,"ax",%progbits
	.align	1
	.global	net_if_mcast_mon_register
	.syntax unified
	.thumb
	.thumb_func
	.fpu fpv4-sp-d16
	.type	net_if_mcast_mon_register, %function
net_if_mcast_mon_register:
.LVL698:
.LFB981:
	.loc 1 934 1 is_stmt 1 view -0
	.cfi_startproc
	@ args = 0, pretend = 0, frame = 0
	@ frame_needed = 0, uses_anonymous_args = 0
	.loc 1 934 1 is_stmt 0 view .LVU2892
	push	{r4, r5, r6, r7, r8, lr}
	.cfi_def_cfa_offset 24
	.cfi_offset 4, -24
	.cfi_offset 5, -20
	.cfi_offset 6, -16
	.cfi_offset 7, -12
	.cfi_offset 8, -8
	.cfi_offset 14, -4
	mov	r6, r0
	mov	r8, r1
	mov	r7, r2
	.loc 1 935 2 is_stmt 1 view .LVU2893
.LVL699:
.LBB3187:
.LBI3187:
	.loc 8 899 19 view .LVU2894
.LBB3188:
	.loc 8 909 2 view .LVU2895
	.loc 8 909 7 view .LVU2896
	.loc 8 909 55 view .LVU2897
	.loc 8 910 2 view .LVU2898
	.loc 8 910 9 is_stmt 0 view .LVU2899
	mov	r2, #-1
.LVL700:
	.loc 8 910 9 view .LVU2900
	mov	r3, #-1
	ldr	r0, .L443
.LVL701:
	.loc 8 910 9 view .LVU2901
	bl	z_impl_k_mutex_lock
.LVL702:
	.loc 8 910 9 view .LVU2902
.LBE3188:
.LBE3187:
	.loc 1 937 2 is_stmt 1 view .LVU2903
	mov	r5, r6
.LVL703:
.LBB3189:
.LBI3189:
	.loc 13 417 1 view .LVU2904
.LBB3190:
	.loc 13 417 67 view .LVU2905
	.loc 13 417 3 view .LVU2906
	.loc 13 417 22 view .LVU2907
.LBB3191:
.LBI3191:
	.loc 13 231 28 view .LVU2908
.LBB3192:
	.loc 13 233 2 view .LVU2909
	.loc 13 233 13 is_stmt 0 view .LVU2910
	ldr	r3, .L443+4
	ldr	r3, [r3]
.LVL704:
	.loc 13 233 13 view .LVU2911
.LBE3192:
.LBE3191:
	.loc 13 417 80 view .LVU2912
	movs	r4, #0
.LVL705:
.L431:
	.loc 13 417 61 is_stmt 1 view .LVU2913
	.loc 13 417 22 is_stmt 0 view .LVU2914
	cbz	r3, .L435
	.loc 13 417 39 is_stmt 1 view .LVU2915
	.loc 13 417 42 is_stmt 0 view .LVU2916
	cmp	r5, r3
	beq	.L439
	.loc 13 417 5 is_stmt 1 view .LVU2917
.LVL706:
	.loc 13 417 3 view .LVU2918
.LBB3193:
.LBI3193:
	.loc 13 285 29 view .LVU2919
.LBE3193:
.LBE3190:
.LBE3189:
	.loc 13 285 70 view .LVU2920
.LBB3228:
.LBB3224:
.LBB3198:
.LBB3194:
.LBI3194:
	.loc 13 274 29 view .LVU2921
.LBE3194:
.LBE3198:
.LBE3224:
.LBE3228:
	.loc 13 274 79 view .LVU2922
.LBB3229:
.LBB3225:
.LBB3199:
.LBB3197:
.LBB3195:
.LBI3195:
	.loc 13 204 28 view .LVU2923
.LBB3196:
	.loc 13 206 2 view .LVU2924
	.loc 13 206 2 is_stmt 0 view .LVU2925
.LBE3196:
.LBE3195:
.LBE3197:
.LBE3199:
	.loc 13 417 10 view .LVU2926
	mov	r4, r3
	.loc 13 417 10 view .LVU2927
	ldr	r3, [r3]
.LVL707:
	.loc 13 417 10 view .LVU2928
	b	.L431
.L439:
	.loc 13 417 59 is_stmt 1 view .LVU2929
.LVL708:
.LBB3200:
.LBI3200:
	.loc 13 401 20 view .LVU2930
.LBB3201:
	.loc 13 401 101 view .LVU2931
	.loc 13 401 104 is_stmt 0 view .LVU2932
	cbz	r4, .L440
	.loc 13 401 157 is_stmt 1 view .LVU2933
.LVL709:
.LBB3202:
.LBI3202:
	.loc 13 204 28 view .LVU2934
.LBB3203:
	.loc 13 206 2 view .LVU2935
	.loc 13 206 13 is_stmt 0 view .LVU2936
	ldr	r3, [r6]
.LVL710:
	.loc 13 206 13 view .LVU2937
.LBE3203:
.LBE3202:
.LBB3204:
.LBI3204:
	.loc 13 209 20 is_stmt 1 view .LVU2938
.LBB3205:
	.loc 13 211 2 view .LVU2939
	.loc 13 211 15 is_stmt 0 view .LVU2940
	str	r3, [r4]
.LVL711:
	.loc 13 211 15 view .LVU2941
.LBE3205:
.LBE3204:
	.loc 13 401 211 is_stmt 1 view .LVU2942
.LBB3206:
.LBI3206:
	.loc 13 243 28 view .LVU2943
.LBB3207:
	.loc 13 245 2 view .LVU2944
	.loc 13 245 13 is_stmt 0 view .LVU2945
	ldr	r3, .L443+4
	ldr	r3, [r3, #4]
.LVL712:
	.loc 13 245 13 view .LVU2946
.LBE3207:
.LBE3206:
	.loc 13 401 214 view .LVU2947
	cmp	r6, r3
	beq	.L441
.L434:
	.loc 13 401 291 is_stmt 1 view .LVU2948
.LVL713:
.LBB3208:
.LBI3208:
	.loc 13 209 20 view .LVU2949
.LBB3209:
	.loc 13 211 2 view .LVU2950
	.loc 13 211 15 is_stmt 0 view .LVU2951
	movs	r3, #0
	str	r3, [r6]
.LVL714:
	.loc 13 211 15 view .LVU2952
.LBE3209:
.LBE3208:
.LBE3201:
.LBE3200:
	.loc 13 417 95 is_stmt 1 view .LVU2953
.L435:
	.loc 13 417 95 is_stmt 0 view .LVU2954
.LBE3225:
.LBE3229:
	.loc 1 938 2 is_stmt 1 view .LVU2955
.LBB3230:
.LBI3230:
	.loc 13 298 20 view .LVU2956
.LBB3231:
	.loc 13 298 78 view .LVU2957
.LBB3232:
.LBI3232:
	.loc 13 231 28 view .LVU2958
.LBB3233:
	.loc 13 233 2 view .LVU2959
	.loc 13 233 13 is_stmt 0 view .LVU2960
	ldr	r3, .L443+4
	ldr	r2, [r3]
.LVL715:
	.loc 13 233 13 view .LVU2961
.LBE3233:
.LBE3232:
.LBB3234:
.LBI3234:
	.loc 13 209 20 is_stmt 1 view .LVU2962
.LBB3235:
	.loc 13 211 2 view .LVU2963
	.loc 13 211 15 is_stmt 0 view .LVU2964
	str	r2, [r6]
.LVL716:
	.loc 13 211 15 view .LVU2965
.LBE3235:
.LBE3234:
	.loc 13 298 129 is_stmt 1 view .LVU2966
.LBB3236:
.LBI3236:
	.loc 13 214 20 view .LVU2967
.LBB3237:
	.loc 13 216 2 view .LVU2968
	.loc 13 216 13 is_stmt 0 view .LVU2969
	str	r6, [r3]
.LVL717:
	.loc 13 216 13 view .LVU2970
.LBE3237:
.LBE3236:
	.loc 13 298 159 is_stmt 1 view .LVU2971
.LBB3238:
.LBI3238:
	.loc 13 243 28 view .LVU2972
.LBB3239:
	.loc 13 245 2 view .LVU2973
	.loc 13 245 13 is_stmt 0 view .LVU2974
	ldr	r3, [r3, #4]
.LVL718:
	.loc 13 245 13 view .LVU2975
.LBE3239:
.LBE3238:
	.loc 13 298 162 view .LVU2976
	cbz	r3, .L442
.L437:
.LVL719:
	.loc 13 298 162 view .LVU2977
.LBE3231:
.LBE3230:
	.loc 1 940 2 is_stmt 1 view .LVU2978
	.loc 1 940 13 is_stmt 0 view .LVU2979
	str	r8, [r6, #4]
	.loc 1 941 2 is_stmt 1 view .LVU2980
	.loc 1 941 10 is_stmt 0 view .LVU2981
	str	r7, [r6, #8]
	.loc 1 943 2 is_stmt 1 view .LVU2982
.LVL720:
.LBB3244:
.LBI3244:
	.loc 8 917 19 view .LVU2983
.LBB3245:
	.loc 8 925 2 view .LVU2984
	.loc 8 925 7 view .LVU2985
	.loc 8 925 55 view .LVU2986
	.loc 8 926 2 view .LVU2987
	.loc 8 926 9 is_stmt 0 view .LVU2988
	ldr	r0, .L443
	bl	z_impl_k_mutex_unlock
.LVL721:
	.loc 8 926 9 view .LVU2989
.LBE3245:
.LBE3244:
	.loc 1 944 1 view .LVU2990
	pop	{r4, r5, r6, r7, r8, pc}
.LVL722:
.L440:
.LBB3246:
.LBB3226:
.LBB3222:
.LBB3220:
	.loc 13 401 5 is_stmt 1 view .LVU2991
.LBB3210:
.LBI3210:
	.loc 13 204 28 view .LVU2992
.LBB3211:
	.loc 13 206 2 view .LVU2993
	.loc 13 206 13 is_stmt 0 view .LVU2994
	ldr	r2, [r6]
.LVL723:
	.loc 13 206 13 view .LVU2995
.LBE3211:
.LBE3210:
.LBB3212:
.LBI3212:
	.loc 13 214 20 is_stmt 1 view .LVU2996
.LBB3213:
	.loc 13 216 2 view .LVU2997
	.loc 13 216 13 is_stmt 0 view .LVU2998
	ldr	r3, .L443+4
.LVL724:
	.loc 13 216 13 view .LVU2999
	str	r2, [r3]
.LVL725:
	.loc 13 216 13 view .LVU3000
.LBE3213:
.LBE3212:
	.loc 13 401 54 is_stmt 1 view .LVU3001
.LBB3214:
.LBI3214:
	.loc 13 243 28 view .LVU3002
.LBB3215:
	.loc 13 245 2 view .LVU3003
	.loc 13 245 13 is_stmt 0 view .LVU3004
	ldr	r3, [r3, #4]
.LVL726:
	.loc 13 245 13 view .LVU3005
.LBE3215:
.LBE3214:
	.loc 13 401 57 view .LVU3006
	cmp	r6, r3
	bne	.L434
	.loc 13 401 95 is_stmt 1 view .LVU3007
.LVL727:
	.loc 13 401 95 is_stmt 0 view .LVU3008
.LBE3220:
.LBE3222:
.LBE3226:
.LBE3246:
	.loc 13 233 2 is_stmt 1 view .LVU3009
.LBB3247:
.LBB3227:
.LBB3223:
.LBB3221:
.LBB3216:
.LBI3216:
	.loc 13 219 20 view .LVU3010
.LBB3217:
	.loc 13 221 2 view .LVU3011
	.loc 13 221 13 is_stmt 0 view .LVU3012
	ldr	r3, .L443+4
	str	r2, [r3, #4]
	.loc 13 222 1 view .LVU3013
	b	.L434
.LVL728:
.L441:
	.loc 13 222 1 view .LVU3014
.LBE3217:
.LBE3216:
	.loc 13 401 252 is_stmt 1 view .LVU3015
.LBB3218:
.LBI3218:
	.loc 13 219 20 view .LVU3016
.LBB3219:
	.loc 13 221 2 view .LVU3017
	.loc 13 221 13 is_stmt 0 view .LVU3018
	ldr	r3, .L443+4
	str	r4, [r3, #4]
	.loc 13 222 1 view .LVU3019
	b	.L434
.LVL729:
.L442:
	.loc 13 222 1 view .LVU3020
.LBE3219:
.LBE3218:
.LBE3221:
.LBE3223:
.LBE3227:
.LBE3247:
.LBB3248:
.LBB3242:
	.loc 13 298 5 is_stmt 1 view .LVU3021
	.loc 13 298 5 is_stmt 0 view .LVU3022
.LBE3242:
.LBE3248:
	.loc 13 233 2 is_stmt 1 view .LVU3023
.LBB3249:
.LBB3243:
.LBB3240:
.LBI3240:
	.loc 13 219 20 view .LVU3024
.LBB3241:
	.loc 13 221 2 view .LVU3025
	.loc 13 221 13 is_stmt 0 view .LVU3026
	ldr	r3, .L443+4
	str	r6, [r3, #4]
	.loc 13 222 1 view .LVU3027
	b	.L437
.L444:
	.align	2
.L443:
	.word	.LANCHOR2
	.word	.LANCHOR12
.LBE3241:
.LBE3240:
.LBE3243:
.LBE3249:
	.cfi_endproc
.LFE981:
	.size	net_if_mcast_mon_register, .-net_if_mcast_mon_register
	.section	.text.net_if_mcast_mon_unregister,"ax",%progbits
	.align	1
	.global	net_if_mcast_mon_unregister
	.syntax unified
	.thumb
	.thumb_func
	.fpu fpv4-sp-d16
	.type	net_if_mcast_mon_unregister, %function
net_if_mcast_mon_unregister:
.LVL730:
.LFB982:
	.loc 1 947 1 is_stmt 1 view -0
	.cfi_startproc
	@ args = 0, pretend = 0, frame = 0
	@ frame_needed = 0, uses_anonymous_args = 0
	.loc 1 947 1 is_stmt 0 view .LVU3029
	push	{r4, lr}
	.cfi_def_cfa_offset 8
	.cfi_offset 4, -8
	.cfi_offset 14, -4
	mov	r4, r0
	.loc 1 948 2 is_stmt 1 view .LVU3030
.LVL731:
.LBB3250:
.LBI3250:
	.loc 8 899 19 view .LVU3031
.LBB3251:
	.loc 8 909 2 view .LVU3032
	.loc 8 909 7 view .LVU3033
	.loc 8 909 55 view .LVU3034
	.loc 8 910 2 view .LVU3035
	.loc 8 910 9 is_stmt 0 view .LVU3036
	mov	r2, #-1
	mov	r3, #-1
	ldr	r0, .L456
.LVL732:
	.loc 8 910 9 view .LVU3037
	bl	z_impl_k_mutex_lock
.LVL733:
	.loc 8 910 9 view .LVU3038
.LBE3251:
.LBE3250:
	.loc 1 950 2 is_stmt 1 view .LVU3039
	mov	r1, r4
.LVL734:
.LBB3252:
.LBI3252:
	.loc 13 417 1 view .LVU3040
.LBB3253:
	.loc 13 417 67 view .LVU3041
	.loc 13 417 3 view .LVU3042
	.loc 13 417 22 view .LVU3043
.LBB3254:
.LBI3254:
	.loc 13 231 28 view .LVU3044
.LBB3255:
	.loc 13 233 2 view .LVU3045
	.loc 13 233 13 is_stmt 0 view .LVU3046
	ldr	r3, .L456+4
	ldr	r3, [r3]
.LVL735:
	.loc 13 233 13 view .LVU3047
.LBE3255:
.LBE3254:
	.loc 13 417 80 view .LVU3048
	movs	r2, #0
.LVL736:
.L446:
	.loc 13 417 61 is_stmt 1 view .LVU3049
	.loc 13 417 22 is_stmt 0 view .LVU3050
	cbz	r3, .L450
	.loc 13 417 39 is_stmt 1 view .LVU3051
	.loc 13 417 42 is_stmt 0 view .LVU3052
	cmp	r1, r3
	beq	.L453
	.loc 13 417 5 is_stmt 1 view .LVU3053
.LVL737:
	.loc 13 417 3 view .LVU3054
.LBB3256:
.LBI3256:
	.loc 13 285 29 view .LVU3055
.LBE3256:
.LBE3253:
.LBE3252:
	.loc 13 285 70 view .LVU3056
.LBB3291:
.LBB3287:
.LBB3261:
.LBB3257:
.LBI3257:
	.loc 13 274 29 view .LVU3057
.LBE3257:
.LBE3261:
.LBE3287:
.LBE3291:
	.loc 13 274 79 view .LVU3058
.LBB3292:
.LBB3288:
.LBB3262:
.LBB3260:
.LBB3258:
.LBI3258:
	.loc 13 204 28 view .LVU3059
.LBB3259:
	.loc 13 206 2 view .LVU3060
	.loc 13 206 2 is_stmt 0 view .LVU3061
.LBE3259:
.LBE3258:
.LBE3260:
.LBE3262:
	.loc 13 417 10 view .LVU3062
	mov	r2, r3
	.loc 13 417 10 view .LVU3063
	ldr	r3, [r3]
.LVL738:
	.loc 13 417 10 view .LVU3064
	b	.L446
.L453:
	.loc 13 417 59 is_stmt 1 view .LVU3065
.LVL739:
.LBB3263:
.LBI3263:
	.loc 13 401 20 view .LVU3066
.LBB3264:
	.loc 13 401 101 view .LVU3067
	.loc 13 401 104 is_stmt 0 view .LVU3068
	cbz	r2, .L454
	.loc 13 401 157 is_stmt 1 view .LVU3069
.LVL740:
.LBB3265:
.LBI3265:
	.loc 13 204 28 view .LVU3070
.LBB3266:
	.loc 13 206 2 view .LVU3071
	.loc 13 206 13 is_stmt 0 view .LVU3072
	ldr	r3, [r4]
.LVL741:
	.loc 13 206 13 view .LVU3073
.LBE3266:
.LBE3265:
.LBB3267:
.LBI3267:
	.loc 13 209 20 is_stmt 1 view .LVU3074
.LBB3268:
	.loc 13 211 2 view .LVU3075
	.loc 13 211 15 is_stmt 0 view .LVU3076
	str	r3, [r2]
.LVL742:
	.loc 13 211 15 view .LVU3077
.LBE3268:
.LBE3267:
	.loc 13 401 211 is_stmt 1 view .LVU3078
.LBB3269:
.LBI3269:
	.loc 13 243 28 view .LVU3079
.LBB3270:
	.loc 13 245 2 view .LVU3080
	.loc 13 245 13 is_stmt 0 view .LVU3081
	ldr	r3, .L456+4
	ldr	r3, [r3, #4]
.LVL743:
	.loc 13 245 13 view .LVU3082
.LBE3270:
.LBE3269:
	.loc 13 401 214 view .LVU3083
	cmp	r4, r3
	beq	.L455
.LVL744:
.L449:
	.loc 13 401 291 is_stmt 1 view .LVU3084
.LBB3271:
.LBI3271:
	.loc 13 209 20 view .LVU3085
.LBB3272:
	.loc 13 211 2 view .LVU3086
	.loc 13 211 15 is_stmt 0 view .LVU3087
	movs	r3, #0
	str	r3, [r4]
.LVL745:
	.loc 13 211 15 view .LVU3088
.LBE3272:
.LBE3271:
.LBE3264:
.LBE3263:
	.loc 13 417 95 is_stmt 1 view .LVU3089
.L450:
	.loc 13 417 95 is_stmt 0 view .LVU3090
.LBE3288:
.LBE3292:
	.loc 1 952 2 is_stmt 1 view .LVU3091
.LBB3293:
.LBI3293:
	.loc 8 917 19 view .LVU3092
.LBB3294:
	.loc 8 925 2 view .LVU3093
	.loc 8 925 7 view .LVU3094
	.loc 8 925 55 view .LVU3095
	.loc 8 926 2 view .LVU3096
	.loc 8 926 9 is_stmt 0 view .LVU3097
	ldr	r0, .L456
	bl	z_impl_k_mutex_unlock
.LVL746:
	.loc 8 926 9 view .LVU3098
.LBE3294:
.LBE3293:
	.loc 1 953 1 view .LVU3099
	pop	{r4, pc}
.LVL747:
.L454:
.LBB3295:
.LBB3289:
.LBB3285:
.LBB3283:
	.loc 13 401 5 is_stmt 1 view .LVU3100
.LBB3273:
.LBI3273:
	.loc 13 204 28 view .LVU3101
.LBB3274:
	.loc 13 206 2 view .LVU3102
	.loc 13 206 13 is_stmt 0 view .LVU3103
	ldr	r2, [r4]
.LVL748:
	.loc 13 206 13 view .LVU3104
.LBE3274:
.LBE3273:
.LBB3275:
.LBI3275:
	.loc 13 214 20 is_stmt 1 view .LVU3105
.LBB3276:
	.loc 13 216 2 view .LVU3106
	.loc 13 216 13 is_stmt 0 view .LVU3107
	ldr	r3, .L456+4
.LVL749:
	.loc 13 216 13 view .LVU3108
	str	r2, [r3]
.LVL750:
	.loc 13 216 13 view .LVU3109
.LBE3276:
.LBE3275:
	.loc 13 401 54 is_stmt 1 view .LVU3110
.LBB3277:
.LBI3277:
	.loc 13 243 28 view .LVU3111
.LBB3278:
	.loc 13 245 2 view .LVU3112
	.loc 13 245 13 is_stmt 0 view .LVU3113
	ldr	r3, [r3, #4]
.LVL751:
	.loc 13 245 13 view .LVU3114
.LBE3278:
.LBE3277:
	.loc 13 401 57 view .LVU3115
	cmp	r4, r3
	bne	.L449
	.loc 13 401 95 is_stmt 1 view .LVU3116
.LVL752:
	.loc 13 401 95 is_stmt 0 view .LVU3117
.LBE3283:
.LBE3285:
.LBE3289:
.LBE3295:
	.loc 13 233 2 is_stmt 1 view .LVU3118
.LBB3296:
.LBB3290:
.LBB3286:
.LBB3284:
.LBB3279:
.LBI3279:
	.loc 13 219 20 view .LVU3119
.LBB3280:
	.loc 13 221 2 view .LVU3120
	.loc 13 221 13 is_stmt 0 view .LVU3121
	ldr	r3, .L456+4
	str	r2, [r3, #4]
	.loc 13 222 1 view .LVU3122
	b	.L449
.LVL753:
.L455:
	.loc 13 222 1 view .LVU3123
.LBE3280:
.LBE3279:
	.loc 13 401 252 is_stmt 1 view .LVU3124
.LBB3281:
.LBI3281:
	.loc 13 219 20 view .LVU3125
.LBB3282:
	.loc 13 221 2 view .LVU3126
	.loc 13 221 13 is_stmt 0 view .LVU3127
	ldr	r3, .L456+4
	str	r2, [r3, #4]
	.loc 13 222 1 view .LVU3128
	b	.L449
.L457:
	.align	2
.L456:
	.word	.LANCHOR2
	.word	.LANCHOR12
.LBE3282:
.LBE3281:
.LBE3284:
.LBE3286:
.LBE3290:
.LBE3296:
	.cfi_endproc
.LFE982:
	.size	net_if_mcast_mon_unregister, .-net_if_mcast_mon_unregister
	.section	.text.net_if_mcast_monitor,"ax",%progbits
	.align	1
	.global	net_if_mcast_monitor
	.syntax unified
	.thumb
	.thumb_func
	.fpu fpv4-sp-d16
	.type	net_if_mcast_monitor, %function
net_if_mcast_monitor:
.LVL754:
.LFB983:
	.loc 1 958 1 is_stmt 1 view -0
	.cfi_startproc
	@ args = 0, pretend = 0, frame = 0
	@ frame_needed = 0, uses_anonymous_args = 0
	.loc 1 958 1 is_stmt 0 view .LVU3130
	push	{r4, r5, r6, r7, r8, lr}
	.cfi_def_cfa_offset 24
	.cfi_offset 4, -24
	.cfi_offset 5, -20
	.cfi_offset 6, -16
	.cfi_offset 7, -12
	.cfi_offset 8, -8
	.cfi_offset 14, -4
	mov	r6, r0
	mov	r7, r1
	mov	r8, r2
	.loc 1 959 2 is_stmt 1 view .LVU3131
	.loc 1 961 2 view .LVU3132
.LVL755:
.LBB3297:
.LBI3297:
	.loc 8 899 19 view .LVU3133
.LBB3298:
	.loc 8 909 2 view .LVU3134
	.loc 8 909 7 view .LVU3135
	.loc 8 909 55 view .LVU3136
	.loc 8 910 2 view .LVU3137
	.loc 8 910 9 is_stmt 0 view .LVU3138
	mov	r2, #-1
.LVL756:
	.loc 8 910 9 view .LVU3139
	mov	r3, #-1
	ldr	r0, .L469
.LVL757:
	.loc 8 910 9 view .LVU3140
	bl	z_impl_k_mutex_lock
.LVL758:
	.loc 8 910 9 view .LVU3141
.LBE3298:
.LBE3297:
	.loc 1 963 2 is_stmt 1 view .LVU3142
.LBB3299:
.LBI3299:
	.loc 13 231 28 view .LVU3143
.LBB3300:
	.loc 13 233 2 view .LVU3144
	.loc 13 233 13 is_stmt 0 view .LVU3145
	ldr	r3, .L469+4
	ldr	r3, [r3]
.LVL759:
	.loc 13 233 13 view .LVU3146
.LBE3300:
.LBE3299:
	.loc 1 963 4 view .LVU3147
	cbz	r3, .L464
.LVL760:
	.loc 13 233 2 is_stmt 1 discriminator 5 view .LVU3148
	.loc 1 963 21 is_stmt 0 discriminator 5 view .LVU3149
	mov	r4, r3
.LVL761:
.LBB3301:
.LBI3301:
	.loc 13 285 29 is_stmt 1 discriminator 5 view .LVU3150
.LBB3302:
	.loc 13 285 70 discriminator 5 view .LVU3151
	.loc 13 285 38 is_stmt 0 discriminator 5 view .LVU3152
	cbz	r3, .L462
.LVL762:
.LBB3303:
.LBI3303:
	.loc 13 274 29 is_stmt 1 view .LVU3153
.LBE3303:
.LBE3302:
.LBE3301:
	.loc 13 274 79 view .LVU3154
.LBB3308:
.LBB3307:
.LBB3306:
.LBB3304:
.LBI3304:
	.loc 13 204 28 view .LVU3155
.LBB3305:
	.loc 13 206 2 view .LVU3156
	.loc 13 206 13 is_stmt 0 view .LVU3157
	ldr	r4, [r3]
.LVL763:
	.loc 13 206 13 view .LVU3158
.LBE3305:
.LBE3304:
.LBE3306:
.LBE3307:
.LBE3308:
	b	.L462
.LVL764:
.L468:
	.loc 1 966 4 is_stmt 1 view .LVU3159
	.loc 1 966 7 is_stmt 0 view .LVU3160
	ldr	r3, [r3, #8]
.LVL765:
	.loc 1 966 4 view .LVU3161
	mov	r2, r8
	mov	r1, r7
	mov	r0, r6
	blx	r3
.LVL766:
	b	.L460
.LVL767:
.L464:
	.loc 1 963 3 view .LVU3162
	mov	r4, r3
	b	.L462
.LVL768:
.L465:
	.loc 1 963 3 view .LVU3163
	mov	r5, r4
.L461:
	.loc 1 963 3 discriminator 22 view .LVU3164
	mov	r3, r4
.LVL769:
	.loc 1 963 3 discriminator 22 view .LVU3165
	mov	r4, r5
.LVL770:
.L462:
	.loc 1 963 4 is_stmt 1 discriminator 22 view .LVU3166
	.loc 1 963 2 is_stmt 0 discriminator 22 view .LVU3167
	cbz	r3, .L467
	.loc 1 965 3 is_stmt 1 view .LVU3168
	.loc 1 965 19 is_stmt 0 view .LVU3169
	ldr	r5, [r3, #4]
	.loc 1 965 6 view .LVU3170
	cmp	r5, r6
	beq	.L468
.LVL771:
.L460:
	.loc 1 963 3 is_stmt 1 view .LVU3171
	.loc 1 963 3 is_stmt 0 view .LVU3172
	cmp	r4, #0
	beq	.L465
	.loc 1 963 31 discriminator 14 view .LVU3173
	mov	r5, r4
.LVL772:
.LBB3309:
.LBI3309:
	.loc 13 285 29 is_stmt 1 discriminator 14 view .LVU3174
.LBB3310:
	.loc 13 285 70 discriminator 14 view .LVU3175
	.loc 13 285 38 is_stmt 0 discriminator 14 view .LVU3176
	cmp	r4, #0
	beq	.L461
.LVL773:
.LBB3311:
.LBI3311:
	.loc 13 274 29 is_stmt 1 view .LVU3177
.LBE3311:
.LBE3310:
.LBE3309:
	.loc 13 274 79 view .LVU3178
.LBB3316:
.LBB3315:
.LBB3314:
.LBB3312:
.LBI3312:
	.loc 13 204 28 view .LVU3179
.LBB3313:
	.loc 13 206 2 view .LVU3180
	.loc 13 206 13 is_stmt 0 view .LVU3181
	ldr	r5, [r4]
.LVL774:
	.loc 13 206 13 view .LVU3182
.LBE3313:
.LBE3312:
.LBE3314:
.LBE3315:
.LBE3316:
	b	.L461
.LVL775:
.L467:
	.loc 1 970 2 is_stmt 1 view .LVU3183
.LBB3317:
.LBI3317:
	.loc 8 917 19 view .LVU3184
.LBB3318:
	.loc 8 925 2 view .LVU3185
	.loc 8 925 7 view .LVU3186
	.loc 8 925 55 view .LVU3187
	.loc 8 926 2 view .LVU3188
	.loc 8 926 9 is_stmt 0 view .LVU3189
	ldr	r0, .L469
	bl	z_impl_k_mutex_unlock
.LVL776:
	.loc 8 926 9 view .LVU3190
.LBE3318:
.LBE3317:
	.loc 1 971 1 view .LVU3191
	pop	{r4, r5, r6, r7, r8, pc}
.LVL777:
.L470:
	.loc 1 971 1 view .LVU3192
	.align	2
.L469:
	.word	.LANCHOR2
	.word	.LANCHOR12
	.cfi_endproc
.LFE983:
	.size	net_if_mcast_monitor, .-net_if_mcast_monitor
	.section	.text.net_if_config_ipv6_get,"ax",%progbits
	.align	1
	.global	net_if_config_ipv6_get
	.syntax unified
	.thumb
	.thumb_func
	.fpu fpv4-sp-d16
	.type	net_if_config_ipv6_get, %function
net_if_config_ipv6_get:
.LVL778:
.LFB984:
	.loc 1 976 1 is_stmt 1 view -0
	.cfi_startproc
	@ args = 0, pretend = 0, frame = 0
	@ frame_needed = 0, uses_anonymous_args = 0
	.loc 1 976 1 is_stmt 0 view .LVU3194
	push	{r3, r4, r5, lr}
	.cfi_def_cfa_offset 16
	.cfi_offset 3, -16
	.cfi_offset 4, -12
	.cfi_offset 5, -8
	.cfi_offset 14, -4
	mov	r4, r0
	mov	r5, r1
	.loc 1 977 2 is_stmt 1 view .LVU3195
.LVL779:
	.loc 1 978 2 view .LVU3196
	.loc 1 980 2 view .LVU3197
.LBB3319:
.LBI3319:
	.loc 8 899 19 view .LVU3198
.LBB3320:
	.loc 8 909 2 view .LVU3199
	.loc 8 909 7 view .LVU3200
	.loc 8 909 55 view .LVU3201
	.loc 8 910 2 view .LVU3202
	.loc 8 910 9 is_stmt 0 view .LVU3203
	mov	r2, #-1
	mov	r3, #-1
	ldr	r0, .L482
.LVL780:
	.loc 8 910 9 view .LVU3204
	bl	z_impl_k_mutex_lock
.LVL781:
	.loc 8 910 9 view .LVU3205
.LBE3320:
.LBE3319:
	.loc 1 982 2 is_stmt 1 view .LVU3206
.LBB3321:
.LBI3321:
	.loc 2 541 19 view .LVU3207
.LBB3322:
	.loc 2 544 2 view .LVU3208
	.loc 2 544 5 is_stmt 0 view .LVU3209
	cbz	r4, .L472
	.loc 2 548 2 is_stmt 1 view .LVU3210
	.loc 2 548 30 is_stmt 0 view .LVU3211
	ldr	r3, [r4]
.LVL782:
.LBB3323:
.LBI3323:
	.loc 9 128 19 is_stmt 1 view .LVU3212
.LBB3324:
	.loc 9 130 2 view .LVU3213
.LBB3325:
.LBI3325:
	.loc 10 138 28 view .LVU3214
.LBB3326:
	.loc 10 140 2 view .LVU3215
	.loc 10 140 9 is_stmt 0 view .LVU3216
	dmb	ish
	ldr	r3, [r3, #12]
.LVL783:
	.loc 10 140 9 view .LVU3217
	dmb	ish
.LVL784:
	.loc 10 140 9 view .LVU3218
.LBE3326:
.LBE3325:
	.loc 9 132 2 is_stmt 1 view .LVU3219
	.loc 9 132 2 is_stmt 0 view .LVU3220
.LBE3324:
.LBE3323:
.LBE3322:
.LBE3321:
	.loc 1 982 5 view .LVU3221
	tst	r3, #128
	beq	.L472
	.loc 1 987 2 is_stmt 1 view .LVU3222
	.loc 1 987 22 is_stmt 0 view .LVU3223
	ldr	r3, [r4, #528]
.LVL785:
	.loc 1 987 5 view .LVU3224
	cbz	r3, .L480
	.loc 1 988 3 is_stmt 1 view .LVU3225
	.loc 1 988 6 is_stmt 0 view .LVU3226
	cbz	r5, .L476
	.loc 1 989 4 is_stmt 1 view .LVU3227
	.loc 1 989 10 is_stmt 0 view .LVU3228
	str	r3, [r5]
.L476:
	.loc 1 992 3 is_stmt 1 view .LVU3229
	.loc 1 977 6 is_stmt 0 view .LVU3230
	movs	r4, #0
.LVL786:
.L474:
	.loc 1 1012 2 is_stmt 1 view .LVU3231
.LBB3327:
.LBI3327:
	.loc 8 917 19 view .LVU3232
.LBB3328:
	.loc 8 925 2 view .LVU3233
	.loc 8 925 7 view .LVU3234
	.loc 8 925 55 view .LVU3235
	.loc 8 926 2 view .LVU3236
	.loc 8 926 9 is_stmt 0 view .LVU3237
	ldr	r0, .L482
	bl	z_impl_k_mutex_unlock
.LVL787:
	.loc 8 926 9 view .LVU3238
.LBE3328:
.LBE3327:
	.loc 1 1014 2 is_stmt 1 view .LVU3239
	.loc 1 1015 1 is_stmt 0 view .LVU3240
	mov	r0, r4
	pop	{r3, r4, r5, pc}
.LVL788:
.L472:
	.loc 1 983 3 is_stmt 1 view .LVU3241
	.loc 1 984 3 view .LVU3242
	.loc 1 983 7 is_stmt 0 view .LVU3243
	mvn	r4, #133
.LVL789:
	.loc 1 984 3 view .LVU3244
	b	.L474
.LVL790:
.L479:
	.loc 1 996 3 is_stmt 1 view .LVU3245
	.loc 1 996 24 is_stmt 0 view .LVU3246
	ldr	r1, .L482+4
	mov	r2, #276
	mla	r2, r2, r3, r1
	ldr	r2, [r2, #272]
	.loc 1 996 6 view .LVU3247
	cbz	r2, .L477
	.loc 1 997 4 is_stmt 1 view .LVU3248
	.loc 1 995 216 view .LVU3249
	.loc 1 995 217 is_stmt 0 view .LVU3250
	adds	r3, r3, #1
.LVL791:
	.loc 1 995 217 view .LVU3251
	b	.L475
.L477:
	.loc 1 1000 3 is_stmt 1 view .LVU3252
	.loc 1 1000 27 is_stmt 0 view .LVU3253
	ldr	r2, .L482+4
	mov	r1, #276
	mla	r3, r1, r3, r2
.LVL792:
	.loc 1 1000 25 view .LVU3254
	str	r3, [r4, #528]
	.loc 1 1001 3 is_stmt 1 view .LVU3255
	.loc 1 1001 27 is_stmt 0 view .LVU3256
	str	r4, [r3, #272]
	.loc 1 1003 3 is_stmt 1 view .LVU3257
	.loc 1 1003 6 is_stmt 0 view .LVU3258
	cbz	r5, .L478
	.loc 1 1004 4 is_stmt 1 view .LVU3259
	.loc 1 1004 10 is_stmt 0 view .LVU3260
	str	r3, [r5]
.L478:
	.loc 1 1007 3 is_stmt 1 view .LVU3261
	.loc 1 977 6 is_stmt 0 view .LVU3262
	movs	r4, #0
.LVL793:
	.loc 1 1007 3 view .LVU3263
	b	.L474
.LVL794:
.L480:
	.loc 1 995 9 view .LVU3264
	movs	r3, #0
.L475:
.LVL795:
	.loc 1 995 14 is_stmt 1 discriminator 1 view .LVU3265
	.loc 1 995 2 is_stmt 0 discriminator 1 view .LVU3266
	cmp	r3, #0
	ble	.L479
	.loc 1 1010 6 view .LVU3267
	mvn	r4, #2
.LVL796:
	.loc 1 1010 6 view .LVU3268
	b	.L474
.L483:
	.align	2
.L482:
	.word	.LANCHOR2
	.word	.LANCHOR13
	.cfi_endproc
.LFE984:
	.size	net_if_config_ipv6_get, .-net_if_config_ipv6_get
	.section	.text.net_if_config_ipv6_put,"ax",%progbits
	.align	1
	.global	net_if_config_ipv6_put
	.syntax unified
	.thumb
	.thumb_func
	.fpu fpv4-sp-d16
	.type	net_if_config_ipv6_put, %function
net_if_config_ipv6_put:
.LVL797:
.LFB985:
	.loc 1 1018 1 is_stmt 1 view -0
	.cfi_startproc
	@ args = 0, pretend = 0, frame = 0
	@ frame_needed = 0, uses_anonymous_args = 0
	.loc 1 1018 1 is_stmt 0 view .LVU3270
	push	{r4, lr}
	.cfi_def_cfa_offset 8
	.cfi_offset 4, -8
	.cfi_offset 14, -4
	mov	r4, r0
	.loc 1 1019 2 is_stmt 1 view .LVU3271
.LVL798:
	.loc 1 1020 2 view .LVU3272
	.loc 1 1022 2 view .LVU3273
.LBB3329:
.LBI3329:
	.loc 8 899 19 view .LVU3274
.LBB3330:
	.loc 8 909 2 view .LVU3275
	.loc 8 909 7 view .LVU3276
	.loc 8 909 55 view .LVU3277
	.loc 8 910 2 view .LVU3278
	.loc 8 910 9 is_stmt 0 view .LVU3279
	mov	r2, #-1
	mov	r3, #-1
	ldr	r0, .L494
.LVL799:
	.loc 8 910 9 view .LVU3280
	bl	z_impl_k_mutex_lock
.LVL800:
	.loc 8 910 9 view .LVU3281
.LBE3330:
.LBE3329:
	.loc 1 1024 2 is_stmt 1 view .LVU3282
.LBB3331:
.LBI3331:
	.loc 2 541 19 view .LVU3283
.LBB3332:
	.loc 2 544 2 view .LVU3284
	.loc 2 544 5 is_stmt 0 view .LVU3285
	cbz	r4, .L485
	.loc 2 548 2 is_stmt 1 view .LVU3286
	.loc 2 548 30 is_stmt 0 view .LVU3287
	ldr	r3, [r4]
.LVL801:
.LBB3333:
.LBI3333:
	.loc 9 128 19 is_stmt 1 view .LVU3288
.LBB3334:
	.loc 9 130 2 view .LVU3289
.LBB3335:
.LBI3335:
	.loc 10 138 28 view .LVU3290
.LBB3336:
	.loc 10 140 2 view .LVU3291
	.loc 10 140 9 is_stmt 0 view .LVU3292
	dmb	ish
	ldr	r3, [r3, #12]
.LVL802:
	.loc 10 140 9 view .LVU3293
	dmb	ish
.LVL803:
	.loc 10 140 9 view .LVU3294
.LBE3336:
.LBE3335:
	.loc 9 132 2 is_stmt 1 view .LVU3295
	.loc 9 132 2 is_stmt 0 view .LVU3296
.LBE3334:
.LBE3333:
.LBE3332:
.LBE3331:
	.loc 1 1024 5 view .LVU3297
	tst	r3, #128
	beq	.L485
	.loc 1 1029 2 is_stmt 1 view .LVU3298
	.loc 1 1029 23 is_stmt 0 view .LVU3299
	ldr	r3, [r4, #528]
.LVL804:
	.loc 1 1029 5 view .LVU3300
	cbnz	r3, .L493
	.loc 1 1030 7 view .LVU3301
	mvn	r4, #119
.LVL805:
.L487:
	.loc 1 1047 2 is_stmt 1 view .LVU3302
.LBB3337:
.LBI3337:
	.loc 8 917 19 view .LVU3303
.LBB3338:
	.loc 8 925 2 view .LVU3304
	.loc 8 925 7 view .LVU3305
	.loc 8 925 55 view .LVU3306
	.loc 8 926 2 view .LVU3307
	.loc 8 926 9 is_stmt 0 view .LVU3308
	ldr	r0, .L494
	bl	z_impl_k_mutex_unlock
.LVL806:
	.loc 8 926 9 view .LVU3309
.LBE3338:
.LBE3337:
	.loc 1 1049 2 is_stmt 1 view .LVU3310
	.loc 1 1050 1 is_stmt 0 view .LVU3311
	mov	r0, r4
	pop	{r4, pc}
.LVL807:
.L485:
	.loc 1 1025 3 is_stmt 1 view .LVU3312
	.loc 1 1026 3 view .LVU3313
	.loc 1 1025 7 is_stmt 0 view .LVU3314
	mvn	r4, #133
.LVL808:
	.loc 1 1026 3 view .LVU3315
	b	.L487
.LVL809:
.L493:
	.loc 1 1034 9 view .LVU3316
	movs	r2, #0
.L488:
.LVL810:
	.loc 1 1034 14 is_stmt 1 discriminator 1 view .LVU3317
	.loc 1 1034 2 is_stmt 0 discriminator 1 view .LVU3318
	cmp	r2, #0
	ble	.L490
	.loc 1 1045 6 view .LVU3319
	mvn	r4, #2
.LVL811:
	.loc 1 1045 6 view .LVU3320
	b	.L487
.LVL812:
.L490:
	.loc 1 1035 3 is_stmt 1 view .LVU3321
	.loc 1 1035 24 is_stmt 0 view .LVU3322
	ldr	r1, .L494+4
	mov	r3, #276
	mla	r3, r3, r2, r1
	ldr	r3, [r3, #272]
	.loc 1 1035 6 view .LVU3323
	cmp	r3, r4
	beq	.L489
	.loc 1 1036 4 is_stmt 1 view .LVU3324
	.loc 1 1034 216 view .LVU3325
	.loc 1 1034 217 is_stmt 0 view .LVU3326
	adds	r2, r2, #1
.LVL813:
	.loc 1 1034 217 view .LVU3327
	b	.L488
.L489:
	.loc 1 1039 3 is_stmt 1 view .LVU3328
	.loc 1 1039 25 is_stmt 0 view .LVU3329
	movs	r3, #0
	str	r3, [r4, #528]
	.loc 1 1040 3 is_stmt 1 view .LVU3330
	.loc 1 1040 27 is_stmt 0 view .LVU3331
	ldr	r1, .L494+4
	mov	r0, #276
	mla	r2, r0, r2, r1
.LVL814:
	.loc 1 1040 27 view .LVU3332
	str	r3, [r2, #272]
	.loc 1 1042 3 is_stmt 1 view .LVU3333
	.loc 1 1019 6 is_stmt 0 view .LVU3334
	mov	r4, r3
.LVL815:
	.loc 1 1042 3 view .LVU3335
	b	.L487
.L495:
	.align	2
.L494:
	.word	.LANCHOR2
	.word	.LANCHOR13
	.cfi_endproc
.LFE985:
	.size	net_if_config_ipv6_put, .-net_if_config_ipv6_put
	.section	.text.net_if_start_rs,"ax",%progbits
	.align	1
	.global	net_if_start_rs
	.syntax unified
	.thumb
	.thumb_func
	.fpu fpv4-sp-d16
	.type	net_if_start_rs, %function
net_if_start_rs:
.LVL816:
.LFB996:
	.loc 1 1373 1 is_stmt 1 view -0
	.cfi_startproc
	@ args = 0, pretend = 0, frame = 0
	@ frame_needed = 0, uses_anonymous_args = 0
	.loc 1 1373 1 is_stmt 0 view .LVU3337
	push	{r3, r4, r5, lr}
	.cfi_def_cfa_offset 16
	.cfi_offset 3, -16
	.cfi_offset 4, -12
	.cfi_offset 5, -8
	.cfi_offset 14, -4
	mov	r4, r0
	.loc 1 1374 2 is_stmt 1 view .LVU3338
	.loc 1 1376 2 view .LVU3339
.LVL817:
.LBB3339:
.LBI3339:
	.loc 8 899 19 view .LVU3340
.LBB3340:
	.loc 8 909 2 view .LVU3341
	.loc 8 909 7 view .LVU3342
	.loc 8 909 55 view .LVU3343
	.loc 8 910 2 view .LVU3344
	.loc 8 910 9 is_stmt 0 view .LVU3345
	mov	r2, #-1
	mov	r3, #-1
	ldr	r0, .L503
.LVL818:
	.loc 8 910 9 view .LVU3346
	bl	z_impl_k_mutex_lock
.LVL819:
	.loc 8 910 9 view .LVU3347
.LBE3340:
.LBE3339:
	.loc 1 1378 2 is_stmt 1 view .LVU3348
	.loc 1 1378 7 is_stmt 0 view .LVU3349
	ldr	r5, [r4, #528]
.LVL820:
	.loc 1 1379 2 is_stmt 1 view .LVU3350
	.loc 1 1379 5 is_stmt 0 view .LVU3351
	cbz	r5, .L497
	.loc 1 1383 2 is_stmt 1 view .LVU3352
.LBB3341:
	.loc 1 1383 7 view .LVU3353
.LBE3341:
	.loc 1 1383 136 view .LVU3354
	.loc 1 1385 2 view .LVU3355
	.loc 1 1385 7 is_stmt 0 view .LVU3356
	mov	r0, r4
	bl	net_ipv6_start_rs
.LVL821:
	.loc 1 1385 5 view .LVU3357
	cbz	r0, .L501
.L497:
	.loc 1 1396 2 is_stmt 1 view .LVU3358
.LVL822:
.LBB3342:
.LBI3342:
	.loc 8 917 19 view .LVU3359
.LBB3343:
	.loc 8 925 2 view .LVU3360
	.loc 8 925 7 view .LVU3361
	.loc 8 925 55 view .LVU3362
	.loc 8 926 2 view .LVU3363
	.loc 8 926 9 is_stmt 0 view .LVU3364
	ldr	r0, .L503
	bl	z_impl_k_mutex_unlock
.LVL823:
	.loc 8 926 9 view .LVU3365
.LBE3343:
.LBE3342:
	.loc 1 1397 1 view .LVU3366
	pop	{r3, r4, r5, pc}
.LVL824:
.L501:
	.loc 1 1386 3 is_stmt 1 view .LVU3367
.LBB3344:
.LBI3344:
	.loc 11 1563 24 view .LVU3368
.LBB3345:
	.loc 11 1565 2 view .LVU3369
.LBB3346:
.LBI3346:
	.loc 11 1539 23 view .LVU3370
.LBB3347:
	.loc 11 1541 2 view .LVU3371
.LBB3348:
.LBI3348:
	.loc 8 562 23 view .LVU3372
.LBB3349:
	.loc 8 572 2 view .LVU3373
	.loc 8 572 7 view .LVU3374
	.loc 8 572 55 view .LVU3375
	.loc 8 573 2 view .LVU3376
	.loc 8 573 9 is_stmt 0 view .LVU3377
	bl	z_impl_k_uptime_ticks
.LVL825:
	.loc 8 573 9 view .LVU3378
.LBE3349:
.LBE3348:
.LBB3350:
.LBI3350:
	.loc 12 1102 24 is_stmt 1 view .LVU3379
.LBE3350:
.LBE3347:
.LBE3346:
.LBE3345:
.LBE3344:
	.loc 12 1105 2 view .LVU3380
.LBB3363:
.LBB3361:
.LBB3359:
.LBB3357:
.LBB3355:
.LBB3351:
.LBI3351:
	.loc 12 101 55 view .LVU3381
.LBB3352:
	.loc 12 106 1 view .LVU3382
	.loc 12 108 1 view .LVU3383
	.loc 12 111 2 view .LVU3384
	.loc 12 115 2 view .LVU3385
	.loc 12 117 2 view .LVU3386
.LBE3352:
.LBE3351:
.LBE3355:
.LBE3357:
.LBE3359:
.LBE3361:
.LBE3363:
	.loc 12 118 3 view .LVU3387
	.loc 12 120 3 view .LVU3388
	.loc 12 123 3 view .LVU3389
.LBB3364:
.LBB3362:
.LBB3360:
.LBB3358:
.LBB3356:
.LBB3354:
.LBB3353:
	.loc 12 133 2 view .LVU3390
	.loc 12 134 3 view .LVU3391
	.loc 12 135 3 view .LVU3392
	.loc 12 138 4 view .LVU3393
	.loc 12 138 13 is_stmt 0 view .LVU3394
	movs	r2, #10
	movs	r3, #0
	bl	__aeabi_uldivmod
.LVL826:
	.loc 12 138 13 view .LVU3395
.LBE3353:
.LBE3354:
.LBE3356:
.LBE3358:
.LBE3360:
.LBE3362:
.LBE3364:
	.loc 1 1386 18 view .LVU3396
	str	r0, [r5, #264]
	.loc 1 1387 3 is_stmt 1 view .LVU3397
	add	r3, r5, #260
.LVL827:
.LBB3365:
.LBI3365:
	.loc 13 311 20 view .LVU3398
.LBB3366:
	.loc 13 311 77 view .LVU3399
.LBB3367:
.LBI3367:
	.loc 13 209 20 view .LVU3400
.LBB3368:
	.loc 13 211 2 view .LVU3401
	.loc 13 211 15 is_stmt 0 view .LVU3402
	movs	r2, #0
	str	r2, [r5, #260]
.LVL828:
	.loc 13 211 15 view .LVU3403
.LBE3368:
.LBE3367:
	.loc 13 311 4 is_stmt 1 view .LVU3404
.LBB3369:
.LBI3369:
	.loc 13 243 28 view .LVU3405
.LBB3370:
	.loc 13 245 2 view .LVU3406
	.loc 13 245 13 is_stmt 0 view .LVU3407
	ldr	r2, .L503+4
	ldr	r2, [r2, #4]
.LVL829:
	.loc 13 245 13 view .LVU3408
.LBE3370:
.LBE3369:
	.loc 13 311 7 view .LVU3409
	cbz	r2, .L502
	.loc 13 311 74 is_stmt 1 view .LVU3410
.LVL830:
	.loc 13 311 74 is_stmt 0 view .LVU3411
.LBE3366:
.LBE3365:
	.loc 13 245 2 is_stmt 1 view .LVU3412
.LBB3381:
.LBB3379:
.LBB3371:
.LBI3371:
	.loc 13 209 20 view .LVU3413
.LBB3372:
	.loc 13 211 2 view .LVU3414
	.loc 13 211 15 is_stmt 0 view .LVU3415
	str	r3, [r2]
.LVL831:
	.loc 13 211 15 view .LVU3416
.LBE3372:
.LBE3371:
	.loc 13 311 126 is_stmt 1 view .LVU3417
.LBB3373:
.LBI3373:
	.loc 13 219 20 view .LVU3418
.LBB3374:
	.loc 13 221 2 view .LVU3419
	.loc 13 221 13 is_stmt 0 view .LVU3420
	ldr	r2, .L503+4
	str	r3, [r2, #4]
.LVL832:
.L499:
	.loc 13 221 13 view .LVU3421
.LBE3374:
.LBE3373:
.LBE3379:
.LBE3381:
	.loc 1 1390 3 is_stmt 1 view .LVU3422
.LBB3382:
.LBI3382:
	.loc 11 3765 25 view .LVU3423
.LBB3383:
	.loc 11 3768 2 view .LVU3424
	.loc 11 3768 9 is_stmt 0 view .LVU3425
	ldr	r0, .L503+8
	bl	z_timeout_remaining
.LVL833:
	.loc 11 3768 9 view .LVU3426
.LBE3383:
.LBE3382:
	.loc 1 1390 6 view .LVU3427
	orrs	r3, r0, r1
	bne	.L497
.LBB3384:
	.loc 1 1391 4 is_stmt 1 view .LVU3428
.LVL834:
	.loc 1 1391 4 is_stmt 0 view .LVU3429
.LBE3384:
	.loc 12 405 2 is_stmt 1 view .LVU3430
	.loc 12 106 1 view .LVU3431
	.loc 12 108 1 view .LVU3432
	.loc 12 111 2 view .LVU3433
	.loc 12 115 2 view .LVU3434
	.loc 12 117 2 view .LVU3435
	.loc 12 133 2 view .LVU3436
	.loc 12 140 9 view .LVU3437
	.loc 12 141 3 view .LVU3438
	.loc 12 144 4 view .LVU3439
.LBB3385:
	.loc 1 1391 4 is_stmt 0 view .LVU3440
	movw	r2, #10000
	movs	r3, #0
	ldr	r0, .L503+12
	bl	k_work_reschedule
.LVL835:
	b	.L497
.LVL836:
.L502:
	.loc 1 1391 4 view .LVU3441
.LBE3385:
.LBB3386:
.LBB3380:
	.loc 13 311 5 is_stmt 1 view .LVU3442
.LBB3375:
.LBI3375:
	.loc 13 219 20 view .LVU3443
.LBB3376:
	.loc 13 221 2 view .LVU3444
	.loc 13 221 13 is_stmt 0 view .LVU3445
	ldr	r2, .L503+4
	str	r3, [r2, #4]
.LVL837:
	.loc 13 221 13 view .LVU3446
.LBE3376:
.LBE3375:
	.loc 13 311 35 is_stmt 1 view .LVU3447
.LBB3377:
.LBI3377:
	.loc 13 214 20 view .LVU3448
.LBB3378:
	.loc 13 216 2 view .LVU3449
	.loc 13 216 13 is_stmt 0 view .LVU3450
	str	r3, [r2]
	.loc 13 217 1 view .LVU3451
	b	.L499
.L504:
	.align	2
.L503:
	.word	.LANCHOR2
	.word	.LANCHOR14
	.word	.LANCHOR15+16
	.word	.LANCHOR15
.LBE3378:
.LBE3377:
.LBE3380:
.LBE3386:
	.cfi_endproc
.LFE996:
	.size	net_if_start_rs, .-net_if_start_rs
	.section	.text.rs_timeout,"ax",%progbits
	.align	1
	.syntax unified
	.thumb
	.thumb_func
	.fpu fpv4-sp-d16
	.type	rs_timeout, %function
rs_timeout:
.LVL838:
.LFB995:
	.loc 1 1317 1 is_stmt 1 view -0
	.cfi_startproc
	@ args = 0, pretend = 0, frame = 0
	@ frame_needed = 0, uses_anonymous_args = 0
	.loc 1 1317 1 is_stmt 0 view .LVU3453
	push	{r3, r4, r5, r6, r7, lr}
	.cfi_def_cfa_offset 24
	.cfi_offset 3, -24
	.cfi_offset 4, -20
	.cfi_offset 5, -16
	.cfi_offset 6, -12
	.cfi_offset 7, -8
	.cfi_offset 14, -4
	.loc 1 1318 2 is_stmt 1 view .LVU3454
.LBB3387:
.LBI3387:
	.loc 11 1563 24 view .LVU3455
.LBB3388:
	.loc 11 1565 2 view .LVU3456
.LBB3389:
.LBI3389:
	.loc 11 1539 23 view .LVU3457
.LBB3390:
	.loc 11 1541 2 view .LVU3458
.LBB3391:
.LBI3391:
	.loc 8 562 23 view .LVU3459
.LBB3392:
	.loc 8 572 2 view .LVU3460
	.loc 8 572 7 view .LVU3461
	.loc 8 572 55 view .LVU3462
	.loc 8 573 2 view .LVU3463
	.loc 8 573 9 is_stmt 0 view .LVU3464
	bl	z_impl_k_uptime_ticks
.LVL839:
	.loc 8 573 9 view .LVU3465
.LBE3392:
.LBE3391:
.LBB3393:
.LBI3393:
	.loc 12 1102 24 is_stmt 1 view .LVU3466
.LBE3393:
.LBE3390:
.LBE3389:
.LBE3388:
.LBE3387:
	.loc 12 1105 2 view .LVU3467
.LBB3406:
.LBB3404:
.LBB3402:
.LBB3400:
.LBB3398:
.LBB3394:
.LBI3394:
	.loc 12 101 55 view .LVU3468
.LBB3395:
	.loc 12 106 1 view .LVU3469
	.loc 12 108 1 view .LVU3470
	.loc 12 111 2 view .LVU3471
	.loc 12 115 2 view .LVU3472
	.loc 12 117 2 view .LVU3473
.LBE3395:
.LBE3394:
.LBE3398:
.LBE3400:
.LBE3402:
.LBE3404:
.LBE3406:
	.loc 12 118 3 view .LVU3474
	.loc 12 120 3 view .LVU3475
	.loc 12 123 3 view .LVU3476
.LBB3407:
.LBB3405:
.LBB3403:
.LBB3401:
.LBB3399:
.LBB3397:
.LBB3396:
	.loc 12 133 2 view .LVU3477
	.loc 12 134 3 view .LVU3478
	.loc 12 135 3 view .LVU3479
	.loc 12 138 4 view .LVU3480
	.loc 12 138 13 is_stmt 0 view .LVU3481
	movs	r2, #10
	movs	r3, #0
	bl	__aeabi_uldivmod
.LVL840:
	.loc 12 138 13 view .LVU3482
	mov	r7, r0
.LVL841:
	.loc 12 138 13 view .LVU3483
.LBE3396:
.LBE3397:
.LBE3399:
.LBE3401:
.LBE3403:
	.loc 11 1565 9 view .LVU3484
	mov	r6, r0
.LVL842:
	.loc 11 1565 9 view .LVU3485
.LBE3405:
.LBE3407:
	.loc 1 1319 2 is_stmt 1 view .LVU3486
	.loc 1 1320 2 view .LVU3487
	.loc 1 1322 2 view .LVU3488
	.loc 1 1324 2 view .LVU3489
.LBB3408:
.LBI3408:
	.loc 8 899 19 view .LVU3490
.LBB3409:
	.loc 8 909 2 view .LVU3491
	.loc 8 909 7 view .LVU3492
	.loc 8 909 55 view .LVU3493
	.loc 8 910 2 view .LVU3494
	.loc 8 910 9 is_stmt 0 view .LVU3495
	mov	r2, #-1
	mov	r3, #-1
	ldr	r0, .L526
.LVL843:
	.loc 8 910 9 view .LVU3496
	bl	z_impl_k_mutex_lock
.LVL844:
	.loc 8 910 9 view .LVU3497
.LBE3409:
.LBE3408:
	.loc 1 1326 2 is_stmt 1 view .LVU3498
.LBB3410:
.LBI3410:
	.loc 13 231 28 view .LVU3499
.LBB3411:
	.loc 13 233 2 view .LVU3500
	.loc 13 233 13 is_stmt 0 view .LVU3501
	ldr	r3, .L526+4
	ldr	r2, [r3]
.LVL845:
	.loc 13 233 13 view .LVU3502
.LBE3411:
.LBE3410:
	.loc 1 1326 4 view .LVU3503
	cmp	r2, #0
	beq	.L518
.LVL846:
	.loc 13 233 2 is_stmt 1 view .LVU3504
	.loc 1 1326 3 is_stmt 0 view .LVU3505
	subs	r2, r2, #260
.LVL847:
	.loc 1 1326 3 view .LVU3506
	beq	.L519
.LVL848:
.LBB3412:
.LBI3412:
	.loc 13 285 29 is_stmt 1 discriminator 5 view .LVU3507
.LBB3413:
	.loc 13 285 70 discriminator 5 view .LVU3508
	.loc 13 285 38 is_stmt 0 discriminator 5 view .LVU3509
	adds	r5, r2, #260
.LVL849:
	.loc 13 285 38 discriminator 5 view .LVU3510
	beq	.L506
.LVL850:
.LBB3414:
.LBI3414:
	.loc 13 274 29 is_stmt 1 view .LVU3511
.LBE3414:
.LBE3413:
.LBE3412:
	.loc 13 274 79 view .LVU3512
.LBB3419:
.LBB3418:
.LBB3417:
.LBB3415:
.LBI3415:
	.loc 13 204 28 view .LVU3513
.LBB3416:
	.loc 13 206 2 view .LVU3514
	.loc 13 206 13 is_stmt 0 view .LVU3515
	ldr	r5, [r2, #260]
.LVL851:
	.loc 13 206 13 view .LVU3516
.LBE3416:
.LBE3415:
.LBE3417:
.LBE3418:
.LBE3419:
	.loc 1 1326 4 view .LVU3517
	cmp	r5, #0
	beq	.L506
.LVL852:
	.loc 13 285 70 is_stmt 1 view .LVU3518
	.loc 13 274 79 view .LVU3519
	.loc 13 206 2 view .LVU3520
	.loc 1 1326 4 is_stmt 0 view .LVU3521
	sub	r5, r5, #260
	b	.L506
.LVL853:
.L524:
.LBB3420:
.LBB3421:
.LBB3422:
	.loc 13 401 95 is_stmt 1 view .LVU3522
	.loc 13 401 95 is_stmt 0 view .LVU3523
.LBE3422:
.LBE3421:
.LBE3420:
	.loc 13 233 2 is_stmt 1 view .LVU3524
.LBB3440:
.LBB3435:
.LBB3433:
.LBB3423:
.LBI3423:
	.loc 13 219 20 view .LVU3525
.LBB3424:
	.loc 13 221 2 view .LVU3526
	.loc 13 221 13 is_stmt 0 view .LVU3527
	ldr	r3, .L526+4
.LVL854:
	.loc 13 221 13 view .LVU3528
	str	r0, [r3, #4]
	.loc 13 222 1 view .LVU3529
	b	.L508
.LVL855:
.L525:
	.loc 13 222 1 view .LVU3530
.LBE3424:
.LBE3423:
.LBE3433:
.LBE3435:
	.loc 1 1328 18 view .LVU3531
	movs	r0, #0
.LVL856:
.L510:
	.loc 1 1351 3 is_stmt 1 view .LVU3532
	.loc 1 1351 6 is_stmt 0 view .LVU3533
	cbz	r0, .L512
	.loc 1 1352 4 is_stmt 1 view .LVU3534
.LBB3436:
	.loc 1 1352 9 view .LVU3535
.LBE3436:
	.loc 1 1352 158 view .LVU3536
	.loc 1 1354 4 view .LVU3537
	.loc 1 1354 7 is_stmt 0 view .LVU3538
	cmp	r1, #2
	bls	.L523
.LVL857:
.L512:
	.loc 1 1358 144 is_stmt 1 view .LVU3539
	.loc 1 1361 3 view .LVU3540
	.loc 1 1361 3 is_stmt 0 view .LVU3541
.LBE3440:
	.loc 1 1326 3 is_stmt 1 view .LVU3542
	.loc 1 1326 3 is_stmt 0 view .LVU3543
	cbz	r5, .L520
.LVL858:
.LBB3441:
.LBI3441:
	.loc 13 285 29 is_stmt 1 discriminator 14 view .LVU3544
.LBB3442:
	.loc 13 285 70 discriminator 14 view .LVU3545
	.loc 13 285 38 is_stmt 0 discriminator 14 view .LVU3546
	adds	r3, r5, #260
	beq	.L513
.LVL859:
.LBB3443:
.LBI3443:
	.loc 13 274 29 is_stmt 1 view .LVU3547
.LBE3443:
.LBE3442:
.LBE3441:
	.loc 13 274 79 view .LVU3548
.LBB3448:
.LBB3447:
.LBB3446:
.LBB3444:
.LBI3444:
	.loc 13 204 28 view .LVU3549
.LBB3445:
	.loc 13 206 2 view .LVU3550
	.loc 13 206 13 is_stmt 0 view .LVU3551
	ldr	r3, [r5, #260]
.LVL860:
	.loc 13 206 13 view .LVU3552
.LBE3445:
.LBE3444:
.LBE3446:
.LBE3447:
.LBE3448:
	.loc 1 1326 4 view .LVU3553
	cbz	r3, .L513
.LVL861:
	.loc 13 285 70 is_stmt 1 view .LVU3554
	.loc 13 274 79 view .LVU3555
	.loc 13 206 2 view .LVU3556
	.loc 1 1326 4 is_stmt 0 view .LVU3557
	sub	r3, r3, #260
.L513:
	.loc 1 1326 3 discriminator 22 view .LVU3558
	mov	r2, r5
.LVL862:
	.loc 1 1326 3 discriminator 22 view .LVU3559
	mov	r5, r3
.LVL863:
.L514:
	.loc 1 1326 4 is_stmt 1 discriminator 22 view .LVU3560
	.loc 1 1326 2 is_stmt 0 discriminator 22 view .LVU3561
	cbz	r2, .L507
.LBB3449:
	.loc 1 1328 3 is_stmt 1 view .LVU3562
.LVL864:
	.loc 1 1333 3 view .LVU3563
	.loc 1 1333 25 is_stmt 0 view .LVU3564
	ldr	r4, [r2, #264]
.LVL865:
	.loc 1 1333 51 view .LVU3565
	subs	r4, r4, r6
	add	r4, r4, #1000
.LVL866:
	.loc 1 1334 3 is_stmt 1 view .LVU3566
	.loc 1 1334 6 is_stmt 0 view .LVU3567
	cmp	r4, #0
	bgt	.L507
	.loc 1 1339 3 is_stmt 1 view .LVU3568
	add	r3, r2, #260
.LVL867:
.LBB3437:
.LBI3421:
	.loc 13 401 20 view .LVU3569
.LBB3434:
	.loc 13 401 101 view .LVU3570
	.loc 13 401 5 view .LVU3571
.LBB3425:
.LBI3425:
	.loc 13 204 28 view .LVU3572
.LBB3426:
	.loc 13 206 2 view .LVU3573
	.loc 13 206 13 is_stmt 0 view .LVU3574
	ldr	r0, [r2, #260]
.LVL868:
	.loc 13 206 13 view .LVU3575
.LBE3426:
.LBE3425:
.LBB3427:
.LBI3427:
	.loc 13 214 20 is_stmt 1 view .LVU3576
.LBB3428:
	.loc 13 216 2 view .LVU3577
	.loc 13 216 13 is_stmt 0 view .LVU3578
	ldr	r1, .L526+4
	str	r0, [r1]
.LVL869:
	.loc 13 216 13 view .LVU3579
.LBE3428:
.LBE3427:
	.loc 13 401 54 is_stmt 1 view .LVU3580
.LBB3429:
.LBI3429:
	.loc 13 243 28 view .LVU3581
.LBB3430:
	.loc 13 245 2 view .LVU3582
	.loc 13 245 13 is_stmt 0 view .LVU3583
	ldr	r1, [r1, #4]
.LVL870:
	.loc 13 245 13 view .LVU3584
.LBE3430:
.LBE3429:
	.loc 13 401 57 view .LVU3585
	cmp	r3, r1
	beq	.L524
.LVL871:
.L508:
	.loc 13 401 291 is_stmt 1 view .LVU3586
.LBB3431:
.LBI3431:
	.loc 13 209 20 view .LVU3587
.LBB3432:
	.loc 13 211 2 view .LVU3588
	.loc 13 211 15 is_stmt 0 view .LVU3589
	movs	r3, #0
	str	r3, [r2, #260]
.LVL872:
	.loc 13 211 15 view .LVU3590
.LBE3432:
.LBE3431:
.LBE3434:
.LBE3437:
	.loc 1 1342 3 is_stmt 1 view .LVU3591
	.loc 1 1342 7 is_stmt 0 view .LVU3592
	ldrb	r1, [r2, #268]	@ zero_extendqisi2
	.loc 1 1342 17 view .LVU3593
	adds	r1, r1, #1
	uxtb	r1, r1
	strb	r1, [r2, #268]
	.loc 1 1344 3 is_stmt 1 view .LVU3594
	.loc 1 1344 46 view .LVU3595
	.loc 1 1344 87 view .LVU3596
.LBB3438:
	.loc 1 1344 92 view .LVU3597
.LVL873:
	.loc 1 1344 107 is_stmt 0 view .LVU3598
	ldr	r0, .L526+8
.LVL874:
.L509:
	.loc 1 1344 133 is_stmt 1 discriminator 1 view .LVU3599
.LBE3438:
.LBE3449:
	.loc 1 1344 138 discriminator 1 view .LVU3600
	.loc 1 1344 139 discriminator 1 view .LVU3601
	.loc 1 1344 141 discriminator 1 view .LVU3602
.LBB3450:
.LBB3439:
	.loc 1 1344 87 is_stmt 0 discriminator 1 view .LVU3603
	ldr	r3, .L526+12
	cmp	r0, r3
	bcs	.L525
	.loc 1 1345 4 is_stmt 1 view .LVU3604
	.loc 1 1345 22 is_stmt 0 view .LVU3605
	ldr	r3, [r0, #528]
	.loc 1 1345 7 view .LVU3606
	cmp	r3, r2
	beq	.L510
	.loc 1 1344 169 is_stmt 1 discriminator 2 view .LVU3607
	.loc 1 1344 172 is_stmt 0 discriminator 2 view .LVU3608
	add	r0, r0, #536
.LVL875:
	.loc 1 1344 172 discriminator 2 view .LVU3609
	b	.L509
.LVL876:
.L523:
	.loc 1 1344 172 discriminator 2 view .LVU3610
.LBE3439:
	.loc 1 1355 5 is_stmt 1 view .LVU3611
	bl	net_if_start_rs
.LVL877:
	.loc 1 1355 5 is_stmt 0 view .LVU3612
	b	.L512
.LVL878:
.L518:
	.loc 1 1355 5 view .LVU3613
.LBE3450:
	.loc 1 1326 3 view .LVU3614
	mov	r5, r2
.L506:
	.loc 1 1326 3 discriminator 22 view .LVU3615
	mov	r4, #-1
	b	.L514
.LVL879:
.L519:
	.loc 1 1326 3 view .LVU3616
	mov	r5, r2
	b	.L506
.LVL880:
.L520:
	.loc 1 1326 3 view .LVU3617
	mov	r3, r5
	b	.L513
.LVL881:
.L507:
	.loc 1 1364 2 is_stmt 1 view .LVU3618
	.loc 1 1364 5 is_stmt 0 view .LVU3619
	cbz	r2, .L516
	.loc 1 1364 20 discriminator 1 view .LVU3620
	cmp	r4, #0
	ble	.L516
.LBB3451:
	.loc 1 1365 3 is_stmt 1 view .LVU3621
	.loc 1 1365 98 is_stmt 0 view .LVU3622
	ldr	r3, [r2, #264]
	.loc 1 1365 124 view .LVU3623
	subs	r7, r3, r7
	.loc 1 1365 70 view .LVU3624
	cmn	r7, #1000
	beq	.L521
	.loc 1 1365 180 discriminator 1 view .LVU3625
	add	r2, r7, #1000
.LVL882:
	.loc 1 1365 70 discriminator 1 view .LVU3626
	mov	r3, r2
	movs	r0, #0
.L517:
.LVL883:
.LBB3452:
.LBI3452:
	.loc 12 402 24 is_stmt 1 discriminator 4 view .LVU3627
.LBE3452:
.LBE3451:
	.loc 12 405 2 discriminator 4 view .LVU3628
.LBB3456:
.LBB3455:
.LBB3453:
.LBI3453:
	.loc 12 101 55 discriminator 4 view .LVU3629
.LBB3454:
	.loc 12 106 1 discriminator 4 view .LVU3630
	.loc 12 108 1 discriminator 4 view .LVU3631
	.loc 12 111 2 discriminator 4 view .LVU3632
	.loc 12 115 2 discriminator 4 view .LVU3633
	.loc 12 117 2 discriminator 4 view .LVU3634
	.loc 12 133 2 discriminator 4 view .LVU3635
	.loc 12 140 9 discriminator 4 view .LVU3636
	.loc 12 141 3 discriminator 4 view .LVU3637
	.loc 12 144 4 discriminator 4 view .LVU3638
	.loc 12 144 13 is_stmt 0 discriminator 4 view .LVU3639
	lsls	r4, r0, #2
.LVL884:
	.loc 12 144 13 discriminator 4 view .LVU3640
	lsls	r2, r3, #2
	orr	r1, r4, r3, lsr #30
	adds	r2, r2, r3
	adc	r3, r1, r0
.LVL885:
	.loc 12 144 13 discriminator 4 view .LVU3641
.LBE3454:
.LBE3453:
.LBE3455:
	.loc 1 1365 3 discriminator 4 view .LVU3642
	adds	r2, r2, r2
	adcs	r3, r3, r3
	ldr	r0, .L526+16
	bl	k_work_reschedule
.LVL886:
.L516:
	.loc 1 1365 3 discriminator 4 view .LVU3643
.LBE3456:
	.loc 1 1369 2 is_stmt 1 view .LVU3644
.LBB3457:
.LBI3457:
	.loc 8 917 19 view .LVU3645
.LBB3458:
	.loc 8 925 2 view .LVU3646
	.loc 8 925 7 view .LVU3647
	.loc 8 925 55 view .LVU3648
	.loc 8 926 2 view .LVU3649
	.loc 8 926 9 is_stmt 0 view .LVU3650
	ldr	r0, .L526
	bl	z_impl_k_mutex_unlock
.LVL887:
	.loc 8 926 9 view .LVU3651
.LBE3458:
.LBE3457:
	.loc 1 1370 1 view .LVU3652
	pop	{r3, r4, r5, r6, r7, pc}
.LVL888:
.L521:
.LBB3459:
	.loc 1 1365 70 view .LVU3653
	movs	r3, #0
	mov	r0, r3
	b	.L517
.L527:
	.align	2
.L526:
	.word	.LANCHOR2
	.word	.LANCHOR14
	.word	_net_if_list_start
	.word	_net_if_list_end
	.word	.LANCHOR15
.LBE3459:
	.cfi_endproc
.LFE995:
	.size	rs_timeout, .-rs_timeout
	.section	.text.net_if_stop_rs,"ax",%progbits
	.align	1
	.global	net_if_stop_rs
	.syntax unified
	.thumb
	.thumb_func
	.fpu fpv4-sp-d16
	.type	net_if_stop_rs, %function
net_if_stop_rs:
.LVL889:
.LFB997:
	.loc 1 1400 1 is_stmt 1 view -0
	.cfi_startproc
	@ args = 0, pretend = 0, frame = 0
	@ frame_needed = 0, uses_anonymous_args = 0
	.loc 1 1400 1 is_stmt 0 view .LVU3655
	push	{r4, lr}
	.cfi_def_cfa_offset 8
	.cfi_offset 4, -8
	.cfi_offset 14, -4
	mov	r4, r0
	.loc 1 1401 2 is_stmt 1 view .LVU3656
	.loc 1 1403 2 view .LVU3657
.LVL890:
.LBB3460:
.LBI3460:
	.loc 8 899 19 view .LVU3658
.LBB3461:
	.loc 8 909 2 view .LVU3659
	.loc 8 909 7 view .LVU3660
	.loc 8 909 55 view .LVU3661
	.loc 8 910 2 view .LVU3662
	.loc 8 910 9 is_stmt 0 view .LVU3663
	mov	r2, #-1
	mov	r3, #-1
	ldr	r0, .L539
.LVL891:
	.loc 8 910 9 view .LVU3664
	bl	z_impl_k_mutex_lock
.LVL892:
	.loc 8 910 9 view .LVU3665
.LBE3461:
.LBE3460:
	.loc 1 1405 2 is_stmt 1 view .LVU3666
	.loc 1 1405 7 is_stmt 0 view .LVU3667
	ldr	r0, [r4, #528]
.LVL893:
	.loc 1 1406 2 is_stmt 1 view .LVU3668
	.loc 1 1406 5 is_stmt 0 view .LVU3669
	cbz	r0, .L529
	.loc 1 1410 2 is_stmt 1 view .LVU3670
.LBB3462:
	.loc 1 1410 7 view .LVU3671
.LBE3462:
	.loc 1 1410 136 view .LVU3672
	.loc 1 1412 2 view .LVU3673
	add	r2, r0, #260
.LVL894:
.LBB3463:
.LBI3463:
	.loc 13 417 1 view .LVU3674
.LBB3464:
	.loc 13 417 67 view .LVU3675
	.loc 13 417 3 view .LVU3676
	.loc 13 417 22 view .LVU3677
.LBB3465:
.LBI3465:
	.loc 13 231 28 view .LVU3678
.LBB3466:
	.loc 13 233 2 view .LVU3679
	.loc 13 233 13 is_stmt 0 view .LVU3680
	ldr	r3, .L539+4
	ldr	r3, [r3]
.LVL895:
	.loc 13 233 13 view .LVU3681
.LBE3466:
.LBE3465:
	.loc 13 417 80 view .LVU3682
	movs	r1, #0
.LVL896:
.L530:
	.loc 13 417 61 is_stmt 1 view .LVU3683
	.loc 13 417 22 is_stmt 0 view .LVU3684
	cbz	r3, .L529
	.loc 13 417 39 is_stmt 1 view .LVU3685
	.loc 13 417 42 is_stmt 0 view .LVU3686
	cmp	r3, r2
	beq	.L536
	.loc 13 417 5 is_stmt 1 view .LVU3687
.LVL897:
	.loc 13 417 3 view .LVU3688
.LBB3467:
.LBI3467:
	.loc 13 285 29 view .LVU3689
.LBE3467:
.LBE3464:
.LBE3463:
	.loc 13 285 70 view .LVU3690
.LBB3502:
.LBB3498:
.LBB3472:
.LBB3468:
.LBI3468:
	.loc 13 274 29 view .LVU3691
.LBE3468:
.LBE3472:
.LBE3498:
.LBE3502:
	.loc 13 274 79 view .LVU3692
.LBB3503:
.LBB3499:
.LBB3473:
.LBB3471:
.LBB3469:
.LBI3469:
	.loc 13 204 28 view .LVU3693
.LBB3470:
	.loc 13 206 2 view .LVU3694
	.loc 13 206 2 is_stmt 0 view .LVU3695
.LBE3470:
.LBE3469:
.LBE3471:
.LBE3473:
	.loc 13 417 10 view .LVU3696
	mov	r1, r3
	.loc 13 417 10 view .LVU3697
	ldr	r3, [r3]
.LVL898:
	.loc 13 417 10 view .LVU3698
	b	.L530
.L536:
	.loc 13 417 59 is_stmt 1 view .LVU3699
.LVL899:
.LBB3474:
.LBI3474:
	.loc 13 401 20 view .LVU3700
.LBB3475:
	.loc 13 401 101 view .LVU3701
	.loc 13 401 104 is_stmt 0 view .LVU3702
	cbz	r1, .L537
	.loc 13 401 157 is_stmt 1 view .LVU3703
.LVL900:
.LBB3476:
.LBI3476:
	.loc 13 204 28 view .LVU3704
.LBB3477:
	.loc 13 206 2 view .LVU3705
	.loc 13 206 13 is_stmt 0 view .LVU3706
	ldr	r3, [r0, #260]
.LVL901:
	.loc 13 206 13 view .LVU3707
.LBE3477:
.LBE3476:
.LBB3478:
.LBI3478:
	.loc 13 209 20 is_stmt 1 view .LVU3708
.LBB3479:
	.loc 13 211 2 view .LVU3709
	.loc 13 211 15 is_stmt 0 view .LVU3710
	str	r3, [r1]
.LVL902:
	.loc 13 211 15 view .LVU3711
.LBE3479:
.LBE3478:
	.loc 13 401 211 is_stmt 1 view .LVU3712
.LBB3480:
.LBI3480:
	.loc 13 243 28 view .LVU3713
.LBB3481:
	.loc 13 245 2 view .LVU3714
	.loc 13 245 13 is_stmt 0 view .LVU3715
	ldr	r3, .L539+4
	ldr	r3, [r3, #4]
.LVL903:
	.loc 13 245 13 view .LVU3716
.LBE3481:
.LBE3480:
	.loc 13 401 214 view .LVU3717
	cmp	r3, r2
	beq	.L538
.LVL904:
.L533:
	.loc 13 401 291 is_stmt 1 view .LVU3718
.LBB3482:
.LBI3482:
	.loc 13 209 20 view .LVU3719
.LBB3483:
	.loc 13 211 2 view .LVU3720
	.loc 13 211 15 is_stmt 0 view .LVU3721
	movs	r3, #0
	str	r3, [r0, #260]
.LVL905:
	.loc 13 211 15 view .LVU3722
.LBE3483:
.LBE3482:
.LBE3475:
.LBE3474:
	.loc 13 417 95 is_stmt 1 view .LVU3723
.L529:
	.loc 13 417 95 is_stmt 0 view .LVU3724
.LBE3499:
.LBE3503:
	.loc 1 1415 2 is_stmt 1 view .LVU3725
.LBB3504:
.LBI3504:
	.loc 8 917 19 view .LVU3726
.LBB3505:
	.loc 8 925 2 view .LVU3727
	.loc 8 925 7 view .LVU3728
	.loc 8 925 55 view .LVU3729
	.loc 8 926 2 view .LVU3730
	.loc 8 926 9 is_stmt 0 view .LVU3731
	ldr	r0, .L539
.LVL906:
	.loc 8 926 9 view .LVU3732
	bl	z_impl_k_mutex_unlock
.LVL907:
	.loc 8 926 9 view .LVU3733
.LBE3505:
.LBE3504:
	.loc 1 1416 1 view .LVU3734
	pop	{r4, pc}
.LVL908:
.L537:
.LBB3506:
.LBB3500:
.LBB3496:
.LBB3494:
	.loc 13 401 5 is_stmt 1 view .LVU3735
.LBB3484:
.LBI3484:
	.loc 13 204 28 view .LVU3736
.LBB3485:
	.loc 13 206 2 view .LVU3737
	.loc 13 206 13 is_stmt 0 view .LVU3738
	ldr	r1, [r0, #260]
.LVL909:
	.loc 13 206 13 view .LVU3739
.LBE3485:
.LBE3484:
.LBB3486:
.LBI3486:
	.loc 13 214 20 is_stmt 1 view .LVU3740
.LBB3487:
	.loc 13 216 2 view .LVU3741
	.loc 13 216 13 is_stmt 0 view .LVU3742
	ldr	r3, .L539+4
.LVL910:
	.loc 13 216 13 view .LVU3743
	str	r1, [r3]
.LVL911:
	.loc 13 216 13 view .LVU3744
.LBE3487:
.LBE3486:
	.loc 13 401 54 is_stmt 1 view .LVU3745
.LBB3488:
.LBI3488:
	.loc 13 243 28 view .LVU3746
.LBB3489:
	.loc 13 245 2 view .LVU3747
	.loc 13 245 13 is_stmt 0 view .LVU3748
	ldr	r3, [r3, #4]
.LVL912:
	.loc 13 245 13 view .LVU3749
.LBE3489:
.LBE3488:
	.loc 13 401 57 view .LVU3750
	cmp	r3, r2
	bne	.L533
	.loc 13 401 95 is_stmt 1 view .LVU3751
.LVL913:
	.loc 13 401 95 is_stmt 0 view .LVU3752
.LBE3494:
.LBE3496:
.LBE3500:
.LBE3506:
	.loc 13 233 2 is_stmt 1 view .LVU3753
.LBB3507:
.LBB3501:
.LBB3497:
.LBB3495:
.LBB3490:
.LBI3490:
	.loc 13 219 20 view .LVU3754
.LBB3491:
	.loc 13 221 2 view .LVU3755
	.loc 13 221 13 is_stmt 0 view .LVU3756
	ldr	r3, .L539+4
	str	r1, [r3, #4]
	.loc 13 222 1 view .LVU3757
	b	.L533
.LVL914:
.L538:
	.loc 13 222 1 view .LVU3758
.LBE3491:
.LBE3490:
	.loc 13 401 252 is_stmt 1 view .LVU3759
.LBB3492:
.LBI3492:
	.loc 13 219 20 view .LVU3760
.LBB3493:
	.loc 13 221 2 view .LVU3761
	.loc 13 221 13 is_stmt 0 view .LVU3762
	ldr	r3, .L539+4
	str	r1, [r3, #4]
	.loc 13 222 1 view .LVU3763
	b	.L533
.L540:
	.align	2
.L539:
	.word	.LANCHOR2
	.word	.LANCHOR14
.LBE3493:
.LBE3492:
.LBE3495:
.LBE3497:
.LBE3501:
.LBE3507:
	.cfi_endproc
.LFE997:
	.size	net_if_stop_rs, .-net_if_stop_rs
	.section	.text.net_if_ipv6_addr_lookup,"ax",%progbits
	.align	1
	.global	net_if_ipv6_addr_lookup
	.syntax unified
	.thumb
	.thumb_func
	.fpu fpv4-sp-d16
	.type	net_if_ipv6_addr_lookup, %function
net_if_ipv6_addr_lookup:
.LVL915:
.LFB999:
	.loc 1 1432 1 is_stmt 1 view -0
	.cfi_startproc
	@ args = 0, pretend = 0, frame = 0
	@ frame_needed = 0, uses_anonymous_args = 0
	.loc 1 1432 1 is_stmt 0 view .LVU3765
	push	{r3, r4, r5, r6, r7, r8, r9, lr}
	.cfi_def_cfa_offset 32
	.cfi_offset 3, -32
	.cfi_offset 4, -28
	.cfi_offset 5, -24
	.cfi_offset 6, -20
	.cfi_offset 7, -16
	.cfi_offset 8, -12
	.cfi_offset 9, -8
	.cfi_offset 14, -4
	mov	r7, r0
	mov	r8, r1
	.loc 1 1433 2 is_stmt 1 view .LVU3766
.LVL916:
	.loc 1 1435 2 view .LVU3767
.LBB3516:
.LBI3516:
	.loc 8 899 19 view .LVU3768
.LBB3517:
	.loc 8 909 2 view .LVU3769
	.loc 8 909 7 view .LVU3770
	.loc 8 909 55 view .LVU3771
	.loc 8 910 2 view .LVU3772
	.loc 8 910 9 is_stmt 0 view .LVU3773
	mov	r2, #-1
	mov	r3, #-1
	ldr	r0, .L554
.LVL917:
	.loc 8 910 9 view .LVU3774
	bl	z_impl_k_mutex_lock
.LVL918:
	.loc 8 910 9 view .LVU3775
.LBE3517:
.LBE3516:
	.loc 1 1437 2 is_stmt 1 view .LVU3776
	.loc 1 1437 45 view .LVU3777
	.loc 1 1437 86 view .LVU3778
.LBB3518:
	.loc 1 1437 91 view .LVU3779
	.loc 1 1437 106 is_stmt 0 view .LVU3780
	ldr	r6, .L554+4
	.loc 1 1437 86 view .LVU3781
	b	.L542
.LVL919:
.L546:
.LBB3519:
	.loc 1 1451 7 view .LVU3782
	cmp	r9, #0
	bne	.L552
.LVL920:
.L545:
	.loc 1 1445 22 is_stmt 1 discriminator 2 view .LVU3783
	.loc 1 1445 23 is_stmt 0 discriminator 2 view .LVU3784
	adds	r4, r4, #1
.LVL921:
.L544:
	.loc 1 1445 15 is_stmt 1 discriminator 1 view .LVU3785
	.loc 1 1445 3 is_stmt 0 discriminator 1 view .LVU3786
	cmp	r4, #1
	bgt	.L543
	.loc 1 1446 4 is_stmt 1 view .LVU3787
	.loc 1 1446 25 is_stmt 0 view .LVU3788
	add	r3, r4, r4, lsl #1
	add	r3, r5, r3, lsl #4
	ldrb	r3, [r3, #47]	@ zero_extendqisi2
	ubfx	r9, r3, #1, #1
	.loc 1 1446 7 view .LVU3789
	tst	r3, #2
	beq	.L545
	.loc 1 1447 32 discriminator 1 view .LVU3790
	add	r3, r4, r4, lsl #1
	lsls	r3, r3, #4
	ldrh	r3, [r5, r3]
	.loc 1 1446 34 discriminator 1 view .LVU3791
	cmp	r3, #2
	bne	.L545
	.loc 1 1451 4 is_stmt 1 view .LVU3792
	.loc 1 1453 42 is_stmt 0 view .LVU3793
	add	r1, r4, r4, lsl #1
	add	r1, r5, r1, lsl #4
.LVL922:
.LBB3520:
.LBI3520:
	.loc 3 652 19 is_stmt 1 view .LVU3794
.LBB3521:
	.loc 3 656 2 view .LVU3795
	.loc 3 657 2 view .LVU3796
	.loc 3 658 2 view .LVU3797
	.loc 3 659 2 view .LVU3798
	.loc 3 661 2 view .LVU3799
	.loc 3 665 2 view .LVU3800
	.loc 3 665 6 is_stmt 0 view .LVU3801
	movs	r2, #16
	adds	r1, r1, #4
.LVL923:
	.loc 3 665 6 view .LVU3802
	mov	r0, r7
	bl	memcmp
.LVL924:
	.loc 3 665 5 view .LVU3803
	cmp	r0, #0
	beq	.L546
	.loc 3 666 9 view .LVU3804
	mov	r9, #0
	b	.L546
.LVL925:
.L552:
	.loc 3 666 9 view .LVU3805
.LBE3521:
.LBE3520:
	.loc 1 1456 5 is_stmt 1 view .LVU3806
	.loc 1 1456 8 is_stmt 0 view .LVU3807
	cmp	r8, #0
	beq	.L547
	.loc 1 1457 6 is_stmt 1 view .LVU3808
	.loc 1 1457 11 is_stmt 0 view .LVU3809
	str	r6, [r8]
.L547:
	.loc 1 1460 5 is_stmt 1 view .LVU3810
	.loc 1 1460 12 is_stmt 0 view .LVU3811
	add	r4, r4, r4, lsl #1
.LVL926:
	.loc 1 1460 12 view .LVU3812
	add	r4, r5, r4, lsl #4
.LVL927:
	.loc 1 1461 5 is_stmt 1 view .LVU3813
	b	.L548
.LVL928:
.L543:
	.loc 1 1461 5 is_stmt 0 view .LVU3814
.LBE3519:
	.loc 1 1437 172 is_stmt 1 discriminator 2 view .LVU3815
	.loc 1 1437 177 is_stmt 0 discriminator 2 view .LVU3816
	add	r6, r6, #536
.LVL929:
.L542:
	.loc 1 1437 134 is_stmt 1 discriminator 1 view .LVU3817
.LBE3518:
	.loc 1 1437 139 discriminator 1 view .LVU3818
	.loc 1 1437 140 discriminator 1 view .LVU3819
	.loc 1 1437 142 discriminator 1 view .LVU3820
.LBB3523:
	.loc 1 1437 86 is_stmt 0 discriminator 1 view .LVU3821
	ldr	r3, .L554+8
	cmp	r6, r3
	bcs	.L553
.LBB3522:
	.loc 1 1438 3 is_stmt 1 view .LVU3822
	.loc 1 1438 23 is_stmt 0 view .LVU3823
	ldr	r5, [r6, #528]
.LVL930:
	.loc 1 1439 3 is_stmt 1 view .LVU3824
	.loc 1 1441 3 view .LVU3825
	.loc 1 1441 6 is_stmt 0 view .LVU3826
	cmp	r5, #0
	beq	.L543
	.loc 1 1445 10 view .LVU3827
	movs	r4, #0
	b	.L544
.LVL931:
.L553:
	.loc 1 1445 10 view .LVU3828
.LBE3522:
.LBE3523:
	.loc 1 1433 22 view .LVU3829
	movs	r4, #0
.LVL932:
.L548:
	.loc 1 1467 2 is_stmt 1 view .LVU3830
.LBB3524:
.LBI3524:
	.loc 8 917 19 view .LVU3831
.LBB3525:
	.loc 8 925 2 view .LVU3832
	.loc 8 925 7 view .LVU3833
	.loc 8 925 55 view .LVU3834
	.loc 8 926 2 view .LVU3835
	.loc 8 926 9 is_stmt 0 view .LVU3836
	ldr	r0, .L554
	bl	z_impl_k_mutex_unlock
.LVL933:
	.loc 8 926 9 view .LVU3837
.LBE3525:
.LBE3524:
	.loc 1 1469 2 is_stmt 1 view .LVU3838
	.loc 1 1470 1 is_stmt 0 view .LVU3839
	mov	r0, r4
	pop	{r3, r4, r5, r6, r7, r8, r9, pc}
.LVL934:
.L555:
	.loc 1 1470 1 view .LVU3840
	.align	2
.L554:
	.word	.LANCHOR2
	.word	_net_if_list_start
	.word	_net_if_list_end
	.cfi_endproc
.LFE999:
	.size	net_if_ipv6_addr_lookup, .-net_if_ipv6_addr_lookup
	.section	.text.dad_timeout,"ax",%progbits
	.align	1
	.syntax unified
	.thumb
	.thumb_func
	.fpu fpv4-sp-d16
	.type	dad_timeout, %function
dad_timeout:
.LVL935:
.LFB990:
	.loc 1 1126 1 is_stmt 1 view -0
	.cfi_startproc
	@ args = 0, pretend = 0, frame = 8
	@ frame_needed = 0, uses_anonymous_args = 0
	.loc 1 1126 1 is_stmt 0 view .LVU3842
	push	{r4, r5, r6, r7, r8, lr}
	.cfi_def_cfa_offset 24
	.cfi_offset 4, -24
	.cfi_offset 5, -20
	.cfi_offset 6, -16
	.cfi_offset 7, -12
	.cfi_offset 8, -8
	.cfi_offset 14, -4
	sub	sp, sp, #8
	.cfi_def_cfa_offset 32
	.loc 1 1127 2 is_stmt 1 view .LVU3843
.LBB3526:
.LBI3526:
	.loc 11 1563 24 view .LVU3844
.LBB3527:
	.loc 11 1565 2 view .LVU3845
.LBB3528:
.LBI3528:
	.loc 11 1539 23 view .LVU3846
.LBB3529:
	.loc 11 1541 2 view .LVU3847
.LBB3530:
.LBI3530:
	.loc 8 562 23 view .LVU3848
.LBB3531:
	.loc 8 572 2 view .LVU3849
	.loc 8 572 7 view .LVU3850
	.loc 8 572 55 view .LVU3851
	.loc 8 573 2 view .LVU3852
	.loc 8 573 9 is_stmt 0 view .LVU3853
	bl	z_impl_k_uptime_ticks
.LVL936:
	.loc 8 573 9 view .LVU3854
.LBE3531:
.LBE3530:
.LBB3532:
.LBI3532:
	.loc 12 1102 24 is_stmt 1 view .LVU3855
.LBE3532:
.LBE3529:
.LBE3528:
.LBE3527:
.LBE3526:
	.loc 12 1105 2 view .LVU3856
.LBB3545:
.LBB3543:
.LBB3541:
.LBB3539:
.LBB3537:
.LBB3533:
.LBI3533:
	.loc 12 101 55 view .LVU3857
.LBB3534:
	.loc 12 106 1 view .LVU3858
	.loc 12 108 1 view .LVU3859
	.loc 12 111 2 view .LVU3860
	.loc 12 115 2 view .LVU3861
	.loc 12 117 2 view .LVU3862
.LBE3534:
.LBE3533:
.LBE3537:
.LBE3539:
.LBE3541:
.LBE3543:
.LBE3545:
	.loc 12 118 3 view .LVU3863
	.loc 12 120 3 view .LVU3864
	.loc 12 123 3 view .LVU3865
.LBB3546:
.LBB3544:
.LBB3542:
.LBB3540:
.LBB3538:
.LBB3536:
.LBB3535:
	.loc 12 133 2 view .LVU3866
	.loc 12 134 3 view .LVU3867
	.loc 12 135 3 view .LVU3868
	.loc 12 138 4 view .LVU3869
	.loc 12 138 13 is_stmt 0 view .LVU3870
	movs	r2, #10
	movs	r3, #0
	bl	__aeabi_uldivmod
.LVL937:
	.loc 12 138 13 view .LVU3871
.LBE3535:
.LBE3536:
.LBE3538:
.LBE3540:
.LBE3542:
	.loc 11 1565 9 view .LVU3872
	mov	r7, r0
.LVL938:
	.loc 11 1565 9 view .LVU3873
.LBE3544:
.LBE3546:
	.loc 1 1128 2 is_stmt 1 view .LVU3874
	.loc 1 1129 2 view .LVU3875
	.loc 1 1131 2 view .LVU3876
	.loc 1 1133 2 view .LVU3877
.LBB3547:
.LBI3547:
	.loc 8 899 19 view .LVU3878
.LBB3548:
	.loc 8 909 2 view .LVU3879
	.loc 8 909 7 view .LVU3880
	.loc 8 909 55 view .LVU3881
	.loc 8 910 2 view .LVU3882
	.loc 8 910 9 is_stmt 0 view .LVU3883
	mov	r2, #-1
	mov	r3, #-1
	ldr	r0, .L574
.LVL939:
	.loc 8 910 9 view .LVU3884
	bl	z_impl_k_mutex_lock
.LVL940:
	.loc 8 910 9 view .LVU3885
.LBE3548:
.LBE3547:
	.loc 1 1135 2 is_stmt 1 view .LVU3886
.LBB3549:
.LBI3549:
	.loc 13 231 28 view .LVU3887
.LBB3550:
	.loc 13 233 2 view .LVU3888
	.loc 13 233 13 is_stmt 0 view .LVU3889
	ldr	r3, .L574+4
	ldr	r4, [r3]
.LVL941:
	.loc 13 233 13 view .LVU3890
.LBE3550:
.LBE3549:
	.loc 1 1135 4 view .LVU3891
	cmp	r4, #0
	beq	.L567
.LVL942:
	.loc 13 233 2 is_stmt 1 view .LVU3892
	.loc 1 1135 3 is_stmt 0 view .LVU3893
	subs	r4, r4, #36
.LVL943:
	.loc 1 1135 3 view .LVU3894
	beq	.L568
.LVL944:
.LBB3551:
.LBI3551:
	.loc 13 285 29 is_stmt 1 discriminator 5 view .LVU3895
.LBB3552:
	.loc 13 285 70 discriminator 5 view .LVU3896
	.loc 13 285 38 is_stmt 0 discriminator 5 view .LVU3897
	adds	r6, r4, #36
.LVL945:
	.loc 13 285 38 discriminator 5 view .LVU3898
	beq	.L557
.LVL946:
.LBB3553:
.LBI3553:
	.loc 13 274 29 is_stmt 1 view .LVU3899
.LBE3553:
.LBE3552:
.LBE3551:
	.loc 13 274 79 view .LVU3900
.LBB3558:
.LBB3557:
.LBB3556:
.LBB3554:
.LBI3554:
	.loc 13 204 28 view .LVU3901
.LBB3555:
	.loc 13 206 2 view .LVU3902
	.loc 13 206 13 is_stmt 0 view .LVU3903
	ldr	r6, [r4, #36]
.LVL947:
	.loc 13 206 13 view .LVU3904
.LBE3555:
.LBE3554:
.LBE3556:
.LBE3557:
.LBE3558:
	.loc 1 1135 4 view .LVU3905
	cmp	r6, #0
	beq	.L557
.LVL948:
	.loc 13 285 70 is_stmt 1 view .LVU3906
	.loc 13 274 79 view .LVU3907
	.loc 13 206 2 view .LVU3908
	.loc 1 1135 4 is_stmt 0 view .LVU3909
	subs	r6, r6, #36
	b	.L557
.LVL949:
.L570:
.LBB3559:
.LBB3560:
.LBB3561:
	.loc 13 401 95 is_stmt 1 view .LVU3910
	.loc 13 401 95 is_stmt 0 view .LVU3911
.LBE3561:
.LBE3560:
.LBE3559:
	.loc 13 233 2 is_stmt 1 view .LVU3912
.LBB3577:
.LBB3574:
.LBB3572:
.LBB3562:
.LBI3562:
	.loc 13 219 20 view .LVU3913
.LBB3563:
	.loc 13 221 2 view .LVU3914
	.loc 13 221 13 is_stmt 0 view .LVU3915
	ldr	r3, .L574+4
.LVL950:
	.loc 13 221 13 view .LVU3916
	str	r1, [r3, #4]
	.loc 13 222 1 view .LVU3917
	b	.L559
.LVL951:
.L571:
	.loc 13 222 1 view .LVU3918
.LBE3563:
.LBE3562:
.LBE3572:
.LBE3574:
	.loc 1 1165 4 is_stmt 1 view .LVU3919
	movs	r3, #16
	mov	r2, r8
	ldr	r1, [sp, #4]
	ldr	r0, .L574+8
.LVL952:
	.loc 1 1165 4 is_stmt 0 view .LVU3920
	bl	net_mgmt_event_notify_with_info
.LVL953:
	.loc 1 1173 4 is_stmt 1 view .LVU3921
	mov	r1, r8
	ldr	r0, [sp, #4]
	bl	net_ipv6_nbr_rm
.LVL954:
	b	.L560
.LVL955:
.L572:
	.loc 1 1173 4 is_stmt 0 view .LVU3922
.LBE3577:
	.loc 1 1135 3 view .LVU3923
	mov	r3, r6
.L562:
	.loc 1 1135 3 discriminator 22 view .LVU3924
	mov	r4, r6
.LVL956:
	.loc 1 1135 3 discriminator 22 view .LVU3925
	mov	r6, r3
.LVL957:
.L564:
	.loc 1 1135 4 is_stmt 1 discriminator 22 view .LVU3926
	.loc 1 1135 2 is_stmt 0 discriminator 22 view .LVU3927
	cbz	r4, .L563
.LBB3578:
	.loc 1 1137 3 is_stmt 1 view .LVU3928
	.loc 1 1138 3 view .LVU3929
	.loc 1 1143 3 view .LVU3930
	.loc 1 1143 27 is_stmt 0 view .LVU3931
	ldr	r5, [r4, #40]
.LVL958:
	.loc 1 1144 12 view .LVU3932
	subs	r5, r5, r7
	adds	r5, r5, #100
.LVL959:
	.loc 1 1145 3 is_stmt 1 view .LVU3933
	.loc 1 1145 6 is_stmt 0 view .LVU3934
	cmp	r5, #0
	bgt	.L563
	.loc 1 1150 3 is_stmt 1 view .LVU3935
	add	r3, r4, #36
.LVL960:
.LBB3575:
.LBI3560:
	.loc 13 401 20 view .LVU3936
.LBB3573:
	.loc 13 401 101 view .LVU3937
	.loc 13 401 5 view .LVU3938
.LBB3564:
.LBI3564:
	.loc 13 204 28 view .LVU3939
.LBB3565:
	.loc 13 206 2 view .LVU3940
	.loc 13 206 13 is_stmt 0 view .LVU3941
	ldr	r1, [r4, #36]
.LVL961:
	.loc 13 206 13 view .LVU3942
.LBE3565:
.LBE3564:
.LBB3566:
.LBI3566:
	.loc 13 214 20 is_stmt 1 view .LVU3943
.LBB3567:
	.loc 13 216 2 view .LVU3944
	.loc 13 216 13 is_stmt 0 view .LVU3945
	ldr	r2, .L574+4
	str	r1, [r2]
.LVL962:
	.loc 13 216 13 view .LVU3946
.LBE3567:
.LBE3566:
	.loc 13 401 54 is_stmt 1 view .LVU3947
.LBB3568:
.LBI3568:
	.loc 13 243 28 view .LVU3948
.LBB3569:
	.loc 13 245 2 view .LVU3949
	.loc 13 245 13 is_stmt 0 view .LVU3950
	ldr	r2, [r2, #4]
.LVL963:
	.loc 13 245 13 view .LVU3951
.LBE3569:
.LBE3568:
	.loc 13 401 57 view .LVU3952
	cmp	r3, r2
	beq	.L570
.LVL964:
.L559:
	.loc 13 401 291 is_stmt 1 view .LVU3953
.LBB3570:
.LBI3570:
	.loc 13 209 20 view .LVU3954
.LBB3571:
	.loc 13 211 2 view .LVU3955
	.loc 13 211 15 is_stmt 0 view .LVU3956
	movs	r3, #0
	str	r3, [r4, #36]
.LVL965:
	.loc 13 211 15 view .LVU3957
.LBE3571:
.LBE3570:
.LBE3573:
.LBE3575:
	.loc 1 1152 3 is_stmt 1 view .LVU3958
.LBB3576:
	.loc 1 1152 8 view .LVU3959
.LBE3576:
	.loc 1 1152 182 view .LVU3960
	.loc 1 1156 3 view .LVU3961
	.loc 1 1156 22 is_stmt 0 view .LVU3962
	movs	r2, #1
	strb	r2, [r4, #45]
	.loc 1 1161 3 is_stmt 1 view .LVU3963
	.loc 1 1161 9 is_stmt 0 view .LVU3964
	str	r3, [sp, #4]
	.loc 1 1162 3 is_stmt 1 view .LVU3965
	.loc 1 1162 33 is_stmt 0 view .LVU3966
	add	r8, r4, #4
	.loc 1 1162 9 view .LVU3967
	add	r1, sp, #4
	mov	r0, r8
	bl	net_if_ipv6_addr_lookup
.LVL966:
	.loc 1 1164 3 is_stmt 1 view .LVU3968
	.loc 1 1164 6 is_stmt 0 view .LVU3969
	cmp	r4, r0
	beq	.L571
.LVL967:
.L560:
	.loc 1 1176 3 is_stmt 1 view .LVU3970
	.loc 1 1176 3 is_stmt 0 view .LVU3971
.LBE3578:
	.loc 1 1135 3 is_stmt 1 view .LVU3972
	.loc 1 1135 3 is_stmt 0 view .LVU3973
	cmp	r6, #0
	beq	.L572
.LVL968:
.LBB3579:
.LBI3579:
	.loc 13 285 29 is_stmt 1 discriminator 14 view .LVU3974
.LBB3580:
	.loc 13 285 70 discriminator 14 view .LVU3975
	.loc 13 285 38 is_stmt 0 discriminator 14 view .LVU3976
	adds	r3, r6, #36
	beq	.L562
.LVL969:
.LBB3581:
.LBI3581:
	.loc 13 274 29 is_stmt 1 view .LVU3977
.LBE3581:
.LBE3580:
.LBE3579:
	.loc 13 274 79 view .LVU3978
.LBB3586:
.LBB3585:
.LBB3584:
.LBB3582:
.LBI3582:
	.loc 13 204 28 view .LVU3979
.LBB3583:
	.loc 13 206 2 view .LVU3980
	.loc 13 206 13 is_stmt 0 view .LVU3981
	ldr	r3, [r6, #36]
.LVL970:
	.loc 13 206 13 view .LVU3982
.LBE3583:
.LBE3582:
.LBE3584:
.LBE3585:
.LBE3586:
	.loc 1 1135 4 view .LVU3983
	cmp	r3, #0
	beq	.L562
.LVL971:
	.loc 13 285 70 is_stmt 1 view .LVU3984
	.loc 13 274 79 view .LVU3985
	.loc 13 206 2 view .LVU3986
	.loc 1 1135 4 is_stmt 0 view .LVU3987
	subs	r3, r3, #36
	b	.L562
.LVL972:
.L567:
	.loc 1 1135 3 view .LVU3988
	mov	r6, r4
.L557:
	.loc 1 1135 3 discriminator 22 view .LVU3989
	mov	r5, #-1
	b	.L564
.LVL973:
.L568:
	.loc 1 1135 3 view .LVU3990
	mov	r6, r4
	b	.L557
.LVL974:
.L563:
	.loc 1 1179 2 is_stmt 1 view .LVU3991
	.loc 1 1179 5 is_stmt 0 view .LVU3992
	cbz	r4, .L566
	.loc 1 1179 22 discriminator 1 view .LVU3993
	cmp	r5, #0
	bgt	.L573
.L566:
	.loc 1 1183 2 is_stmt 1 view .LVU3994
.LVL975:
.LBB3587:
.LBI3587:
	.loc 8 917 19 view .LVU3995
.LBB3588:
	.loc 8 925 2 view .LVU3996
	.loc 8 925 7 view .LVU3997
	.loc 8 925 55 view .LVU3998
	.loc 8 926 2 view .LVU3999
	.loc 8 926 9 is_stmt 0 view .LVU4000
	ldr	r0, .L574
	bl	z_impl_k_mutex_unlock
.LVL976:
	.loc 8 926 9 view .LVU4001
.LBE3588:
.LBE3587:
	.loc 1 1184 1 view .LVU4002
	add	sp, sp, #8
	.cfi_remember_state
	.cfi_def_cfa_offset 24
	@ sp needed
	pop	{r4, r5, r6, r7, r8, pc}
.LVL977:
.L573:
	.cfi_restore_state
.LBB3589:
	.loc 1 1180 3 is_stmt 1 view .LVU4003
.LBB3590:
.LBI3590:
	.loc 12 402 24 view .LVU4004
.LBE3590:
.LBE3589:
	.loc 12 405 2 view .LVU4005
.LBB3594:
.LBB3593:
.LBB3591:
.LBI3591:
	.loc 12 101 55 view .LVU4006
.LBB3592:
	.loc 12 106 1 view .LVU4007
	.loc 12 108 1 view .LVU4008
	.loc 12 111 2 view .LVU4009
	.loc 12 115 2 view .LVU4010
	.loc 12 117 2 view .LVU4011
	.loc 12 133 2 view .LVU4012
	.loc 12 140 9 view .LVU4013
	.loc 12 141 3 view .LVU4014
	.loc 12 144 4 view .LVU4015
	.loc 12 144 13 is_stmt 0 view .LVU4016
	lsls	r0, r5, #2
	lsrs	r1, r5, #30
	adds	r0, r0, r5
	adc	r1, r1, #0
.LVL978:
	.loc 12 144 13 view .LVU4017
.LBE3592:
.LBE3591:
.LBE3593:
	.loc 1 1180 3 view .LVU4018
	adds	r2, r0, r0
	adc	r3, r1, r1
	ldr	r0, .L574+12
	bl	k_work_reschedule
.LVL979:
	b	.L566
.L575:
	.align	2
.L574:
	.word	.LANCHOR2
	.word	.LANCHOR4
	.word	-530579443
	.word	.LANCHOR5
.LBE3594:
	.cfi_endproc
.LFE990:
	.size	dad_timeout, .-dad_timeout
	.section	.text.net_if_ipv6_addr_lookup_by_iface,"ax",%progbits
	.align	1
	.global	net_if_ipv6_addr_lookup_by_iface
	.syntax unified
	.thumb
	.thumb_func
	.fpu fpv4-sp-d16
	.type	net_if_ipv6_addr_lookup_by_iface, %function
net_if_ipv6_addr_lookup_by_iface:
.LVL980:
.LFB1000:
	.loc 1 1474 1 is_stmt 1 view -0
	.cfi_startproc
	@ args = 0, pretend = 0, frame = 0
	@ frame_needed = 0, uses_anonymous_args = 0
	.loc 1 1474 1 is_stmt 0 view .LVU4020
	push	{r3, r4, r5, r6, r7, lr}
	.cfi_def_cfa_offset 24
	.cfi_offset 3, -24
	.cfi_offset 4, -20
	.cfi_offset 5, -16
	.cfi_offset 6, -12
	.cfi_offset 7, -8
	.cfi_offset 14, -4
	mov	r4, r0
	mov	r6, r1
	.loc 1 1475 2 is_stmt 1 view .LVU4021
.LVL981:
	.loc 1 1476 2 view .LVU4022
	.loc 1 1477 2 view .LVU4023
	.loc 1 1479 2 view .LVU4024
.LBB3601:
.LBI3601:
	.loc 8 899 19 view .LVU4025
.LBB3602:
	.loc 8 909 2 view .LVU4026
	.loc 8 909 7 view .LVU4027
	.loc 8 909 55 view .LVU4028
	.loc 8 910 2 view .LVU4029
	.loc 8 910 9 is_stmt 0 view .LVU4030
	mov	r2, #-1
	mov	r3, #-1
	ldr	r0, .L585
.LVL982:
	.loc 8 910 9 view .LVU4031
	bl	z_impl_k_mutex_lock
.LVL983:
	.loc 8 910 9 view .LVU4032
.LBE3602:
.LBE3601:
	.loc 1 1481 2 is_stmt 1 view .LVU4033
	.loc 1 1481 7 is_stmt 0 view .LVU4034
	ldr	r5, [r4, #528]
.LVL984:
	.loc 1 1482 2 is_stmt 1 view .LVU4035
	.loc 1 1482 5 is_stmt 0 view .LVU4036
	cbz	r5, .L577
	.loc 1 1486 9 view .LVU4037
	movs	r4, #0
.LVL985:
	.loc 1 1486 9 view .LVU4038
	b	.L578
.LVL986:
.L580:
	.loc 1 1492 6 view .LVU4039
	cbnz	r7, .L583
.LVL987:
.L579:
	.loc 1 1486 21 is_stmt 1 discriminator 2 view .LVU4040
	.loc 1 1486 22 is_stmt 0 discriminator 2 view .LVU4041
	adds	r4, r4, #1
.LVL988:
.L578:
	.loc 1 1486 14 is_stmt 1 discriminator 1 view .LVU4042
	.loc 1 1486 2 is_stmt 0 discriminator 1 view .LVU4043
	cmp	r4, #1
	bgt	.L584
	.loc 1 1487 3 is_stmt 1 view .LVU4044
	.loc 1 1487 24 is_stmt 0 view .LVU4045
	add	r3, r4, r4, lsl #1
	add	r3, r5, r3, lsl #4
	ldrb	r3, [r3, #47]	@ zero_extendqisi2
	ubfx	r7, r3, #1, #1
	.loc 1 1487 6 view .LVU4046
	tst	r3, #2
	beq	.L579
	.loc 1 1488 31 discriminator 1 view .LVU4047
	add	r3, r4, r4, lsl #1
	lsls	r3, r3, #4
	ldrh	r3, [r5, r3]
	.loc 1 1487 33 discriminator 1 view .LVU4048
	cmp	r3, #2
	bne	.L579
	.loc 1 1492 3 is_stmt 1 view .LVU4049
	.loc 1 1494 41 is_stmt 0 view .LVU4050
	add	r1, r4, r4, lsl #1
	add	r1, r5, r1, lsl #4
.LVL989:
.LBB3603:
.LBI3603:
	.loc 3 652 19 is_stmt 1 view .LVU4051
.LBB3604:
	.loc 3 656 2 view .LVU4052
	.loc 3 657 2 view .LVU4053
	.loc 3 658 2 view .LVU4054
	.loc 3 659 2 view .LVU4055
	.loc 3 661 2 view .LVU4056
	.loc 3 665 2 view .LVU4057
	.loc 3 665 6 is_stmt 0 view .LVU4058
	movs	r2, #16
	adds	r1, r1, #4
.LVL990:
	.loc 3 665 6 view .LVU4059
	mov	r0, r6
	bl	memcmp
.LVL991:
	.loc 3 665 5 view .LVU4060
	cmp	r0, #0
	beq	.L580
	.loc 3 666 9 view .LVU4061
	movs	r7, #0
	b	.L580
.LVL992:
.L583:
	.loc 3 666 9 view .LVU4062
.LBE3604:
.LBE3603:
	.loc 1 1496 4 is_stmt 1 view .LVU4063
	.loc 1 1496 11 is_stmt 0 view .LVU4064
	add	r4, r4, r4, lsl #1
.LVL993:
	.loc 1 1496 11 view .LVU4065
	add	r5, r5, r4, lsl #4
.LVL994:
	.loc 1 1497 4 is_stmt 1 view .LVU4066
	b	.L577
.LVL995:
.L584:
	.loc 1 1475 22 is_stmt 0 view .LVU4067
	movs	r5, #0
.LVL996:
.L577:
	.loc 1 1502 2 is_stmt 1 view .LVU4068
.LBB3605:
.LBI3605:
	.loc 8 917 19 view .LVU4069
.LBB3606:
	.loc 8 925 2 view .LVU4070
	.loc 8 925 7 view .LVU4071
	.loc 8 925 55 view .LVU4072
	.loc 8 926 2 view .LVU4073
	.loc 8 926 9 is_stmt 0 view .LVU4074
	ldr	r0, .L585
	bl	z_impl_k_mutex_unlock
.LVL997:
	.loc 8 926 9 view .LVU4075
.LBE3606:
.LBE3605:
	.loc 1 1504 2 is_stmt 1 view .LVU4076
	.loc 1 1505 1 is_stmt 0 view .LVU4077
	mov	r0, r5
	pop	{r3, r4, r5, r6, r7, pc}
.LVL998:
.L586:
	.loc 1 1505 1 view .LVU4078
	.align	2
.L585:
	.word	.LANCHOR2
	.cfi_endproc
.LFE1000:
	.size	net_if_ipv6_addr_lookup_by_iface, .-net_if_ipv6_addr_lookup_by_iface
	.section	.text.net_if_ipv6_addr_update_lifetime,"ax",%progbits
	.align	1
	.global	net_if_ipv6_addr_update_lifetime
	.syntax unified
	.thumb
	.thumb_func
	.fpu fpv4-sp-d16
	.type	net_if_ipv6_addr_update_lifetime, %function
net_if_ipv6_addr_update_lifetime:
.LVL999:
.LFB1005:
	.loc 1 1603 1 is_stmt 1 view -0
	.cfi_startproc
	@ args = 0, pretend = 0, frame = 0
	@ frame_needed = 0, uses_anonymous_args = 0
	.loc 1 1603 1 is_stmt 0 view .LVU4080
