	.cpu cortex-m4
	.eabi_attribute 27, 1
	.eabi_attribute 28, 1
	.eabi_attribute 20, 1
	.eabi_attribute 21, 1
	.eabi_attribute 23, 3
	.eabi_attribute 24, 1
	.eabi_attribute 25, 1
	.eabi_attribute 26, 1
	.eabi_attribute 30, 1
	.eabi_attribute 34, 1
	.eabi_attribute 38, 1
	.eabi_attribute 18, 4
	.file	"tcp.c"
	.text
.Ltext0:
	.cfi_sections	.debug_frame
	.section	.text.tcp_get_seq,"ax",%progbits
	.align	1
	.arch armv7e-m
	.syntax unified
	.thumb
	.thumb_func
	.fpu fpv4-sp-d16
	.type	tcp_get_seq, %function
tcp_get_seq:
.LVL0:
.LFB945:
	.file 1 "/home/sebin/thesis/zephyrproject/zephyr/subsys/net/ip/tcp.c"
	.loc 1 54 1 view -0
	.cfi_startproc
	@ args = 0, pretend = 0, frame = 0
	@ frame_needed = 0, uses_anonymous_args = 0
	@ link register save eliminated.
	.loc 1 55 2 view .LVU1
	.file 2 "/home/sebin/thesis/zephyrproject/zephyr/include/net/buf.h"
	.loc 2 1477 2 view .LVU2
	.loc 1 56 1 is_stmt 0 view .LVU3
	ldr	r0, [r0, #20]
.LVL1:
	.loc 1 56 1 view .LVU4
	bx	lr
	.cfi_endproc
.LFE945:
	.size	tcp_get_seq, .-tcp_get_seq
	.section	.text.tcp_set_seq,"ax",%progbits
	.align	1
	.syntax unified
	.thumb
	.thumb_func
	.fpu fpv4-sp-d16
	.type	tcp_set_seq, %function
tcp_set_seq:
.LVL2:
.LFB946:
	.loc 1 59 1 is_stmt 1 view -0
	.cfi_startproc
	@ args = 0, pretend = 0, frame = 0
	@ frame_needed = 0, uses_anonymous_args = 0
	@ link register save eliminated.
	.loc 1 60 2 view .LVU6
	.loc 2 1477 2 view .LVU7
	.loc 1 60 38 is_stmt 0 view .LVU8
	str	r1, [r0, #20]
	.loc 1 61 1 view .LVU9
	bx	lr
	.cfi_endproc
.LFE946:
	.size	tcp_set_seq, .-tcp_set_seq
	.section	.text.tcp_endpoint_len,"ax",%progbits
	.align	1
	.syntax unified
	.thumb
	.thumb_func
	.fpu fpv4-sp-d16
	.type	tcp_endpoint_len, %function
tcp_endpoint_len:
.LVL3:
.LFB949:
	.loc 1 139 1 is_stmt 1 view -0
	.cfi_startproc
	@ args = 0, pretend = 0, frame = 0
	@ frame_needed = 0, uses_anonymous_args = 0
	@ link register save eliminated.
	.loc 1 140 2 view .LVU11
	.loc 1 140 48 is_stmt 0 view .LVU12
	cmp	r0, #1
	beq	.L6
	movs	r0, #24
.LVL4:
	.loc 1 142 1 view .LVU13
	bx	lr
.LVL5:
.L6:
	.loc 1 140 48 view .LVU14
	movs	r0, #8
.LVL6:
	.loc 1 140 48 view .LVU15
	bx	lr
	.cfi_endproc
.LFE949:
	.size	tcp_endpoint_len, .-tcp_endpoint_len
	.section	.rodata.tcp_state_to_str.str1.4,"aMS",%progbits,1
	.align	2
.LC0:
	.ascii	"TCP_CLOSED\000"
	.align	2
.LC1:
	.ascii	"TCP_LISTEN\000"
	.align	2
.LC2:
	.ascii	"TCP_SYN_SENT\000"
	.align	2
.LC3:
	.ascii	"TCP_SYN_RECEIVED\000"
	.align	2
.LC4:
	.ascii	"TCP_ESTABLISHED\000"
	.align	2
.LC5:
	.ascii	"TCP_FIN_WAIT_1\000"
	.align	2
.LC6:
	.ascii	"TCP_FIN_WAIT_2\000"
	.align	2
.LC7:
	.ascii	"TCP_CLOSE_WAIT\000"
	.align	2
.LC8:
	.ascii	"TCP_CLOSING\000"
	.align	2
.LC9:
	.ascii	"TCP_LAST_ACK\000"
	.align	2
.LC10:
	.ascii	"TCP_TIME_WAIT\000"
	.section	.text.tcp_state_to_str,"ax",%progbits
	.align	1
	.syntax unified
	.thumb
	.thumb_func
	.fpu fpv4-sp-d16
	.type	tcp_state_to_str, %function
tcp_state_to_str:
.LVL7:
.LFB961:
	.loc 1 551 1 is_stmt 1 view -0
	.cfi_startproc
	@ args = 0, pretend = 0, frame = 0
	@ frame_needed = 0, uses_anonymous_args = 0
	@ link register save eliminated.
	.loc 1 552 2 view .LVU17
	.loc 1 554 2 view .LVU18
	subs	r0, r0, #1
.LVL8:
	.loc 1 554 2 is_stmt 0 view .LVU19
	cmp	r0, #10
	bhi	.L8
	tbb	[pc, r0]
.L10:
	.byte	(.L22-.L10)/2
	.byte	(.L19-.L10)/2
	.byte	(.L18-.L10)/2
	.byte	(.L17-.L10)/2
	.byte	(.L16-.L10)/2
	.byte	(.L15-.L10)/2
	.byte	(.L14-.L10)/2
	.byte	(.L13-.L10)/2
	.byte	(.L12-.L10)/2
	.byte	(.L11-.L10)/2
	.byte	(.L9-.L10)/2
	.p2align 1
.L8:
	.loc 1 564 29 view .LVU20
	movs	r0, #0
	b	.L20
.L19:
	.loc 1 555 60 is_stmt 1 view .LVU21
	.loc 1 556 21 view .LVU22
	.loc 1 556 26 view .LVU23
.LVL9:
	.loc 1 556 46 view .LVU24
	.loc 1 556 28 is_stmt 0 view .LVU25
	ldr	r0, .L23
	.loc 1 556 46 view .LVU26
	b	.L20
.LVL10:
.L18:
	.loc 1 556 64 is_stmt 1 view .LVU27
	.loc 1 557 25 view .LVU28
	.loc 1 557 30 view .LVU29
	.loc 1 557 54 view .LVU30
	.loc 1 557 32 is_stmt 0 view .LVU31
	ldr	r0, .L23+4
	.loc 1 557 54 view .LVU32
	b	.L20
.LVL11:
.L17:
	.loc 1 557 72 is_stmt 1 view .LVU33
	.loc 1 558 24 view .LVU34
	.loc 1 558 29 view .LVU35
	.loc 1 558 52 view .LVU36
	.loc 1 558 31 is_stmt 0 view .LVU37
	ldr	r0, .L23+8
	.loc 1 558 52 view .LVU38
	b	.L20
.LVL12:
.L16:
	.loc 1 558 70 is_stmt 1 view .LVU39
	.loc 1 559 23 view .LVU40
	.loc 1 559 28 view .LVU41
	.loc 1 559 50 view .LVU42
	.loc 1 559 30 is_stmt 0 view .LVU43
	ldr	r0, .L23+12
	.loc 1 559 50 view .LVU44
	b	.L20
.LVL13:
.L15:
	.loc 1 559 68 is_stmt 1 view .LVU45
	.loc 1 560 23 view .LVU46
	.loc 1 560 28 view .LVU47
	.loc 1 560 50 view .LVU48
	.loc 1 560 30 is_stmt 0 view .LVU49
	ldr	r0, .L23+16
	.loc 1 560 50 view .LVU50
	b	.L20
.LVL14:
.L14:
	.loc 1 560 68 is_stmt 1 view .LVU51
	.loc 1 561 23 view .LVU52
	.loc 1 561 28 view .LVU53
	.loc 1 561 50 view .LVU54
	.loc 1 561 30 is_stmt 0 view .LVU55
	ldr	r0, .L23+20
	.loc 1 561 50 view .LVU56
	b	.L20
.LVL15:
.L13:
	.loc 1 561 68 is_stmt 1 view .LVU57
	.loc 1 562 20 view .LVU58
	.loc 1 562 25 view .LVU59
	.loc 1 562 44 view .LVU60
	.loc 1 562 27 is_stmt 0 view .LVU61
	ldr	r0, .L23+24
	.loc 1 562 44 view .LVU62
	b	.L20
.LVL16:
.L12:
	.loc 1 562 62 is_stmt 1 view .LVU63
	.loc 1 563 21 view .LVU64
	.loc 1 563 26 view .LVU65
	.loc 1 563 46 view .LVU66
	.loc 1 563 28 is_stmt 0 view .LVU67
	ldr	r0, .L23+28
	.loc 1 563 46 view .LVU68
	b	.L20
.LVL17:
.L11:
	.loc 1 563 64 is_stmt 1 view .LVU69
	.loc 1 564 22 view .LVU70
	.loc 1 564 27 view .LVU71
	.loc 1 564 48 view .LVU72
	.loc 1 564 29 is_stmt 0 view .LVU73
	ldr	r0, .L23+32
	.loc 1 564 48 view .LVU74
	b	.L20
.LVL18:
.L9:
	.loc 1 564 66 is_stmt 1 view .LVU75
	.loc 1 565 19 view .LVU76
	.loc 1 565 24 view .LVU77
	.loc 1 565 42 view .LVU78
	.loc 1 565 26 is_stmt 0 view .LVU79
	ldr	r0, .L23+36
	.loc 1 565 42 view .LVU80
	b	.L20
.LVL19:
.L22:
	.loc 1 555 26 view .LVU81
	ldr	r0, .L23+40
.LVL20:
.L20:
	.loc 1 565 60 is_stmt 1 discriminator 1 view .LVU82
	.loc 1 568 4 discriminator 1 view .LVU83
	.loc 1 568 5 discriminator 1 view .LVU84
	.loc 1 570 2 discriminator 1 view .LVU85
	.loc 1 570 20 is_stmt 0 discriminator 1 view .LVU86
	cbnz	r1, .L7
	.loc 1 570 20 discriminator 2 view .LVU87
	adds	r0, r0, #4
.LVL21:
.L7:
	.loc 1 571 1 view .LVU88
	bx	lr
.L24:
	.align	2
.L23:
	.word	.LC2
	.word	.LC3
	.word	.LC4
	.word	.LC5
	.word	.LC6
	.word	.LC7
	.word	.LC8
	.word	.LC9
	.word	.LC10
	.word	.LC0
	.word	.LC1
	.cfi_endproc
.LFE961:
	.size	tcp_state_to_str, .-tcp_state_to_str
	.section	.text.tcp_window_full,"ax",%progbits
	.align	1
	.syntax unified
	.thumb
	.thumb_func
	.fpu fpv4-sp-d16
	.type	tcp_window_full, %function
tcp_window_full:
.LVL22:
.LFB976:
	.loc 1 961 1 is_stmt 1 view -0
	.cfi_startproc
	@ args = 0, pretend = 0, frame = 0
	@ frame_needed = 0, uses_anonymous_args = 0
	@ link register save eliminated.
	.loc 1 962 1 view .LVU90
	.loc 1 962 26 is_stmt 0 view .LVU91
	ldr	r2, [r0, #416]
	.loc 1 962 46 view .LVU92
	ldrh	r0, [r0, #438]
.LVL23:
	.loc 1 964 2 is_stmt 1 view .LVU93
.LBB1749:
	.loc 1 964 7 view .LVU94
.LBE1749:
	.loc 1 964 145 view .LVU95
	.loc 1 966 2 view .LVU96
	.loc 1 967 1 is_stmt 0 view .LVU97
	cmp	r2, r0
	ite	lt
	movlt	r0, #0
.LVL24:
	.loc 1 967 1 view .LVU98
	movge	r0, #1
	bx	lr
	.cfi_endproc
.LFE976:
	.size	tcp_window_full, .-tcp_window_full
	.section	.text.tcp_validate_seq,"ax",%progbits
	.align	1
	.syntax unified
	.thumb
	.thumb_func
	.fpu fpv4-sp-d16
	.type	tcp_validate_seq, %function
tcp_validate_seq:
.LVL25:
.LFB997:
	.loc 1 1573 1 is_stmt 1 view -0
	.cfi_startproc
	@ args = 0, pretend = 0, frame = 0
	@ frame_needed = 0, uses_anonymous_args = 0
	@ link register save eliminated.
	.loc 1 1574 2 view .LVU100
.LBB1750:
	.loc 1 1574 59 view .LVU101
	.loc 1 1574 176 view .LVU102
	.loc 1 1574 179 is_stmt 0 view .LVU103
	ldr	r2, [r1, #4]	@ unaligned
.LBE1750:
.LBB1751:
	.loc 1 1574 227 is_stmt 1 view .LVU104
.LVL26:
	.loc 1 1574 344 view .LVU105
.LBE1751:
	.loc 1 1574 358 is_stmt 0 view .LVU106
	lsrs	r3, r2, #8
	.loc 1 1574 364 view .LVU107
	and	r3, r3, #65280
	.loc 1 1574 205 view .LVU108
	orr	r3, r3, r2, lsr #24
.LBB1752:
	.loc 1 1574 396 is_stmt 1 view .LVU109
.LVL27:
	.loc 1 1574 513 view .LVU110
.LBE1752:
	.loc 1 1574 537 is_stmt 0 view .LVU111
	lsls	r1, r2, #8
.LVL28:
	.loc 1 1574 537 view .LVU112
	and	r1, r1, #16711680
	.loc 1 1574 374 view .LVU113
	orrs	r3, r3, r1
.LBB1753:
	.loc 1 1574 565 is_stmt 1 view .LVU114
.LVL29:
	.loc 1 1574 682 view .LVU115
.LBE1753:
	.loc 1 1574 543 is_stmt 0 view .LVU116
	orr	r3, r3, r2, lsl #24
	.loc 1 1574 10 view .LVU117
	ldr	r2, [r0, #432]
.LVL30:
.LBB1754:
.LBI1754:
	.file 3 "/home/sebin/thesis/zephyrproject/zephyr/include/net/net_ip.h"
	.loc 3 1501 23 is_stmt 1 view .LVU118
.LBB1755:
	.loc 3 1503 2 view .LVU119
	.loc 3 1503 24 is_stmt 0 view .LVU120
	subs	r1, r3, r2
.LVL31:
	.loc 3 1503 24 view .LVU121
.LBE1755:
.LBE1754:
	.loc 1 1574 731 view .LVU122
	cmp	r1, #0
	blt	.L28
.LBB1756:
	.loc 1 1575 53 is_stmt 1 discriminator 1 view .LVU123
.LVL32:
	.loc 1 1575 170 discriminator 1 view .LVU124
.LBE1756:
.LBB1757:
	.loc 1 1575 221 discriminator 1 view .LVU125
	.loc 1 1575 338 discriminator 1 view .LVU126
.LBE1757:
.LBB1758:
	.loc 1 1575 390 discriminator 1 view .LVU127
	.loc 1 1575 507 discriminator 1 view .LVU128
.LBE1758:
.LBB1759:
	.loc 1 1575 559 discriminator 1 view .LVU129
	.loc 1 1575 676 discriminator 1 view .LVU130
.LBE1759:
	.loc 1 1575 724 is_stmt 0 discriminator 1 view .LVU131
	ldrh	r1, [r0, #436]
	.loc 1 1575 4 discriminator 1 view .LVU132
	add	r2, r2, r1
.LVL33:
.LBB1760:
.LBI1760:
	.loc 3 1501 23 is_stmt 1 discriminator 1 view .LVU133
.LBB1761:
	.loc 3 1503 2 discriminator 1 view .LVU134
	.loc 3 1503 24 is_stmt 0 discriminator 1 view .LVU135
	subs	r3, r3, r2
.LVL34:
	.loc 3 1503 24 discriminator 1 view .LVU136
.LBE1761:
.LBE1760:
	.loc 1 1574 731 discriminator 1 view .LVU137
	cmp	r3, #0
	blt	.L30
	.loc 1 1574 731 view .LVU138
	movs	r0, #0
.LVL35:
	.loc 1 1576 1 view .LVU139
	bx	lr
.LVL36:
.L30:
	.loc 1 1574 731 view .LVU140
	movs	r0, #1
.LVL37:
	.loc 1 1574 731 view .LVU141
	bx	lr
.LVL38:
.L28:
	.loc 1 1574 731 view .LVU142
	movs	r0, #0
.LVL39:
	.loc 1 1574 731 view .LVU143
	bx	lr
	.cfi_endproc
.LFE997:
	.size	tcp_validate_seq, .-tcp_validate_seq
	.section	.text.tcp_timewait_timeout,"ax",%progbits
	.align	1
	.syntax unified
	.thumb
	.thumb_func
	.fpu fpv4-sp-d16
	.type	tcp_timewait_timeout, %function
tcp_timewait_timeout:
.LVL40:
.LFB982:
	.loc 1 1165 1 is_stmt 1 view -0
	.cfi_startproc
	@ args = 0, pretend = 0, frame = 0
	@ frame_needed = 0, uses_anonymous_args = 0
	.loc 1 1165 1 is_stmt 0 view .LVU145
	push	{r3, lr}
	.cfi_def_cfa_offset 8
	.cfi_offset 3, -8
	.cfi_offset 14, -4
	.loc 1 1166 2 is_stmt 1 view .LVU146
.LVL41:
	.file 4 "/home/sebin/thesis/zephyrproject/zephyr/include/kernel.h"
	.loc 4 3750 2 view .LVU147
	.loc 1 1167 2 view .LVU148
	.loc 1 1169 2 view .LVU149
.LBB1762:
	.loc 1 1169 7 view .LVU150
.LBE1762:
	.loc 1 1169 16 view .LVU151
	.loc 1 1172 2 view .LVU152
	sub	r0, r0, #264
.LVL42:
	.loc 1 1172 2 is_stmt 0 view .LVU153
	ldr	r0, [r0, #4]
.LVL43:
	.loc 1 1172 2 view .LVU154
	bl	net_context_unref
.LVL44:
	.loc 1 1173 1 view .LVU155
	pop	{r3, pc}
	.cfi_endproc
.LFE982:
	.size	tcp_timewait_timeout, .-tcp_timewait_timeout
	.section	.text.tcp_send_queue_flush,"ax",%progbits
	.align	1
	.syntax unified
	.thumb
	.thumb_func
	.fpu fpv4-sp-d16
	.type	tcp_send_queue_flush, %function
tcp_send_queue_flush:
.LVL45:
.LFB955:
	.loc 1 344 1 is_stmt 1 view -0
	.cfi_startproc
	@ args = 0, pretend = 0, frame = 0
	@ frame_needed = 0, uses_anonymous_args = 0
	.loc 1 344 1 is_stmt 0 view .LVU157
	push	{r4, r5, r6, lr}
	.cfi_def_cfa_offset 16
	.cfi_offset 4, -16
	.cfi_offset 5, -12
	.cfi_offset 6, -8
	.cfi_offset 14, -4
	mov	r5, r0
	.loc 1 345 2 is_stmt 1 view .LVU158
	.loc 1 347 2 view .LVU159
	adds	r0, r0, #120
.LVL46:
	.loc 1 347 2 is_stmt 0 view .LVU160
	bl	k_work_cancel_delayable
.LVL47:
	.loc 1 349 2 is_stmt 1 view .LVU161
	.loc 1 349 8 is_stmt 0 view .LVU162
	b	.L34
.LVL48:
.L40:
.LBB1763:
.LBB1764:
.LBB1765:
.LBB1766:
.LBB1767:
	.file 5 "/home/sebin/thesis/zephyrproject/zephyr/include/sys/slist.h"
	.loc 5 372 211 is_stmt 1 view .LVU163
	.loc 5 372 211 is_stmt 0 view .LVU164
.LBE1767:
.LBE1766:
.LBE1765:
.LBE1764:
.LBE1763:
	.loc 5 233 2 is_stmt 1 view .LVU165
.LBB1798:
.LBB1790:
.LBB1786:
.LBB1779:
.LBB1776:
.LBB1768:
.LBI1768:
	.loc 5 219 20 view .LVU166
.LBB1769:
	.loc 5 221 2 view .LVU167
	.loc 5 221 13 is_stmt 0 view .LVU168
	str	r3, [r5, #28]
.LVL49:
.L36:
	.loc 5 221 13 view .LVU169
.LBE1769:
.LBE1768:
.LBE1776:
.LBE1779:
.LBE1786:
.LBE1790:
	.loc 1 349 150 is_stmt 1 view .LVU170
	.loc 1 349 18 is_stmt 0 view .LVU171
	subs	r4, r4, #68
.LVL50:
.L35:
	.loc 1 349 17 is_stmt 1 discriminator 4 view .LVU172
.LBB1791:
.LBI1791:
	.file 6 "/home/sebin/thesis/dmz/zephyr_xmc_template/build/zephyr/include/generated/syscalls/kernel.h"
	.loc 6 917 19 discriminator 4 view .LVU173
.LBB1792:
	.loc 6 925 2 discriminator 4 view .LVU174
	.loc 6 925 7 discriminator 4 view .LVU175
	.loc 6 925 55 discriminator 4 view .LVU176
	.loc 6 926 2 discriminator 4 view .LVU177
	.loc 6 926 9 is_stmt 0 discriminator 4 view .LVU178
	mov	r0, r6
	bl	z_impl_k_mutex_unlock
.LVL51:
	.loc 6 926 9 discriminator 4 view .LVU179
.LBE1792:
.LBE1791:
	.loc 1 349 46 is_stmt 1 discriminator 4 view .LVU180
	.loc 1 349 46 is_stmt 0 discriminator 4 view .LVU181
.LBE1798:
	.loc 1 349 8 discriminator 4 view .LVU182
	cbz	r4, .L39
	.loc 1 351 3 is_stmt 1 view .LVU183
	mov	r0, r4
	bl	net_pkt_unref
.LVL52:
.L34:
	.loc 1 349 8 view .LVU184
.LBB1799:
	.loc 1 349 19 view .LVU185
	add	r6, r5, #36
.LVL53:
.LBB1793:
.LBI1793:
	.loc 6 899 19 view .LVU186
.LBB1794:
	.loc 6 909 2 view .LVU187
	.loc 6 909 7 view .LVU188
	.loc 6 909 55 view .LVU189
	.loc 6 910 2 view .LVU190
	.loc 6 910 9 is_stmt 0 view .LVU191
	mov	r2, #-1
	mov	r3, #-1
	mov	r0, r6
	bl	z_impl_k_mutex_lock
.LVL54:
	.loc 6 910 9 view .LVU192
.LBE1794:
.LBE1793:
	.loc 1 349 95 is_stmt 1 view .LVU193
.LBB1795:
.LBI1764:
	.loc 5 385 29 view .LVU194
.LBB1787:
	.loc 5 385 64 view .LVU195
.LBB1780:
.LBI1780:
	.loc 5 261 1 view .LVU196
.LBE1780:
.LBE1787:
.LBE1795:
.LBE1799:
	.loc 5 261 41 view .LVU197
.LBB1800:
.LBB1796:
.LBB1788:
.LBB1783:
.LBB1781:
.LBI1781:
	.loc 5 231 28 view .LVU198
.LBB1782:
	.loc 5 233 2 view .LVU199
	.loc 5 233 13 is_stmt 0 view .LVU200
	ldr	r4, [r5, #24]
.LVL55:
	.loc 5 233 13 view .LVU201
.LBE1782:
.LBE1781:
.LBE1783:
	.loc 5 385 1 view .LVU202
	cmp	r4, #0
	beq	.L35
.LVL56:
.LBB1784:
.LBI1766:
	.loc 5 372 29 is_stmt 1 view .LVU203
.LBB1777:
	.loc 5 372 74 view .LVU204
	.loc 5 372 74 is_stmt 0 view .LVU205
.LBE1777:
.LBE1784:
.LBE1788:
.LBE1796:
.LBE1800:
	.loc 5 233 2 is_stmt 1 view .LVU206
.LBB1801:
.LBB1797:
.LBB1789:
.LBB1785:
.LBB1778:
	.loc 5 372 121 view .LVU207
.LBB1770:
.LBI1770:
	.loc 5 204 28 view .LVU208
.LBB1771:
	.loc 5 206 2 view .LVU209
	.loc 5 206 13 is_stmt 0 view .LVU210
	ldr	r3, [r4]
.LVL57:
	.loc 5 206 13 view .LVU211
.LBE1771:
.LBE1770:
.LBB1772:
.LBI1772:
	.loc 5 214 20 is_stmt 1 view .LVU212
.LBB1773:
	.loc 5 216 2 view .LVU213
	.loc 5 216 13 is_stmt 0 view .LVU214
	str	r3, [r5, #24]
.LVL58:
	.loc 5 216 13 view .LVU215
.LBE1773:
.LBE1772:
	.loc 5 372 170 is_stmt 1 view .LVU216
.LBB1774:
.LBI1774:
	.loc 5 243 28 view .LVU217
.LBB1775:
	.loc 5 245 2 view .LVU218
	.loc 5 245 13 is_stmt 0 view .LVU219
	ldr	r2, [r5, #28]
.LVL59:
	.loc 5 245 13 view .LVU220
.LBE1775:
.LBE1774:
	.loc 5 372 173 view .LVU221
	cmp	r4, r2
	bne	.L36
	b	.L40
.LVL60:
.L39:
	.loc 5 372 173 view .LVU222
.LBE1778:
.LBE1785:
.LBE1789:
.LBE1797:
.LBE1801:
	.loc 1 353 1 view .LVU223
	pop	{r4, r5, r6, pc}
	.loc 1 353 1 view .LVU224
	.cfi_endproc
.LFE955:
	.size	tcp_send_queue_flush, .-tcp_send_queue_flush
	.section	.text.tcp_conn_unref,"ax",%progbits
	.align	1
	.syntax unified
	.thumb
	.thumb_func
	.fpu fpv4-sp-d16
	.type	tcp_conn_unref, %function
tcp_conn_unref:
.LVL61:
.LFB956:
	.loc 1 363 1 is_stmt 1 view -0
	.cfi_startproc
	@ args = 0, pretend = 0, frame = 8
	@ frame_needed = 0, uses_anonymous_args = 0
	.loc 1 363 1 is_stmt 0 view .LVU226
	push	{r4, r5, r6, lr}
	.cfi_def_cfa_offset 16
	.cfi_offset 4, -16
	.cfi_offset 5, -12
	.cfi_offset 6, -8
	.cfi_offset 14, -4
	sub	sp, sp, #16
	.cfi_def_cfa_offset 32
	str	r0, [sp, #12]
	.loc 1 364 2 is_stmt 1 view .LVU227
.LVL62:
.LBB1802:
.LBI1802:
	.file 7 "/home/sebin/thesis/zephyrproject/zephyr/include/sys/atomic_builtin.h"
	.loc 7 138 28 view .LVU228
.LBB1803:
	.loc 7 140 2 view .LVU229
	.loc 7 140 9 is_stmt 0 view .LVU230
	dmb	ish
	ldr	r5, [r0, #420]
	dmb	ish
.LVL63:
	.loc 7 140 9 view .LVU231
.LBE1803:
.LBE1802:
	.loc 1 365 2 is_stmt 1 view .LVU232
	.loc 1 373 2 view .LVU233
	.loc 1 373 10 is_stmt 0 view .LVU234
	ldr	r0, [sp, #12]
.LVL64:
	.loc 1 373 6 view .LVU235
	ldrb	r3, [r0, #441]	@ zero_extendqisi2
	.loc 1 373 5 view .LVU236
	tst	r3, #2
	bne	.L57
	.loc 1 380 2 is_stmt 1 view .LVU237
	.loc 1 380 14 is_stmt 0 view .LVU238
	add	r0, r0, #420
.LVL65:
.LBB1804:
.LBI1804:
	.loc 7 123 28 is_stmt 1 view .LVU239
.LBE1804:
	.loc 7 125 2 view .LVU240
.LBB1807:
.LBB1805:
.LBI1805:
	.loc 7 93 28 view .LVU241
.LBB1806:
	.loc 7 95 2 view .LVU242
	.loc 7 95 9 is_stmt 0 view .LVU243
	dmb	ish
.LVL66:
.L55:
	.loc 7 95 9 view .LVU244
	ldrex	r5, [r0]
	subs	r3, r5, #1
	strex	r2, r3, [r0]
	cmp	r2, #0
	bne	.L55
	dmb	ish
.LVL67:
	.loc 7 95 9 view .LVU245
.LBE1806:
.LBE1805:
.LBE1807:
	.loc 1 381 2 is_stmt 1 view .LVU246
	.loc 1 381 5 is_stmt 0 view .LVU247
	subs	r5, r5, #1
	beq	.L58
.LVL68:
.L43:
	.loc 1 435 1 view .LVU248
	mov	r0, r5
	add	sp, sp, #16
	.cfi_remember_state
	.cfi_def_cfa_offset 16
	@ sp needed
	pop	{r4, r5, r6, pc}
.LVL69:
.L57:
	.cfi_restore_state
	.loc 1 374 3 is_stmt 1 view .LVU249
.LBB1808:
	.loc 1 374 8 view .LVU250
.LBE1808:
	.loc 1 374 149 view .LVU251
	.loc 1 375 3 view .LVU252
	bl	tcp_send_queue_flush
.LVL70:
	.loc 1 376 3 view .LVU253
	b	.L43
.LVL71:
.L58:
	.loc 1 387 2 view .LVU254
.LBB1809:
.LBI1809:
	.loc 6 899 19 view .LVU255
.LBB1810:
	.loc 6 909 2 view .LVU256
	.loc 6 909 7 view .LVU257
	.loc 6 909 55 view .LVU258
	.loc 6 910 2 view .LVU259
	.loc 6 910 9 is_stmt 0 view .LVU260
	mov	r2, #-1
	mov	r3, #-1
.LVL72:
	.loc 6 910 9 view .LVU261
	ldr	r0, .L63
	bl	z_impl_k_mutex_lock
.LVL73:
	.loc 6 910 9 view .LVU262
.LBE1810:
.LBE1809:
	.loc 1 390 2 is_stmt 1 view .LVU263
.L45:
	.loc 1 390 8 view .LVU264
.LBB1811:
	.loc 1 390 19 view .LVU265
	.loc 1 390 24 view .LVU266
	.loc 1 390 32 view .LVU267
	.loc 1 390 18 view .LVU268
	.loc 1 390 49 is_stmt 0 view .LVU269
	ldr	r0, [sp, #12]
	.loc 1 390 30 view .LVU270
	adds	r0, r0, #80
.LVL74:
.LBB1812:
.LBI1812:
	.loc 6 646 22 is_stmt 1 view .LVU271
.LBB1813:
	.loc 6 656 2 view .LVU272
	.loc 6 656 7 view .LVU273
	.loc 6 656 55 view .LVU274
	.loc 6 657 2 view .LVU275
	.loc 6 657 9 is_stmt 0 view .LVU276
	movs	r2, #0
	movs	r3, #0
	bl	z_impl_k_queue_get
.LVL75:
	.loc 6 657 9 view .LVU277
.LBE1813:
.LBE1812:
	.loc 1 390 93 is_stmt 1 view .LVU278
	.loc 1 390 98 view .LVU279
	.loc 1 390 106 view .LVU280
	.loc 1 390 18 view .LVU281
	.loc 1 390 18 is_stmt 0 view .LVU282
.LBE1811:
	.loc 1 390 8 view .LVU283
	mov	r4, r0
	cbz	r0, .L59
	.loc 1 391 3 is_stmt 1 view .LVU284
	.loc 1 392 31 is_stmt 0 view .LVU285
	ldr	r3, [sp, #12]
	ldr	r2, [r3, #4]
	.loc 1 392 40 view .LVU286
	ldr	r0, [r2, #64]
.LVL76:
	.loc 1 391 7 view .LVU287
	ldr	r3, [r3, #20]
	str	r3, [sp]
	movs	r3, #0
	mov	r2, r3
	mov	r1, r4
	bl	net_context_packet_received
.LVL77:
	.loc 1 391 6 view .LVU288
	cmp	r0, #2
	bne	.L45
	.loc 1 396 4 is_stmt 1 view .LVU289
	mov	r0, r4
	bl	net_pkt_unref
.LVL78:
	b	.L45
.LVL79:
.L59:
	.loc 1 400 2 view .LVU290
	.loc 1 400 10 is_stmt 0 view .LVU291
	ldr	r3, [sp, #12]
	ldr	r3, [r3, #4]
	.loc 1 400 19 view .LVU292
	ldr	r0, [r3, #64]
.LVL80:
	.loc 1 400 5 view .LVU293
	cbz	r0, .L47
	.loc 1 401 3 is_stmt 1 view .LVU294
	bl	net_conn_unregister
.LVL81:
	.loc 1 402 3 view .LVU295
	.loc 1 402 7 is_stmt 0 view .LVU296
	ldr	r3, [sp, #12]
	ldr	r3, [r3, #4]
	.loc 1 402 31 view .LVU297
	movs	r2, #0
	str	r2, [r3, #64]
.L47:
	.loc 1 405 2 is_stmt 1 view .LVU298
	.loc 1 405 10 is_stmt 0 view .LVU299
	ldr	r3, [sp, #12]
	ldr	r0, [r3, #4]
	.loc 1 405 19 view .LVU300
	ldr	r6, [r0, #68]
	.loc 1 405 5 view .LVU301
	cbz	r6, .L48
	.loc 1 406 3 is_stmt 1 view .LVU302
	ldr	r3, [r3, #20]
	str	r3, [sp, #4]
	mvn	r3, #103
	str	r3, [sp]
	movs	r3, #0
	mov	r2, r3
	mov	r1, r3
	blx	r6
.LVL82:
.L48:
	.loc 1 410 2 view .LVU303
	.loc 1 410 6 is_stmt 0 view .LVU304
	ldr	r3, [sp, #12]
	ldr	r2, [r3, #4]
	.loc 1 410 21 view .LVU305
	movs	r1, #0
	str	r1, [r2, #80]
	.loc 1 412 2 is_stmt 1 view .LVU306
	ldr	r0, [r3, #4]
	bl	net_context_unref
.LVL83:
	.loc 1 414 2 view .LVU307
	ldr	r0, [sp, #12]
	bl	tcp_send_queue_flush
.LVL84:
	.loc 1 416 2 view .LVU308
	ldr	r0, [sp, #12]
	adds	r0, r0, #216
	bl	k_work_cancel_delayable
.LVL85:
	.loc 1 417 2 view .LVU309
	ldr	r3, [sp, #12]
	ldr	r0, [r3, #8]
	bl	net_pkt_unref
.LVL86:
	.loc 1 419 2 view .LVU310
	.loc 1 420 3 view .LVU311
	ldr	r3, [sp, #12]
	ldr	r0, [r3, #12]
	bl	net_pkt_unref
.LVL87:
	.loc 1 423 2 view .LVU312
	ldr	r0, [sp, #12]
	add	r0, r0, #264
	bl	k_work_cancel_delayable
.LVL88:
	.loc 1 424 2 view .LVU313
	ldr	r0, [sp, #12]
	add	r0, r0, #312
	bl	k_work_cancel_delayable
.LVL89:
	.loc 1 426 2 view .LVU314
	.loc 1 426 45 is_stmt 0 view .LVU315
	ldr	r1, [sp, #12]
	.loc 1 426 2 view .LVU316
	mov	r2, r1
.LVL90:
.LBB1814:
.LBI1814:
	.loc 5 417 1 is_stmt 1 view .LVU317
.LBB1815:
	.loc 5 417 67 view .LVU318
	.loc 5 417 3 view .LVU319
	.loc 5 417 22 view .LVU320
.LBB1816:
.LBI1816:
	.loc 5 231 28 view .LVU321
.LBB1817:
	.loc 5 233 2 view .LVU322
	.loc 5 233 13 is_stmt 0 view .LVU323
	ldr	r3, .L63+4
	ldr	r3, [r3]
.LVL91:
.L49:
	.loc 5 233 13 view .LVU324
.LBE1817:
.LBE1816:
	.loc 5 417 61 is_stmt 1 view .LVU325
	.loc 5 417 22 is_stmt 0 view .LVU326
	cbz	r3, .L53
	.loc 5 417 39 is_stmt 1 view .LVU327
	.loc 5 417 42 is_stmt 0 view .LVU328
	cmp	r3, r2
	beq	.L60
	.loc 5 417 5 is_stmt 1 view .LVU329
.LVL92:
	.loc 5 417 3 view .LVU330
.LBB1818:
.LBI1818:
	.loc 5 285 29 view .LVU331
.LBE1818:
.LBE1815:
.LBE1814:
	.loc 5 285 70 view .LVU332
.LBB1853:
.LBB1849:
.LBB1823:
.LBB1819:
.LBI1819:
	.loc 5 274 29 view .LVU333
.LBE1819:
.LBE1823:
.LBE1849:
.LBE1853:
	.loc 5 274 79 view .LVU334
.LBB1854:
.LBB1850:
.LBB1824:
.LBB1822:
.LBB1820:
.LBI1820:
	.loc 5 204 28 view .LVU335
.LBB1821:
	.loc 5 206 2 view .LVU336
	.loc 5 206 2 is_stmt 0 view .LVU337
.LBE1821:
.LBE1820:
.LBE1822:
.LBE1824:
	.loc 5 417 10 view .LVU338
	mov	r4, r3
	.loc 5 417 10 view .LVU339
	ldr	r3, [r3]
.LVL93:
	.loc 5 417 10 view .LVU340
	b	.L49
.L60:
	.loc 5 417 59 is_stmt 1 view .LVU341
.LVL94:
.LBB1825:
.LBI1825:
	.loc 5 401 20 view .LVU342
.LBB1826:
	.loc 5 401 101 view .LVU343
	.loc 5 401 104 is_stmt 0 view .LVU344
	cbz	r4, .L61
	.loc 5 401 157 is_stmt 1 view .LVU345
.LVL95:
.LBB1827:
.LBI1827:
	.loc 5 204 28 view .LVU346
.LBB1828:
	.loc 5 206 2 view .LVU347
	.loc 5 206 13 is_stmt 0 view .LVU348
	ldr	r3, [r1]
.LVL96:
	.loc 5 206 13 view .LVU349
.LBE1828:
.LBE1827:
.LBB1829:
.LBI1829:
	.loc 5 209 20 is_stmt 1 view .LVU350
.LBB1830:
	.loc 5 211 2 view .LVU351
	.loc 5 211 15 is_stmt 0 view .LVU352
	str	r3, [r4]
.LVL97:
	.loc 5 211 15 view .LVU353
.LBE1830:
.LBE1829:
	.loc 5 401 211 is_stmt 1 view .LVU354
.LBB1831:
.LBI1831:
	.loc 5 243 28 view .LVU355
.LBB1832:
	.loc 5 245 2 view .LVU356
	.loc 5 245 13 is_stmt 0 view .LVU357
	ldr	r3, .L63+4
	ldr	r3, [r3, #4]
.LVL98:
	.loc 5 245 13 view .LVU358
.LBE1832:
.LBE1831:
	.loc 5 401 214 view .LVU359
	cmp	r3, r1
	beq	.L62
.L52:
	.loc 5 401 291 is_stmt 1 view .LVU360
.LVL99:
.LBB1833:
.LBI1833:
	.loc 5 209 20 view .LVU361
.LBB1834:
	.loc 5 211 2 view .LVU362
	.loc 5 211 15 is_stmt 0 view .LVU363
	movs	r3, #0
	str	r3, [r1]
.LVL100:
	.loc 5 211 15 view .LVU364
.LBE1834:
.LBE1833:
.LBE1826:
.LBE1825:
	.loc 5 417 95 is_stmt 1 view .LVU365
.L53:
	.loc 5 417 95 is_stmt 0 view .LVU366
.LBE1850:
.LBE1854:
	.loc 1 428 1 is_stmt 1 view .LVU367
.LBB1855:
.LBI1855:
	.file 8 "/home/sebin/LIOT/gcc-arm-none-eabi-9-2019-q4-major/arm-none-eabi/include/ssp/string.h"
	.loc 8 86 189 view .LVU368
.LBB1856:
	.loc 8 86 238 view .LVU369
	.loc 8 86 245 is_stmt 0 view .LVU370
	mov	r2, #448
	movs	r1, #0
	ldr	r0, [sp, #12]
	bl	memset
.LVL101:
	.loc 8 86 245 view .LVU371
.LBE1856:
.LBE1855:
	.loc 1 430 2 is_stmt 1 view .LVU372
	add	r1, sp, #12
	ldr	r0, .L63+8
	bl	k_mem_slab_free
.LVL102:
	.loc 1 432 2 view .LVU373
.LBB1857:
.LBI1857:
	.loc 6 917 19 view .LVU374
.LBB1858:
	.loc 6 925 2 view .LVU375
	.loc 6 925 7 view .LVU376
	.loc 6 925 55 view .LVU377
	.loc 6 926 2 view .LVU378
	.loc 6 926 9 is_stmt 0 view .LVU379
	ldr	r0, .L63
	bl	z_impl_k_mutex_unlock
.LVL103:
	b	.L43
.LVL104:
.L61:
	.loc 6 926 9 view .LVU380
.LBE1858:
.LBE1857:
.LBB1859:
.LBB1851:
.LBB1847:
.LBB1845:
	.loc 5 401 5 is_stmt 1 view .LVU381
.LBB1835:
.LBI1835:
	.loc 5 204 28 view .LVU382
.LBB1836:
	.loc 5 206 2 view .LVU383
	.loc 5 206 13 is_stmt 0 view .LVU384
	ldr	r2, [r1]
.LVL105:
	.loc 5 206 13 view .LVU385
.LBE1836:
.LBE1835:
.LBB1837:
.LBI1837:
	.loc 5 214 20 is_stmt 1 view .LVU386
.LBB1838:
	.loc 5 216 2 view .LVU387
	.loc 5 216 13 is_stmt 0 view .LVU388
	ldr	r3, .L63+4
.LVL106:
	.loc 5 216 13 view .LVU389
	str	r2, [r3]
.LVL107:
	.loc 5 216 13 view .LVU390
.LBE1838:
.LBE1837:
	.loc 5 401 54 is_stmt 1 view .LVU391
.LBB1839:
.LBI1839:
	.loc 5 243 28 view .LVU392
.LBB1840:
	.loc 5 245 2 view .LVU393
	.loc 5 245 13 is_stmt 0 view .LVU394
	ldr	r3, [r3, #4]
.LVL108:
	.loc 5 245 13 view .LVU395
.LBE1840:
.LBE1839:
	.loc 5 401 57 view .LVU396
	cmp	r3, r1
	bne	.L52
	.loc 5 401 95 is_stmt 1 view .LVU397
.LVL109:
	.loc 5 401 95 is_stmt 0 view .LVU398
.LBE1845:
.LBE1847:
.LBE1851:
.LBE1859:
	.loc 5 233 2 is_stmt 1 view .LVU399
.LBB1860:
.LBB1852:
.LBB1848:
.LBB1846:
.LBB1841:
.LBI1841:
	.loc 5 219 20 view .LVU400
.LBB1842:
	.loc 5 221 2 view .LVU401
	.loc 5 221 13 is_stmt 0 view .LVU402
	ldr	r3, .L63+4
	str	r2, [r3, #4]
	.loc 5 222 1 view .LVU403
	b	.L52
.LVL110:
.L62:
	.loc 5 222 1 view .LVU404
.LBE1842:
.LBE1841:
	.loc 5 401 252 is_stmt 1 view .LVU405
.LBB1843:
.LBI1843:
	.loc 5 219 20 view .LVU406
.LBB1844:
	.loc 5 221 2 view .LVU407
	.loc 5 221 13 is_stmt 0 view .LVU408
	ldr	r3, .L63+4
	str	r4, [r3, #4]
	.loc 5 222 1 view .LVU409
	b	.L52
.L64:
	.align	2
.L63:
	.word	.LANCHOR0
	.word	.LANCHOR1
	.word	.LANCHOR2
.LBE1844:
.LBE1843:
.LBE1846:
.LBE1848:
.LBE1852:
.LBE1860:
	.cfi_endproc
.LFE956:
	.size	tcp_conn_unref, .-tcp_conn_unref
	.section	.text.tcp_establish_timeout,"ax",%progbits
	.align	1
	.syntax unified
	.thumb
	.thumb_func
	.fpu fpv4-sp-d16
	.type	tcp_establish_timeout, %function
tcp_establish_timeout:
.LVL111:
.LFB983:
	.loc 1 1176 1 is_stmt 1 view -0
	.cfi_startproc
	@ args = 0, pretend = 0, frame = 0
	@ frame_needed = 0, uses_anonymous_args = 0
	.loc 1 1176 1 is_stmt 0 view .LVU411
	push	{r3, lr}
	.cfi_def_cfa_offset 8
	.cfi_offset 3, -8
	.cfi_offset 14, -4
	.loc 1 1177 2 is_stmt 1 view .LVU412
.LBB1861:
	.loc 1 1177 7 view .LVU413
.LBE1861:
	.loc 1 1177 141 view .LVU414
	.loc 1 1178 2 view .LVU415
.LBB1862:
	.loc 1 1178 7 view .LVU416
.LBE1862:
	.loc 1 1178 16 view .LVU417
	.loc 1 1180 2 view .LVU418
	.loc 1 1180 8 is_stmt 0 view .LVU419
	bl	tcp_conn_unref
.LVL112:
	.loc 1 1181 1 view .LVU420
	pop	{r3, pc}
	.cfi_endproc
.LFE983:
	.size	tcp_establish_timeout, .-tcp_establish_timeout
	.section	.text.tcp_fin_timeout,"ax",%progbits
	.align	1
	.syntax unified
	.thumb
	.thumb_func
	.fpu fpv4-sp-d16
	.type	tcp_fin_timeout, %function
tcp_fin_timeout:
.LVL113:
.LFB984:
	.loc 1 1184 1 is_stmt 1 view -0
	.cfi_startproc
	@ args = 0, pretend = 0, frame = 0
	@ frame_needed = 0, uses_anonymous_args = 0
	.loc 1 1184 1 is_stmt 0 view .LVU422
	push	{r3, lr}
	.cfi_def_cfa_offset 8
	.cfi_offset 3, -8
	.cfi_offset 14, -4
	.loc 1 1185 2 is_stmt 1 view .LVU423
.LVL114:
	.loc 4 3750 2 view .LVU424
	.loc 1 1186 2 view .LVU425
	.loc 1 1188 2 view .LVU426
	.loc 1 1188 10 is_stmt 0 view .LVU427
	ldrb	r3, [r0, #112]	@ zero_extendqisi2
	.loc 1 1188 5 view .LVU428
	cmp	r3, #3
	beq	.L71
	.loc 1 1193 2 is_stmt 1 view .LVU429
.LBB1863:
	.loc 1 1193 7 view .LVU430
.LBE1863:
	.loc 1 1193 142 view .LVU431
	.loc 1 1194 2 view .LVU432
.LBB1864:
	.loc 1 1194 7 view .LVU433
.LBE1864:
	.loc 1 1194 16 view .LVU434
	.loc 1 1197 2 view .LVU435
	sub	r0, r0, #312
.LVL115:
	.loc 1 1197 2 is_stmt 0 view .LVU436
	ldr	r0, [r0, #4]
.LVL116:
	.loc 1 1197 2 view .LVU437
	bl	net_context_unref
.LVL117:
.L67:
	.loc 1 1198 1 view .LVU438
	pop	{r3, pc}
.LVL118:
.L71:
	.loc 1 1198 1 view .LVU439
	sub	r2, r0, #312
	.loc 1 1189 3 is_stmt 1 view .LVU440
	mov	r0, r2
.LVL119:
	.loc 1 1189 3 is_stmt 0 view .LVU441
	bl	tcp_establish_timeout
.LVL120:
	.loc 1 1190 3 is_stmt 1 view .LVU442
	b	.L67
	.cfi_endproc
.LFE984:
	.size	tcp_fin_timeout, .-tcp_fin_timeout
	.section	.rodata.tcp_unsent_len.str1.4,"aMS",%progbits,1
	.align	2
.LC11:
	.ascii	"total=%zu, unacked_len=%d\000"
	.section	.text.tcp_unsent_len,"ax",%progbits
	.align	1
	.syntax unified
	.thumb
	.thumb_func
	.fpu fpv4-sp-d16
	.type	tcp_unsent_len, %function
tcp_unsent_len:
.LVL121:
.LFB977:
	.loc 1 970 1 view -0
	.cfi_startproc
	@ args = 0, pretend = 0, frame = 8
	@ frame_needed = 1, uses_anonymous_args = 0
	.loc 1 971 2 view .LVU444
	.loc 1 973 2 view .LVU445
	.loc 1 973 10 is_stmt 0 view .LVU446
	ldr	r2, [r0, #416]
	.loc 1 973 30 view .LVU447
	ldr	r3, [r0, #408]
	.loc 1 973 5 view .LVU448
	cmp	r2, r3
	bhi	.L87
	.loc 1 980 2 is_stmt 1 view .LVU449
	.loc 1 980 37 is_stmt 0 view .LVU450
	subs	r0, r3, r2
.LVL122:
.L80:
	.loc 1 982 2 is_stmt 1 view .LVU451
.LBB1865:
	.loc 1 982 7 view .LVU452
.LBE1865:
	.loc 1 982 127 view .LVU453
	.loc 1 984 2 view .LVU454
	.loc 1 985 1 is_stmt 0 view .LVU455
	bx	lr
.LVL123:
.L87:
	.loc 1 970 1 view .LVU456
	push	{r4, r5, r7, lr}
	.cfi_def_cfa_offset 16
	.cfi_offset 4, -16
	.cfi_offset 5, -12
	.cfi_offset 7, -8
	.cfi_offset 14, -4
	sub	sp, sp, #8
	.cfi_def_cfa_offset 24
	add	r7, sp, #0
	.cfi_def_cfa_register 7
	.loc 1 974 3 is_stmt 1 view .LVU457
.LBB1866:
	.loc 1 974 8 view .LVU458
	.loc 1 974 57 view .LVU459
	.loc 1 974 14 view .LVU460
	.loc 1 974 2 view .LVU461
.LBE1866:
	.file 9 "/home/sebin/thesis/zephyrproject/zephyr/include/syscall.h"
	.loc 9 120 2 view .LVU462
.LVL124:
.LBB1886:
	.loc 1 974 41 view .LVU463
	.loc 1 974 107 view .LVU464
	.loc 1 974 206 view .LVU465
.LBB1867:
	.loc 1 974 215 view .LVU466
	.loc 1 974 226 view .LVU467
	.loc 1 974 314 view .LVU468
	.loc 1 974 319 view .LVU469
	.loc 1 974 321 view .LVU470
.LBE1867:
.LBE1886:
	.loc 1 974 3 view .LVU471
	.loc 1 974 3 view .LVU472
.LBB1887:
.LBB1882:
	.loc 1 974 121 view .LVU473
.LBB1868:
	.loc 1 974 126 view .LVU474
	.loc 1 974 137 view .LVU475
.LBE1868:
.LBE1882:
.LBE1887:
	.loc 1 974 3 view .LVU476
	.loc 1 974 217 view .LVU477
	.loc 1 974 2 view .LVU478
	.loc 1 974 31 view .LVU479
	.loc 1 974 4 view .LVU480
	.loc 1 974 24 view .LVU481
	.loc 1 974 48 view .LVU482
	.loc 1 974 23 view .LVU483
	.loc 1 974 41 view .LVU484
	.loc 1 974 61 view .LVU485
	.loc 1 974 108 view .LVU486
	.loc 1 974 140 view .LVU487
	.loc 1 974 13 view .LVU488
	.loc 1 974 55 view .LVU489
	.loc 1 974 97 view .LVU490
	.loc 1 974 142 view .LVU491
	.loc 1 974 147 view .LVU492
	.loc 1 974 396 view .LVU493
	.loc 1 974 402 view .LVU494
	.loc 1 974 1503 view .LVU495
	.loc 1 974 1527 view .LVU496
	.loc 1 974 1579 view .LVU497
	.loc 1 974 1688 view .LVU498
	.loc 1 974 1703 view .LVU499
	.loc 1 974 1985 view .LVU500
	.loc 1 974 2033 view .LVU501
	.loc 1 974 3293 view .LVU502
	.loc 1 974 3300 view .LVU503
	.loc 1 974 3323 view .LVU504
	.loc 1 974 3357 view .LVU505
	.loc 1 974 3363 view .LVU506
	.loc 1 974 3368 view .LVU507
	.loc 1 974 3611 view .LVU508
	.loc 1 974 3617 view .LVU509
	.loc 1 974 0 view .LVU510
	.loc 1 974 0 view .LVU511
	.loc 1 974 0 view .LVU512
	.loc 1 974 0 view .LVU513
	.loc 1 974 0 view .LVU514
	.loc 1 974 0 view .LVU515
	.loc 1 974 0 view .LVU516
	.loc 1 974 0 view .LVU517
	.loc 1 974 0 view .LVU518
	.loc 1 974 0 view .LVU519
	.loc 1 974 0 view .LVU520
	.loc 1 974 0 view .LVU521
	.loc 1 974 0 view .LVU522
	.loc 1 974 0 view .LVU523
	.loc 1 974 0 view .LVU524
	.loc 1 974 0 view .LVU525
	.loc 1 974 0 view .LVU526
	.loc 1 974 0 view .LVU527
	.loc 1 974 0 view .LVU528
	.loc 1 974 0 view .LVU529
	.loc 1 974 0 view .LVU530
	.loc 1 974 0 view .LVU531
	.loc 1 974 0 view .LVU532
	.loc 1 974 0 view .LVU533
	.loc 1 974 0 view .LVU534
	.loc 1 974 0 view .LVU535
	.loc 1 974 0 view .LVU536
	.loc 1 974 16 view .LVU537
.LBB1888:
.LBB1883:
.LBB1879:
	.loc 1 974 11 view .LVU538
	.loc 1 974 16 view .LVU539
	.loc 1 974 39 view .LVU540
	.loc 1 974 75 is_stmt 0 view .LVU541
	mov	r5, sp
.LVL125:
	.loc 1 974 159 is_stmt 1 view .LVU542
	.loc 1 974 171 is_stmt 0 view .LVU543
	sub	sp, sp, #32
	mov	r4, sp
.LVL126:
	.loc 1 974 285 is_stmt 1 view .LVU544
	.loc 1 974 488 view .LVU545
	.loc 1 974 5 view .LVU546
	.loc 1 974 7 view .LVU547
	.loc 1 974 20 view .LVU548
.LBB1869:
	.loc 1 974 3 view .LVU549
	.loc 1 974 217 view .LVU550
	.loc 1 974 2 view .LVU551
	.loc 1 974 31 view .LVU552
	.loc 1 974 60 view .LVU553
	.loc 1 974 80 view .LVU554
	.loc 1 974 104 view .LVU555
	.loc 1 974 12 is_stmt 0 view .LVU556
	adds	r3, r4, #12
.LVL127:
	.loc 1 974 12 view .LVU557
	beq	.L81
	movs	r2, #16
.LVL128:
.L74:
	.loc 1 974 13 is_stmt 1 discriminator 94 view .LVU558
	.loc 1 974 55 discriminator 94 view .LVU559
	.loc 1 974 97 discriminator 94 view .LVU560
	.loc 1 974 142 discriminator 94 view .LVU561
.LBB1870:
	.loc 1 974 147 discriminator 94 view .LVU562
	.loc 1 974 396 discriminator 94 view .LVU563
	.loc 1 974 402 discriminator 94 view .LVU564
	.loc 1 974 1503 discriminator 94 view .LVU565
.LBE1870:
.LBE1869:
.LBE1879:
.LBE1883:
.LBE1888:
	.loc 1 974 1527 discriminator 94 view .LVU566
	.loc 1 974 1579 discriminator 94 view .LVU567
	.loc 1 974 1688 discriminator 94 view .LVU568
.LBB1889:
.LBB1884:
.LBB1880:
.LBB1877:
.LBB1871:
	.loc 1 974 1703 discriminator 94 view .LVU569
	.loc 1 974 1985 discriminator 94 view .LVU570
	.loc 1 974 2033 discriminator 94 view .LVU571
	.loc 1 974 2036 is_stmt 0 discriminator 94 view .LVU572
	cbz	r3, .L75
	.loc 1 974 2043 discriminator 98 view .LVU573
	cmp	r2, #4
	ble	.L75
	.loc 1 974 2071 is_stmt 1 discriminator 103 view .LVU574
	.loc 1 974 2076 discriminator 103 view .LVU575
	.loc 1 974 2629 discriminator 103 view .LVU576
	.loc 1 974 3252 is_stmt 0 discriminator 103 view .LVU577
	ldr	r1, .L88
	str	r1, [r4, #16]
.LVL129:
.L75:
	.loc 1 974 3293 is_stmt 1 discriminator 104 view .LVU578
	.loc 1 974 3300 discriminator 104 view .LVU579
	.loc 1 974 3323 discriminator 104 view .LVU580
	.loc 1 974 3323 is_stmt 0 discriminator 104 view .LVU581
.LBE1871:
	.loc 1 974 3357 is_stmt 1 discriminator 104 view .LVU582
	.loc 1 974 3363 discriminator 104 view .LVU583
.LBB1872:
	.loc 1 974 3368 discriminator 104 view .LVU584
	.loc 1 974 3611 discriminator 104 view .LVU585
	.loc 1 974 3617 discriminator 104 view .LVU586
	.loc 1 974 0 discriminator 104 view .LVU587
.LBB1873:
	.loc 1 974 0 discriminator 104 view .LVU588
	ldr	r1, [r0, #408]
.LVL130:
	.loc 1 974 0 discriminator 104 view .LVU589
	.loc 1 974 0 discriminator 104 view .LVU590
	.loc 1 974 0 is_stmt 0 discriminator 104 view .LVU591
.LBE1873:
	.loc 1 974 0 is_stmt 1 discriminator 104 view .LVU592
	.loc 1 974 0 discriminator 104 view .LVU593
	cbz	r3, .L76
	.loc 1 974 0 is_stmt 0 discriminator 112 view .LVU594
	cmp	r2, #8
	ble	.L76
	.loc 1 974 0 is_stmt 1 discriminator 117 view .LVU595
	.loc 1 974 0 discriminator 117 view .LVU596
	.loc 1 974 0 discriminator 117 view .LVU597
	str	r1, [r4, #20]
.L76:
	.loc 1 974 0 discriminator 118 view .LVU598
	.loc 1 974 0 discriminator 118 view .LVU599
.LVL131:
	.loc 1 974 0 discriminator 118 view .LVU600
	.loc 1 974 0 is_stmt 0 discriminator 118 view .LVU601
.LBE1872:
	.loc 1 974 0 is_stmt 1 discriminator 118 view .LVU602
	.loc 1 974 0 discriminator 118 view .LVU603
.LBB1874:
	.loc 1 974 0 discriminator 118 view .LVU604
	.loc 1 974 0 discriminator 118 view .LVU605
	.loc 1 974 0 discriminator 118 view .LVU606
	.loc 1 974 0 discriminator 118 view .LVU607
.LBB1875:
	.loc 1 974 0 discriminator 118 view .LVU608
	ldr	r1, [r0, #416]
.LVL132:
	.loc 1 974 0 discriminator 118 view .LVU609
	.loc 1 974 0 discriminator 118 view .LVU610
	.loc 1 974 0 is_stmt 0 discriminator 118 view .LVU611
.LBE1875:
	.loc 1 974 0 is_stmt 1 discriminator 118 view .LVU612
	.loc 1 974 0 discriminator 118 view .LVU613
	cbz	r3, .L77
	.loc 1 974 0 is_stmt 0 discriminator 126 view .LVU614
	cmp	r2, #12
	ble	.L77
	.loc 1 974 0 is_stmt 1 discriminator 131 view .LVU615
	.loc 1 974 0 discriminator 131 view .LVU616
	.loc 1 974 0 discriminator 131 view .LVU617
	str	r1, [r4, #24]
.L77:
	.loc 1 974 0 discriminator 132 view .LVU618
	.loc 1 974 0 discriminator 132 view .LVU619
.LVL133:
	.loc 1 974 0 discriminator 132 view .LVU620
	.loc 1 974 0 is_stmt 0 discriminator 132 view .LVU621
.LBE1874:
	.loc 1 974 0 is_stmt 1 discriminator 132 view .LVU622
	.loc 1 974 0 discriminator 132 view .LVU623
	.loc 1 974 0 discriminator 132 view .LVU624
	.loc 1 974 0 discriminator 132 view .LVU625
	.loc 1 974 2 is_stmt 0 discriminator 132 view .LVU626
	cmp	r2, #15
	ble	.L82
	.loc 1 974 2 view .LVU627
	movs	r1, #16
.LVL134:
.L78:
	.loc 1 974 16 is_stmt 1 discriminator 144 view .LVU628
	.loc 1 974 19 is_stmt 0 discriminator 144 view .LVU629
	cbz	r3, .L79
.LBB1876:
	.loc 1 974 29 is_stmt 1 discriminator 145 view .LVU630
	.loc 1 974 50 is_stmt 0 discriminator 145 view .LVU631
	movs	r3, #0
.LVL135:
	.loc 1 974 50 discriminator 145 view .LVU632
	strh	r3, [r7, #5]	@ unaligned
	strb	r3, [r7, #7]
	movs	r2, #4
	strb	r2, [r7, #4]
	strb	r3, [r7, #6]
	.loc 1 974 175 is_stmt 1 discriminator 145 view .LVU633
	.loc 1 974 185 is_stmt 0 discriminator 145 view .LVU634
	ldr	r3, [r7, #4]
	str	r3, [r4, #12]
.L79:
	.loc 1 974 185 discriminator 145 view .LVU635
.LBE1876:
.LBE1877:
	.loc 1 974 11 is_stmt 1 discriminator 2 view .LVU636
	.loc 1 974 18 discriminator 2 view .LVU637
	.loc 1 974 39 is_stmt 0 discriminator 2 view .LVU638
	movs	r2, #0
.LVL136:
	.loc 1 974 39 discriminator 2 view .LVU639
	bfc	r2, #0, #1
.LVL137:
	.loc 1 974 39 discriminator 2 view .LVU640
	bfc	r2, #1, #1
	bfc	r2, #2, #1
	bfc	r2, #3, #3
	movs	r3, #1
	bfi	r2, r3, #6, #3
	.loc 1 974 124 discriminator 2 view .LVU641
	and	r3, r1, #1012
	.loc 1 974 39 discriminator 2 view .LVU642
	bfi	r2, r3, #9, #10
	.loc 1 974 174 is_stmt 1 discriminator 2 view .LVU643
	movs	r3, #0
	ubfx	r2, r2, #0, #19
.LVL138:
	.loc 1 974 174 is_stmt 0 discriminator 2 view .LVU644
	ldr	r1, .L88+4
.LVL139:
	.loc 1 974 174 discriminator 2 view .LVU645
	mov	r0, r4
.LVL140:
	.loc 1 974 174 discriminator 2 view .LVU646
	bl	z_log_msg2_finalize
.LVL141:
	mov	sp, r5
.LBE1880:
	.loc 1 974 13 is_stmt 1 discriminator 2 view .LVU647
	.loc 1 974 18 discriminator 2 view .LVU648
.LVL142:
	.loc 1 974 58 discriminator 2 view .LVU649
.LBE1884:
	.loc 1 974 13 discriminator 2 view .LVU650
	.loc 1 974 20 discriminator 2 view .LVU651
	.loc 1 974 20 is_stmt 0 discriminator 2 view .LVU652
.LBE1889:
	.loc 1 974 113 is_stmt 1 discriminator 2 view .LVU653
	.loc 1 976 3 discriminator 2 view .LVU654
	.loc 1 977 3 discriminator 2 view .LVU655
	.loc 1 976 14 is_stmt 0 discriminator 2 view .LVU656
	mvn	r0, #33
	.loc 1 985 1 discriminator 2 view .LVU657
	adds	r7, r7, #8
	.cfi_remember_state
	.cfi_def_cfa_offset 16
	mov	sp, r7
	.cfi_def_cfa_register 13
	@ sp needed
	pop	{r4, r5, r7, pc}
.LVL143:
.L81:
	.cfi_restore_state
.LBB1890:
.LBB1885:
.LBB1881:
.LBB1878:
	.loc 1 974 12 view .LVU658
	mvn	r2, #-2147483648
.LVL144:
	.loc 1 974 12 view .LVU659
	b	.L74
.LVL145:
.L82:
	.loc 1 974 2 view .LVU660
	mvn	r1, #27
.LVL146:
	.loc 1 974 2 view .LVU661
	b	.L78
.L89:
	.align	2
.L88:
	.word	.LC11
	.word	.LANCHOR3
.LBE1878:
.LBE1881:
.LBE1885:
.LBE1890:
	.cfi_endproc
.LFE977:
	.size	tcp_unsent_len, .-tcp_unsent_len
	.section	.text.tcp_cleanup_recv_queue,"ax",%progbits
	.align	1
	.syntax unified
	.thumb
	.thumb_func
	.fpu fpv4-sp-d16
	.type	tcp_cleanup_recv_queue, %function
tcp_cleanup_recv_queue:
.LVL147:
.LFB980:
	.loc 1 1091 1 is_stmt 1 view -0
	.cfi_startproc
	@ args = 0, pretend = 0, frame = 0
	@ frame_needed = 0, uses_anonymous_args = 0
	.loc 1 1091 1 is_stmt 0 view .LVU663
	push	{r3, r4, r5, lr}
	.cfi_def_cfa_offset 16
	.cfi_offset 3, -16
	.cfi_offset 4, -12
	.cfi_offset 5, -8
	.cfi_offset 14, -4
	mov	r4, r0
	.loc 1 1092 2 is_stmt 1 view .LVU664
.LVL148:
	.loc 4 3750 2 view .LVU665
	.loc 1 1093 2 view .LVU666
	.loc 1 1095 2 view .LVU667
	sub	r5, r0, #132
.LVL149:
.LBB1891:
.LBI1891:
	.loc 6 899 19 view .LVU668
.LBB1892:
	.loc 6 909 2 view .LVU669
	.loc 6 909 7 view .LVU670
	.loc 6 909 55 view .LVU671
	.loc 6 910 2 view .LVU672
	.loc 6 910 9 is_stmt 0 view .LVU673
	mov	r2, #-1
	mov	r3, #-1
	mov	r0, r5
.LVL150:
	.loc 6 910 9 view .LVU674
	bl	z_impl_k_mutex_lock
.LVL151:
	.loc 6 910 9 view .LVU675
.LBE1892:
.LBE1891:
	.loc 1 1097 2 is_stmt 1 view .LVU676
.LBB1893:
	.loc 1 1097 7 view .LVU677
.LBE1893:
	.loc 1 1097 233 view .LVU678
	.loc 1 1101 2 view .LVU679
	.loc 1 1101 20 is_stmt 0 view .LVU680
	ldr	r3, [r4, #-156]
	.loc 1 1101 2 view .LVU681
	ldr	r0, [r3, #8]
	bl	net_buf_unref
.LVL152:
	.loc 1 1102 2 is_stmt 1 view .LVU682
	.loc 1 1102 6 is_stmt 0 view .LVU683
	ldr	r3, [r4, #-156]
	.loc 1 1102 32 view .LVU684
	movs	r2, #0
	str	r2, [r3, #8]
	.loc 1 1104 2 is_stmt 1 view .LVU685
.LVL153:
.LBB1894:
.LBI1894:
	.loc 6 917 19 view .LVU686
.LBB1895:
	.loc 6 925 2 view .LVU687
	.loc 6 925 7 view .LVU688
	.loc 6 925 55 view .LVU689
	.loc 6 926 2 view .LVU690
	.loc 6 926 9 is_stmt 0 view .LVU691
	mov	r0, r5
	bl	z_impl_k_mutex_unlock
.LVL154:
	.loc 6 926 9 view .LVU692
.LBE1895:
.LBE1894:
	.loc 1 1105 1 view .LVU693
	pop	{r3, r4, r5, pc}
	.loc 1 1105 1 view .LVU694
	.cfi_endproc
.LFE980:
	.size	tcp_cleanup_recv_queue, .-tcp_cleanup_recv_queue
	.section	.text.tcp_send_timer_cancel,"ax",%progbits
	.align	1
	.syntax unified
	.thumb
	.thumb_func
	.fpu fpv4-sp-d16
	.type	tcp_send_timer_cancel, %function
tcp_send_timer_cancel:
.LVL155:
.LFB960:
	.loc 1 525 1 is_stmt 1 view -0
	.cfi_startproc
	@ args = 0, pretend = 0, frame = 0
	@ frame_needed = 0, uses_anonymous_args = 0
	.loc 1 525 1 is_stmt 0 view .LVU696
	push	{r3, r4, r5, r6, r7, lr}
	.cfi_def_cfa_offset 24
	.cfi_offset 3, -24
	.cfi_offset 4, -20
	.cfi_offset 5, -16
	.cfi_offset 6, -12
	.cfi_offset 7, -8
	.cfi_offset 14, -4
	.loc 1 526 2 is_stmt 1 view .LVU697
	.loc 1 526 10 is_stmt 0 view .LVU698
	ldrb	r3, [r0, #441]	@ zero_extendqisi2
	.loc 1 526 5 view .LVU699
	tst	r3, #1
	bne	.L99
.LVL156:
.L92:
	.loc 1 548 1 view .LVU700
	pop	{r3, r4, r5, r6, r7, pc}
.LVL157:
.L99:
	.loc 1 548 1 view .LVU701
	mov	r4, r0
	.loc 1 530 2 is_stmt 1 view .LVU702
	add	r7, r0, #120
	mov	r0, r7
.LVL158:
	.loc 1 530 2 is_stmt 0 view .LVU703
	bl	k_work_cancel_delayable
.LVL159:
.LBB1896:
	.loc 1 533 3 is_stmt 1 view .LVU704
.LBB1897:
	.loc 1 533 28 view .LVU705
	add	r6, r4, #36
.LVL160:
.LBB1898:
.LBI1898:
	.loc 6 899 19 view .LVU706
.LBB1899:
	.loc 6 909 2 view .LVU707
	.loc 6 909 7 view .LVU708
	.loc 6 909 55 view .LVU709
	.loc 6 910 2 view .LVU710
	.loc 6 910 9 is_stmt 0 view .LVU711
	mov	r2, #-1
	mov	r3, #-1
	mov	r0, r6
	bl	z_impl_k_mutex_lock
.LVL161:
	.loc 6 910 9 view .LVU712
.LBE1899:
.LBE1898:
	.loc 1 533 104 is_stmt 1 view .LVU713
.LBB1900:
.LBI1900:
	.loc 5 385 29 view .LVU714
.LBB1901:
	.loc 5 385 64 view .LVU715
.LBB1902:
.LBI1902:
	.loc 5 261 1 view .LVU716
.LBE1902:
.LBE1901:
.LBE1900:
.LBE1897:
.LBE1896:
	.loc 5 261 41 view .LVU717
.LBB1937:
.LBB1932:
.LBB1926:
.LBB1922:
.LBB1905:
.LBB1903:
.LBI1903:
	.loc 5 231 28 view .LVU718
.LBB1904:
	.loc 5 233 2 view .LVU719
	.loc 5 233 13 is_stmt 0 view .LVU720
	ldr	r5, [r4, #24]
.LVL162:
	.loc 5 233 13 view .LVU721
.LBE1904:
.LBE1903:
.LBE1905:
	.loc 5 385 1 view .LVU722
	cbz	r5, .L94
.LVL163:
.LBB1906:
.LBI1906:
	.loc 5 372 29 is_stmt 1 view .LVU723
.LBB1907:
	.loc 5 372 74 view .LVU724
	.loc 5 372 74 is_stmt 0 view .LVU725
.LBE1907:
.LBE1906:
.LBE1922:
.LBE1926:
.LBE1932:
.LBE1937:
	.loc 5 233 2 is_stmt 1 view .LVU726
.LBB1938:
.LBB1933:
.LBB1927:
.LBB1923:
.LBB1919:
.LBB1916:
	.loc 5 372 121 view .LVU727
.LBB1908:
.LBI1908:
	.loc 5 204 28 view .LVU728
.LBB1909:
	.loc 5 206 2 view .LVU729
	.loc 5 206 13 is_stmt 0 view .LVU730
	ldr	r3, [r5]
.LVL164:
	.loc 5 206 13 view .LVU731
.LBE1909:
.LBE1908:
.LBB1910:
.LBI1910:
	.loc 5 214 20 is_stmt 1 view .LVU732
.LBB1911:
	.loc 5 216 2 view .LVU733
	.loc 5 216 13 is_stmt 0 view .LVU734
	str	r3, [r4, #24]
.LVL165:
	.loc 5 216 13 view .LVU735
.LBE1911:
.LBE1910:
	.loc 5 372 170 is_stmt 1 view .LVU736
.LBB1912:
.LBI1912:
	.loc 5 243 28 view .LVU737
.LBB1913:
	.loc 5 245 2 view .LVU738
	.loc 5 245 13 is_stmt 0 view .LVU739
	ldr	r2, [r4, #28]
.LVL166:
	.loc 5 245 13 view .LVU740
.LBE1913:
.LBE1912:
	.loc 5 372 173 view .LVU741
	cmp	r5, r2
	beq	.L100
.L95:
.LVL167:
	.loc 5 372 173 view .LVU742
.LBE1916:
.LBE1919:
.LBE1923:
.LBE1927:
	.loc 1 533 159 is_stmt 1 view .LVU743
	.loc 1 533 27 is_stmt 0 view .LVU744
	subs	r5, r5, #68
.LVL168:
.L94:
	.loc 1 533 26 is_stmt 1 discriminator 4 view .LVU745
.LBB1928:
.LBI1928:
	.loc 6 917 19 discriminator 4 view .LVU746
.LBB1929:
	.loc 6 925 2 discriminator 4 view .LVU747
	.loc 6 925 7 discriminator 4 view .LVU748
	.loc 6 925 55 discriminator 4 view .LVU749
	.loc 6 926 2 discriminator 4 view .LVU750
	.loc 6 926 9 is_stmt 0 discriminator 4 view .LVU751
	mov	r0, r6
	bl	z_impl_k_mutex_unlock
.LVL169:
	.loc 6 926 9 discriminator 4 view .LVU752
.LBE1929:
.LBE1928:
	.loc 1 533 55 is_stmt 1 discriminator 4 view .LVU753
	.loc 1 533 55 is_stmt 0 discriminator 4 view .LVU754
.LBE1933:
	.loc 1 535 3 is_stmt 1 discriminator 4 view .LVU755
	.loc 1 535 6 is_stmt 0 discriminator 4 view .LVU756
	cbz	r5, .L96
	.loc 1 536 4 is_stmt 1 view .LVU757
.LBB1934:
	.loc 1 536 9 view .LVU758
.LBE1934:
	.loc 1 536 131 view .LVU759
	.loc 1 537 4 view .LVU760
	mov	r0, r5
	bl	net_pkt_unref
.LVL170:
.L96:
.LBE1938:
	.loc 1 541 2 view .LVU761
.LBB1939:
.LBI1939:
	.loc 5 261 1 view .LVU762
.LBE1939:
	.loc 5 261 41 view .LVU763
.LBB1942:
.LBB1940:
.LBI1940:
	.loc 5 231 28 view .LVU764
.LBB1941:
	.loc 5 233 2 view .LVU765
	.loc 5 233 13 is_stmt 0 view .LVU766
	ldr	r3, [r4, #24]
.LVL171:
	.loc 5 233 13 view .LVU767
.LBE1941:
.LBE1940:
.LBE1942:
	.loc 1 541 5 view .LVU768
	cbz	r3, .L101
.LBB1943:
	.loc 1 544 3 is_stmt 1 view .LVU769
	.loc 1 544 22 is_stmt 0 view .LVU770
	movs	r3, #9
	str	r3, [r4, #412]
	.loc 1 545 3 is_stmt 1 view .LVU771
.LVL172:
	.loc 1 545 3 is_stmt 0 view .LVU772
.LBE1943:
	.file 10 "/home/sebin/thesis/zephyrproject/zephyr/include/sys/time_units.h"
	.loc 10 405 2 is_stmt 1 view .LVU773
	.loc 10 106 1 view .LVU774
	.loc 10 108 1 view .LVU775
	.loc 10 111 2 view .LVU776
	.loc 10 115 2 view .LVU777
	.loc 10 117 2 view .LVU778
	.loc 10 133 2 view .LVU779
	.loc 10 140 9 view .LVU780
	.loc 10 141 3 view .LVU781
	.loc 10 144 4 view .LVU782
.LBB1944:
	.loc 1 545 3 is_stmt 0 view .LVU783
	mov	r2, #2000
	movs	r3, #0
	mov	r1, r7
	ldr	r0, .L102
	bl	k_work_reschedule_for_queue
.LVL173:
	b	.L92
.LVL174:
.L100:
	.loc 1 545 3 view .LVU784
.LBE1944:
.LBB1945:
.LBB1935:
.LBB1930:
.LBB1924:
.LBB1920:
.LBB1917:
	.loc 5 372 211 is_stmt 1 view .LVU785
	.loc 5 372 211 is_stmt 0 view .LVU786
.LBE1917:
.LBE1920:
.LBE1924:
.LBE1930:
.LBE1935:
.LBE1945:
	.loc 5 233 2 is_stmt 1 view .LVU787
.LBB1946:
.LBB1936:
.LBB1931:
.LBB1925:
.LBB1921:
.LBB1918:
.LBB1914:
.LBI1914:
	.loc 5 219 20 view .LVU788
.LBB1915:
	.loc 5 221 2 view .LVU789
	.loc 5 221 13 is_stmt 0 view .LVU790
	str	r3, [r4, #28]
	.loc 5 222 1 view .LVU791
	b	.L95
.LVL175:
.L101:
	.loc 5 222 1 view .LVU792
.LBE1915:
.LBE1914:
.LBE1918:
.LBE1921:
.LBE1925:
.LBE1931:
.LBE1936:
.LBE1946:
	.loc 1 542 3 is_stmt 1 view .LVU793
	.loc 1 542 27 is_stmt 0 view .LVU794
	ldrb	r3, [r4, #441]	@ zero_extendqisi2
	bfc	r3, #0, #1
	strb	r3, [r4, #441]
	b	.L92
.L103:
	.align	2
.L102:
	.word	.LANCHOR4
	.cfi_endproc
.LFE960:
	.size	tcp_send_timer_cancel, .-tcp_send_timer_cancel
	.section	.text.tcp_pkt_peek,"ax",%progbits
	.align	1
	.syntax unified
	.thumb
	.thumb_func
	.fpu fpv4-sp-d16
	.type	tcp_pkt_peek, %function
tcp_pkt_peek:
.LVL176:
.LFB975:
	.loc 1 948 1 is_stmt 1 view -0
	.cfi_startproc
	@ args = 0, pretend = 0, frame = 0
	@ frame_needed = 0, uses_anonymous_args = 0
	.loc 1 948 1 is_stmt 0 view .LVU796
	push	{r3, r4, r5, r6, r7, lr}
	.cfi_def_cfa_offset 24
	.cfi_offset 3, -24
	.cfi_offset 4, -20
	.cfi_offset 5, -16
	.cfi_offset 6, -12
	.cfi_offset 7, -8
	.cfi_offset 14, -4
	mov	r6, r0
	mov	r4, r1
	mov	r5, r2
	mov	r7, r3
	.loc 1 949 2 is_stmt 1 view .LVU797
	bl	net_pkt_cursor_init
.LVL177:
	.loc 1 950 2 view .LVU798
	mov	r0, r4
	bl	net_pkt_cursor_init
.LVL178:
	.loc 1 952 2 view .LVU799
	.loc 1 952 5 is_stmt 0 view .LVU800
	cbnz	r5, .L107
.L105:
	.loc 1 957 2 is_stmt 1 view .LVU801
	.loc 1 957 9 is_stmt 0 view .LVU802
	mov	r2, r7
	mov	r1, r4
	mov	r0, r6
	bl	net_pkt_copy
.LVL179:
	.loc 1 958 1 view .LVU803
	pop	{r3, r4, r5, r6, r7, pc}
.LVL180:
.L107:
	.loc 1 953 3 is_stmt 1 view .LVU804
.LBB1947:
.LBI1947:
	.file 11 "/home/sebin/thesis/zephyrproject/zephyr/include/net/net_pkt.h"
	.loc 11 1205 20 view .LVU805
.LBB1948:
	.loc 11 1207 2 view .LVU806
	.loc 11 1207 17 is_stmt 0 view .LVU807
	ldrb	r3, [r4, #73]	@ zero_extendqisi2
	orr	r3, r3, #1
	strb	r3, [r4, #73]
.LVL181:
	.loc 11 1207 17 view .LVU808
.LBE1948:
.LBE1947:
	.loc 1 954 3 is_stmt 1 view .LVU809
	mov	r1, r5
	mov	r0, r4
	bl	net_pkt_skip
.LVL182:
	b	.L105
	.cfi_endproc
.LFE975:
	.size	tcp_pkt_peek, .-tcp_pkt_peek
	.section	.text.ip_header_add,"ax",%progbits
	.align	1
	.syntax unified
	.thumb
	.thumb_func
	.fpu fpv4-sp-d16
	.type	ip_header_add, %function
ip_header_add:
.LVL183:
.LFB969:
	.loc 1 793 1 view -0
	.cfi_startproc
	@ args = 0, pretend = 0, frame = 0
	@ frame_needed = 0, uses_anonymous_args = 0
	.loc 1 793 1 is_stmt 0 view .LVU811
	push	{r3, lr}
	.cfi_def_cfa_offset 8
	.cfi_offset 3, -8
	.cfi_offset 14, -4
	.loc 1 794 2 is_stmt 1 view .LVU812
.LVL184:
.LBB1949:
.LBI1949:
	.loc 11 329 23 view .LVU813
.LBB1950:
	.loc 11 331 2 view .LVU814
	.loc 11 331 12 is_stmt 0 view .LVU815
	ldrb	r3, [r1, #75]	@ zero_extendqisi2
	ubfx	r3, r3, #1, #3
.LVL185:
	.loc 11 331 12 view .LVU816
.LBE1950:
.LBE1949:
	.loc 1 794 5 view .LVU817
	cmp	r3, #1
	beq	.L113
	.loc 1 800 2 is_stmt 1 view .LVU818
.LVL186:
	.loc 11 331 2 view .LVU819
	.loc 1 800 5 is_stmt 0 view .LVU820
	cmp	r3, #2
	bne	.L111
	.loc 1 801 3 is_stmt 1 view .LVU821
	.loc 1 801 10 is_stmt 0 view .LVU822
	add	r3, r0, #388
	add	r2, r0, #364
	ldr	r0, [r0, #4]
.LVL187:
	.loc 1 801 10 view .LVU823
	bl	net_context_create_ipv6_new
.LVL188:
.L108:
	.loc 1 807 1 view .LVU824
	pop	{r3, pc}
.LVL189:
.L113:
	.loc 1 795 3 is_stmt 1 view .LVU825
	.loc 1 795 10 is_stmt 0 view .LVU826
	add	r3, r0, #388
	add	r2, r0, #364
	ldr	r0, [r0, #4]
.LVL190:
	.loc 1 795 10 view .LVU827
	bl	net_context_create_ipv4_new
.LVL191:
	.loc 1 795 10 view .LVU828
	b	.L108
.LVL192:
.L111:
	.loc 1 806 9 view .LVU829
	mvn	r0, #21
.LVL193:
	.loc 1 806 9 view .LVU830
	b	.L108
	.cfi_endproc
.LFE969:
	.size	ip_header_add, .-ip_header_add
	.section	.text.tcp_header_add,"ax",%progbits
	.align	1
	.syntax unified
	.thumb
	.thumb_func
	.fpu fpv4-sp-d16
	.type	tcp_header_add, %function
tcp_header_add:
.LVL194:
.LFB968:
	.loc 1 762 1 is_stmt 1 view -0
	.cfi_startproc
	@ args = 0, pretend = 0, frame = 32
	@ frame_needed = 0, uses_anonymous_args = 0
	.loc 1 762 1 is_stmt 0 view .LVU832
	push	{r4, r5, r6, r7, r8, r9, lr}
	.cfi_def_cfa_offset 28
	.cfi_offset 4, -28
	.cfi_offset 5, -24
	.cfi_offset 6, -20
	.cfi_offset 7, -16
	.cfi_offset 8, -12
	.cfi_offset 9, -8
	.cfi_offset 14, -4
	sub	sp, sp, #36
	.cfi_def_cfa_offset 64
	mov	r6, r0
	mov	r7, r1
	mov	r8, r2
	mov	r9, r3
	.loc 1 763 2 is_stmt 1 view .LVU833
	.loc 1 763 33 view .LVU834
	.loc 1 763 60 is_stmt 0 view .LVU835
	add	r3, sp, #12
.LVL195:
	.loc 1 763 60 view .LVU836
	str	r3, [sp, #4]
	movs	r3, #20
	str	r3, [sp, #8]
	.loc 1 764 2 is_stmt 1 view .LVU837
	.loc 1 766 2 view .LVU838
	.loc 1 766 24 is_stmt 0 view .LVU839
	add	r1, sp, #4
.LVL196:
	.loc 1 766 24 view .LVU840
	mov	r0, r7
.LVL197:
	.loc 1 766 24 view .LVU841
	bl	net_pkt_get_data
.LVL198:
	.loc 1 767 2 is_stmt 1 view .LVU842
	.loc 1 767 5 is_stmt 0 view .LVU843
	cmp	r0, #0
	beq	.L118
	mov	r4, r0
	.loc 1 771 1 is_stmt 1 view .LVU844
.LVL199:
.LBB1951:
.LBI1951:
	.loc 8 86 189 view .LVU845
.LBB1952:
	.loc 8 86 238 view .LVU846
	.loc 8 86 245 is_stmt 0 view .LVU847
	movs	r3, #0
	str	r3, [r0]	@ unaligned
	str	r3, [r0, #4]	@ unaligned
	str	r3, [r0, #8]	@ unaligned
	str	r3, [r0, #12]	@ unaligned
	str	r3, [r0, #16]	@ unaligned
.LVL200:
	.loc 8 86 245 view .LVU848
.LBE1952:
.LBE1951:
	.loc 1 773 2 is_stmt 1 view .LVU849
.LBB1953:
	.loc 1 773 7 view .LVU850
	.loc 1 773 120 view .LVU851
	.loc 1 773 129 is_stmt 0 view .LVU852
	ldrh	r3, [r6, #362]
	strh	r3, [r0]	@ unaligned
	.loc 1 773 157 is_stmt 1 view .LVU853
	.loc 1 773 162 view .LVU854
	.loc 1 773 210 view .LVU855
.LBE1953:
	.loc 1 773 12 view .LVU856
	.loc 1 774 2 view .LVU857
.LBB1954:
	.loc 1 774 7 view .LVU858
.LVL201:
	.loc 1 774 120 view .LVU859
	.loc 1 774 129 is_stmt 0 view .LVU860
	ldrh	r3, [r6, #386]
	strh	r3, [r0, #2]	@ unaligned
	.loc 1 774 157 is_stmt 1 view .LVU861
	.loc 1 774 162 view .LVU862
	.loc 1 774 210 view .LVU863
.LBE1954:
	.loc 1 774 12 view .LVU864
	.loc 1 775 2 view .LVU865
	.loc 1 775 13 is_stmt 0 view .LVU866
	ldrb	r3, [r0, #12]	@ zero_extendqisi2
	movs	r2, #5
	bfi	r3, r2, #4, #4
	strb	r3, [r0, #12]
	.loc 1 777 2 is_stmt 1 view .LVU867
	.loc 1 777 6 is_stmt 0 view .LVU868
	ldrb	r3, [r6, #118]	@ zero_extendqisi2
	.loc 1 777 5 view .LVU869
	tst	r3, #1
	beq	.L116
	.loc 1 778 3 is_stmt 1 view .LVU870
	.loc 1 778 13 is_stmt 0 view .LVU871
	ldrb	r3, [r0, #12]	@ zero_extendqisi2
	movs	r2, #6
	bfi	r3, r2, #4, #4
	strb	r3, [r0, #12]
.L116:
	.loc 1 781 2 is_stmt 1 view .LVU872
.LBB1955:
	.loc 1 781 7 view .LVU873
.LVL202:
	.loc 1 781 120 view .LVU874
	.loc 1 781 129 is_stmt 0 view .LVU875
	strb	r8, [r4, #13]
	.loc 1 781 140 is_stmt 1 view .LVU876
	.loc 1 781 145 view .LVU877
	.loc 1 781 193 view .LVU878
.LBE1955:
	.loc 1 781 12 view .LVU879
	.loc 1 782 2 view .LVU880
.LBB1956:
	.loc 1 782 7 view .LVU881
.LVL203:
	.loc 1 782 116 view .LVU882
	.loc 1 782 148 is_stmt 0 view .LVU883
	ldrh	r2, [r6, #436]
	.loc 1 782 174 view .LVU884
	lsrs	r3, r2, #8
	.loc 1 782 125 view .LVU885
	orr	r3, r3, r2, lsl #8
	strh	r3, [r4, #14]	@ unaligned
	.loc 1 782 213 is_stmt 1 view .LVU886
	.loc 1 782 218 view .LVU887
	.loc 1 782 266 view .LVU888
.LBE1956:
	.loc 1 782 12 view .LVU889
	.loc 1 783 2 view .LVU890
.LBB1957:
	.loc 1 783 7 view .LVU891
.LVL204:
	.loc 1 783 116 view .LVU892
	.loc 1 783 174 is_stmt 0 view .LVU893
	lsr	r5, r9, #8
	.loc 1 783 180 view .LVU894
	and	r5, r5, #65280
	.loc 1 783 164 view .LVU895
	orr	r5, r5, r9, lsr #24
	.loc 1 783 210 view .LVU896
	lsl	r3, r9, #8
	and	r3, r3, #16711680
	.loc 1 783 190 view .LVU897
	orrs	r5, r5, r3
	.loc 1 783 216 view .LVU898
	orr	r3, r5, r9, lsl #24
	.loc 1 783 125 view .LVU899
	str	r3, [r4, #4]	@ unaligned
	.loc 1 783 245 is_stmt 1 view .LVU900
	.loc 1 783 250 view .LVU901
	.loc 1 783 298 view .LVU902
.LBE1957:
	.loc 1 783 12 view .LVU903
	.loc 1 785 2 view .LVU904
	.loc 1 785 5 is_stmt 0 view .LVU905
	tst	r8, #16
	beq	.L117
	.loc 1 786 3 is_stmt 1 view .LVU906
.LBB1958:
	.loc 1 786 8 view .LVU907
.LVL205:
	.loc 1 786 117 view .LVU908
	.loc 1 786 149 is_stmt 0 view .LVU909
	ldr	r2, [r6, #432]
	.loc 1 786 187 view .LVU910
	lsrs	r3, r2, #8
	.loc 1 786 193 view .LVU911
	and	r3, r3, #65280
	.loc 1 786 171 view .LVU912
	orr	r3, r3, r2, lsr #24
	.loc 1 786 229 view .LVU913
	lsls	r1, r2, #8
	and	r1, r1, #16711680
	.loc 1 786 203 view .LVU914
	orrs	r3, r3, r1
	.loc 1 786 235 view .LVU915
	orr	r3, r3, r2, lsl #24
	.loc 1 786 126 view .LVU916
	str	r3, [r4, #8]	@ unaligned
	.loc 1 786 270 is_stmt 1 view .LVU917
	.loc 1 786 275 view .LVU918
.LVL206:
.L117:
	.loc 1 786 323 discriminator 1 view .LVU919
.LBE1958:
	.loc 1 786 13 discriminator 1 view .LVU920
	.loc 1 789 2 discriminator 1 view .LVU921
	.loc 1 789 9 is_stmt 0 discriminator 1 view .LVU922
	add	r1, sp, #4
	mov	r0, r7
.LVL207:
	.loc 1 789 9 discriminator 1 view .LVU923
	bl	net_pkt_set_data
.LVL208:
.L114:
	.loc 1 790 1 view .LVU924
	add	sp, sp, #36
	.cfi_remember_state
	.cfi_def_cfa_offset 28
	@ sp needed
	pop	{r4, r5, r6, r7, r8, r9, pc}
.LVL209:
.L118:
	.cfi_restore_state
	.loc 1 768 10 view .LVU925
	mvn	r0, #104
.LVL210:
	.loc 1 768 10 view .LVU926
	b	.L114
	.cfi_endproc
.LFE968:
	.size	tcp_header_add, .-tcp_header_add
	.section	.text.tcp_finalize_pkt,"ax",%progbits
	.align	1
	.syntax unified
	.thumb
	.thumb_func
	.fpu fpv4-sp-d16
	.type	tcp_finalize_pkt, %function
tcp_finalize_pkt:
.LVL211:
.LFB967:
	.loc 1 746 1 is_stmt 1 view -0
	.cfi_startproc
	@ args = 0, pretend = 0, frame = 0
	@ frame_needed = 0, uses_anonymous_args = 0
	.loc 1 746 1 is_stmt 0 view .LVU928
	push	{r4, lr}
	.cfi_def_cfa_offset 8
	.cfi_offset 4, -8
	.cfi_offset 14, -4
	mov	r4, r0
	.loc 1 747 2 is_stmt 1 view .LVU929
	bl	net_pkt_cursor_init
.LVL212:
	.loc 1 749 2 view .LVU930
.LBB1959:
.LBI1959:
	.loc 11 329 23 view .LVU931
.LBB1960:
	.loc 11 331 2 view .LVU932
	.loc 11 331 12 is_stmt 0 view .LVU933
	ldrb	r3, [r4, #75]	@ zero_extendqisi2
	ubfx	r3, r3, #1, #3
.LVL213:
	.loc 11 331 12 view .LVU934
.LBE1960:
.LBE1959:
	.loc 1 749 5 view .LVU935
	cmp	r3, #1
	beq	.L125
	.loc 1 753 2 is_stmt 1 view .LVU936
.LVL214:
	.loc 11 331 2 view .LVU937
	.loc 1 753 5 is_stmt 0 view .LVU938
	cmp	r3, #2
	bne	.L123
	.loc 1 754 3 is_stmt 1 view .LVU939
	.loc 1 754 10 is_stmt 0 view .LVU940
	movs	r1, #6
	mov	r0, r4
	bl	net_ipv6_finalize
.LVL215:
.L120:
	.loc 1 758 1 view .LVU941
	pop	{r4, pc}
.LVL216:
.L125:
	.loc 1 750 3 is_stmt 1 view .LVU942
	.loc 1 750 10 is_stmt 0 view .LVU943
	movs	r1, #6
	mov	r0, r4
	bl	net_ipv4_finalize
.LVL217:
	b	.L120
.L123:
	.loc 1 757 9 view .LVU944
	mvn	r0, #21
	b	.L120
	.cfi_endproc
.LFE967:
	.size	tcp_finalize_pkt, .-tcp_finalize_pkt
	.section	.text.is_destination_local,"ax",%progbits
	.align	1
	.syntax unified
	.thumb
	.thumb_func
	.fpu fpv4-sp-d16
	.type	is_destination_local, %function
is_destination_local:
.LVL218:
.LFB971:
	.loc 1 829 1 is_stmt 1 view -0
	.cfi_startproc
	@ args = 0, pretend = 0, frame = 0
	@ frame_needed = 0, uses_anonymous_args = 0
	.loc 1 829 1 is_stmt 0 view .LVU946
	push	{r3, r4, r5, lr}
	.cfi_def_cfa_offset 16
	.cfi_offset 3, -16
	.cfi_offset 4, -12
	.cfi_offset 5, -8
	.cfi_offset 14, -4
	mov	r4, r0
	.loc 1 830 2 is_stmt 1 view .LVU947
.LVL219:
.LBB1989:
.LBI1989:
	.loc 11 329 23 view .LVU948
.LBB1990:
	.loc 11 331 2 view .LVU949
	.loc 11 331 12 is_stmt 0 view .LVU950
	ldrb	r3, [r0, #75]	@ zero_extendqisi2
	ubfx	r3, r3, #1, #3
.LVL220:
	.loc 11 331 12 view .LVU951
.LBE1990:
.LBE1989:
	.loc 1 830 5 view .LVU952
	cmp	r3, #1
	beq	.L141
.LVL221:
.L127:
	.loc 1 839 2 is_stmt 1 view .LVU953
.LBB1991:
.LBI1991:
	.loc 11 329 23 view .LVU954
.LBB1992:
	.loc 11 331 2 view .LVU955
	.loc 11 331 12 is_stmt 0 view .LVU956
	ldrb	r3, [r4, #75]	@ zero_extendqisi2
	ubfx	r3, r3, #1, #3
.LVL222:
	.loc 11 331 12 view .LVU957
.LBE1992:
.LBE1991:
	.loc 1 839 5 view .LVU958
	cmp	r3, #2
	beq	.L142
	.loc 1 848 8 view .LVU959
	movs	r4, #0
.LVL223:
.L131:
	.loc 1 849 1 view .LVU960
	mov	r0, r4
	pop	{r3, r4, r5, pc}
.LVL224:
.L141:
	.loc 1 831 3 is_stmt 1 view .LVU961
.LBB1993:
.LBI1993:
	.loc 11 971 24 view .LVU962
.LBB1994:
	.loc 11 973 2 view .LVU963
	.loc 11 973 12 is_stmt 0 view .LVU964
	ldr	r3, [r0, #8]
	.loc 11 973 19 view .LVU965
	ldr	r5, [r3, #8]
.LVL225:
	.loc 11 973 19 view .LVU966
.LBE1994:
.LBE1993:
.LBB1995:
.LBI1995:
	.loc 3 689 19 is_stmt 1 view .LVU967
.LBB1996:
	.loc 3 691 2 view .LVU968
	.loc 3 691 22 is_stmt 0 view .LVU969
	ldrb	r3, [r5, #16]	@ zero_extendqisi2
.LVL226:
	.loc 3 691 22 view .LVU970
.LBE1996:
.LBE1995:
	.loc 1 831 6 view .LVU971
	cmp	r3, #127
	beq	.L128
.LVL227:
	.loc 11 973 2 is_stmt 1 view .LVU972
	.loc 1 834 23 is_stmt 0 view .LVU973
	adds	r5, r5, #16
.LVL228:
.LBB1997:
.LBI1997:
	.loc 3 932 19 is_stmt 1 view .LVU974
.LBB1998:
	.loc 3 934 1 view .LVU975
	.loc 3 936 2 view .LVU976
	.loc 3 936 8 is_stmt 0 view .LVU977
	movs	r1, #0
	mov	r0, r5
.LVL229:
	.loc 3 936 8 view .LVU978
	bl	net_if_ipv4_addr_lookup
.LVL230:
	.loc 3 936 6 view .LVU979
	cmp	r0, #0
	ite	ne
	movne	r0, #1
	moveq	r0, #0
.LVL231:
	.loc 3 937 2 is_stmt 1 view .LVU980
	.loc 3 937 5 is_stmt 0 view .LVU981
	beq	.L143
.LVL232:
.L129:
	.loc 3 941 2 is_stmt 1 view .LVU982
	.loc 3 941 2 is_stmt 0 view .LVU983
.LBE1998:
.LBE1997:
	.loc 1 832 75 view .LVU984
	cmp	r0, #0
	beq	.L127
.L128:
	.loc 1 835 4 is_stmt 1 view .LVU985
	.loc 1 835 10 is_stmt 0 view .LVU986
	movs	r4, #1
.LVL233:
	.loc 1 835 10 view .LVU987
	b	.L131
.LVL234:
.L143:
.LBB2009:
.LBB2007:
	.loc 3 938 3 is_stmt 1 view .LVU988
.LBB1999:
.LBI1999:
	.loc 3 900 19 view .LVU989
.LBB2000:
	.loc 3 903 2 view .LVU990
	.loc 3 903 6 is_stmt 0 view .LVU991
	bl	net_ipv4_broadcast_address
.LVL235:
.LBB2001:
.LBI2001:
	.loc 3 774 19 is_stmt 1 view .LVU992
.LBE2001:
.LBE2000:
.LBE1999:
.LBE2007:
.LBE2009:
	.loc 3 777 2 view .LVU993
.LBB2010:
.LBB2008:
.LBB2006:
.LBB2005:
.LBB2004:
.LBB2002:
	.loc 3 777 26 view .LVU994
	.loc 3 777 143 view .LVU995
	.loc 3 777 146 is_stmt 0 view .LVU996
	ldr	r2, [r5]	@ unaligned
.LBE2002:
.LBB2003:
	.loc 3 777 176 is_stmt 1 view .LVU997
.LVL236:
	.loc 3 777 293 view .LVU998
	.loc 3 777 296 is_stmt 0 view .LVU999
	ldr	r3, [r0]	@ unaligned
.LVL237:
	.loc 3 777 296 view .LVU1000
.LBE2003:
.LBE2004:
	.loc 3 903 5 view .LVU1001
	cmp	r2, r3
	beq	.L134
	.loc 3 907 2 is_stmt 1 view .LVU1002
	.loc 3 907 9 is_stmt 0 view .LVU1003
	mov	r1, r5
	movs	r0, #0
.LVL238:
	.loc 3 907 9 view .LVU1004
	bl	net_if_ipv4_is_addr_bcast
.LVL239:
	b	.L129
.LVL240:
.L134:
	.loc 3 904 9 view .LVU1005
	movs	r0, #1
.LVL241:
	.loc 3 904 9 view .LVU1006
	b	.L129
.LVL242:
.L142:
	.loc 3 904 9 view .LVU1007
.LBE2005:
.LBE2006:
.LBE2008:
.LBE2010:
	.loc 1 840 3 is_stmt 1 view .LVU1008
.LBB2011:
.LBI2011:
	.loc 11 971 24 view .LVU1009
.LBB2012:
	.loc 11 973 2 view .LVU1010
	.loc 11 973 12 is_stmt 0 view .LVU1011
	ldr	r3, [r4, #8]
.LVL243:
	.loc 11 973 12 view .LVU1012
.LBE2012:
.LBE2011:
	.loc 1 841 24 view .LVU1013
	ldr	r0, [r3, #8]
.LVL244:
.LBB2013:
.LBI2013:
	.loc 3 589 19 is_stmt 1 view .LVU1014
.LBB2014:
	.loc 3 591 2 view .LVU1015
.LBB2015:
	.loc 3 591 26 view .LVU1016
	.loc 3 591 153 view .LVU1017
	.loc 3 591 156 is_stmt 0 view .LVU1018
	ldr	r3, [r0, #24]!	@ unaligned
.LVL245:
	.loc 3 591 156 view .LVU1019
.LBE2015:
	.loc 3 593 165 view .LVU1020
	cbnz	r3, .L136
.LBB2016:
	.loc 3 592 20 is_stmt 1 view .LVU1021
.LVL246:
	.loc 3 592 147 view .LVU1022
	.loc 3 592 150 is_stmt 0 view .LVU1023
	ldr	r3, [r0, #4]	@ unaligned
.LBE2016:
	.loc 3 591 171 view .LVU1024
	cbnz	r3, .L137
.LBB2017:
	.loc 3 593 20 is_stmt 1 view .LVU1025
.LVL247:
	.loc 3 593 147 view .LVU1026
	.loc 3 593 150 is_stmt 0 view .LVU1027
	ldr	r3, [r0, #8]	@ unaligned
.LBE2017:
	.loc 3 592 165 view .LVU1028
	cbnz	r3, .L138
.LBB2018:
	.loc 3 594 36 is_stmt 1 view .LVU1029
.LVL248:
	.loc 3 594 163 view .LVU1030
	.loc 3 594 166 is_stmt 0 view .LVU1031
	ldr	r2, [r0, #12]	@ unaligned
.LBE2018:
.LBB2019:
	.loc 3 594 214 is_stmt 1 view .LVU1032
.LVL249:
	.loc 3 594 341 view .LVU1033
.LBE2019:
	.loc 3 594 355 is_stmt 0 view .LVU1034
	lsrs	r3, r2, #8
	.loc 3 594 361 view .LVU1035
	and	r3, r3, #65280
	.loc 3 594 192 view .LVU1036
	orr	r3, r3, r2, lsr #24
.LBB2020:
	.loc 3 594 393 is_stmt 1 view .LVU1037
.LVL250:
	.loc 3 594 520 view .LVU1038
.LBE2020:
	.loc 3 594 544 is_stmt 0 view .LVU1039
	lsls	r1, r2, #8
	and	r1, r1, #16711680
	.loc 3 594 371 view .LVU1040
	orrs	r3, r3, r1
.LBB2021:
	.loc 3 594 572 is_stmt 1 view .LVU1041
.LVL251:
	.loc 3 594 699 view .LVU1042
.LBE2021:
	.loc 3 594 550 is_stmt 0 view .LVU1043
	orr	r3, r3, r2, lsl #24
	.loc 3 593 165 view .LVU1044
	cmp	r3, #1
	beq	.L139
	movs	r3, #0
	b	.L132
.LVL252:
.L136:
	.loc 3 593 165 view .LVU1045
	movs	r3, #0
.L132:
.LVL253:
	.loc 3 593 165 view .LVU1046
.LBE2014:
.LBE2013:
	.loc 1 840 6 view .LVU1047
	mov	r4, r3
.LVL254:
	.loc 1 840 6 view .LVU1048
	cbz	r3, .L144
.LVL255:
.L133:
	.loc 1 844 4 is_stmt 1 view .LVU1049
	.loc 1 844 10 is_stmt 0 view .LVU1050
	movs	r4, #1
	b	.L131
.LVL256:
.L137:
.LBB2023:
.LBB2022:
	.loc 3 593 165 view .LVU1051
	movs	r3, #0
	b	.L132
.LVL257:
.L138:
	.loc 3 593 165 view .LVU1052
	movs	r3, #0
	b	.L132
.LVL258:
.L139:
	.loc 3 593 165 view .LVU1053
	movs	r3, #1
	b	.L132
.LVL259:
.L144:
	.loc 3 593 165 view .LVU1054
.LBE2022:
.LBE2023:
	.loc 11 973 2 is_stmt 1 view .LVU1055
.LBB2024:
.LBI2024:
	.loc 3 622 19 view .LVU1056
.LBB2025:
	.loc 3 624 2 view .LVU1057
	.loc 3 624 9 is_stmt 0 view .LVU1058
	movs	r1, #0
	bl	net_if_ipv6_addr_lookup
.LVL260:
	.loc 3 624 9 view .LVU1059
.LBE2025:
.LBE2024:
	.loc 1 841 76 view .LVU1060
	cmp	r0, #0
	bne	.L133
	b	.L131
	.cfi_endproc
.LFE971:
	.size	is_destination_local, .-is_destination_local
	.section	.rodata.tcp_pkt_linearize.str1.4,"aMS",%progbits,1
	.align	2
.LC12:
	.ascii	"Insufficient packet len=%zd (pos+len=%zu)\000"
	.section	.text.tcp_pkt_linearize,"ax",%progbits
	.align	1
	.syntax unified
	.thumb
	.thumb_func
	.fpu fpv4-sp-d16
	.type	tcp_pkt_linearize, %function
tcp_pkt_linearize:
.LVL261:
.LFB947:
	.loc 1 64 1 is_stmt 1 view -0
	.cfi_startproc
	@ args = 0, pretend = 0, frame = 8
	@ frame_needed = 1, uses_anonymous_args = 0
	.loc 1 64 1 is_stmt 0 view .LVU1062
	push	{r4, r5, r6, r7, r8, r9, r10, fp, lr}
	.cfi_def_cfa_offset 36
	.cfi_offset 4, -36
	.cfi_offset 5, -32
	.cfi_offset 6, -28
	.cfi_offset 7, -24
	.cfi_offset 8, -20
	.cfi_offset 9, -16
	.cfi_offset 10, -12
	.cfi_offset 11, -8
	.cfi_offset 14, -4
	sub	sp, sp, #20
	.cfi_def_cfa_offset 56
	add	r7, sp, #8
	.cfi_def_cfa 7, 48
	mov	r9, r0
	mov	r10, r1
	mov	r5, r2
	.loc 1 65 2 is_stmt 1 view .LVU1063
	.loc 1 65 24 is_stmt 0 view .LVU1064
	ldr	r6, [r0, #12]
.LVL262:
	.loc 1 65 50 view .LVU1065
	ldr	r4, [r6]
.LVL263:
	.loc 1 66 2 is_stmt 1 view .LVU1066
	.loc 1 67 2 view .LVU1067
	.loc 1 69 2 view .LVU1068
.LBB2026:
.LBI2026:
	.loc 11 961 22 view .LVU1069
.LBB2027:
	.loc 11 963 2 view .LVU1070
	.loc 11 963 9 is_stmt 0 view .LVU1071
	ldr	r0, [r0, #8]
.LVL264:
.LBB2028:
.LBI2028:
	.loc 2 2465 22 is_stmt 1 view .LVU1072
.LBB2029:
	.loc 2 2467 2 view .LVU1073
	.loc 2 2469 2 view .LVU1074
	.loc 2 2469 8 is_stmt 0 view .LVU1075
	mov	r3, r0
	.loc 2 2467 9 view .LVU1076
	movs	r2, #0
.LVL265:
.L146:
	.loc 2 2469 8 is_stmt 1 view .LVU1077
	cbz	r3, .L173
	.loc 2 2470 3 view .LVU1078
	.loc 2 2470 15 is_stmt 0 view .LVU1079
	ldrh	r1, [r3, #12]
	.loc 2 2470 9 view .LVU1080
	add	r2, r2, r1
.LVL266:
	.loc 2 2471 3 is_stmt 1 view .LVU1081
	.loc 2 2471 7 is_stmt 0 view .LVU1082
	ldr	r3, [r3]
.LVL267:
	.loc 2 2471 7 view .LVU1083
	b	.L146
.L173:
	.loc 2 2474 2 is_stmt 1 view .LVU1084
.LVL268:
	.loc 2 2474 2 is_stmt 0 view .LVU1085
.LBE2029:
.LBE2028:
.LBE2027:
.LBE2026:
	.loc 1 69 34 view .LVU1086
	add	r3, r10, r5
	.loc 1 69 5 view .LVU1087
	cmp	r3, r2
	bhi	.L148
	.loc 1 76 2 is_stmt 1 view .LVU1088
.LVL269:
	.loc 10 405 2 view .LVU1089
	.loc 10 106 1 view .LVU1090
	.loc 10 108 1 view .LVU1091
	.loc 10 111 2 view .LVU1092
	.loc 10 115 2 view .LVU1093
	.loc 10 117 2 view .LVU1094
	.loc 10 133 2 view .LVU1095
	.loc 10 140 9 view .LVU1096
	.loc 10 141 3 view .LVU1097
	.loc 10 144 4 view .LVU1098
	.loc 1 76 8 is_stmt 0 view .LVU1099
	mov	r2, #1000
	movs	r3, #0
	mov	r0, r9
	bl	net_pkt_get_frag
.LVL270:
	.loc 1 78 2 is_stmt 1 view .LVU1100
	.loc 1 78 5 is_stmt 0 view .LVU1101
	mov	r8, r0
	cmp	r0, #0
	beq	.L162
	.loc 1 78 17 discriminator 1 view .LVU1102
	ldrh	r1, [r0, #14]
	.loc 1 78 11 discriminator 1 view .LVU1103
	cmp	r5, r1
	bhi	.L162
	.loc 1 86 2 is_stmt 1 view .LVU1104
	.loc 1 86 23 is_stmt 0 view .LVU1105
	mov	fp, r0
	ldr	r0, [fp, #8]!
.LVL271:
	.loc 1 86 2 view .LVU1106
	ldr	r2, [r9, #8]
	str	r5, [sp]
	mov	r3, r10
	bl	net_buf_linearize
.LVL272:
	.loc 1 87 2 is_stmt 1 view .LVU1107
.LBB2030:
.LBI2030:
	.loc 2 1504 21 view .LVU1108
.LBB2031:
	.loc 2 1506 2 view .LVU1109
	.loc 2 1506 9 is_stmt 0 view .LVU1110
	mov	r1, r5
	mov	r0, fp
	bl	net_buf_simple_add
.LVL273:
	.loc 2 1506 9 view .LVU1111
.LBE2031:
.LBE2030:
	.loc 1 89 2 is_stmt 1 view .LVU1112
	.loc 1 89 14 is_stmt 0 view .LVU1113
	ldrh	r2, [r6, #12]
	.loc 1 89 34 view .LVU1114
	ldr	r3, [r9, #16]
	.loc 1 89 52 view .LVU1115
	ldr	r1, [r9, #12]
	.loc 1 89 56 view .LVU1116
	ldr	r1, [r1, #8]
	.loc 1 89 39 view .LVU1117
	subs	r3, r3, r1
	.loc 1 89 20 view .LVU1118
	subs	r3, r2, r3
.LVL274:
	.loc 1 90 2 is_stmt 1 view .LVU1119
	.loc 1 90 7 is_stmt 0 view .LVU1120
	subs	r5, r5, r3
.LVL275:
	.loc 1 92 2 is_stmt 1 view .LVU1121
	.loc 1 92 13 is_stmt 0 view .LVU1122
	subs	r3, r2, r3
.LVL276:
	.loc 1 92 13 view .LVU1123
	strh	r3, [r6, #12]	@ movhi
.LVL277:
	.loc 1 94 2 is_stmt 1 view .LVU1124
	.loc 1 94 8 is_stmt 0 view .LVU1125
	b	.L165
.LVL278:
.L150:
.LBB2032:
.LBB2033:
.LBB2034:
.LBB2035:
.LBB2036:
.LBB2037:
.LBB2038:
.LBB2039:
.LBB2040:
	.loc 2 2470 3 is_stmt 1 view .LVU1126
	.loc 2 2471 3 view .LVU1127
	.loc 2 2471 7 is_stmt 0 view .LVU1128
	ldr	r0, [r0]
.LVL279:
.L148:
	.loc 2 2469 8 is_stmt 1 view .LVU1129
	cmp	r0, #0
	bne	.L150
	.loc 2 2474 2 view .LVU1130
.LVL280:
	.loc 2 2474 2 is_stmt 0 view .LVU1131
.LBE2040:
.LBE2039:
.LBE2038:
	.loc 1 70 0 is_stmt 1 view .LVU1132
	.loc 1 70 0 view .LVU1133
	.loc 1 70 0 is_stmt 0 view .LVU1134
.LBE2037:
	.loc 1 70 0 is_stmt 1 view .LVU1135
	.loc 1 70 0 view .LVU1136
	.loc 1 70 0 view .LVU1137
	.loc 1 70 0 view .LVU1138
	.loc 1 70 0 view .LVU1139
	.loc 1 70 0 is_stmt 0 view .LVU1140
.LBE2036:
	.loc 1 70 0 is_stmt 1 view .LVU1141
	.loc 1 70 0 view .LVU1142
.LBE2035:
.LBE2034:
.LBE2033:
.LBE2032:
	.loc 1 70 0 view .LVU1143
	.loc 1 70 0 view .LVU1144
	.loc 1 70 0 view .LVU1145
	.loc 1 70 0 view .LVU1146
	.loc 1 70 0 view .LVU1147
	.loc 1 70 0 view .LVU1148
	.loc 1 70 0 view .LVU1149
	.loc 1 70 0 view .LVU1150
	.loc 1 70 0 view .LVU1151
	.loc 1 70 0 view .LVU1152
	.loc 1 70 0 view .LVU1153
	.loc 1 70 0 view .LVU1154
.LBB2078:
.LBB2073:
.LBB2068:
.LBB2041:
	.loc 1 70 0 view .LVU1155
	.loc 1 70 0 view .LVU1156
	.loc 1 70 0 view .LVU1157
	.loc 1 70 0 view .LVU1158
	.loc 1 70 16 view .LVU1159
	.loc 1 70 16 is_stmt 0 view .LVU1160
.LBE2041:
	.loc 1 70 11 is_stmt 1 view .LVU1161
	.loc 1 70 16 view .LVU1162
	.loc 1 70 39 view .LVU1163
	.loc 1 70 75 is_stmt 0 view .LVU1164
	mov	r4, sp
.LVL281:
	.loc 1 70 159 is_stmt 1 view .LVU1165
	.loc 1 70 171 is_stmt 0 view .LVU1166
	sub	sp, sp, #32
	add	r0, sp, #8
.LVL282:
	.loc 1 70 285 is_stmt 1 view .LVU1167
	.loc 1 70 488 view .LVU1168
	.loc 1 70 5 view .LVU1169
	.loc 1 70 7 view .LVU1170
	.loc 1 70 20 view .LVU1171
.LBB2042:
	.loc 1 70 3 view .LVU1172
	.loc 1 70 217 view .LVU1173
	.loc 1 70 2 view .LVU1174
	.loc 1 70 31 view .LVU1175
	.loc 1 70 60 view .LVU1176
	.loc 1 70 80 view .LVU1177
	.loc 1 70 104 view .LVU1178
	.loc 1 70 12 is_stmt 0 view .LVU1179
	mov	r2, sp
	adds	r6, r2, #20
.LVL283:
	.loc 1 70 12 view .LVU1180
	beq	.L168
	mov	ip, #16
.L151:
	.loc 1 70 13 is_stmt 1 discriminator 94 view .LVU1181
.LVL284:
	.loc 1 70 55 discriminator 94 view .LVU1182
	.loc 1 70 97 discriminator 94 view .LVU1183
	.loc 1 70 142 discriminator 94 view .LVU1184
.LBB2043:
	.loc 1 70 147 discriminator 94 view .LVU1185
	.loc 1 70 412 discriminator 94 view .LVU1186
	.loc 1 70 418 discriminator 94 view .LVU1187
	.loc 1 70 1583 discriminator 94 view .LVU1188
.LBE2043:
.LBE2042:
.LBE2068:
.LBE2073:
.LBE2078:
	.loc 1 70 1607 discriminator 94 view .LVU1189
	.loc 1 70 1675 discriminator 94 view .LVU1190
	.loc 1 70 1800 discriminator 94 view .LVU1191
.LBB2079:
.LBB2074:
.LBB2069:
.LBB2064:
.LBB2044:
	.loc 1 70 1815 discriminator 94 view .LVU1192
	.loc 1 70 2113 discriminator 94 view .LVU1193
	.loc 1 70 2161 discriminator 94 view .LVU1194
	.loc 1 70 2164 is_stmt 0 discriminator 94 view .LVU1195
	cbz	r6, .L152
	.loc 1 70 2171 discriminator 98 view .LVU1196
	cmp	ip, #4
	ble	.L152
	.loc 1 70 2199 is_stmt 1 discriminator 103 view .LVU1197
	.loc 1 70 2204 discriminator 103 view .LVU1198
	.loc 1 70 2853 discriminator 103 view .LVU1199
	.loc 1 70 3492 is_stmt 0 discriminator 103 view .LVU1200
	ldr	r2, .L177
	str	r2, [r0, #16]
.LVL285:
.L152:
	.loc 1 70 3549 is_stmt 1 discriminator 104 view .LVU1201
	.loc 1 70 3556 discriminator 104 view .LVU1202
	.loc 1 70 3579 discriminator 104 view .LVU1203
	.loc 1 70 3579 is_stmt 0 discriminator 104 view .LVU1204
.LBE2044:
	.loc 1 70 3613 is_stmt 1 discriminator 104 view .LVU1205
	.loc 1 70 3619 discriminator 104 view .LVU1206
.LBB2045:
	.loc 1 70 3624 discriminator 104 view .LVU1207
	.loc 1 70 3866 discriminator 104 view .LVU1208
	.loc 1 70 3872 discriminator 104 view .LVU1209
	.loc 1 70 0 discriminator 104 view .LVU1210
.LBB2046:
	.loc 1 70 0 discriminator 104 view .LVU1211
.LBB2047:
.LBI2047:
	.loc 11 961 22 discriminator 104 view .LVU1212
.LBB2048:
	.loc 11 963 2 discriminator 104 view .LVU1213
	.loc 11 963 9 is_stmt 0 discriminator 104 view .LVU1214
	ldr	r1, [r9, #8]
.LVL286:
.LBB2049:
.LBI2049:
	.loc 2 2465 22 is_stmt 1 discriminator 104 view .LVU1215
.LBB2050:
	.loc 2 2467 2 discriminator 104 view .LVU1216
	.loc 2 2469 2 discriminator 104 view .LVU1217
	.loc 2 2469 8 is_stmt 0 discriminator 104 view .LVU1218
	mov	r2, r1
	b	.L153
.LVL287:
.L168:
	.loc 2 2469 8 discriminator 104 view .LVU1219
.LBE2050:
.LBE2049:
.LBE2048:
.LBE2047:
.LBE2046:
.LBE2045:
	.loc 1 70 12 view .LVU1220
	mvn	ip, #-2147483648
	b	.L151
.LVL288:
.L154:
.LBB2059:
.LBB2055:
.LBB2054:
.LBB2053:
.LBB2052:
.LBB2051:
	.loc 2 2470 3 is_stmt 1 view .LVU1221
	.loc 2 2471 3 view .LVU1222
	.loc 2 2471 7 is_stmt 0 view .LVU1223
	ldr	r2, [r2]
.LVL289:
.L153:
	.loc 2 2469 8 is_stmt 1 view .LVU1224
	cmp	r2, #0
	bne	.L154
	.loc 2 2474 2 view .LVU1225
.LVL290:
	.loc 2 2474 2 is_stmt 0 view .LVU1226
.LBE2051:
.LBE2052:
.LBE2053:
.LBE2054:
	.loc 1 70 0 is_stmt 1 view .LVU1227
	.loc 1 70 0 view .LVU1228
	.loc 1 70 0 is_stmt 0 view .LVU1229
.LBE2055:
	.loc 1 70 0 is_stmt 1 view .LVU1230
	.loc 1 70 0 view .LVU1231
	cbz	r6, .L155
	.loc 1 70 0 is_stmt 0 discriminator 112 view .LVU1232
	cmp	ip, #8
	bgt	.L169
.LVL291:
.L155:
	.loc 1 70 0 is_stmt 1 discriminator 118 view .LVU1233
	.loc 1 70 0 discriminator 118 view .LVU1234
	.loc 1 70 0 discriminator 118 view .LVU1235
	.loc 1 70 0 is_stmt 0 discriminator 118 view .LVU1236
.LBE2059:
	.loc 1 70 0 is_stmt 1 discriminator 118 view .LVU1237
	.loc 1 70 0 discriminator 118 view .LVU1238
.LBB2060:
	.loc 1 70 0 discriminator 118 view .LVU1239
	.loc 1 70 0 discriminator 118 view .LVU1240
	.loc 1 70 0 discriminator 118 view .LVU1241
	.loc 1 70 0 discriminator 118 view .LVU1242
.LBE2060:
.LBE2064:
.LBE2069:
.LBE2074:
.LBE2079:
	.loc 1 70 0 discriminator 118 view .LVU1243
	.loc 1 70 0 discriminator 118 view .LVU1244
	.loc 1 70 0 discriminator 118 view .LVU1245
.LBB2080:
.LBB2075:
.LBB2070:
.LBB2065:
.LBB2061:
	.loc 1 70 0 discriminator 118 view .LVU1246
	.loc 1 70 0 discriminator 118 view .LVU1247
	cbz	r6, .L158
	.loc 1 70 0 is_stmt 0 discriminator 126 view .LVU1248
	cmp	ip, #12
	ble	.L158
	.loc 1 70 0 is_stmt 1 discriminator 131 view .LVU1249
	.loc 1 70 0 discriminator 131 view .LVU1250
	.loc 1 70 0 discriminator 131 view .LVU1251
	str	r3, [r0, #24]
.L158:
	.loc 1 70 0 discriminator 132 view .LVU1252
	.loc 1 70 0 discriminator 132 view .LVU1253
.LVL292:
	.loc 1 70 0 discriminator 132 view .LVU1254
	.loc 1 70 0 is_stmt 0 discriminator 132 view .LVU1255
.LBE2061:
	.loc 1 70 0 is_stmt 1 discriminator 132 view .LVU1256
	.loc 1 70 0 discriminator 132 view .LVU1257
	.loc 1 70 0 discriminator 132 view .LVU1258
	.loc 1 70 0 discriminator 132 view .LVU1259
	.loc 1 70 2 is_stmt 0 discriminator 132 view .LVU1260
	cmp	ip, #15
	ble	.L170
	.loc 1 70 2 view .LVU1261
	movs	r3, #16
.LVL293:
.L159:
	.loc 1 70 16 is_stmt 1 discriminator 144 view .LVU1262
	.loc 1 70 19 is_stmt 0 discriminator 144 view .LVU1263
	cbz	r6, .L160
.LBB2062:
	.loc 1 70 29 is_stmt 1 discriminator 145 view .LVU1264
	.loc 1 70 50 is_stmt 0 discriminator 145 view .LVU1265
	movs	r2, #0
	strh	r2, [r7, #5]	@ unaligned
	strb	r2, [r7, #7]
	movs	r1, #4
	strb	r1, [r7, #4]
	strb	r2, [r7, #6]
	.loc 1 70 175 is_stmt 1 discriminator 145 view .LVU1266
	.loc 1 70 185 is_stmt 0 discriminator 145 view .LVU1267
	ldr	r2, [r7, #4]
	str	r2, [r0, #12]
.L160:
	.loc 1 70 185 discriminator 145 view .LVU1268
.LBE2062:
.LBE2065:
	.loc 1 70 11 is_stmt 1 discriminator 2 view .LVU1269
	.loc 1 70 18 discriminator 2 view .LVU1270
	.loc 1 70 39 is_stmt 0 discriminator 2 view .LVU1271
	movs	r2, #0
.LVL294:
	.loc 1 70 39 discriminator 2 view .LVU1272
	bfc	r2, #0, #1
.LVL295:
	.loc 1 70 39 discriminator 2 view .LVU1273
	bfc	r2, #1, #1
	bfc	r2, #2, #1
	bfc	r2, #3, #3
	movs	r1, #1
	bfi	r2, r1, #6, #3
	.loc 1 70 124 discriminator 2 view .LVU1274
	and	r3, r3, #1012
.LVL296:
	.loc 1 70 39 discriminator 2 view .LVU1275
	bfi	r2, r3, #9, #10
	.loc 1 70 174 is_stmt 1 discriminator 2 view .LVU1276
	movs	r3, #0
	ubfx	r2, r2, #0, #19
.LVL297:
	.loc 1 70 174 is_stmt 0 discriminator 2 view .LVU1277
	ldr	r1, .L177+4
	bl	z_log_msg2_finalize
.LVL298:
	.loc 1 70 174 discriminator 2 view .LVU1278
	mov	sp, r4
.LVL299:
	.loc 1 70 174 discriminator 2 view .LVU1279
.LBE2070:
	.loc 1 70 13 is_stmt 1 discriminator 2 view .LVU1280
	.loc 1 70 18 discriminator 2 view .LVU1281
	.loc 1 70 58 discriminator 2 view .LVU1282
.LBE2075:
	.loc 1 70 13 discriminator 2 view .LVU1283
	.loc 1 70 20 discriminator 2 view .LVU1284
	.loc 1 70 20 is_stmt 0 discriminator 2 view .LVU1285
.LBE2080:
	.loc 1 70 120 is_stmt 1 discriminator 2 view .LVU1286
	.loc 1 72 3 discriminator 2 view .LVU1287
	.loc 1 73 3 discriminator 2 view .LVU1288
	.loc 1 72 7 is_stmt 0 discriminator 2 view .LVU1289
	mvn	r0, #21
	.loc 1 73 3 discriminator 2 view .LVU1290
	b	.L161
.LVL300:
.L169:
.LBB2081:
.LBB2076:
.LBB2071:
.LBB2066:
.LBB2063:
.LBB2056:
.LBB2057:
.LBB2058:
	.loc 2 2467 9 view .LVU1291
	movs	r2, #0
.LVL301:
.L156:
	.loc 2 2469 8 is_stmt 1 view .LVU1292
	cbz	r1, .L174
	.loc 2 2470 3 view .LVU1293
	.loc 2 2470 15 is_stmt 0 view .LVU1294
	ldrh	r5, [r1, #12]
	.loc 2 2470 9 view .LVU1295
	add	r2, r2, r5
.LVL302:
	.loc 2 2471 3 is_stmt 1 view .LVU1296
	.loc 2 2471 7 is_stmt 0 view .LVU1297
	ldr	r1, [r1]
.LVL303:
	.loc 2 2471 7 view .LVU1298
	b	.L156
.L174:
	.loc 2 2474 2 is_stmt 1 view .LVU1299
.LVL304:
	.loc 2 2474 2 is_stmt 0 view .LVU1300
.LBE2058:
.LBE2057:
.LBE2056:
	.loc 1 70 0 view .LVU1301
	str	r2, [r0, #20]
	b	.L155
.LVL305:
.L170:
	.loc 1 70 0 view .LVU1302
.LBE2063:
	.loc 1 70 2 view .LVU1303
	mvn	r3, #27
.LVL306:
	.loc 1 70 2 view .LVU1304
	b	.L159
.LVL307:
.L162:
	.loc 1 70 2 view .LVU1305
.LBE2066:
.LBE2071:
.LBE2076:
.LBE2081:
	.loc 1 79 3 is_stmt 1 view .LVU1306
	.loc 1 79 6 is_stmt 0 view .LVU1307
	cmp	r8, #0
	beq	.L164
	.loc 1 80 4 is_stmt 1 view .LVU1308
	mov	r0, r8
.LVL308:
	.loc 1 80 4 is_stmt 0 view .LVU1309
	bl	net_buf_unref
.LVL309:
.L164:
	.loc 1 82 3 is_stmt 1 view .LVU1310
	.loc 1 83 3 view .LVU1311
	.loc 1 82 7 is_stmt 0 view .LVU1312
	mvn	r0, #104
	.loc 1 83 3 view .LVU1313
	b	.L161
.LVL310:
.L176:
.LBB2082:
	.loc 1 102 4 is_stmt 1 view .LVU1314
	mov	r0, r4
	bl	net_buf_unref
.LVL311:
.L166:
	.loc 1 102 4 is_stmt 0 view .LVU1315
.LBE2082:
.LBB2085:
.LBB2077:
.LBB2072:
.LBB2067:
	.loc 1 70 2 view .LVU1316
	mov	r4, r9
.LVL312:
.L165:
	.loc 1 70 2 view .LVU1317
.LBE2067:
.LBE2072:
.LBE2077:
.LBE2085:
	.loc 1 94 8 is_stmt 1 view .LVU1318
	cbz	r5, .L175
.LBB2086:
	.loc 1 95 3 view .LVU1319
	.loc 1 95 30 is_stmt 0 view .LVU1320
	ldrh	r1, [r4, #12]
	.loc 1 95 10 view .LVU1321
	cmp	r1, r5
	it	cs
	movcs	r1, r5
.LVL313:
	.loc 1 96 3 is_stmt 1 view .LVU1322
	.loc 1 98 3 view .LVU1323
	.loc 1 98 8 is_stmt 0 view .LVU1324
	subs	r5, r5, r1
.LVL314:
	.loc 1 99 3 is_stmt 1 view .LVU1325
.LBB2083:
.LBI2083:
	.loc 2 2071 21 view .LVU1326
.LBB2084:
	.loc 2 2073 2 view .LVU1327
	.loc 2 2073 9 is_stmt 0 view .LVU1328
	add	r0, r4, #8
	bl	net_buf_simple_pull
.LVL315:
	.loc 2 2073 9 view .LVU1329
.LBE2084:
.LBE2083:
	.loc 1 100 3 is_stmt 1 view .LVU1330
	.loc 1 100 8 is_stmt 0 view .LVU1331
	ldr	r9, [r4]
.LVL316:
	.loc 1 101 3 is_stmt 1 view .LVU1332
	.loc 1 101 13 is_stmt 0 view .LVU1333
	ldrh	r3, [r4, #12]
	.loc 1 101 6 view .LVU1334
	cmp	r3, #0
	bne	.L166
	b	.L176
.LVL317:
.L175:
	.loc 1 101 6 view .LVU1335
.LBE2086:
	.loc 1 107 2 is_stmt 1 view .LVU1336
	.loc 1 107 13 is_stmt 0 view .LVU1337
	str	r4, [r8]
	.loc 1 108 2 is_stmt 1 view .LVU1338
	.loc 1 108 15 is_stmt 0 view .LVU1339
	str	r8, [r6]
	.loc 1 66 6 view .LVU1340
	movs	r0, #0
.LVL318:
.L161:
	.loc 1 110 2 is_stmt 1 view .LVU1341
	.loc 1 111 1 is_stmt 0 view .LVU1342
	adds	r7, r7, #12
	.cfi_def_cfa_offset 36
	mov	sp, r7
	.cfi_def_cfa_register 13
	@ sp needed
	pop	{r4, r5, r6, r7, r8, r9, r10, fp, pc}
.LVL319:
.L178:
	.loc 1 111 1 view .LVU1343
	.align	2
.L177:
	.word	.LC12
	.word	.LANCHOR3
	.cfi_endproc
.LFE947:
	.size	tcp_pkt_linearize, .-tcp_pkt_linearize
	.section	.text.th_get,"ax",%progbits
	.align	1
	.syntax unified
	.thumb
	.thumb_func
	.fpu fpv4-sp-d16
	.type	th_get, %function
th_get:
.LVL320:
.LFB948:
	.loc 1 114 1 is_stmt 1 view -0
	.cfi_startproc
	@ args = 0, pretend = 0, frame = 0
	@ frame_needed = 0, uses_anonymous_args = 0
	.loc 1 114 1 is_stmt 0 view .LVU1345
	push	{r3, r4, r5, lr}
	.cfi_def_cfa_offset 16
	.cfi_offset 3, -16
	.cfi_offset 4, -12
	.cfi_offset 5, -8
	.cfi_offset 14, -4
	mov	r4, r0
	.loc 1 115 2 is_stmt 1 view .LVU1346
.LVL321:
.LBB2087:
.LBI2087:
	.loc 11 371 23 view .LVU1347
.LBB2088:
	.loc 11 373 2 view .LVU1348
	.loc 11 373 12 is_stmt 0 view .LVU1349
	ldrb	r5, [r0, #72]	@ zero_extendqisi2
.LVL322:
	.loc 11 373 12 view .LVU1350
.LBE2088:
.LBE2087:
.LBB2089:
.LBI2089:
	.loc 11 625 24 is_stmt 1 view .LVU1351
.LBB2090:
	.loc 11 628 2 view .LVU1352
	.loc 11 628 12 is_stmt 0 view .LVU1353
	ldrh	r3, [r0, #80]
.LVL323:
	.loc 11 628 12 view .LVU1354
.LBE2090:
.LBE2089:
	.loc 1 115 42 view .LVU1355
	add	r5, r5, r3
.LVL324:
	.loc 1 116 2 is_stmt 1 view .LVU1356
.L180:
	.loc 1 118 2 view .LVU1357
	mov	r0, r4
	bl	net_pkt_cursor_init
.LVL325:
	.loc 1 119 2 view .LVU1358
.LBB2091:
.LBI2091:
	.loc 11 1205 20 view .LVU1359
.LBB2092:
	.loc 11 1207 2 view .LVU1360
	.loc 11 1207 17 is_stmt 0 view .LVU1361
	ldrb	r3, [r4, #73]	@ zero_extendqisi2
	orr	r3, r3, #1
	strb	r3, [r4, #73]
.LVL326:
	.loc 11 1207 17 view .LVU1362
.LBE2092:
.LBE2091:
	.loc 1 121 2 is_stmt 1 view .LVU1363
	.loc 1 121 6 is_stmt 0 view .LVU1364
	mov	r1, r5
	mov	r0, r4
	bl	net_pkt_skip
.LVL327:
	.loc 1 121 5 view .LVU1365
	cbnz	r0, .L183
	.loc 1 125 2 is_stmt 1 view .LVU1366
	.loc 1 125 7 is_stmt 0 view .LVU1367
	movs	r1, #20
	mov	r0, r4
	bl	net_pkt_is_contiguous
.LVL328:
	.loc 1 125 5 view .LVU1368
	cbnz	r0, .L182
	.loc 1 126 3 is_stmt 1 view .LVU1369
	.loc 1 126 7 is_stmt 0 view .LVU1370
	movs	r2, #20
	mov	r1, r5
	mov	r0, r4
	bl	tcp_pkt_linearize
.LVL329:
	.loc 1 126 6 view .LVU1371
	cmp	r0, #0
	bge	.L180
	.loc 1 116 17 view .LVU1372
	movs	r0, #0
.L181:
	.loc 1 135 2 is_stmt 1 view .LVU1373
	.loc 1 135 9 is_stmt 0 view .LVU1374
	b	.L179
.L182:
	.loc 1 133 2 is_stmt 1 view .LVU1375
.LVL330:
.LBB2093:
.LBI2093:
	.loc 11 1838 21 view .LVU1376
.LBB2094:
	.loc 11 1840 2 view .LVU1377
	.loc 11 1840 20 is_stmt 0 view .LVU1378
	ldr	r0, [r4, #16]
.LVL331:
	.loc 11 1840 20 view .LVU1379
	b	.L179
.LVL332:
.L183:
	.loc 11 1840 20 view .LVU1380
.LBE2094:
.LBE2093:
	.loc 1 116 17 view .LVU1381
	movs	r0, #0
.LVL333:
.L179:
	.loc 1 136 1 view .LVU1382
	pop	{r3, r4, r5, pc}
	.loc 1 136 1 view .LVU1383
	.cfi_endproc
.LFE948:
	.size	th_get, .-th_get
	.section	.text.tcp_data_len,"ax",%progbits
	.align	1
	.syntax unified
	.thumb
	.thumb_func
	.fpu fpv4-sp-d16
	.type	tcp_data_len, %function
tcp_data_len:
.LVL334:
.LFB952:
	.loc 1 241 1 is_stmt 1 view -0
	.cfi_startproc
	@ args = 0, pretend = 0, frame = 0
	@ frame_needed = 0, uses_anonymous_args = 0
	.loc 1 241 1 is_stmt 0 view .LVU1385
	push	{r3, r4, r5, lr}
	.cfi_def_cfa_offset 16
	.cfi_offset 3, -16
	.cfi_offset 4, -12
	.cfi_offset 5, -8
	.cfi_offset 14, -4
	mov	r5, r0
	.loc 1 242 2 is_stmt 1 view .LVU1386
	.loc 1 242 22 is_stmt 0 view .LVU1387
	bl	th_get
.LVL335:
	.loc 1 243 2 is_stmt 1 view .LVU1388
	.loc 1 243 33 is_stmt 0 view .LVU1389
	ldrb	r4, [r0, #12]	@ zero_extendqisi2
	lsrs	r4, r4, #4
	.loc 1 243 43 view .LVU1390
	subs	r4, r4, #5
	.loc 1 243 48 view .LVU1391
	lsls	r4, r4, #2
.LVL336:
	.loc 1 244 2 is_stmt 1 view .LVU1392
.LBB2095:
.LBI2095:
	.loc 11 961 22 view .LVU1393
.LBB2096:
	.loc 11 963 2 view .LVU1394
	.loc 11 963 9 is_stmt 0 view .LVU1395
	ldr	r3, [r5, #8]
.LVL337:
.LBB2097:
.LBI2097:
	.loc 2 2465 22 is_stmt 1 view .LVU1396
.LBB2098:
	.loc 2 2467 2 view .LVU1397
	.loc 2 2469 2 view .LVU1398
	.loc 2 2467 9 is_stmt 0 view .LVU1399
	movs	r2, #0
.LVL338:
.L187:
	.loc 2 2469 8 is_stmt 1 view .LVU1400
	cbz	r3, .L190
	.loc 2 2470 3 view .LVU1401
	.loc 2 2470 15 is_stmt 0 view .LVU1402
	ldrh	r1, [r3, #12]
	.loc 2 2470 9 view .LVU1403
	add	r2, r2, r1
.LVL339:
	.loc 2 2471 3 is_stmt 1 view .LVU1404
	.loc 2 2471 7 is_stmt 0 view .LVU1405
	ldr	r3, [r3]
.LVL340:
	.loc 2 2471 7 view .LVU1406
	b	.L187
.L190:
	.loc 2 2474 2 is_stmt 1 view .LVU1407
.LVL341:
	.loc 2 2474 2 is_stmt 0 view .LVU1408
.LBE2098:
.LBE2097:
.LBE2096:
.LBE2095:
.LBB2099:
.LBI2099:
	.loc 11 371 23 is_stmt 1 view .LVU1409
.LBB2100:
	.loc 11 373 2 view .LVU1410
	.loc 11 373 12 is_stmt 0 view .LVU1411
	ldrb	r0, [r5, #72]	@ zero_extendqisi2
.LVL342:
	.loc 11 373 12 view .LVU1412
.LBE2100:
.LBE2099:
	.loc 1 244 33 view .LVU1413
	subs	r2, r2, r0
.LVL343:
.LBB2101:
.LBI2101:
	.loc 11 625 24 is_stmt 1 view .LVU1414
.LBB2102:
	.loc 11 628 2 view .LVU1415
	.loc 11 628 12 is_stmt 0 view .LVU1416
	ldrh	r0, [r5, #80]
.LVL344:
	.loc 11 628 12 view .LVU1417
.LBE2102:
.LBE2101:
	.loc 1 244 59 view .LVU1418
	subs	r0, r2, r0
	.loc 1 245 42 view .LVU1419
	subs	r0, r0, r4
	subs	r0, r0, #20
.LVL345:
	.loc 1 247 2 is_stmt 1 view .LVU1420
	.loc 1 248 1 is_stmt 0 view .LVU1421
	bic	r0, r0, r0, asr #31
.LVL346:
	.loc 1 248 1 view .LVU1422
	pop	{r3, r4, r5, pc}
	.loc 1 248 1 view .LVU1423
	.cfi_endproc
.LFE952:
	.size	tcp_data_len, .-tcp_data_len
	.section	.rodata.tcp_send.str1.4,"aMS",%progbits,1
	.align	2
.LC13:
	.ascii	"net_send_data()\000"
	.section	.text.tcp_send,"ax",%progbits
	.align	1
	.syntax unified
	.thumb
	.thumb_func
	.fpu fpv4-sp-d16
	.type	tcp_send, %function
tcp_send:
.LVL347:
.LFB954:
	.loc 1 290 1 is_stmt 1 view -0
	.cfi_startproc
	@ args = 0, pretend = 0, frame = 56
	@ frame_needed = 0, uses_anonymous_args = 0
	.loc 1 290 1 is_stmt 0 view .LVU1425
	push	{r4, lr}
	.cfi_def_cfa_offset 8
	.cfi_offset 4, -8
	.cfi_offset 14, -4
	sub	sp, sp, #56
	.cfi_def_cfa_offset 64
	mov	r4, r0
	.loc 1 291 2 is_stmt 1 view .LVU1426
.LBB2103:
	.loc 1 291 7 view .LVU1427
.LBE2103:
	.loc 1 291 129 view .LVU1428
	.loc 1 293 2 view .LVU1429
	bl	net_pkt_ref
.LVL348:
	.loc 1 295 2 view .LVU1430
	.loc 1 295 6 is_stmt 0 view .LVU1431
	ldr	r3, .L197
	ldr	r3, [r3]
	.loc 1 295 5 view .LVU1432
	cbz	r3, .L192
	.loc 1 296 3 is_stmt 1 view .LVU1433
	.loc 1 296 7 is_stmt 0 view .LVU1434
	mov	r0, r4
	blx	r3
.LVL349:
	.loc 1 296 6 view .LVU1435
	cmp	r0, #0
	blt	.L196
.L194:
	.loc 1 340 2 is_stmt 1 view .LVU1436
	mov	r0, r4
	bl	net_pkt_unref
.LVL350:
	.loc 1 341 1 is_stmt 0 view .LVU1437
	add	sp, sp, #56
	.cfi_remember_state
	.cfi_def_cfa_offset 8
	@ sp needed
	pop	{r4, pc}
.LVL351:
.L196:
	.cfi_restore_state
	.loc 1 297 4 is_stmt 1 view .LVU1438
.LBB2104:
	.loc 1 297 9 view .LVU1439
	.loc 1 297 58 view .LVU1440
	.loc 1 297 15 view .LVU1441
	.loc 1 297 3 view .LVU1442
.LBE2104:
	.loc 9 120 2 view .LVU1443
.LBB2117:
	.loc 1 297 42 view .LVU1444
	.loc 1 297 108 view .LVU1445
	.loc 1 297 207 view .LVU1446
.LBB2105:
	.loc 1 297 216 view .LVU1447
	.loc 1 297 227 view .LVU1448
	.loc 1 297 315 view .LVU1449
	.loc 1 297 320 view .LVU1450
	.loc 1 297 322 view .LVU1451
.LBE2105:
.LBE2117:
	.loc 1 297 4 view .LVU1452
	.loc 1 297 4 view .LVU1453
.LBB2118:
.LBB2114:
	.loc 1 297 70 view .LVU1454
.LBB2106:
	.loc 1 297 75 view .LVU1455
	.loc 1 297 86 view .LVU1456
.LBE2106:
.LBE2114:
.LBE2118:
	.loc 1 297 4 view .LVU1457
	.loc 1 297 218 view .LVU1458
	.loc 1 297 3 view .LVU1459
	.loc 1 297 32 view .LVU1460
	.loc 1 297 5 view .LVU1461
	.loc 1 297 25 view .LVU1462
	.loc 1 297 49 view .LVU1463
	.loc 1 297 24 view .LVU1464
	.loc 1 297 42 view .LVU1465
	.loc 1 297 62 view .LVU1466
	.loc 1 297 109 view .LVU1467
	.loc 1 297 141 view .LVU1468
	.loc 1 297 14 view .LVU1469
	.loc 1 297 56 view .LVU1470
	.loc 1 297 98 view .LVU1471
	.loc 1 297 143 view .LVU1472
	.loc 1 297 148 view .LVU1473
	.loc 1 297 387 view .LVU1474
	.loc 1 297 393 view .LVU1475
	.loc 1 297 1454 view .LVU1476
	.loc 1 297 1478 view .LVU1477
	.loc 1 297 1520 view .LVU1478
	.loc 1 297 1619 view .LVU1479
	.loc 1 297 1634 view .LVU1480
	.loc 1 297 1906 view .LVU1481
	.loc 1 297 1954 view .LVU1482
	.loc 1 297 3134 view .LVU1483
	.loc 1 297 3141 view .LVU1484
	.loc 1 297 3164 view .LVU1485
	.loc 1 297 3198 view .LVU1486
	.loc 1 297 3203 view .LVU1487
	.loc 1 297 3226 view .LVU1488
	.loc 1 297 3354 view .LVU1489
	.loc 1 297 17 view .LVU1490
.LBB2119:
.LBB2115:
.LBB2112:
	.loc 1 297 12 view .LVU1491
	.loc 1 297 17 view .LVU1492
	.loc 1 297 40 view .LVU1493
	.loc 1 297 160 view .LVU1494
	.loc 1 297 286 view .LVU1495
	.loc 1 297 489 view .LVU1496
	.loc 1 297 6 view .LVU1497
	.loc 1 297 8 view .LVU1498
	.loc 1 297 21 view .LVU1499
.LBB2107:
	.loc 1 297 4 view .LVU1500
	.loc 1 297 218 view .LVU1501
	.loc 1 297 3 view .LVU1502
	.loc 1 297 32 view .LVU1503
	.loc 1 297 61 view .LVU1504
	.loc 1 297 81 view .LVU1505
	.loc 1 297 105 view .LVU1506
	.loc 1 297 28 view .LVU1507
	.loc 1 297 46 view .LVU1508
	.loc 1 297 66 view .LVU1509
	.loc 1 297 113 view .LVU1510
	.loc 1 297 145 view .LVU1511
	.loc 1 297 14 view .LVU1512
	.loc 1 297 56 view .LVU1513
	.loc 1 297 98 view .LVU1514
	.loc 1 297 143 view .LVU1515
.LBB2108:
	.loc 1 297 148 view .LVU1516
	.loc 1 297 387 view .LVU1517
	.loc 1 297 393 view .LVU1518
	.loc 1 297 1454 view .LVU1519
.LBE2108:
.LBE2107:
.LBE2112:
.LBE2115:
.LBE2119:
	.loc 1 297 1478 view .LVU1520
	.loc 1 297 1520 view .LVU1521
	.loc 1 297 1619 view .LVU1522
.LBB2120:
.LBB2116:
.LBB2113:
.LBB2111:
.LBB2109:
	.loc 1 297 1634 view .LVU1523
	.loc 1 297 1906 view .LVU1524
	.loc 1 297 1954 view .LVU1525
	.loc 1 297 1992 view .LVU1526
	.loc 1 297 1997 view .LVU1527
	.loc 1 297 2490 view .LVU1528
	.loc 1 297 3103 is_stmt 0 view .LVU1529
	ldr	r3, .L197+4
	str	r3, [sp, #48]
	.loc 1 297 3134 is_stmt 1 view .LVU1530
	.loc 1 297 3141 view .LVU1531
.LVL352:
	.loc 1 297 3164 view .LVU1532
	.loc 1 297 3164 is_stmt 0 view .LVU1533
.LBE2109:
	.loc 1 297 3198 is_stmt 1 view .LVU1534
	.loc 1 297 3203 view .LVU1535
	.loc 1 297 3226 view .LVU1536
	.loc 1 297 3354 view .LVU1537
	.loc 1 297 17 view .LVU1538
.LBB2110:
	.loc 1 297 30 view .LVU1539
	.loc 1 297 51 is_stmt 0 view .LVU1540
	movs	r3, #0
	strh	r3, [sp, #5]	@ unaligned
	strb	r3, [sp, #7]
	movs	r2, #2
	strb	r2, [sp, #4]
	strb	r3, [sp, #6]
	.loc 1 297 176 is_stmt 1 view .LVU1541
	.loc 1 297 186 is_stmt 0 view .LVU1542
	ldr	r2, [sp, #4]
	str	r2, [sp, #44]
	.loc 1 297 186 view .LVU1543
.LBE2110:
.LBE2111:
	.loc 1 297 12 is_stmt 1 view .LVU1544
	.loc 1 297 19 view .LVU1545
	.loc 1 297 40 is_stmt 0 view .LVU1546
	mov	r2, r3
.LVL353:
	.loc 1 297 40 view .LVU1547
	bfi	r2, r3, #0, #1
.LVL354:
	.loc 1 297 40 view .LVU1548
	bfi	r2, r3, #1, #1
	bfi	r2, r3, #2, #1
	bfi	r2, r3, #3, #3
	movs	r1, #1
	bfi	r2, r1, #6, #3
	movs	r1, #8
	bfi	r2, r1, #9, #10
	.loc 1 297 175 is_stmt 1 view .LVU1549
	ubfx	r2, r2, #0, #19
.LVL355:
	.loc 1 297 175 is_stmt 0 view .LVU1550
	ldr	r1, .L197+8
	add	r0, sp, #32
.LVL356:
	.loc 1 297 175 view .LVU1551
	bl	z_log_msg2_finalize
.LVL357:
	.loc 1 297 175 view .LVU1552
.LBE2113:
	.loc 1 297 14 is_stmt 1 view .LVU1553
	.loc 1 297 19 view .LVU1554
.LVL358:
	.loc 1 297 59 view .LVU1555
.LBE2116:
	.loc 1 297 14 view .LVU1556
	.loc 1 297 21 view .LVU1557
	.loc 1 297 21 is_stmt 0 view .LVU1558
.LBE2120:
	.loc 1 297 62 is_stmt 1 view .LVU1559
	.loc 1 298 4 view .LVU1560
	mov	r0, r4
	bl	net_pkt_unref
.LVL359:
	.loc 1 300 3 view .LVU1561
	b	.L194
.LVL360:
.L192:
	.loc 1 311 2 view .LVU1562
	.loc 11 331 2 view .LVU1563
	.loc 1 334 3 view .LVU1564
	.loc 1 334 7 is_stmt 0 view .LVU1565
	mov	r0, r4
	bl	net_send_data
.LVL361:
	.loc 1 334 6 view .LVU1566
	cmp	r0, #0
	bge	.L194
	.loc 1 335 4 is_stmt 1 view .LVU1567
.LBB2121:
	.loc 1 335 9 view .LVU1568
	.loc 1 335 58 view .LVU1569
	.loc 1 335 15 view .LVU1570
	.loc 1 335 3 view .LVU1571
.LBE2121:
	.loc 9 120 2 view .LVU1572
.LVL362:
.LBB2134:
	.loc 1 335 42 view .LVU1573
	.loc 1 335 108 view .LVU1574
	.loc 1 335 207 view .LVU1575
.LBB2122:
	.loc 1 335 216 view .LVU1576
	.loc 1 335 227 view .LVU1577
	.loc 1 335 315 view .LVU1578
	.loc 1 335 320 view .LVU1579
	.loc 1 335 322 view .LVU1580
.LBE2122:
.LBE2134:
	.loc 1 335 4 view .LVU1581
	.loc 1 335 4 view .LVU1582
.LBB2135:
.LBB2131:
	.loc 1 335 70 view .LVU1583
.LBB2123:
	.loc 1 335 75 view .LVU1584
	.loc 1 335 86 view .LVU1585
.LBE2123:
.LBE2131:
.LBE2135:
	.loc 1 335 4 view .LVU1586
	.loc 1 335 218 view .LVU1587
	.loc 1 335 3 view .LVU1588
	.loc 1 335 32 view .LVU1589
	.loc 1 335 5 view .LVU1590
	.loc 1 335 25 view .LVU1591
	.loc 1 335 49 view .LVU1592
	.loc 1 335 24 view .LVU1593
	.loc 1 335 42 view .LVU1594
	.loc 1 335 62 view .LVU1595
	.loc 1 335 109 view .LVU1596
	.loc 1 335 141 view .LVU1597
	.loc 1 335 14 view .LVU1598
	.loc 1 335 56 view .LVU1599
	.loc 1 335 98 view .LVU1600
	.loc 1 335 143 view .LVU1601
	.loc 1 335 148 view .LVU1602
	.loc 1 335 387 view .LVU1603
	.loc 1 335 393 view .LVU1604
	.loc 1 335 1454 view .LVU1605
	.loc 1 335 1478 view .LVU1606
	.loc 1 335 1520 view .LVU1607
	.loc 1 335 1619 view .LVU1608
	.loc 1 335 1634 view .LVU1609
	.loc 1 335 1906 view .LVU1610
	.loc 1 335 1954 view .LVU1611
	.loc 1 335 3134 view .LVU1612
	.loc 1 335 3141 view .LVU1613
	.loc 1 335 3164 view .LVU1614
	.loc 1 335 3198 view .LVU1615
	.loc 1 335 3203 view .LVU1616
	.loc 1 335 3226 view .LVU1617
	.loc 1 335 3354 view .LVU1618
	.loc 1 335 17 view .LVU1619
.LBB2136:
.LBB2132:
.LBB2129:
	.loc 1 335 12 view .LVU1620
	.loc 1 335 17 view .LVU1621
	.loc 1 335 40 view .LVU1622
	.loc 1 335 160 view .LVU1623
	.loc 1 335 286 view .LVU1624
	.loc 1 335 489 view .LVU1625
	.loc 1 335 6 view .LVU1626
	.loc 1 335 8 view .LVU1627
	.loc 1 335 21 view .LVU1628
.LBB2124:
	.loc 1 335 4 view .LVU1629
	.loc 1 335 218 view .LVU1630
	.loc 1 335 3 view .LVU1631
	.loc 1 335 32 view .LVU1632
	.loc 1 335 61 view .LVU1633
	.loc 1 335 81 view .LVU1634
	.loc 1 335 105 view .LVU1635
	.loc 1 335 28 view .LVU1636
	.loc 1 335 46 view .LVU1637
	.loc 1 335 66 view .LVU1638
	.loc 1 335 113 view .LVU1639
	.loc 1 335 145 view .LVU1640
	.loc 1 335 14 view .LVU1641
	.loc 1 335 56 view .LVU1642
	.loc 1 335 98 view .LVU1643
	.loc 1 335 143 view .LVU1644
.LBB2125:
	.loc 1 335 148 view .LVU1645
	.loc 1 335 387 view .LVU1646
	.loc 1 335 393 view .LVU1647
	.loc 1 335 1454 view .LVU1648
.LBE2125:
.LBE2124:
.LBE2129:
.LBE2132:
.LBE2136:
	.loc 1 335 1478 view .LVU1649
	.loc 1 335 1520 view .LVU1650
	.loc 1 335 1619 view .LVU1651
.LBB2137:
.LBB2133:
.LBB2130:
.LBB2128:
.LBB2126:
	.loc 1 335 1634 view .LVU1652
	.loc 1 335 1906 view .LVU1653
	.loc 1 335 1954 view .LVU1654
	.loc 1 335 1992 view .LVU1655
	.loc 1 335 1997 view .LVU1656
	.loc 1 335 2490 view .LVU1657
	.loc 1 335 3103 is_stmt 0 view .LVU1658
	ldr	r3, .L197+4
	str	r3, [sp, #24]
	.loc 1 335 3134 is_stmt 1 view .LVU1659
	.loc 1 335 3141 view .LVU1660
.LVL363:
	.loc 1 335 3164 view .LVU1661
	.loc 1 335 3164 is_stmt 0 view .LVU1662
.LBE2126:
	.loc 1 335 3198 is_stmt 1 view .LVU1663
	.loc 1 335 3203 view .LVU1664
	.loc 1 335 3226 view .LVU1665
	.loc 1 335 3354 view .LVU1666
	.loc 1 335 17 view .LVU1667
.LBB2127:
	.loc 1 335 30 view .LVU1668
	.loc 1 335 51 is_stmt 0 view .LVU1669
	movs	r3, #0
	strh	r3, [sp, #5]	@ unaligned
	strb	r3, [sp, #7]
	movs	r2, #2
	strb	r2, [sp, #4]
	strb	r3, [sp, #6]
	.loc 1 335 176 is_stmt 1 view .LVU1670
	.loc 1 335 186 is_stmt 0 view .LVU1671
	ldr	r2, [sp, #4]
	str	r2, [sp, #20]
	.loc 1 335 186 view .LVU1672
.LBE2127:
.LBE2128:
	.loc 1 335 12 is_stmt 1 view .LVU1673
	.loc 1 335 19 view .LVU1674
	.loc 1 335 40 is_stmt 0 view .LVU1675
	mov	r2, r3
.LVL364:
	.loc 1 335 40 view .LVU1676
	bfi	r2, r3, #0, #1
.LVL365:
	.loc 1 335 40 view .LVU1677
	bfi	r2, r3, #1, #1
	bfi	r2, r3, #2, #1
	bfi	r2, r3, #3, #3
	movs	r1, #1
	bfi	r2, r1, #6, #3
	movs	r1, #8
	bfi	r2, r1, #9, #10
	.loc 1 335 175 is_stmt 1 view .LVU1678
	ubfx	r2, r2, #0, #19
.LVL366:
	.loc 1 335 175 is_stmt 0 view .LVU1679
	ldr	r1, .L197+8
	add	r0, sp, #8
.LVL367:
	.loc 1 335 175 view .LVU1680
	bl	z_log_msg2_finalize
.LVL368:
	.loc 1 335 175 view .LVU1681
.LBE2130:
	.loc 1 335 14 is_stmt 1 view .LVU1682
	.loc 1 335 19 view .LVU1683
.LVL369:
	.loc 1 335 59 view .LVU1684
.LBE2133:
	.loc 1 335 14 view .LVU1685
	.loc 1 335 21 view .LVU1686
	.loc 1 335 21 is_stmt 0 view .LVU1687
.LBE2137:
	.loc 1 335 62 is_stmt 1 view .LVU1688
	.loc 1 336 4 view .LVU1689
	mov	r0, r4
	bl	net_pkt_unref
.LVL370:
	b	.L194
.L198:
	.align	2
.L197:
	.word	.LANCHOR5
	.word	.LC13
	.word	.LANCHOR3
	.cfi_endproc
.LFE954:
	.size	tcp_send, .-tcp_send
	.section	.rodata.tcp_send_process_no_lock.str1.4,"aMS",%progbits,1
	.align	2
.LC14:
	.ascii	"net_pkt alloc failure\000"
	.section	.text.tcp_send_process_no_lock,"ax",%progbits
	.align	1
	.syntax unified
	.thumb
	.thumb_func
	.fpu fpv4-sp-d16
	.type	tcp_send_process_no_lock, %function
tcp_send_process_no_lock:
.LVL371:
.LFB958:
	.loc 1 451 1 view -0
	.cfi_startproc
	@ args = 0, pretend = 0, frame = 32
	@ frame_needed = 0, uses_anonymous_args = 0
	.loc 1 451 1 is_stmt 0 view .LVU1691
	push	{r4, r5, r6, r7, lr}
	.cfi_def_cfa_offset 20
	.cfi_offset 4, -20
	.cfi_offset 5, -16
	.cfi_offset 6, -12
	.cfi_offset 7, -8
	.cfi_offset 14, -4
	sub	sp, sp, #36
	.cfi_def_cfa_offset 56
	mov	r4, r0
	.loc 1 452 1 is_stmt 1 view .LVU1692
.LVL372:
	.loc 1 453 2 view .LVU1693
	.loc 1 455 2 view .LVU1694
.LBB2138:
	.loc 1 455 11 view .LVU1695
	add	r6, r0, #36
.LVL373:
.LBB2139:
.LBI2139:
	.loc 6 899 19 view .LVU1696
.LBB2140:
	.loc 6 909 2 view .LVU1697
	.loc 6 909 7 view .LVU1698
	.loc 6 909 55 view .LVU1699
	.loc 6 910 2 view .LVU1700
	.loc 6 910 9 is_stmt 0 view .LVU1701
	mov	r2, #-1
	mov	r3, #-1
	mov	r0, r6
.LVL374:
	.loc 6 910 9 view .LVU1702
	bl	z_impl_k_mutex_lock
.LVL375:
	.loc 6 910 9 view .LVU1703
.LBE2140:
.LBE2139:
	.loc 1 455 87 is_stmt 1 view .LVU1704
.LBB2141:
.LBI2141:
	.loc 5 231 28 view .LVU1705
.LBB2142:
	.loc 5 233 2 view .LVU1706
	.loc 5 233 13 is_stmt 0 view .LVU1707
	ldr	r5, [r4, #24]
.LVL376:
	.loc 5 233 13 view .LVU1708
.LBE2142:
.LBE2141:
	.loc 1 455 148 is_stmt 1 view .LVU1709
	.loc 1 455 10 is_stmt 0 view .LVU1710
	cbz	r5, .L200
	.loc 1 455 10 discriminator 1 view .LVU1711
	subs	r5, r5, #68
.LVL377:
.L200:
	.loc 1 455 9 is_stmt 1 discriminator 4 view .LVU1712
.LBB2143:
.LBI2143:
	.loc 6 917 19 discriminator 4 view .LVU1713
.LBB2144:
	.loc 6 925 2 discriminator 4 view .LVU1714
	.loc 6 925 7 discriminator 4 view .LVU1715
	.loc 6 925 55 discriminator 4 view .LVU1716
	.loc 6 926 2 discriminator 4 view .LVU1717
	.loc 6 926 9 is_stmt 0 discriminator 4 view .LVU1718
	mov	r0, r6
	bl	z_impl_k_mutex_unlock
.LVL378:
	.loc 6 926 9 discriminator 4 view .LVU1719
.LBE2144:
.LBE2143:
	.loc 1 455 38 is_stmt 1 discriminator 4 view .LVU1720
	.loc 1 455 38 is_stmt 0 discriminator 4 view .LVU1721
.LBE2138:
	.loc 1 457 2 is_stmt 1 discriminator 4 view .LVU1722
	.loc 1 457 5 is_stmt 0 discriminator 4 view .LVU1723
	cmp	r5, #0
	beq	.L212
	.loc 1 461 2 is_stmt 1 view .LVU1724
.LBB2145:
	.loc 1 461 7 view .LVU1725
.LBE2145:
	.loc 1 461 184 view .LVU1726
	.loc 1 464 2 view .LVU1727
	.loc 1 464 6 is_stmt 0 view .LVU1728
	ldrb	r3, [r4, #441]	@ zero_extendqisi2
	.loc 1 464 5 view .LVU1729
	tst	r3, #1
	beq	.L202
	.loc 1 465 3 is_stmt 1 view .LVU1730
	.loc 1 465 11 is_stmt 0 view .LVU1731
	ldr	r3, [r4, #412]
	.loc 1 465 6 view .LVU1732
	cbnz	r3, .L220
	.loc 1 473 10 view .LVU1733
	movs	r0, #1
	b	.L201
.L220:
.LBB2146:
	.loc 1 466 4 is_stmt 1 view .LVU1734
.LVL379:
	.loc 1 466 4 is_stmt 0 view .LVU1735
.LBE2146:
	.loc 10 405 2 is_stmt 1 view .LVU1736
	.loc 10 106 1 view .LVU1737
	.loc 10 108 1 view .LVU1738
	.loc 10 111 2 view .LVU1739
	.loc 10 115 2 view .LVU1740
	.loc 10 117 2 view .LVU1741
	.loc 10 133 2 view .LVU1742
	.loc 10 140 9 view .LVU1743
	.loc 10 141 3 view .LVU1744
	.loc 10 144 4 view .LVU1745
.LBB2147:
	.loc 1 466 28 is_stmt 0 view .LVU1746
	mov	r2, #1000
	movs	r3, #0
	mov	r0, r5
	bl	net_pkt_clone
.LVL380:
	.loc 1 468 4 is_stmt 1 view .LVU1747
	.loc 1 468 7 is_stmt 0 view .LVU1748
	cbz	r0, .L204
	.loc 1 469 5 is_stmt 1 view .LVU1749
	bl	tcp_send
.LVL381:
	.loc 1 470 5 view .LVU1750
	.loc 1 470 9 is_stmt 0 view .LVU1751
	ldr	r3, [r4, #412]
	.loc 1 470 23 view .LVU1752
	subs	r3, r3, #1
	str	r3, [r4, #412]
	b	.L204
.L202:
	.loc 1 470 23 view .LVU1753
.LBE2147:
.LBB2148:
	.loc 1 477 3 is_stmt 1 view .LVU1754
	.loc 1 477 16 is_stmt 0 view .LVU1755
	mov	r0, r5
	bl	th_get
.LVL382:
	.loc 1 477 11 view .LVU1756
	ldrb	r3, [r0, #13]	@ zero_extendqisi2
.LVL383:
	.loc 1 478 2 is_stmt 1 view .LVU1757
	.loc 1 478 60 is_stmt 0 view .LVU1758
	cmp	r3, #16
	beq	.L214
	.loc 1 478 26 discriminator 2 view .LVU1759
	cmp	r3, #8
	beq	.L215
	.loc 1 478 39 discriminator 4 view .LVU1760
	cmp	r3, #24
	beq	.L216
	.loc 1 478 60 discriminator 6 view .LVU1761
	tst	r3, #4
	beq	.L217
	.loc 1 478 60 view .LVU1762
	movs	r3, #1
.LVL384:
	.loc 1 478 60 view .LVU1763
	b	.L205
.LVL385:
.L214:
	.loc 1 478 60 view .LVU1764
	movs	r3, #1
.LVL386:
.L205:
	.loc 1 481 3 is_stmt 1 discriminator 10 view .LVU1765
	.loc 1 482 29 is_stmt 0 discriminator 10 view .LVU1766
	mov	r7, r3
	cbz	r3, .L206
.LBB2149:
	.loc 1 481 21 is_stmt 1 view .LVU1767
.LVL387:
.LBB2150:
.LBI2150:
	.loc 6 899 19 view .LVU1768
.LBB2151:
	.loc 6 909 2 view .LVU1769
	.loc 6 909 7 view .LVU1770
	.loc 6 909 55 view .LVU1771
	.loc 6 910 2 view .LVU1772
	.loc 6 910 9 is_stmt 0 view .LVU1773
	mov	r2, #-1
	mov	r3, #-1
.LVL388:
	.loc 6 910 9 view .LVU1774
	mov	r0, r6
.LVL389:
	.loc 6 910 9 view .LVU1775
	bl	z_impl_k_mutex_lock
.LVL390:
	.loc 6 910 9 view .LVU1776
.LBE2151:
.LBE2150:
	.loc 1 481 97 is_stmt 1 view .LVU1777
.LBB2152:
.LBI2152:
	.loc 5 385 29 view .LVU1778
.LBB2153:
	.loc 5 385 64 view .LVU1779
.LBB2154:
.LBI2154:
	.loc 5 261 1 view .LVU1780
.LBE2154:
.LBE2153:
.LBE2152:
.LBE2149:
.LBE2148:
	.loc 5 261 41 view .LVU1781
.LBB2207:
.LBB2184:
.LBB2178:
.LBB2174:
.LBB2157:
.LBB2155:
.LBI2155:
	.loc 5 231 28 view .LVU1782
.LBB2156:
	.loc 5 233 2 view .LVU1783
	.loc 5 233 13 is_stmt 0 view .LVU1784
	ldr	r5, [r4, #24]
.LVL391:
	.loc 5 233 13 view .LVU1785
.LBE2156:
.LBE2155:
.LBE2157:
	.loc 5 385 1 view .LVU1786
	cbz	r5, .L207
.LVL392:
.LBB2158:
.LBI2158:
	.loc 5 372 29 is_stmt 1 view .LVU1787
.LBB2159:
	.loc 5 372 74 view .LVU1788
	.loc 5 372 74 is_stmt 0 view .LVU1789
.LBE2159:
.LBE2158:
.LBE2174:
.LBE2178:
.LBE2184:
.LBE2207:
	.loc 5 233 2 is_stmt 1 view .LVU1790
.LBB2208:
.LBB2185:
.LBB2179:
.LBB2175:
.LBB2171:
.LBB2168:
	.loc 5 372 121 view .LVU1791
.LBB2160:
.LBI2160:
	.loc 5 204 28 view .LVU1792
.LBB2161:
	.loc 5 206 2 view .LVU1793
	.loc 5 206 13 is_stmt 0 view .LVU1794
	ldr	r3, [r5]
.LVL393:
	.loc 5 206 13 view .LVU1795
.LBE2161:
.LBE2160:
.LBB2162:
.LBI2162:
	.loc 5 214 20 is_stmt 1 view .LVU1796
.LBB2163:
	.loc 5 216 2 view .LVU1797
	.loc 5 216 13 is_stmt 0 view .LVU1798
	str	r3, [r4, #24]
.LVL394:
	.loc 5 216 13 view .LVU1799
.LBE2163:
.LBE2162:
	.loc 5 372 170 is_stmt 1 view .LVU1800
.LBB2164:
.LBI2164:
	.loc 5 243 28 view .LVU1801
.LBB2165:
	.loc 5 245 2 view .LVU1802
	.loc 5 245 13 is_stmt 0 view .LVU1803
	ldr	r2, [r4, #28]
.LVL395:
	.loc 5 245 13 view .LVU1804
.LBE2165:
.LBE2164:
	.loc 5 372 173 view .LVU1805
	cmp	r2, r5
	beq	.L221
.L208:
.LVL396:
	.loc 5 372 173 view .LVU1806
.LBE2168:
.LBE2171:
.LBE2175:
.LBE2179:
	.loc 1 481 152 is_stmt 1 view .LVU1807
	.loc 1 481 20 is_stmt 0 view .LVU1808
	subs	r5, r5, #68
.LVL397:
.L207:
	.loc 1 481 19 is_stmt 1 discriminator 4 view .LVU1809
.LBB2180:
.LBI2180:
	.loc 6 917 19 discriminator 4 view .LVU1810
.LBB2181:
	.loc 6 925 2 discriminator 4 view .LVU1811
	.loc 6 925 7 discriminator 4 view .LVU1812
	.loc 6 925 55 discriminator 4 view .LVU1813
	.loc 6 926 2 discriminator 4 view .LVU1814
	.loc 6 926 9 is_stmt 0 discriminator 4 view .LVU1815
	mov	r0, r6
	bl	z_impl_k_mutex_unlock
.LVL398:
	.loc 6 926 9 discriminator 4 view .LVU1816
.LBE2181:
.LBE2180:
	.loc 1 481 48 is_stmt 1 discriminator 4 view .LVU1817
.L209:
	.loc 1 481 48 is_stmt 0 discriminator 4 view .LVU1818
.LBE2185:
	.loc 1 484 3 is_stmt 1 view .LVU1819
	.loc 1 484 6 is_stmt 0 view .LVU1820
	cbz	r5, .L222
	.loc 1 489 3 is_stmt 1 view .LVU1821
	mov	r0, r5
	bl	tcp_send
.LVL399:
	.loc 1 491 3 view .LVU1822
	.loc 1 491 6 is_stmt 0 view .LVU1823
	cmp	r7, #0
	beq	.L223
.L204:
	.loc 1 491 6 view .LVU1824
.LBE2208:
	.loc 1 498 2 is_stmt 1 view .LVU1825
	.loc 1 498 6 is_stmt 0 view .LVU1826
	ldrb	r3, [r4, #441]	@ zero_extendqisi2
	.loc 1 498 5 view .LVU1827
	tst	r3, #1
	bne	.L224
	.loc 1 452 6 view .LVU1828
	movs	r0, #0
.LVL400:
.L201:
	.loc 1 504 2 is_stmt 1 view .LVU1829
	.loc 1 505 1 is_stmt 0 view .LVU1830
	add	sp, sp, #36
	.cfi_remember_state
	.cfi_def_cfa_offset 20
	@ sp needed
	pop	{r4, r5, r6, r7, pc}
.LVL401:
.L215:
	.cfi_restore_state
.LBB2209:
	.loc 1 478 60 view .LVU1831
	movs	r3, #1
.LVL402:
	.loc 1 478 60 view .LVU1832
	b	.L205
.LVL403:
.L216:
	.loc 1 478 60 view .LVU1833
	movs	r3, #1
.LVL404:
	.loc 1 478 60 view .LVU1834
	b	.L205
.LVL405:
.L217:
	.loc 1 478 60 view .LVU1835
	movs	r3, #0
.LVL406:
	.loc 1 478 60 view .LVU1836
	b	.L205
.LVL407:
.L221:
.LBB2186:
.LBB2182:
.LBB2176:
.LBB2172:
.LBB2169:
	.loc 5 372 211 is_stmt 1 view .LVU1837
	.loc 5 372 211 is_stmt 0 view .LVU1838
.LBE2169:
.LBE2172:
.LBE2176:
.LBE2182:
.LBE2186:
.LBE2209:
	.loc 5 233 2 is_stmt 1 view .LVU1839
.LBB2210:
.LBB2187:
.LBB2183:
.LBB2177:
.LBB2173:
.LBB2170:
.LBB2166:
.LBI2166:
	.loc 5 219 20 view .LVU1840
.LBB2167:
	.loc 5 221 2 view .LVU1841
	.loc 5 221 13 is_stmt 0 view .LVU1842
	str	r3, [r4, #28]
	.loc 5 222 1 view .LVU1843
	b	.L208
.LVL408:
.L206:
	.loc 5 222 1 view .LVU1844
.LBE2167:
.LBE2166:
.LBE2170:
.LBE2173:
.LBE2177:
.LBE2183:
.LBE2187:
.LBE2210:
	.loc 10 405 2 is_stmt 1 view .LVU1845
	.loc 10 106 1 view .LVU1846
	.loc 10 108 1 view .LVU1847
	.loc 10 111 2 view .LVU1848
	.loc 10 115 2 view .LVU1849
	.loc 10 117 2 view .LVU1850
	.loc 10 133 2 view .LVU1851
	.loc 10 140 9 view .LVU1852
	.loc 10 141 3 view .LVU1853
	.loc 10 144 4 view .LVU1854
.LBB2211:
	.loc 1 483 4 is_stmt 0 view .LVU1855
	mov	r2, #1000
	movs	r3, #0
.LVL409:
	.loc 1 483 4 view .LVU1856
	mov	r0, r5
.LVL410:
	.loc 1 483 4 view .LVU1857
	bl	net_pkt_clone
.LVL411:
	.loc 1 483 4 view .LVU1858
	mov	r5, r0
.LVL412:
	.loc 1 483 4 view .LVU1859
	b	.L209
.LVL413:
.L222:
	.loc 1 485 4 is_stmt 1 view .LVU1860
.LBB2188:
	.loc 1 485 9 view .LVU1861
	.loc 1 485 58 view .LVU1862
	.loc 1 485 15 view .LVU1863
	.loc 1 485 3 view .LVU1864
.LBE2188:
.LBE2211:
	.loc 9 120 2 view .LVU1865
.LBB2212:
.LBB2201:
	.loc 1 485 42 view .LVU1866
	.loc 1 485 108 view .LVU1867
	.loc 1 485 207 view .LVU1868
.LBB2189:
	.loc 1 485 216 view .LVU1869
	.loc 1 485 227 view .LVU1870
	.loc 1 485 315 view .LVU1871
	.loc 1 485 320 view .LVU1872
	.loc 1 485 322 view .LVU1873
.LBE2189:
.LBE2201:
.LBE2212:
	.loc 1 485 4 view .LVU1874
	.loc 1 485 4 view .LVU1875
.LBB2213:
.LBB2202:
.LBB2198:
	.loc 1 485 76 view .LVU1876
.LBB2190:
	.loc 1 485 81 view .LVU1877
	.loc 1 485 92 view .LVU1878
.LBE2190:
.LBE2198:
.LBE2202:
.LBE2213:
	.loc 1 485 4 view .LVU1879
	.loc 1 485 218 view .LVU1880
	.loc 1 485 3 view .LVU1881
	.loc 1 485 32 view .LVU1882
	.loc 1 485 5 view .LVU1883
	.loc 1 485 25 view .LVU1884
	.loc 1 485 49 view .LVU1885
	.loc 1 485 24 view .LVU1886
	.loc 1 485 42 view .LVU1887
	.loc 1 485 62 view .LVU1888
	.loc 1 485 109 view .LVU1889
	.loc 1 485 141 view .LVU1890
	.loc 1 485 14 view .LVU1891
	.loc 1 485 56 view .LVU1892
	.loc 1 485 98 view .LVU1893
	.loc 1 485 143 view .LVU1894
	.loc 1 485 148 view .LVU1895
	.loc 1 485 393 view .LVU1896
	.loc 1 485 399 view .LVU1897
	.loc 1 485 1484 view .LVU1898
	.loc 1 485 1508 view .LVU1899
	.loc 1 485 1556 view .LVU1900
	.loc 1 485 1661 view .LVU1901
	.loc 1 485 1676 view .LVU1902
	.loc 1 485 1954 view .LVU1903
	.loc 1 485 2002 view .LVU1904
	.loc 1 485 3230 view .LVU1905
	.loc 1 485 3237 view .LVU1906
	.loc 1 485 3260 view .LVU1907
	.loc 1 485 3294 view .LVU1908
	.loc 1 485 3299 view .LVU1909
	.loc 1 485 3322 view .LVU1910
	.loc 1 485 3450 view .LVU1911
	.loc 1 485 17 view .LVU1912
.LBB2214:
.LBB2203:
.LBB2199:
.LBB2196:
	.loc 1 485 12 view .LVU1913
	.loc 1 485 17 view .LVU1914
	.loc 1 485 40 view .LVU1915
	.loc 1 485 160 view .LVU1916
	.loc 1 485 286 view .LVU1917
	.loc 1 485 489 view .LVU1918
	.loc 1 485 6 view .LVU1919
	.loc 1 485 8 view .LVU1920
	.loc 1 485 21 view .LVU1921
.LBB2191:
	.loc 1 485 4 view .LVU1922
	.loc 1 485 218 view .LVU1923
	.loc 1 485 3 view .LVU1924
	.loc 1 485 32 view .LVU1925
	.loc 1 485 61 view .LVU1926
	.loc 1 485 81 view .LVU1927
	.loc 1 485 105 view .LVU1928
	.loc 1 485 28 view .LVU1929
	.loc 1 485 46 view .LVU1930
	.loc 1 485 66 view .LVU1931
	.loc 1 485 113 view .LVU1932
	.loc 1 485 145 view .LVU1933
	.loc 1 485 14 view .LVU1934
	.loc 1 485 56 view .LVU1935
	.loc 1 485 98 view .LVU1936
	.loc 1 485 143 view .LVU1937
.LBB2192:
	.loc 1 485 148 view .LVU1938
	.loc 1 485 393 view .LVU1939
	.loc 1 485 399 view .LVU1940
	.loc 1 485 1484 view .LVU1941
.LBE2192:
.LBE2191:
.LBE2196:
.LBE2199:
.LBE2203:
.LBE2214:
	.loc 1 485 1508 view .LVU1942
	.loc 1 485 1556 view .LVU1943
	.loc 1 485 1661 view .LVU1944
.LBB2215:
.LBB2204:
.LBB2200:
.LBB2197:
.LBB2195:
.LBB2193:
	.loc 1 485 1676 view .LVU1945
	.loc 1 485 1954 view .LVU1946
	.loc 1 485 2002 view .LVU1947
	.loc 1 485 2040 view .LVU1948
	.loc 1 485 2045 view .LVU1949
	.loc 1 485 2574 view .LVU1950
	.loc 1 485 3193 is_stmt 0 view .LVU1951
	ldr	r3, .L225
	str	r3, [sp, #24]
	.loc 1 485 3230 is_stmt 1 view .LVU1952
	.loc 1 485 3237 view .LVU1953
.LVL414:
	.loc 1 485 3260 view .LVU1954
	.loc 1 485 3260 is_stmt 0 view .LVU1955
.LBE2193:
	.loc 1 485 3294 is_stmt 1 view .LVU1956
	.loc 1 485 3299 view .LVU1957
	.loc 1 485 3322 view .LVU1958
	.loc 1 485 3450 view .LVU1959
	.loc 1 485 17 view .LVU1960
.LBB2194:
	.loc 1 485 30 view .LVU1961
	.loc 1 485 51 is_stmt 0 view .LVU1962
	movs	r4, #0
.LVL415:
	.loc 1 485 51 view .LVU1963
	strh	r4, [sp, #5]	@ unaligned
	strb	r4, [sp, #7]
	movs	r3, #2
	strb	r3, [sp, #4]
	strb	r4, [sp, #6]
	.loc 1 485 176 is_stmt 1 view .LVU1964
	.loc 1 485 186 is_stmt 0 view .LVU1965
	ldr	r3, [sp, #4]
	str	r3, [sp, #20]
	.loc 1 485 186 view .LVU1966
.LBE2194:
.LBE2195:
	.loc 1 485 12 is_stmt 1 view .LVU1967
	.loc 1 485 19 view .LVU1968
	.loc 1 485 40 is_stmt 0 view .LVU1969
	mov	r2, r4
.LVL416:
	.loc 1 485 40 view .LVU1970
	bfi	r2, r4, #0, #1
.LVL417:
	.loc 1 485 40 view .LVU1971
	bfi	r2, r4, #1, #1
	bfi	r2, r4, #2, #1
	bfi	r2, r4, #3, #3
	movs	r3, #1
	bfi	r2, r3, #6, #3
	movs	r3, #8
	bfi	r2, r3, #9, #10
	.loc 1 485 175 is_stmt 1 view .LVU1972
	mov	r3, r4
	ubfx	r2, r2, #0, #19
.LVL418:
	.loc 1 485 175 is_stmt 0 view .LVU1973
	ldr	r1, .L225+4
	add	r0, sp, #8
.LVL419:
	.loc 1 485 175 view .LVU1974
	bl	z_log_msg2_finalize
.LVL420:
	.loc 1 485 175 view .LVU1975
.LBE2197:
	.loc 1 485 14 is_stmt 1 view .LVU1976
	.loc 1 485 19 view .LVU1977
.LVL421:
	.loc 1 485 59 view .LVU1978
.LBE2200:
	.loc 1 485 14 view .LVU1979
	.loc 1 485 21 view .LVU1980
	.loc 1 485 21 is_stmt 0 view .LVU1981
.LBE2204:
	.loc 1 485 68 is_stmt 1 view .LVU1982
	.loc 1 486 4 view .LVU1983
.LBE2215:
	.loc 1 452 6 is_stmt 0 view .LVU1984
	mov	r0, r4
	b	.L201
.LVL422:
.L223:
.LBB2216:
.LBB2205:
.LBI2205:
	.loc 4 3765 25 is_stmt 1 discriminator 1 view .LVU1985
.LBB2206:
	.loc 4 3768 2 discriminator 1 view .LVU1986
	.loc 4 3768 9 is_stmt 0 discriminator 1 view .LVU1987
	add	r0, r4, #136
	bl	z_timeout_remaining
.LVL423:
	.loc 4 3768 9 discriminator 1 view .LVU1988
.LBE2206:
.LBE2205:
	.loc 1 491 22 discriminator 1 view .LVU1989
	orrs	r3, r0, r1
	bne	.L204
	.loc 1 493 4 is_stmt 1 view .LVU1990
	.loc 1 493 23 is_stmt 0 view .LVU1991
	movs	r3, #9
	str	r3, [r4, #412]
	.loc 1 494 4 is_stmt 1 view .LVU1992
	.loc 1 494 28 is_stmt 0 view .LVU1993
	ldrb	r3, [r4, #441]	@ zero_extendqisi2
	orr	r3, r3, #1
	strb	r3, [r4, #441]
	b	.L204
.L224:
	.loc 1 494 28 view .LVU1994
.LBE2216:
.LBB2217:
	.loc 1 499 3 is_stmt 1 view .LVU1995
.LVL424:
	.loc 1 499 3 is_stmt 0 view .LVU1996
.LBE2217:
	.loc 10 405 2 is_stmt 1 view .LVU1997
	.loc 10 106 1 view .LVU1998
	.loc 10 108 1 view .LVU1999
	.loc 10 111 2 view .LVU2000
	.loc 10 115 2 view .LVU2001
	.loc 10 117 2 view .LVU2002
	.loc 10 133 2 view .LVU2003
	.loc 10 140 9 view .LVU2004
	.loc 10 141 3 view .LVU2005
	.loc 10 144 4 view .LVU2006
.LBB2218:
	.loc 1 499 3 is_stmt 0 view .LVU2007
	mov	r2, #2000
	movs	r3, #0
	add	r1, r4, #120
	ldr	r0, .L225+8
	bl	k_work_reschedule_for_queue
.LVL425:
.LBE2218:
	.loc 1 452 6 view .LVU2008
	movs	r0, #0
	b	.L201
.LVL426:
.L212:
	.loc 1 452 6 view .LVU2009
	movs	r0, #0
	b	.L201
.L226:
	.align	2
.L225:
	.word	.LC14
	.word	.LANCHOR3
	.word	.LANCHOR4
	.cfi_endproc
.LFE958:
	.size	tcp_send_process_no_lock, .-tcp_send_process_no_lock
	.section	.text.tcp_send_process,"ax",%progbits
	.align	1
	.syntax unified
	.thumb
	.thumb_func
	.fpu fpv4-sp-d16
	.type	tcp_send_process, %function
tcp_send_process:
.LVL427:
.LFB959:
	.loc 1 508 1 is_stmt 1 view -0
	.cfi_startproc
	@ args = 0, pretend = 0, frame = 0
	@ frame_needed = 0, uses_anonymous_args = 0
	.loc 1 508 1 is_stmt 0 view .LVU2011
	push	{r4, r5, r6, lr}
	.cfi_def_cfa_offset 16
	.cfi_offset 4, -16
	.cfi_offset 5, -12
	.cfi_offset 6, -8
	.cfi_offset 14, -4
	.loc 1 509 2 is_stmt 1 view .LVU2012
.LVL428:
	.loc 4 3750 2 view .LVU2013
	.loc 1 510 2 view .LVU2014
	.loc 1 510 14 is_stmt 0 view .LVU2015
	sub	r6, r0, #120
.LVL429:
	.loc 1 511 1 is_stmt 1 view .LVU2016
	.loc 1 513 2 view .LVU2017
	sub	r4, r0, #84
.LVL430:
.LBB2219:
.LBI2219:
	.loc 6 899 19 view .LVU2018
.LBB2220:
	.loc 6 909 2 view .LVU2019
	.loc 6 909 7 view .LVU2020
	.loc 6 909 55 view .LVU2021
	.loc 6 910 2 view .LVU2022
	.loc 6 910 9 is_stmt 0 view .LVU2023
	mov	r2, #-1
	mov	r3, #-1
	mov	r0, r4
.LVL431:
	.loc 6 910 9 view .LVU2024
	bl	z_impl_k_mutex_lock
.LVL432:
	.loc 6 910 9 view .LVU2025
.LBE2220:
.LBE2219:
	.loc 1 515 2 is_stmt 1 view .LVU2026
	.loc 1 515 10 is_stmt 0 view .LVU2027
	mov	r0, r6
	bl	tcp_send_process_no_lock
.LVL433:
	mov	r5, r0
.LVL434:
	.loc 1 517 2 is_stmt 1 view .LVU2028
.LBB2221:
.LBI2221:
	.loc 6 917 19 view .LVU2029
.LBB2222:
	.loc 6 925 2 view .LVU2030
	.loc 6 925 7 view .LVU2031
	.loc 6 925 55 view .LVU2032
	.loc 6 926 2 view .LVU2033
	.loc 6 926 9 is_stmt 0 view .LVU2034
	mov	r0, r4
	bl	z_impl_k_mutex_unlock
.LVL435:
	.loc 6 926 9 view .LVU2035
.LBE2222:
.LBE2221:
	.loc 1 519 2 is_stmt 1 view .LVU2036
	.loc 1 519 5 is_stmt 0 view .LVU2037
	cbnz	r5, .L230
.L228:
	.loc 1 522 1 view .LVU2038
	pop	{r4, r5, r6, pc}
.LVL436:
.L230:
	.loc 1 520 3 is_stmt 1 view .LVU2039
	mov	r0, r6
	bl	tcp_conn_unref
.LVL437:
	b	.L228
	.cfi_endproc
.LFE959:
	.size	tcp_send_process, .-tcp_send_process
	.section	.text.z_log_msg2_runtime_create,"ax",%progbits
	.align	1
	.syntax unified
	.thumb
	.thumb_func
	.fpu fpv4-sp-d16
	.type	z_log_msg2_runtime_create, %function
z_log_msg2_runtime_create:
.LVL438:
.LFB40:
	.file 12 "/home/sebin/thesis/zephyrproject/zephyr/include/logging/log_msg2.h"
	.loc 12 490 1 view -0
	.cfi_startproc
	@ args = 8, pretend = 0, frame = 8
	@ frame_needed = 0, uses_anonymous_args = 1
	.loc 12 490 1 is_stmt 0 view .LVU2041
	push	{r4, lr}
	.cfi_def_cfa_offset 8
	.cfi_offset 4, -8
	.cfi_offset 14, -4
	sub	sp, sp, #24
	.cfi_def_cfa_offset 32
	.loc 12 491 2 is_stmt 1 view .LVU2042
	.loc 12 493 1 view .LVU2043
	add	r4, sp, #40
	str	r4, [sp, #20]
	.loc 12 494 2 view .LVU2044
.LVL439:
.LBB2223:
.LBI2223:
	.file 13 "/home/sebin/thesis/dmz/zephyr_xmc_template/build/zephyr/include/generated/syscalls/log_msg2.h"
	.loc 13 59 20 view .LVU2045
.LBB2224:
	.loc 13 72 2 view .LVU2046
	.loc 13 72 7 view .LVU2047
	.loc 13 72 55 view .LVU2048
	.loc 13 73 2 view .LVU2049
	str	r4, [sp, #8]
	ldr	r4, [sp, #36]
	str	r4, [sp, #4]
	ldr	r4, [sp, #32]
	str	r4, [sp]
	bl	z_impl_z_log_msg2_runtime_vcreate
.LVL440:
	.loc 13 73 2 is_stmt 0 view .LVU2050
.LBE2224:
.LBE2223:
	.loc 12 496 1 is_stmt 1 view .LVU2051
	.loc 12 497 1 is_stmt 0 view .LVU2052
	add	sp, sp, #24
	.cfi_def_cfa_offset 8
	@ sp needed
	pop	{r4, pc}
	.loc 12 497 1 view .LVU2053
	.cfi_endproc
.LFE40:
	.size	z_log_msg2_runtime_create, .-z_log_msg2_runtime_create
	.section	.text.tcp_conn_ref,"ax",%progbits
	.align	1
	.syntax unified
	.thumb
	.thumb_func
	.fpu fpv4-sp-d16
	.type	tcp_conn_ref, %function
tcp_conn_ref:
.LVL441:
.LFB985:
	.loc 1 1201 1 is_stmt 1 view -0
	.cfi_startproc
	@ args = 0, pretend = 0, frame = 0
	@ frame_needed = 0, uses_anonymous_args = 0
	@ link register save eliminated.
	.loc 1 1202 2 view .LVU2055
	.loc 1 1202 18 is_stmt 0 view .LVU2056
	add	r0, r0, #420
.LVL442:
.LBB2225:
.LBI2225:
	.loc 7 108 28 is_stmt 1 view .LVU2057
.LBE2225:
	.loc 7 110 2 view .LVU2058
.LBB2228:
.LBB2226:
.LBI2226:
	.loc 7 77 28 view .LVU2059
.LBB2227:
	.loc 7 79 2 view .LVU2060
	.loc 7 79 9 is_stmt 0 view .LVU2061
	dmb	ish
.L234:
	ldrex	r3, [r0]
	adds	r3, r3, #1
	strex	r2, r3, [r0]
	cmp	r2, #0
	bne	.L234
	dmb	ish
.LVL443:
	.loc 7 79 9 view .LVU2062
.LBE2227:
.LBE2226:
.LBE2228:
	.loc 1 1204 2 is_stmt 1 view .LVU2063
.LBB2229:
	.loc 1 1204 7 view .LVU2064
.LBE2229:
	.loc 1 1204 142 view .LVU2065
	.loc 1 1205 1 is_stmt 0 view .LVU2066
	bx	lr
	.cfi_endproc
.LFE985:
	.size	tcp_conn_ref, .-tcp_conn_ref
	.section	.rodata.tcp_conn_alloc.str1.4,"aMS",%progbits,1
	.align	2
.LC15:
	.ascii	"Cannot allocate slab\000"
	.align	2
.LC16:
	.ascii	"recv\000"
	.align	2
.LC17:
	.ascii	"Cannot allocate %s queue for conn %p\000"
	.align	2
.LC18:
	.ascii	"send\000"
	.section	.text.tcp_conn_alloc,"ax",%progbits
	.align	1
	.syntax unified
	.thumb
	.thumb_func
	.fpu fpv4-sp-d16
	.type	tcp_conn_alloc, %function
tcp_conn_alloc:
.LFB986:
	.loc 1 1208 1 is_stmt 1 view -0
	.cfi_startproc
	@ args = 0, pretend = 0, frame = 32
	@ frame_needed = 0, uses_anonymous_args = 0
	push	{r4, lr}
	.cfi_def_cfa_offset 8
	.cfi_offset 4, -8
	.cfi_offset 14, -4
	sub	sp, sp, #48
	.cfi_def_cfa_offset 56
	.loc 1 1209 2 view .LVU2068
	.loc 1 1209 14 is_stmt 0 view .LVU2069
	movs	r3, #0
	str	r3, [sp, #20]
	.loc 1 1210 2 is_stmt 1 view .LVU2070
	.loc 1 1212 2 view .LVU2071
	.loc 1 1212 8 is_stmt 0 view .LVU2072
	movs	r2, #0
	movs	r3, #0
	add	r1, sp, #20
	ldr	r0, .L249
	bl	k_mem_slab_alloc
.LVL444:
	.loc 1 1213 2 is_stmt 1 view .LVU2073
	.loc 1 1213 5 is_stmt 0 view .LVU2074
	cmp	r0, #0
	bne	.L245
	.loc 1 1218 1 is_stmt 1 view .LVU2075
.LVL445:
.LBB2230:
.LBI2230:
	.loc 8 86 189 view .LVU2076
.LBB2231:
	.loc 8 86 238 view .LVU2077
	.loc 8 86 245 is_stmt 0 view .LVU2078
	mov	r2, #448
	movs	r1, #0
	ldr	r0, [sp, #20]
.LVL446:
	.loc 8 86 245 view .LVU2079
	bl	memset
.LVL447:
	.loc 8 86 245 view .LVU2080
.LBE2231:
.LBE2230:
	.loc 1 1220 2 is_stmt 1 view .LVU2081
	.loc 1 1221 3 view .LVU2082
.LBB2232:
	.loc 1 1221 30 view .LVU2083
	.loc 1 1221 52 view .LVU2084
.LBB2233:
	.loc 1 1221 283 view .LVU2085
	.loc 1 1221 283 is_stmt 0 view .LVU2086
.LBE2233:
.LBE2232:
	.loc 10 405 2 is_stmt 1 view .LVU2087
	.loc 10 106 1 view .LVU2088
	.loc 10 108 1 view .LVU2089
	.loc 10 111 2 view .LVU2090
	.loc 10 115 2 view .LVU2091
	.loc 10 117 2 view .LVU2092
	.loc 10 133 2 view .LVU2093
	.loc 10 140 9 view .LVU2094
	.loc 10 141 3 view .LVU2095
	.loc 10 144 4 view .LVU2096
.LBB2235:
.LBB2234:
	.loc 1 1221 290 is_stmt 0 view .LVU2097
	mov	r0, #1000
	movs	r1, #0
	bl	net_pkt_rx_alloc
.LVL448:
	.loc 1 1221 290 view .LVU2098
.LBE2234:
	.loc 1 1221 405 is_stmt 1 view .LVU2099
	.loc 1 1221 407 view .LVU2100
.LBE2235:
	.loc 1 1221 7 is_stmt 0 view .LVU2101
	ldr	r3, [sp, #20]
	.loc 1 1221 25 view .LVU2102
	str	r0, [r3, #12]
	.loc 1 1222 3 is_stmt 1 view .LVU2103
	.loc 1 1222 6 is_stmt 0 view .LVU2104
	cmp	r0, #0
	beq	.L246
	.loc 1 1229 2 is_stmt 1 view .LVU2105
.LBB2236:
	.loc 1 1229 23 view .LVU2106
	.loc 1 1229 45 view .LVU2107
.LBB2237:
	.loc 1 1229 273 view .LVU2108
.LVL449:
	.loc 1 1229 273 is_stmt 0 view .LVU2109
.LBE2237:
.LBE2236:
	.loc 10 405 2 is_stmt 1 view .LVU2110
	.loc 10 106 1 view .LVU2111
	.loc 10 108 1 view .LVU2112
	.loc 10 111 2 view .LVU2113
	.loc 10 115 2 view .LVU2114
	.loc 10 117 2 view .LVU2115
	.loc 10 133 2 view .LVU2116
	.loc 10 140 9 view .LVU2117
	.loc 10 141 3 view .LVU2118
	.loc 10 144 4 view .LVU2119
.LBB2239:
.LBB2238:
	.loc 1 1229 280 is_stmt 0 view .LVU2120
	mov	r0, #1000
.LVL450:
	.loc 1 1229 280 view .LVU2121
	movs	r1, #0
	bl	net_pkt_alloc
.LVL451:
	.loc 1 1229 280 view .LVU2122
.LBE2238:
	.loc 1 1229 392 is_stmt 1 view .LVU2123
	.loc 1 1229 394 view .LVU2124
.LBE2239:
	.loc 1 1229 6 is_stmt 0 view .LVU2125
	ldr	r3, [sp, #20]
	.loc 1 1229 18 view .LVU2126
	str	r0, [r3, #8]
	.loc 1 1230 2 is_stmt 1 view .LVU2127
	.loc 1 1230 5 is_stmt 0 view .LVU2128
	cmp	r0, #0
	beq	.L247
	.loc 1 1235 2 is_stmt 1 view .LVU2129
	add	r0, r3, #36
.LVL452:
.LBB2240:
.LBI2240:
	.loc 6 883 19 view .LVU2130
.LBB2241:
	.loc 6 891 2 view .LVU2131
	.loc 6 891 7 view .LVU2132
	.loc 6 891 55 view .LVU2133
	.loc 6 892 2 view .LVU2134
	.loc 6 892 9 is_stmt 0 view .LVU2135
	bl	z_impl_k_mutex_init
.LVL453:
	.loc 6 892 9 view .LVU2136
.LBE2241:
.LBE2240:
	.loc 1 1236 2 is_stmt 1 view .LVU2137
.LBB2242:
	.loc 1 1236 5 view .LVU2138
	.loc 1 1236 10 view .LVU2139
	.loc 1 1236 18 view .LVU2140
	.loc 1 1236 4 view .LVU2141
	.loc 1 1236 24 is_stmt 0 view .LVU2142
	ldr	r0, [sp, #20]
	.loc 1 1236 4 view .LVU2143
	adds	r0, r0, #80
.LVL454:
.LBB2243:
.LBI2243:
	.loc 6 580 20 is_stmt 1 view .LVU2144
.LBB2244:
	.loc 6 589 2 view .LVU2145
	.loc 6 589 7 view .LVU2146
	.loc 6 589 55 view .LVU2147
	.loc 6 590 2 view .LVU2148
	bl	z_impl_k_queue_init
.LVL455:
	.loc 6 590 2 is_stmt 0 view .LVU2149
.LBE2244:
.LBE2243:
	.loc 1 1236 47 is_stmt 1 view .LVU2150
	.loc 1 1236 52 view .LVU2151
	.loc 1 1236 60 view .LVU2152
.LBE2242:
	.loc 1 1237 2 view .LVU2153
	.loc 1 1237 18 is_stmt 0 view .LVU2154
	ldr	r0, [sp, #20]
	.loc 1 1237 2 view .LVU2155
	adds	r0, r0, #56
.LVL456:
.LBB2245:
.LBI2245:
	.loc 6 999 19 is_stmt 1 view .LVU2156
.LBB2246:
	.loc 6 1007 2 view .LVU2157
	.loc 6 1007 7 view .LVU2158
	.loc 6 1007 55 view .LVU2159
	.loc 6 1008 2 view .LVU2160
	.loc 6 1008 9 is_stmt 0 view .LVU2161
	mov	r2, #-1
	movs	r1, #0
	bl	z_impl_k_sem_init
.LVL457:
	.loc 6 1008 9 view .LVU2162
.LBE2246:
.LBE2245:
	.loc 1 1239 2 is_stmt 1 view .LVU2163
	.loc 1 1239 6 is_stmt 0 view .LVU2164
	ldr	r0, [sp, #20]
	.loc 1 1239 19 view .LVU2165
	ldrb	r3, [r0, #441]	@ zero_extendqisi2
	bfc	r3, #1, #1
	strb	r3, [r0, #441]
	.loc 1 1240 2 is_stmt 1 view .LVU2166
	.loc 1 1240 14 is_stmt 0 view .LVU2167
	movs	r3, #1
	strb	r3, [r0, #424]
	.loc 1 1241 2 is_stmt 1 view .LVU2168
	.loc 1 1241 17 is_stmt 0 view .LVU2169
	mov	r3, #1280
	strh	r3, [r0, #436]	@ movhi
	.loc 1 1246 2 is_stmt 1 view .LVU2170
	.loc 1 1246 12 is_stmt 0 view .LVU2171
	movs	r4, #0
	str	r4, [r0, #428]
	.loc 1 1248 2 is_stmt 1 view .LVU2172
.LVL458:
.LBB2247:
.LBI2247:
	.loc 5 196 20 view .LVU2173
.LBB2248:
	.loc 5 198 2 view .LVU2174
	.loc 5 198 13 is_stmt 0 view .LVU2175
	str	r4, [r0, #24]
	.loc 5 199 2 is_stmt 1 view .LVU2176
	.loc 5 199 13 is_stmt 0 view .LVU2177
	str	r4, [r0, #28]
.LVL459:
	.loc 5 199 13 view .LVU2178
.LBE2248:
.LBE2247:
	.loc 1 1250 2 is_stmt 1 view .LVU2179
	ldr	r1, .L249+4
	adds	r0, r0, #120
	bl	k_work_init_delayable
.LVL460:
	.loc 1 1251 2 view .LVU2180
	ldr	r1, .L249+8
	ldr	r0, [sp, #20]
	add	r0, r0, #264
	bl	k_work_init_delayable
.LVL461:
	.loc 1 1252 2 view .LVU2181
	ldr	r1, .L249+12
	ldr	r0, [sp, #20]
	add	r0, r0, #312
	bl	k_work_init_delayable
.LVL462:
	.loc 1 1253 2 view .LVU2182
	ldr	r1, .L249+16
	ldr	r0, [sp, #20]
	adds	r0, r0, #216
	bl	k_work_init_delayable
.LVL463:
	.loc 1 1254 2 view .LVU2183
	ldr	r1, .L249+20
	ldr	r0, [sp, #20]
	adds	r0, r0, #168
	bl	k_work_init_delayable
.LVL464:
	.loc 1 1256 2 view .LVU2184
	ldr	r0, [sp, #20]
	bl	tcp_conn_ref
.LVL465:
	.loc 1 1258 2 view .LVU2185
	.loc 1 1258 36 is_stmt 0 view .LVU2186
	ldr	r3, [sp, #20]
.LVL466:
.LBB2249:
.LBI2249:
	.loc 5 311 20 is_stmt 1 view .LVU2187
.LBB2250:
	.loc 5 311 77 view .LVU2188
.LBB2251:
.LBI2251:
	.loc 5 209 20 view .LVU2189
.LBB2252:
	.loc 5 211 2 view .LVU2190
	.loc 5 211 15 is_stmt 0 view .LVU2191
	str	r4, [r3]
.LVL467:
	.loc 5 211 15 view .LVU2192
.LBE2252:
.LBE2251:
	.loc 5 311 4 is_stmt 1 view .LVU2193
.LBB2253:
.LBI2253:
	.loc 5 243 28 view .LVU2194
.LBB2254:
	.loc 5 245 2 view .LVU2195
	.loc 5 245 13 is_stmt 0 view .LVU2196
	ldr	r2, .L249+24
	ldr	r2, [r2, #4]
.LVL468:
	.loc 5 245 13 view .LVU2197
.LBE2254:
.LBE2253:
	.loc 5 311 7 view .LVU2198
	cmp	r2, #0
	beq	.L248
	.loc 5 311 74 is_stmt 1 view .LVU2199
.LVL469:
	.loc 5 311 74 is_stmt 0 view .LVU2200
.LBE2250:
.LBE2249:
	.loc 5 245 2 is_stmt 1 view .LVU2201
.LBB2265:
.LBB2263:
.LBB2255:
.LBI2255:
	.loc 5 209 20 view .LVU2202
.LBB2256:
	.loc 5 211 2 view .LVU2203
	.loc 5 211 15 is_stmt 0 view .LVU2204
	str	r3, [r2]
.LVL470:
	.loc 5 211 15 view .LVU2205
.LBE2256:
.LBE2255:
	.loc 5 311 126 is_stmt 1 view .LVU2206
.LBB2257:
.LBI2257:
	.loc 5 219 20 view .LVU2207
.LBB2258:
	.loc 5 221 2 view .LVU2208
	.loc 5 221 13 is_stmt 0 view .LVU2209
	ldr	r2, .L249+24
	str	r3, [r2, #4]
.LVL471:
.L237:
	.loc 5 221 13 view .LVU2210
.LBE2258:
.LBE2257:
.LBE2263:
.LBE2265:
	.loc 1 1260 2 is_stmt 1 view .LVU2211
.LBB2266:
	.loc 1 1260 7 view .LVU2212
.LBE2266:
	.loc 1 1260 116 view .LVU2213
	.loc 1 1262 2 view .LVU2214
	.loc 1 1262 9 is_stmt 0 view .LVU2215
	ldr	r0, [sp, #20]
.L242:
	.loc 1 1272 1 view .LVU2216
	add	sp, sp, #48
	.cfi_remember_state
	.cfi_def_cfa_offset 8
	@ sp needed
	pop	{r4, pc}
.LVL472:
.L245:
	.cfi_restore_state
	.loc 1 1214 3 is_stmt 1 view .LVU2217
.LBB2267:
	.loc 1 1214 8 view .LVU2218
	.loc 1 1214 57 view .LVU2219
	.loc 1 1214 14 view .LVU2220
	.loc 1 1214 2 view .LVU2221
.LBE2267:
	.loc 9 120 2 view .LVU2222
.LBB2280:
	.loc 1 1214 41 view .LVU2223
	.loc 1 1214 107 view .LVU2224
	.loc 1 1214 206 view .LVU2225
.LBB2268:
	.loc 1 1214 215 view .LVU2226
	.loc 1 1214 226 view .LVU2227
	.loc 1 1214 314 view .LVU2228
	.loc 1 1214 319 view .LVU2229
	.loc 1 1214 321 view .LVU2230
.LBE2268:
.LBE2280:
	.loc 1 1214 3 view .LVU2231
	.loc 1 1214 3 view .LVU2232
.LBB2281:
.LBB2277:
	.loc 1 1214 74 view .LVU2233
.LBB2269:
	.loc 1 1214 79 view .LVU2234
	.loc 1 1214 90 view .LVU2235
.LBE2269:
.LBE2277:
.LBE2281:
	.loc 1 1214 3 view .LVU2236
	.loc 1 1214 217 view .LVU2237
	.loc 1 1214 2 view .LVU2238
	.loc 1 1214 31 view .LVU2239
	.loc 1 1214 4 view .LVU2240
	.loc 1 1214 24 view .LVU2241
	.loc 1 1214 48 view .LVU2242
	.loc 1 1214 23 view .LVU2243
	.loc 1 1214 41 view .LVU2244
	.loc 1 1214 61 view .LVU2245
	.loc 1 1214 108 view .LVU2246
	.loc 1 1214 140 view .LVU2247
	.loc 1 1214 13 view .LVU2248
	.loc 1 1214 55 view .LVU2249
	.loc 1 1214 97 view .LVU2250
	.loc 1 1214 142 view .LVU2251
	.loc 1 1214 147 view .LVU2252
	.loc 1 1214 391 view .LVU2253
	.loc 1 1214 397 view .LVU2254
	.loc 1 1214 1478 view .LVU2255
	.loc 1 1214 1502 view .LVU2256
	.loc 1 1214 1549 view .LVU2257
	.loc 1 1214 1653 view .LVU2258
	.loc 1 1214 1668 view .LVU2259
	.loc 1 1214 1945 view .LVU2260
	.loc 1 1214 1993 view .LVU2261
	.loc 1 1214 3213 view .LVU2262
	.loc 1 1214 3220 view .LVU2263
	.loc 1 1214 3243 view .LVU2264
	.loc 1 1214 3277 view .LVU2265
	.loc 1 1214 3282 view .LVU2266
	.loc 1 1214 3305 view .LVU2267
	.loc 1 1214 3433 view .LVU2268
	.loc 1 1214 16 view .LVU2269
.LBB2282:
.LBB2278:
.LBB2275:
	.loc 1 1214 11 view .LVU2270
	.loc 1 1214 16 view .LVU2271
	.loc 1 1214 39 view .LVU2272
	.loc 1 1214 159 view .LVU2273
	.loc 1 1214 285 view .LVU2274
	.loc 1 1214 488 view .LVU2275
	.loc 1 1214 5 view .LVU2276
	.loc 1 1214 7 view .LVU2277
	.loc 1 1214 20 view .LVU2278
.LBB2270:
	.loc 1 1214 3 view .LVU2279
	.loc 1 1214 217 view .LVU2280
	.loc 1 1214 2 view .LVU2281
	.loc 1 1214 31 view .LVU2282
	.loc 1 1214 60 view .LVU2283
	.loc 1 1214 80 view .LVU2284
	.loc 1 1214 104 view .LVU2285
	.loc 1 1214 27 view .LVU2286
	.loc 1 1214 45 view .LVU2287
	.loc 1 1214 65 view .LVU2288
	.loc 1 1214 112 view .LVU2289
	.loc 1 1214 144 view .LVU2290
	.loc 1 1214 13 view .LVU2291
	.loc 1 1214 55 view .LVU2292
	.loc 1 1214 97 view .LVU2293
	.loc 1 1214 142 view .LVU2294
.LBB2271:
	.loc 1 1214 147 view .LVU2295
	.loc 1 1214 391 view .LVU2296
	.loc 1 1214 397 view .LVU2297
	.loc 1 1214 1478 view .LVU2298
.LBE2271:
.LBE2270:
.LBE2275:
.LBE2278:
.LBE2282:
	.loc 1 1214 1502 view .LVU2299
	.loc 1 1214 1549 view .LVU2300
	.loc 1 1214 1653 view .LVU2301
.LBB2283:
.LBB2279:
.LBB2276:
.LBB2274:
.LBB2272:
	.loc 1 1214 1668 view .LVU2302
	.loc 1 1214 1945 view .LVU2303
	.loc 1 1214 1993 view .LVU2304
	.loc 1 1214 2031 view .LVU2305
	.loc 1 1214 2036 view .LVU2306
	.loc 1 1214 2559 view .LVU2307
	.loc 1 1214 3177 is_stmt 0 view .LVU2308
	ldr	r3, .L249+28
	str	r3, [sp, #40]
	.loc 1 1214 3213 is_stmt 1 view .LVU2309
	.loc 1 1214 3220 view .LVU2310
.LVL473:
	.loc 1 1214 3243 view .LVU2311
	.loc 1 1214 3243 is_stmt 0 view .LVU2312
.LBE2272:
	.loc 1 1214 3277 is_stmt 1 view .LVU2313
	.loc 1 1214 3282 view .LVU2314
	.loc 1 1214 3305 view .LVU2315
	.loc 1 1214 3433 view .LVU2316
	.loc 1 1214 16 view .LVU2317
.LBB2273:
	.loc 1 1214 29 view .LVU2318
	.loc 1 1214 50 is_stmt 0 view .LVU2319
	movs	r3, #0
	strh	r3, [sp, #17]	@ unaligned
	strb	r3, [sp, #19]
	movs	r2, #2
	strb	r2, [sp, #16]
	strb	r3, [sp, #18]
	.loc 1 1214 175 is_stmt 1 view .LVU2320
	.loc 1 1214 185 is_stmt 0 view .LVU2321
	ldr	r2, [sp, #16]
	str	r2, [sp, #36]
	.loc 1 1214 185 view .LVU2322
.LBE2273:
.LBE2274:
	.loc 1 1214 11 is_stmt 1 view .LVU2323
	.loc 1 1214 18 view .LVU2324
	.loc 1 1214 39 is_stmt 0 view .LVU2325
	mov	r2, r3
.LVL474:
	.loc 1 1214 39 view .LVU2326
	bfi	r2, r3, #0, #1
.LVL475:
	.loc 1 1214 39 view .LVU2327
	bfi	r2, r3, #1, #1
	bfi	r2, r3, #2, #1
	bfi	r2, r3, #3, #3
	movs	r1, #1
	bfi	r2, r1, #6, #3
	movs	r1, #8
	bfi	r2, r1, #9, #10
	.loc 1 1214 174 is_stmt 1 view .LVU2328
	ubfx	r2, r2, #0, #19
.LVL476:
	.loc 1 1214 174 is_stmt 0 view .LVU2329
	ldr	r1, .L249+32
	add	r0, sp, #24
.LVL477:
	.loc 1 1214 174 view .LVU2330
	bl	z_log_msg2_finalize
.LVL478:
	.loc 1 1214 174 view .LVU2331
.LBE2276:
	.loc 1 1214 13 is_stmt 1 view .LVU2332
	.loc 1 1214 18 view .LVU2333
.LVL479:
	.loc 1 1214 58 view .LVU2334
.LBE2279:
	.loc 1 1214 13 view .LVU2335
	.loc 1 1214 20 view .LVU2336
	.loc 1 1214 20 is_stmt 0 view .LVU2337
.LBE2283:
	.loc 1 1214 66 is_stmt 1 view .LVU2338
	.loc 1 1215 3 view .LVU2339
	b	.L237
.LVL480:
.L246:
	.loc 1 1223 4 view .LVU2340
.LBB2284:
	.loc 1 1223 9 view .LVU2341
	.loc 1 1223 58 view .LVU2342
	.loc 1 1223 15 view .LVU2343
	.loc 1 1223 3 view .LVU2344
.LBE2284:
	.loc 9 120 2 view .LVU2345
.LBB2287:
	.loc 1 1223 42 view .LVU2346
	.loc 1 1223 108 view .LVU2347
	.loc 1 1223 207 view .LVU2348
.LBB2285:
	.loc 1 1223 216 view .LVU2349
	.loc 1 1223 227 view .LVU2350
	.loc 1 1223 315 view .LVU2351
	.loc 1 1223 320 view .LVU2352
	.loc 1 1223 322 view .LVU2353
.LBE2285:
.LBE2287:
	.loc 1 1223 4 view .LVU2354
	.loc 1 1223 4 view .LVU2355
.LBB2288:
.LBB2286:
	.loc 1 1223 15 view .LVU2356
	.loc 1 1223 17 view .LVU2357
	str	r3, [sp, #12]
	ldr	r3, .L249+36
	str	r3, [sp, #8]
	ldr	r3, .L249+40
	str	r3, [sp, #4]
	str	r0, [sp]
	mov	r3, r0
	movs	r2, #1
	ldr	r1, .L249+32
	bl	z_log_msg2_runtime_create
.LVL481:
	.loc 1 1223 63 view .LVU2358
	.loc 1 1223 59 view .LVU2359
.LBE2286:
	.loc 1 1223 14 view .LVU2360
	.loc 1 1223 21 view .LVU2361
	.loc 1 1223 21 is_stmt 0 view .LVU2362
.LBE2288:
	.loc 1 1223 97 is_stmt 1 view .LVU2363
	.loc 1 1225 4 view .LVU2364
.L239:
	.loc 1 1265 2 view .LVU2365
	.loc 1 1265 17 is_stmt 0 view .LVU2366
	ldr	r3, [sp, #20]
	ldr	r0, [r3, #12]
	.loc 1 1265 5 view .LVU2367
	cbz	r0, .L243
	.loc 1 1266 3 is_stmt 1 view .LVU2368
	bl	net_pkt_unref
.LVL482:
	.loc 1 1267 3 view .LVU2369
	.loc 1 1267 25 is_stmt 0 view .LVU2370
	ldr	r3, [sp, #20]
	movs	r2, #0
	str	r2, [r3, #12]
.L243:
	.loc 1 1270 2 is_stmt 1 view .LVU2371
	add	r1, sp, #20
	ldr	r0, .L249
	bl	k_mem_slab_free
.LVL483:
	.loc 1 1271 2 view .LVU2372
	.loc 1 1271 8 is_stmt 0 view .LVU2373
	movs	r0, #0
	b	.L242
.LVL484:
.L247:
	.loc 1 1231 3 is_stmt 1 view .LVU2374
.LBB2289:
	.loc 1 1231 8 view .LVU2375
	.loc 1 1231 57 view .LVU2376
	.loc 1 1231 14 view .LVU2377
	.loc 1 1231 2 view .LVU2378
.LBE2289:
	.loc 9 120 2 view .LVU2379
.LBB2292:
	.loc 1 1231 41 view .LVU2380
	.loc 1 1231 107 view .LVU2381
	.loc 1 1231 206 view .LVU2382
.LBB2290:
	.loc 1 1231 215 view .LVU2383
	.loc 1 1231 226 view .LVU2384
	.loc 1 1231 314 view .LVU2385
	.loc 1 1231 319 view .LVU2386
	.loc 1 1231 321 view .LVU2387
.LBE2290:
.LBE2292:
	.loc 1 1231 3 view .LVU2388
	.loc 1 1231 3 view .LVU2389
.LBB2293:
.LBB2291:
	.loc 1 1231 14 view .LVU2390
	.loc 1 1231 16 view .LVU2391
	str	r3, [sp, #12]
	ldr	r3, .L249+44
	str	r3, [sp, #8]
	ldr	r3, .L249+40
	str	r3, [sp, #4]
	str	r0, [sp]
	mov	r3, r0
	movs	r2, #1
	ldr	r1, .L249+32
	bl	z_log_msg2_runtime_create
.LVL485:
	.loc 1 1231 62 view .LVU2392
	.loc 1 1231 58 view .LVU2393
.LBE2291:
	.loc 1 1231 13 view .LVU2394
	.loc 1 1231 20 view .LVU2395
	.loc 1 1231 20 is_stmt 0 view .LVU2396
.LBE2293:
	.loc 1 1231 96 is_stmt 1 view .LVU2397
	.loc 1 1232 3 view .LVU2398
	b	.L239
.LVL486:
.L248:
.LBB2294:
.LBB2264:
	.loc 5 311 5 view .LVU2399
.LBB2259:
.LBI2259:
	.loc 5 219 20 view .LVU2400
.LBB2260:
	.loc 5 221 2 view .LVU2401
	.loc 5 221 13 is_stmt 0 view .LVU2402
	ldr	r2, .L249+24
	str	r3, [r2, #4]
.LVL487:
	.loc 5 221 13 view .LVU2403
.LBE2260:
.LBE2259:
	.loc 5 311 35 is_stmt 1 view .LVU2404
.LBB2261:
.LBI2261:
	.loc 5 214 20 view .LVU2405
.LBB2262:
	.loc 5 216 2 view .LVU2406
	.loc 5 216 13 is_stmt 0 view .LVU2407
	str	r3, [r2]
	.loc 5 217 1 view .LVU2408
	b	.L237
.L250:
	.align	2
.L249:
	.word	.LANCHOR2
	.word	tcp_send_process
	.word	tcp_timewait_timeout
	.word	tcp_fin_timeout
	.word	tcp_resend_data
	.word	tcp_cleanup_recv_queue
	.word	.LANCHOR1
	.word	.LC15
	.word	.LANCHOR3
	.word	.LC16
	.word	.LC17
	.word	.LC18
.LBE2262:
.LBE2261:
.LBE2264:
.LBE2294:
	.cfi_endproc
.LFE986:
	.size	tcp_conn_alloc, .-tcp_conn_alloc
	.section	.rodata.tcp_endpoint_set.str1.4,"aMS",%progbits,1
	.align	2
.LC19:
	.ascii	"Unknown address family: %hu\000"
	.section	.text.tcp_endpoint_set,"ax",%progbits
	.align	1
	.syntax unified
	.thumb
	.thumb_func
	.fpu fpv4-sp-d16
	.type	tcp_endpoint_set, %function
tcp_endpoint_set:
.LVL488:
.LFB950:
	.loc 1 146 1 is_stmt 1 view -0
	.cfi_startproc
	@ args = 0, pretend = 0, frame = 32
	@ frame_needed = 0, uses_anonymous_args = 0
	.loc 1 146 1 is_stmt 0 view .LVU2410
	push	{r4, r5, r6, lr}
	.cfi_def_cfa_offset 16
	.cfi_offset 4, -16
	.cfi_offset 5, -12
	.cfi_offset 6, -8
	.cfi_offset 14, -4
	sub	sp, sp, #32
	.cfi_def_cfa_offset 48
	mov	r4, r0
	mov	r0, r1
.LVL489:
	.loc 1 146 1 view .LVU2411
	mov	r5, r2
	.loc 1 147 2 is_stmt 1 view .LVU2412
.LVL490:
	.loc 1 149 2 view .LVU2413
.LBB2325:
.LBI2325:
	.loc 11 329 23 view .LVU2414
.LBB2326:
	.loc 11 331 2 view .LVU2415
	.loc 11 331 12 is_stmt 0 view .LVU2416
	ldrb	r3, [r1, #75]	@ zero_extendqisi2
	ubfx	r3, r3, #1, #3
.LVL491:
	.loc 11 331 12 view .LVU2417
.LBE2326:
.LBE2325:
	.loc 1 149 2 view .LVU2418
	cmp	r3, #1
	beq	.L252
	cmp	r3, #2
	beq	.L253
	.loc 1 199 3 is_stmt 1 view .LVU2419
.LBB2327:
	.loc 1 199 8 view .LVU2420
	.loc 1 199 57 view .LVU2421
	.loc 1 199 14 view .LVU2422
	.loc 1 199 2 view .LVU2423
.LBE2327:
	.loc 9 120 2 view .LVU2424
.LVL492:
.LBB2349:
	.loc 1 199 41 view .LVU2425
	.loc 1 199 107 view .LVU2426
	.loc 1 199 206 view .LVU2427
.LBB2328:
	.loc 1 199 215 view .LVU2428
	.loc 1 199 226 view .LVU2429
	.loc 1 199 314 view .LVU2430
	.loc 1 199 319 view .LVU2431
	.loc 1 199 321 view .LVU2432
.LBE2328:
.LBE2349:
	.loc 1 199 3 view .LVU2433
	.loc 1 199 3 view .LVU2434
.LBB2350:
.LBB2344:
	.loc 1 199 102 view .LVU2435
.LBB2329:
	.loc 1 199 107 view .LVU2436
	.loc 1 199 118 view .LVU2437
.LBE2329:
.LBE2344:
.LBE2350:
	.loc 1 199 3 view .LVU2438
	.loc 1 199 217 view .LVU2439
	.loc 1 199 2 view .LVU2440
	.loc 1 199 31 view .LVU2441
	.loc 1 199 4 view .LVU2442
	.loc 1 199 24 view .LVU2443
	.loc 1 199 48 view .LVU2444
	.loc 1 199 23 view .LVU2445
	.loc 1 199 41 view .LVU2446
	.loc 1 199 61 view .LVU2447
	.loc 1 199 108 view .LVU2448
	.loc 1 199 140 view .LVU2449
	.loc 1 199 13 view .LVU2450
	.loc 1 199 55 view .LVU2451
	.loc 1 199 97 view .LVU2452
	.loc 1 199 142 view .LVU2453
	.loc 1 199 147 view .LVU2454
	.loc 1 199 398 view .LVU2455
	.loc 1 199 404 view .LVU2456
	.loc 1 199 1513 view .LVU2457
	.loc 1 199 1537 view .LVU2458
	.loc 1 199 1591 view .LVU2459
	.loc 1 199 1702 view .LVU2460
	.loc 1 199 1717 view .LVU2461
	.loc 1 199 2001 view .LVU2462
	.loc 1 199 2049 view .LVU2463
	.loc 1 199 3325 view .LVU2464
	.loc 1 199 3332 view .LVU2465
	.loc 1 199 3355 view .LVU2466
	.loc 1 199 3389 view .LVU2467
	.loc 1 199 3395 view .LVU2468
	.loc 1 199 3400 view .LVU2469
	.loc 1 199 3641 view .LVU2470
	.loc 1 199 3647 view .LVU2471
	.loc 1 199 0 view .LVU2472
	.loc 1 199 0 view .LVU2473
	.loc 11 331 2 view .LVU2474
	.loc 1 199 0 view .LVU2475
	.loc 1 199 0 view .LVU2476
	.loc 1 199 0 view .LVU2477
	.loc 1 199 0 view .LVU2478
	.loc 1 199 0 view .LVU2479
	.loc 1 199 0 view .LVU2480
	.loc 1 199 0 view .LVU2481
	.loc 1 199 0 view .LVU2482
	.loc 1 199 0 view .LVU2483
	.loc 1 199 0 view .LVU2484
	.loc 1 199 0 view .LVU2485
	.loc 1 199 16 view .LVU2486
.LBB2351:
.LBB2345:
.LBB2340:
	.loc 1 199 11 view .LVU2487
	.loc 1 199 16 view .LVU2488
	.loc 1 199 39 view .LVU2489
	.loc 1 199 159 view .LVU2490
	.loc 1 199 285 view .LVU2491
	.loc 1 199 488 view .LVU2492
	.loc 1 199 5 view .LVU2493
	.loc 1 199 7 view .LVU2494
	.loc 1 199 20 view .LVU2495
.LBB2330:
	.loc 1 199 3 view .LVU2496
	.loc 1 199 217 view .LVU2497
	.loc 1 199 2 view .LVU2498
	.loc 1 199 31 view .LVU2499
	.loc 1 199 60 view .LVU2500
	.loc 1 199 80 view .LVU2501
	.loc 1 199 104 view .LVU2502
	.loc 1 199 27 view .LVU2503
	.loc 1 199 45 view .LVU2504
	.loc 1 199 65 view .LVU2505
	.loc 1 199 112 view .LVU2506
	.loc 1 199 144 view .LVU2507
	.loc 1 199 13 view .LVU2508
	.loc 1 199 55 view .LVU2509
	.loc 1 199 97 view .LVU2510
	.loc 1 199 142 view .LVU2511
.LBB2331:
	.loc 1 199 147 view .LVU2512
	.loc 1 199 398 view .LVU2513
	.loc 1 199 404 view .LVU2514
	.loc 1 199 1513 view .LVU2515
.LBE2331:
.LBE2330:
.LBE2340:
.LBE2345:
.LBE2351:
	.loc 1 199 1537 view .LVU2516
	.loc 1 199 1591 view .LVU2517
	.loc 1 199 1702 view .LVU2518
.LBB2352:
.LBB2346:
.LBB2341:
.LBB2337:
.LBB2332:
	.loc 1 199 1717 view .LVU2519
	.loc 1 199 2001 view .LVU2520
	.loc 1 199 2049 view .LVU2521
	.loc 1 199 2087 view .LVU2522
	.loc 1 199 2092 view .LVU2523
	.loc 1 199 2657 view .LVU2524
	.loc 1 199 3282 is_stmt 0 view .LVU2525
	ldr	r2, .L272
.LVL493:
	.loc 1 199 3282 view .LVU2526
	str	r2, [sp, #24]
	.loc 1 199 3325 is_stmt 1 view .LVU2527
	.loc 1 199 3332 view .LVU2528
.LVL494:
	.loc 1 199 3355 view .LVU2529
	.loc 1 199 3355 is_stmt 0 view .LVU2530
.LBE2332:
	.loc 1 199 3389 is_stmt 1 view .LVU2531
	.loc 1 199 3395 view .LVU2532
.LBB2333:
	.loc 1 199 3400 view .LVU2533
	.loc 1 199 3641 view .LVU2534
	.loc 1 199 3647 view .LVU2535
	.loc 1 199 0 view .LVU2536
.LBE2333:
.LBE2337:
.LBE2341:
.LBE2346:
.LBE2352:
	.loc 1 199 0 view .LVU2537
	.loc 11 331 2 view .LVU2538
	.loc 1 199 0 view .LVU2539
	.loc 1 199 0 view .LVU2540
.LBB2353:
.LBB2347:
.LBB2342:
.LBB2338:
.LBB2334:
	.loc 1 199 0 view .LVU2541
	.loc 1 199 0 view .LVU2542
	.loc 1 199 0 view .LVU2543
	.loc 1 199 0 view .LVU2544
	.loc 1 199 0 view .LVU2545
	.loc 1 199 0 is_stmt 0 view .LVU2546
.LBE2334:
.LBE2338:
.LBE2342:
.LBE2347:
.LBE2353:
	.loc 11 331 2 is_stmt 1 view .LVU2547
.LBB2354:
.LBB2348:
.LBB2343:
.LBB2339:
.LBB2335:
	.loc 1 199 0 is_stmt 0 view .LVU2548
	str	r3, [sp, #28]
	.loc 1 199 0 is_stmt 1 view .LVU2549
	.loc 1 199 0 view .LVU2550
.LVL495:
	.loc 1 199 0 view .LVU2551
	.loc 1 199 0 is_stmt 0 view .LVU2552
.LBE2335:
	.loc 1 199 0 is_stmt 1 view .LVU2553
	.loc 1 199 0 view .LVU2554
	.loc 1 199 0 view .LVU2555
	.loc 1 199 0 view .LVU2556
	.loc 1 199 16 view .LVU2557
.LBB2336:
	.loc 1 199 29 view .LVU2558
	.loc 1 199 50 is_stmt 0 view .LVU2559
	movs	r3, #0
.LVL496:
	.loc 1 199 50 view .LVU2560
	strh	r3, [sp, #5]	@ unaligned
	strb	r3, [sp, #7]
	movs	r2, #3
	strb	r2, [sp, #4]
	strb	r3, [sp, #6]
	.loc 1 199 175 is_stmt 1 view .LVU2561
	.loc 1 199 185 is_stmt 0 view .LVU2562
	ldr	r2, [sp, #4]
	str	r2, [sp, #20]
	.loc 1 199 185 view .LVU2563
.LBE2336:
.LBE2339:
	.loc 1 199 11 is_stmt 1 view .LVU2564
	.loc 1 199 18 view .LVU2565
	.loc 1 199 39 is_stmt 0 view .LVU2566
	mov	r2, r3
.LVL497:
	.loc 1 199 39 view .LVU2567
	bfi	r2, r3, #0, #1
.LVL498:
	.loc 1 199 39 view .LVU2568
	bfi	r2, r3, #1, #1
	bfi	r2, r3, #2, #1
	bfi	r2, r3, #3, #3
	movs	r1, #1
.LVL499:
	.loc 1 199 39 view .LVU2569
	bfi	r2, r1, #6, #3
	movs	r1, #12
	bfi	r2, r1, #9, #10
	.loc 1 199 174 is_stmt 1 view .LVU2570
	ubfx	r2, r2, #0, #19
.LVL500:
	.loc 1 199 174 is_stmt 0 view .LVU2571
	ldr	r1, .L272+4
	add	r0, sp, #8
.LVL501:
	.loc 1 199 174 view .LVU2572
	bl	z_log_msg2_finalize
.LVL502:
	.loc 1 199 174 view .LVU2573
.LBE2343:
	.loc 1 199 13 is_stmt 1 view .LVU2574
	.loc 1 199 18 view .LVU2575
.LVL503:
	.loc 1 199 58 view .LVU2576
.LBE2348:
	.loc 1 199 13 view .LVU2577
	.loc 1 199 20 view .LVU2578
	.loc 1 199 20 is_stmt 0 view .LVU2579
.LBE2354:
	.loc 1 199 94 is_stmt 1 view .LVU2580
	.loc 1 200 3 view .LVU2581
	.loc 1 200 7 is_stmt 0 view .LVU2582
	mvn	r0, #21
.LVL504:
.L251:
	.loc 1 204 1 view .LVU2583
	add	sp, sp, #32
	.cfi_remember_state
	.cfi_def_cfa_offset 16
	@ sp needed
	pop	{r4, r5, r6, pc}
.LVL505:
.L252:
	.cfi_restore_state
	.loc 1 151 3 is_stmt 1 view .LVU2584
.LBB2355:
	.loc 1 152 4 view .LVU2585
.LBB2356:
.LBI2356:
	.loc 11 971 24 view .LVU2586
.LBB2357:
	.loc 11 973 2 view .LVU2587
	.loc 11 973 12 is_stmt 0 view .LVU2588
	ldr	r3, [r1, #8]
	.loc 11 973 19 view .LVU2589
	ldr	r6, [r3, #8]
.LVL506:
	.loc 11 973 19 view .LVU2590
.LBE2357:
.LBE2356:
	.loc 1 153 4 is_stmt 1 view .LVU2591
	.loc 1 155 4 view .LVU2592
	.loc 1 155 9 is_stmt 0 view .LVU2593
	bl	th_get
.LVL507:
	.loc 1 156 4 is_stmt 1 view .LVU2594
	.loc 1 156 7 is_stmt 0 view .LVU2595
	cmp	r0, #0
	beq	.L264
	.loc 1 160 3 is_stmt 1 view .LVU2596
.LVL508:
.LBB2358:
.LBI2358:
	.loc 8 86 189 view .LVU2597
.LBB2359:
	.loc 8 86 238 view .LVU2598
	.loc 8 86 245 is_stmt 0 view .LVU2599
	movs	r3, #0
	str	r3, [r4]	@ unaligned
	str	r3, [r4, #4]	@ unaligned
	str	r3, [r4, #8]	@ unaligned
	str	r3, [r4, #12]	@ unaligned
	str	r3, [r4, #16]	@ unaligned
	str	r3, [r4, #20]	@ unaligned
.LVL509:
	.loc 8 86 245 view .LVU2600
.LBE2359:
.LBE2358:
	.loc 1 162 4 is_stmt 1 view .LVU2601
	.loc 1 162 21 is_stmt 0 view .LVU2602
	cmp	r5, #1
	beq	.L268
.LBB2360:
	.loc 1 163 32 is_stmt 1 discriminator 2 view .LVU2603
.LVL510:
	.loc 1 163 151 discriminator 2 view .LVU2604
	.loc 1 163 154 is_stmt 0 discriminator 2 view .LVU2605
	ldrh	r3, [r0, #2]	@ unaligned
.LVL511:
.L257:
	.loc 1 163 154 discriminator 2 view .LVU2606
.LBE2360:
	.loc 1 162 21 discriminator 4 view .LVU2607
	strh	r3, [r4, #2]	@ movhi
	.loc 1 164 4 is_stmt 1 discriminator 4 view .LVU2608
	cmp	r5, #1
	beq	.L269
	.loc 1 164 4 is_stmt 0 discriminator 2 view .LVU2609
	adds	r6, r6, #16
.LVL512:
.L259:
.LBB2361:
.LBI2361:
	.loc 3 748 20 is_stmt 1 discriminator 4 view .LVU2610
.LBE2361:
.LBE2355:
	.loc 3 751 2 discriminator 4 view .LVU2611
.LBB2366:
.LBB2364:
.LBB2362:
	.loc 3 751 7 discriminator 4 view .LVU2612
	.loc 3 751 138 discriminator 4 view .LVU2613
.LBB2363:
	.loc 3 751 167 discriminator 4 view .LVU2614
	.loc 3 751 310 discriminator 4 view .LVU2615
	.loc 3 751 313 is_stmt 0 discriminator 4 view .LVU2616
	ldr	r3, [r6]	@ unaligned
.LBE2363:
	.loc 3 751 147 discriminator 4 view .LVU2617
	str	r3, [r4, #4]	@ unaligned
	.loc 3 751 325 is_stmt 1 discriminator 4 view .LVU2618
	.loc 3 751 330 discriminator 4 view .LVU2619
	.loc 3 751 378 discriminator 4 view .LVU2620
.LBE2362:
.LBE2364:
.LBE2366:
	.loc 3 751 12 discriminator 4 view .LVU2621
.LVL513:
.LBB2367:
	.loc 1 167 4 discriminator 4 view .LVU2622
	.loc 1 167 21 is_stmt 0 discriminator 4 view .LVU2623
	movs	r3, #1
	strh	r3, [r4]	@ movhi
.LBE2367:
	.loc 1 172 3 is_stmt 1 discriminator 4 view .LVU2624
	.loc 1 147 6 is_stmt 0 discriminator 4 view .LVU2625
	movs	r0, #0
.LVL514:
	.loc 1 172 3 discriminator 4 view .LVU2626
	b	.L251
.LVL515:
.L268:
.LBB2368:
.LBB2365:
	.loc 1 162 60 is_stmt 1 discriminator 1 view .LVU2627
	.loc 1 162 179 discriminator 1 view .LVU2628
	.loc 1 162 182 is_stmt 0 discriminator 1 view .LVU2629
	ldrh	r3, [r0]	@ unaligned
.LBE2365:
	b	.L257
.LVL516:
.L269:
	.loc 1 164 4 discriminator 1 view .LVU2630
	adds	r6, r6, #12
.LVL517:
	.loc 1 164 4 discriminator 1 view .LVU2631
	b	.L259
.LVL518:
.L253:
	.loc 1 164 4 discriminator 1 view .LVU2632
.LBE2368:
	.loc 1 175 3 is_stmt 1 view .LVU2633
.LBB2369:
	.loc 1 176 4 view .LVU2634
.LBB2370:
.LBI2370:
	.loc 11 971 24 view .LVU2635
.LBB2371:
	.loc 11 973 2 view .LVU2636
	.loc 11 973 12 is_stmt 0 view .LVU2637
	ldr	r3, [r1, #8]
	.loc 11 973 19 view .LVU2638
	ldr	r6, [r3, #8]
.LVL519:
	.loc 11 973 19 view .LVU2639
.LBE2371:
.LBE2370:
	.loc 1 177 4 is_stmt 1 view .LVU2640
	.loc 1 179 4 view .LVU2641
	.loc 1 179 9 is_stmt 0 view .LVU2642
	bl	th_get
.LVL520:
	.loc 1 180 4 is_stmt 1 view .LVU2643
	.loc 1 180 7 is_stmt 0 view .LVU2644
	cbz	r0, .L265
	.loc 1 184 3 is_stmt 1 view .LVU2645
.LVL521:
.LBB2372:
.LBI2372:
	.loc 8 86 189 view .LVU2646
.LBB2373:
	.loc 8 86 238 view .LVU2647
	.loc 8 86 245 is_stmt 0 view .LVU2648
	movs	r3, #0
	str	r3, [r4]	@ unaligned
	str	r3, [r4, #4]	@ unaligned
	str	r3, [r4, #8]	@ unaligned
	str	r3, [r4, #12]	@ unaligned
	str	r3, [r4, #16]	@ unaligned
	str	r3, [r4, #20]	@ unaligned
.LVL522:
	.loc 8 86 245 view .LVU2649
.LBE2373:
.LBE2372:
	.loc 1 186 4 is_stmt 1 view .LVU2650
	.loc 1 186 23 is_stmt 0 view .LVU2651
	cmp	r5, #1
	beq	.L270
.LBB2374:
	.loc 1 187 27 is_stmt 1 discriminator 2 view .LVU2652
.LVL523:
	.loc 1 187 146 discriminator 2 view .LVU2653
	.loc 1 187 149 is_stmt 0 discriminator 2 view .LVU2654
	ldrh	r3, [r0, #2]	@ unaligned
.LVL524:
.L261:
	.loc 1 187 149 discriminator 2 view .LVU2655
.LBE2374:
	.loc 1 186 23 discriminator 4 view .LVU2656
	strh	r3, [r4, #2]	@ movhi
	.loc 1 188 4 is_stmt 1 discriminator 4 view .LVU2657
	.loc 1 188 38 is_stmt 0 discriminator 4 view .LVU2658
	adds	r2, r4, #4
	.loc 1 188 4 discriminator 4 view .LVU2659
	cmp	r5, #1
	beq	.L271
	.loc 1 188 4 discriminator 2 view .LVU2660
	add	r3, r6, #24
.L263:
.LVL525:
.LBB2375:
.LBI2375:
	.loc 3 760 20 is_stmt 1 discriminator 4 view .LVU2661
.LBE2375:
.LBE2369:
	.loc 3 763 1 discriminator 4 view .LVU2662
.LBB2380:
.LBB2378:
.LBB2376:
.LBI2376:
	.loc 8 83 216 discriminator 4 view .LVU2663
.LBB2377:
	.loc 8 83 292 discriminator 4 view .LVU2664
	.loc 8 83 299 is_stmt 0 discriminator 4 view .LVU2665
	ldr	r5, [r3]	@ unaligned
	ldr	r0, [r3, #4]	@ unaligned
.LVL526:
	.loc 8 83 299 discriminator 4 view .LVU2666
	ldr	r1, [r3, #8]	@ unaligned
	ldr	r3, [r3, #12]	@ unaligned
.LVL527:
	.loc 8 83 299 discriminator 4 view .LVU2667
	str	r5, [r4, #4]	@ unaligned
	str	r0, [r2, #4]	@ unaligned
	str	r1, [r2, #8]	@ unaligned
	str	r3, [r2, #12]	@ unaligned
.LVL528:
	.loc 8 83 299 discriminator 4 view .LVU2668
.LBE2377:
.LBE2376:
.LBE2378:
	.loc 1 191 4 is_stmt 1 discriminator 4 view .LVU2669
	.loc 1 191 21 is_stmt 0 discriminator 4 view .LVU2670
	movs	r3, #2
	strh	r3, [r4]	@ movhi
.LBE2380:
	.loc 1 196 3 is_stmt 1 discriminator 4 view .LVU2671
	.loc 1 147 6 is_stmt 0 discriminator 4 view .LVU2672
	movs	r0, #0
	.loc 1 196 3 discriminator 4 view .LVU2673
	b	.L251
.LVL529:
.L270:
.LBB2381:
.LBB2379:
	.loc 1 186 62 is_stmt 1 discriminator 1 view .LVU2674
	.loc 1 186 181 discriminator 1 view .LVU2675
	.loc 1 186 184 is_stmt 0 discriminator 1 view .LVU2676
	ldrh	r3, [r0]	@ unaligned
.LBE2379:
	b	.L261
.LVL530:
.L271:
	.loc 1 188 4 discriminator 1 view .LVU2677
	add	r3, r6, #8
	b	.L263
.LVL531:
.L264:
	.loc 1 188 4 discriminator 1 view .LVU2678
.LBE2381:
.LBB2382:
	.loc 1 157 12 view .LVU2679
	mvn	r0, #104
.LVL532:
	.loc 1 157 12 view .LVU2680
	b	.L251
.LVL533:
.L265:
	.loc 1 157 12 view .LVU2681
.LBE2382:
.LBB2383:
	.loc 1 181 12 view .LVU2682
	mvn	r0, #104
.LVL534:
	.loc 1 181 12 view .LVU2683
	b	.L251
.L273:
	.align	2
.L272:
	.word	.LC19
	.word	.LANCHOR3
.LBE2383:
	.cfi_endproc
.LFE950:
	.size	tcp_endpoint_set, .-tcp_endpoint_set
	.section	.text.tcp_endpoint_cmp,"ax",%progbits
	.align	1
	.syntax unified
	.thumb
	.thumb_func
	.fpu fpv4-sp-d16
	.type	tcp_endpoint_cmp, %function
tcp_endpoint_cmp:
.LVL535:
.LFB988:
	.loc 1 1298 1 is_stmt 1 view -0
	.cfi_startproc
	@ args = 0, pretend = 0, frame = 24
	@ frame_needed = 0, uses_anonymous_args = 0
	.loc 1 1298 1 is_stmt 0 view .LVU2685
	push	{r4, lr}
	.cfi_def_cfa_offset 8
	.cfi_offset 4, -8
	.cfi_offset 14, -4
	sub	sp, sp, #24
	.cfi_def_cfa_offset 32
	mov	r4, r0
	.loc 1 1299 2 is_stmt 1 view .LVU2686
	.loc 1 1301 2 view .LVU2687
	.loc 1 1301 6 is_stmt 0 view .LVU2688
	mov	r0, sp
.LVL536:
	.loc 1 1301 6 view .LVU2689
	bl	tcp_endpoint_set
.LVL537:
	.loc 1 1301 5 view .LVU2690
	cmp	r0, #0
	blt	.L276
	.loc 1 1305 2 is_stmt 1 view .LVU2691
	.loc 1 1305 10 is_stmt 0 view .LVU2692
	ldrh	r0, [r4]
	bl	tcp_endpoint_len
.LVL538:
	mov	r2, r0
	mov	r1, sp
	mov	r0, r4
	bl	memcmp
.LVL539:
	.loc 1 1305 9 view .LVU2693
	clz	r0, r0
	lsrs	r0, r0, #5
.L275:
	.loc 1 1306 1 view .LVU2694
	add	sp, sp, #24
	.cfi_remember_state
	.cfi_def_cfa_offset 8
	@ sp needed
	pop	{r4, pc}
.LVL540:
.L276:
	.cfi_restore_state
	.loc 1 1302 9 view .LVU2695
	movs	r0, #0
	b	.L275
	.cfi_endproc
.LFE988:
	.size	tcp_endpoint_cmp, .-tcp_endpoint_cmp
	.section	.text.tcp_conn_cmp,"ax",%progbits
	.align	1
	.syntax unified
	.thumb
	.thumb_func
	.fpu fpv4-sp-d16
	.type	tcp_conn_cmp, %function
tcp_conn_cmp:
.LVL541:
.LFB989:
	.loc 1 1309 1 is_stmt 1 view -0
	.cfi_startproc
	@ args = 0, pretend = 0, frame = 0
	@ frame_needed = 0, uses_anonymous_args = 0
	.loc 1 1309 1 is_stmt 0 view .LVU2697
	push	{r3, r4, r5, lr}
	.cfi_def_cfa_offset 16
	.cfi_offset 3, -16
	.cfi_offset 4, -12
	.cfi_offset 5, -8
	.cfi_offset 14, -4
	mov	r4, r0
	mov	r5, r1
	.loc 1 1310 2 is_stmt 1 view .LVU2698
	.loc 1 1310 9 is_stmt 0 view .LVU2699
	movs	r2, #0
	add	r0, r0, #360
.LVL542:
	.loc 1 1310 9 view .LVU2700
	bl	tcp_endpoint_cmp
.LVL543:
	.loc 1 1310 55 view .LVU2701
	cbnz	r0, .L283
	movs	r0, #0
.L279:
	.loc 1 1312 1 discriminator 6 view .LVU2702
	pop	{r3, r4, r5, pc}
.LVL544:
.L283:
	.loc 1 1311 3 discriminator 1 view .LVU2703
	movs	r2, #1
	mov	r1, r5
	add	r0, r4, #384
	bl	tcp_endpoint_cmp
.LVL545:
	.loc 1 1310 55 discriminator 1 view .LVU2704
	cbz	r0, .L281
	.loc 1 1310 55 view .LVU2705
	movs	r0, #1
	b	.L279
.L281:
	movs	r0, #0
	b	.L279
	.cfi_endproc
.LFE989:
	.size	tcp_conn_cmp, .-tcp_conn_cmp
	.section	.text.tcp_conn_search,"ax",%progbits
	.align	1
	.syntax unified
	.thumb
	.thumb_func
	.fpu fpv4-sp-d16
	.type	tcp_conn_search, %function
tcp_conn_search:
.LVL546:
.LFB990:
	.loc 1 1315 1 is_stmt 1 view -0
	.cfi_startproc
	@ args = 0, pretend = 0, frame = 0
	@ frame_needed = 0, uses_anonymous_args = 0
	.loc 1 1315 1 is_stmt 0 view .LVU2707
	push	{r4, r5, r6, lr}
	.cfi_def_cfa_offset 16
	.cfi_offset 4, -16
	.cfi_offset 5, -12
	.cfi_offset 6, -8
	.cfi_offset 14, -4
	mov	r6, r0
	.loc 1 1316 1 is_stmt 1 view .LVU2708
.LVL547:
	.loc 1 1317 2 view .LVU2709
	.loc 1 1318 2 view .LVU2710
	.loc 1 1320 2 view .LVU2711
.LBB2384:
.LBI2384:
	.loc 5 231 28 view .LVU2712
.LBB2385:
	.loc 5 233 2 view .LVU2713
	.loc 5 233 13 is_stmt 0 view .LVU2714
	ldr	r3, .L295
	ldr	r5, [r3]
.LVL548:
	.loc 5 233 13 view .LVU2715
.LBE2385:
.LBE2384:
	.loc 1 1320 4 view .LVU2716
	cbz	r5, .L291
.LVL549:
	.loc 5 233 2 is_stmt 1 discriminator 5 view .LVU2717
	.loc 1 1320 22 is_stmt 0 discriminator 5 view .LVU2718
	mov	r4, r5
.LVL550:
.LBB2386:
.LBI2386:
	.loc 5 285 29 is_stmt 1 discriminator 5 view .LVU2719
.LBB2387:
	.loc 5 285 70 discriminator 5 view .LVU2720
	.loc 5 285 38 is_stmt 0 discriminator 5 view .LVU2721
	cbz	r5, .L285
.LVL551:
.LBB2388:
.LBI2388:
	.loc 5 274 29 is_stmt 1 view .LVU2722
.LBE2388:
.LBE2387:
.LBE2386:
	.loc 5 274 79 view .LVU2723
.LBB2393:
.LBB2392:
.LBB2391:
.LBB2389:
.LBI2389:
	.loc 5 204 28 view .LVU2724
.LBB2390:
	.loc 5 206 2 view .LVU2725
	.loc 5 206 13 is_stmt 0 view .LVU2726
	ldr	r4, [r5]
.LVL552:
.L285:
	.loc 5 206 13 view .LVU2727
.LBE2390:
.LBE2389:
.LBE2391:
.LBE2392:
.LBE2393:
	.loc 1 1320 3 discriminator 22 view .LVU2728
	movs	r2, #0
	b	.L286
.L291:
	.loc 1 1320 3 view .LVU2729
	mov	r4, r5
	b	.L285
.LVL553:
.L292:
	.loc 1 1320 3 view .LVU2730
	mov	r3, r4
.L288:
	.loc 1 1320 3 discriminator 22 view .LVU2731
	mov	r5, r4
.LVL554:
	.loc 1 1320 3 discriminator 22 view .LVU2732
	mov	r4, r3
.LVL555:
.L286:
	.loc 1 1320 4 is_stmt 1 discriminator 22 view .LVU2733
	.loc 1 1320 2 is_stmt 0 discriminator 22 view .LVU2734
	cbz	r5, .L287
	.loc 1 1321 3 is_stmt 1 view .LVU2735
	.loc 1 1321 11 is_stmt 0 view .LVU2736
	mov	r1, r6
	mov	r0, r5
	bl	tcp_conn_cmp
.LVL556:
	.loc 1 1322 3 is_stmt 1 view .LVU2737
	.loc 1 1322 6 is_stmt 0 view .LVU2738
	mov	r2, r0
	cbnz	r0, .L287
	.loc 1 1320 3 is_stmt 1 view .LVU2739
.LVL557:
	.loc 1 1320 3 is_stmt 0 view .LVU2740
	cmp	r4, #0
	beq	.L292
	.loc 1 1320 33 discriminator 14 view .LVU2741
	mov	r3, r4
.LVL558:
.LBB2394:
.LBI2394:
	.loc 5 285 29 is_stmt 1 discriminator 14 view .LVU2742
.LBB2395:
	.loc 5 285 70 discriminator 14 view .LVU2743
	.loc 5 285 38 is_stmt 0 discriminator 14 view .LVU2744
	cmp	r4, #0
	beq	.L288
.LVL559:
.LBB2396:
.LBI2396:
	.loc 5 274 29 is_stmt 1 view .LVU2745
.LBE2396:
.LBE2395:
.LBE2394:
	.loc 5 274 79 view .LVU2746
.LBB2401:
.LBB2400:
.LBB2399:
.LBB2397:
.LBI2397:
	.loc 5 204 28 view .LVU2747
.LBB2398:
	.loc 5 206 2 view .LVU2748
	.loc 5 206 13 is_stmt 0 view .LVU2749
	ldr	r3, [r4]
.LVL560:
	.loc 5 206 13 view .LVU2750
.LBE2398:
.LBE2397:
.LBE2399:
.LBE2400:
.LBE2401:
	b	.L288
.LVL561:
.L287:
	.loc 1 1327 2 is_stmt 1 view .LVU2751
	.loc 1 1327 22 is_stmt 0 view .LVU2752
	cbz	r2, .L294
.LVL562:
.L284:
	.loc 1 1328 1 view .LVU2753
	mov	r0, r5
	pop	{r4, r5, r6, pc}
.LVL563:
.L294:
	.loc 1 1327 22 view .LVU2754
	movs	r5, #0
.LVL564:
	.loc 1 1327 22 view .LVU2755
	b	.L284
.L296:
	.align	2
.L295:
	.word	.LANCHOR1
	.cfi_endproc
.LFE990:
	.size	tcp_conn_search, .-tcp_conn_search
	.section	.text.seq_scale,"ax",%progbits
	.align	1
	.syntax unified
	.thumb
	.thumb_func
	.fpu fpv4-sp-d16
	.type	seq_scale, %function
seq_scale:
.LVL565:
.LFB992:
	.loc 1 1373 1 is_stmt 1 view -0
	.cfi_startproc
	@ args = 0, pretend = 0, frame = 0
	@ frame_needed = 0, uses_anonymous_args = 0
	.loc 1 1373 1 is_stmt 0 view .LVU2757
	push	{r4, lr}
	.cfi_def_cfa_offset 8
	.cfi_offset 4, -8
	.cfi_offset 14, -4
	mov	r4, r0
	.loc 1 1374 2 is_stmt 1 view .LVU2758
.LBB2402:
.LBI2402:
	.loc 6 562 23 view .LVU2759
.LBB2403:
	.loc 6 572 2 view .LVU2760
	.loc 6 572 7 view .LVU2761
	.loc 6 572 55 view .LVU2762
	.loc 6 573 2 view .LVU2763
	.loc 6 573 9 is_stmt 0 view .LVU2764
	bl	z_impl_k_uptime_ticks
.LVL566:
	.loc 6 573 9 view .LVU2765
.LBE2403:
.LBE2402:
.LBB2404:
.LBI2404:
	.loc 10 1256 24 is_stmt 1 view .LVU2766
.LBE2404:
	.loc 10 1259 2 view .LVU2767
.LBB2407:
.LBB2405:
.LBI2405:
	.loc 10 101 55 view .LVU2768
.LBB2406:
	.loc 10 106 1 view .LVU2769
	.loc 10 108 1 view .LVU2770
	.loc 10 111 2 view .LVU2771
	.loc 10 115 2 view .LVU2772
	.loc 10 117 2 view .LVU2773
	.loc 10 133 2 view .LVU2774
	.loc 10 140 9 view .LVU2775
	.loc 10 141 3 view .LVU2776
	.loc 10 142 4 view .LVU2777
	.loc 10 142 25 is_stmt 0 view .LVU2778
	ldr	r3, .L299
	mul	r0, r3, r0
.LVL567:
	.loc 10 142 25 view .LVU2779
.LBE2406:
.LBE2405:
.LBE2407:
	.loc 1 1375 1 view .LVU2780
	add	r0, r4, r0, lsr #6
	pop	{r4, pc}
.LVL568:
.L300:
	.loc 1 1375 1 view .LVU2781
	.align	2
.L299:
	.word	100000
	.cfi_endproc
.LFE992:
	.size	seq_scale, .-seq_scale
	.section	.text.tcpv6_init_isn,"ax",%progbits
	.align	1
	.syntax unified
	.thumb
	.thumb_func
	.fpu fpv4-sp-d16
	.type	tcpv6_init_isn, %function
tcpv6_init_isn:
.LVL569:
.LFB993:
	.loc 1 1383 1 is_stmt 1 view -0
	.cfi_startproc
	@ args = 0, pretend = 0, frame = 72
	@ frame_needed = 0, uses_anonymous_args = 0
	.loc 1 1383 1 is_stmt 0 view .LVU2783
	push	{r4, r5, r6, r7, r8, lr}
	.cfi_def_cfa_offset 24
	.cfi_offset 4, -24
	.cfi_offset 5, -20
	.cfi_offset 6, -16
	.cfi_offset 7, -12
	.cfi_offset 8, -8
	.cfi_offset 14, -4
	sub	sp, sp, #72
	.cfi_def_cfa_offset 96
	mov	r5, r0
	mov	r4, r1
	mov	r8, r2
	mov	r7, r3
	.loc 1 1384 2 is_stmt 1 view .LVU2784
	.loc 1 1390 4 is_stmt 0 view .LVU2785
	movs	r2, #52
.LVL570:
	.loc 1 1390 4 view .LVU2786
	movs	r1, #0
.LVL571:
	.loc 1 1390 4 view .LVU2787
	add	r0, sp, #20
.LVL572:
	.loc 1 1390 4 view .LVU2788
	bl	memset
.LVL573:
	.loc 1 1390 4 view .LVU2789
	add	r6, sp, #36
	ldm	r5, {r0, r1, r2, r3}
	stm	r6, {r0, r1, r2, r3}
	add	r5, sp, #52
.LVL574:
	.loc 1 1390 4 view .LVU2790
	ldm	r4, {r0, r1, r2, r3}
	stm	r5, {r0, r1, r2, r3}
	strh	r8, [sp, #68]	@ movhi
	strh	r7, [sp, #70]	@ movhi
	.loc 1 1397 2 is_stmt 1 view .LVU2791
	.loc 1 1398 2 view .LVU2792
	.loc 1 1400 2 view .LVU2793
	.loc 1 1400 6 is_stmt 0 view .LVU2794
	ldr	r3, .L305
	ldrb	r3, [r3]	@ zero_extendqisi2
	.loc 1 1400 5 view .LVU2795
	cbz	r3, .L304
.L302:
	.loc 1 1405 1 is_stmt 1 discriminator 1 view .LVU2796
	ldr	r3, .L305+4
	add	r4, sp, #20
.LVL575:
	.loc 1 1405 1 is_stmt 0 discriminator 1 view .LVU2797
	ldm	r3, {r0, r1, r2, r3}
	stm	r4, {r0, r1, r2, r3}
	.loc 1 1408 2 is_stmt 1 discriminator 1 view .LVU2798
	add	r2, sp, #4
	movs	r1, #52
	mov	r0, r4
	bl	mbedtls_md5
.LVL576:
	.loc 1 1411 2 discriminator 1 view .LVU2799
.LBB2408:
	.loc 1 1411 36 discriminator 1 view .LVU2800
	.loc 1 1411 165 discriminator 1 view .LVU2801
.LBE2408:
	.loc 1 1411 9 is_stmt 0 discriminator 1 view .LVU2802
	ldr	r0, [sp, #4]
	bl	seq_scale
.LVL577:
	.loc 1 1412 1 discriminator 1 view .LVU2803
	add	sp, sp, #72
	.cfi_remember_state
	.cfi_def_cfa_offset 24
	@ sp needed
	pop	{r4, r5, r6, r7, r8, pc}
.LVL578:
.L304:
	.cfi_restore_state
	.loc 1 1401 3 is_stmt 1 view .LVU2804
.LBB2409:
.LBI2409:
	.file 14 "/home/sebin/thesis/dmz/zephyr_xmc_template/build/zephyr/include/generated/syscalls/rand32.h"
	.loc 14 58 20 view .LVU2805
.LBB2410:
	.loc 14 67 2 view .LVU2806
	.loc 14 67 7 view .LVU2807
	.loc 14 67 55 view .LVU2808
	.loc 14 68 2 view .LVU2809
	movs	r1, #16
	ldr	r0, .L305+4
	bl	z_impl_sys_rand_get
.LVL579:
	.loc 14 68 2 is_stmt 0 view .LVU2810
.LBE2410:
.LBE2409:
	.loc 1 1402 3 is_stmt 1 view .LVU2811
	.loc 1 1402 8 is_stmt 0 view .LVU2812
	ldr	r3, .L305
	movs	r2, #1
	strb	r2, [r3]
	b	.L302
.L306:
	.align	2
.L305:
	.word	.LANCHOR6
	.word	.LANCHOR7
	.cfi_endproc
.LFE993:
	.size	tcpv6_init_isn, .-tcpv6_init_isn
	.section	.text.tcpv4_init_isn,"ax",%progbits
	.align	1
	.syntax unified
	.thumb
	.thumb_func
	.fpu fpv4-sp-d16
	.type	tcpv4_init_isn, %function
tcpv4_init_isn:
.LVL580:
.LFB994:
	.loc 1 1418 1 is_stmt 1 view -0
	.cfi_startproc
	@ args = 0, pretend = 0, frame = 48
	@ frame_needed = 0, uses_anonymous_args = 0
	.loc 1 1418 1 is_stmt 0 view .LVU2814
	push	{r4, lr}
	.cfi_def_cfa_offset 8
	.cfi_offset 4, -8
	.cfi_offset 14, -4
	sub	sp, sp, #48
	.cfi_def_cfa_offset 56
	.loc 1 1419 2 is_stmt 1 view .LVU2815
	.loc 1 1425 4 is_stmt 0 view .LVU2816
	movs	r4, #0
	str	r4, [sp, #20]
	str	r4, [sp, #24]
	str	r4, [sp, #28]
	str	r4, [sp, #32]
	ldr	r0, [r0]
.LVL581:
	.loc 1 1425 4 view .LVU2817
	str	r0, [sp, #36]
	ldr	r1, [r1]
.LVL582:
	.loc 1 1425 4 view .LVU2818
	str	r1, [sp, #40]
	strh	r2, [sp, #44]	@ movhi
	strh	r3, [sp, #46]	@ movhi
	.loc 1 1432 2 is_stmt 1 view .LVU2819
	.loc 1 1433 2 view .LVU2820
	.loc 1 1435 2 view .LVU2821
	.loc 1 1435 6 is_stmt 0 view .LVU2822
	ldr	r3, .L311
.LVL583:
	.loc 1 1435 6 view .LVU2823
	ldrb	r3, [r3]	@ zero_extendqisi2
	.loc 1 1435 5 view .LVU2824
	cbz	r3, .L310
.LVL584:
.L308:
	.loc 1 1440 1 is_stmt 1 discriminator 1 view .LVU2825
	ldr	r3, .L311+4
	add	r4, sp, #20
	ldm	r3, {r0, r1, r2, r3}
	stm	r4, {r0, r1, r2, r3}
	.loc 1 1443 2 discriminator 1 view .LVU2826
	add	r2, sp, #4
	movs	r1, #28
	mov	r0, r4
	bl	mbedtls_md5
.LVL585:
	.loc 1 1446 2 discriminator 1 view .LVU2827
.LBB2411:
	.loc 1 1446 36 discriminator 1 view .LVU2828
	.loc 1 1446 165 discriminator 1 view .LVU2829
.LBE2411:
	.loc 1 1446 9 is_stmt 0 discriminator 1 view .LVU2830
	ldr	r0, [sp, #4]
	bl	seq_scale
.LVL586:
	.loc 1 1447 1 discriminator 1 view .LVU2831
	add	sp, sp, #48
	.cfi_remember_state
	.cfi_def_cfa_offset 8
	@ sp needed
	pop	{r4, pc}
.LVL587:
.L310:
	.cfi_restore_state
	.loc 1 1436 3 is_stmt 1 view .LVU2832
.LBB2412:
.LBI2412:
	.loc 14 58 20 view .LVU2833
.LBB2413:
	.loc 14 67 2 view .LVU2834
	.loc 14 67 7 view .LVU2835
	.loc 14 67 55 view .LVU2836
	.loc 14 68 2 view .LVU2837
	movs	r1, #16
	ldr	r0, .L311+4
	bl	z_impl_sys_rand_get
.LVL588:
	.loc 14 68 2 is_stmt 0 view .LVU2838
.LBE2413:
.LBE2412:
	.loc 1 1437 3 is_stmt 1 view .LVU2839
	.loc 1 1437 8 is_stmt 0 view .LVU2840
	ldr	r3, .L311
	movs	r2, #1
	strb	r2, [r3]
	b	.L308
.L312:
	.align	2
.L311:
	.word	.LANCHOR8
	.word	.LANCHOR7
	.cfi_endproc
.LFE994:
	.size	tcpv4_init_isn, .-tcpv4_init_isn
	.section	.text.tcp_init_isn,"ax",%progbits
	.align	1
	.syntax unified
	.thumb
	.thumb_func
	.fpu fpv4-sp-d16
	.type	tcp_init_isn, %function
tcp_init_isn:
.LVL589:
.LFB995:
	.loc 1 1450 1 is_stmt 1 view -0
	.cfi_startproc
	@ args = 0, pretend = 0, frame = 0
	@ frame_needed = 0, uses_anonymous_args = 0
	.loc 1 1450 1 is_stmt 0 view .LVU2842
	push	{r3, lr}
	.cfi_def_cfa_offset 8
	.cfi_offset 3, -8
	.cfi_offset 14, -4
	.loc 1 1451 2 is_stmt 1 view .LVU2843
	.loc 1 1452 3 view .LVU2844
	.loc 1 1453 12 is_stmt 0 view .LVU2845
	ldrh	r3, [r0]
	.loc 1 1452 6 view .LVU2846
	cmp	r3, #2
	beq	.L318
	.loc 1 1458 10 is_stmt 1 view .LVU2847
	.loc 1 1458 13 is_stmt 0 view .LVU2848
	cmp	r3, #1
	beq	.L319
	.loc 1 1467 2 is_stmt 1 view .LVU2849
.LBB2414:
.LBI2414:
	.loc 14 35 24 view .LVU2850
.LBB2415:
	.loc 14 43 2 view .LVU2851
	.loc 14 43 7 view .LVU2852
	.loc 14 43 55 view .LVU2853
	.loc 14 44 2 view .LVU2854
	.loc 14 44 9 is_stmt 0 view .LVU2855
	bl	z_impl_sys_rand32_get
.LVL590:
.L313:
	.loc 14 44 9 view .LVU2856
.LBE2415:
.LBE2414:
	.loc 1 1468 1 view .LVU2857
	pop	{r3, pc}
.LVL591:
.L318:
	.loc 1 1454 4 is_stmt 1 view .LVU2858
	.loc 3 1365 2 view .LVU2859
	.loc 3 1365 2 view .LVU2860
	.loc 3 1365 2 view .LVU2861
	.loc 3 1365 2 view .LVU2862
	.loc 1 1454 11 is_stmt 0 view .LVU2863
	ldrh	r3, [r1, #2]
	ldrh	r2, [r0, #2]
	adds	r1, r1, #4
.LVL592:
	.loc 1 1454 11 view .LVU2864
	adds	r0, r0, #4
.LVL593:
	.loc 1 1454 11 view .LVU2865
	bl	tcpv6_init_isn
.LVL594:
	.loc 1 1454 11 view .LVU2866
	b	.L313
.LVL595:
.L319:
	.loc 1 1460 4 is_stmt 1 view .LVU2867
	.loc 3 1378 2 view .LVU2868
	.loc 3 1378 2 view .LVU2869
	.loc 3 1378 2 view .LVU2870
	.loc 3 1378 2 view .LVU2871
	.loc 1 1460 11 is_stmt 0 view .LVU2872
	ldrh	r3, [r1, #2]
	ldrh	r2, [r0, #2]
	adds	r1, r1, #4
.LVL596:
	.loc 1 1460 11 view .LVU2873
	adds	r0, r0, #4
.LVL597:
	.loc 1 1460 11 view .LVU2874
	bl	tcpv4_init_isn
.LVL598:
	.loc 1 1460 11 view .LVU2875
	b	.L313
	.cfi_endproc
.LFE995:
	.size	tcp_init_isn, .-tcp_init_isn
	.section	.rodata.tcp_conn_new.str1.4,"aMS",%progbits,1
	.align	2
.LC20:
	.ascii	"net_context_get(): %d\000"
	.align	2
.LC21:
	.ascii	"net_conn_register(): %d\000"
	.section	.text.tcp_conn_new,"ax",%progbits
	.align	1
	.syntax unified
	.thumb
	.thumb_func
	.fpu fpv4-sp-d16
	.type	tcp_conn_new, %function
tcp_conn_new:
.LVL599:
.LFB996:
	.loc 1 1474 1 is_stmt 1 view -0
	.cfi_startproc
	@ args = 0, pretend = 0, frame = 96
	@ frame_needed = 0, uses_anonymous_args = 0
	.loc 1 1474 1 is_stmt 0 view .LVU2877
	push	{r4, r5, r6, r7, r8, lr}
	.cfi_def_cfa_offset 24
	.cfi_offset 4, -24
	.cfi_offset 5, -20
	.cfi_offset 6, -16
	.cfi_offset 7, -12
	.cfi_offset 8, -8
	.cfi_offset 14, -4
	sub	sp, sp, #120
	.cfi_def_cfa_offset 144
	mov	r5, r0
	.loc 1 1475 2 is_stmt 1 view .LVU2878
.LVL600:
	.loc 1 1476 2 view .LVU2879
	.loc 1 1476 22 is_stmt 0 view .LVU2880
	movs	r3, #0
	str	r3, [sp, #52]
	.loc 1 1477 2 is_stmt 1 view .LVU2881
.LVL601:
.LBB2416:
.LBI2416:
	.loc 11 329 23 view .LVU2882
.LBB2417:
	.loc 11 331 2 view .LVU2883
	.loc 11 331 12 is_stmt 0 view .LVU2884
	ldrb	r6, [r0, #75]	@ zero_extendqisi2
	ubfx	r7, r6, #1, #3
.LVL602:
	.loc 11 331 12 view .LVU2885
.LBE2417:
.LBE2416:
	.loc 1 1478 2 is_stmt 1 view .LVU2886
	.loc 1 1478 18 is_stmt 0 view .LVU2887
	str	r3, [sp, #28]
	str	r3, [sp, #32]
	str	r3, [sp, #36]
	str	r3, [sp, #40]
	str	r3, [sp, #44]
	str	r3, [sp, #48]
	.loc 1 1479 2 is_stmt 1 view .LVU2888
	.loc 1 1481 2 view .LVU2889
	.loc 1 1481 8 is_stmt 0 view .LVU2890
	add	r3, sp, #52
	movs	r2, #6
	movs	r1, #1
	mov	r0, r7
.LVL603:
	.loc 1 1481 8 view .LVU2891
	bl	net_context_get
.LVL604:
	.loc 1 1482 2 is_stmt 1 view .LVU2892
	.loc 1 1482 5 is_stmt 0 view .LVU2893
	cmp	r0, #0
	.loc 1 1482 5 view .LVU2894
	blt	.L333
	mov	r6, r7
	.loc 1 1487 2 is_stmt 1 view .LVU2895
	.loc 1 1487 16 is_stmt 0 view .LVU2896
	ldr	r3, [sp, #52]
	.loc 1 1487 7 view .LVU2897
	ldr	r4, [r3, #80]
.LVL605:
	.loc 1 1488 2 is_stmt 1 view .LVU2898
	.loc 1 1488 19 is_stmt 0 view .LVU2899
	ldr	r3, [r5, #24]
	.loc 1 1488 14 view .LVU2900
	str	r3, [r4, #16]
	.loc 1 1490 2 is_stmt 1 view .LVU2901
	ldr	r2, [r4, #4]
.LVL606:
.LBB2418:
.LBI2418:
	.loc 11 329 23 view .LVU2902
.LBB2419:
	.loc 11 331 2 view .LVU2903
	.loc 11 331 12 is_stmt 0 view .LVU2904
	ldrb	r3, [r5, #75]	@ zero_extendqisi2
	ubfx	r3, r3, #1, #3
.LVL607:
	.loc 11 331 12 view .LVU2905
.LBE2419:
.LBE2418:
.LBB2420:
.LBI2420:
	.file 15 "/home/sebin/thesis/zephyrproject/zephyr/include/net/net_context.h"
	.loc 15 483 20 is_stmt 1 view .LVU2906
.LBB2421:
	.loc 15 486 2 view .LVU2907
	.loc 15 488 4 view .LVU2908
	.loc 15 488 5 view .LVU2909
	.loc 15 490 2 view .LVU2910
	.loc 15 490 5 is_stmt 0 view .LVU2911
	cmp	r3, #4
	bhi	.L331
	.loc 15 493 3 is_stmt 1 view .LVU2912
	.loc 15 493 8 is_stmt 0 view .LVU2913
	lsls	r3, r3, #3
.LVL608:
	.loc 15 493 8 view .LVU2914
	b	.L323
.LVL609:
.L333:
	.loc 15 493 8 view .LVU2915
.LBE2421:
.LBE2420:
	.loc 1 1483 3 is_stmt 1 view .LVU2916
.LBB2423:
	.loc 1 1483 8 view .LVU2917
	.loc 1 1483 57 view .LVU2918
	.loc 1 1483 14 view .LVU2919
	.loc 1 1483 2 view .LVU2920
.LBE2423:
	.loc 9 120 2 view .LVU2921
.LBB2441:
	.loc 1 1483 41 view .LVU2922
	.loc 1 1483 107 view .LVU2923
	.loc 1 1483 206 view .LVU2924
.LBB2424:
	.loc 1 1483 215 view .LVU2925
	.loc 1 1483 226 view .LVU2926
	.loc 1 1483 314 view .LVU2927
	.loc 1 1483 319 view .LVU2928
	.loc 1 1483 321 view .LVU2929
.LBE2424:
.LBE2441:
	.loc 1 1483 3 view .LVU2930
	.loc 1 1483 3 view .LVU2931
.LBB2442:
.LBB2437:
	.loc 1 1483 80 view .LVU2932
.LBB2425:
	.loc 1 1483 85 view .LVU2933
	.loc 1 1483 96 view .LVU2934
.LBE2425:
.LBE2437:
.LBE2442:
	.loc 1 1483 3 view .LVU2935
	.loc 1 1483 217 view .LVU2936
	.loc 1 1483 2 view .LVU2937
	.loc 1 1483 31 view .LVU2938
	.loc 1 1483 4 view .LVU2939
	.loc 1 1483 24 view .LVU2940
	.loc 1 1483 48 view .LVU2941
	.loc 1 1483 23 view .LVU2942
	.loc 1 1483 41 view .LVU2943
	.loc 1 1483 61 view .LVU2944
	.loc 1 1483 108 view .LVU2945
	.loc 1 1483 140 view .LVU2946
	.loc 1 1483 13 view .LVU2947
	.loc 1 1483 55 view .LVU2948
	.loc 1 1483 97 view .LVU2949
	.loc 1 1483 142 view .LVU2950
	.loc 1 1483 147 view .LVU2951
	.loc 1 1483 392 view .LVU2952
	.loc 1 1483 398 view .LVU2953
	.loc 1 1483 1483 view .LVU2954
	.loc 1 1483 1507 view .LVU2955
	.loc 1 1483 1555 view .LVU2956
	.loc 1 1483 1660 view .LVU2957
	.loc 1 1483 1675 view .LVU2958
	.loc 1 1483 1953 view .LVU2959
	.loc 1 1483 2001 view .LVU2960
	.loc 1 1483 3229 view .LVU2961
	.loc 1 1483 3236 view .LVU2962
	.loc 1 1483 3259 view .LVU2963
	.loc 1 1483 3293 view .LVU2964
	.loc 1 1483 3299 view .LVU2965
	.loc 1 1483 3304 view .LVU2966
	.loc 1 1483 3529 view .LVU2967
	.loc 1 1483 3535 view .LVU2968
	.loc 1 1483 0 view .LVU2969
	.loc 1 1483 0 view .LVU2970
	.loc 1 1483 0 view .LVU2971
	.loc 1 1483 0 view .LVU2972
	.loc 1 1483 0 view .LVU2973
	.loc 1 1483 0 view .LVU2974
	.loc 1 1483 0 view .LVU2975
	.loc 1 1483 0 view .LVU2976
	.loc 1 1483 0 view .LVU2977
	.loc 1 1483 0 view .LVU2978
	.loc 1 1483 0 view .LVU2979
	.loc 1 1483 0 view .LVU2980
	.loc 1 1483 0 view .LVU2981
	.loc 1 1483 16 view .LVU2982
.LBB2443:
.LBB2438:
.LBB2434:
	.loc 1 1483 11 view .LVU2983
	.loc 1 1483 16 view .LVU2984
	.loc 1 1483 39 view .LVU2985
	.loc 1 1483 159 view .LVU2986
	.loc 1 1483 285 view .LVU2987
	.loc 1 1483 488 view .LVU2988
	.loc 1 1483 5 view .LVU2989
	.loc 1 1483 7 view .LVU2990
	.loc 1 1483 20 view .LVU2991
.LBB2426:
	.loc 1 1483 3 view .LVU2992
	.loc 1 1483 217 view .LVU2993
	.loc 1 1483 2 view .LVU2994
	.loc 1 1483 31 view .LVU2995
	.loc 1 1483 60 view .LVU2996
	.loc 1 1483 80 view .LVU2997
	.loc 1 1483 104 view .LVU2998
	.loc 1 1483 27 view .LVU2999
	.loc 1 1483 45 view .LVU3000
	.loc 1 1483 65 view .LVU3001
	.loc 1 1483 112 view .LVU3002
	.loc 1 1483 144 view .LVU3003
	.loc 1 1483 13 view .LVU3004
	.loc 1 1483 55 view .LVU3005
	.loc 1 1483 97 view .LVU3006
	.loc 1 1483 142 view .LVU3007
.LBB2427:
	.loc 1 1483 147 view .LVU3008
	.loc 1 1483 392 view .LVU3009
	.loc 1 1483 398 view .LVU3010
	.loc 1 1483 1483 view .LVU3011
.LBE2427:
.LBE2426:
.LBE2434:
.LBE2438:
.LBE2443:
	.loc 1 1483 1507 view .LVU3012
	.loc 1 1483 1555 view .LVU3013
	.loc 1 1483 1660 view .LVU3014
.LBB2444:
.LBB2439:
.LBB2435:
.LBB2432:
.LBB2428:
	.loc 1 1483 1675 view .LVU3015
	.loc 1 1483 1953 view .LVU3016
	.loc 1 1483 2001 view .LVU3017
	.loc 1 1483 2039 view .LVU3018
	.loc 1 1483 2044 view .LVU3019
	.loc 1 1483 2573 view .LVU3020
	.loc 1 1483 3192 is_stmt 0 view .LVU3021
	ldr	r3, .L340
	str	r3, [sp, #112]
	.loc 1 1483 3229 is_stmt 1 view .LVU3022
	.loc 1 1483 3236 view .LVU3023
.LVL610:
	.loc 1 1483 3259 view .LVU3024
	.loc 1 1483 3259 is_stmt 0 view .LVU3025
.LBE2428:
	.loc 1 1483 3293 is_stmt 1 view .LVU3026
	.loc 1 1483 3299 view .LVU3027
.LBB2429:
	.loc 1 1483 3304 view .LVU3028
	.loc 1 1483 3529 view .LVU3029
	.loc 1 1483 3535 view .LVU3030
	.loc 1 1483 0 view .LVU3031
.LBE2429:
.LBE2432:
.LBE2435:
.LBE2439:
.LBE2444:
	.loc 1 1483 0 view .LVU3032
	.loc 1 1483 0 view .LVU3033
	.loc 1 1483 0 view .LVU3034
.LBB2445:
.LBB2440:
.LBB2436:
.LBB2433:
.LBB2430:
	.loc 1 1483 0 view .LVU3035
	.loc 1 1483 0 view .LVU3036
	.loc 1 1483 0 view .LVU3037
	.loc 1 1483 0 view .LVU3038
	.loc 1 1483 0 view .LVU3039
	str	r0, [sp, #116]
	.loc 1 1483 0 view .LVU3040
	.loc 1 1483 0 view .LVU3041
.LVL611:
	.loc 1 1483 0 view .LVU3042
	.loc 1 1483 0 is_stmt 0 view .LVU3043
.LBE2430:
	.loc 1 1483 0 is_stmt 1 view .LVU3044
	.loc 1 1483 0 view .LVU3045
	.loc 1 1483 0 view .LVU3046
	.loc 1 1483 0 view .LVU3047
	.loc 1 1483 16 view .LVU3048
.LBB2431:
	.loc 1 1483 29 view .LVU3049
	.loc 1 1483 50 is_stmt 0 view .LVU3050
	movs	r4, #0
	strh	r4, [sp, #25]	@ unaligned
	strb	r4, [sp, #27]
	movs	r3, #3
	strb	r3, [sp, #24]
	strb	r4, [sp, #26]
	.loc 1 1483 175 is_stmt 1 view .LVU3051
	.loc 1 1483 185 is_stmt 0 view .LVU3052
	ldr	r3, [sp, #24]
	str	r3, [sp, #108]
	.loc 1 1483 185 view .LVU3053
.LBE2431:
.LBE2433:
	.loc 1 1483 11 is_stmt 1 view .LVU3054
	.loc 1 1483 18 view .LVU3055
	.loc 1 1483 39 is_stmt 0 view .LVU3056
	mov	r2, r4
.LVL612:
	.loc 1 1483 39 view .LVU3057
	bfi	r2, r4, #0, #1
.LVL613:
	.loc 1 1483 39 view .LVU3058
	bfi	r2, r4, #1, #1
	bfi	r2, r4, #2, #1
	bfi	r2, r4, #3, #3
	movs	r3, #1
	bfi	r2, r3, #6, #3
	movs	r3, #12
	bfi	r2, r3, #9, #10
	.loc 1 1483 174 is_stmt 1 view .LVU3059
	mov	r3, r4
	ubfx	r2, r2, #0, #19
.LVL614:
	.loc 1 1483 174 is_stmt 0 view .LVU3060
	ldr	r1, .L340+4
	add	r0, sp, #96
.LVL615:
	.loc 1 1483 174 view .LVU3061
	bl	z_log_msg2_finalize
.LVL616:
	.loc 1 1483 174 view .LVU3062
.LBE2436:
	.loc 1 1483 13 is_stmt 1 view .LVU3063
	.loc 1 1483 18 view .LVU3064
.LVL617:
	.loc 1 1483 58 view .LVU3065
.LBE2440:
	.loc 1 1483 13 view .LVU3066
	.loc 1 1483 20 view .LVU3067
	.loc 1 1483 20 is_stmt 0 view .LVU3068
.LBE2445:
	.loc 1 1483 72 is_stmt 1 view .LVU3069
	.loc 1 1484 3 view .LVU3070
	.loc 1 1565 2 view .LVU3071
	b	.L322
.LVL618:
.L331:
.LBB2446:
.LBB2422:
	.loc 15 486 10 is_stmt 0 view .LVU3072
	movs	r3, #0
.LVL619:
.L323:
	.loc 15 496 2 is_stmt 1 view .LVU3073
	.loc 15 496 17 is_stmt 0 view .LVU3074
	ldrh	r1, [r2, #112]
	orrs	r3, r3, r1
.LVL620:
	.loc 15 496 17 view .LVU3075
	strh	r3, [r2, #112]	@ movhi
.LVL621:
	.loc 15 496 17 view .LVU3076
.LBE2422:
.LBE2446:
	.loc 1 1492 2 is_stmt 1 view .LVU3077
	.loc 1 1492 6 is_stmt 0 view .LVU3078
	add	r8, r4, #384
	movs	r2, #1
	mov	r1, r5
	mov	r0, r8
.LVL622:
	.loc 1 1492 6 view .LVU3079
	bl	tcp_endpoint_set
.LVL623:
	.loc 1 1492 5 view .LVU3080
	cmp	r0, #0
	blt	.L334
	.loc 1 1498 2 is_stmt 1 view .LVU3081
	.loc 1 1498 6 is_stmt 0 view .LVU3082
	movs	r2, #0
	mov	r1, r5
	add	r0, r4, #360
	bl	tcp_endpoint_set
.LVL624:
	.loc 1 1498 5 view .LVU3083
	cmp	r0, #0
	blt	.L335
	.loc 1 1504 2 is_stmt 1 view .LVU3084
.LBB2447:
	.loc 1 1504 7 view .LVU3085
.LBE2447:
	.loc 1 1504 308 view .LVU3086
	.loc 1 1510 1 view .LVU3087
	.loc 1 1510 9 is_stmt 0 view .LVU3088
	ldr	r2, [sp, #52]
.LVL625:
.LBB2448:
.LBI2448:
	.loc 8 83 216 is_stmt 1 view .LVU3089
.LBB2449:
	.loc 8 83 292 view .LVU3090
	.loc 8 83 299 is_stmt 0 view .LVU3091
	ldr	r1, [r8]	@ unaligned
	ldr	r3, [r8, #4]	@ unaligned
	ldr	ip, [r8, #8]	@ unaligned
	ldr	r0, [r8, #12]	@ unaligned
	str	r1, [r2, #40]	@ unaligned
	str	r3, [r2, #44]	@ unaligned
	str	ip, [r2, #48]	@ unaligned
	str	r0, [r2, #52]	@ unaligned
	ldr	r1, [r8, #16]	@ unaligned
	ldr	r3, [r8, #20]	@ unaligned
	str	r1, [r2, #56]	@ unaligned
	str	r3, [r2, #60]	@ unaligned
.LVL626:
	.loc 8 83 299 view .LVU3092
.LBE2449:
.LBE2448:
	.loc 1 1511 2 is_stmt 1 view .LVU3093
	.loc 1 1511 17 is_stmt 0 view .LVU3094
	ldrh	r3, [r2, #112]
	orr	r3, r3, #256
	uxth	r3, r3
	strh	r3, [r2, #112]	@ movhi
	.loc 1 1513 2 is_stmt 1 view .LVU3095
.LVL627:
	.loc 3 1406 2 view .LVU3096
	.loc 1 1513 43 is_stmt 0 view .LVU3097
	strh	r6, [r2, #28]	@ movhi
	.loc 1 1515 2 is_stmt 1 view .LVU3098
.LVL628:
.LBB2450:
.LBI2450:
	.loc 15 467 27 view .LVU3099
.LBB2451:
	.loc 15 469 4 view .LVU3100
	.loc 15 469 5 view .LVU3101
	.loc 15 471 2 view .LVU3102
	.loc 15 471 74 is_stmt 0 view .LVU3103
	ubfx	r3, r3, #3, #3
.LVL629:
	.loc 15 471 74 view .LVU3104
.LBE2451:
.LBE2450:
	.loc 1 1515 23 view .LVU3105
	strh	r3, [sp, #28]	@ movhi
	.loc 1 1517 2 is_stmt 1 view .LVU3106
.LVL630:
	.loc 15 469 4 view .LVU3107
	.loc 15 469 5 view .LVU3108
	.loc 15 471 2 view .LVU3109
	.loc 1 1517 5 is_stmt 0 view .LVU3110
	cmp	r3, #2
	beq	.L336
	.loc 1 1523 9 is_stmt 1 view .LVU3111
.LVL631:
	.loc 15 469 4 view .LVU3112
	.loc 15 469 5 view .LVU3113
	.loc 15 471 2 view .LVU3114
	.loc 1 1523 12 is_stmt 0 view .LVU3115
	cmp	r3, #1
	beq	.L337
.L327:
.LBB2452:
	.loc 1 1526 420 is_stmt 1 discriminator 1 view .LVU3116
.LBE2452:
	.loc 1 1526 14 discriminator 1 view .LVU3117
	.loc 1 1531 2 discriminator 1 view .LVU3118
	.loc 1 1531 8 is_stmt 0 discriminator 1 view .LVU3119
	movs	r2, #24
	add	r1, sp, #28
	ldr	r0, [sp, #52]
	bl	net_context_bind
.LVL632:
	.loc 1 1532 2 is_stmt 1 discriminator 1 view .LVU3120
	.loc 1 1532 5 is_stmt 0 discriminator 1 view .LVU3121
	cmp	r0, #0
	blt	.L338
	.loc 1 1539 2 is_stmt 1 view .LVU3122
	.loc 1 1541 3 view .LVU3123
	.loc 1 1541 15 is_stmt 0 view .LVU3124
	ldr	r1, [sp, #52]
	adds	r1, r1, #40
	add	r0, sp, #28
.LVL633:
	.loc 1 1541 15 view .LVU3125
	bl	tcp_init_isn
.LVL634:
	.loc 1 1541 13 view .LVU3126
	str	r0, [r4, #428]
	.loc 1 1544 2 is_stmt 1 view .LVU3127
.LBB2455:
	.loc 1 1544 7 view .LVU3128
.LBE2455:
	.loc 1 1544 340 view .LVU3129
	.loc 1 1552 2 view .LVU3130
	.loc 1 1553 13 is_stmt 0 view .LVU3131
	ldr	r2, [sp, #52]
	.loc 1 1554 34 view .LVU3132
	ldrh	r1, [r4, #386]
	.loc 1 1554 59 view .LVU3133
	lsrs	r3, r1, #8
	orr	r3, r3, r1, lsl #8
	.loc 1 1555 34 view .LVU3134
	ldrh	r0, [r4, #362]
	.loc 1 1555 59 view .LVU3135
	lsrs	r1, r0, #8
	orr	r1, r1, r0, lsl #8
	.loc 1 1552 8 view .LVU3136
	add	r0, r2, #64
	str	r0, [sp, #20]
	str	r2, [sp, #16]
	ldr	r0, .L340+8
	str	r0, [sp, #12]
	str	r2, [sp, #8]
	uxth	r1, r1
	str	r1, [sp, #4]
	uxth	r3, r3
	str	r3, [sp]
	add	r3, sp, #28
	adds	r2, r2, #40
	mov	r1, r7
	movs	r0, #6
	bl	net_conn_register
.LVL635:
	.loc 1 1558 2 is_stmt 1 view .LVU3137
	.loc 1 1558 5 is_stmt 0 view .LVU3138
	cmp	r0, #0
	.loc 1 1558 5 view .LVU3139
	blt	.L339
.L329:
	.loc 1 1565 2 is_stmt 1 view .LVU3140
	.loc 1 1565 5 is_stmt 0 view .LVU3141
	cbnz	r4, .L320
	b	.L322
.LVL636:
.L334:
	.loc 1 1493 3 is_stmt 1 view .LVU3142
	ldr	r0, [sp, #52]
	bl	net_context_unref
.LVL637:
	.loc 1 1494 3 view .LVU3143
	.loc 1 1495 3 view .LVU3144
	.loc 1 1565 2 view .LVU3145
	.loc 1 1494 8 is_stmt 0 view .LVU3146
	movs	r4, #0
.LVL638:
.L322:
	.loc 1 1566 3 is_stmt 1 view .LVU3147
.LBB2456:
.LBI2456:
	.loc 11 293 30 view .LVU3148
.LBB2457:
	.loc 11 295 2 view .LVU3149
	.loc 11 295 12 is_stmt 0 view .LVU3150
	ldr	r2, [r5, #24]
.LVL639:
	.loc 11 295 12 view .LVU3151
.LBE2457:
.LBE2456:
.LBB2458:
.LBI2458:
	.file 16 "/home/sebin/thesis/zephyrproject/zephyr/subsys/net/ip/net_stats.h"
	.loc 16 232 20 is_stmt 1 view .LVU3152
.LBB2459:
	.loc 16 234 6 view .LVU3153
	.loc 16 234 7 view .LVU3154
	.loc 16 234 9 view .LVU3155
	.loc 16 234 24 is_stmt 0 view .LVU3156
	ldr	r1, .L340+12
	ldr	r3, [r1, #136]
	.loc 16 234 33 view .LVU3157
	adds	r3, r3, #1
	str	r3, [r1, #136]
	.loc 16 234 39 is_stmt 1 view .LVU3158
	.loc 16 234 56 is_stmt 0 view .LVU3159
	ldr	r3, [r2, #144]
	.loc 16 234 65 view .LVU3160
	adds	r3, r3, #1
	str	r3, [r2, #144]
	.loc 16 234 71 is_stmt 1 view .LVU3161
.LVL640:
	.loc 16 234 71 is_stmt 0 view .LVU3162
.LBE2459:
.LBE2458:
	.loc 1 1569 2 is_stmt 1 view .LVU3163
.L320:
	.loc 1 1570 1 is_stmt 0 view .LVU3164
	mov	r0, r4
	add	sp, sp, #120
	.cfi_remember_state
	.cfi_def_cfa_offset 24
	@ sp needed
	pop	{r4, r5, r6, r7, r8, pc}
.LVL641:
.L335:
	.cfi_restore_state
	.loc 1 1499 3 is_stmt 1 view .LVU3165
	ldr	r0, [sp, #52]
	bl	net_context_unref
.LVL642:
	.loc 1 1500 3 view .LVU3166
	.loc 1 1501 3 view .LVU3167
	.loc 1 1565 2 view .LVU3168
	.loc 1 1500 8 is_stmt 0 view .LVU3169
	movs	r4, #0
	b	.L322
.LVL643:
.L336:
	.loc 1 1519 3 is_stmt 1 view .LVU3170
	.loc 3 1392 2 view .LVU3171
	.loc 1 1519 36 is_stmt 0 view .LVU3172
	ldr	r3, [r2, #32]
	.loc 1 1519 6 view .LVU3173
	cmp	r3, #0
	beq	.L327
	.loc 1 1520 4 is_stmt 1 view .LVU3174
.LBB2460:
	.loc 1 1520 9 view .LVU3175
.LVL644:
	.loc 1 1520 9 is_stmt 0 view .LVU3176
.LBE2460:
	.loc 3 1365 2 is_stmt 1 view .LVU3177
.LBB2463:
	.loc 1 1520 162 view .LVU3178
.LBB2461:
	.loc 1 1520 191 view .LVU3179
	.loc 1 1520 191 is_stmt 0 view .LVU3180
.LBE2461:
.LBE2463:
	.loc 3 1392 2 is_stmt 1 view .LVU3181
.LBB2464:
.LBB2462:
	.loc 1 1520 360 view .LVU3182
	.loc 1 1520 363 is_stmt 0 view .LVU3183
	add	r6, sp, #56
	ldr	r0, [r3]	@ unaligned
	ldr	r1, [r3, #4]	@ unaligned
	ldr	r2, [r3, #8]	@ unaligned
	ldr	r3, [r3, #12]	@ unaligned
.LVL645:
	.loc 1 1520 363 view .LVU3184
	stmia	r6!, {r0, r1, r2, r3}
.LBE2462:
	.loc 1 1520 171 view .LVU3185
	add	r6, sp, #32
.LVL646:
	.loc 1 1520 171 view .LVU3186
	add	r3, sp, #56
	ldm	r3, {r0, r1, r2, r3}
	stm	r6, {r0, r1, r2, r3}
	.loc 1 1520 375 is_stmt 1 view .LVU3187
	.loc 1 1520 380 view .LVU3188
	b	.L327
.LVL647:
.L337:
	.loc 1 1520 380 is_stmt 0 view .LVU3189
.LBE2464:
	.loc 1 1525 3 is_stmt 1 view .LVU3190
	.loc 3 1406 2 view .LVU3191
	.loc 1 1525 35 is_stmt 0 view .LVU3192
	ldr	r3, [r2, #32]
	.loc 1 1525 6 view .LVU3193
	cmp	r3, #0
	beq	.L327
	.loc 1 1526 4 is_stmt 1 view .LVU3194
.LBB2465:
	.loc 1 1526 9 view .LVU3195
.LVL648:
	.loc 1 1526 9 is_stmt 0 view .LVU3196
.LBE2465:
	.loc 3 1378 2 is_stmt 1 view .LVU3197
.LBB2466:
	.loc 1 1526 158 view .LVU3198
.LBB2453:
	.loc 1 1526 187 view .LVU3199
	.loc 1 1526 187 is_stmt 0 view .LVU3200
.LBE2453:
.LBE2466:
	.loc 3 1406 2 is_stmt 1 view .LVU3201
.LBB2467:
.LBB2454:
	.loc 1 1526 352 view .LVU3202
	.loc 1 1526 355 is_stmt 0 view .LVU3203
	ldr	r3, [r3]	@ unaligned
.LVL649:
	.loc 1 1526 355 view .LVU3204
.LBE2454:
	.loc 1 1526 167 view .LVU3205
	str	r3, [sp, #32]
	.loc 1 1526 367 is_stmt 1 view .LVU3206
	.loc 1 1526 372 view .LVU3207
	b	.L327
.LVL650:
.L338:
	.loc 1 1526 372 is_stmt 0 view .LVU3208
.LBE2467:
	.loc 1 1533 3 is_stmt 1 view .LVU3209
.LBB2468:
	.loc 1 1533 8 view .LVU3210
.LBE2468:
	.loc 1 1533 149 view .LVU3211
	.loc 1 1534 3 view .LVU3212
	ldr	r0, [sp, #52]
.LVL651:
	.loc 1 1534 3 is_stmt 0 view .LVU3213
	bl	net_context_unref
.LVL652:
	.loc 1 1535 3 is_stmt 1 view .LVU3214
	.loc 1 1536 3 view .LVU3215
	.loc 1 1565 2 view .LVU3216
	.loc 1 1535 8 is_stmt 0 view .LVU3217
	movs	r4, #0
	b	.L322
.LVL653:
.L339:
	.loc 1 1559 3 is_stmt 1 view .LVU3218
.LBB2469:
	.loc 1 1559 8 view .LVU3219
	.loc 1 1559 57 view .LVU3220
	.loc 1 1559 14 view .LVU3221
	.loc 1 1559 2 view .LVU3222
.LBE2469:
	.loc 9 120 2 view .LVU3223
.LBB2487:
	.loc 1 1559 41 view .LVU3224
	.loc 1 1559 107 view .LVU3225
	.loc 1 1559 206 view .LVU3226
.LBB2470:
	.loc 1 1559 215 view .LVU3227
	.loc 1 1559 226 view .LVU3228
	.loc 1 1559 314 view .LVU3229
	.loc 1 1559 319 view .LVU3230
	.loc 1 1559 321 view .LVU3231
.LBE2470:
.LBE2487:
	.loc 1 1559 3 view .LVU3232
	.loc 1 1559 3 view .LVU3233
.LBB2488:
.LBB2483:
	.loc 1 1559 82 view .LVU3234
.LBB2471:
	.loc 1 1559 87 view .LVU3235
	.loc 1 1559 98 view .LVU3236
.LBE2471:
.LBE2483:
.LBE2488:
	.loc 1 1559 3 view .LVU3237
	.loc 1 1559 217 view .LVU3238
	.loc 1 1559 2 view .LVU3239
	.loc 1 1559 31 view .LVU3240
	.loc 1 1559 4 view .LVU3241
	.loc 1 1559 24 view .LVU3242
	.loc 1 1559 48 view .LVU3243
	.loc 1 1559 23 view .LVU3244
	.loc 1 1559 41 view .LVU3245
	.loc 1 1559 61 view .LVU3246
	.loc 1 1559 108 view .LVU3247
	.loc 1 1559 140 view .LVU3248
	.loc 1 1559 13 view .LVU3249
	.loc 1 1559 55 view .LVU3250
	.loc 1 1559 97 view .LVU3251
	.loc 1 1559 142 view .LVU3252
	.loc 1 1559 147 view .LVU3253
	.loc 1 1559 394 view .LVU3254
	.loc 1 1559 400 view .LVU3255
	.loc 1 1559 1493 view .LVU3256
	.loc 1 1559 1517 view .LVU3257
	.loc 1 1559 1567 view .LVU3258
	.loc 1 1559 1674 view .LVU3259
	.loc 1 1559 1689 view .LVU3260
	.loc 1 1559 1969 view .LVU3261
	.loc 1 1559 2017 view .LVU3262
	.loc 1 1559 3261 view .LVU3263
	.loc 1 1559 3268 view .LVU3264
	.loc 1 1559 3291 view .LVU3265
	.loc 1 1559 3325 view .LVU3266
	.loc 1 1559 3331 view .LVU3267
	.loc 1 1559 3336 view .LVU3268
	.loc 1 1559 3561 view .LVU3269
	.loc 1 1559 3567 view .LVU3270
	.loc 1 1559 0 view .LVU3271
	.loc 1 1559 0 view .LVU3272
	.loc 1 1559 0 view .LVU3273
	.loc 1 1559 0 view .LVU3274
	.loc 1 1559 0 view .LVU3275
	.loc 1 1559 0 view .LVU3276
	.loc 1 1559 0 view .LVU3277
	.loc 1 1559 0 view .LVU3278
	.loc 1 1559 0 view .LVU3279
	.loc 1 1559 0 view .LVU3280
	.loc 1 1559 0 view .LVU3281
	.loc 1 1559 0 view .LVU3282
	.loc 1 1559 0 view .LVU3283
	.loc 1 1559 16 view .LVU3284
.LBB2489:
.LBB2484:
.LBB2480:
	.loc 1 1559 11 view .LVU3285
	.loc 1 1559 16 view .LVU3286
	.loc 1 1559 39 view .LVU3287
	.loc 1 1559 159 view .LVU3288
	.loc 1 1559 285 view .LVU3289
	.loc 1 1559 488 view .LVU3290
	.loc 1 1559 5 view .LVU3291
	.loc 1 1559 7 view .LVU3292
	.loc 1 1559 20 view .LVU3293
.LBB2472:
	.loc 1 1559 3 view .LVU3294
	.loc 1 1559 217 view .LVU3295
	.loc 1 1559 2 view .LVU3296
	.loc 1 1559 31 view .LVU3297
	.loc 1 1559 60 view .LVU3298
	.loc 1 1559 80 view .LVU3299
	.loc 1 1559 104 view .LVU3300
	.loc 1 1559 27 view .LVU3301
	.loc 1 1559 45 view .LVU3302
	.loc 1 1559 65 view .LVU3303
	.loc 1 1559 112 view .LVU3304
	.loc 1 1559 144 view .LVU3305
	.loc 1 1559 13 view .LVU3306
	.loc 1 1559 55 view .LVU3307
	.loc 1 1559 97 view .LVU3308
	.loc 1 1559 142 view .LVU3309
.LBB2473:
	.loc 1 1559 147 view .LVU3310
	.loc 1 1559 394 view .LVU3311
	.loc 1 1559 400 view .LVU3312
	.loc 1 1559 1493 view .LVU3313
.LBE2473:
.LBE2472:
.LBE2480:
.LBE2484:
.LBE2489:
	.loc 1 1559 1517 view .LVU3314
	.loc 1 1559 1567 view .LVU3315
	.loc 1 1559 1674 view .LVU3316
.LBB2490:
.LBB2485:
.LBB2481:
.LBB2478:
.LBB2474:
	.loc 1 1559 1689 view .LVU3317
	.loc 1 1559 1969 view .LVU3318
	.loc 1 1559 2017 view .LVU3319
	.loc 1 1559 2055 view .LVU3320
	.loc 1 1559 2060 view .LVU3321
	.loc 1 1559 2601 view .LVU3322
	.loc 1 1559 3222 is_stmt 0 view .LVU3323
	ldr	r3, .L340+16
	str	r3, [sp, #88]
	.loc 1 1559 3261 is_stmt 1 view .LVU3324
	.loc 1 1559 3268 view .LVU3325
.LVL654:
	.loc 1 1559 3291 view .LVU3326
	.loc 1 1559 3291 is_stmt 0 view .LVU3327
.LBE2474:
	.loc 1 1559 3325 is_stmt 1 view .LVU3328
	.loc 1 1559 3331 view .LVU3329
.LBB2475:
	.loc 1 1559 3336 view .LVU3330
	.loc 1 1559 3561 view .LVU3331
	.loc 1 1559 3567 view .LVU3332
	.loc 1 1559 0 view .LVU3333
.LBE2475:
.LBE2478:
.LBE2481:
.LBE2485:
.LBE2490:
	.loc 1 1559 0 view .LVU3334
	.loc 1 1559 0 view .LVU3335
	.loc 1 1559 0 view .LVU3336
.LBB2491:
.LBB2486:
.LBB2482:
.LBB2479:
.LBB2476:
	.loc 1 1559 0 view .LVU3337
	.loc 1 1559 0 view .LVU3338
	.loc 1 1559 0 view .LVU3339
	.loc 1 1559 0 view .LVU3340
	.loc 1 1559 0 view .LVU3341
	str	r0, [sp, #92]
	.loc 1 1559 0 view .LVU3342
	.loc 1 1559 0 view .LVU3343
.LVL655:
	.loc 1 1559 0 view .LVU3344
	.loc 1 1559 0 is_stmt 0 view .LVU3345
.LBE2476:
	.loc 1 1559 0 is_stmt 1 view .LVU3346
	.loc 1 1559 0 view .LVU3347
	.loc 1 1559 0 view .LVU3348
	.loc 1 1559 0 view .LVU3349
	.loc 1 1559 16 view .LVU3350
.LBB2477:
	.loc 1 1559 29 view .LVU3351
	.loc 1 1559 50 is_stmt 0 view .LVU3352
	movs	r4, #0
.LVL656:
	.loc 1 1559 50 view .LVU3353
	strh	r4, [sp, #25]	@ unaligned
	strb	r4, [sp, #27]
	movs	r3, #3
	strb	r3, [sp, #24]
	strb	r4, [sp, #26]
	.loc 1 1559 175 is_stmt 1 view .LVU3354
	.loc 1 1559 185 is_stmt 0 view .LVU3355
	ldr	r3, [sp, #24]
	str	r3, [sp, #84]
	.loc 1 1559 185 view .LVU3356
.LBE2477:
.LBE2479:
	.loc 1 1559 11 is_stmt 1 view .LVU3357
	.loc 1 1559 18 view .LVU3358
	.loc 1 1559 39 is_stmt 0 view .LVU3359
	mov	r2, r4
.LVL657:
	.loc 1 1559 39 view .LVU3360
	bfi	r2, r4, #0, #1
.LVL658:
	.loc 1 1559 39 view .LVU3361
	bfi	r2, r4, #1, #1
	bfi	r2, r4, #2, #1
	bfi	r2, r4, #3, #3
	movs	r3, #1
	bfi	r2, r3, #6, #3
	movs	r3, #12
	bfi	r2, r3, #9, #10
	.loc 1 1559 174 is_stmt 1 view .LVU3362
	mov	r3, r4
	ubfx	r2, r2, #0, #19
.LVL659:
	.loc 1 1559 174 is_stmt 0 view .LVU3363
	ldr	r1, .L340+4
	add	r0, sp, #72
.LVL660:
	.loc 1 1559 174 view .LVU3364
	bl	z_log_msg2_finalize
.LVL661:
	.loc 1 1559 174 view .LVU3365
.LBE2482:
	.loc 1 1559 13 is_stmt 1 view .LVU3366
	.loc 1 1559 18 view .LVU3367
.LVL662:
	.loc 1 1559 58 view .LVU3368
.LBE2486:
	.loc 1 1559 13 view .LVU3369
	.loc 1 1559 20 view .LVU3370
	.loc 1 1559 20 is_stmt 0 view .LVU3371
.LBE2491:
	.loc 1 1559 74 is_stmt 1 view .LVU3372
	.loc 1 1560 3 view .LVU3373
	ldr	r0, [sp, #52]
	bl	net_context_unref
.LVL663:
	.loc 1 1561 3 view .LVU3374
	.loc 1 1562 3 view .LVU3375
	.loc 1 1565 2 view .LVU3376
	b	.L322
.L341:
	.align	2
.L340:
	.word	.LC20
	.word	.LANCHOR3
	.word	tcp_recv
	.word	net_stats
	.word	.LC21
	.cfi_endproc
.LFE996:
	.size	tcp_conn_new, .-tcp_conn_new
	.section	.text.tcp_options_get,"ax",%progbits
	.align	1
	.syntax unified
	.thumb
	.thumb_func
	.fpu fpv4-sp-d16
	.type	tcp_options_get, %function
tcp_options_get:
.LVL664:
.LFB963:
	.loc 1 587 1 view -0
	.cfi_startproc
	@ args = 0, pretend = 0, frame = 0
	@ frame_needed = 0, uses_anonymous_args = 0
	.loc 1 587 1 is_stmt 0 view .LVU3378
	push	{r3, r4, r5, r6, r7, r8, r9, lr}
	.cfi_def_cfa_offset 32
	.cfi_offset 3, -32
	.cfi_offset 4, -28
	.cfi_offset 5, -24
	.cfi_offset 6, -20
	.cfi_offset 7, -16
	.cfi_offset 8, -12
	.cfi_offset 9, -8
	.cfi_offset 14, -4
	mov	r4, r0
	mov	r7, r1
	mov	r5, r2
	mov	r6, r3
	.loc 1 588 2 is_stmt 1 view .LVU3379
	.loc 1 589 2 view .LVU3380
	.loc 1 591 2 view .LVU3381
.LVL665:
.LBB2492:
.LBI2492:
	.loc 11 1811 20 view .LVU3382
.LBB2493:
	.loc 11 1814 2 view .LVU3383
	.loc 11 1814 27 is_stmt 0 view .LVU3384
	ldr	r9, [r0, #12]
	.loc 11 1815 2 is_stmt 1 view .LVU3385
	.loc 11 1815 27 is_stmt 0 view .LVU3386
	ldr	r8, [r0, #16]
.LVL666:
	.loc 11 1815 27 view .LVU3387
.LBE2493:
.LBE2492:
	.loc 1 592 2 is_stmt 1 view .LVU3388
	bl	net_pkt_cursor_init
.LVL667:
	.loc 1 593 2 view .LVU3389
.LBB2494:
.LBI2494:
	.loc 11 371 23 view .LVU3390
.LBB2495:
	.loc 11 373 2 view .LVU3391
	.loc 11 373 12 is_stmt 0 view .LVU3392
	ldrb	r1, [r4, #72]	@ zero_extendqisi2
.LVL668:
	.loc 11 373 12 view .LVU3393
.LBE2495:
.LBE2494:
.LBB2496:
.LBI2496:
	.loc 11 625 24 is_stmt 1 view .LVU3394
.LBB2497:
	.loc 11 628 2 view .LVU3395
	.loc 11 628 12 is_stmt 0 view .LVU3396
	ldrh	r3, [r4, #80]
.LVL669:
	.loc 11 628 12 view .LVU3397
.LBE2497:
.LBE2496:
	.loc 1 593 44 view .LVU3398
	add	r1, r1, r3
	.loc 1 593 2 view .LVU3399
	adds	r1, r1, #20
	mov	r0, r4
	bl	net_pkt_skip
.LVL670:
	.loc 1 595 2 is_stmt 1 view .LVU3400
	.loc 1 595 8 is_stmt 0 view .LVU3401
	mov	r2, r7
	cmp	r7, r6
	it	cs
	movcs	r2, r6
	mov	r1, r5
	mov	r0, r4
	bl	net_pkt_read
.LVL671:
	.loc 1 596 2 is_stmt 1 view .LVU3402
	.loc 1 596 5 is_stmt 0 view .LVU3403
	cmp	r0, #0
	blt	.L344
	mov	r0, r5
.LVL672:
.L343:
	.loc 1 600 2 is_stmt 1 view .LVU3404
.LBB2498:
.LBI2498:
	.loc 11 1824 20 view .LVU3405
.LBB2499:
	.loc 11 1827 2 view .LVU3406
	.loc 11 1827 18 is_stmt 0 view .LVU3407
	str	r9, [r4, #12]
	.loc 11 1828 2 is_stmt 1 view .LVU3408
	.loc 11 1828 18 is_stmt 0 view .LVU3409
	str	r8, [r4, #16]
.LVL673:
	.loc 11 1828 18 view .LVU3410
.LBE2499:
.LBE2498:
	.loc 1 602 2 is_stmt 1 view .LVU3411
	.loc 1 603 1 is_stmt 0 view .LVU3412
	pop	{r3, r4, r5, r6, r7, r8, r9, pc}
.LVL674:
.L344:
	.loc 1 597 7 view .LVU3413
	movs	r0, #0
.LVL675:
	.loc 1 597 7 view .LVU3414
	b	.L343
	.cfi_endproc
.LFE963:
	.size	tcp_options_get, .-tcp_options_get
	.section	.rodata.tcp_options_check.str1.4,"aMS",%progbits,1
	.align	2
.LC22:
	.ascii	"Illegal option %d with length %zd\000"
	.align	2
.LC23:
	.ascii	"Invalid TCP options\000"
	.section	.text.tcp_options_check,"ax",%progbits
	.align	1
	.syntax unified
	.thumb
	.thumb_func
	.fpu fpv4-sp-d16
	.type	tcp_options_check, %function
tcp_options_check:
.LVL676:
.LFB964:
	.loc 1 607 1 is_stmt 1 view -0
	.cfi_startproc
	@ args = 0, pretend = 0, frame = 72
	@ frame_needed = 1, uses_anonymous_args = 0
	.loc 1 607 1 is_stmt 0 view .LVU3416
	push	{r4, r5, r6, r7, lr}
	.cfi_def_cfa_offset 20
	.cfi_offset 4, -20
	.cfi_offset 5, -16
	.cfi_offset 6, -12
	.cfi_offset 7, -8
	.cfi_offset 14, -4
	sub	sp, sp, #76
	.cfi_def_cfa_offset 96
	add	r7, sp, #0
	.cfi_def_cfa_register 7
	mov	r5, r0
	mov	r0, r1
.LVL677:
	.loc 1 608 2 is_stmt 1 view .LVU3417
	.loc 1 609 1 view .LVU3418
	.loc 1 609 50 is_stmt 0 view .LVU3419
	subs	r4, r2, #0
	ble	.L363
	.loc 1 609 50 discriminator 1 view .LVU3420
	tst	r4, #3
	beq	.L364
	.loc 1 609 50 view .LVU3421
	movs	r6, #0
	b	.L347
.L363:
	movs	r6, #0
.L347:
.LVL678:
	.loc 1 610 2 is_stmt 1 discriminator 6 view .LVU3422
	.loc 1 610 21 is_stmt 0 discriminator 6 view .LVU3423
	movs	r3, #40
	add	r2, r7, #8
.LVL679:
	.loc 1 610 21 discriminator 6 view .LVU3424
	mov	r1, r4
.LVL680:
	.loc 1 610 21 discriminator 6 view .LVU3425
	bl	tcp_options_get
.LVL681:
	.loc 1 612 2 is_stmt 1 discriminator 6 view .LVU3426
	.loc 1 614 2 discriminator 6 view .LVU3427
.LBB2500:
	.loc 1 614 7 discriminator 6 view .LVU3428
.LBE2500:
	.loc 1 614 114 discriminator 6 view .LVU3429
	.loc 1 616 2 discriminator 6 view .LVU3430
	.loc 1 616 26 is_stmt 0 discriminator 6 view .LVU3431
	ldrb	r3, [r5, #4]	@ zero_extendqisi2
	.loc 1 617 2 is_stmt 1 discriminator 6 view .LVU3432
	.loc 1 617 26 is_stmt 0 discriminator 6 view .LVU3433
	and	r3, r3, #254
	bfc	r3, #1, #1
	strb	r3, [r5, #4]
	.loc 1 619 2 is_stmt 1 discriminator 6 view .LVU3434
	b	.L348
.LVL682:
.L364:
	.loc 1 609 50 is_stmt 0 view .LVU3435
	movs	r6, #1
	b	.L347
.LVL683:
.L373:
	.loc 1 629 5 is_stmt 1 view .LVU3436
.LBB2501:
	.loc 1 629 10 view .LVU3437
	.loc 1 629 59 view .LVU3438
	.loc 1 629 16 view .LVU3439
	.loc 1 629 4 view .LVU3440
.LBE2501:
	.loc 9 120 2 view .LVU3441
.LBB2534:
	.loc 1 629 43 view .LVU3442
	.loc 1 629 109 view .LVU3443
	.loc 1 629 208 view .LVU3444
.LBB2502:
	.loc 1 629 217 view .LVU3445
	.loc 1 629 228 view .LVU3446
	.loc 1 629 316 view .LVU3447
	.loc 1 629 321 view .LVU3448
	.loc 1 629 323 view .LVU3449
.LBE2502:
.LBE2534:
	.loc 1 629 5 view .LVU3450
	.loc 1 629 5 view .LVU3451
.LBB2535:
.LBB2527:
	.loc 1 629 99 view .LVU3452
.LBB2503:
	.loc 1 629 104 view .LVU3453
	.loc 1 629 115 view .LVU3454
.LBB2504:
	.loc 1 629 5 view .LVU3455
	.loc 1 629 219 view .LVU3456
	.loc 1 629 4 view .LVU3457
	.loc 1 629 33 view .LVU3458
	.loc 1 629 6 view .LVU3459
	.loc 1 629 26 view .LVU3460
	.loc 1 629 50 view .LVU3461
	.loc 1 629 25 view .LVU3462
	.loc 1 629 43 view .LVU3463
	.loc 1 629 63 view .LVU3464
	.loc 1 629 110 view .LVU3465
	.loc 1 629 142 view .LVU3466
	.loc 1 629 15 view .LVU3467
	.loc 1 629 57 view .LVU3468
	.loc 1 629 99 view .LVU3469
	.loc 1 629 144 view .LVU3470
.LBE2504:
.LBE2503:
.LBE2527:
.LBE2535:
	.loc 1 629 149 view .LVU3471
	.loc 1 629 406 view .LVU3472
	.loc 1 629 412 view .LVU3473
	.loc 1 629 1545 view .LVU3474
	.loc 1 629 1569 view .LVU3475
	.loc 1 629 1629 view .LVU3476
	.loc 1 629 1746 view .LVU3477
	.loc 1 629 1761 view .LVU3478
	.loc 1 629 2051 view .LVU3479
	.loc 1 629 2099 view .LVU3480
	.loc 1 629 3423 view .LVU3481
	.loc 1 629 3430 view .LVU3482
	.loc 1 629 3453 view .LVU3483
.LBB2536:
.LBB2528:
.LBB2521:
.LBB2507:
	.loc 1 629 3487 view .LVU3484
	.loc 1 629 3493 view .LVU3485
.LBB2505:
	.loc 1 629 3498 view .LVU3486
	.loc 1 629 3723 view .LVU3487
	.loc 1 629 3729 view .LVU3488
	.loc 1 629 0 view .LVU3489
.LBB2506:
	.loc 1 629 0 view .LVU3490
	.loc 1 629 0 view .LVU3491
	.loc 1 629 0 view .LVU3492
	.loc 1 629 0 is_stmt 0 view .LVU3493
.LBE2506:
	.loc 1 629 0 is_stmt 1 view .LVU3494
	.loc 1 629 0 view .LVU3495
	.loc 1 629 0 view .LVU3496
	.loc 1 629 0 view .LVU3497
	.loc 1 629 0 view .LVU3498
	.loc 1 629 0 is_stmt 0 view .LVU3499
.LBE2505:
	.loc 1 629 0 is_stmt 1 view .LVU3500
	.loc 1 629 0 view .LVU3501
.LBE2507:
.LBE2521:
.LBE2528:
.LBE2536:
	.loc 1 629 0 view .LVU3502
	.loc 1 629 0 view .LVU3503
	.loc 1 629 0 view .LVU3504
	.loc 1 629 0 view .LVU3505
	.loc 1 629 0 view .LVU3506
	.loc 1 629 0 view .LVU3507
	.loc 1 629 0 view .LVU3508
	.loc 1 629 0 view .LVU3509
	.loc 1 629 0 view .LVU3510
	.loc 1 629 0 view .LVU3511
	.loc 1 629 0 view .LVU3512
	.loc 1 629 0 view .LVU3513
.LBB2537:
.LBB2529:
.LBB2522:
.LBB2508:
	.loc 1 629 0 view .LVU3514
	.loc 1 629 0 view .LVU3515
	.loc 1 629 0 view .LVU3516
	.loc 1 629 0 view .LVU3517
	.loc 1 629 18 view .LVU3518
	.loc 1 629 18 is_stmt 0 view .LVU3519
.LBE2508:
	.loc 1 629 13 is_stmt 1 view .LVU3520
	.loc 1 629 18 view .LVU3521
	.loc 1 629 41 view .LVU3522
	.loc 1 629 77 is_stmt 0 view .LVU3523
	mov	r5, sp
.LVL684:
	.loc 1 629 161 is_stmt 1 view .LVU3524
	.loc 1 629 173 is_stmt 0 view .LVU3525
	sub	sp, sp, #32
	mov	r0, sp
.LVL685:
	.loc 1 629 287 is_stmt 1 view .LVU3526
	.loc 1 629 490 view .LVU3527
	.loc 1 629 7 view .LVU3528
	.loc 1 629 9 view .LVU3529
	.loc 1 629 22 view .LVU3530
.LBB2509:
	.loc 1 629 5 view .LVU3531
	.loc 1 629 219 view .LVU3532
	.loc 1 629 4 view .LVU3533
	.loc 1 629 33 view .LVU3534
	.loc 1 629 62 view .LVU3535
	.loc 1 629 82 view .LVU3536
	.loc 1 629 106 view .LVU3537
	.loc 1 629 14 is_stmt 0 view .LVU3538
	adds	r2, r0, #12
.LVL686:
	.loc 1 629 14 view .LVU3539
	beq	.L366
	.loc 1 629 14 view .LVU3540
	movs	r1, #16
.L352:
	.loc 1 629 15 is_stmt 1 discriminator 94 view .LVU3541
.LVL687:
	.loc 1 629 57 discriminator 94 view .LVU3542
	.loc 1 629 99 discriminator 94 view .LVU3543
	.loc 1 629 144 discriminator 94 view .LVU3544
.LBB2510:
	.loc 1 629 149 discriminator 94 view .LVU3545
	.loc 1 629 406 discriminator 94 view .LVU3546
	.loc 1 629 412 discriminator 94 view .LVU3547
	.loc 1 629 1545 discriminator 94 view .LVU3548
.LBE2510:
.LBE2509:
.LBE2522:
.LBE2529:
.LBE2537:
	.loc 1 629 1569 discriminator 94 view .LVU3549
	.loc 1 629 1629 discriminator 94 view .LVU3550
	.loc 1 629 1746 discriminator 94 view .LVU3551
.LBB2538:
.LBB2530:
.LBB2523:
.LBB2517:
.LBB2511:
	.loc 1 629 1761 discriminator 94 view .LVU3552
	.loc 1 629 2051 discriminator 94 view .LVU3553
	.loc 1 629 2099 discriminator 94 view .LVU3554
	.loc 1 629 2102 is_stmt 0 discriminator 94 view .LVU3555
	cbz	r2, .L353
	.loc 1 629 2109 discriminator 98 view .LVU3556
	cmp	r1, #4
	ble	.L353
	.loc 1 629 2137 is_stmt 1 discriminator 103 view .LVU3557
	.loc 1 629 2142 discriminator 103 view .LVU3558
	.loc 1 629 2743 discriminator 103 view .LVU3559
	.loc 1 629 3374 is_stmt 0 discriminator 103 view .LVU3560
	ldr	r6, .L374
.LVL688:
	.loc 1 629 3374 discriminator 103 view .LVU3561
	str	r6, [r0, #16]
.L353:
	.loc 1 629 3423 is_stmt 1 discriminator 104 view .LVU3562
	.loc 1 629 3430 discriminator 104 view .LVU3563
.LVL689:
	.loc 1 629 3453 discriminator 104 view .LVU3564
	.loc 1 629 3453 is_stmt 0 discriminator 104 view .LVU3565
.LBE2511:
	.loc 1 629 3487 is_stmt 1 discriminator 104 view .LVU3566
	.loc 1 629 3493 discriminator 104 view .LVU3567
.LBB2512:
	.loc 1 629 3498 discriminator 104 view .LVU3568
	.loc 1 629 3723 discriminator 104 view .LVU3569
	.loc 1 629 3729 discriminator 104 view .LVU3570
	.loc 1 629 0 discriminator 104 view .LVU3571
.LBE2512:
.LBE2517:
.LBE2523:
.LBE2530:
.LBE2538:
	.loc 1 629 0 discriminator 104 view .LVU3572
	.loc 1 629 0 discriminator 104 view .LVU3573
	.loc 1 629 0 discriminator 104 view .LVU3574
.LBB2539:
.LBB2531:
.LBB2524:
.LBB2518:
.LBB2513:
	.loc 1 629 0 discriminator 104 view .LVU3575
	.loc 1 629 0 discriminator 104 view .LVU3576
	cbz	r2, .L354
	.loc 1 629 0 is_stmt 0 discriminator 112 view .LVU3577
	cmp	r1, #8
	ble	.L354
	.loc 1 629 0 is_stmt 1 discriminator 117 view .LVU3578
	.loc 1 629 0 discriminator 117 view .LVU3579
	.loc 1 629 0 discriminator 117 view .LVU3580
	str	r3, [r0, #20]
.L354:
	.loc 1 629 0 discriminator 118 view .LVU3581
	.loc 1 629 0 discriminator 118 view .LVU3582
.LVL690:
	.loc 1 629 0 discriminator 118 view .LVU3583
	.loc 1 629 0 is_stmt 0 discriminator 118 view .LVU3584
.LBE2513:
	.loc 1 629 0 is_stmt 1 discriminator 118 view .LVU3585
	.loc 1 629 0 discriminator 118 view .LVU3586
.LBB2514:
	.loc 1 629 0 discriminator 118 view .LVU3587
	.loc 1 629 0 discriminator 118 view .LVU3588
	.loc 1 629 0 discriminator 118 view .LVU3589
	.loc 1 629 0 discriminator 118 view .LVU3590
.LBE2514:
.LBE2518:
.LBE2524:
.LBE2531:
.LBE2539:
	.loc 1 629 0 discriminator 118 view .LVU3591
	.loc 1 629 0 discriminator 118 view .LVU3592
	.loc 1 629 0 discriminator 118 view .LVU3593
.LBB2540:
.LBB2532:
.LBB2525:
.LBB2519:
.LBB2515:
	.loc 1 629 0 discriminator 118 view .LVU3594
	.loc 1 629 0 discriminator 118 view .LVU3595
	cbz	r2, .L355
	.loc 1 629 0 is_stmt 0 discriminator 126 view .LVU3596
	cmp	r1, #12
	ble	.L355
	.loc 1 629 0 is_stmt 1 discriminator 131 view .LVU3597
	.loc 1 629 0 discriminator 131 view .LVU3598
	.loc 1 629 0 discriminator 131 view .LVU3599
	str	r4, [r0, #24]
.L355:
	.loc 1 629 0 discriminator 132 view .LVU3600
	.loc 1 629 0 discriminator 132 view .LVU3601
.LVL691:
	.loc 1 629 0 discriminator 132 view .LVU3602
	.loc 1 629 0 is_stmt 0 discriminator 132 view .LVU3603
.LBE2515:
	.loc 1 629 0 is_stmt 1 discriminator 132 view .LVU3604
	.loc 1 629 0 discriminator 132 view .LVU3605
	.loc 1 629 0 discriminator 132 view .LVU3606
	.loc 1 629 0 discriminator 132 view .LVU3607
	.loc 1 629 4 is_stmt 0 discriminator 132 view .LVU3608
	cmp	r1, #15
	ble	.L367
	.loc 1 629 4 view .LVU3609
	movs	r3, #16
.LVL692:
.L356:
	.loc 1 629 18 is_stmt 1 discriminator 144 view .LVU3610
	.loc 1 629 21 is_stmt 0 discriminator 144 view .LVU3611
	cbz	r2, .L357
.LBB2516:
	.loc 1 629 31 is_stmt 1 discriminator 145 view .LVU3612
	.loc 1 629 52 is_stmt 0 discriminator 145 view .LVU3613
	movs	r2, #0
.LVL693:
	.loc 1 629 52 discriminator 145 view .LVU3614
	strh	r2, [r7, #5]	@ unaligned
	strb	r2, [r7, #7]
	movs	r1, #4
	strb	r1, [r7, #4]
	strb	r2, [r7, #6]
	.loc 1 629 177 is_stmt 1 discriminator 145 view .LVU3615
	.loc 1 629 187 is_stmt 0 discriminator 145 view .LVU3616
	ldr	r2, [r7, #4]
	str	r2, [r0, #12]
.L357:
	.loc 1 629 187 discriminator 145 view .LVU3617
.LBE2516:
.LBE2519:
	.loc 1 629 13 is_stmt 1 discriminator 4 view .LVU3618
	.loc 1 629 20 discriminator 4 view .LVU3619
	.loc 1 629 41 is_stmt 0 discriminator 4 view .LVU3620
	movs	r2, #0
.LVL694:
	.loc 1 629 41 discriminator 4 view .LVU3621
	bfc	r2, #0, #1
.LVL695:
	.loc 1 629 41 discriminator 4 view .LVU3622
	bfc	r2, #1, #1
	bfc	r2, #2, #1
	bfc	r2, #3, #3
	movs	r1, #1
	bfi	r2, r1, #6, #3
	.loc 1 629 126 discriminator 4 view .LVU3623
	and	r3, r3, #1012
.LVL696:
	.loc 1 629 41 discriminator 4 view .LVU3624
	bfi	r2, r3, #9, #10
	.loc 1 629 176 is_stmt 1 discriminator 4 view .LVU3625
	movs	r3, #0
	ubfx	r2, r2, #0, #19
.LVL697:
	.loc 1 629 176 is_stmt 0 discriminator 4 view .LVU3626
	ldr	r1, .L374+4
	bl	z_log_msg2_finalize
.LVL698:
	.loc 1 629 176 discriminator 4 view .LVU3627
	mov	sp, r5
.LVL699:
	.loc 1 629 176 discriminator 4 view .LVU3628
.LBE2525:
	.loc 1 629 15 is_stmt 1 discriminator 4 view .LVU3629
	.loc 1 629 20 discriminator 4 view .LVU3630
	.loc 1 629 60 discriminator 4 view .LVU3631
.LBE2532:
	.loc 1 629 15 discriminator 4 view .LVU3632
	.loc 1 629 22 discriminator 4 view .LVU3633
	.loc 1 629 22 is_stmt 0 discriminator 4 view .LVU3634
.LBE2540:
	.loc 1 629 91 is_stmt 1 discriminator 4 view .LVU3635
	.loc 1 631 5 discriminator 4 view .LVU3636
	.loc 1 632 5 discriminator 4 view .LVU3637
	.loc 1 671 2 discriminator 4 view .LVU3638
	.loc 1 631 12 is_stmt 0 discriminator 4 view .LVU3639
	movs	r6, #0
	b	.L358
.LVL700:
.L366:
.LBB2541:
.LBB2533:
.LBB2526:
.LBB2520:
	.loc 1 629 14 view .LVU3640
	mvn	r1, #-2147483648
	b	.L352
.LVL701:
.L367:
	.loc 1 629 4 view .LVU3641
	mvn	r3, #27
.LVL702:
	.loc 1 629 4 view .LVU3642
	b	.L356
.LVL703:
.L359:
	.loc 1 629 4 view .LVU3643
.LBE2520:
.LBE2526:
.LBE2533:
.LBE2541:
	.loc 1 647 4 is_stmt 1 view .LVU3644
	.loc 1 647 7 is_stmt 0 view .LVU3645
	cmp	r2, #4
	bne	.L370
	.loc 1 652 4 is_stmt 1 view .LVU3646
.LBB2542:
	.loc 1 653 38 view .LVU3647
.LVL704:
	.loc 1 653 177 view .LVU3648
	.loc 1 653 180 is_stmt 0 view .LVU3649
	ldrh	r1, [r0, #2]	@ unaligned
.LBE2542:
.LBB2543:
	.loc 1 653 227 is_stmt 1 view .LVU3650
.LVL705:
	.loc 1 653 366 view .LVU3651
.LBE2543:
	.loc 1 653 205 is_stmt 0 view .LVU3652
	lsls	r3, r1, #8
.LVL706:
	.loc 1 653 205 view .LVU3653
	orr	r3, r3, r1, lsr #8
	.loc 1 652 22 view .LVU3654
	strh	r3, [r5]	@ movhi
.LVL707:
	.loc 1 654 4 is_stmt 1 view .LVU3655
	.loc 1 654 28 is_stmt 0 view .LVU3656
	ldrb	r3, [r5, #4]	@ zero_extendqisi2
	orr	r3, r3, #1
	strb	r3, [r5, #4]
	.loc 1 655 4 is_stmt 1 view .LVU3657
.LBB2544:
	.loc 1 655 9 view .LVU3658
.LVL708:
.L350:
	.loc 1 655 9 is_stmt 0 view .LVU3659
.LBE2544:
	.loc 1 619 31 is_stmt 1 view .LVU3660
	.loc 1 619 39 is_stmt 0 view .LVU3661
	add	r0, r0, r2
.LVL709:
	.loc 1 619 55 view .LVU3662
	subs	r4, r4, r2
.LVL710:
.L348:
	.loc 1 619 10 is_stmt 1 discriminator 1 view .LVU3663
	.loc 1 619 2 is_stmt 0 discriminator 1 view .LVU3664
	cbz	r0, .L349
	.loc 1 619 18 discriminator 2 view .LVU3665
	cmp	r4, #0
	ble	.L349
	.loc 1 620 3 is_stmt 1 view .LVU3666
	.loc 1 620 7 is_stmt 0 view .LVU3667
	ldrb	r3, [r0]	@ zero_extendqisi2
.LVL711:
	.loc 1 622 3 is_stmt 1 view .LVU3668
	.loc 1 622 6 is_stmt 0 view .LVU3669
	cbz	r3, .L349
	.loc 1 624 10 is_stmt 1 view .LVU3670
	.loc 1 624 13 is_stmt 0 view .LVU3671
	cmp	r3, #1
	beq	.L365
	.loc 1 628 4 is_stmt 1 view .LVU3672
	.loc 1 628 7 is_stmt 0 view .LVU3673
	cmp	r4, #1
	ble	.L373
	.loc 1 634 4 is_stmt 1 view .LVU3674
	.loc 1 634 12 is_stmt 0 view .LVU3675
	ldrb	r2, [r0, #1]	@ zero_extendqisi2
.LVL712:
	.loc 1 637 3 is_stmt 1 view .LVU3676
.LBB2545:
	.loc 1 637 8 view .LVU3677
.LBE2545:
	.loc 1 637 159 view .LVU3678
	.loc 1 640 3 view .LVU3679
	.loc 1 640 6 is_stmt 0 view .LVU3680
	cmp	r2, #1
	bls	.L368
	.loc 1 640 19 discriminator 1 view .LVU3681
	cmp	r2, r4
	bgt	.L369
	.loc 1 645 3 is_stmt 1 view .LVU3682
	cmp	r3, #2
	beq	.L359
	cmp	r3, #3
	bne	.L350
	.loc 1 658 4 view .LVU3683
	.loc 1 658 7 is_stmt 0 view .LVU3684
	cmp	r2, #3
	bne	.L371
	.loc 1 663 4 is_stmt 1 view .LVU3685
	.loc 1 663 25 is_stmt 0 view .LVU3686
	strh	r3, [r5, #2]	@ movhi
	.loc 1 664 4 is_stmt 1 view .LVU3687
	.loc 1 664 28 is_stmt 0 view .LVU3688
	ldrb	r3, [r5, #4]	@ zero_extendqisi2
.LVL713:
	.loc 1 664 28 view .LVU3689
	orr	r3, r3, #2
	strb	r3, [r5, #4]
	.loc 1 665 4 is_stmt 1 view .LVU3690
	b	.L350
.LVL714:
.L365:
	.loc 1 625 12 is_stmt 0 view .LVU3691
	mov	r2, r3
	b	.L350
.LVL715:
.L368:
	.loc 1 641 11 view .LVU3692
	movs	r6, #0
.LVL716:
.L349:
	.loc 1 671 2 is_stmt 1 view .LVU3693
	.loc 1 671 5 is_stmt 0 view .LVU3694
	cbnz	r6, .L362
.LVL717:
.L358:
	.loc 1 672 3 is_stmt 1 view .LVU3695
.LBB2546:
	.loc 1 672 8 view .LVU3696
	.loc 1 672 57 view .LVU3697
	.loc 1 672 14 view .LVU3698
	.loc 1 672 2 view .LVU3699
.LBE2546:
	.loc 9 120 2 view .LVU3700
.LBB2559:
	.loc 1 672 41 view .LVU3701
	.loc 1 672 107 view .LVU3702
	.loc 1 672 206 view .LVU3703
.LBB2547:
	.loc 1 672 215 view .LVU3704
	.loc 1 672 226 view .LVU3705
	.loc 1 672 314 view .LVU3706
	.loc 1 672 319 view .LVU3707
	.loc 1 672 321 view .LVU3708
.LBE2547:
.LBE2559:
	.loc 1 672 3 view .LVU3709
	.loc 1 672 3 view .LVU3710
.LBB2560:
.LBB2556:
	.loc 1 672 73 view .LVU3711
.LBB2548:
	.loc 1 672 78 view .LVU3712
	.loc 1 672 89 view .LVU3713
.LBE2548:
.LBE2556:
.LBE2560:
	.loc 1 672 3 view .LVU3714
	.loc 1 672 217 view .LVU3715
	.loc 1 672 2 view .LVU3716
	.loc 1 672 31 view .LVU3717
	.loc 1 672 4 view .LVU3718
	.loc 1 672 24 view .LVU3719
	.loc 1 672 48 view .LVU3720
	.loc 1 672 23 view .LVU3721
	.loc 1 672 41 view .LVU3722
	.loc 1 672 61 view .LVU3723
	.loc 1 672 108 view .LVU3724
	.loc 1 672 140 view .LVU3725
	.loc 1 672 13 view .LVU3726
	.loc 1 672 55 view .LVU3727
	.loc 1 672 97 view .LVU3728
	.loc 1 672 142 view .LVU3729
	.loc 1 672 147 view .LVU3730
	.loc 1 672 390 view .LVU3731
	.loc 1 672 396 view .LVU3732
	.loc 1 672 1473 view .LVU3733
	.loc 1 672 1497 view .LVU3734
	.loc 1 672 1543 view .LVU3735
	.loc 1 672 1646 view .LVU3736
	.loc 1 672 1661 view .LVU3737
	.loc 1 672 1937 view .LVU3738
	.loc 1 672 1985 view .LVU3739
	.loc 1 672 3197 view .LVU3740
	.loc 1 672 3204 view .LVU3741
	.loc 1 672 3227 view .LVU3742
	.loc 1 672 3261 view .LVU3743
	.loc 1 672 3266 view .LVU3744
	.loc 1 672 3289 view .LVU3745
	.loc 1 672 3417 view .LVU3746
	.loc 1 672 16 view .LVU3747
.LBB2561:
.LBB2557:
.LBB2554:
	.loc 1 672 11 view .LVU3748
	.loc 1 672 16 view .LVU3749
	.loc 1 672 39 view .LVU3750
	.loc 1 672 159 view .LVU3751
	.loc 1 672 285 view .LVU3752
	.loc 1 672 488 view .LVU3753
	.loc 1 672 5 view .LVU3754
	.loc 1 672 7 view .LVU3755
	.loc 1 672 20 view .LVU3756
.LBB2549:
	.loc 1 672 3 view .LVU3757
	.loc 1 672 217 view .LVU3758
	.loc 1 672 2 view .LVU3759
	.loc 1 672 31 view .LVU3760
	.loc 1 672 60 view .LVU3761
	.loc 1 672 80 view .LVU3762
	.loc 1 672 104 view .LVU3763
	.loc 1 672 27 view .LVU3764
	.loc 1 672 45 view .LVU3765
	.loc 1 672 65 view .LVU3766
	.loc 1 672 112 view .LVU3767
	.loc 1 672 144 view .LVU3768
	.loc 1 672 13 view .LVU3769
	.loc 1 672 55 view .LVU3770
	.loc 1 672 97 view .LVU3771
	.loc 1 672 142 view .LVU3772
.LBB2550:
	.loc 1 672 147 view .LVU3773
	.loc 1 672 390 view .LVU3774
	.loc 1 672 396 view .LVU3775
	.loc 1 672 1473 view .LVU3776
.LBE2550:
.LBE2549:
.LBE2554:
.LBE2557:
.LBE2561:
	.loc 1 672 1497 view .LVU3777
	.loc 1 672 1543 view .LVU3778
	.loc 1 672 1646 view .LVU3779
.LBB2562:
.LBB2558:
.LBB2555:
.LBB2553:
.LBB2551:
	.loc 1 672 1661 view .LVU3780
	.loc 1 672 1937 view .LVU3781
	.loc 1 672 1985 view .LVU3782
	.loc 1 672 2023 view .LVU3783
	.loc 1 672 2028 view .LVU3784
	.loc 1 672 2545 view .LVU3785
	.loc 1 672 3162 is_stmt 0 view .LVU3786
	ldr	r3, .L374+8
	str	r3, [r7, #64]
	.loc 1 672 3197 is_stmt 1 view .LVU3787
	.loc 1 672 3204 view .LVU3788
.LVL718:
	.loc 1 672 3227 view .LVU3789
	.loc 1 672 3227 is_stmt 0 view .LVU3790
.LBE2551:
	.loc 1 672 3261 is_stmt 1 view .LVU3791
	.loc 1 672 3266 view .LVU3792
	.loc 1 672 3289 view .LVU3793
	.loc 1 672 3417 view .LVU3794
	.loc 1 672 16 view .LVU3795
.LBB2552:
	.loc 1 672 29 view .LVU3796
	.loc 1 672 50 is_stmt 0 view .LVU3797
	movs	r3, #0
	strh	r3, [r7, #5]	@ unaligned
	strb	r3, [r7, #7]
	movs	r1, #2
	strb	r1, [r7, #4]
	strb	r3, [r7, #6]
	.loc 1 672 175 is_stmt 1 view .LVU3798
	.loc 1 672 185 is_stmt 0 view .LVU3799
	ldr	r2, [r7, #4]
	str	r2, [r7, #60]
	.loc 1 672 185 view .LVU3800
.LBE2552:
.LBE2553:
	.loc 1 672 11 is_stmt 1 view .LVU3801
	.loc 1 672 18 view .LVU3802
	.loc 1 672 39 is_stmt 0 view .LVU3803
	mov	r2, r3
.LVL719:
	.loc 1 672 39 view .LVU3804
	bfi	r2, r3, #0, #1
.LVL720:
	.loc 1 672 39 view .LVU3805
	bfi	r2, r3, #1, #1
	bfi	r2, r3, #2, #1
	bfi	r2, r3, #3, #3
	bfi	r2, r1, #6, #3
	movs	r1, #8
	bfi	r2, r1, #9, #10
	.loc 1 672 174 is_stmt 1 view .LVU3806
	ubfx	r2, r2, #0, #19
.LVL721:
	.loc 1 672 174 is_stmt 0 view .LVU3807
	ldr	r1, .L374+4
	add	r0, r7, #48
.LVL722:
	.loc 1 672 174 view .LVU3808
	bl	z_log_msg2_finalize
.LVL723:
	.loc 1 672 174 view .LVU3809
.LBE2555:
	.loc 1 672 13 is_stmt 1 view .LVU3810
	.loc 1 672 18 view .LVU3811
.LVL724:
	.loc 1 672 58 view .LVU3812
.LBE2558:
	.loc 1 672 13 view .LVU3813
	.loc 1 672 20 view .LVU3814
.L362:
	.loc 1 672 20 is_stmt 0 view .LVU3815
.LBE2562:
	.loc 1 672 65 is_stmt 1 view .LVU3816
	.loc 1 675 2 view .LVU3817
	.loc 1 676 1 is_stmt 0 view .LVU3818
	mov	r0, r6
	adds	r7, r7, #76
	.cfi_remember_state
	.cfi_def_cfa_offset 20
	mov	sp, r7
	.cfi_def_cfa_register 13
	@ sp needed
	pop	{r4, r5, r6, r7, pc}
.LVL725:
.L369:
	.cfi_restore_state
	.loc 1 641 11 view .LVU3819
	movs	r6, #0
.LVL726:
	.loc 1 641 11 view .LVU3820
	b	.L349
.LVL727:
.L370:
	.loc 1 648 12 view .LVU3821
	movs	r6, #0
.LVL728:
	.loc 1 648 12 view .LVU3822
	b	.L358
.LVL729:
.L371:
	.loc 1 659 12 view .LVU3823
	movs	r6, #0
.LVL730:
	.loc 1 659 12 view .LVU3824
	b	.L358
.L375:
	.align	2
.L374:
	.word	.LC22
	.word	.LANCHOR3
	.word	.LC23
	.cfi_endproc
.LFE964:
	.size	tcp_options_check, .-tcp_options_check
	.section	.text.tcp_check_pending_data,"ax",%progbits
	.align	1
	.syntax unified
	.thumb
	.thumb_func
	.fpu fpv4-sp-d16
	.type	tcp_check_pending_data, %function
tcp_check_pending_data:
.LVL731:
.LFB965:
	.loc 1 680 1 is_stmt 1 view -0
	.cfi_startproc
	@ args = 0, pretend = 0, frame = 0
	@ frame_needed = 0, uses_anonymous_args = 0
	.loc 1 680 1 is_stmt 0 view .LVU3826
	push	{r3, r4, r5, r6, r7, lr}
	.cfi_def_cfa_offset 24
	.cfi_offset 3, -24
	.cfi_offset 4, -20
	.cfi_offset 5, -16
	.cfi_offset 6, -12
	.cfi_offset 7, -8
	.cfi_offset 14, -4
	mov	r4, r0
	mov	r6, r1
	mov	r5, r2
	.loc 1 681 2 is_stmt 1 view .LVU3827
.LVL732:
	.loc 1 683 2 view .LVU3828
	.loc 1 684 7 is_stmt 0 view .LVU3829
	ldr	r3, [r0, #12]
.LVL733:
.LBB2563:
.LBI2563:
	.loc 11 976 19 is_stmt 1 view .LVU3830
.LBB2564:
	.loc 11 978 2 view .LVU3831
	.loc 11 978 13 is_stmt 0 view .LVU3832
	ldr	r3, [r3, #8]
.LVL734:
	.loc 11 978 44 view .LVU3833
	cbz	r3, .L381
.LVL735:
.LBB2565:
.LBI2565:
	.loc 11 966 24 is_stmt 1 view .LVU3834
.LBB2566:
	.loc 11 968 2 view .LVU3835
	.loc 11 968 19 is_stmt 0 view .LVU3836
	ldr	r2, [r3, #8]
.LVL736:
	.loc 11 968 19 view .LVU3837
.LBE2566:
.LBE2565:
	.loc 11 978 22 view .LVU3838
	cbz	r2, .L382
	.loc 11 978 58 view .LVU3839
	ldrh	r3, [r3, #12]
	.loc 11 978 44 view .LVU3840
	cbz	r3, .L383
	movs	r3, #0
	b	.L377
.LVL737:
.L381:
	.loc 11 978 44 view .LVU3841
	movs	r3, #1
.LVL738:
.L377:
	.loc 11 978 44 view .LVU3842
.LBE2564:
.LBE2563:
	.loc 1 683 5 view .LVU3843
	cbz	r3, .L387
	.loc 1 681 9 view .LVU3844
	movs	r5, #0
.LVL739:
	.loc 1 703 2 is_stmt 1 view .LVU3845
.L376:
	.loc 1 704 1 is_stmt 0 view .LVU3846
	mov	r0, r5
	pop	{r3, r4, r5, r6, r7, pc}
.LVL740:
.L382:
.LBB2568:
.LBB2567:
	.loc 11 978 44 view .LVU3847
	movs	r3, #1
	b	.L377
.L383:
	movs	r3, #1
	b	.L377
.LVL741:
.L387:
	.loc 11 978 44 view .LVU3848
.LBE2567:
.LBE2568:
.LBB2569:
	.loc 1 685 3 is_stmt 1 view .LVU3849
	.loc 1 685 23 is_stmt 0 view .LVU3850
	mov	r0, r6
.LVL742:
	.loc 1 685 23 view .LVU3851
	bl	th_get
.LVL743:
	.loc 1 686 3 is_stmt 1 view .LVU3852
.LBB2570:
	.loc 1 686 60 view .LVU3853
	.loc 1 686 175 view .LVU3854
	.loc 1 686 178 is_stmt 0 view .LVU3855
	ldr	r2, [r0, #4]	@ unaligned
.LBE2570:
.LBB2571:
	.loc 1 686 226 is_stmt 1 view .LVU3856
.LVL744:
	.loc 1 686 341 view .LVU3857
.LBE2571:
	.loc 1 686 355 is_stmt 0 view .LVU3858
	lsrs	r3, r2, #8
	.loc 1 686 361 view .LVU3859
	and	r3, r3, #65280
	.loc 1 686 204 view .LVU3860
	orr	r3, r3, r2, lsr #24
.LBB2572:
	.loc 1 686 393 is_stmt 1 view .LVU3861
.LVL745:
	.loc 1 686 508 view .LVU3862
.LBE2572:
	.loc 1 686 532 is_stmt 0 view .LVU3863
	lsls	r1, r2, #8
	and	r1, r1, #16711680
	.loc 1 686 371 view .LVU3864
	orrs	r3, r3, r1
.LBB2573:
	.loc 1 686 560 is_stmt 1 view .LVU3865
.LVL746:
	.loc 1 686 675 view .LVU3866
.LBE2573:
	.loc 1 686 538 is_stmt 0 view .LVU3867
	orr	r3, r3, r2, lsl #24
	.loc 1 686 12 view .LVU3868
	add	r5, r5, r3
.LVL747:
	.loc 1 687 3 is_stmt 1 view .LVU3869
	.loc 1 689 3 view .LVU3870
	.loc 1 689 33 is_stmt 0 view .LVU3871
	ldr	r3, [r4, #12]
	.loc 1 689 17 view .LVU3872
	ldr	r7, [r3, #8]
	mov	r0, r7
.LVL748:
	.loc 1 689 17 view .LVU3873
	bl	tcp_get_seq
.LVL749:
	.loc 1 690 3 is_stmt 1 view .LVU3874
	.loc 1 690 6 is_stmt 0 view .LVU3875
	cmp	r5, r0
	beq	.L385
.LBE2569:
	.loc 1 681 9 view .LVU3876
	movs	r5, #0
.LVL750:
	.loc 1 681 9 view .LVU3877
	b	.L376
.LVL751:
.L385:
.LBB2578:
	.loc 1 681 9 view .LVU3878
	mov	r3, r7
.LBB2574:
.LBB2575:
.LBB2576:
	.loc 2 2467 9 view .LVU3879
	movs	r5, #0
.LVL752:
.L379:
	.loc 2 2469 8 is_stmt 1 view .LVU3880
	cbz	r3, .L388
	.loc 2 2470 3 view .LVU3881
	.loc 2 2470 15 is_stmt 0 view .LVU3882
	ldrh	r2, [r3, #12]
	.loc 2 2470 9 view .LVU3883
	add	r5, r5, r2
.LVL753:
	.loc 2 2471 3 is_stmt 1 view .LVU3884
	.loc 2 2471 7 is_stmt 0 view .LVU3885
	ldr	r3, [r3]
.LVL754:
	.loc 2 2471 7 view .LVU3886
	b	.L379
.L388:
	.loc 2 2474 2 is_stmt 1 view .LVU3887
.LVL755:
	.loc 2 2474 2 is_stmt 0 view .LVU3888
.LBE2576:
.LBE2575:
.LBE2574:
	.loc 1 693 4 is_stmt 1 view .LVU3889
.LBB2577:
	.loc 1 693 9 view .LVU3890
.LBE2577:
	.loc 1 693 163 view .LVU3891
	.loc 1 695 4 view .LVU3892
	mov	r1, r7
	ldr	r0, [r6, #8]
.LVL756:
	.loc 1 695 4 is_stmt 0 view .LVU3893
	bl	net_buf_frag_add
.LVL757:
	.loc 1 697 4 is_stmt 1 view .LVU3894
	.loc 1 697 8 is_stmt 0 view .LVU3895
	ldr	r3, [r4, #12]
	.loc 1 697 34 view .LVU3896
	movs	r2, #0
	str	r2, [r3, #8]
	.loc 1 699 4 is_stmt 1 view .LVU3897
	add	r0, r4, #168
	bl	k_work_cancel_delayable
.LVL758:
	b	.L376
.LBE2578:
	.cfi_endproc
.LFE965:
	.size	tcp_check_pending_data, .-tcp_check_pending_data
	.section	.text.tcp_data_get,"ax",%progbits
	.align	1
	.syntax unified
	.thumb
	.thumb_func
	.fpu fpv4-sp-d16
	.type	tcp_data_get, %function
tcp_data_get:
.LVL759:
.LFB966:
	.loc 1 707 1 view -0
	.cfi_startproc
	@ args = 0, pretend = 0, frame = 0
	@ frame_needed = 0, uses_anonymous_args = 0
	.loc 1 707 1 is_stmt 0 view .LVU3899
	push	{r4, r5, r6, lr}
	.cfi_def_cfa_offset 16
	.cfi_offset 4, -16
	.cfi_offset 5, -12
	.cfi_offset 6, -8
	.cfi_offset 14, -4
	mov	r4, r0
	.loc 1 708 2 is_stmt 1 view .LVU3900
.LVL760:
	.loc 1 710 2 view .LVU3901
	.loc 1 710 6 is_stmt 0 view .LVU3902
	ldr	r3, .L398
	ldr	r3, [r3]
	.loc 1 710 5 view .LVU3903
	cbz	r3, .L390
	.loc 1 711 3 is_stmt 1 view .LVU3904
	blx	r3
.LVL761:
	.loc 1 712 3 view .LVU3905
	.loc 1 708 6 is_stmt 0 view .LVU3906
	movs	r0, #0
.LVL762:
.L389:
	.loc 1 743 1 view .LVU3907
	pop	{r4, r5, r6, pc}
.LVL763:
.L390:
	.loc 1 743 1 view .LVU3908
	mov	r5, r2
	.loc 1 715 2 is_stmt 1 view .LVU3909
	.loc 1 715 10 is_stmt 0 view .LVU3910
	ldr	r3, [r0, #4]
	.loc 1 715 19 view .LVU3911
	ldr	r3, [r3, #68]
	.loc 1 715 5 view .LVU3912
	cbz	r3, .L395
.LBB2579:
	.loc 1 716 3 is_stmt 1 view .LVU3913
.LVL764:
	.loc 1 716 3 is_stmt 0 view .LVU3914
.LBE2579:
	.loc 10 405 2 is_stmt 1 view .LVU3915
	.loc 10 106 1 view .LVU3916
	.loc 10 108 1 view .LVU3917
	.loc 10 111 2 view .LVU3918
	.loc 10 115 2 view .LVU3919
	.loc 10 117 2 view .LVU3920
	.loc 10 133 2 view .LVU3921
	.loc 10 140 9 view .LVU3922
	.loc 10 141 3 view .LVU3923
	.loc 10 144 4 view .LVU3924
.LBB2591:
	.loc 1 716 24 is_stmt 0 view .LVU3925
	mov	r2, #1000
.LVL765:
	.loc 1 716 24 view .LVU3926
	movs	r3, #0
	mov	r0, r1
.LVL766:
	.loc 1 716 24 view .LVU3927
	bl	net_pkt_clone
.LVL767:
	.loc 1 718 3 is_stmt 1 view .LVU3928
	.loc 1 718 6 is_stmt 0 view .LVU3929
	mov	r6, r0
	cbz	r0, .L397
	.loc 1 726 3 is_stmt 1 view .LVU3930
	.loc 1 726 11 is_stmt 0 view .LVU3931
	ldr	r2, [r5]
	mov	r1, r0
	mov	r0, r4
.LVL768:
	.loc 1 726 11 view .LVU3932
	bl	tcp_check_pending_data
.LVL769:
	.loc 1 726 8 view .LVU3933
	ldr	r3, [r5]
	add	r3, r3, r0
	str	r3, [r5]
	.loc 1 728 3 is_stmt 1 view .LVU3934
	mov	r0, r6
	bl	net_pkt_cursor_init
.LVL770:
	.loc 1 729 3 view .LVU3935
.LBB2580:
.LBI2580:
	.loc 11 1205 20 view .LVU3936
.LBB2581:
	.loc 11 1207 2 view .LVU3937
	.loc 11 1207 17 is_stmt 0 view .LVU3938
	ldrb	r3, [r6, #73]	@ zero_extendqisi2
	orr	r3, r3, #1
	strb	r3, [r6, #73]
.LVL771:
	.loc 11 1207 17 view .LVU3939
.LBE2581:
.LBE2580:
	.loc 1 731 3 is_stmt 1 view .LVU3940
.LBB2582:
.LBI2582:
	.loc 11 961 22 view .LVU3941
.LBB2583:
	.loc 11 963 2 view .LVU3942
	.loc 11 963 9 is_stmt 0 view .LVU3943
	ldr	r3, [r6, #8]
.LVL772:
.LBB2584:
.LBI2584:
	.loc 2 2465 22 is_stmt 1 view .LVU3944
.LBB2585:
	.loc 2 2467 2 view .LVU3945
	.loc 2 2469 2 view .LVU3946
	.loc 2 2467 9 is_stmt 0 view .LVU3947
	movs	r1, #0
	.loc 2 2469 8 view .LVU3948
	b	.L393
.LVL773:
.L397:
	.loc 2 2469 8 view .LVU3949
.LBE2585:
.LBE2584:
.LBE2583:
.LBE2582:
	.loc 1 719 4 is_stmt 1 view .LVU3950
	.loc 1 720 4 view .LVU3951
	.loc 1 719 8 is_stmt 0 view .LVU3952
	mvn	r0, #104
.LVL774:
	.loc 1 719 8 view .LVU3953
	b	.L389
.LVL775:
.L394:
.LBB2589:
.LBB2588:
.LBB2587:
.LBB2586:
	.loc 2 2470 3 is_stmt 1 view .LVU3954
	.loc 2 2470 15 is_stmt 0 view .LVU3955
	ldrh	r0, [r3, #12]
	.loc 2 2470 9 view .LVU3956
	add	r1, r1, r0
.LVL776:
	.loc 2 2471 3 is_stmt 1 view .LVU3957
	.loc 2 2471 7 is_stmt 0 view .LVU3958
	ldr	r3, [r3]
.LVL777:
.L393:
	.loc 2 2469 8 is_stmt 1 view .LVU3959
	cmp	r3, #0
	bne	.L394
	.loc 2 2474 2 view .LVU3960
.LVL778:
	.loc 2 2474 2 is_stmt 0 view .LVU3961
.LBE2586:
.LBE2587:
.LBE2588:
.LBE2589:
	.loc 1 731 42 view .LVU3962
	ldr	r3, [r5]
	.loc 1 731 3 view .LVU3963
	subs	r1, r1, r3
	mov	r0, r6
	bl	net_pkt_skip
.LVL779:
	.loc 1 739 3 is_stmt 1 view .LVU3964
.LBB2590:
	.loc 1 739 6 view .LVU3965
	.loc 1 739 11 view .LVU3966
	.loc 1 739 19 view .LVU3967
	.loc 1 739 5 view .LVU3968
	mov	r1, r6
	add	r0, r4, #80
	bl	k_queue_append
.LVL780:
	.loc 1 739 54 view .LVU3969
	.loc 1 739 59 view .LVU3970
	.loc 1 739 67 view .LVU3971
.LBE2590:
.LBE2591:
	.loc 1 708 6 is_stmt 0 view .LVU3972
	movs	r0, #0
.LBB2592:
	b	.L389
.LVL781:
.L395:
	.loc 1 708 6 view .LVU3973
.LBE2592:
	movs	r0, #0
.LVL782:
.L391:
	.loc 1 742 2 is_stmt 1 view .LVU3974
	.loc 1 742 9 is_stmt 0 view .LVU3975
	b	.L389
.L399:
	.align	2
.L398:
	.word	.LANCHOR9
	.cfi_endproc
.LFE966:
	.size	tcp_data_get, .-tcp_data_get
	.section	.text.tcp_pkt_pull,"ax",%progbits
	.align	1
	.syntax unified
	.thumb
	.thumb_func
	.fpu fpv4-sp-d16
	.type	tcp_pkt_pull, %function
tcp_pkt_pull:
.LVL783:
.LFB974:
	.loc 1 929 1 is_stmt 1 view -0
	.cfi_startproc
	@ args = 0, pretend = 0, frame = 0
	@ frame_needed = 0, uses_anonymous_args = 0
	.loc 1 929 1 is_stmt 0 view .LVU3977
	push	{r4, r5, r6, lr}
	.cfi_def_cfa_offset 16
	.cfi_offset 4, -16
	.cfi_offset 5, -12
	.cfi_offset 6, -8
	.cfi_offset 14, -4
	mov	r5, r0
	mov	r6, r1
	.loc 1 930 2 is_stmt 1 view .LVU3978
.LVL784:
.LBB2593:
.LBI2593:
	.loc 11 961 22 view .LVU3979
.LBB2594:
	.loc 11 963 2 view .LVU3980
	.loc 11 963 9 is_stmt 0 view .LVU3981
	ldr	r3, [r0, #8]
.LVL785:
.LBB2595:
.LBI2595:
	.loc 2 2465 22 is_stmt 1 view .LVU3982
.LBB2596:
	.loc 2 2467 2 view .LVU3983
	.loc 2 2469 2 view .LVU3984
	.loc 2 2467 9 is_stmt 0 view .LVU3985
	movs	r2, #0
.LVL786:
.L401:
	.loc 2 2469 8 is_stmt 1 view .LVU3986
	cbz	r3, .L406
	.loc 2 2470 3 view .LVU3987
	.loc 2 2470 15 is_stmt 0 view .LVU3988
	ldrh	r4, [r3, #12]
	.loc 2 2470 9 view .LVU3989
	add	r2, r2, r4
.LVL787:
	.loc 2 2471 3 is_stmt 1 view .LVU3990
	.loc 2 2471 7 is_stmt 0 view .LVU3991
	ldr	r3, [r3]
.LVL788:
	.loc 2 2471 7 view .LVU3992
	b	.L401
.L406:
	.loc 2 2474 2 is_stmt 1 view .LVU3993
.LVL789:
	.loc 2 2474 2 is_stmt 0 view .LVU3994
.LBE2596:
.LBE2595:
.LBE2594:
.LBE2593:
	.loc 1 931 2 is_stmt 1 view .LVU3995
	.loc 1 933 2 view .LVU3996
	.loc 1 933 5 is_stmt 0 view .LVU3997
	cmp	r6, r2
	bhi	.L404
	.loc 1 938 2 is_stmt 1 view .LVU3998
	mov	r0, r5
.LVL790:
	.loc 1 938 2 is_stmt 0 view .LVU3999
	bl	net_pkt_cursor_init
.LVL791:
	.loc 1 939 2 is_stmt 1 view .LVU4000
.LBB2597:
.LBI2597:
	.loc 11 1205 20 view .LVU4001
.LBB2598:
	.loc 11 1207 2 view .LVU4002
	.loc 11 1207 17 is_stmt 0 view .LVU4003
	ldrb	r3, [r5, #73]	@ zero_extendqisi2
	orr	r3, r3, #1
	strb	r3, [r5, #73]
.LVL792:
	.loc 11 1207 17 view .LVU4004
.LBE2598:
.LBE2597:
	.loc 1 940 2 is_stmt 1 view .LVU4005
	mov	r1, r6
	mov	r0, r5
	bl	net_pkt_pull
.LVL793:
	.loc 1 941 2 view .LVU4006
	mov	r0, r5
	bl	net_pkt_trim_buffer
.LVL794:
	.loc 1 931 6 is_stmt 0 view .LVU4007
	movs	r0, #0
.LVL795:
.L400:
	.loc 1 944 1 view .LVU4008
	pop	{r4, r5, r6, pc}
.LVL796:
.L404:
	.loc 1 934 7 view .LVU4009
	mvn	r0, #21
.LVL797:
.L403:
	.loc 1 943 2 is_stmt 1 view .LVU4010
	.loc 1 943 9 is_stmt 0 view .LVU4011
	b	.L400
	.cfi_endproc
.LFE974:
	.size	tcp_pkt_pull, .-tcp_pkt_pull
	.section	.text.tcp_queue_recv_data,"ax",%progbits
	.align	1
	.syntax unified
	.thumb
	.thumb_func
	.fpu fpv4-sp-d16
	.type	tcp_queue_recv_data, %function
tcp_queue_recv_data:
.LVL798:
.LFB999:
	.loc 1 1594 1 is_stmt 1 view -0
	.cfi_startproc
	@ args = 0, pretend = 0, frame = 0
	@ frame_needed = 0, uses_anonymous_args = 0
	.loc 1 1594 1 is_stmt 0 view .LVU4013
	push	{r4, r5, r6, r7, r8, lr}
	.cfi_def_cfa_offset 24
	.cfi_offset 4, -24
	.cfi_offset 5, -20
	.cfi_offset 6, -16
	.cfi_offset 7, -12
	.cfi_offset 8, -8
	.cfi_offset 14, -4
	mov	r6, r0
	mov	r7, r1
	mov	r8, r3
	.loc 1 1595 2 is_stmt 1 view .LVU4014
.LVL799:
	.loc 1 1596 1 view .LVU4015
	.loc 1 1597 2 view .LVU4016
	.loc 1 1599 2 view .LVU4017
.LBB2599:
	.loc 1 1599 7 view .LVU4018
.LBE2599:
	.loc 1 1599 159 view .LVU4019
	.loc 1 1601 2 view .LVU4020
	.loc 1 1601 6 is_stmt 0 view .LVU4021
	ldr	r4, [r1, #8]
.LVL800:
	.loc 1 1603 2 is_stmt 1 view .LVU4022
	mov	r1, r3
.LVL801:
	.loc 1 1603 2 is_stmt 0 view .LVU4023
	mov	r0, r4
.LVL802:
	.loc 1 1603 2 view .LVU4024
	bl	tcp_set_seq
.LVL803:
	.loc 1 1604 2 is_stmt 1 view .LVU4025
	.loc 1 1604 12 is_stmt 0 view .LVU4026
	ldrh	r5, [r4, #12]
	.loc 1 1604 6 view .LVU4027
	add	r5, r5, r8
.LVL804:
	.loc 1 1605 2 is_stmt 1 view .LVU4028
	.loc 1 1605 6 is_stmt 0 view .LVU4029
	ldr	r4, [r4]
.LVL805:
	.loc 1 1607 2 is_stmt 1 view .LVU4030
.L408:
	.loc 1 1607 8 view .LVU4031
	cbz	r4, .L419
	.loc 1 1608 3 view .LVU4032
	mov	r1, r5
	mov	r0, r4
	bl	tcp_set_seq
.LVL806:
	.loc 1 1609 3 view .LVU4033
	.loc 1 1609 13 is_stmt 0 view .LVU4034
	ldrh	r2, [r4, #12]
	.loc 1 1609 7 view .LVU4035
	add	r5, r5, r2
.LVL807:
	.loc 1 1610 3 is_stmt 1 view .LVU4036
	.loc 1 1610 7 is_stmt 0 view .LVU4037
	ldr	r4, [r4]
.LVL808:
	.loc 1 1610 7 view .LVU4038
	b	.L408
.L419:
	.loc 1 1613 2 is_stmt 1 view .LVU4039
	.loc 1 1618 2 view .LVU4040
	.loc 1 1618 7 is_stmt 0 view .LVU4041
	ldr	r0, [r6, #12]
.LVL809:
.LBB2600:
.LBI2600:
	.loc 11 976 19 is_stmt 1 view .LVU4042
.LBB2601:
	.loc 11 978 2 view .LVU4043
	.loc 11 978 13 is_stmt 0 view .LVU4044
	ldr	r4, [r0, #8]
.LVL810:
	.loc 11 978 44 view .LVU4045
	cbz	r4, .L415
.LVL811:
.LBB2602:
.LBI2602:
	.loc 11 966 24 is_stmt 1 view .LVU4046
.LBB2603:
	.loc 11 968 2 view .LVU4047
	.loc 11 968 19 is_stmt 0 view .LVU4048
	ldr	r3, [r4, #8]
.LVL812:
	.loc 11 968 19 view .LVU4049
.LBE2603:
.LBE2602:
	.loc 11 978 22 view .LVU4050
	cbz	r3, .L416
	.loc 11 978 58 view .LVU4051
	ldrh	r3, [r4, #12]
	.loc 11 978 44 view .LVU4052
	cbz	r3, .L417
	movs	r3, #0
	b	.L410
.L415:
	movs	r3, #1
.L410:
.LVL813:
	.loc 11 978 44 view .LVU4053
.LBE2601:
.LBE2600:
	.loc 1 1618 5 view .LVU4054
	cbnz	r3, .L411
.LBB2605:
	.loc 1 1622 3 is_stmt 1 view .LVU4055
	.loc 1 1624 3 view .LVU4056
	.loc 1 1624 17 is_stmt 0 view .LVU4057
	mov	r0, r4
	bl	tcp_get_seq
.LVL814:
	.loc 1 1625 3 is_stmt 1 view .LVU4058
	.loc 1 1625 6 is_stmt 0 view .LVU4059
	cmp	r0, r5
	beq	.L420
.LBB2606:
	.loc 1 1632 4 is_stmt 1 view .LVU4060
	.loc 1 1634 4 view .LVU4061
	.loc 1 1634 11 is_stmt 0 view .LVU4062
	mov	r0, r4
.LVL815:
	.loc 1 1634 11 view .LVU4063
	bl	net_buf_frag_last
.LVL816:
	mov	r4, r0
.LVL817:
	.loc 1 1635 4 is_stmt 1 view .LVU4064
	.loc 1 1635 18 is_stmt 0 view .LVU4065
	bl	tcp_get_seq
.LVL818:
	.loc 1 1637 4 is_stmt 1 view .LVU4066
	.loc 1 1637 27 is_stmt 0 view .LVU4067
	ldrh	r3, [r4, #12]
	.loc 1 1637 21 view .LVU4068
	add	r3, r3, r0
	.loc 1 1637 7 view .LVU4069
	cmp	r3, r8
	bne	.L407
	.loc 1 1639 5 is_stmt 1 view .LVU4070
	.loc 1 1639 22 is_stmt 0 view .LVU4071
	ldr	r3, [r7, #8]
	.loc 1 1639 17 view .LVU4072
	str	r3, [r4]
	.loc 1 1640 5 is_stmt 1 view .LVU4073
.LVL819:
	.loc 1 1640 5 is_stmt 0 view .LVU4074
.LBE2606:
.LBE2605:
	.loc 1 1657 2 is_stmt 1 view .LVU4075
	b	.L413
.LVL820:
.L416:
.LBB2607:
.LBB2604:
	.loc 11 978 44 is_stmt 0 view .LVU4076
	movs	r3, #1
	b	.L410
.L417:
	movs	r3, #1
	b	.L410
.LVL821:
.L420:
	.loc 11 978 44 view .LVU4077
.LBE2604:
.LBE2607:
.LBB2608:
	.loc 1 1627 4 is_stmt 1 view .LVU4078
	mov	r1, r4
	ldr	r0, [r7, #8]
.LVL822:
	.loc 1 1627 4 is_stmt 0 view .LVU4079
	bl	net_buf_frag_add
.LVL823:
	.loc 1 1629 4 is_stmt 1 view .LVU4080
	.loc 1 1629 8 is_stmt 0 view .LVU4081
	ldr	r3, [r6, #12]
	.loc 1 1629 39 view .LVU4082
	ldr	r2, [r7, #8]
	.loc 1 1629 34 view .LVU4083
	str	r2, [r3, #8]
	.loc 1 1630 4 is_stmt 1 view .LVU4084
.LVL824:
	.loc 1 1630 4 is_stmt 0 view .LVU4085
.LBE2608:
	.loc 1 1657 2 is_stmt 1 view .LVU4086
	b	.L413
.LVL825:
.L411:
	.loc 1 1653 3 view .LVU4087
	ldr	r1, [r7, #8]
	bl	net_pkt_append_buffer
.LVL826:
	.loc 1 1654 3 view .LVU4088
	.loc 1 1657 2 view .LVU4089
.L413:
	.loc 1 1659 3 view .LVU4090
	.loc 1 1659 15 is_stmt 0 view .LVU4091
	movs	r3, #0
	str	r3, [r7, #8]
	.loc 1 1661 3 is_stmt 1 view .LVU4092
	.loc 1 1661 36 is_stmt 0 view .LVU4093
	adds	r6, r6, #168
.LVL827:
.LBB2609:
.LBI2609:
	.loc 4 3753 19 is_stmt 1 view .LVU4094
.LBB2610:
	.loc 4 3756 2 view .LVU4095
	.loc 4 3756 9 is_stmt 0 view .LVU4096
	mov	r0, r6
	bl	k_work_delayable_busy_get
.LVL828:
	.loc 4 3756 9 view .LVU4097
.LBE2610:
.LBE2609:
	.loc 1 1661 6 view .LVU4098
	cbz	r0, .L421
.LVL829:
.L407:
	.loc 1 1667 1 view .LVU4099
	pop	{r4, r5, r6, r7, r8, pc}
.LVL830:
.L421:
.LBB2611:
	.loc 1 1662 4 is_stmt 1 view .LVU4100
	.loc 1 1662 4 is_stmt 0 view .LVU4101
.LBE2611:
	.loc 10 405 2 is_stmt 1 view .LVU4102
	.loc 10 106 1 view .LVU4103
	.loc 10 108 1 view .LVU4104
	.loc 10 111 2 view .LVU4105
	.loc 10 115 2 view .LVU4106
	.loc 10 117 2 view .LVU4107
	.loc 10 133 2 view .LVU4108
	.loc 10 140 9 view .LVU4109
	.loc 10 141 3 view .LVU4110
	.loc 10 144 4 view .LVU4111
.LBB2612:
	.loc 1 1662 4 is_stmt 0 view .LVU4112
	mov	r2, #1000
	movs	r3, #0
	mov	r1, r6
	ldr	r0, .L422
	bl	k_work_reschedule_for_queue
.LVL831:
	.loc 1 1662 4 view .LVU4113
.LBE2612:
	.loc 1 1667 1 view .LVU4114
	b	.L407
.L423:
	.align	2
.L422:
	.word	.LANCHOR4
	.cfi_endproc
.LFE999:
	.size	tcp_queue_recv_data, .-tcp_queue_recv_data
	.section	.text.tcp_out_of_order_data,"ax",%progbits
	.align	1
	.syntax unified
	.thumb
	.thumb_func
	.fpu fpv4-sp-d16
	.type	tcp_out_of_order_data, %function
tcp_out_of_order_data:
.LVL832:
.LFB1001:
	.loc 1 1685 1 is_stmt 1 view -0
	.cfi_startproc
	@ args = 0, pretend = 0, frame = 0
	@ frame_needed = 0, uses_anonymous_args = 0
	.loc 1 1685 1 is_stmt 0 view .LVU4116
	push	{r3, r4, r6, r7, r8, r9, r10, lr}
	.cfi_def_cfa_offset 32
	.cfi_offset 3, -32
	.cfi_offset 4, -28
	.cfi_offset 6, -24
	.cfi_offset 7, -20
	.cfi_offset 8, -16
	.cfi_offset 9, -12
	.cfi_offset 10, -8
	.cfi_offset 14, -4
	mov	r9, r0
	mov	r7, r1
	mov	r8, r2
	mov	r10, r3
	.loc 1 1686 2 is_stmt 1 view .LVU4117
	.loc 1 1688 2 view .LVU4118
.LVL833:
.LBB2613:
.LBI2613:
	.loc 11 961 22 view .LVU4119
.LBB2614:
	.loc 11 963 2 view .LVU4120
	.loc 11 963 9 is_stmt 0 view .LVU4121
	ldr	r4, [r1, #8]
.LVL834:
.LBB2615:
.LBI2615:
	.loc 2 2465 22 is_stmt 1 view .LVU4122
.LBB2616:
	.loc 2 2467 2 view .LVU4123
	.loc 2 2469 2 view .LVU4124
	.loc 2 2467 9 is_stmt 0 view .LVU4125
	movs	r1, #0
.LVL835:
.L425:
	.loc 2 2469 8 is_stmt 1 view .LVU4126
	cbz	r4, .L429
	.loc 2 2470 3 view .LVU4127
	.loc 2 2470 15 is_stmt 0 view .LVU4128
	ldrh	r6, [r4, #12]
	.loc 2 2470 9 view .LVU4129
	add	r1, r1, r6
.LVL836:
	.loc 2 2471 3 is_stmt 1 view .LVU4130
	.loc 2 2471 7 is_stmt 0 view .LVU4131
	ldr	r4, [r4]
.LVL837:
	.loc 2 2471 7 view .LVU4132
	b	.L425
.L429:
	.loc 2 2474 2 is_stmt 1 view .LVU4133
.LVL838:
	.loc 2 2474 2 is_stmt 0 view .LVU4134
.LBE2616:
.LBE2615:
.LBE2614:
.LBE2613:
	.loc 1 1691 2 is_stmt 1 view .LVU4135
	.loc 1 1691 6 is_stmt 0 view .LVU4136
	sub	r1, r1, r8
.LVL839:
	.loc 1 1691 6 view .LVU4137
	mov	r0, r7
.LVL840:
	.loc 1 1691 6 view .LVU4138
	bl	tcp_pkt_pull
.LVL841:
	.loc 1 1691 5 view .LVU4139
	cmp	r0, #0
	blt	.L424
	.loc 1 1697 2 is_stmt 1 view .LVU4140
	mov	r3, r10
	mov	r2, r8
	mov	r1, r7
	mov	r0, r9
	bl	tcp_queue_recv_data
.LVL842:
.L424:
	.loc 1 1698 1 is_stmt 0 view .LVU4141
	pop	{r3, r4, r6, r7, r8, r9, r10, pc}
	.loc 1 1698 1 view .LVU4142
	.cfi_endproc
.LFE1001:
	.size	tcp_out_of_order_data, .-tcp_out_of_order_data
	.section	.text.net_tcp_unref,"ax",%progbits
	.align	1
	.global	net_tcp_unref
	.syntax unified
	.thumb
	.thumb_func
	.fpu fpv4-sp-d16
	.type	net_tcp_unref, %function
net_tcp_unref:
.LVL843:
.LFB957:
	.loc 1 438 1 is_stmt 1 view -0
	.cfi_startproc
	@ args = 0, pretend = 0, frame = 0
	@ frame_needed = 0, uses_anonymous_args = 0
	.loc 1 439 2 view .LVU4144
	.loc 1 441 2 view .LVU4145
.LBB2617:
	.loc 1 441 7 view .LVU4146
.LBE2617:
	.loc 1 441 146 view .LVU4147
	.loc 1 443 2 view .LVU4148
	.loc 1 443 13 is_stmt 0 view .LVU4149
	ldr	r0, [r0, #80]
.LVL844:
	.loc 1 443 5 view .LVU4150
	cbz	r0, .L432
	.loc 1 438 1 view .LVU4151
	push	{r3, lr}
	.cfi_def_cfa_offset 8
	.cfi_offset 3, -8
	.cfi_offset 14, -4
	.loc 1 444 3 is_stmt 1 view .LVU4152
	.loc 1 444 15 is_stmt 0 view .LVU4153
	bl	tcp_conn_unref
.LVL845:
	.loc 1 448 1 view .LVU4154
	pop	{r3, pc}
.LVL846:
.L432:
	.cfi_def_cfa_offset 0
	.cfi_restore 3
	.cfi_restore 14
	.loc 1 439 6 view .LVU4155
	movs	r0, #0
	.loc 1 447 2 is_stmt 1 view .LVU4156
	.loc 1 448 1 is_stmt 0 view .LVU4157
	bx	lr
	.cfi_endproc
.LFE957:
	.size	net_tcp_unref, .-net_tcp_unref
	.section	.text.net_tcp_get,"ax",%progbits
	.align	1
	.global	net_tcp_get
	.syntax unified
	.thumb
	.thumb_func
	.fpu fpv4-sp-d16
	.type	net_tcp_get, %function
net_tcp_get:
.LVL847:
.LFB987:
	.loc 1 1275 1 is_stmt 1 view -0
	.cfi_startproc
	@ args = 0, pretend = 0, frame = 0
	@ frame_needed = 0, uses_anonymous_args = 0
	.loc 1 1275 1 is_stmt 0 view .LVU4159
	push	{r4, lr}
	.cfi_def_cfa_offset 8
	.cfi_offset 4, -8
	.cfi_offset 14, -4
	mov	r4, r0
	.loc 1 1276 2 is_stmt 1 view .LVU4160
.LVL848:
	.loc 1 1277 2 view .LVU4161
	.loc 1 1279 2 view .LVU4162
.LBB2618:
.LBI2618:
	.loc 6 899 19 view .LVU4163
.LBB2619:
	.loc 6 909 2 view .LVU4164
	.loc 6 909 7 view .LVU4165
	.loc 6 909 55 view .LVU4166
	.loc 6 910 2 view .LVU4167
	.loc 6 910 9 is_stmt 0 view .LVU4168
	mov	r2, #-1
	mov	r3, #-1
	ldr	r0, .L441
.LVL849:
	.loc 6 910 9 view .LVU4169
	bl	z_impl_k_mutex_lock
.LVL850:
	.loc 6 910 9 view .LVU4170
.LBE2619:
.LBE2618:
	.loc 1 1281 2 is_stmt 1 view .LVU4171
	.loc 1 1281 9 is_stmt 0 view .LVU4172
	bl	tcp_conn_alloc
.LVL851:
	.loc 1 1282 2 is_stmt 1 view .LVU4173
	.loc 1 1282 5 is_stmt 0 view .LVU4174
	cbz	r0, .L439
	.loc 1 1288 2 is_stmt 1 view .LVU4175
	.loc 1 1288 16 is_stmt 0 view .LVU4176
	str	r4, [r0, #4]
	.loc 1 1289 2 is_stmt 1 view .LVU4177
	.loc 1 1289 15 is_stmt 0 view .LVU4178
	str	r0, [r4, #80]
	.loc 1 1276 6 view .LVU4179
	movs	r4, #0
.LVL852:
.L438:
	.loc 1 1291 2 is_stmt 1 view .LVU4180
.LBB2620:
.LBI2620:
	.loc 6 917 19 view .LVU4181
.LBB2621:
	.loc 6 925 2 view .LVU4182
	.loc 6 925 7 view .LVU4183
	.loc 6 925 55 view .LVU4184
	.loc 6 926 2 view .LVU4185
	.loc 6 926 9 is_stmt 0 view .LVU4186
	ldr	r0, .L441
.LVL853:
	.loc 6 926 9 view .LVU4187
	bl	z_impl_k_mutex_unlock
.LVL854:
	.loc 6 926 9 view .LVU4188
.LBE2621:
.LBE2620:
	.loc 1 1293 2 is_stmt 1 view .LVU4189
	.loc 1 1294 1 is_stmt 0 view .LVU4190
	mov	r0, r4
	pop	{r4, pc}
.LVL855:
.L439:
	.loc 1 1283 7 view .LVU4191
	mvn	r4, #11
.LVL856:
	.loc 1 1283 7 view .LVU4192
	b	.L438
.L442:
	.align	2
.L441:
	.word	.LANCHOR0
	.cfi_endproc
.LFE987:
	.size	net_tcp_get, .-net_tcp_get
	.section	.text.net_tcp_listen,"ax",%progbits
	.align	1
	.global	net_tcp_listen
	.syntax unified
	.thumb
	.thumb_func
	.fpu fpv4-sp-d16
	.type	net_tcp_listen, %function
net_tcp_listen:
.LVL857:
.LFB1004:
	.loc 1 2140 1 is_stmt 1 view -0
	.cfi_startproc
	@ args = 0, pretend = 0, frame = 0
	@ frame_needed = 0, uses_anonymous_args = 0
	@ link register save eliminated.
	.loc 1 2142 2 view .LVU4194
.LBB2622:
.LBI2622:
	.loc 15 447 20 view .LVU4195
.LBB2623:
	.loc 15 450 4 view .LVU4196
	.loc 15 450 5 view .LVU4197
	.loc 15 452 2 view .LVU4198
	.loc 15 452 17 is_stmt 0 view .LVU4199
	ldrh	r3, [r0, #112]
	bic	r3, r3, #6
	uxth	r3, r3
	.loc 15 453 2 is_stmt 1 view .LVU4200
	.loc 15 453 17 is_stmt 0 view .LVU4201
	orr	r3, r3, #6
	strh	r3, [r0, #112]	@ movhi
.LVL858:
	.loc 15 453 17 view .LVU4202
.LBE2623:
.LBE2622:
	.loc 1 2144 2 is_stmt 1 view .LVU4203
	.loc 1 2145 1 is_stmt 0 view .LVU4204
	movs	r0, #0
.LVL859:
	.loc 1 2145 1 view .LVU4205
	bx	lr
	.cfi_endproc
.LFE1004:
	.size	net_tcp_listen, .-net_tcp_listen
	.section	.text.net_tcp_update_recv_wnd,"ax",%progbits
	.align	1
	.global	net_tcp_update_recv_wnd
	.syntax unified
	.thumb
	.thumb_func
	.fpu fpv4-sp-d16
	.type	net_tcp_update_recv_wnd, %function
net_tcp_update_recv_wnd:
.LVL860:
.LFB1005:
	.loc 1 2148 1 is_stmt 1 view -0
	.cfi_startproc
	@ args = 0, pretend = 0, frame = 0
	@ frame_needed = 0, uses_anonymous_args = 0
	@ link register save eliminated.
	.loc 1 2149 2 view .LVU4207
	.loc 1 2150 2 view .LVU4208
	.loc 1 2152 2 view .LVU4209
	.loc 1 2153 1 is_stmt 0 view .LVU4210
	mvn	r0, #122
.LVL861:
	.loc 1 2153 1 view .LVU4211
	bx	lr
	.cfi_endproc
.LFE1005:
	.size	net_tcp_update_recv_wnd, .-net_tcp_update_recv_wnd
	.section	.text.net_tcp_send_data,"ax",%progbits
	.align	1
	.global	net_tcp_send_data
	.syntax unified
	.thumb
	.thumb_func
	.fpu fpv4-sp-d16
	.type	net_tcp_send_data, %function
net_tcp_send_data:
.LVL862:
.LFB1007:
	.loc 1 2246 1 is_stmt 1 view -0
	.cfi_startproc
	@ args = 0, pretend = 0, frame = 0
	@ frame_needed = 0, uses_anonymous_args = 0
	.loc 1 2247 2 view .LVU4213
	.loc 1 2247 5 is_stmt 0 view .LVU4214
	cbz	r1, .L448
	.loc 1 2246 1 view .LVU4215
	push	{r3, lr}
	.cfi_def_cfa_offset 8
	.cfi_offset 3, -8
	.cfi_offset 14, -4
	mov	r3, r1
	.loc 1 2248 3 is_stmt 1 view .LVU4216
	movs	r1, #0
.LVL863:
	.loc 1 2248 3 is_stmt 0 view .LVU4217
	blx	r3
.LVL864:
	.loc 1 2251 2 is_stmt 1 view .LVU4218
	.loc 1 2252 1 is_stmt 0 view .LVU4219
	movs	r0, #0
	pop	{r3, pc}
.LVL865:
.L448:
	.cfi_def_cfa_offset 0
	.cfi_restore 3
	.cfi_restore 14
	.loc 1 2251 2 is_stmt 1 view .LVU4220
	.loc 1 2252 1 is_stmt 0 view .LVU4221
	movs	r0, #0
.LVL866:
	.loc 1 2252 1 view .LVU4222
	bx	lr
	.cfi_endproc
.LFE1007:
	.size	net_tcp_send_data, .-net_tcp_send_data
	.section	.text.net_tcp_accept,"ax",%progbits
	.align	1
	.global	net_tcp_accept
	.syntax unified
	.thumb
	.thumb_func
	.fpu fpv4-sp-d16
	.type	net_tcp_accept, %function
net_tcp_accept:
.LVL867:
.LFB1009:
	.loc 1 2375 1 is_stmt 1 view -0
	.cfi_startproc
	@ args = 0, pretend = 0, frame = 40
	@ frame_needed = 0, uses_anonymous_args = 0
	.loc 1 2375 1 is_stmt 0 view .LVU4224
	push	{r4, r5, r6, r7, lr}
	.cfi_def_cfa_offset 20
	.cfi_offset 4, -20
	.cfi_offset 5, -16
	.cfi_offset 6, -12
	.cfi_offset 7, -8
	.cfi_offset 14, -4
	sub	sp, sp, #68
	.cfi_def_cfa_offset 88
	mov	r4, r0
	.loc 1 2376 2 is_stmt 1 view .LVU4225
	.loc 1 2376 14 is_stmt 0 view .LVU4226
	ldr	r0, [r0, #80]
.LVL868:
	.loc 1 2377 2 is_stmt 1 view .LVU4227
	.loc 1 2377 18 is_stmt 0 view .LVU4228
	movs	r3, #0
	str	r3, [sp, #24]
	str	r3, [sp, #28]
	str	r3, [sp, #32]
	str	r3, [sp, #36]
	str	r3, [sp, #40]
	str	r3, [sp, #44]
	.loc 1 2378 2 is_stmt 1 view .LVU4229
	.loc 1 2380 2 view .LVU4230
	.loc 1 2380 5 is_stmt 0 view .LVU4231
	cmp	r0, #0
	beq	.L459
	mov	r7, r2
	.loc 1 2384 2 is_stmt 1 view .LVU4232
.LBB2624:
	.loc 1 2384 7 view .LVU4233
.LBE2624:
	.loc 1 2384 149 view .LVU4234
	.loc 1 2386 2 view .LVU4235
	.loc 1 2386 10 is_stmt 0 view .LVU4236
	ldrb	r3, [r0, #424]	@ zero_extendqisi2
	.loc 1 2386 5 view .LVU4237
	cmp	r3, #1
	bne	.L460
	.loc 1 2390 2 is_stmt 1 view .LVU4238
	.loc 1 2390 18 is_stmt 0 view .LVU4239
	str	r1, [r0, #32]
	.loc 1 2391 2 is_stmt 1 view .LVU4240
.LVL869:
.LBB2625:
.LBI2625:
	.loc 15 467 27 view .LVU4241
.LBB2626:
	.loc 15 469 4 view .LVU4242
	.loc 15 469 5 view .LVU4243
	.loc 15 471 2 view .LVU4244
	.loc 15 471 18 is_stmt 0 view .LVU4245
	ldrh	r3, [r4, #112]
	.loc 15 471 74 view .LVU4246
	ubfx	r3, r3, #3, #3
.LVL870:
	.loc 15 471 74 view .LVU4247
.LBE2626:
.LBE2625:
	.loc 1 2391 23 view .LVU4248
	strh	r3, [sp, #24]	@ movhi
	.loc 1 2393 2 is_stmt 1 view .LVU4249
	cmp	r3, #1
	beq	.L453
	cmp	r3, #2
	beq	.L454
	mvn	r0, #21
.LVL871:
	.loc 1 2393 2 is_stmt 0 view .LVU4250
	b	.L451
.LVL872:
.L453:
.LBB2627:
	.loc 1 2394 3 is_stmt 1 view .LVU4251
	.loc 1 2395 3 view .LVU4252
	.loc 1 2398 3 view .LVU4253
	.loc 1 2400 3 view .LVU4254
	.loc 1 2400 3 is_stmt 0 view .LVU4255
.LBE2627:
	.loc 3 1406 2 is_stmt 1 view .LVU4256
.LBB2636:
	.loc 1 2400 35 is_stmt 0 view .LVU4257
	ldr	r3, [r4, #32]
	.loc 1 2400 6 view .LVU4258
	cbz	r3, .L455
	.loc 1 2401 4 is_stmt 1 view .LVU4259
.LBB2628:
	.loc 1 2401 9 view .LVU4260
.LVL873:
	.loc 1 2401 122 view .LVU4261
.LBB2629:
	.loc 1 2401 151 view .LVU4262
	.loc 1 2401 151 is_stmt 0 view .LVU4263
.LBE2629:
.LBE2628:
.LBE2636:
	.loc 3 1406 2 is_stmt 1 view .LVU4264
.LBB2637:
.LBB2631:
.LBB2630:
	.loc 1 2401 316 view .LVU4265
	.loc 1 2401 319 is_stmt 0 view .LVU4266
	ldr	r3, [r3]	@ unaligned
.LVL874:
	.loc 1 2401 319 view .LVU4267
.LBE2630:
	.loc 1 2401 131 view .LVU4268
	str	r3, [sp, #28]
	.loc 1 2401 331 is_stmt 1 view .LVU4269
	.loc 1 2401 336 view .LVU4270
.LVL875:
.L455:
	.loc 1 2401 384 discriminator 1 view .LVU4271
.LBE2631:
	.loc 1 2401 14 discriminator 1 view .LVU4272
	.loc 1 2405 3 discriminator 1 view .LVU4273
	.loc 1 2405 3 is_stmt 0 discriminator 1 view .LVU4274
.LBE2637:
	.loc 3 1378 2 is_stmt 1 discriminator 1 view .LVU4275
.LBB2638:
	.loc 1 2406 47 is_stmt 0 discriminator 1 view .LVU4276
	ldrh	r3, [r4, #30]
	.loc 1 2405 16 discriminator 1 view .LVU4277
	strh	r3, [sp, #26]	@ movhi
	.loc 1 2407 3 is_stmt 1 discriminator 1 view .LVU4278
	.loc 1 2407 60 is_stmt 0 discriminator 1 view .LVU4279
	lsrs	r6, r3, #8
	orr	r6, r6, r3, lsl #8
	.loc 1 2407 14 discriminator 1 view .LVU4280
	uxth	r6, r6
.LVL876:
	.loc 1 2408 3 is_stmt 1 discriminator 1 view .LVU4281
	.loc 1 2408 3 is_stmt 0 discriminator 1 view .LVU4282
.LBE2638:
	.loc 3 1378 2 is_stmt 1 discriminator 1 view .LVU4283
.LBB2639:
	.loc 1 2408 58 is_stmt 0 discriminator 1 view .LVU4284
	ldrh	r3, [r4, #42]
.LVL877:
	.loc 1 2408 58 discriminator 1 view .LVU4285
.LBE2639:
	.loc 3 1378 2 is_stmt 1 discriminator 1 view .LVU4286
.LBB2640:
	.loc 1 2408 84 is_stmt 0 discriminator 1 view .LVU4287
	lsls	r5, r3, #8
	orr	r5, r5, r3, lsr #8
	.loc 1 2408 15 discriminator 1 view .LVU4288
	uxth	r5, r5
.LVL878:
	.loc 1 2410 3 is_stmt 1 discriminator 1 view .LVU4289
.L456:
	.loc 1 2410 3 is_stmt 0 discriminator 1 view .LVU4290
.LBE2640:
	.loc 1 2431 2 is_stmt 1 view .LVU4291
	.loc 1 2431 21 is_stmt 0 view .LVU4292
	str	r7, [r4]
	.loc 1 2436 2 is_stmt 1 view .LVU4293
	ldr	r0, [r4, #64]
	bl	net_conn_unregister
.LVL879:
	.loc 1 2438 2 view .LVU4294
.LBB2641:
.LBI2641:
	.loc 15 601 24 view .LVU4295
.LBB2642:
	.loc 15 603 2 view .LVU4296
	.loc 15 603 16 is_stmt 0 view .LVU4297
	ldrh	r0, [r4, #110]
.LVL880:
	.loc 15 603 16 view .LVU4298
.LBE2642:
.LBE2641:
	.loc 1 2438 9 view .LVU4299
	ldrb	r1, [sp, #24]	@ zero_extendqisi2
	.loc 1 2440 13 view .LVU4300
	ldrh	r3, [r4, #112]
	.loc 1 2438 9 view .LVU4301
	tst	r3, #256
	beq	.L461
	.loc 1 2438 9 discriminator 1 view .LVU4302
	add	r2, r4, #40
.L458:
	.loc 1 2438 9 discriminator 4 view .LVU4303
	add	r3, r4, #64
	str	r3, [sp, #20]
	str	r4, [sp, #16]
	ldr	r3, .L463
	str	r3, [sp, #12]
	str	r4, [sp, #8]
	str	r6, [sp, #4]
	str	r5, [sp]
	add	r3, sp, #24
	bl	net_conn_register
.LVL881:
.L451:
	.loc 1 2446 1 view .LVU4304
	add	sp, sp, #68
	.cfi_remember_state
	.cfi_def_cfa_offset 20
	@ sp needed
	pop	{r4, r5, r6, r7, pc}
.LVL882:
.L454:
	.cfi_restore_state
.LBB2643:
	.loc 1 2413 3 is_stmt 1 view .LVU4305
	.loc 1 2415 3 view .LVU4306
	.loc 1 2415 3 is_stmt 0 view .LVU4307
.LBE2643:
	.loc 3 1392 2 is_stmt 1 view .LVU4308
.LBB2644:
	.loc 1 2415 36 is_stmt 0 view .LVU4309
	ldr	r3, [r4, #32]
	.loc 1 2415 6 view .LVU4310
	cbz	r3, .L457
	.loc 1 2416 4 is_stmt 1 view .LVU4311
.LBB2632:
	.loc 1 2416 9 view .LVU4312
.LVL883:
	.loc 1 2416 126 view .LVU4313
.LBB2633:
	.loc 1 2416 155 view .LVU4314
	.loc 1 2416 155 is_stmt 0 view .LVU4315
.LBE2633:
.LBE2632:
.LBE2644:
	.loc 3 1392 2 is_stmt 1 view .LVU4316
.LBB2645:
.LBB2635:
.LBB2634:
	.loc 1 2416 324 view .LVU4317
	.loc 1 2416 327 is_stmt 0 view .LVU4318
	add	r5, sp, #48
	ldr	r0, [r3]	@ unaligned
.LVL884:
	.loc 1 2416 327 view .LVU4319
	ldr	r1, [r3, #4]	@ unaligned
.LVL885:
	.loc 1 2416 327 view .LVU4320
	ldr	r2, [r3, #8]	@ unaligned
.LVL886:
	.loc 1 2416 327 view .LVU4321
	ldr	r3, [r3, #12]	@ unaligned
.LVL887:
	.loc 1 2416 327 view .LVU4322
	stmia	r5!, {r0, r1, r2, r3}
.LBE2634:
	.loc 1 2416 135 view .LVU4323
	add	r5, sp, #28
.LVL888:
	.loc 1 2416 135 view .LVU4324
	add	r3, sp, #64
	ldmdb	r3, {r0, r1, r2, r3}
	stm	r5, {r0, r1, r2, r3}
	.loc 1 2416 339 is_stmt 1 view .LVU4325
	.loc 1 2416 344 view .LVU4326
.LVL889:
.L457:
	.loc 1 2416 392 discriminator 1 view .LVU4327
.LBE2635:
	.loc 1 2416 14 discriminator 1 view .LVU4328
	.loc 1 2420 3 discriminator 1 view .LVU4329
	.loc 1 2420 3 is_stmt 0 discriminator 1 view .LVU4330
.LBE2645:
	.loc 3 1365 2 is_stmt 1 discriminator 1 view .LVU4331
.LBB2646:
	.loc 1 2421 48 is_stmt 0 discriminator 1 view .LVU4332
	ldrh	r3, [r4, #30]
	.loc 1 2420 18 discriminator 1 view .LVU4333
	strh	r3, [sp, #26]	@ movhi
	.loc 1 2422 3 is_stmt 1 discriminator 1 view .LVU4334
	.loc 1 2422 62 is_stmt 0 discriminator 1 view .LVU4335
	lsrs	r6, r3, #8
	orr	r6, r6, r3, lsl #8
	.loc 1 2422 14 discriminator 1 view .LVU4336
	uxth	r6, r6
.LVL890:
	.loc 1 2423 3 is_stmt 1 discriminator 1 view .LVU4337
	.loc 1 2423 3 is_stmt 0 discriminator 1 view .LVU4338
.LBE2646:
	.loc 3 1365 2 is_stmt 1 discriminator 1 view .LVU4339
.LBB2647:
	.loc 1 2423 59 is_stmt 0 discriminator 1 view .LVU4340
	ldrh	r3, [r4, #42]
.LVL891:
	.loc 1 2423 59 discriminator 1 view .LVU4341
.LBE2647:
	.loc 3 1365 2 is_stmt 1 discriminator 1 view .LVU4342
.LBB2648:
	.loc 1 2423 86 is_stmt 0 discriminator 1 view .LVU4343
	lsls	r5, r3, #8
	orr	r5, r5, r3, lsr #8
	.loc 1 2423 15 discriminator 1 view .LVU4344
	uxth	r5, r5
.LVL892:
	.loc 1 2425 3 is_stmt 1 discriminator 1 view .LVU4345
	b	.L456
.LVL893:
.L461:
	.loc 1 2425 3 is_stmt 0 discriminator 1 view .LVU4346
.LBE2648:
	.loc 1 2438 9 view .LVU4347
	movs	r2, #0
	b	.L458
.LVL894:
.L459:
	.loc 1 2381 10 view .LVU4348
	mvn	r0, #21
.LVL895:
	.loc 1 2381 10 view .LVU4349
	b	.L451
.LVL896:
.L460:
	.loc 1 2387 10 view .LVU4350
	mvn	r0, #21
.LVL897:
	.loc 1 2387 10 view .LVU4351
	b	.L451
.L464:
	.align	2
.L463:
	.word	tcp_recv
	.cfi_endproc
.LFE1009:
	.size	net_tcp_accept, .-net_tcp_accept
	.section	.text.net_tcp_recv,"ax",%progbits
	.align	1
	.global	net_tcp_recv
	.syntax unified
	.thumb
	.thumb_func
	.fpu fpv4-sp-d16
	.type	net_tcp_recv, %function
net_tcp_recv:
.LVL898:
.LFB1010:
	.loc 1 2450 1 is_stmt 1 view -0
	.cfi_startproc
	@ args = 0, pretend = 0, frame = 0
	@ frame_needed = 0, uses_anonymous_args = 0
	@ link register save eliminated.
	.loc 1 2451 2 view .LVU4353
	.loc 1 2451 14 is_stmt 0 view .LVU4354
	ldr	r3, [r0, #80]
.LVL899:
	.loc 1 2453 2 is_stmt 1 view .LVU4355
.LBB2649:
	.loc 1 2453 7 view .LVU4356
.LBE2649:
	.loc 1 2453 160 view .LVU4357
	.loc 1 2455 2 view .LVU4358
	.loc 1 2455 19 is_stmt 0 view .LVU4359
	str	r1, [r0, #68]
	.loc 1 2457 2 is_stmt 1 view .LVU4360
	.loc 1 2457 5 is_stmt 0 view .LVU4361
	cbz	r3, .L466
	.loc 1 2458 3 is_stmt 1 view .LVU4362
	.loc 1 2458 24 is_stmt 0 view .LVU4363
	str	r2, [r3, #20]
.L466:
	.loc 1 2461 2 is_stmt 1 view .LVU4364
	.loc 1 2462 1 is_stmt 0 view .LVU4365
	movs	r0, #0
.LVL900:
	.loc 1 2462 1 view .LVU4366
	bx	lr
	.cfi_endproc
.LFE1010:
	.size	net_tcp_recv, .-net_tcp_recv
	.section	.text.net_tcp_finalize,"ax",%progbits
	.align	1
	.global	net_tcp_finalize
	.syntax unified
	.thumb
	.thumb_func
	.fpu fpv4-sp-d16
	.type	net_tcp_finalize, %function
net_tcp_finalize:
.LVL901:
.LFB1011:
	.loc 1 2465 1 is_stmt 1 view -0
	.cfi_startproc
	@ args = 0, pretend = 0, frame = 32
	@ frame_needed = 0, uses_anonymous_args = 0
	.loc 1 2465 1 is_stmt 0 view .LVU4368
	push	{r4, r5, lr}
	.cfi_def_cfa_offset 12
	.cfi_offset 4, -12
	.cfi_offset 5, -8
	.cfi_offset 14, -4
	sub	sp, sp, #36
	.cfi_def_cfa_offset 48
	mov	r4, r0
	.loc 1 2466 2 is_stmt 1 view .LVU4369
	.loc 1 2466 38 view .LVU4370
	.loc 1 2466 65 is_stmt 0 view .LVU4371
	add	r3, sp, #12
	str	r3, [sp, #4]
	movs	r3, #20
	str	r3, [sp, #8]
	.loc 1 2467 2 is_stmt 1 view .LVU4372
	.loc 1 2469 2 view .LVU4373
	.loc 1 2469 34 is_stmt 0 view .LVU4374
	add	r1, sp, #4
	bl	net_pkt_get_data
.LVL902:
	.loc 1 2470 2 is_stmt 1 view .LVU4375
	.loc 1 2470 5 is_stmt 0 view .LVU4376
	cbz	r0, .L470
	mov	r5, r0
	.loc 1 2474 2 is_stmt 1 view .LVU4377
	.loc 1 2474 18 is_stmt 0 view .LVU4378
	movs	r3, #0
	strb	r3, [r0, #16]
	strb	r3, [r0, #17]
	.loc 1 2476 2 is_stmt 1 view .LVU4379
.LVL903:
.LBB2650:
.LBI2650:
	.loc 11 293 30 view .LVU4380
.LBB2651:
	.loc 11 295 2 view .LVU4381
	.loc 11 295 2 is_stmt 0 view .LVU4382
.LBE2651:
.LBE2650:
	.loc 1 2476 6 view .LVU4383
	ldr	r0, [r4, #24]
.LVL904:
	.loc 1 2476 6 view .LVU4384
	bl	net_if_need_calc_tx_checksum
.LVL905:
	.loc 1 2476 5 view .LVU4385
	cbnz	r0, .L472
.L469:
	.loc 1 2480 2 is_stmt 1 view .LVU4386
	.loc 1 2480 9 is_stmt 0 view .LVU4387
	add	r1, sp, #4
	mov	r0, r4
	bl	net_pkt_set_data
.LVL906:
.L467:
	.loc 1 2481 1 view .LVU4388
	add	sp, sp, #36
	.cfi_remember_state
	.cfi_def_cfa_offset 12
	@ sp needed
	pop	{r4, r5, pc}
.LVL907:
.L472:
	.cfi_restore_state
	.loc 1 2477 3 is_stmt 1 view .LVU4389
.LBB2652:
.LBI2652:
	.file 17 "/home/sebin/thesis/zephyrproject/zephyr/subsys/net/ip/net_private.h"
	.loc 17 201 24 view .LVU4390
.LBB2653:
	.loc 17 203 2 view .LVU4391
	.loc 17 203 9 is_stmt 0 view .LVU4392
	movs	r1, #6
	mov	r0, r4
	bl	net_calc_chksum
.LVL908:
	.loc 17 203 9 view .LVU4393
.LBE2653:
.LBE2652:
	.loc 1 2477 19 view .LVU4394
	strh	r0, [r5, #16]	@ unaligned
	b	.L469
.LVL909:
.L470:
	.loc 1 2471 10 view .LVU4395
	mvn	r0, #104
.LVL910:
	.loc 1 2471 10 view .LVU4396
	b	.L467
	.cfi_endproc
.LFE1011:
	.size	net_tcp_finalize, .-net_tcp_finalize
	.section	.text.net_tcp_input,"ax",%progbits
	.align	1
	.global	net_tcp_input
	.syntax unified
	.thumb
	.thumb_func
	.fpu fpv4-sp-d16
	.type	net_tcp_input, %function
net_tcp_input:
.LVL911:
.LFB1012:
	.loc 1 2485 1 is_stmt 1 view -0
	.cfi_startproc
	@ args = 0, pretend = 0, frame = 0
	@ frame_needed = 0, uses_anonymous_args = 0
	.loc 1 2485 1 is_stmt 0 view .LVU4398
	push	{r4, r5, r6, lr}
	.cfi_def_cfa_offset 16
	.cfi_offset 4, -16
	.cfi_offset 5, -12
	.cfi_offset 6, -8
	.cfi_offset 14, -4
	mov	r4, r0
	mov	r5, r1
	.loc 1 2486 2 is_stmt 1 view .LVU4399
	.loc 1 2488 2 view .LVU4400
.LVL912:
.LBB2654:
.LBI2654:
	.loc 11 293 30 view .LVU4401
.LBB2655:
	.loc 11 295 2 view .LVU4402
	.loc 11 295 2 is_stmt 0 view .LVU4403
.LBE2655:
.LBE2654:
	.loc 1 2489 6 view .LVU4404
	ldr	r0, [r0, #24]
.LVL913:
	.loc 1 2489 6 view .LVU4405
	bl	net_if_need_calc_rx_checksum
.LVL914:
	.loc 1 2488 5 view .LVU4406
	cbz	r0, .L474
.LVL915:
.LBB2656:
.LBI2656:
	.loc 17 201 24 is_stmt 1 view .LVU4407
.LBB2657:
	.loc 17 203 2 view .LVU4408
	.loc 17 203 9 is_stmt 0 view .LVU4409
	movs	r1, #6
	mov	r0, r4
	bl	net_calc_chksum
.LVL916:
	.loc 17 203 9 view .LVU4410
.LBE2657:
.LBE2656:
	.loc 1 2489 55 view .LVU4411
	cbnz	r0, .L475
.L474:
	.loc 1 2495 2 is_stmt 1 view .LVU4412
	.loc 1 2495 34 is_stmt 0 view .LVU4413
	mov	r1, r5
	mov	r0, r4
	bl	net_pkt_get_data
.LVL917:
	.loc 1 2496 2 is_stmt 1 view .LVU4414
	.loc 1 2496 5 is_stmt 0 view .LVU4415
	mov	r6, r0
	cbz	r0, .L475
	.loc 1 2496 18 discriminator 1 view .LVU4416
	mov	r1, r5
	mov	r0, r4
.LVL918:
	.loc 1 2496 18 discriminator 1 view .LVU4417
	bl	net_pkt_set_data
.LVL919:
	.loc 1 2496 14 discriminator 1 view .LVU4418
	cbz	r0, .L473
.LVL920:
.L475:
	.loc 1 2501 2 is_stmt 1 view .LVU4419
.LBB2658:
.LBI2658:
	.loc 11 293 30 view .LVU4420
.LBB2659:
	.loc 11 295 2 view .LVU4421
	.loc 11 295 12 is_stmt 0 view .LVU4422
	ldr	r2, [r4, #24]
.LVL921:
	.loc 11 295 12 view .LVU4423
.LBE2659:
.LBE2658:
.LBB2660:
.LBI2660:
	.loc 16 242 20 is_stmt 1 view .LVU4424
.LBB2661:
	.loc 16 244 6 view .LVU4425
	.loc 16 244 7 view .LVU4426
	.loc 16 244 9 view .LVU4427
	.loc 16 244 24 is_stmt 0 view .LVU4428
	ldr	r1, .L478
	ldr	r3, [r1, #116]
	.loc 16 244 31 view .LVU4429
	adds	r3, r3, #1
	str	r3, [r1, #116]
	.loc 16 244 37 is_stmt 1 view .LVU4430
	.loc 16 244 54 is_stmt 0 view .LVU4431
	ldr	r3, [r2, #124]
	.loc 16 244 61 view .LVU4432
	adds	r3, r3, #1
	str	r3, [r2, #124]
	.loc 16 244 67 is_stmt 1 view .LVU4433
.LVL922:
	.loc 16 244 67 is_stmt 0 view .LVU4434
.LBE2661:
.LBE2660:
	.loc 1 2502 2 is_stmt 1 view .LVU4435
	.loc 1 2502 8 is_stmt 0 view .LVU4436
	movs	r6, #0
.L473:
	.loc 1 2503 1 view .LVU4437
	mov	r0, r6
	pop	{r4, r5, r6, pc}
.LVL923:
.L479:
	.loc 1 2503 1 view .LVU4438
	.align	2
.L478:
	.word	net_stats
	.cfi_endproc
.LFE1012:
	.size	net_tcp_input, .-net_tcp_input
	.section	.text.net_tcp_foreach,"ax",%progbits
	.align	1
	.global	net_tcp_foreach
	.syntax unified
	.thumb
	.thumb_func
	.fpu fpv4-sp-d16
	.type	net_tcp_foreach, %function
net_tcp_foreach:
.LVL924:
.LFB1013:
	.loc 1 2756 1 is_stmt 1 view -0
	.cfi_startproc
	@ args = 0, pretend = 0, frame = 0
	@ frame_needed = 0, uses_anonymous_args = 0
	.loc 1 2756 1 is_stmt 0 view .LVU4440
	push	{r4, r5, r6, r7, r8, lr}
	.cfi_def_cfa_offset 24
	.cfi_offset 4, -24
	.cfi_offset 5, -20
	.cfi_offset 6, -16
	.cfi_offset 7, -12
	.cfi_offset 8, -8
	.cfi_offset 14, -4
	mov	r7, r0
	mov	r8, r1
	.loc 1 2757 2 is_stmt 1 view .LVU4441
	.loc 1 2758 2 view .LVU4442
	.loc 1 2760 2 view .LVU4443
.LVL925:
.LBB2662:
.LBI2662:
	.loc 6 899 19 view .LVU4444
.LBB2663:
	.loc 6 909 2 view .LVU4445
	.loc 6 909 7 view .LVU4446
	.loc 6 909 55 view .LVU4447
	.loc 6 910 2 view .LVU4448
	.loc 6 910 9 is_stmt 0 view .LVU4449
	mov	r2, #-1
	mov	r3, #-1
	ldr	r0, .L490
.LVL926:
	.loc 6 910 9 view .LVU4450
	bl	z_impl_k_mutex_lock
.LVL927:
	.loc 6 910 9 view .LVU4451
.LBE2663:
.LBE2662:
	.loc 1 2762 2 is_stmt 1 view .LVU4452
.LBB2664:
.LBI2664:
	.loc 5 231 28 view .LVU4453
.LBB2665:
	.loc 5 233 2 view .LVU4454
	.loc 5 233 13 is_stmt 0 view .LVU4455
	ldr	r3, .L490+4
	ldr	r5, [r3]
.LVL928:
	.loc 5 233 13 view .LVU4456
.LBE2665:
.LBE2664:
	.loc 1 2762 4 view .LVU4457
	cbz	r5, .L486
.LVL929:
	.loc 5 233 2 is_stmt 1 discriminator 5 view .LVU4458
	.loc 1 2762 22 is_stmt 0 discriminator 5 view .LVU4459
	mov	r4, r5
.LVL930:
.LBB2666:
.LBI2666:
	.loc 5 285 29 is_stmt 1 discriminator 5 view .LVU4460
.LBB2667:
	.loc 5 285 70 discriminator 5 view .LVU4461
	.loc 5 285 38 is_stmt 0 discriminator 5 view .LVU4462
	cbz	r5, .L484
.LVL931:
.LBB2668:
.LBI2668:
	.loc 5 274 29 is_stmt 1 view .LVU4463
.LBE2668:
.LBE2667:
.LBE2666:
	.loc 5 274 79 view .LVU4464
.LBB2673:
.LBB2672:
.LBB2671:
.LBB2669:
.LBI2669:
	.loc 5 204 28 view .LVU4465
.LBB2670:
	.loc 5 206 2 view .LVU4466
