	.cpu cortex-m4
	.eabi_attribute 27, 1
	.eabi_attribute 28, 1
	.eabi_attribute 20, 1
	.eabi_attribute 21, 1
	.eabi_attribute 23, 3
	.eabi_attribute 24, 1
	.eabi_attribute 25, 1
	.eabi_attribute 26, 1
	.eabi_attribute 30, 1
	.eabi_attribute 34, 1
	.eabi_attribute 38, 1
	.eabi_attribute 18, 4
	.file	"udp.c"
	.text
.Ltext0:
	.cfi_sections	.debug_frame
	.section	.text.net_udp_create,"ax",%progbits
	.align	1
	.global	net_udp_create
	.arch armv7e-m
	.syntax unified
	.thumb
	.thumb_func
	.fpu fpv4-sp-d16
	.type	net_udp_create, %function
net_udp_create:
.LVL0:
.LFB932:
	.file 1 "/home/sebin/thesis/zephyrproject/zephyr/subsys/net/ip/udp.c"
	.loc 1 21 1 view -0
	.cfi_startproc
	@ args = 0, pretend = 0, frame = 16
	@ frame_needed = 0, uses_anonymous_args = 0
	.loc 1 21 1 is_stmt 0 view .LVU1
	push	{r4, r5, r6, lr}
	.cfi_def_cfa_offset 16
	.cfi_offset 4, -16
	.cfi_offset 5, -12
	.cfi_offset 6, -8
	.cfi_offset 14, -4
	sub	sp, sp, #16
	.cfi_def_cfa_offset 32
	mov	r4, r0
	mov	r6, r1
	mov	r5, r2
	.loc 1 22 2 is_stmt 1 view .LVU2
	.loc 1 22 38 view .LVU3
	.loc 1 22 65 is_stmt 0 view .LVU4
	add	r3, sp, #8
	str	r3, [sp]
	movs	r3, #8
	str	r3, [sp, #4]
	.loc 1 23 2 is_stmt 1 view .LVU5
	.loc 1 25 2 view .LVU6
	.loc 1 25 34 is_stmt 0 view .LVU7
	mov	r1, sp
.LVL1:
	.loc 1 25 34 view .LVU8
	bl	net_pkt_get_data
.LVL2:
	.loc 1 26 2 is_stmt 1 view .LVU9
	.loc 1 26 5 is_stmt 0 view .LVU10
	cbz	r0, .L3
	.loc 1 30 2 is_stmt 1 view .LVU11
	.loc 1 30 20 is_stmt 0 view .LVU12
	strh	r6, [r0]	@ unaligned
	.loc 1 31 2 is_stmt 1 view .LVU13
	.loc 1 31 20 is_stmt 0 view .LVU14
	strh	r5, [r0, #2]	@ unaligned
	.loc 1 32 2 is_stmt 1 view .LVU15
	.loc 1 32 15 is_stmt 0 view .LVU16
	movs	r2, #0
	strb	r2, [r0, #4]
	strb	r2, [r0, #5]
	.loc 1 33 2 is_stmt 1 view .LVU17
	.loc 1 33 18 is_stmt 0 view .LVU18
	strb	r2, [r0, #6]
	strb	r2, [r0, #7]
	.loc 1 35 2 is_stmt 1 view .LVU19
	.loc 1 35 9 is_stmt 0 view .LVU20
	mov	r1, sp
	mov	r0, r4
.LVL3:
	.loc 1 35 9 view .LVU21
	bl	net_pkt_set_data
.LVL4:
.L1:
	.loc 1 36 1 view .LVU22
	add	sp, sp, #16
	.cfi_remember_state
	.cfi_def_cfa_offset 16
	@ sp needed
	pop	{r4, r5, r6, pc}
.LVL5:
.L3:
	.cfi_restore_state
	.loc 1 27 10 view .LVU23
	mvn	r0, #104
.LVL6:
	.loc 1 27 10 view .LVU24
	b	.L1
	.cfi_endproc
.LFE932:
	.size	net_udp_create, .-net_udp_create
	.section	.text.net_udp_finalize,"ax",%progbits
	.align	1
	.global	net_udp_finalize
	.syntax unified
	.thumb
	.thumb_func
	.fpu fpv4-sp-d16
	.type	net_udp_finalize, %function
net_udp_finalize:
.LVL7:
.LFB933:
	.loc 1 39 1 is_stmt 1 view -0
	.cfi_startproc
	@ args = 0, pretend = 0, frame = 16
	@ frame_needed = 0, uses_anonymous_args = 0
	.loc 1 39 1 is_stmt 0 view .LVU26
	push	{r4, r5, lr}
	.cfi_def_cfa_offset 12
	.cfi_offset 4, -12
	.cfi_offset 5, -8
	.cfi_offset 14, -4
	sub	sp, sp, #20
	.cfi_def_cfa_offset 32
	mov	r4, r0
	.loc 1 40 2 is_stmt 1 view .LVU27
	.loc 1 40 38 view .LVU28
	.loc 1 40 65 is_stmt 0 view .LVU29
	add	r3, sp, #8
	str	r3, [sp]
	movs	r3, #8
	str	r3, [sp, #4]
	.loc 1 41 2 is_stmt 1 view .LVU30
	.loc 1 42 2 view .LVU31
.LVL8:
	.loc 1 44 2 view .LVU32
	.loc 1 44 34 is_stmt 0 view .LVU33
	mov	r1, sp
	bl	net_pkt_get_data
.LVL9:
	.loc 1 45 2 is_stmt 1 view .LVU34
	.loc 1 45 5 is_stmt 0 view .LVU35
	cbz	r0, .L11
	mov	r5, r0
	.loc 1 49 2 is_stmt 1 view .LVU36
.LVL10:
.LBB73:
.LBI73:
	.file 2 "/home/sebin/thesis/zephyrproject/zephyr/include/net/net_pkt.h"
	.loc 2 961 22 view .LVU37
.LBB74:
	.loc 2 963 2 view .LVU38
	.loc 2 963 9 is_stmt 0 view .LVU39
	ldr	r3, [r4, #8]
.LVL11:
.LBB75:
.LBI75:
	.file 3 "/home/sebin/thesis/zephyrproject/zephyr/include/net/buf.h"
	.loc 3 2465 22 is_stmt 1 view .LVU40
.LBB76:
	.loc 3 2467 2 view .LVU41
	.loc 3 2469 2 view .LVU42
	.loc 3 2467 9 is_stmt 0 view .LVU43
	movs	r2, #0
.LVL12:
.L7:
	.loc 3 2469 8 is_stmt 1 view .LVU44
	cbz	r3, .L14
	.loc 3 2470 3 view .LVU45
	.loc 3 2470 15 is_stmt 0 view .LVU46
	ldrh	r1, [r3, #12]
	.loc 3 2470 9 view .LVU47
	add	r2, r2, r1
.LVL13:
	.loc 3 2471 3 is_stmt 1 view .LVU48
	.loc 3 2471 7 is_stmt 0 view .LVU49
	ldr	r3, [r3]
.LVL14:
	.loc 3 2471 7 view .LVU50
	b	.L7
.L14:
	.loc 3 2474 2 is_stmt 1 view .LVU51
.LVL15:
	.loc 3 2474 2 is_stmt 0 view .LVU52
.LBE76:
.LBE75:
.LBE74:
.LBE73:
.LBB77:
.LBI77:
	.loc 2 371 23 is_stmt 1 view .LVU53
.LBB78:
	.loc 2 373 2 view .LVU54
	.loc 2 373 2 is_stmt 0 view .LVU55
.LBE78:
.LBE77:
	.loc 1 49 34 view .LVU56
	ldrb	r3, [r4, #72]	@ zero_extendqisi2
	.loc 1 49 32 view .LVU57
	subs	r2, r2, r3
	uxth	r2, r2
.LVL16:
.LBB79:
.LBI79:
	.loc 2 625 24 is_stmt 1 view .LVU58
.LBB80:
	.loc 2 628 2 view .LVU59
	.loc 2 628 12 is_stmt 0 view .LVU60
	ldrh	r3, [r4, #80]
.LVL17:
	.loc 2 628 12 view .LVU61
.LBE80:
.LBE79:
	.loc 1 49 9 view .LVU62
	subs	r2, r2, r3
	uxth	r3, r2
.LVL18:
	.loc 1 52 2 is_stmt 1 view .LVU63
	.loc 1 52 55 is_stmt 0 view .LVU64
	ubfx	r2, r2, #8, #8
	.loc 1 52 15 view .LVU65
	orr	r2, r2, r3, lsl #8
	strh	r2, [r5, #4]	@ unaligned
	.loc 1 54 2 is_stmt 1 view .LVU66
.LVL19:
.LBB81:
.LBI81:
	.loc 2 293 30 view .LVU67
.LBB82:
	.loc 2 295 2 view .LVU68
	.loc 2 295 2 is_stmt 0 view .LVU69
.LBE82:
.LBE81:
	.loc 1 54 6 view .LVU70
	ldr	r0, [r4, #24]
.LVL20:
	.loc 1 54 6 view .LVU71
	bl	net_if_need_calc_tx_checksum
.LVL21:
	.loc 1 54 5 view .LVU72
	cbnz	r0, .L15
.L9:
	.loc 1 58 2 is_stmt 1 view .LVU73
	.loc 1 58 9 is_stmt 0 view .LVU74
	mov	r1, sp
	mov	r0, r4
	bl	net_pkt_set_data
.LVL22:
.L5:
	.loc 1 59 1 view .LVU75
	add	sp, sp, #20
	.cfi_remember_state
	.cfi_def_cfa_offset 12
	@ sp needed
	pop	{r4, r5, pc}
.LVL23:
.L15:
	.cfi_restore_state
	.loc 1 55 3 is_stmt 1 view .LVU76
.LBB83:
.LBI83:
	.file 4 "/home/sebin/thesis/zephyrproject/zephyr/subsys/net/ip/net_private.h"
	.loc 4 189 24 view .LVU77
.LBB84:
	.loc 4 191 2 view .LVU78
	.loc 4 191 20 is_stmt 0 view .LVU79
	movs	r1, #17
	mov	r0, r4
	bl	net_calc_chksum
.LVL24:
	.loc 4 193 2 is_stmt 1 view .LVU80
	.loc 4 193 31 is_stmt 0 view .LVU81
	mov	r3, r0
	cbz	r0, .L16
.L10:
.LVL25:
	.loc 4 193 31 view .LVU82
.LBE84:
.LBE83:
	.loc 1 55 19 view .LVU83
	strh	r3, [r5, #6]	@ unaligned
	b	.L9
.LVL26:
.L16:
.LBB86:
.LBB85:
	.loc 4 193 31 view .LVU84
	movw	r3, #65535
	b	.L10
.LVL27:
.L11:
	.loc 4 193 31 view .LVU85
.LBE85:
.LBE86:
	.loc 1 46 10 view .LVU86
	mvn	r0, #104
.LVL28:
	.loc 1 46 10 view .LVU87
	b	.L5
	.cfi_endproc
.LFE933:
	.size	net_udp_finalize, .-net_udp_finalize
	.section	.text.net_udp_get_hdr,"ax",%progbits
	.align	1
	.global	net_udp_get_hdr
	.syntax unified
	.thumb
	.thumb_func
	.fpu fpv4-sp-d16
	.type	net_udp_get_hdr, %function
net_udp_get_hdr:
.LVL29:
.LFB934:
	.loc 1 63 1 is_stmt 1 view -0
	.cfi_startproc
	@ args = 0, pretend = 0, frame = 8
	@ frame_needed = 0, uses_anonymous_args = 0
	.loc 1 63 1 is_stmt 0 view .LVU89
	push	{r4, r5, r6, r7, lr}
	.cfi_def_cfa_offset 20
	.cfi_offset 4, -20
	.cfi_offset 5, -16
	.cfi_offset 6, -12
	.cfi_offset 7, -8
	.cfi_offset 14, -4
	sub	sp, sp, #12
	.cfi_def_cfa_offset 32
	mov	r4, r0
	.loc 1 64 2 is_stmt 1 view .LVU90
	.loc 1 64 29 is_stmt 0 view .LVU91
	movs	r3, #8
	str	r3, [sp, #4]
	.loc 1 65 2 is_stmt 1 view .LVU92
	.loc 1 66 2 view .LVU93
	.loc 1 67 1 view .LVU94
	.loc 1 69 2 view .LVU95
	.loc 1 69 18 is_stmt 0 view .LVU96
	str	r1, [sp]
	.loc 1 71 2 is_stmt 1 view .LVU97
.LVL30:
.LBB87:
.LBI87:
	.loc 2 1210 19 view .LVU98
.LBB88:
	.loc 2 1212 2 view .LVU99
	.loc 2 1212 12 is_stmt 0 view .LVU100
	ldrb	r3, [r0, #73]	@ zero_extendqisi2
	and	r5, r3, #1
.LVL31:
	.loc 2 1212 12 view .LVU101
.LBE88:
.LBE87:
	.loc 1 72 2 is_stmt 1 view .LVU102
.LBB89:
.LBI89:
	.loc 2 1205 20 view .LVU103
.LBB90:
	.loc 2 1207 2 view .LVU104
	.loc 2 1207 17 is_stmt 0 view .LVU105
	orr	r3, r3, #1
.LVL32:
	.loc 2 1207 17 view .LVU106
	strb	r3, [r0, #73]
.LVL33:
	.loc 2 1207 17 view .LVU107
.LBE90:
.LBE89:
	.loc 1 74 2 is_stmt 1 view .LVU108
.LBB91:
.LBI91:
	.loc 2 1811 20 view .LVU109
.LBB92:
	.loc 2 1814 2 view .LVU110
	.loc 2 1814 27 is_stmt 0 view .LVU111
	ldr	r7, [r0, #12]
	.loc 2 1815 2 is_stmt 1 view .LVU112
	.loc 2 1815 27 is_stmt 0 view .LVU113
	ldr	r6, [r0, #16]
.LVL34:
	.loc 2 1815 27 view .LVU114
.LBE92:
.LBE91:
	.loc 1 75 2 is_stmt 1 view .LVU115
	bl	net_pkt_cursor_init
.LVL35:
	.loc 1 77 2 view .LVU116
.LBB93:
.LBI93:
	.loc 2 371 23 view .LVU117
.LBB94:
	.loc 2 373 2 view .LVU118
	.loc 2 373 12 is_stmt 0 view .LVU119
	ldrb	r1, [r4, #72]	@ zero_extendqisi2
.LVL36:
	.loc 2 373 12 view .LVU120
.LBE94:
.LBE93:
.LBB95:
.LBI95:
	.loc 2 625 24 is_stmt 1 view .LVU121
.LBB96:
	.loc 2 628 2 view .LVU122
	.loc 2 628 12 is_stmt 0 view .LVU123
	ldrh	r3, [r4, #80]
.LVL37:
	.loc 2 628 12 view .LVU124
.LBE96:
.LBE95:
	.loc 1 77 6 view .LVU125
	add	r1, r1, r3
	mov	r0, r4
	bl	net_pkt_skip
.LVL38:
	.loc 1 77 5 view .LVU126
	cbnz	r0, .L19
	.loc 1 83 2 is_stmt 1 view .LVU127
	.loc 1 83 34 is_stmt 0 view .LVU128
	mov	r1, sp
	mov	r0, r4
	bl	net_pkt_get_data
.LVL39:
.L18:
	.loc 1 86 2 is_stmt 1 view .LVU129
.LBB97:
.LBI97:
	.loc 2 1824 20 view .LVU130
.LBB98:
	.loc 2 1827 2 view .LVU131
	.loc 2 1827 18 is_stmt 0 view .LVU132
	str	r7, [r4, #12]
	.loc 2 1828 2 is_stmt 1 view .LVU133
	.loc 2 1828 18 is_stmt 0 view .LVU134
	str	r6, [r4, #16]
.LVL40:
	.loc 2 1828 18 view .LVU135
.LBE98:
.LBE97:
	.loc 1 87 2 is_stmt 1 view .LVU136
.LBB99:
.LBI99:
	.loc 2 1205 20 view .LVU137
.LBB100:
	.loc 2 1207 2 view .LVU138
	.loc 2 1207 17 is_stmt 0 view .LVU139
	ldrb	r3, [r4, #73]	@ zero_extendqisi2
	bfi	r3, r5, #0, #1
	strb	r3, [r4, #73]
.LVL41:
	.loc 2 1207 17 view .LVU140
.LBE100:
.LBE99:
	.loc 1 89 2 is_stmt 1 view .LVU141
	.loc 1 90 1 is_stmt 0 view .LVU142
	add	sp, sp, #12
	.cfi_remember_state
	.cfi_def_cfa_offset 20
	@ sp needed
	pop	{r4, r5, r6, r7, pc}
.LVL42:
.L19:
	.cfi_restore_state
	.loc 1 79 11 view .LVU143
	movs	r0, #0
	b	.L18
	.cfi_endproc
.LFE934:
	.size	net_udp_get_hdr, .-net_udp_get_hdr
	.section	.text.net_udp_set_hdr,"ax",%progbits
	.align	1
	.global	net_udp_set_hdr
	.syntax unified
	.thumb
	.thumb_func
	.fpu fpv4-sp-d16
	.type	net_udp_set_hdr, %function
net_udp_set_hdr:
.LVL43:
.LFB935:
	.loc 1 94 1 is_stmt 1 view -0
	.cfi_startproc
	@ args = 0, pretend = 0, frame = 16
	@ frame_needed = 0, uses_anonymous_args = 0
	.loc 1 94 1 is_stmt 0 view .LVU145
	push	{r4, r5, r6, r7, r8, r9, lr}
	.cfi_def_cfa_offset 28
	.cfi_offset 4, -28
	.cfi_offset 5, -24
	.cfi_offset 6, -20
	.cfi_offset 7, -16
	.cfi_offset 8, -12
	.cfi_offset 9, -8
	.cfi_offset 14, -4
	sub	sp, sp, #20
	.cfi_def_cfa_offset 48
	mov	r4, r0
	mov	r5, r1
	.loc 1 95 2 is_stmt 1 view .LVU146
	.loc 1 95 38 view .LVU147
	.loc 1 95 65 is_stmt 0 view .LVU148
	add	r3, sp, #8
	str	r3, [sp]
	movs	r3, #8
	str	r3, [sp, #4]
	.loc 1 96 2 is_stmt 1 view .LVU149
	.loc 1 97 2 view .LVU150
	.loc 1 98 1 view .LVU151
	.loc 1 100 2 view .LVU152
.LVL44:
.LBB101:
.LBI101:
	.loc 2 1210 19 view .LVU153
.LBB102:
	.loc 2 1212 2 view .LVU154
	.loc 2 1212 12 is_stmt 0 view .LVU155
	ldrb	r3, [r0, #73]	@ zero_extendqisi2
	and	r7, r3, #1
.LVL45:
	.loc 2 1212 12 view .LVU156
.LBE102:
.LBE101:
	.loc 1 101 2 is_stmt 1 view .LVU157
.LBB103:
.LBI103:
	.loc 2 1205 20 view .LVU158
.LBB104:
	.loc 2 1207 2 view .LVU159
	.loc 2 1207 17 is_stmt 0 view .LVU160
	orr	r3, r3, #1
.LVL46:
	.loc 2 1207 17 view .LVU161
	strb	r3, [r0, #73]
.LVL47:
	.loc 2 1207 17 view .LVU162
.LBE104:
.LBE103:
	.loc 1 103 2 is_stmt 1 view .LVU163
.LBB105:
.LBI105:
	.loc 2 1811 20 view .LVU164
.LBB106:
	.loc 2 1814 2 view .LVU165
	.loc 2 1814 27 is_stmt 0 view .LVU166
	ldr	r9, [r0, #12]
	.loc 2 1815 2 is_stmt 1 view .LVU167
	.loc 2 1815 27 is_stmt 0 view .LVU168
	ldr	r8, [r0, #16]
.LVL48:
	.loc 2 1815 27 view .LVU169
.LBE106:
.LBE105:
	.loc 1 104 2 is_stmt 1 view .LVU170
	bl	net_pkt_cursor_init
.LVL49:
	.loc 1 106 2 view .LVU171
.LBB107:
.LBI107:
	.loc 2 371 23 view .LVU172
.LBB108:
	.loc 2 373 2 view .LVU173
	.loc 2 373 12 is_stmt 0 view .LVU174
	ldrb	r1, [r4, #72]	@ zero_extendqisi2
.LVL50:
	.loc 2 373 12 view .LVU175
.LBE108:
.LBE107:
.LBB109:
.LBI109:
	.loc 2 625 24 is_stmt 1 view .LVU176
.LBB110:
	.loc 2 628 2 view .LVU177
	.loc 2 628 12 is_stmt 0 view .LVU178
	ldrh	r3, [r4, #80]
.LVL51:
	.loc 2 628 12 view .LVU179
.LBE110:
.LBE109:
	.loc 1 106 6 view .LVU180
	add	r1, r1, r3
	mov	r0, r4
	bl	net_pkt_skip
.LVL52:
	.loc 1 106 5 view .LVU181
	cbz	r0, .L26
	.loc 1 108 11 view .LVU182
	movs	r6, #0
.L22:
.LVL53:
	.loc 1 121 2 is_stmt 1 view .LVU183
.LBB111:
.LBI111:
	.loc 2 1824 20 view .LVU184
.LBB112:
	.loc 2 1827 2 view .LVU185
	.loc 2 1827 18 is_stmt 0 view .LVU186
	str	r9, [r4, #12]
	.loc 2 1828 2 is_stmt 1 view .LVU187
	.loc 2 1828 18 is_stmt 0 view .LVU188
	str	r8, [r4, #16]
.LVL54:
	.loc 2 1828 18 view .LVU189
.LBE112:
.LBE111:
	.loc 1 122 2 is_stmt 1 view .LVU190
.LBB113:
.LBI113:
	.loc 2 1205 20 view .LVU191
.LBB114:
	.loc 2 1207 2 view .LVU192
	.loc 2 1207 17 is_stmt 0 view .LVU193
	ldrb	r3, [r4, #73]	@ zero_extendqisi2
	bfi	r3, r7, #0, #1
	strb	r3, [r4, #73]
.LVL55:
	.loc 2 1207 17 view .LVU194
.LBE114:
.LBE113:
	.loc 1 124 2 is_stmt 1 view .LVU195
	.loc 1 124 31 is_stmt 0 view .LVU196
	cbz	r6, .L21
	mov	r6, r5
.LVL56:
.L21:
	.loc 1 125 1 view .LVU197
	mov	r0, r6
	add	sp, sp, #20
	.cfi_remember_state
	.cfi_def_cfa_offset 28
	@ sp needed
	pop	{r4, r5, r6, r7, r8, r9, pc}
.LVL57:
.L26:
	.cfi_restore_state
	.loc 1 112 2 is_stmt 1 view .LVU198
	.loc 1 112 34 is_stmt 0 view .LVU199
	mov	r1, sp
	mov	r0, r4
	bl	net_pkt_get_data
.LVL58:
	.loc 1 113 2 is_stmt 1 view .LVU200
	.loc 1 113 5 is_stmt 0 view .LVU201
	mov	r6, r0
	cmp	r0, #0
	beq	.L22
	.loc 1 117 1 is_stmt 1 view .LVU202
.LVL59:
.LBB115:
.LBI115:
	.file 5 "/home/sebin/LIOT/gcc-arm-none-eabi-9-2019-q4-major/arm-none-eabi/include/ssp/string.h"
	.loc 5 83 216 view .LVU203
.LBB116:
	.loc 5 83 292 view .LVU204
	.loc 5 83 299 is_stmt 0 view .LVU205
	ldr	r2, [r5]	@ unaligned
	ldr	r3, [r5, #4]	@ unaligned
	str	r2, [r0]	@ unaligned
	str	r3, [r0, #4]	@ unaligned
.LVL60:
	.loc 5 83 299 view .LVU206
.LBE116:
.LBE115:
	.loc 1 119 2 is_stmt 1 view .LVU207
	mov	r1, sp
	mov	r0, r4
.LVL61:
	.loc 1 119 2 is_stmt 0 view .LVU208
	bl	net_pkt_set_data
.LVL62:
	b	.L22
	.cfi_endproc
.LFE935:
	.size	net_udp_set_hdr, .-net_udp_set_hdr
	.section	.text.net_udp_register,"ax",%progbits
	.align	1
	.global	net_udp_register
	.syntax unified
	.thumb
	.thumb_func
	.fpu fpv4-sp-d16
	.type	net_udp_register, %function
net_udp_register:
.LVL63:
.LFB936:
	.loc 1 136 1 is_stmt 1 view -0
	.cfi_startproc
	@ args = 20, pretend = 0, frame = 0
	@ frame_needed = 0, uses_anonymous_args = 0
	.loc 1 136 1 is_stmt 0 view .LVU210
	push	{r4, lr}
	.cfi_def_cfa_offset 8
	.cfi_offset 4, -8
	.cfi_offset 14, -4
	sub	sp, sp, #24
	.cfi_def_cfa_offset 32
	.loc 1 137 2 is_stmt 1 view .LVU211
	.loc 1 137 9 is_stmt 0 view .LVU212
	ldr	r4, [sp, #48]
	str	r4, [sp, #20]
	ldr	r4, [sp, #44]
	str	r4, [sp, #16]
	ldr	r4, [sp, #40]
	str	r4, [sp, #12]
	ldr	r4, [sp, #36]
	str	r4, [sp, #8]
	ldrh	r4, [sp, #32]
	str	r4, [sp, #4]
	str	r3, [sp]
	mov	r3, r2
.LVL64:
	.loc 1 137 9 view .LVU213
	mov	r2, r1
.LVL65:
	.loc 1 137 9 view .LVU214
	mov	r1, r0
.LVL66:
	.loc 1 137 9 view .LVU215
	movs	r0, #17
.LVL67:
	.loc 1 137 9 view .LVU216
	bl	net_conn_register
.LVL68:
	.loc 1 140 1 view .LVU217
	add	sp, sp, #24
	.cfi_def_cfa_offset 8
	@ sp needed
	pop	{r4, pc}
	.loc 1 140 1 view .LVU218
	.cfi_endproc
.LFE936:
	.size	net_udp_register, .-net_udp_register
	.section	.text.net_udp_unregister,"ax",%progbits
	.align	1
	.global	net_udp_unregister
	.syntax unified
	.thumb
	.thumb_func
	.fpu fpv4-sp-d16
	.type	net_udp_unregister, %function
net_udp_unregister:
.LVL69:
.LFB937:
	.loc 1 143 1 is_stmt 1 view -0
	.cfi_startproc
	@ args = 0, pretend = 0, frame = 0
	@ frame_needed = 0, uses_anonymous_args = 0
	.loc 1 143 1 is_stmt 0 view .LVU220
	push	{r3, lr}
	.cfi_def_cfa_offset 8
	.cfi_offset 3, -8
	.cfi_offset 14, -4
	.loc 1 144 2 is_stmt 1 view .LVU221
	.loc 1 144 9 is_stmt 0 view .LVU222
	bl	net_conn_unregister
.LVL70:
	.loc 1 145 1 view .LVU223
	pop	{r3, pc}
	.cfi_endproc
.LFE937:
	.size	net_udp_unregister, .-net_udp_unregister
	.section	.text.net_udp_input,"ax",%progbits
	.align	1
	.global	net_udp_input
	.syntax unified
	.thumb
	.thumb_func
	.fpu fpv4-sp-d16
	.type	net_udp_input, %function
net_udp_input:
.LVL71:
.LFB938:
	.loc 1 149 1 is_stmt 1 view -0
	.cfi_startproc
	@ args = 0, pretend = 0, frame = 0
	@ frame_needed = 0, uses_anonymous_args = 0
	.loc 1 149 1 is_stmt 0 view .LVU225
	push	{r4, r5, r6, lr}
	.cfi_def_cfa_offset 16
	.cfi_offset 4, -16
	.cfi_offset 5, -12
	.cfi_offset 6, -8
	.cfi_offset 14, -4
	mov	r4, r0
	mov	r6, r1
	.loc 1 150 2 is_stmt 1 view .LVU226
	.loc 1 152 2 view .LVU227
	.loc 1 152 34 is_stmt 0 view .LVU228
	bl	net_pkt_get_data
.LVL72:
	.loc 1 153 2 is_stmt 1 view .LVU229
	.loc 1 153 5 is_stmt 0 view .LVU230
	cbz	r0, .L34
	mov	r5, r0
	.loc 1 153 18 discriminator 1 view .LVU231
	mov	r1, r6
	mov	r0, r4
.LVL73:
	.loc 1 153 18 discriminator 1 view .LVU232
	bl	net_pkt_set_data
.LVL74:
	.loc 1 153 15 discriminator 1 view .LVU233
	cbnz	r0, .L34
	.loc 1 158 2 is_stmt 1 view .LVU234
	.loc 1 158 29 is_stmt 0 view .LVU235
	ldrh	r3, [r5, #4]	@ unaligned
	.loc 1 158 50 view .LVU236
	lsrs	r0, r3, #8
	orr	r0, r0, r3, lsl #8
	.loc 1 158 7 view .LVU237
	uxth	r0, r0
.LVL75:
.LBB117:
.LBI117:
	.loc 2 961 22 is_stmt 1 view .LVU238
.LBB118:
	.loc 2 963 2 view .LVU239
	.loc 2 963 9 is_stmt 0 view .LVU240
	ldr	r3, [r4, #8]
.LVL76:
.LBB119:
.LBI119:
	.loc 3 2465 22 is_stmt 1 view .LVU241
.LBB120:
	.loc 3 2467 2 view .LVU242
	.loc 3 2469 2 view .LVU243
	.loc 3 2467 9 is_stmt 0 view .LVU244
	movs	r2, #0
	.loc 3 2469 8 view .LVU245
	b	.L35
.LVL77:
.L36:
	.loc 3 2470 3 is_stmt 1 view .LVU246
	.loc 3 2470 15 is_stmt 0 view .LVU247
	ldrh	r1, [r3, #12]
	.loc 3 2470 9 view .LVU248
	add	r2, r2, r1
.LVL78:
	.loc 3 2471 3 is_stmt 1 view .LVU249
	.loc 3 2471 7 is_stmt 0 view .LVU250
	ldr	r3, [r3]
.LVL79:
.L35:
	.loc 3 2469 8 is_stmt 1 view .LVU251
	cmp	r3, #0
	bne	.L36
	.loc 3 2474 2 view .LVU252
.LVL80:
	.loc 3 2474 2 is_stmt 0 view .LVU253
.LBE120:
.LBE119:
.LBE118:
.LBE117:
.LBB121:
.LBI121:
	.loc 2 371 23 is_stmt 1 view .LVU254
.LBB122:
	.loc 2 373 2 view .LVU255
	.loc 2 373 12 is_stmt 0 view .LVU256
	ldrb	r3, [r4, #72]	@ zero_extendqisi2
.LVL81:
	.loc 2 373 12 view .LVU257
.LBE122:
.LBE121:
	.loc 1 158 110 view .LVU258
	subs	r2, r2, r3
.LVL82:
.LBB123:
.LBI123:
	.loc 2 625 24 is_stmt 1 view .LVU259
.LBB124:
	.loc 2 628 2 view .LVU260
	.loc 2 628 12 is_stmt 0 view .LVU261
	ldrh	r3, [r4, #80]
.LVL83:
	.loc 2 628 12 view .LVU262
.LBE124:
.LBE123:
	.loc 1 159 33 view .LVU263
	subs	r2, r2, r3
	.loc 1 158 5 view .LVU264
	cmp	r0, r2
	bne	.L34
	.loc 1 165 2 is_stmt 1 view .LVU265
.LVL84:
.LBB125:
.LBI125:
	.loc 2 293 30 view .LVU266
.LBB126:
	.loc 2 295 2 view .LVU267
	.loc 2 295 2 is_stmt 0 view .LVU268
.LBE126:
.LBE125:
	.loc 1 166 6 view .LVU269
	ldr	r0, [r4, #24]
	bl	net_if_need_calc_rx_checksum
.LVL85:
	.loc 1 165 5 view .LVU270
	cbz	r0, .L31
	.loc 1 167 3 is_stmt 1 view .LVU271
	.loc 1 167 15 is_stmt 0 view .LVU272
	ldrh	r3, [r5, #6]	@ unaligned
	.loc 1 167 6 view .LVU273
	cbz	r3, .L34
	.loc 1 176 3 is_stmt 1 view .LVU274
.LVL86:
.LBB127:
.LBI127:
	.loc 4 196 24 view .LVU275
.LBB128:
	.loc 4 198 2 view .LVU276
	.loc 4 198 9 is_stmt 0 view .LVU277
	movs	r1, #17
	mov	r0, r4
	bl	net_calc_chksum
.LVL87:
	.loc 4 198 9 view .LVU278
.LBE128:
.LBE127:
	.loc 1 176 6 view .LVU279
	cbz	r0, .L31
.LVL88:
.L34:
	.loc 1 184 2 is_stmt 1 view .LVU280
.LBB129:
.LBI129:
	.loc 2 293 30 view .LVU281
.LBB130:
	.loc 2 295 2 view .LVU282
	.loc 2 295 12 is_stmt 0 view .LVU283
	ldr	r2, [r4, #24]
.LVL89:
	.loc 2 295 12 view .LVU284
.LBE130:
.LBE129:
.LBB131:
.LBI131:
	.file 6 "/home/sebin/thesis/zephyrproject/zephyr/subsys/net/ip/net_stats.h"
	.loc 6 178 20 is_stmt 1 view .LVU285
.LBB132:
	.loc 6 180 6 view .LVU286
	.loc 6 180 7 view .LVU287
	.loc 6 180 9 view .LVU288
	.loc 6 180 24 is_stmt 0 view .LVU289
	ldr	r1, .L39
	ldr	r3, [r1, #156]
	.loc 6 180 31 view .LVU290
	adds	r3, r3, #1
	str	r3, [r1, #156]
	.loc 6 180 37 is_stmt 1 view .LVU291
	.loc 6 180 54 is_stmt 0 view .LVU292
	ldr	r3, [r2, #164]
	.loc 6 180 61 view .LVU293
	adds	r3, r3, #1
	str	r3, [r2, #164]
	.loc 6 180 67 is_stmt 1 view .LVU294
.LVL90:
	.loc 6 180 67 is_stmt 0 view .LVU295
.LBE132:
.LBE131:
	.loc 1 185 2 is_stmt 1 view .LVU296
	.loc 1 185 8 is_stmt 0 view .LVU297
	movs	r5, #0
.L31:
	.loc 1 186 1 view .LVU298
	mov	r0, r5
	pop	{r4, r5, r6, pc}
.LVL91:
.L40:
	.loc 1 186 1 view .LVU299
	.align	2
.L39:
	.word	net_stats
	.cfi_endproc
.LFE938:
	.size	net_udp_input, .-net_udp_input
	.global	log_const_net_udp
	.section	.rodata.str1.4,"aMS",%progbits,1
	.align	2
.LC0:
	.ascii	"net_udp\000"
	.section	.log_const_net_udp,"a"
	.align	2
	.type	log_const_net_udp, %object
	.size	log_const_net_udp, 8
log_const_net_udp:
	.word	.LC0
	.byte	3
	.space	3
	.text
.Letext0:
	.file 7 "/home/sebin/LIOT/gcc-arm-none-eabi-9-2019-q4-major/lib/gcc/arm-none-eabi/9.2.1/include/stddef.h"
	.file 8 "/home/sebin/LIOT/gcc-arm-none-eabi-9-2019-q4-major/arm-none-eabi/include/machine/_default_types.h"
	.file 9 "/home/sebin/LIOT/gcc-arm-none-eabi-9-2019-q4-major/arm-none-eabi/include/sys/_stdint.h"
	.file 10 "/home/sebin/thesis/zephyrproject/zephyr/include/logging/log_instance.h"
	.file 11 "/home/sebin/thesis/zephyrproject/zephyr/include/sys/atomic.h"
	.file 12 "/home/sebin/LIOT/gcc-arm-none-eabi-9-2019-q4-major/arm-none-eabi/include/sys/lock.h"
	.file 13 "/home/sebin/LIOT/gcc-arm-none-eabi-9-2019-q4-major/arm-none-eabi/include/sys/_types.h"
	.file 14 "/home/sebin/LIOT/gcc-arm-none-eabi-9-2019-q4-major/arm-none-eabi/include/sys/reent.h"
	.file 15 "/home/sebin/LIOT/gcc-arm-none-eabi-9-2019-q4-major/arm-none-eabi/include/sys/errno.h"
	.file 16 "/home/sebin/thesis/zephyrproject/zephyr/include/sys/cbprintf_internal.h"
	.file 17 "/home/sebin/thesis/zephyrproject/zephyr/include/logging/log_msg2.h"
	.file 18 "/home/sebin/thesis/zephyrproject/zephyr/include/logging/log_msg.h"
	.file 19 "/home/sebin/thesis/zephyrproject/zephyr/include/logging/log_core.h"
	.file 20 "/home/sebin/thesis/zephyrproject/zephyr/include/sys/dlist.h"
	.file 21 "/home/sebin/thesis/zephyrproject/zephyr/include/sys/rb.h"
	.file 22 "/home/sebin/thesis/zephyrproject/zephyr/include/sys/slist.h"
	.file 23 "/home/sebin/thesis/zephyrproject/zephyr/include/sys/sys_heap.h"
	.file 24 "/home/sebin/thesis/zephyrproject/zephyr/include/kernel_structs.h"
	.file 25 "/home/sebin/thesis/zephyrproject/zephyr/include/kernel/thread.h"
	.file 26 "/home/sebin/thesis/zephyrproject/zephyr/include/kernel.h"
	.file 27 "/home/sebin/thesis/zephyrproject/zephyr/include/arch/arm/aarch32/thread.h"
	.file 28 "/home/sebin/thesis/zephyrproject/zephyr/include/arch/arm/aarch32/exc.h"
	.file 29 "/home/sebin/thesis/zephyrproject/zephyr/include/sw_isr_table.h"
	.file 30 "/home/sebin/thesis/zephyrproject/modules/hal/infineon/XMCLib/devices/XMC4500/Include/system_XMC4500.h"
	.file 31 "/home/sebin/thesis/zephyrproject/modules/hal/cmsis/CMSIS/Core/Include/core_cm4.h"
	.file 32 "/home/sebin/thesis/zephyrproject/zephyr/include/arch/arm/aarch32/mpu/arm_mpu_v7m.h"
	.file 33 "/home/sebin/thesis/zephyrproject/zephyr/include/arch/arm/aarch32/mpu/arm_mpu.h"
	.file 34 "/home/sebin/thesis/zephyrproject/zephyr/include/sys_clock.h"
	.file 35 "/home/sebin/thesis/zephyrproject/zephyr/include/spinlock.h"
	.file 36 "/home/sebin/thesis/zephyrproject/zephyr/include/net/net_linkaddr.h"
	.file 37 "/home/sebin/thesis/zephyrproject/zephyr/include/net/net_ip.h"
	.file 38 "/home/sebin/thesis/zephyrproject/zephyr/include/device.h"
	.file 39 "/home/sebin/thesis/dmz/zephyr_xmc_template/build/zephyr/include/generated/device_extern.h"
	.file 40 "/home/sebin/thesis/zephyrproject/zephyr/include/net/net_timeout.h"
	.file 41 "/home/sebin/thesis/zephyrproject/zephyr/include/net/net_core.h"
	.file 42 "/home/sebin/thesis/zephyrproject/zephyr/include/net/net_if.h"
	.file 43 "/home/sebin/thesis/zephyrproject/zephyr/include/net/net_l2.h"
	.file 44 "/home/sebin/thesis/zephyrproject/zephyr/include/net/net_stats.h"
	.file 45 "/home/sebin/thesis/zephyrproject/zephyr/include/net/net_context.h"
	.file 46 "/home/sebin/thesis/zephyrproject/zephyr/include/net/ptp_time.h"
	.file 47 "/home/sebin/thesis/zephyrproject/zephyr/subsys/net/ip/connection.h"
	.file 48 "/home/sebin/thesis/zephyrproject/zephyr/include/arch/structs.h"