	.cpu cortex-m4
	.eabi_attribute 27, 1
	.eabi_attribute 28, 1
	.eabi_attribute 20, 1
	.eabi_attribute 21, 1
	.eabi_attribute 23, 3
	.eabi_attribute 24, 1
	.eabi_attribute 25, 1
	.eabi_attribute 26, 1
	.eabi_attribute 30, 1
	.eabi_attribute 34, 1
	.eabi_attribute 38, 1
	.eabi_attribute 18, 4
	.file	"aes.c"
	.text
.Ltext0:
	.cfi_sections	.debug_frame
	.section	.text.mbedtls_aes_init,"ax",%progbits
	.align	1
	.global	mbedtls_aes_init
	.arch armv7e-m
	.syntax unified
	.thumb
	.thumb_func
	.fpu fpv4-sp-d16
	.type	mbedtls_aes_init, %function
mbedtls_aes_init:
.LVL0:
.LFB19:
	.file 1 "/home/sebin/thesis/zephyrproject/modules/crypto/mbedtls/library/aes.c"
	.loc 1 514 1 view -0
	.cfi_startproc
	@ args = 0, pretend = 0, frame = 0
	@ frame_needed = 0, uses_anonymous_args = 0
	.loc 1 514 1 is_stmt 0 view .LVU1
	push	{r3, lr}
	.cfi_def_cfa_offset 8
	.cfi_offset 3, -8
	.cfi_offset 14, -4
	.loc 1 515 5 is_stmt 1 view .LVU2
	.loc 1 515 10 view .LVU3
	.loc 1 515 17 view .LVU4
	.loc 1 517 4 view .LVU5
.LVL1:
.LBB8:
.LBI8:
	.file 2 "/home/sebin/LIOT/gcc-arm-none-eabi-9-2019-q4-major/arm-none-eabi/include/ssp/string.h"
	.loc 2 86 189 view .LVU6
.LBB9:
	.loc 2 86 238 view .LVU7
	.loc 2 86 245 is_stmt 0 view .LVU8
	mov	r2, #280
	movs	r1, #0
	bl	memset
.LVL2:
	.loc 2 86 245 view .LVU9
.LBE9:
.LBE8:
	.loc 1 518 1 view .LVU10
	pop	{r3, pc}
	.cfi_endproc
.LFE19:
	.size	mbedtls_aes_init, .-mbedtls_aes_init
	.section	.text.mbedtls_aes_free,"ax",%progbits
	.align	1
	.global	mbedtls_aes_free
	.syntax unified
	.thumb
	.thumb_func
	.fpu fpv4-sp-d16
	.type	mbedtls_aes_free, %function
mbedtls_aes_free:
.LVL3:
.LFB20:
	.loc 1 521 1 is_stmt 1 view -0
	.cfi_startproc
	@ args = 0, pretend = 0, frame = 0
	@ frame_needed = 0, uses_anonymous_args = 0
	.loc 1 522 5 view .LVU12
	.loc 1 522 7 is_stmt 0 view .LVU13
	cbz	r0, .L6
	.loc 1 521 1 view .LVU14
	push	{r3, lr}
	.cfi_def_cfa_offset 8
	.cfi_offset 3, -8
	.cfi_offset 14, -4
	.loc 1 525 5 is_stmt 1 view .LVU15
	mov	r1, #280
	bl	mbedtls_platform_zeroize
.LVL4:
	.loc 1 526 1 is_stmt 0 view .LVU16
	pop	{r3, pc}
.LVL5:
.L6:
	.cfi_def_cfa_offset 0
	.cfi_restore 3
	.cfi_restore 14
	.loc 1 526 1 view .LVU17
	bx	lr
	.cfi_endproc
.LFE20:
	.size	mbedtls_aes_free, .-mbedtls_aes_free
	.section	.text.mbedtls_aes_setkey_enc,"ax",%progbits
	.align	1
	.global	mbedtls_aes_setkey_enc
	.syntax unified
	.thumb
	.thumb_func
	.fpu fpv4-sp-d16
	.type	mbedtls_aes_setkey_enc, %function
mbedtls_aes_setkey_enc:
.LVL6:
.LFB21:
	.loc 1 553 1 is_stmt 1 view -0
	.cfi_startproc
	@ args = 0, pretend = 0, frame = 0
	@ frame_needed = 0, uses_anonymous_args = 0
	@ link register save eliminated.
	.loc 1 554 5 view .LVU19
	.loc 1 555 5 view .LVU20
	.loc 1 557 5 view .LVU21
	.loc 1 557 10 view .LVU22
	.loc 1 557 17 view .LVU23
	.loc 1 558 5 view .LVU24
	.loc 1 558 10 view .LVU25
	.loc 1 558 17 view .LVU26
	.loc 1 560 5 view .LVU27
	cmp	r2, #192
	beq	.L10
	cmp	r2, #256
	beq	.L11
	cmp	r2, #128
	beq	.L29
	mvn	r0, #31
.LVL7:
	.loc 1 660 1 is_stmt 0 view .LVU28
	bx	lr
.LVL8:
.L29:
	.loc 1 562 19 is_stmt 1 view .LVU29
	.loc 1 562 27 is_stmt 0 view .LVU30
	movs	r3, #10
	str	r3, [r0]
	.loc 1 562 33 is_stmt 1 view .LVU31
.L13:
	.loc 1 553 1 is_stmt 0 view .LVU32
	push	{r4, r5, r6, r7}
	.cfi_def_cfa_offset 16
	.cfi_offset 4, -16
	.cfi_offset 5, -12
	.cfi_offset 6, -8
	.cfi_offset 7, -4
	.loc 1 584 5 is_stmt 1 view .LVU33
	.loc 1 584 18 is_stmt 0 view .LVU34
	add	r3, r0, #8
.LVL9:
	.loc 1 584 13 view .LVU35
	str	r3, [r0, #4]
	.loc 1 591 5 is_stmt 1 view .LVU36
.LVL10:
	.loc 1 591 12 is_stmt 0 view .LVU37
	movs	r5, #0
	.loc 1 591 5 view .LVU38
	b	.L14
.LVL11:
.L10:
	.cfi_def_cfa_offset 0
	.cfi_restore 4
	.cfi_restore 5
	.cfi_restore 6
	.cfi_restore 7
	.loc 1 563 19 is_stmt 1 view .LVU39
	.loc 1 563 27 is_stmt 0 view .LVU40
	movs	r3, #12
	str	r3, [r0]
	.loc 1 563 33 is_stmt 1 view .LVU41
	.loc 1 563 9 is_stmt 0 view .LVU42
	b	.L13
.L11:
	.loc 1 564 19 is_stmt 1 view .LVU43
	.loc 1 564 27 is_stmt 0 view .LVU44
	movs	r3, #14
	str	r3, [r0]
	.loc 1 564 33 is_stmt 1 view .LVU45
	.loc 1 564 9 is_stmt 0 view .LVU46
	b	.L13
.LVL12:
.L15:
	.cfi_def_cfa_offset 16
	.cfi_offset 4, -16
	.cfi_offset 5, -12
	.cfi_offset 6, -8
	.cfi_offset 7, -4
	.loc 1 593 11 is_stmt 1 discriminator 3 view .LVU47
	.loc 1 593 39 is_stmt 0 discriminator 3 view .LVU48
	ldrb	r4, [r1, r5, lsl #2]	@ zero_extendqisi2
	.loc 1 593 73 discriminator 3 view .LVU49
	add	r6, r1, r5, lsl #2
	ldrb	r7, [r6, #1]	@ zero_extendqisi2
	.loc 1 593 53 discriminator 3 view .LVU50
	orr	r4, r4, r7, lsl #8
	.loc 1 593 115 discriminator 3 view .LVU51
	ldrb	r7, [r6, #2]	@ zero_extendqisi2
	.loc 1 593 95 discriminator 3 view .LVU52
	orr	r4, r4, r7, lsl #16
	.loc 1 593 158 discriminator 3 view .LVU53
	ldrb	r6, [r6, #3]	@ zero_extendqisi2
	.loc 1 593 138 discriminator 3 view .LVU54
	orr	r4, r4, r6, lsl #24
	.loc 1 593 19 discriminator 3 view .LVU55
	str	r4, [r3, r5, lsl #2]
	.loc 1 593 183 is_stmt 1 discriminator 3 view .LVU56
	.loc 1 591 39 discriminator 3 view .LVU57
	.loc 1 591 40 is_stmt 0 discriminator 3 view .LVU58
	adds	r5, r5, #1
.LVL13:
.L14:
	.loc 1 591 17 is_stmt 1 discriminator 1 view .LVU59
	.loc 1 591 5 is_stmt 0 discriminator 1 view .LVU60
	cmp	r5, r2, lsr #5
	bcc	.L15
	.loc 1 596 5 is_stmt 1 view .LVU61
	.loc 1 596 16 is_stmt 0 view .LVU62
	ldr	r2, [r0]
.LVL14:
	.loc 1 596 5 view .LVU63
	cmp	r2, #12
	beq	.L23
	cmp	r2, #14
	beq	.L24
	cmp	r2, #10
	beq	.L25
	movs	r0, #0
.LVL15:
.L9:
	.loc 1 660 1 view .LVU64
	pop	{r4, r5, r6, r7}
	.cfi_remember_state
	.cfi_restore 7
	.cfi_restore 6
	.cfi_restore 5
	.cfi_restore 4
	.cfi_def_cfa_offset 0
	bx	lr
.LVL16:
.L25:
	.cfi_restore_state
	.loc 1 596 5 view .LVU65
	movs	r4, #0
.LVL17:
.L18:
	.loc 1 600 25 is_stmt 1 discriminator 1 view .LVU66
	.loc 1 600 13 is_stmt 0 discriminator 1 view .LVU67
	cmp	r4, #9
	bhi	.L30
	.loc 1 602 17 is_stmt 1 discriminator 3 view .LVU68
	.loc 1 602 27 is_stmt 0 discriminator 3 view .LVU69
	ldr	r2, [r3]
	.loc 1 602 37 discriminator 3 view .LVU70
	ldr	r1, .L31
	ldr	r1, [r1, r4, lsl #2]
	.loc 1 602 31 discriminator 3 view .LVU71
	eors	r2, r2, r1
	.loc 1 603 39 discriminator 3 view .LVU72
	ldr	r1, [r3, #12]
	.loc 1 603 50 discriminator 3 view .LVU73
	ubfx	r5, r1, #8, #8
	.loc 1 603 33 discriminator 3 view .LVU74
	ldr	r0, .L31+4
	ldrb	r5, [r0, r5]	@ zero_extendqisi2
	.loc 1 602 41 discriminator 3 view .LVU75
	eors	r2, r2, r5
	.loc 1 604 51 discriminator 3 view .LVU76
	ubfx	r5, r1, #16, #8
	.loc 1 604 33 discriminator 3 view .LVU77
	ldrb	r5, [r0, r5]	@ zero_extendqisi2
	.loc 1 603 61 discriminator 3 view .LVU78
	eor	r2, r2, r5, lsl #8
	.loc 1 605 51 discriminator 3 view .LVU79
	lsrs	r5, r1, #24
	.loc 1 605 33 discriminator 3 view .LVU80
	ldrb	r5, [r0, r5]	@ zero_extendqisi2
	.loc 1 604 67 discriminator 3 view .LVU81
	eor	r2, r2, r5, lsl #16
	.loc 1 606 45 discriminator 3 view .LVU82
	uxtb	r5, r1
	.loc 1 606 33 discriminator 3 view .LVU83
	ldrb	r0, [r0, r5]	@ zero_extendqisi2
	.loc 1 605 68 discriminator 3 view .LVU84
	eor	r2, r2, r0, lsl #24
	.loc 1 602 23 discriminator 3 view .LVU85
	str	r2, [r3, #16]
	.loc 1 608 17 is_stmt 1 discriminator 3 view .LVU86
	.loc 1 608 27 is_stmt 0 discriminator 3 view .LVU87
	ldr	r0, [r3, #4]
	.loc 1 608 31 discriminator 3 view .LVU88
	eors	r2, r2, r0
	.loc 1 608 23 discriminator 3 view .LVU89
	str	r2, [r3, #20]
	.loc 1 609 17 is_stmt 1 discriminator 3 view .LVU90
	.loc 1 609 27 is_stmt 0 discriminator 3 view .LVU91
	ldr	r0, [r3, #8]
	.loc 1 609 31 discriminator 3 view .LVU92
	eors	r2, r2, r0
	.loc 1 609 23 discriminator 3 view .LVU93
	str	r2, [r3, #24]
	.loc 1 610 17 is_stmt 1 discriminator 3 view .LVU94
	.loc 1 610 31 is_stmt 0 discriminator 3 view .LVU95
	eors	r2, r2, r1
	.loc 1 610 23 discriminator 3 view .LVU96
	str	r2, [r3, #28]
	.loc 1 600 33 is_stmt 1 discriminator 3 view .LVU97
	.loc 1 600 34 is_stmt 0 discriminator 3 view .LVU98
	adds	r4, r4, #1
.LVL18:
	.loc 1 600 41 discriminator 3 view .LVU99
	adds	r3, r3, #16
.LVL19:
	.loc 1 600 41 discriminator 3 view .LVU100
	b	.L18
.L30:
	.loc 1 659 11 view .LVU101
	movs	r0, #0
	b	.L9
.LVL20:
.L20:
	.loc 1 618 17 is_stmt 1 discriminator 3 view .LVU102
	.loc 1 618 27 is_stmt 0 discriminator 3 view .LVU103
	ldr	r2, [r3]
	.loc 1 618 37 discriminator 3 view .LVU104
	ldr	r1, .L31
	ldr	r1, [r1, r0, lsl #2]
	.loc 1 618 31 discriminator 3 view .LVU105
	eors	r2, r2, r1
	.loc 1 619 39 discriminator 3 view .LVU106
	ldr	r1, [r3, #20]
	.loc 1 619 50 discriminator 3 view .LVU107
	ubfx	r5, r1, #8, #8
	.loc 1 619 33 discriminator 3 view .LVU108
	ldr	r4, .L31+4
	ldrb	r5, [r4, r5]	@ zero_extendqisi2
	.loc 1 618 41 discriminator 3 view .LVU109
	eors	r2, r2, r5
	.loc 1 620 51 discriminator 3 view .LVU110
	ubfx	r5, r1, #16, #8
	.loc 1 620 33 discriminator 3 view .LVU111
	ldrb	r5, [r4, r5]	@ zero_extendqisi2
	.loc 1 619 61 discriminator 3 view .LVU112
	eor	r2, r2, r5, lsl #8
	.loc 1 621 51 discriminator 3 view .LVU113
	lsrs	r5, r1, #24
	.loc 1 621 33 discriminator 3 view .LVU114
	ldrb	r5, [r4, r5]	@ zero_extendqisi2
	.loc 1 620 67 discriminator 3 view .LVU115
	eor	r2, r2, r5, lsl #16
	.loc 1 622 45 discriminator 3 view .LVU116
	uxtb	r5, r1
	.loc 1 622 33 discriminator 3 view .LVU117
	ldrb	r4, [r4, r5]	@ zero_extendqisi2
	.loc 1 621 68 discriminator 3 view .LVU118
	eor	r2, r2, r4, lsl #24
	.loc 1 618 23 discriminator 3 view .LVU119
	str	r2, [r3, #24]
	.loc 1 624 17 is_stmt 1 discriminator 3 view .LVU120
	.loc 1 624 27 is_stmt 0 discriminator 3 view .LVU121
	ldr	r4, [r3, #4]
	.loc 1 624 31 discriminator 3 view .LVU122
	eors	r2, r2, r4
	.loc 1 624 23 discriminator 3 view .LVU123
	str	r2, [r3, #28]
	.loc 1 625 17 is_stmt 1 discriminator 3 view .LVU124
	.loc 1 625 27 is_stmt 0 discriminator 3 view .LVU125
	ldr	r4, [r3, #8]
	.loc 1 625 31 discriminator 3 view .LVU126
	eors	r2, r2, r4
	.loc 1 625 23 discriminator 3 view .LVU127
	str	r2, [r3, #32]
	.loc 1 626 17 is_stmt 1 discriminator 3 view .LVU128
	.loc 1 626 27 is_stmt 0 discriminator 3 view .LVU129
	ldr	r4, [r3, #12]
	.loc 1 626 31 discriminator 3 view .LVU130
	eors	r2, r2, r4
	.loc 1 626 23 discriminator 3 view .LVU131
	str	r2, [r3, #36]
	.loc 1 627 17 is_stmt 1 discriminator 3 view .LVU132
	.loc 1 627 28 is_stmt 0 discriminator 3 view .LVU133
	ldr	r4, [r3, #16]
	.loc 1 627 32 discriminator 3 view .LVU134
	eors	r2, r2, r4
	.loc 1 627 24 discriminator 3 view .LVU135
	str	r2, [r3, #40]
	.loc 1 628 17 is_stmt 1 discriminator 3 view .LVU136
	.loc 1 628 32 is_stmt 0 discriminator 3 view .LVU137
	eors	r2, r2, r1
	.loc 1 628 24 discriminator 3 view .LVU138
	str	r2, [r3, #44]
	.loc 1 616 32 is_stmt 1 discriminator 3 view .LVU139
	.loc 1 616 33 is_stmt 0 discriminator 3 view .LVU140
	adds	r0, r0, #1
.LVL21:
	.loc 1 616 40 discriminator 3 view .LVU141
	adds	r3, r3, #24
.LVL22:
.L16:
	.loc 1 616 25 is_stmt 1 discriminator 1 view .LVU142
	.loc 1 616 13 is_stmt 0 discriminator 1 view .LVU143
	cmp	r0, #7
	bls	.L20
	.loc 1 659 11 view .LVU144
	movs	r0, #0
.LVL23:
	.loc 1 659 11 view .LVU145
	b	.L9
.LVL24:
.L23:
	.loc 1 596 5 view .LVU146
	movs	r0, #0
.LVL25:
	.loc 1 596 5 view .LVU147
	b	.L16
.LVL26:
.L21:
	.loc 1 636 17 is_stmt 1 discriminator 3 view .LVU148
	.loc 1 636 27 is_stmt 0 discriminator 3 view .LVU149
	ldr	r2, [r3]
	.loc 1 636 37 discriminator 3 view .LVU150
	ldr	r0, .L31
	ldr	r0, [r0, r1, lsl #2]
	.loc 1 636 31 discriminator 3 view .LVU151
	eors	r2, r2, r0
	.loc 1 637 39 discriminator 3 view .LVU152
	ldr	r0, [r3, #28]
	.loc 1 637 50 discriminator 3 view .LVU153
	ubfx	r4, r0, #8, #8
	.loc 1 637 33 discriminator 3 view .LVU154
	ldr	r5, .L31+4
	ldrb	r4, [r5, r4]	@ zero_extendqisi2
	.loc 1 636 41 discriminator 3 view .LVU155
	eors	r2, r2, r4
	.loc 1 638 51 discriminator 3 view .LVU156
	ubfx	r4, r0, #16, #8
	.loc 1 638 33 discriminator 3 view .LVU157
	ldrb	r4, [r5, r4]	@ zero_extendqisi2
	.loc 1 637 61 discriminator 3 view .LVU158
	eor	r2, r2, r4, lsl #8
	.loc 1 639 51 discriminator 3 view .LVU159
	lsrs	r4, r0, #24
	.loc 1 639 33 discriminator 3 view .LVU160
	ldrb	r4, [r5, r4]	@ zero_extendqisi2
	.loc 1 638 67 discriminator 3 view .LVU161
	eor	r2, r2, r4, lsl #16
	.loc 1 640 45 discriminator 3 view .LVU162
	uxtb	r4, r0
	.loc 1 640 33 discriminator 3 view .LVU163
	ldrb	r4, [r5, r4]	@ zero_extendqisi2
	.loc 1 639 68 discriminator 3 view .LVU164
	eor	r2, r2, r4, lsl #24
	.loc 1 636 23 discriminator 3 view .LVU165
	str	r2, [r3, #32]
	.loc 1 642 17 is_stmt 1 discriminator 3 view .LVU166
	.loc 1 642 27 is_stmt 0 discriminator 3 view .LVU167
	ldr	r4, [r3, #4]
	.loc 1 642 31 discriminator 3 view .LVU168
	eors	r2, r2, r4
	.loc 1 642 23 discriminator 3 view .LVU169
	str	r2, [r3, #36]
	.loc 1 643 17 is_stmt 1 discriminator 3 view .LVU170
	.loc 1 643 28 is_stmt 0 discriminator 3 view .LVU171
	ldr	r4, [r3, #8]
	.loc 1 643 32 discriminator 3 view .LVU172
	eors	r2, r2, r4
	.loc 1 643 24 discriminator 3 view .LVU173
	str	r2, [r3, #40]
	.loc 1 644 17 is_stmt 1 discriminator 3 view .LVU174
	.loc 1 644 28 is_stmt 0 discriminator 3 view .LVU175
	ldr	r4, [r3, #12]
	.loc 1 644 32 discriminator 3 view .LVU176
	eors	r2, r2, r4
	.loc 1 644 24 discriminator 3 view .LVU177
	str	r2, [r3, #44]
	.loc 1 646 17 is_stmt 1 discriminator 3 view .LVU178
	.loc 1 646 28 is_stmt 0 discriminator 3 view .LVU179
	ldr	r4, [r3, #16]
	.loc 1 647 46 discriminator 3 view .LVU180
	uxtb	r6, r2
	.loc 1 647 33 discriminator 3 view .LVU181
	ldrb	r6, [r5, r6]	@ zero_extendqisi2
	.loc 1 646 32 discriminator 3 view .LVU182
	eors	r4, r4, r6
	.loc 1 648 51 discriminator 3 view .LVU183
	ubfx	r6, r2, #8, #8
	.loc 1 648 33 discriminator 3 view .LVU184
	ldrb	r6, [r5, r6]	@ zero_extendqisi2
	.loc 1 647 57 discriminator 3 view .LVU185
	eor	r4, r4, r6, lsl #8
	.loc 1 649 52 discriminator 3 view .LVU186
	ubfx	r6, r2, #16, #8
	.loc 1 649 33 discriminator 3 view .LVU187
	ldrb	r6, [r5, r6]	@ zero_extendqisi2
	.loc 1 648 67 discriminator 3 view .LVU188
	eor	r4, r4, r6, lsl #16
	.loc 1 650 52 discriminator 3 view .LVU189
	lsrs	r2, r2, #24
	.loc 1 650 33 discriminator 3 view .LVU190
	ldrb	r2, [r5, r2]	@ zero_extendqisi2
	.loc 1 649 69 discriminator 3 view .LVU191
	eor	r2, r4, r2, lsl #24
	.loc 1 646 24 discriminator 3 view .LVU192
	str	r2, [r3, #48]
	.loc 1 652 17 is_stmt 1 discriminator 3 view .LVU193
	.loc 1 652 28 is_stmt 0 discriminator 3 view .LVU194
	ldr	r4, [r3, #20]
	.loc 1 652 32 discriminator 3 view .LVU195
	eors	r2, r2, r4
	.loc 1 652 24 discriminator 3 view .LVU196
	str	r2, [r3, #52]
	.loc 1 653 17 is_stmt 1 discriminator 3 view .LVU197
	.loc 1 653 28 is_stmt 0 discriminator 3 view .LVU198
	ldr	r4, [r3, #24]
	.loc 1 653 32 discriminator 3 view .LVU199
	eors	r2, r2, r4
	.loc 1 653 24 discriminator 3 view .LVU200
	str	r2, [r3, #56]
	.loc 1 654 17 is_stmt 1 discriminator 3 view .LVU201
	.loc 1 654 32 is_stmt 0 discriminator 3 view .LVU202
	eors	r2, r2, r0
	.loc 1 654 24 discriminator 3 view .LVU203
	str	r2, [r3, #60]
	.loc 1 634 32 is_stmt 1 discriminator 3 view .LVU204
	.loc 1 634 33 is_stmt 0 discriminator 3 view .LVU205
	adds	r1, r1, #1
.LVL27:
	.loc 1 634 40 discriminator 3 view .LVU206
	adds	r3, r3, #32
.LVL28:
.L17:
	.loc 1 634 25 is_stmt 1 discriminator 1 view .LVU207
	.loc 1 634 13 is_stmt 0 discriminator 1 view .LVU208
	cmp	r1, #6
	bls	.L21
	.loc 1 659 11 view .LVU209
	movs	r0, #0
	b	.L9
.LVL29:
.L24:
	.loc 1 596 5 view .LVU210
	movs	r1, #0
.LVL30:
	.loc 1 596 5 view .LVU211
	b	.L17
.L32:
	.align	2
.L31:
	.word	.LANCHOR0
	.word	.LANCHOR1
	.cfi_endproc
.LFE21:
	.size	mbedtls_aes_setkey_enc, .-mbedtls_aes_setkey_enc
	.section	.text.mbedtls_aes_setkey_dec,"ax",%progbits
	.align	1
	.global	mbedtls_aes_setkey_dec
	.syntax unified
	.thumb
	.thumb_func
	.fpu fpv4-sp-d16
	.type	mbedtls_aes_setkey_dec, %function
mbedtls_aes_setkey_dec:
.LVL31:
.LFB22:
	.loc 1 669 1 is_stmt 1 view -0
	.cfi_startproc
	@ args = 0, pretend = 0, frame = 280
	@ frame_needed = 0, uses_anonymous_args = 0
	.loc 1 669 1 is_stmt 0 view .LVU213
	push	{r4, r5, r6, r7, r8, r9, lr}
	.cfi_def_cfa_offset 28
	.cfi_offset 4, -28
	.cfi_offset 5, -24
	.cfi_offset 6, -20
	.cfi_offset 7, -16
	.cfi_offset 8, -12
	.cfi_offset 9, -8
	.cfi_offset 14, -4
	sub	sp, sp, #284
	.cfi_def_cfa_offset 312
	mov	r8, r0
	mov	r4, r1
	mov	r5, r2
	.loc 1 670 5 is_stmt 1 view .LVU214
	.loc 1 671 5 view .LVU215
	.loc 1 672 5 view .LVU216
	.loc 1 673 5 view .LVU217
	.loc 1 675 5 view .LVU218
	.loc 1 675 10 view .LVU219
	.loc 1 675 17 view .LVU220
	.loc 1 676 5 view .LVU221
	.loc 1 676 10 view .LVU222
	.loc 1 676 17 view .LVU223
	.loc 1 678 5 view .LVU224
	mov	r0, sp
.LVL32:
	.loc 1 678 5 is_stmt 0 view .LVU225
	bl	mbedtls_aes_init
.LVL33:
	.loc 1 688 5 is_stmt 1 view .LVU226
	.loc 1 688 18 is_stmt 0 view .LVU227
	add	r3, r8, #8
.LVL34:
	.loc 1 688 13 view .LVU228
	str	r3, [r8, #4]
	.loc 1 691 5 is_stmt 1 view .LVU229
	.loc 1 691 17 is_stmt 0 view .LVU230
	mov	r2, r5
	mov	r1, r4
	mov	r0, sp
	bl	mbedtls_aes_setkey_enc
.LVL35:
	.loc 1 691 7 view .LVU231
	mov	r9, r0
	cmp	r0, #0
	bne	.L34
	.loc 1 694 5 is_stmt 1 view .LVU232
	.loc 1 694 18 is_stmt 0 view .LVU233
	ldr	r7, [sp]
	.loc 1 694 13 view .LVU234
	str	r7, [r8]
	.loc 1 705 5 is_stmt 1 view .LVU235
	.loc 1 705 13 is_stmt 0 view .LVU236
	ldr	r3, [sp, #4]
	.loc 1 705 17 view .LVU237
	lsls	r2, r7, #4
	.loc 1 705 8 view .LVU238
	add	r6, r3, r7, lsl #4
.LVL36:
	.loc 1 707 5 is_stmt 1 view .LVU239
	.loc 1 707 13 is_stmt 0 view .LVU240
	ldr	r3, [r3, r2]
	.loc 1 707 11 view .LVU241
	str	r3, [r8, #8]
	.loc 1 708 5 is_stmt 1 view .LVU242
.LVL37:
	.loc 1 708 13 is_stmt 0 view .LVU243
	ldr	r3, [r6, #4]
	.loc 1 708 11 view .LVU244
	str	r3, [r8, #12]
	.loc 1 709 5 is_stmt 1 view .LVU245
.LVL38:
	.loc 1 709 13 is_stmt 0 view .LVU246
	ldr	r3, [r6, #8]
	.loc 1 709 11 view .LVU247
	str	r3, [r8, #16]
	.loc 1 710 5 is_stmt 1 view .LVU248
.LVL39:
	.loc 1 710 8 is_stmt 0 view .LVU249
	add	r5, r8, #24
.LVL40:
	.loc 1 710 13 view .LVU250
	ldr	r3, [r6, #12]
	.loc 1 710 11 view .LVU251
	str	r3, [r8, #20]
	.loc 1 712 5 is_stmt 1 view .LVU252
	.loc 1 712 12 is_stmt 0 view .LVU253
	subs	r7, r7, #1
.LVL41:
	.loc 1 712 30 view .LVU254
	subs	r6, r6, #16
.LVL42:
	.loc 1 712 5 view .LVU255
	b	.L35
.LVL43:
.L36:
	.loc 1 716 13 is_stmt 1 discriminator 3 view .LVU256
	.loc 1 716 32 is_stmt 0 discriminator 3 view .LVU257
	ldr	r2, [r6], #4
.LVL44:
	.loc 1 716 38 discriminator 3 view .LVU258
	uxtb	r3, r2
	.loc 1 716 28 discriminator 3 view .LVU259
	ldr	r1, .L41
	ldrb	ip, [r1, r3]	@ zero_extendqisi2
	.loc 1 716 24 discriminator 3 view .LVU260
	ldr	r3, .L41+4
	ldr	r3, [r3, ip, lsl #2]
	.loc 1 717 43 discriminator 3 view .LVU261
	ubfx	ip, r2, #8, #8
	.loc 1 717 28 discriminator 3 view .LVU262
	ldrb	lr, [r1, ip]	@ zero_extendqisi2
	.loc 1 717 24 discriminator 3 view .LVU263
	ldr	r4, .L41+8
	ldr	r4, [r4, lr, lsl #2]
	.loc 1 716 48 discriminator 3 view .LVU264
	eors	r3, r3, r4
	.loc 1 718 44 discriminator 3 view .LVU265
	ubfx	ip, r2, #16, #8
	.loc 1 718 28 discriminator 3 view .LVU266
	ldrb	lr, [r1, ip]	@ zero_extendqisi2
	.loc 1 718 24 discriminator 3 view .LVU267
	ldr	r4, .L41+12
	ldr	r4, [r4, lr, lsl #2]
	.loc 1 717 53 discriminator 3 view .LVU268
	eors	r3, r3, r4
	.loc 1 719 44 discriminator 3 view .LVU269
	lsrs	r2, r2, #24
	.loc 1 719 28 discriminator 3 view .LVU270
	ldrb	r1, [r1, r2]	@ zero_extendqisi2
	.loc 1 719 24 discriminator 3 view .LVU271
	ldr	r2, .L41+16
	ldr	r1, [r2, r1, lsl #2]
	.loc 1 716 16 discriminator 3 view .LVU272
	mov	r2, r5
.LVL45:
	.loc 1 718 54 discriminator 3 view .LVU273
	eors	r3, r3, r1
	.loc 1 716 19 discriminator 3 view .LVU274
	str	r3, [r2], #4
.LVL46:
	.loc 1 714 28 is_stmt 1 discriminator 3 view .LVU275
	.loc 1 714 29 is_stmt 0 discriminator 3 view .LVU276
	adds	r0, r0, #1
.LVL47:
	.loc 1 716 16 discriminator 3 view .LVU277
	mov	r5, r2
.LVL48:
.L37:
	.loc 1 714 21 is_stmt 1 discriminator 1 view .LVU278
	.loc 1 714 9 is_stmt 0 discriminator 1 view .LVU279
	cmp	r0, #3
	ble	.L36
	.loc 1 712 43 is_stmt 1 discriminator 2 view .LVU280
	.loc 1 712 44 is_stmt 0 discriminator 2 view .LVU281
	subs	r7, r7, #1
.LVL49:
	.loc 1 712 51 discriminator 2 view .LVU282
	subs	r6, r6, #32
.LVL50:
.L35:
	.loc 1 712 36 is_stmt 1 discriminator 1 view .LVU283
	.loc 1 712 5 is_stmt 0 discriminator 1 view .LVU284
	cmp	r7, #0
	ble	.L40
	.loc 1 714 16 view .LVU285
	mov	r0, r9
	b	.L37
.L40:
	.loc 1 723 5 is_stmt 1 view .LVU286
.LVL51:
	.loc 1 723 13 is_stmt 0 view .LVU287
	ldr	r3, [r6]
	.loc 1 723 11 view .LVU288
	str	r3, [r5]
	.loc 1 724 5 is_stmt 1 view .LVU289
.LVL52:
	.loc 1 724 13 is_stmt 0 view .LVU290
	ldr	r3, [r6, #4]
	.loc 1 724 11 view .LVU291
	str	r3, [r5, #4]
	.loc 1 725 5 is_stmt 1 view .LVU292
.LVL53:
	.loc 1 725 13 is_stmt 0 view .LVU293
	ldr	r3, [r6, #8]
	.loc 1 725 11 view .LVU294
	str	r3, [r5, #8]
	.loc 1 726 5 is_stmt 1 view .LVU295
.LVL54:
	.loc 1 726 13 is_stmt 0 view .LVU296
	ldr	r3, [r6, #12]
	.loc 1 726 11 view .LVU297
	str	r3, [r5, #12]
.LVL55:
.L34:
	.loc 1 729 5 is_stmt 1 view .LVU298
	mov	r0, sp
	bl	mbedtls_aes_free
.LVL56:
	.loc 1 731 5 view .LVU299
	.loc 1 732 1 is_stmt 0 view .LVU300
	mov	r0, r9
	add	sp, sp, #284
	.cfi_def_cfa_offset 28
	@ sp needed
	pop	{r4, r5, r6, r7, r8, r9, pc}
.LVL57:
.L42:
	.loc 1 732 1 view .LVU301
	.align	2
.L41:
	.word	.LANCHOR1
	.word	.LANCHOR2
	.word	.LANCHOR3
	.word	.LANCHOR4
	.word	.LANCHOR5
	.cfi_endproc
.LFE22:
	.size	mbedtls_aes_setkey_dec, .-mbedtls_aes_setkey_dec
	.section	.text.mbedtls_internal_aes_encrypt,"ax",%progbits
	.align	1
	.global	mbedtls_internal_aes_encrypt
	.syntax unified
	.thumb
	.thumb_func
	.fpu fpv4-sp-d16
	.type	mbedtls_internal_aes_encrypt, %function
mbedtls_internal_aes_encrypt:
.LVL58:
.LFB23:
	.loc 1 867 1 is_stmt 1 view -0
	.cfi_startproc
	@ args = 0, pretend = 0, frame = 40
	@ frame_needed = 0, uses_anonymous_args = 0
	.loc 1 867 1 is_stmt 0 view .LVU303
	push	{r4, r5, r6, r7, r8, r9, r10, fp, lr}
	.cfi_def_cfa_offset 36
	.cfi_offset 4, -36
	.cfi_offset 5, -32
	.cfi_offset 6, -28
	.cfi_offset 7, -24
	.cfi_offset 8, -20
	.cfi_offset 9, -16
	.cfi_offset 10, -12
	.cfi_offset 11, -8
	.cfi_offset 14, -4
	sub	sp, sp, #44
	.cfi_def_cfa_offset 80
	str	r2, [sp, #4]
	.loc 1 868 5 is_stmt 1 view .LVU304
	.loc 1 869 5 view .LVU305
	.loc 1 869 15 is_stmt 0 view .LVU306
	ldr	r2, [r0, #4]
.LVL59:
	.loc 1 870 5 is_stmt 1 view .LVU307
	.loc 1 876 7 view .LVU308
	.loc 1 876 38 is_stmt 0 view .LVU309
	ldrb	r3, [r1]	@ zero_extendqisi2
	.loc 1 876 69 view .LVU310
	ldrb	r4, [r1, #1]	@ zero_extendqisi2
	.loc 1 876 47 view .LVU311
	orr	r3, r3, r4, lsl #8
	.loc 1 876 108 view .LVU312
	ldrb	r4, [r1, #2]	@ zero_extendqisi2
	.loc 1 876 86 view .LVU313
	orr	r3, r3, r4, lsl #16
	.loc 1 876 148 view .LVU314
	ldrb	r4, [r1, #3]	@ zero_extendqisi2
	.loc 1 876 126 view .LVU315
	orr	r3, r3, r4, lsl #24
	.loc 1 876 16 view .LVU316
	str	r3, [sp, #8]
	.loc 1 876 168 is_stmt 1 view .LVU317
	.loc 1 876 170 view .LVU318
.LVL60:
	.loc 1 876 180 is_stmt 0 view .LVU319
	ldr	r4, [r2]
	.loc 1 876 177 view .LVU320
	eors	r3, r3, r4
	str	r3, [sp, #8]
	.loc 1 877 7 is_stmt 1 view .LVU321
	.loc 1 877 38 is_stmt 0 view .LVU322
	ldrb	r3, [r1, #4]	@ zero_extendqisi2
	.loc 1 877 69 view .LVU323
	ldrb	r4, [r1, #5]	@ zero_extendqisi2
	.loc 1 877 47 view .LVU324
	orr	r3, r3, r4, lsl #8
	.loc 1 877 108 view .LVU325
	ldrb	r4, [r1, #6]	@ zero_extendqisi2
	.loc 1 877 86 view .LVU326
	orr	r3, r3, r4, lsl #16
	.loc 1 877 148 view .LVU327
	ldrb	r4, [r1, #7]	@ zero_extendqisi2
	.loc 1 877 126 view .LVU328
	orr	r3, r3, r4, lsl #24
	.loc 1 877 16 view .LVU329
	str	r3, [sp, #12]
	.loc 1 877 168 is_stmt 1 view .LVU330
	.loc 1 877 170 view .LVU331
.LVL61:
	.loc 1 877 180 is_stmt 0 view .LVU332
	ldr	r4, [r2, #4]
	.loc 1 877 177 view .LVU333
	eors	r3, r3, r4
	str	r3, [sp, #12]
	.loc 1 878 7 is_stmt 1 view .LVU334
	.loc 1 878 38 is_stmt 0 view .LVU335
	ldrb	r3, [r1, #8]	@ zero_extendqisi2
	.loc 1 878 69 view .LVU336
	ldrb	r4, [r1, #9]	@ zero_extendqisi2
	.loc 1 878 47 view .LVU337
	orr	r3, r3, r4, lsl #8
	.loc 1 878 108 view .LVU338
	ldrb	r4, [r1, #10]	@ zero_extendqisi2
	.loc 1 878 86 view .LVU339
	orr	r3, r3, r4, lsl #16
	.loc 1 878 148 view .LVU340
	ldrb	r4, [r1, #11]	@ zero_extendqisi2
	.loc 1 878 126 view .LVU341
	orr	r3, r3, r4, lsl #24
	.loc 1 878 16 view .LVU342
	str	r3, [sp, #16]
	.loc 1 878 168 is_stmt 1 view .LVU343
	.loc 1 878 170 view .LVU344
.LVL62:
	.loc 1 878 180 is_stmt 0 view .LVU345
	ldr	r4, [r2, #8]
	.loc 1 878 177 view .LVU346
	eors	r3, r3, r4
	str	r3, [sp, #16]
	.loc 1 879 7 is_stmt 1 view .LVU347
	.loc 1 879 38 is_stmt 0 view .LVU348
	ldrb	r3, [r1, #12]	@ zero_extendqisi2
	.loc 1 879 70 view .LVU349
	ldrb	r4, [r1, #13]	@ zero_extendqisi2
	.loc 1 879 48 view .LVU350
	orr	r3, r3, r4, lsl #8
	.loc 1 879 110 view .LVU351
	ldrb	r4, [r1, #14]	@ zero_extendqisi2
	.loc 1 879 88 view .LVU352
	orr	r3, r3, r4, lsl #16
	.loc 1 879 151 view .LVU353
	ldrb	r1, [r1, #15]	@ zero_extendqisi2
.LVL63:
	.loc 1 879 129 view .LVU354
	orr	r3, r3, r1, lsl #24
	.loc 1 879 16 view .LVU355
	str	r3, [sp, #20]
	.loc 1 879 172 is_stmt 1 view .LVU356
	.loc 1 879 174 view .LVU357
	.loc 1 879 187 is_stmt 0 view .LVU358
	add	r10, r2, #16
.LVL64:
	.loc 1 879 184 view .LVU359
	ldr	r2, [r2, #12]
	.loc 1 879 181 view .LVU360
	eors	r3, r3, r2
	str	r3, [sp, #20]
	.loc 1 881 5 is_stmt 1 view .LVU361
	.loc 1 881 19 is_stmt 0 view .LVU362
	ldr	r3, [r0]
	.loc 1 881 24 view .LVU363
	asr	fp, r3, #1
	.loc 1 881 12 view .LVU364
	add	fp, fp, #-1
.LVL65:
.L44:
	.loc 1 881 36 is_stmt 1 discriminator 1 view .LVU365
	.loc 1 881 5 is_stmt 0 discriminator 1 view .LVU366
	cmp	fp, #0
	ble	.L47
	.loc 1 883 9 is_stmt 1 discriminator 3 view .LVU367
	.loc 1 883 14 discriminator 3 view .LVU368
.LVL66:
	.loc 1 883 25 is_stmt 0 discriminator 3 view .LVU369
	ldr	r2, [r10]
	.loc 1 883 43 discriminator 3 view .LVU370
	ldr	ip, [sp, #8]
	.loc 1 883 50 discriminator 3 view .LVU371
	uxtb	r3, ip
	.loc 1 883 36 discriminator 3 view .LVU372
	ldr	r6, .L48
	ldr	r3, [r6, r3, lsl #2]
	.loc 1 883 31 discriminator 3 view .LVU373
	eors	r2, r2, r3
	.loc 1 883 70 discriminator 3 view .LVU374
	ldr	r8, [sp, #12]
	.loc 1 883 82 discriminator 3 view .LVU375
	ubfx	r3, r8, #8, #8
	.loc 1 883 63 discriminator 3 view .LVU376
	ldr	r5, .L48+4
	ldr	r3, [r5, r3, lsl #2]
	.loc 1 883 58 discriminator 3 view .LVU377
	eors	r2, r2, r3
	.loc 1 883 102 discriminator 3 view .LVU378
	ldr	r9, [sp, #16]
	.loc 1 883 115 discriminator 3 view .LVU379
	ubfx	r3, r9, #16, #8
	.loc 1 883 95 discriminator 3 view .LVU380
	ldr	r4, .L48+8
	ldr	r3, [r4, r3, lsl #2]
	.loc 1 883 90 discriminator 3 view .LVU381
	eors	r2, r2, r3
	.loc 1 883 135 discriminator 3 view .LVU382
	ldr	lr, [sp, #20]
	.loc 1 883 148 discriminator 3 view .LVU383
	lsr	r3, lr, #24
	.loc 1 883 128 discriminator 3 view .LVU384
	ldr	r0, .L48+12
	ldr	r3, [r0, r3, lsl #2]
	.loc 1 883 123 discriminator 3 view .LVU385
	eors	r2, r2, r3
	.loc 1 883 23 discriminator 3 view .LVU386
	str	r2, [sp, #24]
	.loc 1 883 157 is_stmt 1 discriminator 3 view .LVU387
.LVL67:
	.loc 1 883 168 is_stmt 0 discriminator 3 view .LVU388
	ldr	r3, [r10, #4]
	.loc 1 883 193 discriminator 3 view .LVU389
	uxtb	r1, r8
	.loc 1 883 179 discriminator 3 view .LVU390
	ldr	r1, [r6, r1, lsl #2]
	.loc 1 883 174 discriminator 3 view .LVU391
	eors	r3, r3, r1
	.loc 1 883 225 discriminator 3 view .LVU392
	ubfx	r1, r9, #8, #8
	.loc 1 883 206 discriminator 3 view .LVU393
	ldr	r1, [r5, r1, lsl #2]
	.loc 1 883 201 discriminator 3 view .LVU394
	eors	r3, r3, r1
	.loc 1 883 258 discriminator 3 view .LVU395
	ubfx	r1, lr, #16, #8
	.loc 1 883 238 discriminator 3 view .LVU396
	ldr	r1, [r4, r1, lsl #2]
	.loc 1 883 233 discriminator 3 view .LVU397
	eors	r3, r3, r1
	.loc 1 883 291 discriminator 3 view .LVU398
	lsr	r1, ip, #24
	.loc 1 883 271 discriminator 3 view .LVU399
	ldr	r1, [r0, r1, lsl #2]
	.loc 1 883 266 discriminator 3 view .LVU400
	eors	r3, r3, r1
	.loc 1 883 166 discriminator 3 view .LVU401
	str	r3, [sp]
	str	r3, [sp, #28]
	.loc 1 883 300 is_stmt 1 discriminator 3 view .LVU402
.LVL68:
	.loc 1 883 311 is_stmt 0 discriminator 3 view .LVU403
	ldr	r1, [r10, #8]
	.loc 1 883 336 discriminator 3 view .LVU404
	uxtb	r7, r9
	.loc 1 883 322 discriminator 3 view .LVU405
	ldr	r7, [r6, r7, lsl #2]
	.loc 1 883 317 discriminator 3 view .LVU406
	eors	r7, r7, r1
	.loc 1 883 368 discriminator 3 view .LVU407
	ubfx	r1, lr, #8, #8
	.loc 1 883 349 discriminator 3 view .LVU408
	ldr	r1, [r5, r1, lsl #2]
	.loc 1 883 344 discriminator 3 view .LVU409
	eors	r7, r7, r1
	.loc 1 883 401 discriminator 3 view .LVU410
	ubfx	r1, ip, #16, #8
	.loc 1 883 381 discriminator 3 view .LVU411
	ldr	r1, [r4, r1, lsl #2]
	.loc 1 883 376 discriminator 3 view .LVU412
	eors	r7, r7, r1
	.loc 1 883 434 discriminator 3 view .LVU413
	lsr	r1, r8, #24
	.loc 1 883 414 discriminator 3 view .LVU414
	ldr	r1, [r0, r1, lsl #2]
	.loc 1 883 409 discriminator 3 view .LVU415
	eors	r7, r7, r1
	.loc 1 883 309 discriminator 3 view .LVU416
	str	r7, [sp, #32]
	.loc 1 883 443 is_stmt 1 discriminator 3 view .LVU417
.LVL69:
	.loc 1 883 479 is_stmt 0 discriminator 3 view .LVU418
	uxtb	lr, lr
	.loc 1 883 465 discriminator 3 view .LVU419
	ldr	r1, [r6, lr, lsl #2]
	.loc 1 883 460 discriminator 3 view .LVU420
	ldr	r3, [r10, #12]
	eors	r1, r1, r3
	.loc 1 883 511 discriminator 3 view .LVU421
	ubfx	ip, ip, #8, #8
	.loc 1 883 492 discriminator 3 view .LVU422
	ldr	ip, [r5, ip, lsl #2]
	.loc 1 883 487 discriminator 3 view .LVU423
	eor	ip, r1, ip
	.loc 1 883 544 discriminator 3 view .LVU424
	ubfx	r8, r8, #16, #8
	.loc 1 883 524 discriminator 3 view .LVU425
	ldr	r1, [r4, r8, lsl #2]
	.loc 1 883 519 discriminator 3 view .LVU426
	eor	ip, ip, r1
	.loc 1 883 577 discriminator 3 view .LVU427
	lsr	r9, r9, #24
	.loc 1 883 557 discriminator 3 view .LVU428
	ldr	r1, [r0, r9, lsl #2]
	.loc 1 883 552 discriminator 3 view .LVU429
	eor	ip, ip, r1
	.loc 1 883 452 discriminator 3 view .LVU430
	str	ip, [sp, #36]
	.loc 1 883 593 is_stmt 1 discriminator 3 view .LVU431
	.loc 1 884 9 discriminator 3 view .LVU432
	.loc 1 884 14 discriminator 3 view .LVU433
.LVL70:
	.loc 1 884 50 is_stmt 0 discriminator 3 view .LVU434
	uxtb	lr, r2
	.loc 1 884 36 discriminator 3 view .LVU435
	ldr	r1, [r6, lr, lsl #2]
	.loc 1 884 31 discriminator 3 view .LVU436
	ldr	r3, [r10, #16]
	eor	r8, r1, r3
	.loc 1 884 82 discriminator 3 view .LVU437
	ldr	r3, [sp]
	ubfx	lr, r3, #8, #8
	.loc 1 884 63 discriminator 3 view .LVU438
	ldr	lr, [r5, lr, lsl #2]
	.loc 1 884 58 discriminator 3 view .LVU439
	eor	r1, r8, lr
	.loc 1 884 115 discriminator 3 view .LVU440
	ubfx	lr, r7, #16, #8
	.loc 1 884 95 discriminator 3 view .LVU441
	ldr	lr, [r4, lr, lsl #2]
	.loc 1 884 90 discriminator 3 view .LVU442
	eor	r1, r1, lr
	.loc 1 884 148 discriminator 3 view .LVU443
	lsr	lr, ip, #24
	.loc 1 884 128 discriminator 3 view .LVU444
	ldr	lr, [r0, lr, lsl #2]
	.loc 1 884 123 discriminator 3 view .LVU445
	eor	r1, r1, lr
	.loc 1 884 23 discriminator 3 view .LVU446
	str	r1, [sp, #8]
	.loc 1 884 157 is_stmt 1 discriminator 3 view .LVU447
.LVL71:
	.loc 1 884 193 is_stmt 0 discriminator 3 view .LVU448
	mov	r8, r3
	uxtb	lr, r3
	.loc 1 884 179 discriminator 3 view .LVU449
	ldr	r1, [r6, lr, lsl #2]
	.loc 1 884 174 discriminator 3 view .LVU450
	ldr	r3, [r10, #20]
	eors	r1, r1, r3
	.loc 1 884 225 discriminator 3 view .LVU451
	ubfx	lr, r7, #8, #8
	.loc 1 884 206 discriminator 3 view .LVU452
	ldr	lr, [r5, lr, lsl #2]
	.loc 1 884 201 discriminator 3 view .LVU453
	eor	r1, r1, lr
	.loc 1 884 258 discriminator 3 view .LVU454
	ubfx	lr, ip, #16, #8
	.loc 1 884 238 discriminator 3 view .LVU455
	ldr	lr, [r4, lr, lsl #2]
	.loc 1 884 233 discriminator 3 view .LVU456
	eor	r1, r1, lr
	.loc 1 884 291 discriminator 3 view .LVU457
	lsr	lr, r2, #24
	.loc 1 884 271 discriminator 3 view .LVU458
	ldr	lr, [r0, lr, lsl #2]
	.loc 1 884 266 discriminator 3 view .LVU459
	eor	r1, r1, lr
	.loc 1 884 166 discriminator 3 view .LVU460
	str	r1, [sp, #12]
	.loc 1 884 300 is_stmt 1 discriminator 3 view .LVU461
.LVL72:
	.loc 1 884 336 is_stmt 0 discriminator 3 view .LVU462
	uxtb	lr, r7
	.loc 1 884 322 discriminator 3 view .LVU463
	ldr	r1, [r6, lr, lsl #2]
	.loc 1 884 317 discriminator 3 view .LVU464
	ldr	r3, [r10, #24]
	eors	r1, r1, r3
	.loc 1 884 368 discriminator 3 view .LVU465
	ubfx	lr, ip, #8, #8
	.loc 1 884 349 discriminator 3 view .LVU466
	ldr	lr, [r5, lr, lsl #2]
	.loc 1 884 344 discriminator 3 view .LVU467
	eor	r1, r1, lr
	.loc 1 884 401 discriminator 3 view .LVU468
	ubfx	lr, r2, #16, #8
	.loc 1 884 381 discriminator 3 view .LVU469
	ldr	lr, [r4, lr, lsl #2]
	.loc 1 884 376 discriminator 3 view .LVU470
	eor	r9, r1, lr
	.loc 1 884 434 discriminator 3 view .LVU471
	lsr	lr, r8, #24
	.loc 1 884 414 discriminator 3 view .LVU472
	ldr	lr, [r0, lr, lsl #2]
	.loc 1 884 409 discriminator 3 view .LVU473
	eor	r1, r9, lr
	.loc 1 884 309 discriminator 3 view .LVU474
	str	r1, [sp, #16]
	.loc 1 884 443 is_stmt 1 discriminator 3 view .LVU475
.LVL73:
	.loc 1 884 454 is_stmt 0 discriminator 3 view .LVU476
	ldr	r1, [r10, #28]
	.loc 1 884 479 discriminator 3 view .LVU477
	uxtb	ip, ip
	.loc 1 884 465 discriminator 3 view .LVU478
	ldr	r6, [r6, ip, lsl #2]
	.loc 1 884 460 discriminator 3 view .LVU479
	eors	r1, r1, r6
	.loc 1 884 511 discriminator 3 view .LVU480
	ubfx	r2, r2, #8, #8
	.loc 1 884 492 discriminator 3 view .LVU481
	ldr	r2, [r5, r2, lsl #2]
	.loc 1 884 487 discriminator 3 view .LVU482
	eors	r1, r1, r2
	.loc 1 884 544 discriminator 3 view .LVU483
	ubfx	r3, r8, #16, #8
	.loc 1 884 524 discriminator 3 view .LVU484
	ldr	r3, [r4, r3, lsl #2]
	.loc 1 884 519 discriminator 3 view .LVU485
	eors	r1, r1, r3
	.loc 1 884 577 discriminator 3 view .LVU486
	lsrs	r7, r7, #24
	.loc 1 884 557 discriminator 3 view .LVU487
	ldr	r3, [r0, r7, lsl #2]
	.loc 1 884 552 discriminator 3 view .LVU488
	eors	r1, r1, r3
	.loc 1 884 452 discriminator 3 view .LVU489
	str	r1, [sp, #20]
	.loc 1 884 593 is_stmt 1 discriminator 3 view .LVU490
	.loc 1 881 43 discriminator 3 view .LVU491
	.loc 1 881 44 is_stmt 0 discriminator 3 view .LVU492
	add	fp, fp, #-1
.LVL74:
	.loc 1 884 457 discriminator 3 view .LVU493
	add	r10, r10, #32
.LVL75:
	.loc 1 884 457 discriminator 3 view .LVU494
	b	.L44
.L47:
	.loc 1 887 5 is_stmt 1 view .LVU495
	.loc 1 887 10 view .LVU496
.LVL76:
	.loc 1 887 21 is_stmt 0 view .LVU497
	ldr	r3, [r10]
	.loc 1 887 39 view .LVU498
	ldr	r4, [sp, #8]
	.loc 1 887 46 view .LVU499
	uxtb	r2, r4
	.loc 1 887 32 view .LVU500
	ldr	lr, .L48
	ldr	r2, [lr, r2, lsl #2]
	.loc 1 887 27 view .LVU501
	eors	r2, r2, r3
	.loc 1 887 66 view .LVU502
	ldr	r0, [sp, #12]
	.loc 1 887 78 view .LVU503
	ubfx	r3, r0, #8, #8
	.loc 1 887 59 view .LVU504
	ldr	ip, .L48+4
	ldr	r3, [ip, r3, lsl #2]
	.loc 1 887 54 view .LVU505
	eors	r2, r2, r3
	.loc 1 887 98 view .LVU506
	ldr	r1, [sp, #16]
	.loc 1 887 111 view .LVU507
	ubfx	r3, r1, #16, #8
	.loc 1 887 91 view .LVU508
	ldr	r7, .L48+8
	ldr	r3, [r7, r3, lsl #2]
	.loc 1 887 86 view .LVU509
	eors	r2, r2, r3
	.loc 1 887 131 view .LVU510
	ldr	r5, [sp, #20]
	.loc 1 887 144 view .LVU511
	lsrs	r3, r5, #24
	.loc 1 887 124 view .LVU512
	ldr	r6, .L48+12
	ldr	r3, [r6, r3, lsl #2]
	.loc 1 887 119 view .LVU513
	eors	r2, r2, r3
	.loc 1 887 19 view .LVU514
	str	r2, [sp, #24]
	.loc 1 887 153 is_stmt 1 view .LVU515
.LVL77:
	.loc 1 887 189 is_stmt 0 view .LVU516
	uxtb	r8, r0
	.loc 1 887 175 view .LVU517
	ldr	r8, [lr, r8, lsl #2]
	.loc 1 887 170 view .LVU518
	ldr	r3, [r10, #4]
	eor	r8, r3, r8
	.loc 1 887 221 view .LVU519
	ubfx	r3, r1, #8, #8
	.loc 1 887 202 view .LVU520
	ldr	r3, [ip, r3, lsl #2]
	.loc 1 887 197 view .LVU521
	eor	r8, r8, r3
	.loc 1 887 254 view .LVU522
	ubfx	r3, r5, #16, #8
	.loc 1 887 234 view .LVU523
	ldr	r3, [r7, r3, lsl #2]
	.loc 1 887 229 view .LVU524
	eor	r8, r8, r3
	.loc 1 887 287 view .LVU525
	lsrs	r3, r4, #24
	.loc 1 887 267 view .LVU526
	ldr	r3, [r6, r3, lsl #2]
	.loc 1 887 262 view .LVU527
	eor	r8, r8, r3
	.loc 1 887 162 view .LVU528
	str	r8, [sp, #28]
	.loc 1 887 296 is_stmt 1 view .LVU529
.LVL78:
	.loc 1 887 332 is_stmt 0 view .LVU530
	uxtb	r9, r1
	.loc 1 887 318 view .LVU531
	ldr	r9, [lr, r9, lsl #2]
	.loc 1 887 313 view .LVU532
	ldr	r3, [r10, #8]
	eor	r9, r3, r9
	.loc 1 887 364 view .LVU533
	ubfx	r3, r5, #8, #8
	.loc 1 887 345 view .LVU534
	ldr	r3, [ip, r3, lsl #2]
	.loc 1 887 340 view .LVU535
	eor	r9, r9, r3
	.loc 1 887 397 view .LVU536
	ubfx	r3, r4, #16, #8
	.loc 1 887 377 view .LVU537
	ldr	r3, [r7, r3, lsl #2]
	.loc 1 887 372 view .LVU538
	eor	r9, r9, r3
	.loc 1 887 430 view .LVU539
	lsrs	r3, r0, #24
	.loc 1 887 410 view .LVU540
	ldr	r3, [r6, r3, lsl #2]
	.loc 1 887 405 view .LVU541
	eor	r9, r9, r3
	.loc 1 887 305 view .LVU542
	str	r9, [sp, #32]
	.loc 1 887 439 is_stmt 1 view .LVU543
.LVL79:
	.loc 1 887 450 is_stmt 0 view .LVU544
	ldr	r3, [r10, #12]
	.loc 1 887 475 view .LVU545
	uxtb	r5, r5
	.loc 1 887 461 view .LVU546
	ldr	r5, [lr, r5, lsl #2]
	.loc 1 887 456 view .LVU547
	eors	r3, r3, r5
	.loc 1 887 507 view .LVU548
	ubfx	r4, r4, #8, #8
	.loc 1 887 488 view .LVU549
	ldr	r4, [ip, r4, lsl #2]
	.loc 1 887 483 view .LVU550
	eors	r3, r3, r4
	.loc 1 887 540 view .LVU551
	ubfx	r0, r0, #16, #8
	.loc 1 887 520 view .LVU552
	ldr	r0, [r7, r0, lsl #2]
	.loc 1 887 515 view .LVU553
	eors	r3, r3, r0
	.loc 1 887 573 view .LVU554
	lsrs	r1, r1, #24
	.loc 1 887 553 view .LVU555
	ldr	r6, [r6, r1, lsl #2]
	.loc 1 887 548 view .LVU556
	eors	r6, r6, r3
	.loc 1 887 448 view .LVU557
	str	r6, [sp, #36]
	.loc 1 887 589 is_stmt 1 view .LVU558
	.loc 1 889 5 view .LVU559
.LVL80:
	.loc 1 889 14 is_stmt 0 view .LVU560
	ldr	r1, [r10, #16]
	.loc 1 890 42 view .LVU561
	uxtb	r0, r2
	.loc 1 890 29 view .LVU562
	ldr	r3, .L48+16
	ldrb	r0, [r3, r0]	@ zero_extendqisi2
	.loc 1 889 20 view .LVU563
	eors	r0, r0, r1
	.loc 1 891 47 view .LVU564
	ubfx	r1, r8, #8, #8
	.loc 1 891 29 view .LVU565
	ldrb	r1, [r3, r1]	@ zero_extendqisi2
	.loc 1 890 53 view .LVU566
	eor	r0, r0, r1, lsl #8
	.loc 1 892 48 view .LVU567
	ubfx	r1, r9, #16, #8
	.loc 1 892 29 view .LVU568
	ldrb	r1, [r3, r1]	@ zero_extendqisi2
	.loc 1 891 63 view .LVU569
	eor	r0, r0, r1, lsl #16
	.loc 1 893 48 view .LVU570
	lsrs	r1, r6, #24
	.loc 1 893 29 view .LVU571
	ldrb	r1, [r3, r1]	@ zero_extendqisi2
	.loc 1 892 65 view .LVU572
	eor	r0, r0, r1, lsl #24
	.loc 1 889 12 view .LVU573
	str	r0, [sp, #8]
	.loc 1 895 5 is_stmt 1 view .LVU574
.LVL81:
	.loc 1 895 14 is_stmt 0 view .LVU575
	ldr	r1, [r10, #20]
	.loc 1 896 42 view .LVU576
	uxtb	r4, r8
	.loc 1 896 29 view .LVU577
	ldrb	r4, [r3, r4]	@ zero_extendqisi2
	.loc 1 895 20 view .LVU578
	eors	r1, r1, r4
	.loc 1 897 47 view .LVU579
	ubfx	r4, r9, #8, #8
	.loc 1 897 29 view .LVU580
	ldrb	r4, [r3, r4]	@ zero_extendqisi2
	.loc 1 896 53 view .LVU581
	eor	r1, r1, r4, lsl #8
	.loc 1 898 48 view .LVU582
	ubfx	r4, r6, #16, #8
	.loc 1 898 29 view .LVU583
	ldrb	r4, [r3, r4]	@ zero_extendqisi2
	.loc 1 897 63 view .LVU584
	eor	r1, r1, r4, lsl #16
	.loc 1 899 48 view .LVU585
	lsrs	r4, r2, #24
	.loc 1 899 29 view .LVU586
	ldrb	r4, [r3, r4]	@ zero_extendqisi2
	.loc 1 898 65 view .LVU587
	eor	r1, r1, r4, lsl #24
	.loc 1 895 12 view .LVU588
	str	r1, [sp, #12]
	.loc 1 901 5 is_stmt 1 view .LVU589
.LVL82:
	.loc 1 901 14 is_stmt 0 view .LVU590
	ldr	r4, [r10, #24]
	.loc 1 902 42 view .LVU591
	uxtb	r5, r9
	.loc 1 902 29 view .LVU592
	ldrb	r5, [r3, r5]	@ zero_extendqisi2
	.loc 1 901 20 view .LVU593
	eors	r5, r5, r4
	.loc 1 903 47 view .LVU594
	ubfx	r4, r6, #8, #8
	.loc 1 903 29 view .LVU595
	ldrb	r4, [r3, r4]	@ zero_extendqisi2
	.loc 1 902 53 view .LVU596
	eor	r5, r5, r4, lsl #8
	.loc 1 904 48 view .LVU597
	ubfx	r4, r2, #16, #8
	.loc 1 904 29 view .LVU598
	ldrb	r4, [r3, r4]	@ zero_extendqisi2
	.loc 1 903 63 view .LVU599
	eor	r5, r5, r4, lsl #16
	.loc 1 905 48 view .LVU600
	lsr	r4, r8, #24
	.loc 1 905 29 view .LVU601
	ldrb	r4, [r3, r4]	@ zero_extendqisi2
	.loc 1 904 65 view .LVU602
	eor	r5, r5, r4, lsl #24
	.loc 1 901 12 view .LVU603
	str	r5, [sp, #16]
	.loc 1 907 5 is_stmt 1 view .LVU604
.LVL83:
	.loc 1 907 14 is_stmt 0 view .LVU605
	ldr	r4, [r10, #28]
	.loc 1 908 42 view .LVU606
	uxtb	r6, r6
	.loc 1 908 29 view .LVU607
	ldrb	r6, [r3, r6]	@ zero_extendqisi2
	.loc 1 907 20 view .LVU608
	eors	r4, r4, r6
	.loc 1 909 47 view .LVU609
	ubfx	r2, r2, #8, #8
	.loc 1 909 29 view .LVU610
	ldrb	r2, [r3, r2]	@ zero_extendqisi2
	.loc 1 908 53 view .LVU611
	eor	r4, r4, r2, lsl #8
	.loc 1 910 48 view .LVU612
	ubfx	r8, r8, #16, #8
	.loc 1 910 29 view .LVU613
	ldrb	r2, [r3, r8]	@ zero_extendqisi2
	.loc 1 909 63 view .LVU614
	eor	r4, r4, r2, lsl #16
	.loc 1 911 48 view .LVU615
	lsr	r9, r9, #24
	.loc 1 911 29 view .LVU616
	ldrb	r3, [r3, r9]	@ zero_extendqisi2
	.loc 1 910 65 view .LVU617
	eor	r3, r4, r3, lsl #24
	.loc 1 907 12 view .LVU618
	str	r3, [sp, #20]
	.loc 1 913 7 is_stmt 1 view .LVU619
	.loc 1 913 22 is_stmt 0 view .LVU620
	ldr	r4, [sp, #4]
	strb	r0, [r4]
	.loc 1 913 65 is_stmt 1 view .LVU621
	.loc 1 913 85 is_stmt 0 view .LVU622
	ubfx	r2, r0, #8, #8
	.loc 1 913 83 view .LVU623
	strb	r2, [r4, #1]
	.loc 1 913 131 is_stmt 1 view .LVU624
	.loc 1 913 151 is_stmt 0 view .LVU625
	ubfx	r2, r0, #16, #8
	.loc 1 913 149 view .LVU626
	strb	r2, [r4, #2]
	.loc 1 913 198 is_stmt 1 view .LVU627
	.loc 1 913 218 is_stmt 0 view .LVU628
	lsrs	r0, r0, #24
	.loc 1 913 216 view .LVU629
	strb	r0, [r4, #3]
	.loc 1 913 266 is_stmt 1 view .LVU630
	.loc 1 914 7 view .LVU631
	.loc 1 914 22 is_stmt 0 view .LVU632
	strb	r1, [r4, #4]
	.loc 1 914 65 is_stmt 1 view .LVU633
	.loc 1 914 85 is_stmt 0 view .LVU634
	ubfx	r2, r1, #8, #8
	.loc 1 914 83 view .LVU635
	strb	r2, [r4, #5]
	.loc 1 914 131 is_stmt 1 view .LVU636
	.loc 1 914 151 is_stmt 0 view .LVU637
	ubfx	r2, r1, #16, #8
	.loc 1 914 149 view .LVU638
	strb	r2, [r4, #6]
	.loc 1 914 198 is_stmt 1 view .LVU639
	.loc 1 914 218 is_stmt 0 view .LVU640
	lsrs	r1, r1, #24
	.loc 1 914 216 view .LVU641
	strb	r1, [r4, #7]
	.loc 1 914 266 is_stmt 1 view .LVU642
	.loc 1 915 7 view .LVU643
	.loc 1 915 22 is_stmt 0 view .LVU644
	strb	r5, [r4, #8]
	.loc 1 915 65 is_stmt 1 view .LVU645
	.loc 1 915 85 is_stmt 0 view .LVU646
	ubfx	r2, r5, #8, #8
	.loc 1 915 83 view .LVU647
	strb	r2, [r4, #9]
	.loc 1 915 131 is_stmt 1 view .LVU648
	.loc 1 915 151 is_stmt 0 view .LVU649
	ubfx	r2, r5, #16, #8
	.loc 1 915 149 view .LVU650
	strb	r2, [r4, #10]
	.loc 1 915 198 is_stmt 1 view .LVU651
	.loc 1 915 218 is_stmt 0 view .LVU652
	lsrs	r2, r5, #24
	.loc 1 915 216 view .LVU653
	strb	r2, [r4, #11]
	.loc 1 915 266 is_stmt 1 view .LVU654
	.loc 1 916 7 view .LVU655
	.loc 1 916 23 is_stmt 0 view .LVU656
	strb	r3, [r4, #12]
	.loc 1 916 66 is_stmt 1 view .LVU657
	.loc 1 916 87 is_stmt 0 view .LVU658
	ubfx	r2, r3, #8, #8
	.loc 1 916 85 view .LVU659
	strb	r2, [r4, #13]
	.loc 1 916 133 is_stmt 1 view .LVU660
	.loc 1 916 154 is_stmt 0 view .LVU661
	ubfx	r2, r3, #16, #8
	.loc 1 916 152 view .LVU662
	strb	r2, [r4, #14]
	.loc 1 916 201 is_stmt 1 view .LVU663
	.loc 1 916 222 is_stmt 0 view .LVU664
	lsrs	r3, r3, #24
	.loc 1 916 220 view .LVU665
	strb	r3, [r4, #15]
	.loc 1 916 270 is_stmt 1 view .LVU666
	.loc 1 918 5 view .LVU667
	movs	r1, #32
	add	r0, sp, #8
	bl	mbedtls_platform_zeroize
.LVL84:
	.loc 1 920 5 view .LVU668
	.loc 1 921 1 is_stmt 0 view .LVU669
	movs	r0, #0
	add	sp, sp, #44
	.cfi_def_cfa_offset 36
	@ sp needed
	pop	{r4, r5, r6, r7, r8, r9, r10, fp, pc}
.LVL85:
.L49:
	.loc 1 921 1 view .LVU670
	.align	2
.L48:
	.word	.LANCHOR6
	.word	.LANCHOR7
	.word	.LANCHOR8
	.word	.LANCHOR9
	.word	.LANCHOR1
	.cfi_endproc
.LFE23:
	.size	mbedtls_internal_aes_encrypt, .-mbedtls_internal_aes_encrypt
	.section	.text.mbedtls_internal_aes_decrypt,"ax",%progbits
	.align	1
	.global	mbedtls_internal_aes_decrypt
	.syntax unified
	.thumb
	.thumb_func
	.fpu fpv4-sp-d16
	.type	mbedtls_internal_aes_decrypt, %function
mbedtls_internal_aes_decrypt:
.LVL86:
.LFB24:
	.loc 1 931 1 is_stmt 1 view -0
	.cfi_startproc
	@ args = 0, pretend = 0, frame = 40
	@ frame_needed = 0, uses_anonymous_args = 0
	.loc 1 931 1 is_stmt 0 view .LVU672
	push	{r4, r5, r6, r7, r8, r9, r10, fp, lr}
	.cfi_def_cfa_offset 36
	.cfi_offset 4, -36
	.cfi_offset 5, -32
	.cfi_offset 6, -28
	.cfi_offset 7, -24
	.cfi_offset 8, -20
	.cfi_offset 9, -16
	.cfi_offset 10, -12
	.cfi_offset 11, -8
	.cfi_offset 14, -4
	sub	sp, sp, #44
	.cfi_def_cfa_offset 80
	str	r2, [sp, #4]
	.loc 1 932 5 is_stmt 1 view .LVU673
	.loc 1 933 5 view .LVU674
	.loc 1 933 15 is_stmt 0 view .LVU675
	ldr	r2, [r0, #4]
.LVL87:
	.loc 1 934 5 is_stmt 1 view .LVU676
	.loc 1 940 7 view .LVU677
	.loc 1 940 38 is_stmt 0 view .LVU678
	ldrb	r3, [r1]	@ zero_extendqisi2
	.loc 1 940 69 view .LVU679
	ldrb	r4, [r1, #1]	@ zero_extendqisi2
	.loc 1 940 47 view .LVU680
	orr	r3, r3, r4, lsl #8
	.loc 1 940 108 view .LVU681
	ldrb	r4, [r1, #2]	@ zero_extendqisi2
	.loc 1 940 86 view .LVU682
	orr	r3, r3, r4, lsl #16
	.loc 1 940 148 view .LVU683
	ldrb	r4, [r1, #3]	@ zero_extendqisi2
	.loc 1 940 126 view .LVU684
	orr	r3, r3, r4, lsl #24
	.loc 1 940 16 view .LVU685
	str	r3, [sp, #8]
	.loc 1 940 168 is_stmt 1 view .LVU686
	.loc 1 940 170 view .LVU687
.LVL88:
	.loc 1 940 180 is_stmt 0 view .LVU688
	ldr	r4, [r2]
	.loc 1 940 177 view .LVU689
	eors	r3, r3, r4
	str	r3, [sp, #8]
	.loc 1 941 7 is_stmt 1 view .LVU690
	.loc 1 941 38 is_stmt 0 view .LVU691
	ldrb	r3, [r1, #4]	@ zero_extendqisi2
	.loc 1 941 69 view .LVU692
	ldrb	r4, [r1, #5]	@ zero_extendqisi2
	.loc 1 941 47 view .LVU693
	orr	r3, r3, r4, lsl #8
	.loc 1 941 108 view .LVU694
	ldrb	r4, [r1, #6]	@ zero_extendqisi2
	.loc 1 941 86 view .LVU695
	orr	r3, r3, r4, lsl #16
	.loc 1 941 148 view .LVU696
	ldrb	r4, [r1, #7]	@ zero_extendqisi2
	.loc 1 941 126 view .LVU697
	orr	r3, r3, r4, lsl #24
	.loc 1 941 16 view .LVU698
	str	r3, [sp, #12]
	.loc 1 941 168 is_stmt 1 view .LVU699
	.loc 1 941 170 view .LVU700
.LVL89:
	.loc 1 941 180 is_stmt 0 view .LVU701
	ldr	r4, [r2, #4]
	.loc 1 941 177 view .LVU702
	eors	r3, r3, r4
	str	r3, [sp, #12]
	.loc 1 942 7 is_stmt 1 view .LVU703
	.loc 1 942 38 is_stmt 0 view .LVU704
	ldrb	r3, [r1, #8]	@ zero_extendqisi2
	.loc 1 942 69 view .LVU705
	ldrb	r4, [r1, #9]	@ zero_extendqisi2
	.loc 1 942 47 view .LVU706
	orr	r3, r3, r4, lsl #8
	.loc 1 942 108 view .LVU707
	ldrb	r4, [r1, #10]	@ zero_extendqisi2
	.loc 1 942 86 view .LVU708
	orr	r3, r3, r4, lsl #16
	.loc 1 942 148 view .LVU709
	ldrb	r4, [r1, #11]	@ zero_extendqisi2
	.loc 1 942 126 view .LVU710
	orr	r3, r3, r4, lsl #24
	.loc 1 942 16 view .LVU711
	str	r3, [sp, #16]
	.loc 1 942 168 is_stmt 1 view .LVU712
	.loc 1 942 170 view .LVU713
.LVL90:
	.loc 1 942 180 is_stmt 0 view .LVU714
	ldr	r4, [r2, #8]
	.loc 1 942 177 view .LVU715
	eors	r3, r3, r4
	str	r3, [sp, #16]
	.loc 1 943 7 is_stmt 1 view .LVU716
	.loc 1 943 38 is_stmt 0 view .LVU717
	ldrb	r3, [r1, #12]	@ zero_extendqisi2
	.loc 1 943 70 view .LVU718
	ldrb	r4, [r1, #13]	@ zero_extendqisi2
	.loc 1 943 48 view .LVU719
	orr	r3, r3, r4, lsl #8
	.loc 1 943 110 view .LVU720
	ldrb	r4, [r1, #14]	@ zero_extendqisi2
	.loc 1 943 88 view .LVU721
	orr	r3, r3, r4, lsl #16
	.loc 1 943 151 view .LVU722
	ldrb	r1, [r1, #15]	@ zero_extendqisi2
.LVL91:
	.loc 1 943 129 view .LVU723
	orr	r3, r3, r1, lsl #24
	.loc 1 943 16 view .LVU724
	str	r3, [sp, #20]
	.loc 1 943 172 is_stmt 1 view .LVU725
	.loc 1 943 174 view .LVU726
	.loc 1 943 187 is_stmt 0 view .LVU727
	add	r10, r2, #16
.LVL92:
	.loc 1 943 184 view .LVU728
	ldr	r2, [r2, #12]
	.loc 1 943 181 view .LVU729
	eors	r3, r3, r2
	str	r3, [sp, #20]
	.loc 1 945 5 is_stmt 1 view .LVU730
	.loc 1 945 19 is_stmt 0 view .LVU731
	ldr	r3, [r0]
	.loc 1 945 24 view .LVU732
	asr	fp, r3, #1
	.loc 1 945 12 view .LVU733
	add	fp, fp, #-1
.LVL93:
.L51:
	.loc 1 945 36 is_stmt 1 discriminator 1 view .LVU734
	.loc 1 945 5 is_stmt 0 discriminator 1 view .LVU735
	cmp	fp, #0
	ble	.L54
	.loc 1 947 9 is_stmt 1 discriminator 3 view .LVU736
	.loc 1 947 14 discriminator 3 view .LVU737
.LVL94:
	.loc 1 947 25 is_stmt 0 discriminator 3 view .LVU738
	ldr	r3, [r10]
	.loc 1 947 43 discriminator 3 view .LVU739
	ldr	r9, [sp, #8]
	.loc 1 947 50 discriminator 3 view .LVU740
	uxtb	r2, r9
	.loc 1 947 36 discriminator 3 view .LVU741
	ldr	r6, .L55
	ldr	r2, [r6, r2, lsl #2]
	.loc 1 947 31 discriminator 3 view .LVU742
	eors	r3, r3, r2
	.loc 1 947 70 discriminator 3 view .LVU743
	ldr	lr, [sp, #20]
	.loc 1 947 82 discriminator 3 view .LVU744
	ubfx	r2, lr, #8, #8
	.loc 1 947 63 discriminator 3 view .LVU745
	ldr	r5, .L55+4
	ldr	r2, [r5, r2, lsl #2]
	.loc 1 947 58 discriminator 3 view .LVU746
	eors	r3, r3, r2
	.loc 1 947 102 discriminator 3 view .LVU747
	ldr	ip, [sp, #16]
	.loc 1 947 115 discriminator 3 view .LVU748
	ubfx	r2, ip, #16, #8
	.loc 1 947 95 discriminator 3 view .LVU749
	ldr	r4, .L55+8
	ldr	r2, [r4, r2, lsl #2]
	.loc 1 947 90 discriminator 3 view .LVU750
	eors	r3, r3, r2
	.loc 1 947 135 discriminator 3 view .LVU751
	ldr	r8, [sp, #12]
	.loc 1 947 148 discriminator 3 view .LVU752
	lsr	r2, r8, #24
	.loc 1 947 128 discriminator 3 view .LVU753
	ldr	r0, .L55+12
	ldr	r2, [r0, r2, lsl #2]
	.loc 1 947 123 discriminator 3 view .LVU754
	eors	r3, r3, r2
	.loc 1 947 23 discriminator 3 view .LVU755
	str	r3, [sp]
	str	r3, [sp, #24]
	.loc 1 947 157 is_stmt 1 discriminator 3 view .LVU756
.LVL95:
	.loc 1 947 168 is_stmt 0 discriminator 3 view .LVU757
	ldr	r2, [r10, #4]
	.loc 1 947 193 discriminator 3 view .LVU758
	uxtb	r1, r8
	.loc 1 947 179 discriminator 3 view .LVU759
	ldr	r1, [r6, r1, lsl #2]
	.loc 1 947 174 discriminator 3 view .LVU760
	eors	r2, r2, r1
	.loc 1 947 225 discriminator 3 view .LVU761
	ubfx	r1, r9, #8, #8
	.loc 1 947 206 discriminator 3 view .LVU762
	ldr	r1, [r5, r1, lsl #2]
	.loc 1 947 201 discriminator 3 view .LVU763
	eors	r2, r2, r1
	.loc 1 947 258 discriminator 3 view .LVU764
	ubfx	r1, lr, #16, #8
	.loc 1 947 238 discriminator 3 view .LVU765
	ldr	r1, [r4, r1, lsl #2]
	.loc 1 947 233 discriminator 3 view .LVU766
	eors	r2, r2, r1
	.loc 1 947 291 discriminator 3 view .LVU767
	lsr	r1, ip, #24
	.loc 1 947 271 discriminator 3 view .LVU768
	ldr	r1, [r0, r1, lsl #2]
	.loc 1 947 266 discriminator 3 view .LVU769
	eors	r2, r2, r1
	.loc 1 947 166 discriminator 3 view .LVU770
	str	r2, [sp, #28]
	.loc 1 947 300 is_stmt 1 discriminator 3 view .LVU771
.LVL96:
	.loc 1 947 311 is_stmt 0 discriminator 3 view .LVU772
	ldr	r1, [r10, #8]
	.loc 1 947 336 discriminator 3 view .LVU773
	uxtb	r7, ip
	.loc 1 947 322 discriminator 3 view .LVU774
	ldr	r7, [r6, r7, lsl #2]
	.loc 1 947 317 discriminator 3 view .LVU775
	eors	r7, r7, r1
	.loc 1 947 368 discriminator 3 view .LVU776
	ubfx	r1, r8, #8, #8
	.loc 1 947 349 discriminator 3 view .LVU777
	ldr	r1, [r5, r1, lsl #2]
	.loc 1 947 344 discriminator 3 view .LVU778
	eors	r7, r7, r1
	.loc 1 947 401 discriminator 3 view .LVU779
	ubfx	r1, r9, #16, #8
	.loc 1 947 381 discriminator 3 view .LVU780
	ldr	r1, [r4, r1, lsl #2]
	.loc 1 947 376 discriminator 3 view .LVU781
	eors	r7, r7, r1
	.loc 1 947 434 discriminator 3 view .LVU782
	lsr	r1, lr, #24
	.loc 1 947 414 discriminator 3 view .LVU783
	ldr	r1, [r0, r1, lsl #2]
	.loc 1 947 409 discriminator 3 view .LVU784
	eors	r7, r7, r1
	.loc 1 947 309 discriminator 3 view .LVU785
	str	r7, [sp, #32]
	.loc 1 947 443 is_stmt 1 discriminator 3 view .LVU786
.LVL97:
	.loc 1 947 479 is_stmt 0 discriminator 3 view .LVU787
	uxtb	lr, lr
	.loc 1 947 465 discriminator 3 view .LVU788
	ldr	r1, [r6, lr, lsl #2]
	.loc 1 947 460 discriminator 3 view .LVU789
	ldr	r3, [r10, #12]
	eors	r1, r1, r3
	.loc 1 947 511 discriminator 3 view .LVU790
	ubfx	ip, ip, #8, #8
	.loc 1 947 492 discriminator 3 view .LVU791
	ldr	ip, [r5, ip, lsl #2]
	.loc 1 947 487 discriminator 3 view .LVU792
	eor	ip, r1, ip
	.loc 1 947 544 discriminator 3 view .LVU793
	ubfx	r8, r8, #16, #8
	.loc 1 947 524 discriminator 3 view .LVU794
	ldr	r1, [r4, r8, lsl #2]
	.loc 1 947 519 discriminator 3 view .LVU795
	eor	ip, ip, r1
	.loc 1 947 577 discriminator 3 view .LVU796
	lsr	r9, r9, #24
	.loc 1 947 557 discriminator 3 view .LVU797
	ldr	r1, [r0, r9, lsl #2]
	.loc 1 947 552 discriminator 3 view .LVU798
	eor	ip, ip, r1
	.loc 1 947 452 discriminator 3 view .LVU799
	str	ip, [sp, #36]
	.loc 1 947 593 is_stmt 1 discriminator 3 view .LVU800
	.loc 1 948 9 discriminator 3 view .LVU801
	.loc 1 948 14 discriminator 3 view .LVU802
.LVL98:
	.loc 1 948 50 is_stmt 0 discriminator 3 view .LVU803
	ldr	r8, [sp]
	uxtb	lr, r8
	.loc 1 948 36 discriminator 3 view .LVU804
	ldr	r1, [r6, lr, lsl #2]
	.loc 1 948 31 discriminator 3 view .LVU805
	ldr	r3, [r10, #16]
	eors	r1, r1, r3
	.loc 1 948 82 discriminator 3 view .LVU806
	ubfx	lr, ip, #8, #8
	.loc 1 948 63 discriminator 3 view .LVU807
	ldr	lr, [r5, lr, lsl #2]
	.loc 1 948 58 discriminator 3 view .LVU808
	eor	r1, r1, lr
	.loc 1 948 115 discriminator 3 view .LVU809
	ubfx	lr, r7, #16, #8
	.loc 1 948 95 discriminator 3 view .LVU810
	ldr	lr, [r4, lr, lsl #2]
	.loc 1 948 90 discriminator 3 view .LVU811
	eor	r1, r1, lr
	.loc 1 948 148 discriminator 3 view .LVU812
	lsr	lr, r2, #24
	.loc 1 948 128 discriminator 3 view .LVU813
	ldr	lr, [r0, lr, lsl #2]
	.loc 1 948 123 discriminator 3 view .LVU814
	eor	r1, r1, lr
	.loc 1 948 23 discriminator 3 view .LVU815
	str	r1, [sp, #8]
	.loc 1 948 157 is_stmt 1 discriminator 3 view .LVU816
.LVL99:
	.loc 1 948 193 is_stmt 0 discriminator 3 view .LVU817
	uxtb	lr, r2
	.loc 1 948 179 discriminator 3 view .LVU818
	ldr	r1, [r6, lr, lsl #2]
	.loc 1 948 174 discriminator 3 view .LVU819
	ldr	r3, [r10, #20]
	eors	r1, r1, r3
	.loc 1 948 225 discriminator 3 view .LVU820
	ubfx	lr, r8, #8, #8
	.loc 1 948 206 discriminator 3 view .LVU821
	ldr	lr, [r5, lr, lsl #2]
	.loc 1 948 201 discriminator 3 view .LVU822
	eor	r1, r1, lr
	.loc 1 948 258 discriminator 3 view .LVU823
	ubfx	lr, ip, #16, #8
	.loc 1 948 238 discriminator 3 view .LVU824
	ldr	lr, [r4, lr, lsl #2]
	.loc 1 948 233 discriminator 3 view .LVU825
	eor	r1, r1, lr
	.loc 1 948 291 discriminator 3 view .LVU826
	lsr	lr, r7, #24
	.loc 1 948 271 discriminator 3 view .LVU827
	ldr	lr, [r0, lr, lsl #2]
	.loc 1 948 266 discriminator 3 view .LVU828
	eor	r1, r1, lr
	.loc 1 948 166 discriminator 3 view .LVU829
	str	r1, [sp, #12]
	.loc 1 948 300 is_stmt 1 discriminator 3 view .LVU830
.LVL100:
	.loc 1 948 336 is_stmt 0 discriminator 3 view .LVU831
	uxtb	lr, r7
	.loc 1 948 322 discriminator 3 view .LVU832
	ldr	r1, [r6, lr, lsl #2]
	.loc 1 948 317 discriminator 3 view .LVU833
	ldr	r3, [r10, #24]
	eors	r1, r1, r3
	.loc 1 948 368 discriminator 3 view .LVU834
	ubfx	lr, r2, #8, #8
	.loc 1 948 349 discriminator 3 view .LVU835
	ldr	lr, [r5, lr, lsl #2]
	.loc 1 948 344 discriminator 3 view .LVU836
	eor	r9, r1, lr
	.loc 1 948 401 discriminator 3 view .LVU837
	mov	r3, r8
	ubfx	lr, r8, #16, #8
	.loc 1 948 381 discriminator 3 view .LVU838
	ldr	lr, [r4, lr, lsl #2]
	.loc 1 948 376 discriminator 3 view .LVU839
	eor	r1, r9, lr
	.loc 1 948 434 discriminator 3 view .LVU840
	lsr	lr, ip, #24
	.loc 1 948 414 discriminator 3 view .LVU841
	ldr	lr, [r0, lr, lsl #2]
	.loc 1 948 409 discriminator 3 view .LVU842
	eor	r1, r1, lr
	.loc 1 948 309 discriminator 3 view .LVU843
	str	r1, [sp, #16]
	.loc 1 948 443 is_stmt 1 discriminator 3 view .LVU844
.LVL101:
	.loc 1 948 454 is_stmt 0 discriminator 3 view .LVU845
	ldr	r1, [r10, #28]
	.loc 1 948 479 discriminator 3 view .LVU846
	uxtb	ip, ip
	.loc 1 948 465 discriminator 3 view .LVU847
	ldr	r6, [r6, ip, lsl #2]
	.loc 1 948 460 discriminator 3 view .LVU848
	eors	r1, r1, r6
	.loc 1 948 511 discriminator 3 view .LVU849
	ubfx	r7, r7, #8, #8
	.loc 1 948 492 discriminator 3 view .LVU850
	ldr	r5, [r5, r7, lsl #2]
	.loc 1 948 487 discriminator 3 view .LVU851
	eors	r1, r1, r5
	.loc 1 948 544 discriminator 3 view .LVU852
	ubfx	r2, r2, #16, #8
	.loc 1 948 524 discriminator 3 view .LVU853
	ldr	r2, [r4, r2, lsl #2]
	.loc 1 948 519 discriminator 3 view .LVU854
	eors	r1, r1, r2
	.loc 1 948 577 discriminator 3 view .LVU855
	lsrs	r3, r3, #24
	.loc 1 948 557 discriminator 3 view .LVU856
	ldr	r3, [r0, r3, lsl #2]
	.loc 1 948 552 discriminator 3 view .LVU857
	eors	r1, r1, r3
	.loc 1 948 452 discriminator 3 view .LVU858
	str	r1, [sp, #20]
	.loc 1 948 593 is_stmt 1 discriminator 3 view .LVU859
	.loc 1 945 43 discriminator 3 view .LVU860
	.loc 1 945 44 is_stmt 0 discriminator 3 view .LVU861
	add	fp, fp, #-1
.LVL102:
	.loc 1 948 457 discriminator 3 view .LVU862
	add	r10, r10, #32
.LVL103:
	.loc 1 948 457 discriminator 3 view .LVU863
	b	.L51
.L54:
	.loc 1 951 5 is_stmt 1 view .LVU864
	.loc 1 951 10 view .LVU865
.LVL104:
	.loc 1 951 21 is_stmt 0 view .LVU866
	ldr	r3, [r10]
	.loc 1 951 39 view .LVU867
	ldr	r1, [sp, #8]
	.loc 1 951 46 view .LVU868
	uxtb	r2, r1
	.loc 1 951 32 view .LVU869
	ldr	lr, .L55
	ldr	r2, [lr, r2, lsl #2]
	.loc 1 951 27 view .LVU870
	eors	r3, r3, r2
	.loc 1 951 66 view .LVU871
	ldr	r5, [sp, #20]
	.loc 1 951 78 view .LVU872
	ubfx	r2, r5, #8, #8
	.loc 1 951 59 view .LVU873
	ldr	ip, .L55+4
	ldr	r2, [ip, r2, lsl #2]
	.loc 1 951 54 view .LVU874
	eors	r3, r3, r2
	.loc 1 951 98 view .LVU875
	ldr	r4, [sp, #16]
	.loc 1 951 111 view .LVU876
	ubfx	r2, r4, #16, #8
	.loc 1 951 91 view .LVU877
	ldr	r7, .L55+8
	ldr	r2, [r7, r2, lsl #2]
	.loc 1 951 86 view .LVU878
	eors	r3, r3, r2
	.loc 1 951 131 view .LVU879
	ldr	r0, [sp, #12]
	.loc 1 951 144 view .LVU880
	lsrs	r2, r0, #24
	.loc 1 951 124 view .LVU881
	ldr	r6, .L55+12
	ldr	r2, [r6, r2, lsl #2]
	.loc 1 951 119 view .LVU882
	eors	r3, r3, r2
	.loc 1 951 19 view .LVU883
	str	r3, [sp, #24]
	.loc 1 951 153 is_stmt 1 view .LVU884
.LVL105:
	.loc 1 951 189 is_stmt 0 view .LVU885
	uxtb	r8, r0
	.loc 1 951 175 view .LVU886
	ldr	r8, [lr, r8, lsl #2]
	.loc 1 951 170 view .LVU887
	ldr	r2, [r10, #4]
	eor	r8, r2, r8
	.loc 1 951 221 view .LVU888
	ubfx	r2, r1, #8, #8
	.loc 1 951 202 view .LVU889
	ldr	r2, [ip, r2, lsl #2]
	.loc 1 951 197 view .LVU890
	eor	r8, r8, r2
	.loc 1 951 254 view .LVU891
	ubfx	r2, r5, #16, #8
	.loc 1 951 234 view .LVU892
	ldr	r2, [r7, r2, lsl #2]
	.loc 1 951 229 view .LVU893
	eor	r8, r8, r2
	.loc 1 951 287 view .LVU894
	lsrs	r2, r4, #24
	.loc 1 951 267 view .LVU895
	ldr	r2, [r6, r2, lsl #2]
	.loc 1 951 262 view .LVU896
	eor	r8, r8, r2
	.loc 1 951 162 view .LVU897
	str	r8, [sp, #28]
	.loc 1 951 296 is_stmt 1 view .LVU898
.LVL106:
	.loc 1 951 332 is_stmt 0 view .LVU899
	uxtb	r9, r4
	.loc 1 951 318 view .LVU900
	ldr	r9, [lr, r9, lsl #2]
	.loc 1 951 313 view .LVU901
	ldr	r2, [r10, #8]
	eor	r9, r2, r9
	.loc 1 951 364 view .LVU902
	ubfx	r2, r0, #8, #8
	.loc 1 951 345 view .LVU903
	ldr	r2, [ip, r2, lsl #2]
	.loc 1 951 340 view .LVU904
	eor	r9, r9, r2
	.loc 1 951 397 view .LVU905
	ubfx	r2, r1, #16, #8
	.loc 1 951 377 view .LVU906
	ldr	r2, [r7, r2, lsl #2]
	.loc 1 951 372 view .LVU907
	eor	r9, r9, r2
	.loc 1 951 430 view .LVU908
	lsrs	r2, r5, #24
	.loc 1 951 410 view .LVU909
	ldr	r2, [r6, r2, lsl #2]
	.loc 1 951 405 view .LVU910
	eor	r9, r9, r2
	.loc 1 951 305 view .LVU911
	str	r9, [sp, #32]
	.loc 1 951 439 is_stmt 1 view .LVU912
.LVL107:
	.loc 1 951 450 is_stmt 0 view .LVU913
	ldr	r2, [r10, #12]
	.loc 1 951 475 view .LVU914
	uxtb	r5, r5
	.loc 1 951 461 view .LVU915
	ldr	r5, [lr, r5, lsl #2]
	.loc 1 951 456 view .LVU916
	eors	r2, r2, r5
	.loc 1 951 507 view .LVU917
	ubfx	r4, r4, #8, #8
	.loc 1 951 488 view .LVU918
	ldr	r4, [ip, r4, lsl #2]
	.loc 1 951 483 view .LVU919
	eors	r2, r2, r4
	.loc 1 951 540 view .LVU920
	ubfx	r0, r0, #16, #8
	.loc 1 951 520 view .LVU921
	ldr	r0, [r7, r0, lsl #2]
	.loc 1 951 515 view .LVU922
	eors	r2, r2, r0
	.loc 1 951 573 view .LVU923
	lsrs	r1, r1, #24
	.loc 1 951 553 view .LVU924
	ldr	r6, [r6, r1, lsl #2]
	.loc 1 951 548 view .LVU925
	eors	r6, r6, r2
	.loc 1 951 448 view .LVU926
	str	r6, [sp, #36]
	.loc 1 951 589 is_stmt 1 view .LVU927
	.loc 1 953 5 view .LVU928
.LVL108:
	.loc 1 953 14 is_stmt 0 view .LVU929
	ldr	r1, [r10, #16]
	.loc 1 954 42 view .LVU930
	uxtb	r0, r3
	.loc 1 954 29 view .LVU931
	ldr	r2, .L55+16
	ldrb	r0, [r2, r0]	@ zero_extendqisi2
	.loc 1 953 20 view .LVU932
	eors	r0, r0, r1
	.loc 1 955 47 view .LVU933
	ubfx	r1, r6, #8, #8
	.loc 1 955 29 view .LVU934
	ldrb	r1, [r2, r1]	@ zero_extendqisi2
	.loc 1 954 53 view .LVU935
	eor	r0, r0, r1, lsl #8
	.loc 1 956 48 view .LVU936
	ubfx	r1, r9, #16, #8
	.loc 1 956 29 view .LVU937
	ldrb	r1, [r2, r1]	@ zero_extendqisi2
	.loc 1 955 63 view .LVU938
	eor	r0, r0, r1, lsl #16
	.loc 1 957 48 view .LVU939
	lsr	r1, r8, #24
	.loc 1 957 29 view .LVU940
	ldrb	r1, [r2, r1]	@ zero_extendqisi2
	.loc 1 956 65 view .LVU941
	eor	r0, r0, r1, lsl #24
	.loc 1 953 12 view .LVU942
	str	r0, [sp, #8]
	.loc 1 959 5 is_stmt 1 view .LVU943
.LVL109:
	.loc 1 959 14 is_stmt 0 view .LVU944
	ldr	r1, [r10, #20]
	.loc 1 960 42 view .LVU945
	uxtb	r4, r8
	.loc 1 960 29 view .LVU946
	ldrb	r4, [r2, r4]	@ zero_extendqisi2
	.loc 1 959 20 view .LVU947
	eors	r1, r1, r4
	.loc 1 961 47 view .LVU948
	ubfx	r4, r3, #8, #8
	.loc 1 961 29 view .LVU949
	ldrb	r4, [r2, r4]	@ zero_extendqisi2
	.loc 1 960 53 view .LVU950
	eor	r1, r1, r4, lsl #8
	.loc 1 962 48 view .LVU951
	ubfx	r4, r6, #16, #8
	.loc 1 962 29 view .LVU952
	ldrb	r4, [r2, r4]	@ zero_extendqisi2
	.loc 1 961 63 view .LVU953
	eor	r1, r1, r4, lsl #16
	.loc 1 963 48 view .LVU954
	lsr	r4, r9, #24
	.loc 1 963 29 view .LVU955
	ldrb	r4, [r2, r4]	@ zero_extendqisi2
	.loc 1 962 65 view .LVU956
	eor	r1, r1, r4, lsl #24
	.loc 1 959 12 view .LVU957
	str	r1, [sp, #12]
	.loc 1 965 5 is_stmt 1 view .LVU958
.LVL110:
	.loc 1 965 14 is_stmt 0 view .LVU959
	ldr	r4, [r10, #24]
	.loc 1 966 42 view .LVU960
	uxtb	r5, r9
	.loc 1 966 29 view .LVU961
	ldrb	r5, [r2, r5]	@ zero_extendqisi2
	.loc 1 965 20 view .LVU962
	eors	r5, r5, r4
	.loc 1 967 47 view .LVU963
	ubfx	r4, r8, #8, #8
	.loc 1 967 29 view .LVU964
	ldrb	r4, [r2, r4]	@ zero_extendqisi2
	.loc 1 966 53 view .LVU965
	eor	r5, r5, r4, lsl #8
	.loc 1 968 48 view .LVU966
	ubfx	r4, r3, #16, #8
	.loc 1 968 29 view .LVU967
	ldrb	r4, [r2, r4]	@ zero_extendqisi2
	.loc 1 967 63 view .LVU968
	eor	r5, r5, r4, lsl #16
	.loc 1 969 48 view .LVU969
	lsrs	r4, r6, #24
	.loc 1 969 29 view .LVU970
	ldrb	r4, [r2, r4]	@ zero_extendqisi2
	.loc 1 968 65 view .LVU971
	eor	r5, r5, r4, lsl #24
	.loc 1 965 12 view .LVU972
	str	r5, [sp, #16]
	.loc 1 971 5 is_stmt 1 view .LVU973
.LVL111:
	.loc 1 971 14 is_stmt 0 view .LVU974
	ldr	r4, [r10, #28]
	.loc 1 972 42 view .LVU975
	uxtb	r6, r6
	.loc 1 972 29 view .LVU976
	ldrb	r6, [r2, r6]	@ zero_extendqisi2
	.loc 1 971 20 view .LVU977
	eors	r4, r4, r6
	.loc 1 973 47 view .LVU978
	ubfx	r9, r9, #8, #8
	.loc 1 973 29 view .LVU979
	ldrb	r6, [r2, r9]	@ zero_extendqisi2
	.loc 1 972 53 view .LVU980
	eor	r4, r4, r6, lsl #8
	.loc 1 974 48 view .LVU981
	ubfx	r8, r8, #16, #8
	.loc 1 974 29 view .LVU982
	ldrb	r6, [r2, r8]	@ zero_extendqisi2
	.loc 1 973 63 view .LVU983
	eor	r4, r4, r6, lsl #16
	.loc 1 975 48 view .LVU984
	lsrs	r3, r3, #24
	.loc 1 975 29 view .LVU985
	ldrb	r3, [r2, r3]	@ zero_extendqisi2
	.loc 1 974 65 view .LVU986
	eor	r3, r4, r3, lsl #24
	.loc 1 971 12 view .LVU987
	str	r3, [sp, #20]
	.loc 1 977 7 is_stmt 1 view .LVU988
	.loc 1 977 22 is_stmt 0 view .LVU989
	ldr	r4, [sp, #4]
	strb	r0, [r4]
	.loc 1 977 65 is_stmt 1 view .LVU990
	.loc 1 977 85 is_stmt 0 view .LVU991
	ubfx	r2, r0, #8, #8
	.loc 1 977 83 view .LVU992
	strb	r2, [r4, #1]
	.loc 1 977 131 is_stmt 1 view .LVU993
	.loc 1 977 151 is_stmt 0 view .LVU994
	ubfx	r2, r0, #16, #8
	.loc 1 977 149 view .LVU995
	strb	r2, [r4, #2]
	.loc 1 977 198 is_stmt 1 view .LVU996
	.loc 1 977 218 is_stmt 0 view .LVU997
	lsrs	r0, r0, #24
	.loc 1 977 216 view .LVU998
	strb	r0, [r4, #3]
	.loc 1 977 266 is_stmt 1 view .LVU999
	.loc 1 978 7 view .LVU1000
	.loc 1 978 22 is_stmt 0 view .LVU1001
	strb	r1, [r4, #4]
	.loc 1 978 65 is_stmt 1 view .LVU1002
	.loc 1 978 85 is_stmt 0 view .LVU1003
	ubfx	r2, r1, #8, #8
	.loc 1 978 83 view .LVU1004
	strb	r2, [r4, #5]
	.loc 1 978 131 is_stmt 1 view .LVU1005
	.loc 1 978 151 is_stmt 0 view .LVU1006
	ubfx	r2, r1, #16, #8
	.loc 1 978 149 view .LVU1007
	strb	r2, [r4, #6]
	.loc 1 978 198 is_stmt 1 view .LVU1008
	.loc 1 978 218 is_stmt 0 view .LVU1009
	lsrs	r1, r1, #24
	.loc 1 978 216 view .LVU1010
	strb	r1, [r4, #7]
	.loc 1 978 266 is_stmt 1 view .LVU1011
	.loc 1 979 7 view .LVU1012
	.loc 1 979 22 is_stmt 0 view .LVU1013
	strb	r5, [r4, #8]
	.loc 1 979 65 is_stmt 1 view .LVU1014
	.loc 1 979 85 is_stmt 0 view .LVU1015
	ubfx	r2, r5, #8, #8
	.loc 1 979 83 view .LVU1016
	strb	r2, [r4, #9]
	.loc 1 979 131 is_stmt 1 view .LVU1017
	.loc 1 979 151 is_stmt 0 view .LVU1018
	ubfx	r2, r5, #16, #8
	.loc 1 979 149 view .LVU1019
	strb	r2, [r4, #10]
	.loc 1 979 198 is_stmt 1 view .LVU1020
	.loc 1 979 218 is_stmt 0 view .LVU1021
	lsrs	r2, r5, #24
	.loc 1 979 216 view .LVU1022
	strb	r2, [r4, #11]
	.loc 1 979 266 is_stmt 1 view .LVU1023
	.loc 1 980 7 view .LVU1024
	.loc 1 980 23 is_stmt 0 view .LVU1025
	strb	r3, [r4, #12]
	.loc 1 980 66 is_stmt 1 view .LVU1026
	.loc 1 980 87 is_stmt 0 view .LVU1027
	ubfx	r2, r3, #8, #8
	.loc 1 980 85 view .LVU1028
	strb	r2, [r4, #13]
	.loc 1 980 133 is_stmt 1 view .LVU1029
	.loc 1 980 154 is_stmt 0 view .LVU1030
	ubfx	r2, r3, #16, #8
	.loc 1 980 152 view .LVU1031
	strb	r2, [r4, #14]
	.loc 1 980 201 is_stmt 1 view .LVU1032
	.loc 1 980 222 is_stmt 0 view .LVU1033
	lsrs	r3, r3, #24
	.loc 1 980 220 view .LVU1034
	strb	r3, [r4, #15]
	.loc 1 980 270 is_stmt 1 view .LVU1035
	.loc 1 982 5 view .LVU1036
	movs	r1, #32
	add	r0, sp, #8
	bl	mbedtls_platform_zeroize
.LVL112:
	.loc 1 984 5 view .LVU1037
	.loc 1 985 1 is_stmt 0 view .LVU1038
	movs	r0, #0
	add	sp, sp, #44
	.cfi_def_cfa_offset 36
	@ sp needed
	pop	{r4, r5, r6, r7, r8, r9, r10, fp, pc}
.LVL113:
.L56:
	.loc 1 985 1 view .LVU1039
	.align	2
.L55:
	.word	.LANCHOR2
	.word	.LANCHOR3
	.word	.LANCHOR4
	.word	.LANCHOR5
	.word	.LANCHOR10
	.cfi_endproc
.LFE24:
	.size	mbedtls_internal_aes_decrypt, .-mbedtls_internal_aes_decrypt
	.section	.text.mbedtls_aes_crypt_ecb,"ax",%progbits
	.align	1
	.global	mbedtls_aes_crypt_ecb
	.syntax unified
	.thumb
	.thumb_func
	.fpu fpv4-sp-d16
	.type	mbedtls_aes_crypt_ecb, %function
mbedtls_aes_crypt_ecb:
.LVL114:
.LFB25:
	.loc 1 995 1 is_stmt 1 view -0
	.cfi_startproc
	@ args = 0, pretend = 0, frame = 0
	@ frame_needed = 0, uses_anonymous_args = 0
	.loc 1 995 1 is_stmt 0 view .LVU1041
	push	{r4, lr}
	.cfi_def_cfa_offset 8
	.cfi_offset 4, -8
	.cfi_offset 14, -4
	mov	r4, r1
	mov	r1, r2
.LVL115:
	.loc 1 995 1 view .LVU1042
	mov	r2, r3
.LVL116:
	.loc 1 996 5 is_stmt 1 view .LVU1043
	.loc 1 996 10 view .LVU1044
	.loc 1 996 17 view .LVU1045
	.loc 1 997 5 view .LVU1046
	.loc 1 997 10 view .LVU1047
	.loc 1 997 17 view .LVU1048
	.loc 1 998 5 view .LVU1049
	.loc 1 998 10 view .LVU1050
	.loc 1 998 17 view .LVU1051
	.loc 1 999 5 view .LVU1052
	.loc 1 999 10 view .LVU1053
	.loc 1 999 17 view .LVU1054
	.loc 1 1019 5 view .LVU1055
	.loc 1 1019 7 is_stmt 0 view .LVU1056
	cmp	r4, #1
	beq	.L61
	.loc 1 1022 9 is_stmt 1 view .LVU1057
	.loc 1 1022 17 is_stmt 0 view .LVU1058
	bl	mbedtls_internal_aes_decrypt
.LVL117:
.L57:
	.loc 1 1023 1 view .LVU1059
	pop	{r4, pc}
.LVL118:
.L61:
	.loc 1 1020 9 is_stmt 1 view .LVU1060
	.loc 1 1020 17 is_stmt 0 view .LVU1061
	bl	mbedtls_internal_aes_encrypt
.LVL119:
	.loc 1 1020 17 view .LVU1062
	b	.L57
	.cfi_endproc
.LFE25:
	.size	mbedtls_aes_crypt_ecb, .-mbedtls_aes_crypt_ecb
	.section	.text.mbedtls_aes_crypt_cbc,"ax",%progbits
	.align	1
	.global	mbedtls_aes_crypt_cbc
	.syntax unified
	.thumb
	.thumb_func
	.fpu fpv4-sp-d16
	.type	mbedtls_aes_crypt_cbc, %function
mbedtls_aes_crypt_cbc:
.LVL120:
.LFB26:
	.loc 1 1035 1 is_stmt 1 view -0
	.cfi_startproc
	@ args = 8, pretend = 0, frame = 16
	@ frame_needed = 0, uses_anonymous_args = 0
	.loc 1 1035 1 is_stmt 0 view .LVU1064
	push	{r4, r5, r6, r7, r8, r9, r10, lr}
	.cfi_def_cfa_offset 32
	.cfi_offset 4, -32
	.cfi_offset 5, -28
	.cfi_offset 6, -24
	.cfi_offset 7, -20
	.cfi_offset 8, -16
	.cfi_offset 9, -12
	.cfi_offset 10, -8
	.cfi_offset 14, -4
	sub	sp, sp, #16
	.cfi_def_cfa_offset 48
	ldr	r7, [sp, #48]
	ldr	r5, [sp, #52]
	.loc 1 1036 5 is_stmt 1 view .LVU1065
	.loc 1 1037 5 view .LVU1066
	.loc 1 1039 5 view .LVU1067
	.loc 1 1039 10 view .LVU1068
	.loc 1 1039 17 view .LVU1069
	.loc 1 1040 5 view .LVU1070
	.loc 1 1040 10 view .LVU1071
	.loc 1 1040 17 view .LVU1072
	.loc 1 1042 5 view .LVU1073
	.loc 1 1042 10 view .LVU1074
	.loc 1 1042 17 view .LVU1075
	.loc 1 1043 5 view .LVU1076
	.loc 1 1043 10 view .LVU1077
	.loc 1 1043 17 view .LVU1078
	.loc 1 1044 5 view .LVU1079
	.loc 1 1044 10 view .LVU1080
	.loc 1 1044 17 view .LVU1081
	.loc 1 1046 5 view .LVU1082
	.loc 1 1046 7 is_stmt 0 view .LVU1083
	tst	r2, #15
	bne	.L71
	mov	r10, r0
	mov	r9, r1
	mov	r8, r2
	mov	r6, r3
	.loc 1 1061 5 is_stmt 1 view .LVU1084
	.loc 1 1061 7 is_stmt 0 view .LVU1085
	cbz	r1, .L64
	b	.L65
.LVL121:
.L75:
	.loc 1 1071 12 is_stmt 1 view .LVU1086
.LBB10:
.LBI10:
	.loc 2 83 216 view .LVU1087
.LBB11:
	.loc 2 83 292 view .LVU1088
	.loc 2 83 299 is_stmt 0 view .LVU1089
	mov	r4, sp
.LVL122:
	.loc 2 83 299 view .LVU1090
	ldmia	r4!, {r0, r1, r2, r3}
	str	r0, [r6]	@ unaligned
	str	r1, [r6, #4]	@ unaligned
	str	r2, [r6, #8]	@ unaligned
	str	r3, [r6, #12]	@ unaligned
.LVL123:
	.loc 2 83 299 view .LVU1091
.LBE11:
.LBE10:
	.loc 1 1073 13 is_stmt 1 view .LVU1092
	.loc 1 1073 19 is_stmt 0 view .LVU1093
	adds	r7, r7, #16
.LVL124:
	.loc 1 1074 13 is_stmt 1 view .LVU1094
	.loc 1 1074 20 is_stmt 0 view .LVU1095
	adds	r5, r5, #16
.LVL125:
	.loc 1 1075 13 is_stmt 1 view .LVU1096
	.loc 1 1075 20 is_stmt 0 view .LVU1097
	sub	r8, r8, #16
.LVL126:
.L64:
	.loc 1 1063 14 is_stmt 1 view .LVU1098
	cmp	r8, #0
	beq	.L74
	.loc 1 1065 12 discriminator 1 view .LVU1099
	mov	r4, sp
	ldr	r0, [r7]	@ unaligned
	ldr	r1, [r7, #4]	@ unaligned
	ldr	r2, [r7, #8]	@ unaligned
	ldr	r3, [r7, #12]	@ unaligned
	stmia	r4!, {r0, r1, r2, r3}
	.loc 1 1066 13 discriminator 1 view .LVU1100
	mov	r3, r5
	mov	r2, r7
	mov	r1, r9
	mov	r0, r10
	bl	mbedtls_aes_crypt_ecb
.LVL127:
	.loc 1 1068 13 discriminator 1 view .LVU1101
	.loc 1 1068 20 is_stmt 0 discriminator 1 view .LVU1102
	mov	r4, r9
.LVL128:
.L66:
	.loc 1 1068 25 is_stmt 1 discriminator 1 view .LVU1103
	.loc 1 1068 13 is_stmt 0 discriminator 1 view .LVU1104
	cmp	r4, #15
	bgt	.L75
	.loc 1 1069 17 is_stmt 1 discriminator 3 view .LVU1105
	.loc 1 1069 52 is_stmt 0 discriminator 3 view .LVU1106
	ldrb	r3, [r5, r4]	@ zero_extendqisi2
	.loc 1 1069 60 discriminator 3 view .LVU1107
	ldrb	r2, [r6, r4]	@ zero_extendqisi2
	.loc 1 1069 29 discriminator 3 view .LVU1108
	eors	r3, r3, r2
	.loc 1 1069 27 discriminator 3 view .LVU1109
	strb	r3, [r5, r4]
	.loc 1 1068 33 is_stmt 1 discriminator 3 view .LVU1110
	.loc 1 1068 34 is_stmt 0 discriminator 3 view .LVU1111
	adds	r4, r4, #1
.LVL129:
	.loc 1 1068 34 discriminator 3 view .LVU1112
	b	.L66
.LVL130:
.L74:
	.loc 1 1094 11 view .LVU1113
	mov	r0, r9
.LVL131:
.L62:
	.loc 1 1095 1 view .LVU1114
	add	sp, sp, #16
	.cfi_remember_state
	.cfi_def_cfa_offset 32
	@ sp needed
	pop	{r4, r5, r6, r7, r8, r9, r10, pc}
.LVL132:
.L77:
	.cfi_restore_state
	.loc 1 1085 13 is_stmt 1 view .LVU1115
	mov	r3, r5
	mov	r2, r5
	mov	r1, r9
	mov	r0, r10
	bl	mbedtls_aes_crypt_ecb
.LVL133:
	.loc 1 1086 12 view .LVU1116
.LBB12:
.LBI12:
	.loc 2 83 216 view .LVU1117
.LBB13:
	.loc 2 83 292 view .LVU1118
	.loc 2 83 299 is_stmt 0 view .LVU1119
	ldr	r0, [r5]	@ unaligned
	ldr	r1, [r5, #4]	@ unaligned
	ldr	r2, [r5, #8]	@ unaligned
	ldr	r3, [r5, #12]	@ unaligned
	str	r0, [r6]	@ unaligned
	str	r1, [r6, #4]	@ unaligned
	str	r2, [r6, #8]	@ unaligned
	str	r3, [r6, #12]	@ unaligned
.LVL134:
	.loc 2 83 299 view .LVU1120
.LBE13:
.LBE12:
	.loc 1 1088 13 is_stmt 1 view .LVU1121
	.loc 1 1088 19 is_stmt 0 view .LVU1122
	adds	r7, r7, #16
.LVL135:
	.loc 1 1089 13 is_stmt 1 view .LVU1123
	.loc 1 1089 20 is_stmt 0 view .LVU1124
	adds	r5, r5, #16
.LVL136:
	.loc 1 1090 13 is_stmt 1 view .LVU1125
	.loc 1 1090 20 is_stmt 0 view .LVU1126
	sub	r8, r8, #16
.LVL137:
.L65:
	.loc 1 1080 14 is_stmt 1 view .LVU1127
	cmp	r8, #0
	beq	.L76
	.loc 1 1082 20 is_stmt 0 view .LVU1128
	movs	r4, #0
.L70:
.LVL138:
	.loc 1 1082 25 is_stmt 1 discriminator 1 view .LVU1129
	.loc 1 1082 13 is_stmt 0 discriminator 1 view .LVU1130
	cmp	r4, #15
	bgt	.L77
	.loc 1 1083 17 is_stmt 1 discriminator 3 view .LVU1131
	.loc 1 1083 51 is_stmt 0 discriminator 3 view .LVU1132
	ldrb	r3, [r7, r4]	@ zero_extendqisi2
	.loc 1 1083 59 discriminator 3 view .LVU1133
	ldrb	r2, [r6, r4]	@ zero_extendqisi2
	.loc 1 1083 29 discriminator 3 view .LVU1134
	eors	r3, r3, r2
	.loc 1 1083 27 discriminator 3 view .LVU1135
	strb	r3, [r5, r4]
	.loc 1 1082 33 is_stmt 1 discriminator 3 view .LVU1136
	.loc 1 1082 34 is_stmt 0 discriminator 3 view .LVU1137
	adds	r4, r4, #1
.LVL139:
	.loc 1 1082 34 discriminator 3 view .LVU1138
	b	.L70
.LVL140:
.L76:
	.loc 1 1094 11 view .LVU1139
	movs	r0, #0
	b	.L62
.LVL141:
.L71:
	.loc 1 1047 15 view .LVU1140
	mvn	r0, #33
.LVL142:
	.loc 1 1047 15 view .LVU1141
	b	.L62
	.cfi_endproc
.LFE26:
	.size	mbedtls_aes_crypt_cbc, .-mbedtls_aes_crypt_cbc
	.section	.rodata.FSb,"a"
	.align	2
	.set	.LANCHOR1,. + 0
	.type	FSb, %object
	.size	FSb, 256
FSb:
	.ascii	"c|w{\362ko\3050\001g+\376\327\253v\312\202\311}\372"
	.ascii	"YG\360\255\324\242\257\234\244r\300\267\375\223&6?\367"
	.ascii	"\3144\245\345\361q\3301\025\004\307#\303\030\226\005"
	.ascii	"\232\007\022\200\342\353'\262u\011\203,\032\033nZ\240"
	.ascii	"R;\326\263)\343/\204S\321\000\355 \374\261[j\313\276"
	.ascii	"9JLX\317\320\357\252\373CM3\205E\371\002\177P<\237\250"
	.ascii	"Q\243@\217\222\2358\365\274\266\332!\020\377\363\322"
	.ascii	"\315\014\023\354_\227D\027\304\247~=d]\031s`\201O\334"
	.ascii	"\"*\220\210F\356\270\024\336^\013\333\3402:\012I\006"
	.ascii	"$\\\302\323\254b\221\225\344y\347\3107m\215\325N\251"
	.ascii	"lV\364\352ez\256\010\272x%.\034\246\264\306\350\335"
	.ascii	"t\037K\275\213\212p>\265fH\003\366\016a5W\271\206\301"
	.ascii	"\035\236\341\370\230\021i\331\216\224\233\036\207\351"
	.ascii	"\316U(\337\214\241\211\015\277\346BhA\231-\017\260T"
	.ascii	"\273\026"
	.section	.rodata.FT0,"a"
	.align	2
	.set	.LANCHOR6,. + 0
	.type	FT0, %object
	.size	FT0, 1024
FT0:
	.word	-1520213050
	.word	-2072216328
	.word	-1720223762
	.word	-1921287178
	.word	234025727
	.word	-1117033514
	.word	-1318096930
	.word	1422247313
	.word	1345335392
	.word	50397442
	.word	-1452841010
	.word	2099981142
	.word	436141799
	.word	1658312629
	.word	-424957107
	.word	-1703512340
	.word	1170918031
	.word	-1652391393
	.word	1086966153
	.word	-2021818886
	.word	368769775
	.word	-346465870
	.word	-918075506
	.word	200339707
	.word	-324162239
	.word	1742001331
	.word	-39673249
	.word	-357585083
	.word	-1080255453
	.word	-140204973
	.word	-1770884380
	.word	1539358875
	.word	-1028147339
	.word	486407649
	.word	-1366060227
	.word	1780885068
	.word	1513502316
	.word	1094664062
	.word	49805301
	.word	1338821763
	.word	1546925160
	.word	-190470831
	.word	887481809
	.word	150073849
	.word	-1821281822
	.word	1943591083
	.word	1395732834
	.word	1058346282
	.word	201589768
	.word	1388824469
	.word	1696801606
	.word	1589887901
	.word	672667696
	.word	-1583966665
	.word	251987210
	.word	-1248159185
	.word	151455502
	.word	907153956
	.word	-1686077413
	.word	1038279391
	.word	652995533
	.word	1764173646
	.word	-843926913
	.word	-1619692054
	.word	453576978
	.word	-1635548387
	.word	1949051992
	.word	773462580
	.word	756751158
	.word	-1301385508
	.word	-296068428
	.word	-73359269
	.word	-162377052
	.word	1295727478
	.word	1641469623
	.word	-827083907
	.word	2066295122
	.word	1055122397
	.word	1898917726
	.word	-1752923117
	.word	-179088474
	.word	1758581177
	.word	0
	.word	753790401
	.word	1612718144
	.word	536673507
	.word	-927878791
	.word	-312779850
	.word	-1100322092
	.word	1187761037
	.word	-641810841
	.word	1262041458
	.word	-565556588
	.word	-733197160
	.word	-396863312
	.word	1255133061
	.word	1808847035
	.word	720367557
	.word	-441800113
	.word	385612781
	.word	-985447546
	.word	-682799718
	.word	1429418854
	.word	-1803188975
	.word	-817543798
	.word	284817897
	.word	100794884
	.word	-2122350594
	.word	-263171936
	.word	1144798328
	.word	-1163944155
	.word	-475486133
	.word	-212774494
	.word	-22830243
	.word	-1069531008
	.word	-1970303227
	.word	-1382903233
	.word	-1130521311
	.word	1211644016
	.word	83228145
	.word	-541279133
	.word	-1044990345
	.word	1977277103
	.word	1663115586
	.word	806359072
	.word	452984805
	.word	250868733
	.word	1842533055
	.word	1288555905
	.word	336333848
	.word	890442534
	.word	804056259
	.word	-513843266
	.word	-1567123659
	.word	-867941240
	.word	957814574
	.word	1472513171
	.word	-223893675
	.word	-2105639172
	.word	1195195770
	.word	-1402706744
	.word	-413311558
	.word	723065138
	.word	-1787595802
	.word	-1604296512
	.word	-1736343271
	.word	-783331426
	.word	2145180835
	.word	1713513028
	.word	2116692564
	.word	-1416589253
	.word	-2088204277
	.word	-901364084
	.word	703524551
	.word	-742868885
	.word	1007948840
	.word	2044649127
	.word	-497131844
	.word	487262998
	.word	1994120109
	.word	1004593371
	.word	1446130276
	.word	1312438900
	.word	503974420
	.word	-615954030
	.word	168166924
	.word	1814307912
	.word	-463709000
	.word	1573044895
	.word	1859376061
	.word	-273896381
	.word	-1503501628
	.word	-1466855111
	.word	-1533700815
	.word	937747667
	.word	-1954973198
	.word	854058965
	.word	1137232011
	.word	1496790894
	.word	-1217565222
	.word	-1936880383
	.word	1691735473
	.word	-766620004
	.word	-525751991
	.word	-1267962664
	.word	-95005012
	.word	133494003
	.word	636152527
	.word	-1352309302
	.word	-1904575756
	.word	-374428089
	.word	403179536
	.word	-709182865
	.word	-2005370640
	.word	1864705354
	.word	1915629148
	.word	605822008
	.word	-240736681
	.word	-944458637
	.word	1371981463
	.word	602466507
	.word	2094914977
	.word	-1670089496
	.word	555687742
	.word	-582268010
	.word	-591544991
	.word	-2037675251
	.word	-2054518257
	.word	-1871679264
	.word	1111375484
	.word	-994724495
	.word	-1436129588
	.word	-666351472
	.word	84083462
	.word	32962295
	.word	302911004
	.word	-1553899070
	.word	1597322602
	.word	-111716434
	.word	-793134743
	.word	-1853454825
	.word	1489093017
	.word	656219450
	.word	-1180787161
	.word	954327513
	.word	335083755
	.word	-1281845205
	.word	856756514
	.word	-1150719534
	.word	1893325225
	.word	-1987146233
	.word	-1483434957
	.word	-1231316179
	.word	572399164
	.word	-1836611819
	.word	552200649
	.word	1238290055
	.word	-11184726
	.word	2015897680
	.word	2061492133
	.word	-1886614525
	.word	-123625127
	.word	-2138470135
	.word	386731290
	.word	-624967835
	.word	837215959
	.word	-968736124
	.word	-1201116976
	.word	-1019133566
	.word	-1332111063
	.word	1999449434
	.word	286199582
	.word	-877612933
	.word	-61582168
	.word	-692339859
	.word	974525996
	.section	.rodata.FT1,"a"
	.align	2
	.set	.LANCHOR7,. + 0
	.type	FT1, %object
	.size	FT1, 1024
FT1:
	.word	1667483301
	.word	2088564868
	.word	2004348569
	.word	2071721613
	.word	-218956019
	.word	1802229437
	.word	1869602481
	.word	-976907948
	.word	808476752
	.word	16843267
	.word	1734856361
	.word	724260477
	.word	-16849127
	.word	-673729182
	.word	-1414836762
	.word	1987505306
	.word	-892694715
	.word	-2105401443
	.word	-909539008
	.word	2105408135
	.word	-84218091
	.word	1499050731
	.word	1195871945
	.word	-252642549
	.word	-1381154324
	.word	-724257945
	.word	-1566416899
	.word	-1347467798
	.word	-1667488833
	.word	-1532734473
	.word	1920132246
	.word	-1061119141
	.word	-1212713534
	.word	-33693412
	.word	-1819066962
	.word	640044138
	.word	909536346
	.word	1061125697
	.word	-134744830
	.word	-859012273
	.word	875849820
	.word	-1515892236
	.word	-437923532
	.word	-235800312
	.word	1903288979
	.word	-656888973
	.word	825320019
	.word	353708607
	.word	67373068
	.word	-943221422
	.word	589514341
	.word	-1010590370
	.word	404238376
	.word	-1768540255
	.word	84216335
	.word	-1701171275
	.word	117902857
	.word	303178806
	.word	-2139087973
	.word	-488448195
	.word	-336868058
	.word	656887401
	.word	-1296924723
	.word	1970662047
	.word	151589403
	.word	-2088559202
	.word	741103732
	.word	437924910
	.word	454768173
	.word	1852759218
	.word	1515893998
	.word	-1600103429
	.word	1381147894
	.word	993752653
	.word	-690571423
	.word	-1280082482
	.word	690573947
	.word	-471605954
	.word	791633521
	.word	-2071719017
	.word	1397991157
	.word	-774784664
	.word	0
	.word	-303185620
	.word	538984544
	.word	-50535649
	.word	-1313769016
	.word	1532737261
	.word	1785386174
	.word	-875852474
	.word	-1094817831
	.word	960066123
	.word	1246401758
	.word	1280088276
	.word	1482207464
	.word	-808483510
	.word	-791626901
	.word	-269499094
	.word	-1431679003
	.word	-67375850
	.word	1128498885
	.word	1296931543
	.word	859006549
	.word	-2054876780
	.word	1162185423
	.word	-101062384
	.word	33686534
	.word	2139094657
	.word	1347461360
	.word	1010595908
	.word	-1616960070
	.word	-1465365533
	.word	1364304627
	.word	-1549574658
	.word	1077969088
	.word	-1886452342
	.word	-1835909203
	.word	-1650646596
	.word	943222856
	.word	-168431356
	.word	-1128504353
	.word	-1229555775
	.word	-623202443
	.word	555827811
	.word	269492272
	.word	-6886
	.word	-202113778
	.word	-757940371
	.word	-842170036
	.word	202119188
	.word	320022069
	.word	-320027857
	.word	1600110305
	.word	-1751698014
	.word	1145342156
	.word	387395129
	.word	-993750185
	.word	-1482205710
	.word	2122251394
	.word	1027439175
	.word	1684326572
	.word	1566423783
	.word	421081643
	.word	1936975509
	.word	1616953504
	.word	-2122245736
	.word	1330618065
	.word	-589520001
	.word	572671078
	.word	707417214
	.word	-1869595733
	.word	-2004350077
	.word	1179028682
	.word	-286341335
	.word	-1195873325
	.word	336865340
	.word	-555833479
	.word	1583267042
	.word	185275933
	.word	-606360202
	.word	-522134725
	.word	842163286
	.word	976909390
	.word	168432670
	.word	1229558491
	.word	101059594
	.word	606357612
	.word	1549580516
	.word	-1027432611
	.word	-741098130
	.word	-1397996561
	.word	1650640038
	.word	-1852753496
	.word	-1785384540
	.word	-454765769
	.word	2038035083
	.word	-404237006
	.word	-926381245
	.word	926379609
	.word	1835915959
	.word	-1920138868
	.word	-707415708
	.word	1313774802
	.word	-1448523296
	.word	1819072692
	.word	1448520954
	.word	-185273593
	.word	-353710299
	.word	1701169839
	.word	2054878350
	.word	-1364310039
	.word	134746136
	.word	-1162186795
	.word	2021191816
	.word	623200879
	.word	774790258
	.word	471611428
	.word	-1499047951
	.word	-1263242297
	.word	-960063663
	.word	-387396829
	.word	-572677764
	.word	1953818780
	.word	522141217
	.word	1263245021
	.word	-1111662116
	.word	-1953821306
	.word	-1970663547
	.word	1886445712
	.word	1044282434
	.word	-1246400060
	.word	1718013098
	.word	1212715224
	.word	50529797
	.word	-151587071
	.word	235805714
	.word	1633796771
	.word	892693087
	.word	1465364217
	.word	-1179031088
	.word	-2038032495
	.word	-1044276904
	.word	488454695
	.word	-1633802311
	.word	-505292488
	.word	-117904621
	.word	-1734857805
	.word	286335539
	.word	1768542907
	.word	-640046736
	.word	-1903294583
	.word	-1802226777
	.word	-1684329034
	.word	505297954
	.word	-2021190254
	.word	-370554592
	.word	-825325751
	.word	1431677695
	.word	673730680
	.word	-538991238
	.word	-1936981105
	.word	-1583261192
	.word	-1987507840
	.word	218962455
	.word	-1077975590
	.word	-421079247
	.word	1111655622
	.word	1751699640
	.word	1094812355
	.word	-1718015568
	.word	757946999
	.word	252648977
	.word	-1330611253
	.word	1414834428
	.word	-1145344554
	.word	370551866
	.section	.rodata.FT2,"a"
	.align	2
	.set	.LANCHOR8,. + 0
	.type	FT2, %object
	.size	FT2, 1024
FT2:
	.word	1673962851
	.word	2096661628
	.word	2012125559
	.word	2079755643
	.word	-218165774
	.word	1809235307
	.word	1876865391
	.word	-980331323
	.word	811618352
	.word	16909057
	.word	1741597031
	.word	727088427
	.word	-18408962
	.word	-675978537
	.word	-1420958037
	.word	1995217526
	.word	-896580150
	.word	-2111857278
	.word	-913751863
	.word	2113570685
	.word	-84994566
	.word	1504897881
	.word	1200539975
	.word	-251982864
	.word	-1388188499
	.word	-726439980
	.word	-1570767454
	.word	-1354372433
	.word	-1675378788
	.word	-1538000988
	.word	1927583346
	.word	-1063560256
	.word	-1217019209
	.word	-35578627
	.word	-1824674157
	.word	642542118
	.word	913070646
	.word	1065238847
	.word	-134937865
	.word	-863809588
	.word	879254580
	.word	-1521355611
	.word	-439274267
	.word	-235337487
	.word	1910674289
	.word	-659852328
	.word	828527409
	.word	355090197
	.word	67636228
	.word	-946515257
	.word	591815971
	.word	-1013096765
	.word	405809176
	.word	-1774739050
	.word	84545285
	.word	-1708149350
	.word	118360327
	.word	304363026
	.word	-2145674368
	.word	-488686110
	.word	-338876693
	.word	659450151
	.word	-1300247118
	.word	1978310517
	.word	152181513
	.word	-2095210877
	.word	743994412
	.word	439627290
	.word	456535323
	.word	1859957358
	.word	1521806938
	.word	-1604584544
	.word	1386542674
	.word	997608763
	.word	-692624938
	.word	-1283600717
	.word	693271337
	.word	-472039709
	.word	794718511
	.word	-2079090812
	.word	1403450707
	.word	-776378159
	.word	0
	.word	-306107155
	.word	541089824
	.word	-52224004
	.word	-1317418831
	.word	1538714971
	.word	1792327274
	.word	-879933749
	.word	-1100490306
	.word	963791673
	.word	1251270218
	.word	1285084236
	.word	1487988824
	.word	-813348145
	.word	-793023536
	.word	-272291089
	.word	-1437604438
	.word	-68348165
	.word	1132905795
	.word	1301993293
	.word	862344499
	.word	-2062445435
	.word	1166724933
	.word	-102166279
	.word	33818114
	.word	2147385727
	.word	1352724560
	.word	1014514748
	.word	-1624917345
	.word	-1471421528
	.word	1369633617
	.word	-1554121053
	.word	1082179648
	.word	-1895462257
	.word	-1841320558
	.word	-1658733411
	.word	946882616
	.word	-168753931
	.word	-1134305348
	.word	-1233665610
	.word	-626035238
	.word	557998881
	.word	270544912
	.word	-1762561
	.word	-201519373
	.word	-759206446
	.word	-847164211
	.word	202904588
	.word	321271059
	.word	-322752532
	.word	1606345055
	.word	-1758092649
	.word	1149815876
	.word	388905239
	.word	-996976700
	.word	-1487539545
	.word	2130477694
	.word	1031423805
	.word	1690872932
	.word	1572530013
	.word	422718233
	.word	1944491379
	.word	1623236704
	.word	-2129028991
	.word	1335808335
	.word	-593264676
	.word	574907938
	.word	710180394
	.word	-1875137648
	.word	-2012511352
	.word	1183631942
	.word	-288937490
	.word	-1200893000
	.word	338181140
	.word	-559449634
	.word	1589437022
	.word	185998603
	.word	-609388837
	.word	-522503200
	.word	845436466
	.word	980700730
	.word	169090570
	.word	1234361161
	.word	101452294
	.word	608726052
	.word	1555620956
	.word	-1029743166
	.word	-742560045
	.word	-1404833876
	.word	1657054818
	.word	-1858492271
	.word	-1791908715
	.word	-455919644
	.word	2045938553
	.word	-405458201
	.word	-930397240
	.word	929978679
	.word	1843050349
	.word	-1929278323
	.word	-709794603
	.word	1318900302
	.word	-1454776151
	.word	1826141292
	.word	1454176854
	.word	-185399308
	.word	-355523094
	.word	1707781989
	.word	2062847610
	.word	-1371018834
	.word	135272456
	.word	-1167075910
	.word	2029029496
	.word	625635109
	.word	777810478
	.word	473441308
	.word	-1504185946
	.word	-1267480652
	.word	-963161658
	.word	-389340184
	.word	-576619299
	.word	1961401460
	.word	524165407
	.word	1268178251
	.word	-1117659971
	.word	-1962047861
	.word	-1978694262
	.word	1893765232
	.word	1048330814
	.word	-1250835275
	.word	1724688998
	.word	1217452104
	.word	50726147
	.word	-151584266
	.word	236720654
	.word	1640145761
	.word	896163637
	.word	1471084887
	.word	-1184247623
	.word	-2045275770
	.word	-1046914879
	.word	490350365
	.word	-1641563746
	.word	-505857823
	.word	-118811656
	.word	-1741966440
	.word	287453969
	.word	1775418217
	.word	-643206951
	.word	-1912108658
	.word	-1808554092
	.word	-1691502949
	.word	507257374
	.word	-2028629369
	.word	-372694807
	.word	-829994546
	.word	1437269845
	.word	676362280
	.word	-542803233
	.word	-1945923700
	.word	-1587939167
	.word	-1995865975
	.word	219813645
	.word	-1083843905
	.word	-422104602
	.word	1115997762
	.word	1758509160
	.word	1099088705
	.word	-1725321063
	.word	760903469
	.word	253628687
	.word	-1334064208
	.word	1420360788
	.word	-1150429509
	.word	371997206
	.section	.rodata.FT3,"a"
	.align	2
	.set	.LANCHOR9,. + 0
	.type	FT3, %object
	.size	FT3, 1024
FT3:
	.word	-962239645
	.word	-125535108
	.word	-291932297
	.word	-158499973
	.word	-15863054
	.word	-692229269
	.word	-558796945
	.word	-1856715323
	.word	1615867952
	.word	33751297
	.word	-827758745
	.word	1451043627
	.word	-417726722
	.word	-1251813417
	.word	1306962859
	.word	-325421450
	.word	-1891251510
	.word	530416258
	.word	-1992242743
	.word	-91783811
	.word	-283772166
	.word	-1293199015
	.word	-1899411641
	.word	-83103504
	.word	1106029997
	.word	-1285040940
	.word	1610457762
	.word	1173008303
	.word	599760028
	.word	1408738468
	.word	-459902350
	.word	-1688485696
	.word	1975695287
	.word	-518193667
	.word	1034851219
	.word	1282024998
	.word	1817851446
	.word	2118205247
	.word	-184354825
	.word	-2091922228
	.word	1750873140
	.word	1374987685
	.word	-785062427
	.word	-116854287
	.word	-493653647
	.word	-1418471208
	.word	1649619249
	.word	708777237
	.word	135005188
	.word	-1789737017
	.word	1181033251
	.word	-1654733885
	.word	807933976
	.word	933336726
	.word	168756485
	.word	800430746
	.word	235472647
	.word	607523346
	.word	463175808
	.word	-549592350
	.word	-853087253
	.word	1315514151
	.word	2144187058
	.word	-358648459
	.word	303761673
	.word	496927619
	.word	1484008492
	.word	875436570
	.word	908925723
	.word	-592286098
	.word	-1259447718
	.word	1543217312
	.word	-1527360942
	.word	1984772923
	.word	-1218324778
	.word	2110698419
	.word	1383803177
	.word	-583080989
	.word	1584475951
	.word	328696964
	.word	-1493871789
	.word	-1184312879
	.word	0
	.word	-1054020115
	.word	1080041504
	.word	-484442884
	.word	2043195825
	.word	-1225958565
	.word	-725718422
	.word	-1924740149
	.word	1742323390
	.word	1917532473
	.word	-1797371318
	.word	-1730917300
	.word	-1326950312
	.word	-2058694705
	.word	-1150562096
	.word	-987041809
	.word	1340451498
	.word	-317260805
	.word	-2033892541
	.word	-1697166003
	.word	1716859699
	.word	294946181
	.word	-1966127803
	.word	-384763399
	.word	67502594
	.word	-25067649
	.word	-1594863536
	.word	2017737788
	.word	632987551
	.word	1273211048
	.word	-1561112239
	.word	1576969123
	.word	-2134884288
	.word	92966799
	.word	1068339858
	.word	566009245
	.word	1883781176
	.word	-251333131
	.word	1675607228
	.word	2009183926
	.word	-1351230758
	.word	1113792801
	.word	540020752
	.word	-451215361
	.word	-49351693
	.word	-1083321646
	.word	-2125673011
	.word	403966988
	.word	641012499
	.word	-1020269332
	.word	-1092526241
	.word	899848087
	.word	-1999879100
	.word	775493399
	.word	-1822964540
	.word	1441965991
	.word	-58556802
	.word	2051489085
	.word	-928226204
	.word	-1159242403
	.word	841685273
	.word	-426413197
	.word	-1063231392
	.word	429425025
	.word	-1630449841
	.word	-1551901476
	.word	1147544098
	.word	1417554474
	.word	1001099408
	.word	193169544
	.word	-1932900794
	.word	-953553170
	.word	1809037496
	.word	675025940
	.word	-1485185314
	.word	-1126015394
	.word	371002123
	.word	-1384719397
	.word	-616832800
	.word	1683370546
	.word	1951283770
	.word	337512970
	.word	-1831122615
	.word	201983494
	.word	1215046692
	.word	-1192993700
	.word	-1621245246
	.word	-1116810285
	.word	1139780780
	.word	-995728798
	.word	967348625
	.word	832869781
	.word	-751311644
	.word	-225740423
	.word	-718084121
	.word	-1958491960
	.word	1851340599
	.word	-625513107
	.word	25988493
	.word	-1318791723
	.word	-1663938994
	.word	1239460265
	.word	-659264404
	.word	-1392880042
	.word	-217582348
	.word	-819598614
	.word	-894474907
	.word	-191989126
	.word	1206496942
	.word	270010376
	.word	1876277946
	.word	-259491720
	.word	1248797989
	.word	1550986798
	.word	941890588
	.word	1475454630
	.word	1942467764
	.word	-1756248378
	.word	-886839064
	.word	-1585652259
	.word	-392399756
	.word	1042358047
	.word	-1763882165
	.word	1641856445
	.word	226921355
	.word	260409994
	.word	-527404944
	.word	2084716094
	.word	1908716981
	.word	-861247898
	.word	-1864873912
	.word	100991747
	.word	-150866186
	.word	470945294
	.word	-1029480095
	.word	1784624437
	.word	-1359390889
	.word	1775286713
	.word	395413126
	.word	-1722236479
	.word	975641885
	.word	666476190
	.word	-650583583
	.word	-351012616
	.word	733190296
	.word	573772049
	.word	-759469719
	.word	-1452221991
	.word	126455438
	.word	866620564
	.word	766942107
	.word	1008868894
	.word	361924487
	.word	-920589847
	.word	-2025206066
	.word	-1426107051
	.word	1350051880
	.word	-1518673953
	.word	59739276
	.word	1509466529
	.word	159418761
	.word	437718285
	.word	1708834751
	.word	-684595482
	.word	-2067381694
	.word	-793221016
	.word	-2101132991
	.word	699439513
	.word	1517759789
	.word	504434447
	.word	2076946608
	.word	-1459858348
	.word	1842789307
	.word	742004246
	.section	.rodata.RCON,"a"
	.align	2
	.set	.LANCHOR0,. + 0
	.type	RCON, %object
	.size	RCON, 40
RCON:
	.word	1
	.word	2
	.word	4
	.word	8
	.word	16
	.word	32
	.word	64
	.word	128
	.word	27
	.word	54
	.section	.rodata.RSb,"a"
	.align	2
	.set	.LANCHOR10,. + 0
	.type	RSb, %object
	.size	RSb, 256
RSb:
	.ascii	"R\011j\32506\2458\277@\243\236\201\363\327\373|\343"
	.ascii	"9\202\233/\377\2074\216CD\304\336\351\313T{\2242\246"
	.ascii	"\302#=\356L\225\013B\372\303N\010.\241f(\331$\262v["
	.ascii	"\242Im\213\321%r\370\366d\206h\230\026\324\244\\\314"
	.ascii	"]e\266\222lpHP\375\355\271\332^\025FW\247\215\235\204"
	.ascii	"\220\330\253\000\214\274\323\012\367\344X\005\270\263"
	.ascii	"E\006\320,\036\217\312?\017\002\301\257\275\003\001"
	.ascii	"\023\212k:\221\021AOg\334\352\227\362\317\316\360\264"
	.ascii	"\346s\226\254t\"\347\2555\205\342\3717\350\034u\337"
	.ascii	"nG\361\032q\035)\305\211o\267b\016\252\030\276\033\374"
	.ascii	"V>K\306\322y \232\333\300\376x\315Z\364\037\335\250"
	.ascii	"3\210\007\3071\261\022\020Y'\200\354_`Q\177\251\031"
	.ascii	"\265J\015-\345z\237\223\311\234\357\240\340;M\256*\365"
	.ascii	"\260\310\353\273<\203S\231a\027+\004~\272w\326&\341"
	.ascii	"i\024cU!\014}"
	.section	.rodata.RT0,"a"
	.align	2
	.set	.LANCHOR2,. + 0
	.type	RT0, %object
	.size	RT0, 1024
RT0:
	.word	1353184337
	.word	1399144830
	.word	-1012656358
	.word	-1772214470
	.word	-882136261
	.word	-247096033
	.word	-1420232020
	.word	-1828461749
	.word	1442459680
	.word	-160598355
	.word	-1854485368
	.word	625738485
	.word	-52959921
	.word	-674551099
	.word	-2143013594
	.word	-1885117771
	.word	1230680542
	.word	1729870373
	.word	-1743852987
	.word	-507445667
	.word	41234371
	.word	317738113
	.word	-1550367091
	.word	-956705941
	.word	-413167869
	.word	-1784901099
	.word	-344298049
	.word	-631680363
	.word	763608788
	.word	-752782248
	.word	694804553
	.word	1154009486
	.word	1787413109
	.word	2021232372
	.word	1799248025
	.word	-579749593
	.word	-1236278850
	.word	397248752
	.word	1722556617
	.word	-1271214467
	.word	407560035
	.word	-2110711067
	.word	1613975959
	.word	1165972322
	.word	-529046351
	.word	-2068943941
	.word	480281086
	.word	-1809118983
	.word	1483229296
	.word	436028815
	.word	-2022908268
	.word	-1208452270
	.word	601060267
	.word	-503166094
	.word	1468997603
	.word	715871590
	.word	120122290
	.word	63092015
	.word	-1703164538
	.word	-1526188077
	.word	-226023376
	.word	-1297760477
	.word	-1167457534
	.word	1552029421
	.word	723308426
	.word	-1833666137
	.word	-252573709
	.word	-1578997426
	.word	-839591323
	.word	-708967162
	.word	526529745
	.word	-1963022652
	.word	-1655493068
	.word	-1604979806
	.word	853641733
	.word	1978398372
	.word	971801355
	.word	-1427152832
	.word	111112542
	.word	1360031421
	.word	-108388034
	.word	1023860118
	.word	-1375387939
	.word	1186850381
	.word	-1249028975
	.word	90031217
	.word	1876166148
	.word	-15380384
	.word	620468249
	.word	-1746289194
	.word	-868007799
	.word	2006899047
	.word	-1119688528
	.word	-2004121337
	.word	945494503
	.word	-605108103
	.word	1191869601
	.word	-384875908
	.word	-920746760
	.word	0
	.word	-2088337399
	.word	1223502642
	.word	-1401941730
	.word	1316117100
	.word	-67170563
	.word	1446544655
	.word	517320253
	.word	658058550
	.word	1691946762
	.word	564550760
	.word	-783000677
	.word	976107044
	.word	-1318647284
	.word	266819475
	.word	-761860428
	.word	-1634624741
	.word	1338359936
	.word	-1574904735
	.word	1766553434
	.word	370807324
	.word	179999714
	.word	-450191168
	.word	1138762300
	.word	488053522
	.word	185403662
	.word	-1379431438
	.word	-1180125651
	.word	-928440812
	.word	-2061897385
	.word	1275557295
	.word	-1143105042
	.word	-44007517
	.word	-1624899081
	.word	-1124765092
	.word	-985962940
	.word	880737115
	.word	1982415755
	.word	-590994485
	.word	1761406390
	.word	1676797112
	.word	-891538985
	.word	277177154
	.word	1076008723
	.word	538035844
	.word	2099530373
	.word	-130171950
	.word	288553390
	.word	1839278535
	.word	1261411869
	.word	-214912292
	.word	-330136051
	.word	-790380169
	.word	1813426987
	.word	-1715900247
	.word	-95906799
	.word	577038663
	.word	-997393240
	.word	440397984
	.word	-668172970
	.word	-275762398
	.word	-951170681
	.word	-1043253031
	.word	-22885748
	.word	906744984
	.word	-813566554
	.word	685669029
	.word	646887386
	.word	-1530942145
	.word	-459458004
	.word	227702864
	.word	-1681105046
	.word	1648787028
	.word	-1038905866
	.word	-390539120
	.word	1593260334
	.word	-173030526
	.word	-1098883681
	.word	2090061929
	.word	-1456614033
	.word	-1290656305
	.word	999926984
	.word	-1484974064
	.word	1852021992
	.word	2075868123
	.word	158869197
	.word	-199730834
	.word	28809964
	.word	-1466282109
	.word	1701746150
	.word	2129067946
	.word	147831841
	.word	-420997649
	.word	-644094022
	.word	-835293366
	.word	-737566742
	.word	-696471511
	.word	-1347247055
	.word	824393514
	.word	815048134
	.word	-1067015627
	.word	935087732
	.word	-1496677636
	.word	-1328508704
	.word	366520115
	.word	1251476721
	.word	-136647615
	.word	240176511
	.word	804688151
	.word	-1915335306
	.word	1303441219
	.word	1414376140
	.word	-553347356
	.word	-474623586
	.word	461924940
	.word	-1205916479
	.word	2136040774
	.word	82468509
	.word	1563790337
	.word	1937016826
	.word	776014843
	.word	1511876531
	.word	1389550482
	.word	861278441
	.word	323475053
	.word	-1939744870
	.word	2047648055
	.word	-1911228327
	.word	-1992551445
	.word	-299390514
	.word	902390199
	.word	-303751967
	.word	1018251130
	.word	1507840668
	.word	1064563285
	.word	2043548696
	.word	-1086863501
	.word	-355600557
	.word	1537932639
	.word	342834655
	.word	-2032450440
	.word	-2114736182
	.word	1053059257
	.word	741614648
	.word	1598071746
	.word	1925389590
	.word	203809468
	.word	-1958134744
	.word	1100287487
	.word	1895934009
	.word	-558691320
	.word	-1662733096
	.word	-1866377628
	.word	1636092795
	.word	1890988757
	.word	1952214088
	.word	1113045200
	.section	.rodata.RT1,"a"
	.align	2
	.set	.LANCHOR3,. + 0
	.type	RT1, %object
	.size	RT1, 1024
RT1:
	.word	-1477160624
	.word	1698790995
	.word	-1541989693
	.word	1579629206
	.word	1806384075
	.word	1167925233
	.word	1492823211
	.word	65227667
	.word	-97509291
	.word	1836494326
	.word	1993115793
	.word	1275262245
	.word	-672837636
	.word	-886389289
	.word	1144333952
	.word	-1553812081
	.word	1521606217
	.word	465184103
	.word	250234264
	.word	-1057071647
	.word	1966064386
	.word	-263421678
	.word	-1756983901
	.word	-103584826
	.word	1603208167
	.word	-1668147819
	.word	2054012907
	.word	1498584538
	.word	-2084645843
	.word	561273043
	.word	1776306473
	.word	-926314940
	.word	-1983744662
	.word	2039411832
	.word	1045993835
	.word	1907959773
	.word	1340194486
	.word	-1383534569
	.word	-1407137434
	.word	986611124
	.word	1256153880
	.word	823846274
	.word	860985184
	.word	2136171077
	.word	2003087840
	.word	-1368671356
	.word	-1602093540
	.word	722008468
	.word	1749577816
	.word	-45773031
	.word	1826526343
	.word	-126135625
	.word	-747394269
	.word	38499042
	.word	-1893735593
	.word	-1420466646
	.word	686535175
	.word	-1028313341
	.word	2076542618
	.word	137876389
	.word	-2027409166
	.word	-1514200142
	.word	1778582202
	.word	-2112426660
	.word	483363371
	.word	-1267095662
	.word	-234359824
	.word	-496415071
	.word	-187013683
	.word	-1106966827
	.word	1647628575
	.word	-22625142
	.word	1395537053
	.word	1442030240
	.word	-511048398
	.word	-336157579
	.word	-326956231
	.word	-278904662
	.word	-1619960314
	.word	275692881
	.word	-1977532679
	.word	115185213
	.word	88006062
	.word	-1108980410
	.word	-1923837515
	.word	1573155077
	.word	-737803153
	.word	357589247
	.word	-73918172
	.word	-373434729
	.word	1128303052
	.word	-1629919369
	.word	1122545853
	.word	-1953953912
	.word	1528424248
	.word	-288851493
	.word	175939911
	.word	256015593
	.word	512030921
	.word	0
	.word	-2038429309
	.word	-315936184
	.word	1880170156
	.word	1918528590
	.word	-15794693
	.word	948244310
	.word	-710001378
	.word	959264295
	.word	-653325724
	.word	-1503893471
	.word	1415289809
	.word	775300154
	.word	1728711857
	.word	-413691121
	.word	-1762741038
	.word	-1852105826
	.word	-977239985
	.word	551313826
	.word	1266113129
	.word	437394454
	.word	-1164713462
	.word	715178213
	.word	-534627261
	.word	387650077
	.word	218697227
	.word	-947129683
	.word	-1464455751
	.word	-1457646392
	.word	435246981
	.word	125153100
	.word	-577114437
	.word	1618977789
	.word	637663135
	.word	-177054532
	.word	996558021
	.word	2130402100
	.word	692292470
	.word	-970732580
	.word	-51530136
	.word	-236668829
	.word	-600713270
	.word	-2057092592
	.word	580326208
	.word	298222624
	.word	608863613
	.word	1035719416
	.word	855223825
	.word	-1591097491
	.word	798891339
	.word	817028339
	.word	1384517100
	.word	-473860144
	.word	380840812
	.word	-1183798887
	.word	1217663482
	.word	1693009698
	.word	-1929598780
	.word	1072734234
	.word	746411736
	.word	-1875696913
	.word	1313441735
	.word	-784803391
	.word	-1563783938
	.word	198481974
	.word	-2114607409
	.word	-562387672
	.word	-1900553690
	.word	-1079165020
	.word	-1657131804
	.word	-1837608947
	.word	-866162021
	.word	1182684258
	.word	328070850
	.word	-1193766680
	.word	-147247522
	.word	-1346141451
	.word	-2141347906
	.word	-1815058052
	.word	768962473
	.word	304467891
	.word	-1716729797
	.word	2098729127
	.word	1671227502
	.word	-1153705093
	.word	2015808777
	.word	408514292
	.word	-1214583807
	.word	-1706064984
	.word	1855317605
	.word	-419452290
	.word	-809754360
	.word	-401215514
	.word	-1679312167
	.word	913263310
	.word	161475284
	.word	2091919830
	.word	-1297862225
	.word	591342129
	.word	-1801075152
	.word	1721906624
	.word	-1135709129
	.word	-897385306
	.word	-795811664
	.word	-660131051
	.word	-1744506550
	.word	-622050825
	.word	1355644686
	.word	-158263505
	.word	-699566451
	.word	-1326496947
	.word	1303039060
	.word	76997855
	.word	-1244553501
	.word	-2006299621
	.word	523026872
	.word	1365591679
	.word	-362898172
	.word	898367837
	.word	1955068531
	.word	1091304238
	.word	493335386
	.word	-757362094
	.word	1443948851
	.word	1205234963
	.word	1641519756
	.word	211892090
	.word	351820174
	.word	1007938441
	.word	665439982
	.word	-916342987
	.word	-451091987
	.word	-1320715716
	.word	-539845543
	.word	1945261375
	.word	-837543815
	.word	935818175
	.word	-839429142
	.word	-1426235557
	.word	1866325780
	.word	-616269690
	.word	-206583167
	.word	-999769794
	.word	874788908
	.word	1084473951
	.word	-1021503886
	.word	635616268
	.word	1228679307
	.word	-1794244799
	.word	27801969
	.word	-1291056930
	.word	-457910116
	.word	-1051302768
	.word	-2067039391
	.word	-1238182544
	.word	1550600308
	.word	1471729730
	.section	.rodata.RT2,"a"
	.align	2
	.set	.LANCHOR4,. + 0
	.type	RT2, %object
	.size	RT2, 1024
RT2:
	.word	-195997529
	.word	1098797925
	.word	387629988
	.word	658151006
	.word	-1422144661
	.word	-1658851003
	.word	-89347240
	.word	-481586429
	.word	807425530
	.word	1991112301
	.word	-863465098
	.word	49620300
	.word	-447742761
	.word	717608907
	.word	891715652
	.word	1656065955
	.word	-1310832294
	.word	-1171953893
	.word	-364537842
	.word	-27401792
	.word	801309301
	.word	1283527408
	.word	1183687575
	.word	-747911431
	.word	-1895569569
	.word	-1844079204
	.word	1841294202
	.word	1385552473
	.word	-1093390973
	.word	1951978273
	.word	-532076183
	.word	-913423160
	.word	-1032492407
	.word	-1896580999
	.word	1486449470
	.word	-1188569743
	.word	-507595185
	.word	-1997531219
	.word	550069932
	.word	-830622662
	.word	-547153846
	.word	451248689
	.word	1368875059
	.word	1398949247
	.word	1689378935
	.word	1807451310
	.word	-2114052960
	.word	150574123
	.word	1215322216
	.word	1167006205
	.word	-560691348
	.word	2069018616
	.word	1940595667
	.word	1265820162
	.word	534992783
	.word	1432758955
	.word	-340654296
	.word	-1255210046
	.word	-981034373
	.word	936617224
	.word	674296455
	.word	-1088179547
	.word	50510442
	.word	384654466
	.word	-813028580
	.word	2041025204
	.word	133427442
	.word	1766760930
	.word	-630862348
	.word	84334014
	.word	886120290
	.word	-1497068802
	.word	775200083
	.word	-207445931
	.word	-1979370783
	.word	-156994069
	.word	-2096416276
	.word	1614850799
	.word	1901987487
	.word	1857900816
	.word	557775242
	.word	-577356538
	.word	1054715397
	.word	-431143235
	.word	1418835341
	.word	-999226019
	.word	100954068
	.word	1348534037
	.word	-1743182597
	.word	-1110009879
	.word	1082772547
	.word	-647530594
	.word	-391070398
	.word	-1995994997
	.word	434583643
	.word	-931537938
	.word	2090944266
	.word	1115482383
	.word	-2064070370
	.word	0
	.word	-2146860154
	.word	724715757
	.word	287222896
	.word	1517047410
	.word	251526143
	.word	-2062592456
	.word	-1371726123
	.word	758523705
	.word	252339417
	.word	1550328230
	.word	1536938324
	.word	908343854
	.word	168604007
	.word	1469255655
	.word	-290139498
	.word	-1692688751
	.word	-1065332795
	.word	-597581280
	.word	2002413899
	.word	303830554
	.word	-1813902662
	.word	-1597971158
	.word	574374880
	.word	454171927
	.word	151915277
	.word	-1947030073
	.word	-1238517336
	.word	504678569
	.word	-245922535
	.word	1974422535
	.word	-1712407587
	.word	2141453664
	.word	33005350
	.word	1918680309
	.word	1715782971
	.word	-77908866
	.word	1133213225
	.word	600562886
	.word	-306812676
	.word	-457677839
	.word	836225756
	.word	1665273989
	.word	-1760346078
	.word	-964419567
	.word	1250262308
	.word	-1143801795
	.word	-106032846
	.word	700935585
	.word	-1642247377
	.word	-1294142672
	.word	-2045907886
	.word	-1049112349
	.word	-1288999914
	.word	1890163129
	.word	-1810761144
	.word	-381214108
	.word	-56048500
	.word	-257942977
	.word	2102843436
	.word	857927568
	.word	1233635150
	.word	953795025
	.word	-896729438
	.word	-728222197
	.word	-173617279
	.word	2057644254
	.word	-1210440050
	.word	-1388337985
	.word	976020637
	.word	2018512274
	.word	1600822220
	.word	2119459398
	.word	-1913208301
	.word	-661591880
	.word	959340279
	.word	-1014827601
	.word	1570750080
	.word	-798393197
	.word	-714102483
	.word	634368786
	.word	-1396163687
	.word	403744637
	.word	-1662488989
	.word	1004239803
	.word	650971512
	.word	1500443672
	.word	-1695809097
	.word	1334028442
	.word	-1780062866
	.word	-5603610
	.word	-1138685745
	.word	368043752
	.word	-407184997
	.word	1867173430
	.word	-1612000247
	.word	-1339435396
	.word	-1540247630
	.word	1059729699
	.word	-1513738092
	.word	-1573535642
	.word	1316239292
	.word	-2097371446
	.word	-1864322864
	.word	-1489824296
	.word	82922136
	.word	-331221030
	.word	-847311280
	.word	-1860751370
	.word	1299615190
	.word	-280801872
	.word	-1429449651
	.word	-1763385596
	.word	-778116171
	.word	1783372680
	.word	750893087
	.word	1699118929
	.word	1587348714
	.word	-1946067659
	.word	-2013629580
	.word	201010753
	.word	1739807261
	.word	-611167534
	.word	283718486
	.word	-697494713
	.word	-677737375
	.word	-1590199796
	.word	-128348652
	.word	334203196
	.word	-1446056409
	.word	1639396809
	.word	484568549
	.word	1199193265
	.word	-761505313
	.word	-229294221
	.word	337148366
	.word	-948715721
	.word	-145495347
	.word	-44082262
	.word	1038029935
	.word	1148749531
	.word	-1345682957
	.word	1756970692
	.word	607661108
	.word	-1547542720
	.word	488010435
	.word	-490992603
	.word	1009290057
	.word	234832277
	.word	-1472630527
	.word	201907891
	.word	-1260872476
	.word	1449431233
	.word	-881106556
	.word	852848822
	.word	1816687708
	.word	-1194311081
	.section	.rodata.RT3,"a"
	.align	2
	.set	.LANCHOR5,. + 0
	.type	RT3, %object
	.size	RT3, 1024
RT3:
	.word	1364240372
	.word	2119394625
	.word	449029143
	.word	982933031
	.word	1003187115
	.word	535905693
	.word	-1398056710
	.word	1267925987
	.word	542505520
	.word	-1376359050
	.word	-2003732788
	.word	-182105086
	.word	1341970405
	.word	-975713494
	.word	645940277
	.word	-1248877726
	.word	-565617999
	.word	627514298
	.word	1167593194
	.word	1575076094
	.word	-1023249105
	.word	-2129465268
	.word	-1918658746
	.word	1808202195
	.word	65494927
	.word	362126482
	.word	-1075086739
	.word	-1780852398
	.word	-735214658
	.word	1490231668
	.word	1227450848
	.word	-1908094775
	.word	1969916354
	.word	-193431154
	.word	-1721024936
	.word	668823993
	.word	-1095348255
	.word	-266883704
	.word	-916018144
	.word	2108963534
	.word	1662536415
	.word	-444452582
	.word	-1755303087
	.word	1648721747
	.word	-1310689436
	.word	-1148932501
	.word	-31678335
	.word	-107730168
	.word	1884842056
	.word	-1894122171
	.word	-1803064098
	.word	1387788411
	.word	-1423715469
	.word	1927414347
	.word	-480800993
	.word	1714072405
	.word	-1308153621
	.word	788775605
	.word	-2036696123
	.word	-744159177
	.word	821200680
	.word	598910399
	.word	45771267
	.word	-312704490
	.word	-1976886065
	.word	-1483557767
	.word	-202313209
	.word	1319232105
	.word	1707996378
	.word	114671109
	.word	-786472396
	.word	-997523802
	.word	882725678
	.word	-1566550541
	.word	87220618
	.word	-1535775754
	.word	188345475
	.word	1084944224
	.word	1577492337
	.word	-1118760850
	.word	1056541217
	.word	-1774385443
	.word	-575797954
	.word	1296481766
	.word	-1850372780
	.word	1896177092
	.word	74437638
	.word	1627329872
	.word	421854104
	.word	-694687299
	.word	-1983102144
	.word	1735892697
	.word	-1329773848
	.word	126389129
	.word	-415737063
	.word	2044456648
	.word	-1589179780
	.word	2095648578
	.word	-121037180
	.word	0
	.word	159614592
	.word	843640107
	.word	514617361
	.word	1817080410
	.word	-33816818
	.word	257308805
	.word	1025430958
	.word	908540205
	.word	174381327
	.word	1747035740
	.word	-1680780197
	.word	607792694
	.word	212952842
	.word	-1827674281
	.word	-1261267218
	.word	463376795
	.word	-2142255680
	.word	1638015196
	.word	1516850039
	.word	471210514
	.word	-502613357
	.word	-1058723168
	.word	1011081250
	.word	303896347
	.word	235605257
	.word	-223492213
	.word	767142070
	.word	348694814
	.word	1468340721
	.word	-1353971851
	.word	-289677927
	.word	-1543675777
	.word	-140564991
	.word	1555887474
	.word	1153776486
	.word	1530167035
	.word	-1955190461
	.word	-874723805
	.word	-1234633491
	.word	-1201409564
	.word	-674571215
	.word	1108378979
	.word	322970263
	.word	-2078273082
	.word	-2055396278
	.word	-755483205
	.word	-1374604551
	.word	-949116631
	.word	491466654
	.word	-588042062
	.word	233591430
	.word	2010178497
	.word	728503987
	.word	-1449543312
	.word	301615252
	.word	1193436393
	.word	-1463513860
	.word	-1608892432
	.word	1457007741
	.word	586125363
	.word	-2016981431
	.word	-641609416
	.word	-1929469238
	.word	-1741288492
	.word	-1496350219
	.word	-1524048262
	.word	-635007305
	.word	1067761581
	.word	753179962
	.word	1343066744
	.word	1788595295
	.word	1415726718
	.word	-155053171
	.word	-1863796520
	.word	777975609
	.word	-2097827901
	.word	-1614905251
	.word	1769771984
	.word	1873358293
	.word	-810347995
	.word	-935618132
	.word	279411992
	.word	-395418724
	.word	-612648133
	.word	-855017434
	.word	1861490777
	.word	-335431782
	.word	-2086102449
	.word	-429560171
	.word	-1434523905
	.word	554225596
	.word	-270079979
	.word	-1160143897
	.word	1255028335
	.word	-355202657
	.word	701922480
	.word	833598116
	.word	707863359
	.word	-969894747
	.word	901801634
	.word	1949809742
	.word	-56178046
	.word	-525283184
	.word	857069735
	.word	-246769660
	.word	1106762476
	.word	2131644621
	.word	389019281
	.word	1989006925
	.word	1129165039
	.word	-866890326
	.word	-455146346
	.word	-1629243951
	.word	1276872810
	.word	-1044898004
	.word	1182749029
	.word	-1660622242
	.word	22885772
	.word	-93096825
	.word	-80854773
	.word	-1285939865
	.word	-1840065829
	.word	-382511600
	.word	1829980118
	.word	-1702075945
	.word	930745505
	.word	1502483704
	.word	-343327725
	.word	-823253079
	.word	-1221211807
	.word	-504503012
	.word	2050797895
	.word	-1671831598
	.word	1430221810
	.word	410635796
	.word	1941911495
	.word	1407897079
	.word	1599843069
	.word	-552308931
	.word	2022103876
	.word	-897453137
	.word	-1187068824
	.word	942421028
	.word	-1033944925
	.word	376619805
	.word	-1140054558
	.word	680216892
	.word	-12479219
	.word	963707304
	.word	148812556
	.word	-660806476
	.word	1687208278
	.word	2069988555
	.word	-714033614
	.word	1215585388
	.word	-800958536
	.text
.Letext0:
	.file 3 "/home/sebin/LIOT/gcc-arm-none-eabi-9-2019-q4-major/arm-none-eabi/include/machine/_default_types.h"
	.file 4 "/home/sebin/LIOT/gcc-arm-none-eabi-9-2019-q4-major/lib/gcc/arm-none-eabi/9.2.1/include/stddef.h"
	.file 5 "/home/sebin/LIOT/gcc-arm-none-eabi-9-2019-q4-major/arm-none-eabi/include/sys/lock.h"
	.file 6 "/home/sebin/LIOT/gcc-arm-none-eabi-9-2019-q4-major/arm-none-eabi/include/sys/_types.h"
	.file 7 "/home/sebin/LIOT/gcc-arm-none-eabi-9-2019-q4-major/arm-none-eabi/include/sys/reent.h"
	.file 8 "/home/sebin/LIOT/gcc-arm-none-eabi-9-2019-q4-major/arm-none-eabi/include/sys/_stdint.h"
	.file 9 "/home/sebin/thesis/zephyrproject/modules/crypto/mbedtls/include/mbedtls/aes.h"
	.file 10 "/home/sebin/thesis/zephyrproject/modules/crypto/mbedtls/include/mbedtls/platform.h"
	.file 11 "/home/sebin/thesis/zephyrproject/modules/crypto/mbedtls/include/mbedtls/platform_util.h"
	.file 12 "<built-in>"