	.cpu cortex-m4
	.eabi_attribute 27, 1
	.eabi_attribute 28, 1
	.eabi_attribute 20, 1
	.eabi_attribute 21, 1
	.eabi_attribute 23, 3
	.eabi_attribute 24, 1
	.eabi_attribute 25, 1
	.eabi_attribute 26, 1
	.eabi_attribute 30, 1
	.eabi_attribute 34, 1
	.eabi_attribute 38, 1
	.eabi_attribute 18, 4
	.file	"asn1parse.c"
	.text
.Ltext0:
	.cfi_sections	.debug_frame
	.section	.text.asn1_get_sequence_of_cb,"ax",%progbits
	.align	1
	.arch armv7e-m
	.syntax unified
	.thumb
	.thumb_func
	.fpu fpv4-sp-d16
	.type	asn1_get_sequence_of_cb, %function
asn1_get_sequence_of_cb:
.LVL0:
.LFB30:
	.file 1 "/home/sebin/thesis/zephyrproject/modules/crypto/mbedtls/library/asn1parse.c"
	.loc 1 339 1 view -0
	.cfi_startproc
	@ args = 0, pretend = 0, frame = 0
	@ frame_needed = 0, uses_anonymous_args = 0
	.loc 1 339 1 is_stmt 0 view .LVU1
	push	{r4, r5, r6, r7, r8, lr}
	.cfi_def_cfa_offset 24
	.cfi_offset 4, -24
	.cfi_offset 5, -20
	.cfi_offset 6, -16
	.cfi_offset 7, -12
	.cfi_offset 8, -8
	.cfi_offset 14, -4
	mov	r4, r0
	mov	r5, r1
	mov	r7, r2
	mov	r6, r3
	.loc 1 340 5 is_stmt 1 view .LVU2
.LVL1:
	.loc 1 342 5 view .LVU3
	.loc 1 342 28 is_stmt 0 view .LVU4
	ldr	r8, [r0, #4]
.LVL2:
	.loc 1 345 5 is_stmt 1 view .LVU5
	.loc 1 345 17 is_stmt 0 view .LVU6
	ldr	r3, [r8, #8]
.LVL3:
	.loc 1 345 7 view .LVU7
	cbz	r3, .L4
	.loc 1 347 9 is_stmt 1 view .LVU8
	.loc 1 348 13 is_stmt 0 view .LVU9
	movs	r1, #16
.LVL4:
	.loc 1 348 13 view .LVU10
	movs	r0, #1
.LVL5:
	.loc 1 348 13 view .LVU11
	bl	mbedtls_calloc
.LVL6:
	.loc 1 347 19 view .LVU12
	str	r0, [r8, #12]
	.loc 1 350 9 is_stmt 1 view .LVU13
	.loc 1 350 11 is_stmt 0 view .LVU14
	cbz	r0, .L7
.L2:
.LVL7:
	.loc 1 356 5 is_stmt 1 view .LVU15
	.loc 1 356 16 is_stmt 0 view .LVU16
	str	r7, [r0, #8]
	.loc 1 357 5 is_stmt 1 view .LVU17
	.loc 1 357 18 is_stmt 0 view .LVU18
	str	r6, [r0, #4]
	.loc 1 358 5 is_stmt 1 view .LVU19
	.loc 1 358 18 is_stmt 0 view .LVU20
	str	r5, [r0]
	.loc 1 360 5 is_stmt 1 view .LVU21
	.loc 1 360 17 is_stmt 0 view .LVU22
	str	r0, [r4, #4]
	.loc 1 361 5 is_stmt 1 view .LVU23
	.loc 1 361 11 is_stmt 0 view .LVU24
	movs	r0, #0
.LVL8:
.L1:
	.loc 1 362 1 view .LVU25
	pop	{r4, r5, r6, r7, r8, pc}
.LVL9:
.L4:
	.loc 1 342 28 view .LVU26
	mov	r0, r8
.LVL10:
	.loc 1 342 28 view .LVU27
	b	.L2
.LVL11:
.L7:
	.loc 1 351 19 view .LVU28
	mvn	r0, #105
	b	.L1
	.cfi_endproc
.LFE30:
	.size	asn1_get_sequence_of_cb, .-asn1_get_sequence_of_cb
	.section	.text.mbedtls_asn1_get_len,"ax",%progbits
	.align	1
	.global	mbedtls_asn1_get_len
	.syntax unified
	.thumb
	.thumb_func
	.fpu fpv4-sp-d16
	.type	mbedtls_asn1_get_len, %function
mbedtls_asn1_get_len:
.LVL12:
.LFB19:
	.loc 1 48 1 is_stmt 1 view -0
	.cfi_startproc
	@ args = 0, pretend = 0, frame = 0
	@ frame_needed = 0, uses_anonymous_args = 0
	@ link register save eliminated.
	.loc 1 48 1 is_stmt 0 view .LVU30
	push	{r4, r5, r6}
	.cfi_def_cfa_offset 12
	.cfi_offset 4, -12
	.cfi_offset 5, -8
	.cfi_offset 6, -4
	.loc 1 49 5 is_stmt 1 view .LVU31
	.loc 1 49 17 is_stmt 0 view .LVU32
	ldr	r3, [r0]
	.loc 1 49 15 view .LVU33
	subs	r5, r1, r3
	.loc 1 49 7 view .LVU34
	cmp	r5, #0
	ble	.L17
	.loc 1 52 5 is_stmt 1 view .LVU35
	.loc 1 52 11 is_stmt 0 view .LVU36
	ldrb	r4, [r3]	@ zero_extendqisi2
	.loc 1 52 24 view .LVU37
	ldrsb	r6, [r3]
	.loc 1 52 7 view .LVU38
	cmp	r6, #0
	blt	.L10
	.loc 1 53 9 is_stmt 1 view .LVU39
	.loc 1 53 21 is_stmt 0 view .LVU40
	adds	r4, r3, #1
	str	r4, [r0]
	.loc 1 53 16 view .LVU41
	ldrb	r3, [r3]	@ zero_extendqisi2
	.loc 1 53 14 view .LVU42
	str	r3, [r2]
.L11:
	.loc 1 97 5 is_stmt 1 view .LVU43
	.loc 1 97 9 is_stmt 0 view .LVU44
	ldr	r3, [r2]
	.loc 1 97 33 view .LVU45
	ldr	r2, [r0]
.LVL13:
	.loc 1 97 31 view .LVU46
	subs	r1, r1, r2
.LVL14:
	.loc 1 97 7 view .LVU47
	cmp	r3, r1
	bhi	.L23
	.loc 1 100 11 view .LVU48
	movs	r0, #0
.LVL15:
.L8:
	.loc 1 101 1 view .LVU49
	pop	{r4, r5, r6}
	.cfi_remember_state
	.cfi_restore 6
	.cfi_restore 5
	.cfi_restore 4
	.cfi_def_cfa_offset 0
	bx	lr
.LVL16:
.L10:
	.cfi_restore_state
	.loc 1 56 9 is_stmt 1 view .LVU50
	and	r4, r4, #127
	subs	r4, r4, #1
	cmp	r4, #3
	bhi	.L18
	tbb	[pc, r4]
.L13:
	.byte	(.L16-.L13)/2
	.byte	(.L15-.L13)/2
	.byte	(.L14-.L13)/2
	.byte	(.L12-.L13)/2
	.p2align 1
.L16:
	.loc 1 59 13 view .LVU51
	.loc 1 59 15 is_stmt 0 view .LVU52
	cmp	r5, #1
	ble	.L19
	.loc 1 62 13 is_stmt 1 view .LVU53
	.loc 1 62 24 is_stmt 0 view .LVU54
	ldrb	r3, [r3, #1]	@ zero_extendqisi2
	.loc 1 62 18 view .LVU55
	str	r3, [r2]
	.loc 1 63 13 is_stmt 1 view .LVU56
	.loc 1 63 18 is_stmt 0 view .LVU57
	ldr	r3, [r0]
	adds	r3, r3, #2
	str	r3, [r0]
	.loc 1 64 13 is_stmt 1 view .LVU58
	b	.L11
.L15:
	.loc 1 67 13 view .LVU59
	.loc 1 67 15 is_stmt 0 view .LVU60
	cmp	r5, #2
	ble	.L20
	.loc 1 70 13 is_stmt 1 view .LVU61
	.loc 1 70 34 is_stmt 0 view .LVU62
	ldrb	r4, [r3, #1]	@ zero_extendqisi2
	.loc 1 70 51 view .LVU63
	ldrb	r3, [r3, #2]	@ zero_extendqisi2
	.loc 1 70 45 view .LVU64
	orr	r3, r3, r4, lsl #8
	.loc 1 70 18 view .LVU65
	str	r3, [r2]
	.loc 1 71 13 is_stmt 1 view .LVU66
	.loc 1 71 18 is_stmt 0 view .LVU67
	ldr	r3, [r0]
	adds	r3, r3, #3
	str	r3, [r0]
	.loc 1 72 13 is_stmt 1 view .LVU68
	b	.L11
.L14:
	.loc 1 75 13 view .LVU69
	.loc 1 75 15 is_stmt 0 view .LVU70
	cmp	r5, #3
	ble	.L21
	.loc 1 78 13 is_stmt 1 view .LVU71
	.loc 1 78 34 is_stmt 0 view .LVU72
	ldrb	r5, [r3, #1]	@ zero_extendqisi2
	.loc 1 79 34 view .LVU73
	ldrb	r4, [r3, #2]	@ zero_extendqisi2
	.loc 1 79 38 view .LVU74
	lsls	r4, r4, #8
	.loc 1 78 46 view .LVU75
	orr	r4, r4, r5, lsl #16
	.loc 1 79 51 view .LVU76
	ldrb	r3, [r3, #3]	@ zero_extendqisi2
	.loc 1 79 45 view .LVU77
	orrs	r3, r3, r4
	.loc 1 78 18 view .LVU78
	str	r3, [r2]
	.loc 1 80 13 is_stmt 1 view .LVU79
	.loc 1 80 18 is_stmt 0 view .LVU80
	ldr	r3, [r0]
	adds	r3, r3, #4
	str	r3, [r0]
	.loc 1 81 13 is_stmt 1 view .LVU81
	b	.L11
.L12:
	.loc 1 84 13 view .LVU82
	.loc 1 84 15 is_stmt 0 view .LVU83
	cmp	r5, #4
	ble	.L22
	.loc 1 87 13 is_stmt 1 view .LVU84
	.loc 1 87 34 is_stmt 0 view .LVU85
	ldrb	r5, [r3, #1]	@ zero_extendqisi2
	.loc 1 87 62 view .LVU86
	ldrb	r4, [r3, #2]	@ zero_extendqisi2
	.loc 1 87 66 view .LVU87
	lsls	r4, r4, #16
	.loc 1 87 46 view .LVU88
	orr	r4, r4, r5, lsl #24
	.loc 1 88 34 view .LVU89
	ldrb	r5, [r3, #3]	@ zero_extendqisi2
	.loc 1 87 74 view .LVU90
	orr	r4, r4, r5, lsl #8
	.loc 1 88 51 view .LVU91
	ldrb	r3, [r3, #4]	@ zero_extendqisi2
	.loc 1 88 45 view .LVU92
	orrs	r3, r3, r4
	.loc 1 87 18 view .LVU93
	str	r3, [r2]
	.loc 1 89 13 is_stmt 1 view .LVU94
	.loc 1 89 18 is_stmt 0 view .LVU95
	ldr	r3, [r0]
	adds	r3, r3, #5
	str	r3, [r0]
	.loc 1 90 13 is_stmt 1 view .LVU96
	b	.L11
.L17:
	.loc 1 50 15 is_stmt 0 view .LVU97
	mvn	r0, #95
.LVL17:
	.loc 1 50 15 view .LVU98
	b	.L8
.LVL18:
.L18:
	.loc 1 52 7 view .LVU99
	mvn	r0, #99
.LVL19:
	.loc 1 52 7 view .LVU100
	b	.L8
.LVL20:
.L19:
	.loc 1 60 23 view .LVU101
	mvn	r0, #95
.LVL21:
	.loc 1 60 23 view .LVU102
	b	.L8
.LVL22:
.L20:
	.loc 1 68 23 view .LVU103
	mvn	r0, #95
.LVL23:
	.loc 1 68 23 view .LVU104
	b	.L8
.LVL24:
.L21:
	.loc 1 76 23 view .LVU105
	mvn	r0, #95
.LVL25:
	.loc 1 76 23 view .LVU106
	b	.L8
.LVL26:
.L22:
	.loc 1 85 23 view .LVU107
	mvn	r0, #95
.LVL27:
	.loc 1 85 23 view .LVU108
	b	.L8
.LVL28:
.L23:
	.loc 1 98 15 view .LVU109
	mvn	r0, #95
.LVL29:
	.loc 1 98 15 view .LVU110
	b	.L8
	.cfi_endproc
.LFE19:
	.size	mbedtls_asn1_get_len, .-mbedtls_asn1_get_len
	.section	.text.mbedtls_asn1_get_tag,"ax",%progbits
	.align	1
	.global	mbedtls_asn1_get_tag
	.syntax unified
	.thumb
	.thumb_func
	.fpu fpv4-sp-d16
	.type	mbedtls_asn1_get_tag, %function
mbedtls_asn1_get_tag:
.LVL30:
.LFB20:
	.loc 1 106 1 is_stmt 1 view -0
	.cfi_startproc
	@ args = 0, pretend = 0, frame = 0
	@ frame_needed = 0, uses_anonymous_args = 0
	.loc 1 106 1 is_stmt 0 view .LVU112
	push	{r3, r4, r5, lr}
	.cfi_def_cfa_offset 16
	.cfi_offset 3, -16
	.cfi_offset 4, -12
	.cfi_offset 5, -8
	.cfi_offset 14, -4
	.loc 1 107 5 is_stmt 1 view .LVU113
	.loc 1 107 17 is_stmt 0 view .LVU114
	ldr	r4, [r0]
	.loc 1 107 15 view .LVU115
	subs	r5, r1, r4
	.loc 1 107 7 view .LVU116
	cmp	r5, #0
	ble	.L27
	.loc 1 110 5 is_stmt 1 view .LVU117
	.loc 1 110 9 is_stmt 0 view .LVU118
	ldrb	r5, [r4]	@ zero_extendqisi2
	.loc 1 110 7 view .LVU119
	cmp	r5, r3
	bne	.L28
	.loc 1 113 5 is_stmt 1 view .LVU120
	.loc 1 113 9 is_stmt 0 view .LVU121
	adds	r4, r4, #1
	str	r4, [r0]
	.loc 1 115 5 is_stmt 1 view .LVU122
	.loc 1 115 13 is_stmt 0 view .LVU123
	bl	mbedtls_asn1_get_len
.LVL31:
.L25:
	.loc 1 116 1 view .LVU124
	pop	{r3, r4, r5, pc}
.LVL32:
.L27:
	.loc 1 108 15 view .LVU125
	mvn	r0, #95
.LVL33:
	.loc 1 108 15 view .LVU126
	b	.L25
.LVL34:
.L28:
	.loc 1 111 15 view .LVU127
	mvn	r0, #97
.LVL35:
	.loc 1 111 15 view .LVU128
	b	.L25
	.cfi_endproc
.LFE20:
	.size	mbedtls_asn1_get_tag, .-mbedtls_asn1_get_tag
	.section	.text.asn1_get_tagged_int,"ax",%progbits
	.align	1
	.syntax unified
	.thumb
	.thumb_func
	.fpu fpv4-sp-d16
	.type	asn1_get_tagged_int, %function
asn1_get_tagged_int:
.LVL36:
.LFB22:
	.loc 1 140 1 is_stmt 1 view -0
	.cfi_startproc
	@ args = 0, pretend = 0, frame = 8
	@ frame_needed = 0, uses_anonymous_args = 0
	.loc 1 140 1 is_stmt 0 view .LVU130
	push	{r4, r5, lr}
	.cfi_def_cfa_offset 12
	.cfi_offset 4, -12
	.cfi_offset 5, -8
	.cfi_offset 14, -4
	sub	sp, sp, #12
	.cfi_def_cfa_offset 24
	mov	r4, r0
	mov	r5, r3
	.loc 1 141 5 is_stmt 1 view .LVU131
.LVL37:
	.loc 1 142 5 view .LVU132
	.loc 1 144 5 view .LVU133
	.loc 1 144 17 is_stmt 0 view .LVU134
	mov	r3, r2
.LVL38:
	.loc 1 144 17 view .LVU135
	add	r2, sp, #4
.LVL39:
	.loc 1 144 17 view .LVU136
	bl	mbedtls_asn1_get_tag
.LVL40:
	.loc 1 144 7 view .LVU137
	mov	r1, r0
	cmp	r0, #0
	bne	.L30
	.loc 1 151 5 is_stmt 1 view .LVU138
	.loc 1 151 13 is_stmt 0 view .LVU139
	ldr	r3, [sp, #4]
	.loc 1 151 7 view .LVU140
	cmp	r3, #0
	beq	.L38
	.loc 1 154 5 is_stmt 1 view .LVU141
	.loc 1 154 12 is_stmt 0 view .LVU142
	ldr	r3, [r4]
	.loc 1 154 24 view .LVU143
	ldrsb	r3, [r3]
	.loc 1 154 7 view .LVU144
	cmp	r3, #0
	bge	.L32
	.loc 1 155 15 view .LVU145
	mvn	r1, #99
	b	.L30
.LVL41:
.L34:
	.loc 1 160 9 is_stmt 1 view .LVU146
	adds	r2, r2, #1
	str	r2, [r4]
	.loc 1 161 9 view .LVU147
	ldr	r2, [sp, #4]
	subs	r2, r2, #1
	str	r2, [sp, #4]
.L32:
	.loc 1 158 10 view .LVU148
	.loc 1 158 16 is_stmt 0 view .LVU149
	ldr	r3, [sp, #4]
	.loc 1 158 10 view .LVU150
	cbz	r3, .L33
	.loc 1 158 24 discriminator 1 view .LVU151
	ldr	r2, [r4]
	.loc 1 158 23 discriminator 1 view .LVU152
	ldrb	r0, [r2]	@ zero_extendqisi2
	.loc 1 158 20 discriminator 1 view .LVU153
	cmp	r0, #0
	beq	.L34
.L33:
	.loc 1 166 5 is_stmt 1 view .LVU154
	.loc 1 166 7 is_stmt 0 view .LVU155
	cmp	r3, #4
	bhi	.L40
	.loc 1 168 5 is_stmt 1 view .LVU156
	.loc 1 168 7 is_stmt 0 view .LVU157
	beq	.L43
.L35:
	.loc 1 171 5 is_stmt 1 view .LVU158
	.loc 1 171 10 is_stmt 0 view .LVU159
	movs	r3, #0
	str	r3, [r5]
	.loc 1 172 5 is_stmt 1 view .LVU160
	.loc 1 172 10 is_stmt 0 view .LVU161
	b	.L36
.L43:
	.loc 1 168 36 discriminator 1 view .LVU162
	ldr	r3, [r4]
	.loc 1 168 48 discriminator 1 view .LVU163
	ldrsb	r3, [r3]
	.loc 1 168 30 discriminator 1 view .LVU164
	cmp	r3, #0
	bge	.L35
	.loc 1 169 15 view .LVU165
	mvn	r1, #99
.LVL42:
	.loc 1 169 15 view .LVU166
	b	.L30
.LVL43:
.L37:
	.loc 1 174 9 is_stmt 1 view .LVU167
	.loc 1 174 18 is_stmt 0 view .LVU168
	ldr	r2, [r5]
	.loc 1 174 33 view .LVU169
	ldr	r3, [r4]
	.loc 1 174 32 view .LVU170
	ldrb	r3, [r3]	@ zero_extendqisi2
	.loc 1 174 30 view .LVU171
	orr	r3, r3, r2, lsl #8
	.loc 1 174 14 view .LVU172
	str	r3, [r5]
	.loc 1 175 9 is_stmt 1 view .LVU173
	.loc 1 175 10 is_stmt 0 view .LVU174
	ldr	r2, [r4]
	.loc 1 175 13 view .LVU175
	adds	r2, r2, #1
	str	r2, [r4]
.L36:
	.loc 1 172 10 is_stmt 1 view .LVU176
	.loc 1 172 15 is_stmt 0 view .LVU177
	ldr	r3, [sp, #4]
	subs	r2, r3, #1
	str	r2, [sp, #4]
	.loc 1 172 10 view .LVU178
	cmp	r3, #0
	bne	.L37
.LVL44:
.L30:
	.loc 1 179 1 view .LVU179
	mov	r0, r1
	add	sp, sp, #12
	.cfi_remember_state
	.cfi_def_cfa_offset 12
	@ sp needed
	pop	{r4, r5, pc}
.LVL45:
.L38:
	.cfi_restore_state
	.loc 1 152 15 view .LVU180
	mvn	r1, #99
	b	.L30
.LVL46:
.L40:
	.loc 1 167 15 view .LVU181
	mvn	r1, #99
.LVL47:
	.loc 1 167 15 view .LVU182
	b	.L30
	.cfi_endproc
.LFE22:
	.size	asn1_get_tagged_int, .-asn1_get_tagged_int
	.section	.text.mbedtls_asn1_get_bool,"ax",%progbits
	.align	1
	.global	mbedtls_asn1_get_bool
	.syntax unified
	.thumb
	.thumb_func
	.fpu fpv4-sp-d16
	.type	mbedtls_asn1_get_bool, %function
mbedtls_asn1_get_bool:
.LVL48:
.LFB21:
	.loc 1 121 1 is_stmt 1 view -0
	.cfi_startproc
	@ args = 0, pretend = 0, frame = 8
	@ frame_needed = 0, uses_anonymous_args = 0
	.loc 1 121 1 is_stmt 0 view .LVU184
	push	{r4, r5, lr}
	.cfi_def_cfa_offset 12
	.cfi_offset 4, -12
	.cfi_offset 5, -8
	.cfi_offset 14, -4
	sub	sp, sp, #12
	.cfi_def_cfa_offset 24
	mov	r4, r0
	mov	r5, r2
	.loc 1 122 5 is_stmt 1 view .LVU185
.LVL49:
	.loc 1 123 5 view .LVU186
	.loc 1 125 5 view .LVU187
	.loc 1 125 17 is_stmt 0 view .LVU188
	movs	r3, #1
	add	r2, sp, #4
.LVL50:
	.loc 1 125 17 view .LVU189
	bl	mbedtls_asn1_get_tag
.LVL51:
	.loc 1 125 7 view .LVU190
	cbnz	r0, .L44
	.loc 1 128 5 is_stmt 1 view .LVU191
	.loc 1 128 13 is_stmt 0 view .LVU192
	ldr	r3, [sp, #4]
	.loc 1 128 7 view .LVU193
	cmp	r3, #1
	bne	.L46
	.loc 1 131 5 is_stmt 1 view .LVU194
	.loc 1 131 15 is_stmt 0 view .LVU195
	ldr	r3, [r4]
	.loc 1 131 14 view .LVU196
	ldrb	r3, [r3]	@ zero_extendqisi2
	.loc 1 131 29 view .LVU197
	subs	r3, r3, #0
	it	ne
	movne	r3, #1
	.loc 1 131 10 view .LVU198
	str	r3, [r5]
	.loc 1 132 5 is_stmt 1 view .LVU199
	.loc 1 132 6 is_stmt 0 view .LVU200
	ldr	r3, [r4]
	.loc 1 132 9 view .LVU201
	adds	r3, r3, #1
	str	r3, [r4]
	.loc 1 134 5 is_stmt 1 view .LVU202
.L44:
	.loc 1 135 1 is_stmt 0 view .LVU203
	add	sp, sp, #12
	.cfi_remember_state
	.cfi_def_cfa_offset 12
	@ sp needed
	pop	{r4, r5, pc}
.LVL52:
.L46:
	.cfi_restore_state
	.loc 1 129 15 view .LVU204
	mvn	r0, #99
	b	.L44
	.cfi_endproc
.LFE21:
	.size	mbedtls_asn1_get_bool, .-mbedtls_asn1_get_bool
	.section	.text.mbedtls_asn1_get_int,"ax",%progbits
	.align	1
	.global	mbedtls_asn1_get_int
	.syntax unified
	.thumb
	.thumb_func
	.fpu fpv4-sp-d16
	.type	mbedtls_asn1_get_int, %function
mbedtls_asn1_get_int:
.LVL53:
.LFB23:
	.loc 1 184 1 is_stmt 1 view -0
	.cfi_startproc
	@ args = 0, pretend = 0, frame = 0
	@ frame_needed = 0, uses_anonymous_args = 0
	.loc 1 184 1 is_stmt 0 view .LVU206
	push	{r3, lr}
	.cfi_def_cfa_offset 8
	.cfi_offset 3, -8
	.cfi_offset 14, -4
	mov	r3, r2
	.loc 1 185 5 is_stmt 1 view .LVU207
	.loc 1 185 13 is_stmt 0 view .LVU208
	movs	r2, #2
.LVL54:
	.loc 1 185 13 view .LVU209
	bl	asn1_get_tagged_int
.LVL55:
	.loc 1 186 1 view .LVU210
	pop	{r3, pc}
	.cfi_endproc
.LFE23:
	.size	mbedtls_asn1_get_int, .-mbedtls_asn1_get_int
	.section	.text.mbedtls_asn1_get_enum,"ax",%progbits
	.align	1
	.global	mbedtls_asn1_get_enum
	.syntax unified
	.thumb
	.thumb_func
	.fpu fpv4-sp-d16
	.type	mbedtls_asn1_get_enum, %function
mbedtls_asn1_get_enum:
.LVL56:
.LFB24:
	.loc 1 191 1 is_stmt 1 view -0
	.cfi_startproc
	@ args = 0, pretend = 0, frame = 0
	@ frame_needed = 0, uses_anonymous_args = 0
	.loc 1 191 1 is_stmt 0 view .LVU212
	push	{r3, lr}
	.cfi_def_cfa_offset 8
	.cfi_offset 3, -8
	.cfi_offset 14, -4
	mov	r3, r2
	.loc 1 192 5 is_stmt 1 view .LVU213
	.loc 1 192 13 is_stmt 0 view .LVU214
	movs	r2, #10
.LVL57:
	.loc 1 192 13 view .LVU215
	bl	asn1_get_tagged_int
.LVL58:
	.loc 1 193 1 view .LVU216
	pop	{r3, pc}
	.cfi_endproc
.LFE24:
	.size	mbedtls_asn1_get_enum, .-mbedtls_asn1_get_enum
	.section	.text.mbedtls_asn1_get_mpi,"ax",%progbits
	.align	1
	.global	mbedtls_asn1_get_mpi
	.syntax unified
	.thumb
	.thumb_func
	.fpu fpv4-sp-d16
	.type	mbedtls_asn1_get_mpi, %function
mbedtls_asn1_get_mpi:
.LVL59:
.LFB25:
	.loc 1 199 1 is_stmt 1 view -0
	.cfi_startproc
	@ args = 0, pretend = 0, frame = 8
	@ frame_needed = 0, uses_anonymous_args = 0
	.loc 1 199 1 is_stmt 0 view .LVU218
	push	{r4, r5, lr}
	.cfi_def_cfa_offset 12
	.cfi_offset 4, -12
	.cfi_offset 5, -8
	.cfi_offset 14, -4
	sub	sp, sp, #12
	.cfi_def_cfa_offset 24
	mov	r4, r0
	mov	r5, r2
	.loc 1 200 5 is_stmt 1 view .LVU219
.LVL60:
	.loc 1 201 5 view .LVU220
	.loc 1 203 5 view .LVU221
	.loc 1 203 17 is_stmt 0 view .LVU222
	movs	r3, #2
	add	r2, sp, #4
.LVL61:
	.loc 1 203 17 view .LVU223
	bl	mbedtls_asn1_get_tag
.LVL62:
	.loc 1 203 7 view .LVU224
	cbz	r0, .L55
.LVL63:
.L52:
	.loc 1 211 1 view .LVU225
	add	sp, sp, #12
	.cfi_remember_state
	.cfi_def_cfa_offset 12
	@ sp needed
	pop	{r4, r5, pc}
.LVL64:
.L55:
	.cfi_restore_state
	.loc 1 206 5 is_stmt 1 view .LVU226
	.loc 1 206 11 is_stmt 0 view .LVU227
	ldr	r2, [sp, #4]
	ldr	r1, [r4]
	mov	r0, r5
	bl	mbedtls_mpi_read_binary
.LVL65:
	.loc 1 208 5 is_stmt 1 view .LVU228
	.loc 1 208 8 is_stmt 0 view .LVU229
	ldr	r3, [r4]
	ldr	r2, [sp, #4]
	add	r3, r3, r2
	str	r3, [r4]
	.loc 1 210 5 is_stmt 1 view .LVU230
	.loc 1 210 11 is_stmt 0 view .LVU231
	b	.L52
	.cfi_endproc
.LFE25:
	.size	mbedtls_asn1_get_mpi, .-mbedtls_asn1_get_mpi
	.section	.text.mbedtls_asn1_get_bitstring,"ax",%progbits
	.align	1
	.global	mbedtls_asn1_get_bitstring
	.syntax unified
	.thumb
	.thumb_func
	.fpu fpv4-sp-d16
	.type	mbedtls_asn1_get_bitstring, %function
mbedtls_asn1_get_bitstring:
.LVL66:
.LFB26:
	.loc 1 216 1 is_stmt 1 view -0
	.cfi_startproc
	@ args = 0, pretend = 0, frame = 0
	@ frame_needed = 0, uses_anonymous_args = 0
	.loc 1 216 1 is_stmt 0 view .LVU233
	push	{r4, r5, r6, lr}
	.cfi_def_cfa_offset 16
	.cfi_offset 4, -16
	.cfi_offset 5, -12
	.cfi_offset 6, -8
	.cfi_offset 14, -4
	mov	r5, r0
	mov	r6, r1
	mov	r4, r2
	.loc 1 217 5 is_stmt 1 view .LVU234
.LVL67:
	.loc 1 220 5 view .LVU235
	.loc 1 220 17 is_stmt 0 view .LVU236
	movs	r3, #3
	bl	mbedtls_asn1_get_tag
.LVL68:
	.loc 1 220 7 view .LVU237
	cbnz	r0, .L56
	.loc 1 224 5 is_stmt 1 view .LVU238
	.loc 1 224 11 is_stmt 0 view .LVU239
	ldr	r3, [r4]
	.loc 1 224 7 view .LVU240
	cbz	r3, .L58
	.loc 1 226 5 is_stmt 1 view .LVU241
	.loc 1 226 13 is_stmt 0 view .LVU242
	subs	r3, r3, #1
	str	r3, [r4]
	.loc 1 229 5 is_stmt 1 view .LVU243
	.loc 1 229 24 is_stmt 0 view .LVU244
	ldr	r3, [r5]
	.loc 1 229 23 view .LVU245
	ldrb	r3, [r3]	@ zero_extendqisi2
	.loc 1 229 21 view .LVU246
	strb	r3, [r4, #4]
	.loc 1 230 5 is_stmt 1 view .LVU247
	.loc 1 230 7 is_stmt 0 view .LVU248
	cmp	r3, #7
	bhi	.L59
	.loc 1 232 5 is_stmt 1 view .LVU249
	.loc 1 232 6 is_stmt 0 view .LVU250
	ldr	r3, [r5]
	.loc 1 232 9 view .LVU251
	adds	r3, r3, #1
	str	r3, [r5]
	.loc 1 235 5 is_stmt 1 view .LVU252
	.loc 1 235 11 is_stmt 0 view .LVU253
	str	r3, [r4, #8]
	.loc 1 236 5 is_stmt 1 view .LVU254
	.loc 1 236 13 is_stmt 0 view .LVU255
	ldr	r2, [r4]
	.loc 1 236 8 view .LVU256
	add	r3, r3, r2
	str	r3, [r5]
	.loc 1 238 5 is_stmt 1 view .LVU257
	.loc 1 238 7 is_stmt 0 view .LVU258
	cmp	r3, r6
	bne	.L62
.L56:
	.loc 1 242 1 view .LVU259
	pop	{r4, r5, r6, pc}
.LVL69:
.L58:
	.loc 1 225 15 view .LVU260
	mvn	r0, #95
	b	.L56
.L59:
	.loc 1 231 15 view .LVU261
	mvn	r0, #99
	b	.L56
.L62:
	.loc 1 239 15 view .LVU262
	mvn	r0, #101
	b	.L56
	.cfi_endproc
.LFE26:
	.size	mbedtls_asn1_get_bitstring, .-mbedtls_asn1_get_bitstring
	.section	.text.mbedtls_asn1_traverse_sequence_of,"ax",%progbits
	.align	1
	.global	mbedtls_asn1_traverse_sequence_of
	.syntax unified
	.thumb
	.thumb_func
	.fpu fpv4-sp-d16
	.type	mbedtls_asn1_traverse_sequence_of, %function
mbedtls_asn1_traverse_sequence_of:
.LVL70:
.LFB27:
	.loc 1 256 1 is_stmt 1 view -0
	.cfi_startproc
	@ args = 16, pretend = 0, frame = 16
	@ frame_needed = 0, uses_anonymous_args = 0
	.loc 1 256 1 is_stmt 0 view .LVU264
	push	{r4, r5, r6, r7, r8, r9, r10, fp, lr}
	.cfi_def_cfa_offset 36
	.cfi_offset 4, -36
	.cfi_offset 5, -32
	.cfi_offset 6, -28
	.cfi_offset 7, -24
	.cfi_offset 8, -20
	.cfi_offset 9, -16
	.cfi_offset 10, -12
	.cfi_offset 11, -8
	.cfi_offset 14, -4
	sub	sp, sp, #20
	.cfi_def_cfa_offset 56
	mov	r4, r0
	mov	r6, r1
	mov	r7, r2
	mov	r8, r3
	ldrb	r9, [sp, #56]	@ zero_extendqisi2
	ldrb	r10, [sp, #60]	@ zero_extendqisi2
	ldr	fp, [sp, #64]
	.loc 1 257 5 is_stmt 1 view .LVU265
	.loc 1 258 5 view .LVU266
	.loc 1 261 5 view .LVU267
	.loc 1 261 17 is_stmt 0 view .LVU268
	movs	r3, #48
.LVL71:
	.loc 1 261 17 view .LVU269
	add	r2, sp, #12
.LVL72:
	.loc 1 261 17 view .LVU270
	bl	mbedtls_asn1_get_tag
.LVL73:
	.loc 1 261 7 view .LVU271
	str	r0, [sp, #4]
	cmp	r0, #0
	bne	.L63
	.loc 1 267 5 is_stmt 1 view .LVU272
	.loc 1 267 9 is_stmt 0 view .LVU273
	ldr	r3, [r4]
	.loc 1 267 12 view .LVU274
	ldr	r2, [sp, #12]
	add	r3, r3, r2
	.loc 1 267 7 view .LVU275
	cmp	r3, r6
	beq	.L65
	.loc 1 268 15 view .LVU276
	mvn	r3, #101
	str	r3, [sp, #4]
	b	.L63
.LVL74:
.L66:
.LBB4:
	.loc 1 290 9 is_stmt 1 view .LVU277
	.loc 1 290 12 is_stmt 0 view .LVU278
	ldr	r3, [r4]
	ldr	r2, [sp, #12]
	add	r3, r3, r2
	str	r3, [r4]
.LVL75:
.L65:
	.loc 1 290 12 view .LVU279
.LBE4:
	.loc 1 270 10 is_stmt 1 view .LVU280
	.loc 1 270 12 is_stmt 0 view .LVU281
	ldr	r3, [r4]
	.loc 1 270 10 view .LVU282
	cmp	r3, r6
	bcs	.L63
.LBB5:
	.loc 1 272 9 is_stmt 1 view .LVU283
	.loc 1 272 40 is_stmt 0 view .LVU284
	adds	r2, r3, #1
	str	r2, [r4]
	.loc 1 272 29 view .LVU285
	ldrb	r5, [r3]	@ zero_extendqisi2
.LVL76:
	.loc 1 274 9 is_stmt 1 view .LVU286
	.loc 1 274 37 is_stmt 0 view .LVU287
	and	r3, r5, r7
	.loc 1 274 11 view .LVU288
	cmp	r3, r8
	bne	.L69
	.loc 1 277 9 is_stmt 1 view .LVU289
	.loc 1 277 21 is_stmt 0 view .LVU290
	add	r2, sp, #12
	mov	r1, r6
	mov	r0, r4
.LVL77:
	.loc 1 277 21 view .LVU291
	bl	mbedtls_asn1_get_len
.LVL78:
	.loc 1 277 11 view .LVU292
	cbnz	r0, .L70
	.loc 1 280 9 is_stmt 1 view .LVU293
	.loc 1 280 36 is_stmt 0 view .LVU294
	and	r3, r5, r9
	.loc 1 280 11 view .LVU295
	cmp	r3, r10
	bne	.L66
	.loc 1 282 13 is_stmt 1 view .LVU296
	.loc 1 282 15 is_stmt 0 view .LVU297
	cmp	fp, #0
	beq	.L66
	.loc 1 284 17 is_stmt 1 view .LVU298
	.loc 1 284 23 is_stmt 0 view .LVU299
	ldr	r3, [sp, #12]
	ldr	r2, [r4]
	mov	r1, r5
	ldr	r0, [sp, #68]
.LVL79:
	.loc 1 284 23 view .LVU300
	blx	fp
.LVL80:
	.loc 1 285 17 is_stmt 1 view .LVU301
	.loc 1 285 19 is_stmt 0 view .LVU302
	cmp	r0, #0
	beq	.L66
	.loc 1 286 27 view .LVU303
	str	r0, [sp, #4]
	b	.L63
.L69:
	.loc 1 275 19 view .LVU304
	mvn	r3, #97
	str	r3, [sp, #4]
.LVL81:
.L63:
	.loc 1 275 19 view .LVU305
.LBE5:
	.loc 1 294 1 view .LVU306
	ldr	r0, [sp, #4]
.LVL82:
	.loc 1 294 1 view .LVU307
	add	sp, sp, #20
	.cfi_remember_state
	.cfi_def_cfa_offset 36
	@ sp needed
	pop	{r4, r5, r6, r7, r8, r9, r10, fp, pc}
.LVL83:
.L70:
	.cfi_restore_state
.LBB6:
	.loc 1 278 19 view .LVU308
	str	r0, [sp, #4]
	b	.L63
.LBE6:
	.cfi_endproc
.LFE27:
	.size	mbedtls_asn1_traverse_sequence_of, .-mbedtls_asn1_traverse_sequence_of
	.section	.text.mbedtls_asn1_get_bitstring_null,"ax",%progbits
	.align	1
	.global	mbedtls_asn1_get_bitstring_null
	.syntax unified
	.thumb
	.thumb_func
	.fpu fpv4-sp-d16
	.type	mbedtls_asn1_get_bitstring_null, %function
mbedtls_asn1_get_bitstring_null:
.LVL84:
.LFB28:
	.loc 1 301 1 is_stmt 1 view -0
	.cfi_startproc
	@ args = 0, pretend = 0, frame = 0
	@ frame_needed = 0, uses_anonymous_args = 0
	.loc 1 301 1 is_stmt 0 view .LVU310
	push	{r3, r4, r5, lr}
	.cfi_def_cfa_offset 16
	.cfi_offset 3, -16
	.cfi_offset 4, -12
	.cfi_offset 5, -8
	.cfi_offset 14, -4
	mov	r5, r0
	mov	r4, r2
	.loc 1 302 5 is_stmt 1 view .LVU311
.LVL85:
	.loc 1 304 5 view .LVU312
	.loc 1 304 17 is_stmt 0 view .LVU313
	movs	r3, #3
	bl	mbedtls_asn1_get_tag
.LVL86:
	.loc 1 304 7 view .LVU314
	cbnz	r0, .L74
	.loc 1 307 5 is_stmt 1 view .LVU315
	.loc 1 307 9 is_stmt 0 view .LVU316
	ldr	r3, [r4]
	.loc 1 307 7 view .LVU317
	cbz	r3, .L76
	.loc 1 309 5 is_stmt 1 view .LVU318
	subs	r3, r3, #1
	str	r3, [r4]
	.loc 1 311 5 view .LVU319
	.loc 1 311 10 is_stmt 0 view .LVU320
	ldr	r3, [r5]
	.loc 1 311 9 view .LVU321
	ldrb	r2, [r3]	@ zero_extendqisi2
	.loc 1 311 7 view .LVU322
	cbnz	r2, .L77
	.loc 1 313 5 is_stmt 1 view .LVU323
	adds	r3, r3, #1
	str	r3, [r5]
	.loc 1 315 5 view .LVU324
.L74:
	.loc 1 316 1 is_stmt 0 view .LVU325
	pop	{r3, r4, r5, pc}
.LVL87:
.L76:
	.loc 1 308 15 view .LVU326
	mvn	r0, #103
	b	.L74
.L77:
	.loc 1 312 15 view .LVU327
	mvn	r0, #103
	b	.L74
	.cfi_endproc
.LFE28:
	.size	mbedtls_asn1_get_bitstring_null, .-mbedtls_asn1_get_bitstring_null
	.section	.text.mbedtls_asn1_sequence_free,"ax",%progbits
	.align	1
	.global	mbedtls_asn1_sequence_free
	.syntax unified
	.thumb
	.thumb_func
	.fpu fpv4-sp-d16
	.type	mbedtls_asn1_sequence_free, %function
mbedtls_asn1_sequence_free:
.LVL88:
.LFB29:
	.loc 1 319 1 is_stmt 1 view -0
	.cfi_startproc
	@ args = 0, pretend = 0, frame = 0
	@ frame_needed = 0, uses_anonymous_args = 0
	.loc 1 319 1 is_stmt 0 view .LVU329
	push	{r3, r4, r5, lr}
	.cfi_def_cfa_offset 16
	.cfi_offset 3, -16
	.cfi_offset 4, -12
	.cfi_offset 5, -8
	.cfi_offset 14, -4
	mov	r4, r0
	.loc 1 320 5 is_stmt 1 view .LVU330
.LVL89:
.L80:
	.loc 1 320 10 view .LVU331
	cbz	r4, .L83
.LBB7:
	.loc 1 322 9 view .LVU332
	.loc 1 322 32 is_stmt 0 view .LVU333
	ldr	r5, [r4, #12]
.LVL90:
	.loc 1 323 9 is_stmt 1 view .LVU334
	movs	r1, #16
	mov	r0, r4
	bl	mbedtls_platform_zeroize
.LVL91:
	.loc 1 324 9 view .LVU335
	mov	r0, r4
	bl	mbedtls_free
.LVL92:
	.loc 1 325 9 view .LVU336
	.loc 1 325 13 is_stmt 0 view .LVU337
	mov	r4, r5
	b	.L80
.LVL93:
.L83:
	.loc 1 325 13 view .LVU338
.LBE7:
	.loc 1 327 1 view .LVU339
	pop	{r3, r4, r5, pc}
	.loc 1 327 1 view .LVU340
	.cfi_endproc
.LFE29:
	.size	mbedtls_asn1_sequence_free, .-mbedtls_asn1_sequence_free
	.section	.text.mbedtls_asn1_get_sequence_of,"ax",%progbits
	.align	1
	.global	mbedtls_asn1_get_sequence_of
	.syntax unified
	.thumb
	.thumb_func
	.fpu fpv4-sp-d16
	.type	mbedtls_asn1_get_sequence_of, %function
mbedtls_asn1_get_sequence_of:
.LVL94:
.LFB31:
	.loc 1 371 1 is_stmt 1 view -0
	.cfi_startproc
	@ args = 0, pretend = 0, frame = 8
	@ frame_needed = 0, uses_anonymous_args = 0
	.loc 1 371 1 is_stmt 0 view .LVU342
	push	{r4, lr}
	.cfi_def_cfa_offset 8
	.cfi_offset 4, -8
	.cfi_offset 14, -4
	sub	sp, sp, #24
	.cfi_def_cfa_offset 32
	.loc 1 372 5 is_stmt 1 view .LVU343
	.loc 1 372 35 is_stmt 0 view .LVU344
	str	r3, [sp, #16]
	str	r2, [sp, #20]
	.loc 1 373 4 is_stmt 1 view .LVU345
.LVL95:
.LBB8:
.LBI8:
	.file 2 "/home/sebin/LIOT/gcc-arm-none-eabi-9-2019-q4-major/arm-none-eabi/include/ssp/string.h"
	.loc 2 86 189 view .LVU346
.LBB9:
	.loc 2 86 238 view .LVU347
	.loc 2 86 245 is_stmt 0 view .LVU348
	movs	r4, #0
	str	r4, [r2]	@ unaligned
	str	r4, [r2, #4]	@ unaligned
	str	r4, [r2, #8]	@ unaligned
	str	r4, [r2, #12]	@ unaligned
.LVL96:
	.loc 2 86 245 view .LVU349
.LBE9:
.LBE8:
	.loc 1 374 5 is_stmt 1 view .LVU350
	.loc 1 374 13 is_stmt 0 view .LVU351
	add	r2, sp, #16
.LVL97:
	.loc 1 374 13 view .LVU352
	str	r2, [sp, #12]
	ldr	r2, .L86
	str	r2, [sp, #8]
	str	r4, [sp, #4]
	str	r4, [sp]
	uxtb	r3, r3
.LVL98:
	.loc 1 374 13 view .LVU353
	movs	r2, #255
	bl	mbedtls_asn1_traverse_sequence_of
.LVL99:
	.loc 1 377 1 view .LVU354
	add	sp, sp, #24
	.cfi_def_cfa_offset 8
	@ sp needed
	pop	{r4, pc}
.L87:
	.align	2
.L86:
	.word	asn1_get_sequence_of_cb
	.cfi_endproc
.LFE31:
	.size	mbedtls_asn1_get_sequence_of, .-mbedtls_asn1_get_sequence_of
	.section	.text.mbedtls_asn1_get_alg,"ax",%progbits
	.align	1
	.global	mbedtls_asn1_get_alg
	.syntax unified
	.thumb
	.thumb_func
	.fpu fpv4-sp-d16
	.type	mbedtls_asn1_get_alg, %function
mbedtls_asn1_get_alg:
.LVL100:
.LFB32:
	.loc 1 382 1 is_stmt 1 view -0
	.cfi_startproc
	@ args = 0, pretend = 0, frame = 8
	@ frame_needed = 0, uses_anonymous_args = 0
	.loc 1 382 1 is_stmt 0 view .LVU356
	push	{r4, r5, r6, r7, r8, lr}
	.cfi_def_cfa_offset 24
	.cfi_offset 4, -24
	.cfi_offset 5, -20
	.cfi_offset 6, -16
	.cfi_offset 7, -12
	.cfi_offset 8, -8
	.cfi_offset 14, -4
	sub	sp, sp, #8
	.cfi_def_cfa_offset 32
	mov	r4, r0
	mov	r5, r1
	mov	r7, r2
	mov	r8, r3
	.loc 1 383 5 is_stmt 1 view .LVU357
.LVL101:
	.loc 1 384 5 view .LVU358
	.loc 1 386 5 view .LVU359
	.loc 1 386 17 is_stmt 0 view .LVU360
	movs	r3, #48
.LVL102:
	.loc 1 386 17 view .LVU361
	add	r2, sp, #4
.LVL103:
	.loc 1 386 17 view .LVU362
	bl	mbedtls_asn1_get_tag
.LVL104:
	.loc 1 386 7 view .LVU363
	mov	r6, r0
	cbnz	r0, .L88
	.loc 1 390 5 is_stmt 1 view .LVU364
	.loc 1 390 17 is_stmt 0 view .LVU365
	ldr	r3, [r4]
	.loc 1 390 15 view .LVU366
	subs	r1, r5, r3
	.loc 1 390 7 view .LVU367
	cmp	r1, #0
	ble	.L91
	.loc 1 393 5 is_stmt 1 view .LVU368
	.loc 1 393 16 is_stmt 0 view .LVU369
	ldrb	r3, [r3]	@ zero_extendqisi2
	.loc 1 393 14 view .LVU370
	mov	r2, r7
	str	r3, [r2], #4
	.loc 1 394 5 is_stmt 1 view .LVU371
	.loc 1 394 11 is_stmt 0 view .LVU372
	ldr	r5, [r4]
.LVL105:
	.loc 1 394 14 view .LVU373
	ldr	r3, [sp, #4]
	.loc 1 394 9 view .LVU374
	add	r5, r5, r3
.LVL106:
	.loc 1 396 5 is_stmt 1 view .LVU375
	.loc 1 396 17 is_stmt 0 view .LVU376
	movs	r3, #6
	mov	r1, r5
	mov	r0, r4
.LVL107:
	.loc 1 396 17 view .LVU377
	bl	mbedtls_asn1_get_tag
.LVL108:
	.loc 1 396 7 view .LVU378
	mov	r6, r0
	cbnz	r0, .L88
	.loc 1 399 5 is_stmt 1 view .LVU379
	.loc 1 399 14 is_stmt 0 view .LVU380
	ldr	r3, [r4]
	.loc 1 399 12 view .LVU381
	str	r3, [r7, #8]
	.loc 1 400 5 is_stmt 1 view .LVU382
	.loc 1 400 14 is_stmt 0 view .LVU383
	ldr	r1, [r7, #4]
	.loc 1 400 8 view .LVU384
	adds	r2, r3, r1
	str	r2, [r4]
	.loc 1 402 5 is_stmt 1 view .LVU385
	.loc 1 402 7 is_stmt 0 view .LVU386
	cmp	r2, r5
	beq	.L94
	.loc 1 408 5 is_stmt 1 view .LVU387
	.loc 1 408 19 is_stmt 0 view .LVU388
	ldrb	r3, [r3, r1]	@ zero_extendqisi2
	.loc 1 408 17 view .LVU389
	mov	r2, r8
	str	r3, [r2], #4
	.loc 1 409 5 is_stmt 1 view .LVU390
	.loc 1 409 6 is_stmt 0 view .LVU391
	ldr	r3, [r4]
	.loc 1 409 9 view .LVU392
	adds	r3, r3, #1
	str	r3, [r4]
	.loc 1 411 5 is_stmt 1 view .LVU393
	.loc 1 411 17 is_stmt 0 view .LVU394
	mov	r1, r5
	mov	r0, r4
.LVL109:
	.loc 1 411 17 view .LVU395
	bl	mbedtls_asn1_get_len
.LVL110:
	.loc 1 411 7 view .LVU396
	mov	r6, r0
	cbnz	r0, .L88
	.loc 1 414 5 is_stmt 1 view .LVU397
	.loc 1 414 17 is_stmt 0 view .LVU398
	ldr	r3, [r4]
	.loc 1 414 15 view .LVU399
	str	r3, [r8, #8]
	.loc 1 415 5 is_stmt 1 view .LVU400
	.loc 1 415 17 is_stmt 0 view .LVU401
	ldr	r2, [r8, #4]
	.loc 1 415 8 view .LVU402
	add	r3, r3, r2
	str	r3, [r4]
	.loc 1 417 5 is_stmt 1 view .LVU403
	.loc 1 417 7 is_stmt 0 view .LVU404
	cmp	r3, r5
	bne	.L95
.LVL111:
.L88:
	.loc 1 421 1 view .LVU405
	mov	r0, r6
	add	sp, sp, #8
	.cfi_remember_state
	.cfi_def_cfa_offset 24
	@ sp needed
	pop	{r4, r5, r6, r7, r8, pc}
.LVL112:
.L94:
	.cfi_restore_state
	.loc 1 404 9 is_stmt 1 view .LVU406
	movs	r1, #12
	mov	r0, r8
.LVL113:
	.loc 1 404 9 is_stmt 0 view .LVU407
	bl	mbedtls_platform_zeroize
.LVL114:
	.loc 1 405 9 is_stmt 1 view .LVU408
	.loc 1 405 15 is_stmt 0 view .LVU409
	b	.L88
.LVL115:
.L91:
	.loc 1 391 15 view .LVU410
	mvn	r6, #95
	b	.L88
.L95:
	.loc 1 418 15 view .LVU411
	mvn	r6, #101
	b	.L88
	.cfi_endproc
.LFE32:
	.size	mbedtls_asn1_get_alg, .-mbedtls_asn1_get_alg
	.section	.text.mbedtls_asn1_get_alg_null,"ax",%progbits
	.align	1
	.global	mbedtls_asn1_get_alg_null
	.syntax unified
	.thumb
	.thumb_func
	.fpu fpv4-sp-d16
	.type	mbedtls_asn1_get_alg_null, %function
mbedtls_asn1_get_alg_null:
.LVL116:
.LFB33:
	.loc 1 426 1 is_stmt 1 view -0
	.cfi_startproc
	@ args = 0, pretend = 0, frame = 16
	@ frame_needed = 0, uses_anonymous_args = 0
	.loc 1 426 1 is_stmt 0 view .LVU413
	push	{lr}
	.cfi_def_cfa_offset 4
	.cfi_offset 14, -4
	sub	sp, sp, #20
	.cfi_def_cfa_offset 24
	.loc 1 427 5 is_stmt 1 view .LVU414
.LVL117:
	.loc 1 428 5 view .LVU415
	.loc 1 430 4 view .LVU416
	.loc 1 430 26 is_stmt 0 view .LVU417
	movs	r3, #0
	str	r3, [sp, #4]
	str	r3, [sp, #8]
	str	r3, [sp, #12]
	.loc 1 432 5 is_stmt 1 view .LVU418
	.loc 1 432 17 is_stmt 0 view .LVU419
	add	r3, sp, #4
	bl	mbedtls_asn1_get_alg
.LVL118:
	.loc 1 432 7 view .LVU420
	cbnz	r0, .L96
	.loc 1 435 5 is_stmt 1 view .LVU421
	.loc 1 435 17 is_stmt 0 view .LVU422
	ldr	r3, [sp, #4]
	.loc 1 435 7 view .LVU423
	cmp	r3, #5
	beq	.L98
	.loc 1 435 30 discriminator 1 view .LVU424
	cbnz	r3, .L99
.L98:
	.loc 1 435 60 discriminator 3 view .LVU425
	ldr	r3, [sp, #8]
	.loc 1 435 51 discriminator 3 view .LVU426
	cbnz	r3, .L102
.L96:
	.loc 1 439 1 view .LVU427
	add	sp, sp, #20
	.cfi_remember_state
	.cfi_def_cfa_offset 4
	@ sp needed
	ldr	pc, [sp], #4
.LVL119:
.L99:
	.cfi_restore_state
	.loc 1 436 15 view .LVU428
	mvn	r0, #103
	b	.L96
.L102:
	mvn	r0, #103
	b	.L96
	.cfi_endproc
.LFE33:
	.size	mbedtls_asn1_get_alg_null, .-mbedtls_asn1_get_alg_null
	.section	.text.mbedtls_asn1_free_named_data,"ax",%progbits
	.align	1
	.global	mbedtls_asn1_free_named_data
	.syntax unified
	.thumb
	.thumb_func
	.fpu fpv4-sp-d16
	.type	mbedtls_asn1_free_named_data, %function
mbedtls_asn1_free_named_data:
.LVL120:
.LFB34:
	.loc 1 442 1 is_stmt 1 view -0
	.cfi_startproc
	@ args = 0, pretend = 0, frame = 0
	@ frame_needed = 0, uses_anonymous_args = 0
	.loc 1 443 5 view .LVU430
	.loc 1 443 7 is_stmt 0 view .LVU431
	cbz	r0, .L106
	.loc 1 442 1 view .LVU432
	push	{r4, lr}
	.cfi_def_cfa_offset 8
	.cfi_offset 4, -8
	.cfi_offset 14, -4
	mov	r4, r0
	.loc 1 446 5 is_stmt 1 view .LVU433
	ldr	r0, [r0, #8]
.LVL121:
	.loc 1 446 5 is_stmt 0 view .LVU434
	bl	mbedtls_free
.LVL122:
	.loc 1 447 5 is_stmt 1 view .LVU435
	ldr	r0, [r4, #20]
	bl	mbedtls_free
.LVL123:
	.loc 1 449 5 view .LVU436
	movs	r1, #32
	mov	r0, r4
	bl	mbedtls_platform_zeroize
.LVL124:
	.loc 1 450 1 is_stmt 0 view .LVU437
	pop	{r4, pc}
.LVL125:
.L106:
	.cfi_def_cfa_offset 0
	.cfi_restore 4
	.cfi_restore 14
	.loc 1 450 1 view .LVU438
	bx	lr
	.cfi_endproc
.LFE34:
	.size	mbedtls_asn1_free_named_data, .-mbedtls_asn1_free_named_data
	.section	.text.mbedtls_asn1_free_named_data_list,"ax",%progbits
	.align	1
	.global	mbedtls_asn1_free_named_data_list
	.syntax unified
	.thumb
	.thumb_func
	.fpu fpv4-sp-d16
	.type	mbedtls_asn1_free_named_data_list, %function
mbedtls_asn1_free_named_data_list:
.LVL126:
.LFB35:
	.loc 1 453 1 is_stmt 1 view -0
	.cfi_startproc
	@ args = 0, pretend = 0, frame = 0
	@ frame_needed = 0, uses_anonymous_args = 0
	.loc 1 453 1 is_stmt 0 view .LVU440
	push	{r3, r4, r5, lr}
	.cfi_def_cfa_offset 16
	.cfi_offset 3, -16
	.cfi_offset 4, -12
	.cfi_offset 5, -8
	.cfi_offset 14, -4
	mov	r5, r0
	.loc 1 454 5 is_stmt 1 view .LVU441
	.loc 1 456 5 view .LVU442
.LVL127:
.L110:
	.loc 1 456 10 view .LVU443
	.loc 1 456 18 is_stmt 0 view .LVU444
	ldr	r4, [r5]
.LVL128:
	.loc 1 456 10 view .LVU445
	cbz	r4, .L113
	.loc 1 458 9 is_stmt 1 view .LVU446
	.loc 1 458 20 is_stmt 0 view .LVU447
	ldr	r3, [r4, #24]
	.loc 1 458 15 view .LVU448
	str	r3, [r5]
	.loc 1 459 9 is_stmt 1 view .LVU449
	mov	r0, r4
	bl	mbedtls_asn1_free_named_data
.LVL129:
	.loc 1 460 9 view .LVU450
	mov	r0, r4
	bl	mbedtls_free
.LVL130:
	b	.L110
.L113:
	.loc 1 462 1 is_stmt 0 view .LVU451
	pop	{r3, r4, r5, pc}
	.loc 1 462 1 view .LVU452
	.cfi_endproc
.LFE35:
	.size	mbedtls_asn1_free_named_data_list, .-mbedtls_asn1_free_named_data_list
	.section	.text.mbedtls_asn1_find_named_data,"ax",%progbits
	.align	1
	.global	mbedtls_asn1_find_named_data
	.syntax unified
	.thumb
	.thumb_func
	.fpu fpv4-sp-d16
	.type	mbedtls_asn1_find_named_data, %function
mbedtls_asn1_find_named_data:
.LVL131:
.LFB36:
	.loc 1 466 1 is_stmt 1 view -0
	.cfi_startproc
	@ args = 0, pretend = 0, frame = 0
	@ frame_needed = 0, uses_anonymous_args = 0
	.loc 1 466 1 is_stmt 0 view .LVU454
	push	{r4, r5, r6, lr}
	.cfi_def_cfa_offset 16
	.cfi_offset 4, -16
	.cfi_offset 5, -12
	.cfi_offset 6, -8
	.cfi_offset 14, -4
	mov	r4, r0
	mov	r6, r1
	mov	r5, r2
	.loc 1 467 5 is_stmt 1 view .LVU455
	.loc 1 467 10 is_stmt 0 view .LVU456
	b	.L115
.LVL132:
.L116:
	.loc 1 475 9 is_stmt 1 view .LVU457
	.loc 1 475 14 is_stmt 0 view .LVU458
	ldr	r4, [r4, #24]
.LVL133:
.L115:
	.loc 1 467 10 is_stmt 1 view .LVU459
	cbz	r4, .L117
	.loc 1 469 9 view .LVU460
	.loc 1 469 22 is_stmt 0 view .LVU461
	ldr	r3, [r4, #4]
	.loc 1 469 11 view .LVU462
	cmp	r3, r5
	bne	.L116
	.loc 1 470 13 discriminator 1 view .LVU463
	mov	r2, r5
	mov	r1, r6
	ldr	r0, [r4, #8]
	bl	memcmp
.LVL134:
	.loc 1 469 34 discriminator 1 view .LVU464
	cmp	r0, #0
	bne	.L116
.L117:
	.loc 1 478 5 is_stmt 1 view .LVU465
	.loc 1 479 1 is_stmt 0 view .LVU466
	mov	r0, r4
	pop	{r4, r5, r6, pc}
	.loc 1 479 1 view .LVU467
	.cfi_endproc
.LFE36:
	.size	mbedtls_asn1_find_named_data, .-mbedtls_asn1_find_named_data
	.text
.Letext0:
	.file 3 "/home/sebin/LIOT/gcc-arm-none-eabi-9-2019-q4-major/arm-none-eabi/include/machine/_default_types.h"
	.file 4 "/home/sebin/LIOT/gcc-arm-none-eabi-9-2019-q4-major/lib/gcc/arm-none-eabi/9.2.1/include/stddef.h"
	.file 5 "/home/sebin/LIOT/gcc-arm-none-eabi-9-2019-q4-major/arm-none-eabi/include/sys/_stdint.h"
	.file 6 "/home/sebin/thesis/zephyrproject/modules/crypto/mbedtls/include/mbedtls/bignum.h"
	.file 7 "/home/sebin/thesis/zephyrproject/modules/crypto/mbedtls/include/mbedtls/asn1.h"
	.file 8 "/home/sebin/LIOT/gcc-arm-none-eabi-9-2019-q4-major/arm-none-eabi/include/sys/lock.h"
	.file 9 "/home/sebin/LIOT/gcc-arm-none-eabi-9-2019-q4-major/arm-none-eabi/include/sys/_types.h"
	.file 10 "/home/sebin/LIOT/gcc-arm-none-eabi-9-2019-q4-major/arm-none-eabi/include/sys/reent.h"
	.file 11 "/home/sebin/thesis/zephyrproject/modules/crypto/mbedtls/include/mbedtls/platform.h"
	.file 12 "/home/sebin/LIOT/gcc-arm-none-eabi-9-2019-q4-major/arm-none-eabi/include/string.h"
	.file 13 "/home/sebin/thesis/zephyrproject/modules/crypto/mbedtls/include/mbedtls/platform_util.h"