	.cpu cortex-m4
	.eabi_attribute 27, 1
	.eabi_attribute 28, 1
	.eabi_attribute 20, 1
	.eabi_attribute 21, 1
	.eabi_attribute 23, 3
	.eabi_attribute 24, 1
	.eabi_attribute 25, 1
	.eabi_attribute 26, 1
	.eabi_attribute 30, 1
	.eabi_attribute 34, 1
	.eabi_attribute 38, 1
	.eabi_attribute 18, 4
	.file	"cipher_wrap.c"
	.text
.Ltext0:
	.cfi_sections	.debug_frame
	.section	.text.des3_ctx_free,"ax",%progbits
	.align	1
	.arch armv7e-m
	.syntax unified
	.thumb
	.thumb_func
	.fpu fpv4-sp-d16
	.type	des3_ctx_free, %function
des3_ctx_free:
.LVL0:
.LFB35:
	.file 1 "/home/sebin/thesis/zephyrproject/modules/crypto/mbedtls/library/cipher_wrap.c"
	.loc 1 1511 1 view -0
	.cfi_startproc
	@ args = 0, pretend = 0, frame = 0
	@ frame_needed = 0, uses_anonymous_args = 0
	.loc 1 1511 1 is_stmt 0 view .LVU1
	push	{r4, lr}
	.cfi_def_cfa_offset 8
	.cfi_offset 4, -8
	.cfi_offset 14, -4
	mov	r4, r0
	.loc 1 1512 5 is_stmt 1 view .LVU2
	bl	mbedtls_des3_free
.LVL1:
	.loc 1 1513 5 view .LVU3
	mov	r0, r4
	bl	mbedtls_free
.LVL2:
	.loc 1 1514 1 is_stmt 0 view .LVU4
	pop	{r4, pc}
	.loc 1 1514 1 view .LVU5
	.cfi_endproc
.LFE35:
	.size	des3_ctx_free, .-des3_ctx_free
	.section	.text.des3_ctx_alloc,"ax",%progbits
	.align	1
	.syntax unified
	.thumb
	.thumb_func
	.fpu fpv4-sp-d16
	.type	des3_ctx_alloc, %function
des3_ctx_alloc:
.LFB34:
	.loc 1 1498 1 is_stmt 1 view -0
	.cfi_startproc
	@ args = 0, pretend = 0, frame = 0
	@ frame_needed = 0, uses_anonymous_args = 0
	push	{r4, lr}
	.cfi_def_cfa_offset 8
	.cfi_offset 4, -8
	.cfi_offset 14, -4
	.loc 1 1499 5 view .LVU7
	.loc 1 1500 5 view .LVU8
	.loc 1 1500 12 is_stmt 0 view .LVU9
	mov	r1, #384
	movs	r0, #1
	bl	mbedtls_calloc
.LVL3:
	.loc 1 1502 5 is_stmt 1 view .LVU10
	.loc 1 1502 7 is_stmt 0 view .LVU11
	mov	r4, r0
	cbz	r0, .L3
	.loc 1 1505 5 is_stmt 1 view .LVU12
	bl	mbedtls_des3_init
.LVL4:
	.loc 1 1507 5 view .LVU13
.L3:
	.loc 1 1508 1 is_stmt 0 view .LVU14
	mov	r0, r4
	pop	{r4, pc}
	.loc 1 1508 1 view .LVU15
	.cfi_endproc
.LFE34:
	.size	des3_ctx_alloc, .-des3_ctx_alloc
	.section	.text.des3_set3key_dec_wrap,"ax",%progbits
	.align	1
	.syntax unified
	.thumb
	.thumb_func
	.fpu fpv4-sp-d16
	.type	des3_set3key_dec_wrap, %function
des3_set3key_dec_wrap:
.LVL5:
.LFB30:
	.loc 1 1465 1 is_stmt 1 view -0
	.cfi_startproc
	@ args = 0, pretend = 0, frame = 0
	@ frame_needed = 0, uses_anonymous_args = 0
	.loc 1 1465 1 is_stmt 0 view .LVU17
	push	{r3, lr}
	.cfi_def_cfa_offset 8
	.cfi_offset 3, -8
	.cfi_offset 14, -4
	.loc 1 1466 5 is_stmt 1 view .LVU18
	.loc 1 1468 5 view .LVU19
	.loc 1 1468 12 is_stmt 0 view .LVU20
	bl	mbedtls_des3_set3key_dec
.LVL6:
	.loc 1 1469 1 view .LVU21
	pop	{r3, pc}
	.cfi_endproc
.LFE30:
	.size	des3_set3key_dec_wrap, .-des3_set3key_dec_wrap
	.section	.text.des3_set3key_enc_wrap,"ax",%progbits
	.align	1
	.syntax unified
	.thumb
	.thumb_func
	.fpu fpv4-sp-d16
	.type	des3_set3key_enc_wrap, %function
des3_set3key_enc_wrap:
.LVL7:
.LFB31:
	.loc 1 1473 1 is_stmt 1 view -0
	.cfi_startproc
	@ args = 0, pretend = 0, frame = 0
	@ frame_needed = 0, uses_anonymous_args = 0
	.loc 1 1473 1 is_stmt 0 view .LVU23
	push	{r3, lr}
	.cfi_def_cfa_offset 8
	.cfi_offset 3, -8
	.cfi_offset 14, -4
	.loc 1 1474 5 is_stmt 1 view .LVU24
	.loc 1 1476 5 view .LVU25
	.loc 1 1476 12 is_stmt 0 view .LVU26
	bl	mbedtls_des3_set3key_enc
.LVL8:
	.loc 1 1477 1 view .LVU27
	pop	{r3, pc}
	.cfi_endproc
.LFE31:
	.size	des3_set3key_enc_wrap, .-des3_set3key_enc_wrap
	.section	.text.des3_crypt_cbc_wrap,"ax",%progbits
	.align	1
	.syntax unified
	.thumb
	.thumb_func
	.fpu fpv4-sp-d16
	.type	des3_crypt_cbc_wrap, %function
des3_crypt_cbc_wrap:
.LVL9:
.LFB25:
	.loc 1 1425 1 is_stmt 1 view -0
	.cfi_startproc
	@ args = 8, pretend = 0, frame = 0
	@ frame_needed = 0, uses_anonymous_args = 0
	.loc 1 1425 1 is_stmt 0 view .LVU29
	push	{r4, lr}
	.cfi_def_cfa_offset 8
	.cfi_offset 4, -8
	.cfi_offset 14, -4
	sub	sp, sp, #8
	.cfi_def_cfa_offset 16
	.loc 1 1426 5 is_stmt 1 view .LVU30
	.loc 1 1426 12 is_stmt 0 view .LVU31
	ldr	r4, [sp, #20]
	str	r4, [sp, #4]
	ldr	r4, [sp, #16]
	str	r4, [sp]
	bl	mbedtls_des3_crypt_cbc
.LVL10:
	.loc 1 1428 1 view .LVU32
	add	sp, sp, #8
	.cfi_def_cfa_offset 8
	@ sp needed
	pop	{r4, pc}
	.loc 1 1428 1 view .LVU33
	.cfi_endproc
.LFE25:
	.size	des3_crypt_cbc_wrap, .-des3_crypt_cbc_wrap
	.section	.text.des3_crypt_ecb_wrap,"ax",%progbits
	.align	1
	.syntax unified
	.thumb
	.thumb_func
	.fpu fpv4-sp-d16
	.type	des3_crypt_ecb_wrap, %function
des3_crypt_ecb_wrap:
.LVL11:
.LFB23:
	.loc 1 1408 1 is_stmt 1 view -0
	.cfi_startproc
	@ args = 0, pretend = 0, frame = 0
	@ frame_needed = 0, uses_anonymous_args = 0
	.loc 1 1408 1 is_stmt 0 view .LVU35
	push	{r3, lr}
	.cfi_def_cfa_offset 8
	.cfi_offset 3, -8
	.cfi_offset 14, -4
	mov	r1, r2
.LVL12:
	.loc 1 1409 5 is_stmt 1 view .LVU36
	.loc 1 1410 5 view .LVU37
	.loc 1 1410 12 is_stmt 0 view .LVU38
	mov	r2, r3
.LVL13:
	.loc 1 1410 12 view .LVU39
	bl	mbedtls_des3_crypt_ecb
.LVL14:
	.loc 1 1411 1 view .LVU40
	pop	{r3, pc}
	.cfi_endproc
.LFE23:
	.size	des3_crypt_ecb_wrap, .-des3_crypt_ecb_wrap
	.section	.text.des3_set2key_dec_wrap,"ax",%progbits
	.align	1
	.syntax unified
	.thumb
	.thumb_func
	.fpu fpv4-sp-d16
	.type	des3_set2key_dec_wrap, %function
des3_set2key_dec_wrap:
.LVL15:
.LFB28:
	.loc 1 1449 1 is_stmt 1 view -0
	.cfi_startproc
	@ args = 0, pretend = 0, frame = 0
	@ frame_needed = 0, uses_anonymous_args = 0
	.loc 1 1449 1 is_stmt 0 view .LVU42
	push	{r3, lr}
	.cfi_def_cfa_offset 8
	.cfi_offset 3, -8
	.cfi_offset 14, -4
	.loc 1 1450 5 is_stmt 1 view .LVU43
	.loc 1 1452 5 view .LVU44
	.loc 1 1452 12 is_stmt 0 view .LVU45
	bl	mbedtls_des3_set2key_dec
.LVL16:
	.loc 1 1453 1 view .LVU46
	pop	{r3, pc}
	.cfi_endproc
.LFE28:
	.size	des3_set2key_dec_wrap, .-des3_set2key_dec_wrap
	.section	.text.des3_set2key_enc_wrap,"ax",%progbits
	.align	1
	.syntax unified
	.thumb
	.thumb_func
	.fpu fpv4-sp-d16
	.type	des3_set2key_enc_wrap, %function
des3_set2key_enc_wrap:
.LVL17:
.LFB29:
	.loc 1 1457 1 is_stmt 1 view -0
	.cfi_startproc
	@ args = 0, pretend = 0, frame = 0
	@ frame_needed = 0, uses_anonymous_args = 0
	.loc 1 1457 1 is_stmt 0 view .LVU48
	push	{r3, lr}
	.cfi_def_cfa_offset 8
	.cfi_offset 3, -8
	.cfi_offset 14, -4
	.loc 1 1458 5 is_stmt 1 view .LVU49
	.loc 1 1460 5 view .LVU50
	.loc 1 1460 12 is_stmt 0 view .LVU51
	bl	mbedtls_des3_set2key_enc
.LVL18:
	.loc 1 1461 1 view .LVU52
	pop	{r3, pc}
	.cfi_endproc
.LFE29:
	.size	des3_set2key_enc_wrap, .-des3_set2key_enc_wrap
	.section	.text.des_ctx_free,"ax",%progbits
	.align	1
	.syntax unified
	.thumb
	.thumb_func
	.fpu fpv4-sp-d16
	.type	des_ctx_free, %function
des_ctx_free:
.LVL19:
.LFB33:
	.loc 1 1492 1 is_stmt 1 view -0
	.cfi_startproc
	@ args = 0, pretend = 0, frame = 0
	@ frame_needed = 0, uses_anonymous_args = 0
	.loc 1 1492 1 is_stmt 0 view .LVU54
	push	{r4, lr}
	.cfi_def_cfa_offset 8
	.cfi_offset 4, -8
	.cfi_offset 14, -4
	mov	r4, r0
	.loc 1 1493 5 is_stmt 1 view .LVU55
	bl	mbedtls_des_free
.LVL20:
	.loc 1 1494 5 view .LVU56
	mov	r0, r4
	bl	mbedtls_free
.LVL21:
	.loc 1 1495 1 is_stmt 0 view .LVU57
	pop	{r4, pc}
	.loc 1 1495 1 view .LVU58
	.cfi_endproc
.LFE33:
	.size	des_ctx_free, .-des_ctx_free
	.section	.text.des_ctx_alloc,"ax",%progbits
	.align	1
	.syntax unified
	.thumb
	.thumb_func
	.fpu fpv4-sp-d16
	.type	des_ctx_alloc, %function
des_ctx_alloc:
.LFB32:
	.loc 1 1480 1 is_stmt 1 view -0
	.cfi_startproc
	@ args = 0, pretend = 0, frame = 0
	@ frame_needed = 0, uses_anonymous_args = 0
	push	{r4, lr}
	.cfi_def_cfa_offset 8
	.cfi_offset 4, -8
	.cfi_offset 14, -4
	.loc 1 1481 5 view .LVU60
	.loc 1 1481 32 is_stmt 0 view .LVU61
	movs	r1, #128
	movs	r0, #1
	bl	mbedtls_calloc
.LVL22:
	.loc 1 1483 5 is_stmt 1 view .LVU62
	.loc 1 1483 7 is_stmt 0 view .LVU63
	mov	r4, r0
	cbz	r0, .L20
	.loc 1 1486 5 is_stmt 1 view .LVU64
	bl	mbedtls_des_init
.LVL23:
	.loc 1 1488 5 view .LVU65
.L20:
	.loc 1 1489 1 is_stmt 0 view .LVU66
	mov	r0, r4
	pop	{r4, pc}
	.loc 1 1489 1 view .LVU67
	.cfi_endproc
.LFE32:
	.size	des_ctx_alloc, .-des_ctx_alloc
	.section	.text.des_setkey_dec_wrap,"ax",%progbits
	.align	1
	.syntax unified
	.thumb
	.thumb_func
	.fpu fpv4-sp-d16
	.type	des_setkey_dec_wrap, %function
des_setkey_dec_wrap:
.LVL24:
.LFB26:
	.loc 1 1433 1 is_stmt 1 view -0
	.cfi_startproc
	@ args = 0, pretend = 0, frame = 0
	@ frame_needed = 0, uses_anonymous_args = 0
	.loc 1 1433 1 is_stmt 0 view .LVU69
	push	{r3, lr}
	.cfi_def_cfa_offset 8
	.cfi_offset 3, -8
	.cfi_offset 14, -4
	.loc 1 1434 5 is_stmt 1 view .LVU70
	.loc 1 1436 5 view .LVU71
	.loc 1 1436 12 is_stmt 0 view .LVU72
	bl	mbedtls_des_setkey_dec
.LVL25:
	.loc 1 1437 1 view .LVU73
	pop	{r3, pc}
	.cfi_endproc
.LFE26:
	.size	des_setkey_dec_wrap, .-des_setkey_dec_wrap
	.section	.text.des_setkey_enc_wrap,"ax",%progbits
	.align	1
	.syntax unified
	.thumb
	.thumb_func
	.fpu fpv4-sp-d16
	.type	des_setkey_enc_wrap, %function
des_setkey_enc_wrap:
.LVL26:
.LFB27:
	.loc 1 1441 1 is_stmt 1 view -0
	.cfi_startproc
	@ args = 0, pretend = 0, frame = 0
	@ frame_needed = 0, uses_anonymous_args = 0
	.loc 1 1441 1 is_stmt 0 view .LVU75
	push	{r3, lr}
	.cfi_def_cfa_offset 8
	.cfi_offset 3, -8
	.cfi_offset 14, -4
	.loc 1 1442 5 is_stmt 1 view .LVU76
	.loc 1 1444 5 view .LVU77
	.loc 1 1444 12 is_stmt 0 view .LVU78
	bl	mbedtls_des_setkey_enc
.LVL27:
	.loc 1 1445 1 view .LVU79
	pop	{r3, pc}
	.cfi_endproc
.LFE27:
	.size	des_setkey_enc_wrap, .-des_setkey_enc_wrap
	.section	.text.des_crypt_cbc_wrap,"ax",%progbits
	.align	1
	.syntax unified
	.thumb
	.thumb_func
	.fpu fpv4-sp-d16
	.type	des_crypt_cbc_wrap, %function
des_crypt_cbc_wrap:
.LVL28:
.LFB24:
	.loc 1 1416 1 is_stmt 1 view -0
	.cfi_startproc
	@ args = 8, pretend = 0, frame = 0
	@ frame_needed = 0, uses_anonymous_args = 0
	.loc 1 1416 1 is_stmt 0 view .LVU81
	push	{r4, lr}
	.cfi_def_cfa_offset 8
	.cfi_offset 4, -8
	.cfi_offset 14, -4
	sub	sp, sp, #8
	.cfi_def_cfa_offset 16
	.loc 1 1417 5 is_stmt 1 view .LVU82
	.loc 1 1417 12 is_stmt 0 view .LVU83
	ldr	r4, [sp, #20]
	str	r4, [sp, #4]
	ldr	r4, [sp, #16]
	str	r4, [sp]
	bl	mbedtls_des_crypt_cbc
.LVL29:
	.loc 1 1419 1 view .LVU84
	add	sp, sp, #8
	.cfi_def_cfa_offset 8
	@ sp needed
	pop	{r4, pc}
	.loc 1 1419 1 view .LVU85
	.cfi_endproc
.LFE24:
	.size	des_crypt_cbc_wrap, .-des_crypt_cbc_wrap
	.section	.text.des_crypt_ecb_wrap,"ax",%progbits
	.align	1
	.syntax unified
	.thumb
	.thumb_func
	.fpu fpv4-sp-d16
	.type	des_crypt_ecb_wrap, %function
des_crypt_ecb_wrap:
.LVL30:
.LFB22:
	.loc 1 1401 1 is_stmt 1 view -0
	.cfi_startproc
	@ args = 0, pretend = 0, frame = 0
	@ frame_needed = 0, uses_anonymous_args = 0
	.loc 1 1401 1 is_stmt 0 view .LVU87
	push	{r3, lr}
	.cfi_def_cfa_offset 8
	.cfi_offset 3, -8
	.cfi_offset 14, -4
	mov	r1, r2
.LVL31:
	.loc 1 1402 5 is_stmt 1 view .LVU88
	.loc 1 1403 5 view .LVU89
	.loc 1 1403 12 is_stmt 0 view .LVU90
	mov	r2, r3
.LVL32:
	.loc 1 1403 12 view .LVU91
	bl	mbedtls_des_crypt_ecb
.LVL33:
	.loc 1 1404 1 view .LVU92
	pop	{r3, pc}
	.cfi_endproc
.LFE22:
	.size	des_crypt_ecb_wrap, .-des_crypt_ecb_wrap
	.section	.text.aes_ctx_free,"ax",%progbits
	.align	1
	.syntax unified
	.thumb
	.thumb_func
	.fpu fpv4-sp-d16
	.type	aes_ctx_free, %function
aes_ctx_free:
.LVL34:
.LFB21:
	.loc 1 215 1 is_stmt 1 view -0
	.cfi_startproc
	@ args = 0, pretend = 0, frame = 0
	@ frame_needed = 0, uses_anonymous_args = 0
	.loc 1 215 1 is_stmt 0 view .LVU94
	push	{r4, lr}
	.cfi_def_cfa_offset 8
	.cfi_offset 4, -8
	.cfi_offset 14, -4
	mov	r4, r0
	.loc 1 216 5 is_stmt 1 view .LVU95
	bl	mbedtls_aes_free
.LVL35:
	.loc 1 217 5 view .LVU96
	mov	r0, r4
	bl	mbedtls_free
.LVL36:
	.loc 1 218 1 is_stmt 0 view .LVU97
	pop	{r4, pc}
	.loc 1 218 1 view .LVU98
	.cfi_endproc
.LFE21:
	.size	aes_ctx_free, .-aes_ctx_free
	.section	.text.aes_ctx_alloc,"ax",%progbits
	.align	1
	.syntax unified
	.thumb
	.thumb_func
	.fpu fpv4-sp-d16
	.type	aes_ctx_alloc, %function
aes_ctx_alloc:
.LFB20:
	.loc 1 203 1 is_stmt 1 view -0
	.cfi_startproc
	@ args = 0, pretend = 0, frame = 0
	@ frame_needed = 0, uses_anonymous_args = 0
	push	{r4, lr}
	.cfi_def_cfa_offset 8
	.cfi_offset 4, -8
	.cfi_offset 14, -4
	.loc 1 204 5 view .LVU100
	.loc 1 204 32 is_stmt 0 view .LVU101
	mov	r1, #280
	movs	r0, #1
	bl	mbedtls_calloc
.LVL37:
	.loc 1 206 5 is_stmt 1 view .LVU102
	.loc 1 206 7 is_stmt 0 view .LVU103
	mov	r4, r0
	cbz	r0, .L33
	.loc 1 209 5 is_stmt 1 view .LVU104
	bl	mbedtls_aes_init
.LVL38:
	.loc 1 211 5 view .LVU105
.L33:
	.loc 1 212 1 is_stmt 0 view .LVU106
	mov	r0, r4
	pop	{r4, pc}
	.loc 1 212 1 view .LVU107
	.cfi_endproc
.LFE20:
	.size	aes_ctx_alloc, .-aes_ctx_alloc
	.section	.text.aes_setkey_dec_wrap,"ax",%progbits
	.align	1
	.syntax unified
	.thumb
	.thumb_func
	.fpu fpv4-sp-d16
	.type	aes_setkey_dec_wrap, %function
aes_setkey_dec_wrap:
.LVL39:
.LFB18:
	.loc 1 192 1 is_stmt 1 view -0
	.cfi_startproc
	@ args = 0, pretend = 0, frame = 0
	@ frame_needed = 0, uses_anonymous_args = 0
	.loc 1 192 1 is_stmt 0 view .LVU109
	push	{r3, lr}
	.cfi_def_cfa_offset 8
	.cfi_offset 3, -8
	.cfi_offset 14, -4
	.loc 1 193 5 is_stmt 1 view .LVU110
	.loc 1 193 12 is_stmt 0 view .LVU111
	bl	mbedtls_aes_setkey_dec
.LVL40:
	.loc 1 194 1 view .LVU112
	pop	{r3, pc}
	.cfi_endproc
.LFE18:
	.size	aes_setkey_dec_wrap, .-aes_setkey_dec_wrap
	.section	.text.aes_setkey_enc_wrap,"ax",%progbits
	.align	1
	.syntax unified
	.thumb
	.thumb_func
	.fpu fpv4-sp-d16
	.type	aes_setkey_enc_wrap, %function
aes_setkey_enc_wrap:
.LVL41:
.LFB19:
	.loc 1 198 1 is_stmt 1 view -0
	.cfi_startproc
	@ args = 0, pretend = 0, frame = 0
	@ frame_needed = 0, uses_anonymous_args = 0
	.loc 1 198 1 is_stmt 0 view .LVU114
	push	{r3, lr}
	.cfi_def_cfa_offset 8
	.cfi_offset 3, -8
	.cfi_offset 14, -4
	.loc 1 199 5 is_stmt 1 view .LVU115
	.loc 1 199 12 is_stmt 0 view .LVU116
	bl	mbedtls_aes_setkey_enc
.LVL42:
	.loc 1 200 1 view .LVU117
	pop	{r3, pc}
	.cfi_endproc
.LFE19:
	.size	aes_setkey_enc_wrap, .-aes_setkey_enc_wrap
	.section	.text.aes_crypt_cbc_wrap,"ax",%progbits
	.align	1
	.syntax unified
	.thumb
	.thumb_func
	.fpu fpv4-sp-d16
	.type	aes_crypt_cbc_wrap, %function
aes_crypt_cbc_wrap:
.LVL43:
.LFB17:
	.loc 1 128 1 is_stmt 1 view -0
	.cfi_startproc
	@ args = 8, pretend = 0, frame = 0
	@ frame_needed = 0, uses_anonymous_args = 0
	.loc 1 128 1 is_stmt 0 view .LVU119
	push	{r4, lr}
	.cfi_def_cfa_offset 8
	.cfi_offset 4, -8
	.cfi_offset 14, -4
	sub	sp, sp, #8
	.cfi_def_cfa_offset 16
	.loc 1 129 5 is_stmt 1 view .LVU120
	.loc 1 129 12 is_stmt 0 view .LVU121
	ldr	r4, [sp, #20]
	str	r4, [sp, #4]
	ldr	r4, [sp, #16]
	str	r4, [sp]
	bl	mbedtls_aes_crypt_cbc
.LVL44:
	.loc 1 131 1 view .LVU122
	add	sp, sp, #8
	.cfi_def_cfa_offset 8
	@ sp needed
	pop	{r4, pc}
	.loc 1 131 1 view .LVU123
	.cfi_endproc
.LFE17:
	.size	aes_crypt_cbc_wrap, .-aes_crypt_cbc_wrap
	.section	.text.aes_crypt_ecb_wrap,"ax",%progbits
	.align	1
	.syntax unified
	.thumb
	.thumb_func
	.fpu fpv4-sp-d16
	.type	aes_crypt_ecb_wrap, %function
aes_crypt_ecb_wrap:
.LVL45:
.LFB16:
	.loc 1 121 1 is_stmt 1 view -0
	.cfi_startproc
	@ args = 0, pretend = 0, frame = 0
	@ frame_needed = 0, uses_anonymous_args = 0
	.loc 1 121 1 is_stmt 0 view .LVU125
	push	{r3, lr}
	.cfi_def_cfa_offset 8
	.cfi_offset 3, -8
	.cfi_offset 14, -4
	.loc 1 122 5 is_stmt 1 view .LVU126
	.loc 1 122 12 is_stmt 0 view .LVU127
	bl	mbedtls_aes_crypt_ecb
.LVL46:
	.loc 1 123 1 view .LVU128
	pop	{r3, pc}
	.cfi_endproc
.LFE16:
	.size	aes_crypt_ecb_wrap, .-aes_crypt_ecb_wrap
	.global	mbedtls_cipher_supported
	.global	mbedtls_cipher_definitions
	.section	.rodata.str1.4,"aMS",%progbits,1
	.align	2
.LC0:
	.ascii	"DES-EDE3-CBC\000"
	.align	2
.LC1:
	.ascii	"DES-EDE3-ECB\000"
	.align	2
.LC2:
	.ascii	"DES-EDE-CBC\000"
	.align	2
.LC3:
	.ascii	"DES-EDE-ECB\000"
	.align	2
.LC4:
	.ascii	"DES-CBC\000"
	.align	2
.LC5:
	.ascii	"DES-ECB\000"
	.align	2
.LC6:
	.ascii	"AES-256-CBC\000"
	.align	2
.LC7:
	.ascii	"AES-192-CBC\000"
	.align	2
.LC8:
	.ascii	"AES-128-CBC\000"
	.align	2
.LC9:
	.ascii	"AES-256-ECB\000"
	.align	2
.LC10:
	.ascii	"AES-192-ECB\000"
	.align	2
.LC11:
	.ascii	"AES-128-ECB\000"
	.section	.bss.mbedtls_cipher_supported,"aw",%nobits
	.align	2
	.type	mbedtls_cipher_supported, %object
	.size	mbedtls_cipher_supported, 52
mbedtls_cipher_supported:
	.space	52
	.section	.rodata.aes_128_cbc_info,"a"
	.align	2
	.type	aes_128_cbc_info, %object
	.size	aes_128_cbc_info, 28
aes_128_cbc_info:
	.byte	5
	.byte	2
	.space	2
	.word	128
	.word	.LC8
	.word	16
	.word	0
	.word	16
	.word	aes_info
	.section	.rodata.aes_128_ecb_info,"a"
	.align	2
	.type	aes_128_ecb_info, %object
	.size	aes_128_ecb_info, 28
aes_128_ecb_info:
	.byte	2
	.byte	1
	.space	2
	.word	128
	.word	.LC11
	.word	0
	.word	0
	.word	16
	.word	aes_info
	.section	.rodata.aes_192_cbc_info,"a"
	.align	2
	.type	aes_192_cbc_info, %object
	.size	aes_192_cbc_info, 28
aes_192_cbc_info:
	.byte	6
	.byte	2
	.space	2
	.word	192
	.word	.LC7
	.word	16
	.word	0
	.word	16
	.word	aes_info
	.section	.rodata.aes_192_ecb_info,"a"
	.align	2
	.type	aes_192_ecb_info, %object
	.size	aes_192_ecb_info, 28
aes_192_ecb_info:
	.byte	3
	.byte	1
	.space	2
	.word	192
	.word	.LC10
	.word	0
	.word	0
	.word	16
	.word	aes_info
	.section	.rodata.aes_256_cbc_info,"a"
	.align	2
	.type	aes_256_cbc_info, %object
	.size	aes_256_cbc_info, 28
aes_256_cbc_info:
	.byte	7
	.byte	2
	.space	2
	.word	256
	.word	.LC6
	.word	16
	.word	0
	.word	16
	.word	aes_info
	.section	.rodata.aes_256_ecb_info,"a"
	.align	2
	.type	aes_256_ecb_info, %object
	.size	aes_256_ecb_info, 28
aes_256_ecb_info:
	.byte	4
	.byte	1
	.space	2
	.word	256
	.word	.LC9
	.word	0
	.word	0
	.word	16
	.word	aes_info
	.section	.rodata.aes_info,"a"
	.align	2
	.type	aes_info, %object
	.size	aes_info, 28
aes_info:
	.byte	2
	.space	3
	.word	aes_crypt_ecb_wrap
	.word	aes_crypt_cbc_wrap
	.word	aes_setkey_enc_wrap
	.word	aes_setkey_dec_wrap
	.word	aes_ctx_alloc
	.word	aes_ctx_free
	.section	.rodata.des_cbc_info,"a"
	.align	2
	.type	des_cbc_info, %object
	.size	des_cbc_info, 28
des_cbc_info:
	.byte	33
	.byte	2
	.space	2
	.word	64
	.word	.LC4
	.word	8
	.word	0
	.word	8
	.word	des_info
	.section	.rodata.des_ecb_info,"a"
	.align	2
	.type	des_ecb_info, %object
	.size	des_ecb_info, 28
des_ecb_info:
	.byte	32
	.byte	1
	.space	2
	.word	64
	.word	.LC5
	.word	0
	.word	0
	.word	8
	.word	des_info
	.section	.rodata.des_ede3_cbc_info,"a"
	.align	2
	.type	des_ede3_cbc_info, %object
	.size	des_ede3_cbc_info, 28
des_ede3_cbc_info:
	.byte	37
	.byte	2
	.space	2
	.word	192
	.word	.LC0
	.word	8
	.word	0
	.word	8
	.word	des_ede3_info
	.section	.rodata.des_ede3_ecb_info,"a"
	.align	2
	.type	des_ede3_ecb_info, %object
	.size	des_ede3_ecb_info, 28
des_ede3_ecb_info:
	.byte	36
	.byte	1
	.space	2
	.word	192
	.word	.LC1
	.word	0
	.word	0
	.word	8
	.word	des_ede3_info
	.section	.rodata.des_ede3_info,"a"
	.align	2
	.type	des_ede3_info, %object
	.size	des_ede3_info, 28
des_ede3_info:
	.byte	4
	.space	3
	.word	des3_crypt_ecb_wrap
	.word	des3_crypt_cbc_wrap
	.word	des3_set3key_enc_wrap
	.word	des3_set3key_dec_wrap
	.word	des3_ctx_alloc
	.word	des3_ctx_free
	.section	.rodata.des_ede_cbc_info,"a"
	.align	2
	.type	des_ede_cbc_info, %object
	.size	des_ede_cbc_info, 28
des_ede_cbc_info:
	.byte	35
	.byte	2
	.space	2
	.word	128
	.word	.LC2
	.word	8
	.word	0
	.word	8
	.word	des_ede_info
	.section	.rodata.des_ede_ecb_info,"a"
	.align	2
	.type	des_ede_ecb_info, %object
	.size	des_ede_ecb_info, 28
des_ede_ecb_info:
	.byte	34
	.byte	1
	.space	2
	.word	128
	.word	.LC3
	.word	0
	.word	0
	.word	8
	.word	des_ede_info
	.section	.rodata.des_ede_info,"a"
	.align	2
	.type	des_ede_info, %object
	.size	des_ede_info, 28
des_ede_info:
	.byte	3
	.space	3
	.word	des3_crypt_ecb_wrap
	.word	des3_crypt_cbc_wrap
	.word	des3_set2key_enc_wrap
	.word	des3_set2key_dec_wrap
	.word	des3_ctx_alloc
	.word	des3_ctx_free
	.section	.rodata.des_info,"a"
	.align	2
	.type	des_info, %object
	.size	des_info, 28
des_info:
	.byte	3
	.space	3
	.word	des_crypt_ecb_wrap
	.word	des_crypt_cbc_wrap
	.word	des_setkey_enc_wrap
	.word	des_setkey_dec_wrap
	.word	des_ctx_alloc
	.word	des_ctx_free
	.section	.rodata.mbedtls_cipher_definitions,"a"
	.align	2
	.type	mbedtls_cipher_definitions, %object
	.size	mbedtls_cipher_definitions, 104
mbedtls_cipher_definitions:
	.byte	2
	.space	3
	.word	aes_128_ecb_info
	.byte	3
	.space	3
	.word	aes_192_ecb_info
	.byte	4
	.space	3
	.word	aes_256_ecb_info
	.byte	5
	.space	3
	.word	aes_128_cbc_info
	.byte	6
	.space	3
	.word	aes_192_cbc_info
	.byte	7
	.space	3
	.word	aes_256_cbc_info
	.byte	32
	.space	3
	.word	des_ecb_info
	.byte	34
	.space	3
	.word	des_ede_ecb_info
	.byte	36
	.space	3
	.word	des_ede3_ecb_info
	.byte	33
	.space	3
	.word	des_cbc_info
	.byte	35
	.space	3
	.word	des_ede_cbc_info
	.byte	37
	.space	3
	.word	des_ede3_cbc_info
	.byte	0
	.space	3
	.word	0
	.text
.Letext0:
	.file 2 "/home/sebin/LIOT/gcc-arm-none-eabi-9-2019-q4-major/arm-none-eabi/include/machine/_default_types.h"
	.file 3 "/home/sebin/LIOT/gcc-arm-none-eabi-9-2019-q4-major/lib/gcc/arm-none-eabi/9.2.1/include/stddef.h"
	.file 4 "/home/sebin/thesis/zephyrproject/modules/crypto/mbedtls/include/mbedtls/cipher.h"
	.file 5 "/home/sebin/thesis/zephyrproject/modules/crypto/mbedtls/library/cipher_wrap.h"
	.file 6 "/home/sebin/LIOT/gcc-arm-none-eabi-9-2019-q4-major/arm-none-eabi/include/sys/_stdint.h"
	.file 7 "/home/sebin/thesis/zephyrproject/modules/crypto/mbedtls/include/mbedtls/aes.h"
	.file 8 "/home/sebin/thesis/zephyrproject/modules/crypto/mbedtls/include/mbedtls/des.h"
	.file 9 "/home/sebin/LIOT/gcc-arm-none-eabi-9-2019-q4-major/arm-none-eabi/include/sys/lock.h"
	.file 10 "/home/sebin/LIOT/gcc-arm-none-eabi-9-2019-q4-major/arm-none-eabi/include/sys/_types.h"
	.file 11 "/home/sebin/LIOT/gcc-arm-none-eabi-9-2019-q4-major/arm-none-eabi/include/sys/reent.h"
	.file 12 "/home/sebin/thesis/zephyrproject/modules/crypto/mbedtls/include/mbedtls/platform.h"