	.cpu cortex-m4
	.eabi_attribute 27, 1
	.eabi_attribute 28, 1
	.eabi_attribute 20, 1
	.eabi_attribute 21, 1
	.eabi_attribute 23, 3
	.eabi_attribute 24, 1
	.eabi_attribute 25, 1
	.eabi_attribute 26, 1
	.eabi_attribute 30, 1
	.eabi_attribute 34, 1
	.eabi_attribute 38, 1
	.eabi_attribute 18, 4
	.file	"ctr_drbg.c"
	.text
.Ltext0:
	.cfi_sections	.debug_frame
	.section	.text.good_nonce_len,"ax",%progbits
	.align	1
	.arch armv7e-m
	.syntax unified
	.thumb
	.thumb_func
	.fpu fpv4-sp-d16
	.type	good_nonce_len, %function
good_nonce_len:
.LVL0:
.LFB22:
	.file 1 "/home/sebin/thesis/zephyrproject/modules/crypto/mbedtls/library/ctr_drbg.c"
	.loc 1 419 1 view -0
	.cfi_startproc
	@ args = 0, pretend = 0, frame = 0
	@ frame_needed = 0, uses_anonymous_args = 0
	@ link register save eliminated.
	.loc 1 420 5 view .LVU1
	.loc 1 420 7 is_stmt 0 view .LVU2
	cmp	r0, #47
	bhi	.L3
	.loc 1 423 9 is_stmt 1 view .LVU3
	.loc 1 423 31 is_stmt 0 view .LVU4
	adds	r0, r0, #1
.LVL1:
	.loc 1 423 37 view .LVU5
	lsrs	r0, r0, #1
.LVL2:
	.loc 1 423 37 view .LVU6
	bx	lr
.LVL3:
.L3:
	.loc 1 421 15 view .LVU7
	movs	r0, #0
.LVL4:
	.loc 1 424 1 view .LVU8
	bx	lr
	.cfi_endproc
.LFE22:
	.size	good_nonce_len, .-good_nonce_len
	.section	.text.block_cipher_df,"ax",%progbits
	.align	1
	.syntax unified
	.thumb
	.thumb_func
	.fpu fpv4-sp-d16
	.type	block_cipher_df, %function
block_cipher_df:
.LVL5:
.LFB17:
	.loc 1 127 1 is_stmt 1 view -0
	.cfi_startproc
	@ args = 0, pretend = 0, frame = 792
	@ frame_needed = 0, uses_anonymous_args = 0
	.loc 1 127 1 is_stmt 0 view .LVU10
	push	{r4, r5, r6, r7, r8, r9, r10, lr}
	.cfi_def_cfa_offset 32
	.cfi_offset 4, -32
	.cfi_offset 5, -28
	.cfi_offset 6, -24
	.cfi_offset 7, -20
	.cfi_offset 8, -16
	.cfi_offset 9, -12
	.cfi_offset 10, -8
	.cfi_offset 14, -4
	sub	sp, sp, #792
	.cfi_def_cfa_offset 824
	.loc 1 128 5 is_stmt 1 view .LVU11
	.loc 1 130 5 view .LVU12
	.loc 1 131 5 view .LVU13
	.loc 1 132 5 view .LVU14
	.loc 1 133 5 view .LVU15
	.loc 1 134 5 view .LVU16
	.loc 1 135 5 view .LVU17
.LVL6:
	.loc 1 137 5 view .LVU18
	.loc 1 138 5 view .LVU19
	.loc 1 140 5 view .LVU20
	.loc 1 140 7 is_stmt 0 view .LVU21
	cmp	r2, #384
	bhi	.L16
	mov	r8, r0
	mov	r4, r1
	mov	r6, r2
	.loc 1 143 4 is_stmt 1 discriminator 1 view .LVU22
	.loc 1 143 26 is_stmt 0 discriminator 1 view .LVU23
	mov	r2, #416
.LVL7:
	.loc 1 143 26 discriminator 1 view .LVU24
	movs	r1, #0
.LVL8:
	.loc 1 143 26 discriminator 1 view .LVU25
	add	r0, sp, #376
.LVL9:
	.loc 1 143 26 discriminator 1 view .LVU26
	bl	memset
.LVL10:
	.loc 1 145 5 is_stmt 1 discriminator 1 view .LVU27
	mov	r0, sp
	bl	mbedtls_aes_init
.LVL11:
	.loc 1 154 5 discriminator 1 view .LVU28
	.loc 1 155 5 discriminator 1 view .LVU29
	.loc 1 155 31 is_stmt 0 discriminator 1 view .LVU30
	lsrs	r3, r6, #24
.LVL12:
	.loc 1 155 10 discriminator 1 view .LVU31
	strb	r3, [sp, #392]
	.loc 1 156 5 is_stmt 1 discriminator 1 view .LVU32
	.loc 1 156 23 is_stmt 0 discriminator 1 view .LVU33
	lsrs	r3, r6, #16
.LVL13:
	.loc 1 156 10 discriminator 1 view .LVU34
	strb	r3, [sp, #393]
	.loc 1 157 5 is_stmt 1 discriminator 1 view .LVU35
	.loc 1 157 23 is_stmt 0 discriminator 1 view .LVU36
	lsrs	r3, r6, #8
.LVL14:
	.loc 1 157 10 discriminator 1 view .LVU37
	strb	r3, [sp, #394]
	.loc 1 158 5 is_stmt 1 discriminator 1 view .LVU38
.LVL15:
	.loc 1 158 10 is_stmt 0 discriminator 1 view .LVU39
	strb	r6, [sp, #395]
	.loc 1 159 5 is_stmt 1 discriminator 1 view .LVU40
.LVL16:
	.loc 1 160 5 discriminator 1 view .LVU41
	.loc 1 160 10 is_stmt 0 discriminator 1 view .LVU42
	movs	r3, #48
	strb	r3, [sp, #399]
	.loc 1 161 4 is_stmt 1 discriminator 1 view .LVU43
	.loc 1 161 26 is_stmt 0 discriminator 1 view .LVU44
	add	r5, sp, #400
.LVL17:
	.loc 1 161 26 discriminator 1 view .LVU45
	mov	r3, #392
	mov	r2, r6
	mov	r1, r4
	mov	r0, r5
	bl	__memcpy_chk
.LVL18:
	.loc 1 162 5 is_stmt 1 discriminator 1 view .LVU46
	.loc 1 162 17 is_stmt 0 discriminator 1 view .LVU47
	movs	r3, #128
	strb	r3, [r5, r6]
	.loc 1 164 5 is_stmt 1 discriminator 1 view .LVU48
	.loc 1 164 13 is_stmt 0 discriminator 1 view .LVU49
	adds	r6, r6, #25
.LVL19:
	.loc 1 166 5 is_stmt 1 discriminator 1 view .LVU50
	.loc 1 166 12 is_stmt 0 discriminator 1 view .LVU51
	movs	r3, #0
	.loc 1 166 5 discriminator 1 view .LVU52
	b	.L6
.LVL20:
.L7:
	.loc 1 167 9 is_stmt 1 discriminator 3 view .LVU53
	.loc 1 167 16 is_stmt 0 discriminator 3 view .LVU54
	add	r2, sp, #296
	strb	r3, [r2, r3]
	.loc 1 166 25 is_stmt 1 discriminator 3 view .LVU55
	.loc 1 166 26 is_stmt 0 discriminator 3 view .LVU56
	adds	r3, r3, #1
.LVL21:
.L6:
	.loc 1 166 17 is_stmt 1 discriminator 1 view .LVU57
	.loc 1 166 5 is_stmt 0 discriminator 1 view .LVU58
	cmp	r3, #31
	ble	.L7
	.loc 1 169 5 is_stmt 1 view .LVU59
	.loc 1 169 17 is_stmt 0 view .LVU60
	mov	r2, #256
	add	r1, sp, #296
	mov	r0, sp
	bl	mbedtls_aes_setkey_enc
.LVL22:
	.loc 1 169 7 view .LVU61
	mov	r7, r0
	cmp	r0, #0
	bne	.L17
	.loc 1 178 12 view .LVU62
	mov	r9, r0
.LVL23:
.L9:
	.loc 1 178 17 is_stmt 1 discriminator 1 view .LVU63
	.loc 1 178 5 is_stmt 0 discriminator 1 view .LVU64
	cmp	r9, #47
	bgt	.L20
	.loc 1 180 9 is_stmt 1 view .LVU65
.LVL24:
	.loc 1 181 8 view .LVU66
	.loc 1 181 30 is_stmt 0 view .LVU67
	movs	r3, #0
	str	r3, [sp, #280]
	str	r3, [sp, #284]
	str	r3, [sp, #288]
	str	r3, [sp, #292]
	.loc 1 182 9 is_stmt 1 view .LVU68
.LVL25:
	.loc 1 184 9 view .LVU69
	.loc 1 182 17 is_stmt 0 view .LVU70
	mov	r5, r6
	.loc 1 180 11 view .LVU71
	add	r4, sp, #376
.LVL26:
	.loc 1 184 14 view .LVU72
	b	.L10
.LVL27:
.L22:
	.loc 1 188 13 is_stmt 1 view .LVU73
	.loc 1 188 15 is_stmt 0 view .LVU74
	adds	r4, r4, #16
.LVL28:
	.loc 1 189 13 is_stmt 1 view .LVU75
	.loc 1 189 21 is_stmt 0 view .LVU76
	cmp	r5, #16
	ite	ls
	subls	r5, r5, r5
.LVL29:
	.loc 1 189 21 view .LVU77
	subhi	r5, r5, #16
.LVL30:
	.loc 1 192 13 is_stmt 1 view .LVU78
	.loc 1 192 25 is_stmt 0 view .LVU79
	add	r3, sp, #280
.LVL31:
	.loc 1 192 25 view .LVU80
	mov	r2, r3
	movs	r1, #1
	mov	r0, sp
	bl	mbedtls_aes_crypt_ecb
.LVL32:
	.loc 1 192 15 view .LVU81
	mov	r10, r0
	cmp	r0, #0
	bne	.L8
.LVL33:
.L10:
	.loc 1 184 14 is_stmt 1 view .LVU82
	cbz	r5, .L21
	.loc 1 186 20 is_stmt 0 view .LVU83
	mov	r3, r7
.L12:
.LVL34:
	.loc 1 186 25 is_stmt 1 discriminator 1 view .LVU84
	.loc 1 186 13 is_stmt 0 discriminator 1 view .LVU85
	cmp	r3, #15
	bgt	.L22
	.loc 1 187 17 is_stmt 1 discriminator 3 view .LVU86
	.loc 1 187 30 is_stmt 0 discriminator 3 view .LVU87
	ldrb	r2, [r4, r3]	@ zero_extendqisi2
	.loc 1 187 26 discriminator 3 view .LVU88
	add	r1, sp, #280
	ldrb	r0, [r1, r3]	@ zero_extendqisi2
	eors	r2, r2, r0
	strb	r2, [r1, r3]
	.loc 1 186 33 is_stmt 1 discriminator 3 view .LVU89
	.loc 1 186 34 is_stmt 0 discriminator 3 view .LVU90
	adds	r3, r3, #1
.LVL35:
	.loc 1 186 34 discriminator 3 view .LVU91
	b	.L12
.LVL36:
.L21:
	.loc 1 199 8 is_stmt 1 view .LVU92
	.loc 1 199 10 is_stmt 0 view .LVU93
	add	ip, sp, #328
	add	r5, ip, r9
.LVL37:
.LBB16:
.LBI16:
	.file 2 "/home/sebin/LIOT/gcc-arm-none-eabi-9-2019-q4-major/arm-none-eabi/include/ssp/string.h"
	.loc 2 83 216 is_stmt 1 view .LVU94
.LBB17:
	.loc 2 83 292 view .LVU95
	.loc 2 83 299 is_stmt 0 view .LVU96
	add	r4, sp, #280
.LVL38:
	.loc 2 83 299 view .LVU97
	ldmia	r4!, {r0, r1, r2, r3}
.LVL39:
	.loc 2 83 299 view .LVU98
	str	r0, [ip, r9]	@ unaligned
	str	r1, [r5, #4]	@ unaligned
	str	r2, [r5, #8]	@ unaligned
	str	r3, [r5, #12]	@ unaligned
.LVL40:
	.loc 2 83 299 view .LVU99
.LBE17:
.LBE16:
	.loc 1 204 9 is_stmt 1 view .LVU100
	.loc 1 204 12 is_stmt 0 view .LVU101
	ldrb	r3, [sp, #379]	@ zero_extendqisi2
	.loc 1 204 15 view .LVU102
	adds	r3, r3, #1
	strb	r3, [sp, #379]
	.loc 1 178 34 is_stmt 1 view .LVU103
	.loc 1 178 36 is_stmt 0 view .LVU104
	add	r9, r9, #16
.LVL41:
	.loc 1 178 36 view .LVU105
	b	.L9
.L20:
	.loc 1 210 5 is_stmt 1 view .LVU106
	.loc 1 210 17 is_stmt 0 view .LVU107
	mov	r2, #256
	add	r1, sp, #328
	mov	r0, sp
	bl	mbedtls_aes_setkey_enc
.LVL42:
	.loc 1 210 7 view .LVU108
	mov	r10, r0
	cbnz	r0, .L8
	.loc 1 218 12 view .LVU109
	mov	r6, r0
.LVL43:
	.loc 1 216 7 view .LVU110
	mov	r5, r8
.LVL44:
.L14:
	.loc 1 218 17 is_stmt 1 discriminator 1 view .LVU111
	.loc 1 218 5 is_stmt 0 discriminator 1 view .LVU112
	cmp	r6, #47
	bgt	.L8
	.loc 1 220 9 is_stmt 1 view .LVU113
	.loc 1 220 21 is_stmt 0 view .LVU114
	add	r3, sp, #360
	mov	r2, r3
	movs	r1, #1
	mov	r0, sp
	bl	mbedtls_aes_crypt_ecb
.LVL45:
	.loc 1 220 11 view .LVU115
	mov	r10, r0
	cbnz	r0, .L8
	.loc 1 225 8 is_stmt 1 view .LVU116
.LVL46:
.LBB18:
.LBI18:
	.loc 2 83 216 view .LVU117
.LBB19:
	.loc 2 83 292 view .LVU118
	.loc 2 83 299 is_stmt 0 view .LVU119
	add	r4, sp, #360
.LVL47:
	.loc 2 83 299 view .LVU120
	ldmia	r4!, {r0, r1, r2, r3}
.LVL48:
	.loc 2 83 299 view .LVU121
	str	r0, [r5]	@ unaligned
	str	r1, [r5, #4]	@ unaligned
	str	r2, [r5, #8]	@ unaligned
	str	r3, [r5, #12]	@ unaligned
.LVL49:
	.loc 2 83 299 view .LVU122
.LBE19:
.LBE18:
	.loc 1 226 9 is_stmt 1 view .LVU123
	.loc 1 226 11 is_stmt 0 view .LVU124
	adds	r5, r5, #16
.LVL50:
	.loc 1 218 34 is_stmt 1 view .LVU125
	.loc 1 218 36 is_stmt 0 view .LVU126
	adds	r6, r6, #16
.LVL51:
	.loc 1 218 36 view .LVU127
	b	.L14
.LVL52:
.L17:
	.loc 1 169 17 view .LVU128
	mov	r10, r0
.LVL53:
.L8:
	.loc 1 229 5 is_stmt 1 view .LVU129
	mov	r0, sp
	bl	mbedtls_aes_free
.LVL54:
	.loc 1 233 5 view .LVU130
	mov	r1, #416
	add	r0, sp, #376
	bl	mbedtls_platform_zeroize
.LVL55:
	.loc 1 234 5 view .LVU131
	movs	r1, #48
	add	r0, sp, #328
	bl	mbedtls_platform_zeroize
.LVL56:
	.loc 1 235 5 view .LVU132
	movs	r1, #32
	add	r0, sp, #296
	bl	mbedtls_platform_zeroize
.LVL57:
	.loc 1 236 5 view .LVU133
	movs	r1, #16
	add	r0, sp, #280
	bl	mbedtls_platform_zeroize
.LVL58:
	.loc 1 237 5 view .LVU134
	.loc 1 237 7 is_stmt 0 view .LVU135
	cmp	r10, #0
	bne	.L23
.LVL59:
.L4:
	.loc 1 246 1 view .LVU136
	mov	r0, r10
	add	sp, sp, #792
	.cfi_remember_state
	.cfi_def_cfa_offset 32
	@ sp needed
	pop	{r4, r5, r6, r7, r8, r9, r10, pc}
.LVL60:
.L23:
	.cfi_restore_state
	.loc 1 242 9 is_stmt 1 view .LVU137
	movs	r1, #48
	mov	r0, r8
	bl	mbedtls_platform_zeroize
.LVL61:
	b	.L4
.LVL62:
.L16:
	.loc 1 141 15 is_stmt 0 view .LVU138
	mvn	r10, #55
	b	.L4
	.cfi_endproc
.LFE17:
	.size	block_cipher_df, .-block_cipher_df
	.section	.text.ctr_drbg_update_internal,"ax",%progbits
	.align	1
	.syntax unified
	.thumb
	.thumb_func
	.fpu fpv4-sp-d16
	.type	ctr_drbg_update_internal, %function
ctr_drbg_update_internal:
.LVL63:
.LFB18:
	.loc 1 258 1 is_stmt 1 view -0
	.cfi_startproc
	@ args = 0, pretend = 0, frame = 48
	@ frame_needed = 0, uses_anonymous_args = 0
	.loc 1 258 1 is_stmt 0 view .LVU140
	push	{r4, r5, r6, r7, r8, lr}
	.cfi_def_cfa_offset 24
	.cfi_offset 4, -24
	.cfi_offset 5, -20
	.cfi_offset 6, -16
	.cfi_offset 7, -12
	.cfi_offset 8, -8
	.cfi_offset 14, -4
	sub	sp, sp, #48
	.cfi_def_cfa_offset 72
	mov	r4, r0
	mov	r5, r1
	.loc 1 259 5 is_stmt 1 view .LVU141
	.loc 1 260 5 view .LVU142
.LVL64:
	.loc 1 261 5 view .LVU143
	.loc 1 262 5 view .LVU144
	.loc 1 264 4 view .LVU145
	.loc 1 264 26 is_stmt 0 view .LVU146
	movs	r2, #48
	movs	r1, #0
.LVL65:
	.loc 1 264 26 view .LVU147
	mov	r0, sp
.LVL66:
	.loc 1 264 26 view .LVU148
	bl	memset
.LVL67:
	.loc 1 266 5 is_stmt 1 view .LVU149
	.loc 1 266 12 is_stmt 0 view .LVU150
	movs	r7, #0
	.loc 1 260 20 view .LVU151
	mov	r6, sp
	.loc 1 266 5 view .LVU152
	b	.L25
.LVL68:
.L26:
	.loc 1 278 9 is_stmt 1 view .LVU153
	.loc 1 278 21 is_stmt 0 view .LVU154
	mov	r3, r6
	mov	r2, r4
	movs	r1, #1
	add	r0, r4, #32
	bl	mbedtls_aes_crypt_ecb
.LVL69:
	.loc 1 278 11 view .LVU155
	mov	r8, r0
	cbnz	r0, .L28
	.loc 1 284 9 is_stmt 1 discriminator 2 view .LVU156
	.loc 1 284 11 is_stmt 0 discriminator 2 view .LVU157
	adds	r6, r6, #16
.LVL70:
	.loc 1 266 34 is_stmt 1 discriminator 2 view .LVU158
	.loc 1 266 36 is_stmt 0 discriminator 2 view .LVU159
	adds	r7, r7, #16
.LVL71:
.L25:
	.loc 1 266 17 is_stmt 1 discriminator 1 view .LVU160
	.loc 1 266 5 is_stmt 0 discriminator 1 view .LVU161
	cmp	r7, #47
	bgt	.L34
	.loc 1 271 16 view .LVU162
	movs	r2, #16
.L29:
.LVL72:
	.loc 1 271 22 is_stmt 1 discriminator 1 view .LVU163
	.loc 1 271 9 is_stmt 0 discriminator 1 view .LVU164
	cmp	r2, #0
	ble	.L26
	.loc 1 272 13 is_stmt 1 view .LVU165
	.loc 1 272 34 is_stmt 0 view .LVU166
	subs	r2, r2, #1
.LVL73:
	.loc 1 272 31 view .LVU167
	ldrb	r3, [r4, r2]	@ zero_extendqisi2
	.loc 1 272 17 view .LVU168
	adds	r3, r3, #1
	uxtb	r3, r3
	.loc 1 272 15 view .LVU169
	strb	r3, [r4, r2]
	cmp	r3, #0
	beq	.L29
	b	.L26
.LVL74:
.L34:
	.loc 1 287 12 view .LVU170
	movs	r3, #0
	b	.L30
.LVL75:
.L31:
	.loc 1 288 9 is_stmt 1 discriminator 3 view .LVU171
	.loc 1 288 23 is_stmt 0 discriminator 3 view .LVU172
	ldrb	r2, [r5, r3]	@ zero_extendqisi2
	.loc 1 288 16 discriminator 3 view .LVU173
	add	r1, sp, #48
	add	r1, r1, r3
	ldrb	r0, [r1, #-48]	@ zero_extendqisi2
	eors	r2, r2, r0
	strb	r2, [r1, #-48]
	.loc 1 287 34 is_stmt 1 discriminator 3 view .LVU174
	.loc 1 287 35 is_stmt 0 discriminator 3 view .LVU175
	adds	r3, r3, #1
.LVL76:
.L30:
	.loc 1 287 17 is_stmt 1 discriminator 1 view .LVU176
	.loc 1 287 5 is_stmt 0 discriminator 1 view .LVU177
	cmp	r3, #47
	ble	.L31
	.loc 1 293 5 is_stmt 1 view .LVU178
	.loc 1 293 17 is_stmt 0 view .LVU179
	mov	r2, #256
	mov	r1, sp
	add	r0, r4, #32
	bl	mbedtls_aes_setkey_enc
.LVL77:
	.loc 1 293 7 view .LVU180
	mov	r8, r0
	cbnz	r0, .L28
	.loc 1 298 4 is_stmt 1 view .LVU181
.LVL78:
.LBB20:
.LBI20:
	.loc 2 83 216 view .LVU182
.LBB21:
	.loc 2 83 292 view .LVU183
	.loc 2 83 299 is_stmt 0 view .LVU184
	add	r5, sp, #32
.LVL79:
	.loc 2 83 299 view .LVU185
	ldmia	r5!, {r0, r1, r2, r3}
.LVL80:
	.loc 2 83 299 view .LVU186
	str	r0, [r4]	@ unaligned
	str	r1, [r4, #4]	@ unaligned
	str	r2, [r4, #8]	@ unaligned
	str	r3, [r4, #12]	@ unaligned
.LVL81:
.L28:
	.loc 2 83 299 view .LVU187
.LBE21:
.LBE20:
	.loc 1 302 5 is_stmt 1 view .LVU188
	movs	r1, #48
	mov	r0, sp
	bl	mbedtls_platform_zeroize
.LVL82:
	.loc 1 303 5 view .LVU189
	.loc 1 304 1 is_stmt 0 view .LVU190
	mov	r0, r8
	add	sp, sp, #48
	.cfi_def_cfa_offset 24
	@ sp needed
	pop	{r4, r5, r6, r7, r8, pc}
	.loc 1 304 1 view .LVU191
	.cfi_endproc
.LFE18:
	.size	ctr_drbg_update_internal, .-ctr_drbg_update_internal
	.section	.text.mbedtls_ctr_drbg_reseed_internal,"ax",%progbits
	.align	1
	.syntax unified
	.thumb
	.thumb_func
	.fpu fpv4-sp-d16
	.type	mbedtls_ctr_drbg_reseed_internal, %function
mbedtls_ctr_drbg_reseed_internal:
.LVL83:
.LFB20:
	.loc 1 355 1 is_stmt 1 view -0
	.cfi_startproc
	@ args = 0, pretend = 0, frame = 384
	@ frame_needed = 0, uses_anonymous_args = 0
	.loc 1 355 1 is_stmt 0 view .LVU193
	push	{r4, r5, r6, r7, r8, lr}
	.cfi_def_cfa_offset 24
	.cfi_offset 4, -24
	.cfi_offset 5, -20
	.cfi_offset 6, -16
	.cfi_offset 7, -12
	.cfi_offset 8, -8
	.cfi_offset 14, -4
	sub	sp, sp, #384
	.cfi_def_cfa_offset 408
	mov	r4, r0
	.loc 1 356 5 is_stmt 1 view .LVU194
	.loc 1 357 5 view .LVU195
.LVL84:
	.loc 1 358 5 view .LVU196
	.loc 1 360 5 view .LVU197
	.loc 1 360 12 is_stmt 0 view .LVU198
	ldr	r0, [r0, #24]
.LVL85:
	.loc 1 360 7 view .LVU199
	cmp	r0, #384
	bhi	.L40
	mov	r8, r1
	mov	r6, r2
	mov	r5, r3
	.loc 1 362 5 is_stmt 1 view .LVU200
	.loc 1 362 25 is_stmt 0 view .LVU201
	rsb	r3, r0, #384
.LVL86:
	.loc 1 362 7 view .LVU202
	cmp	r3, r5
	bcc	.L41
	.loc 1 364 5 is_stmt 1 view .LVU203
	.loc 1 364 38 is_stmt 0 view .LVU204
	add	r0, r0, r5
	rsb	r0, r0, #384
	.loc 1 364 7 view .LVU205
	cmp	r0, r2
	bcc	.L42
	.loc 1 367 4 is_stmt 1 discriminator 1 view .LVU206
	.loc 1 367 26 is_stmt 0 discriminator 1 view .LVU207
	mov	r2, #384
.LVL87:
	.loc 1 367 26 discriminator 1 view .LVU208
	movs	r1, #0
.LVL88:
	.loc 1 367 26 discriminator 1 view .LVU209
	mov	r0, sp
	bl	memset
.LVL89:
	.loc 1 370 5 is_stmt 1 discriminator 1 view .LVU210
	.loc 1 370 17 is_stmt 0 discriminator 1 view .LVU211
	ldr	r3, [r4, #312]
	.loc 1 370 14 discriminator 1 view .LVU212
	ldr	r2, [r4, #24]
	mov	r1, sp
	ldr	r0, [r4, #316]
	blx	r3
.LVL90:
	.loc 1 370 7 discriminator 1 view .LVU213
	cmp	r0, #0
	bne	.L43
	.loc 1 374 5 is_stmt 1 view .LVU214
	.loc 1 374 19 is_stmt 0 view .LVU215
	ldr	r7, [r4, #24]
.LVL91:
	.loc 1 377 5 is_stmt 1 view .LVU216
	.loc 1 377 7 is_stmt 0 view .LVU217
	cbz	r5, .L37
	.loc 1 379 9 is_stmt 1 view .LVU218
	.loc 1 379 21 is_stmt 0 view .LVU219
	ldr	r3, [r4, #312]
	.loc 1 379 18 view .LVU220
	mov	r2, r5
	add	r1, sp, r7
	ldr	r0, [r4, #316]
	blx	r3
.LVL92:
	.loc 1 379 11 view .LVU221
	cbnz	r0, .L44
	.loc 1 383 9 is_stmt 1 view .LVU222
	.loc 1 383 17 is_stmt 0 view .LVU223
	add	r7, r7, r5
.LVL93:
.L37:
	.loc 1 387 5 is_stmt 1 view .LVU224
	.loc 1 387 7 is_stmt 0 view .LVU225
	cmp	r8, #0
	beq	.L38
	.loc 1 387 27 discriminator 1 view .LVU226
	cbz	r6, .L38
	.loc 1 389 8 is_stmt 1 view .LVU227
.LVL94:
.LBB22:
.LBI22:
	.loc 2 83 216 view .LVU228
.LBB23:
	.loc 2 83 292 view .LVU229
	.loc 2 83 299 is_stmt 0 view .LVU230
	mov	r2, r6
	mov	r1, r8
	add	r0, sp, r7
.LVL95:
	.loc 2 83 299 view .LVU231
	bl	memcpy
.LVL96:
	.loc 2 83 299 view .LVU232
.LBE23:
.LBE22:
	.loc 1 390 9 is_stmt 1 view .LVU233
	.loc 1 390 17 is_stmt 0 view .LVU234
	add	r7, r7, r6
.LVL97:
.L38:
	.loc 1 394 5 is_stmt 1 view .LVU235
	.loc 1 394 17 is_stmt 0 view .LVU236
	mov	r2, r7
	mov	r1, sp
	mov	r0, sp
	bl	block_cipher_df
.LVL98:
	.loc 1 394 7 view .LVU237
	mov	r5, r0
.LVL99:
	.loc 1 394 7 view .LVU238
	cbz	r0, .L46
.L39:
	.loc 1 403 5 is_stmt 1 view .LVU239
	mov	r1, #384
	mov	r0, sp
.LVL100:
	.loc 1 403 5 is_stmt 0 view .LVU240
	bl	mbedtls_platform_zeroize
.LVL101:
	.loc 1 404 5 is_stmt 1 view .LVU241
.L35:
	.loc 1 405 1 is_stmt 0 view .LVU242
	mov	r0, r5
	add	sp, sp, #384
	.cfi_remember_state
	.cfi_def_cfa_offset 24
	@ sp needed
	pop	{r4, r5, r6, r7, r8, pc}
.LVL102:
.L46:
	.cfi_restore_state
	.loc 1 398 5 is_stmt 1 view .LVU243
	.loc 1 398 17 is_stmt 0 view .LVU244
	mov	r1, sp
	mov	r0, r4
.LVL103:
	.loc 1 398 17 view .LVU245
	bl	ctr_drbg_update_internal
.LVL104:
	.loc 1 398 7 view .LVU246
	mov	r5, r0
	cmp	r0, #0
	bne	.L39
	.loc 1 400 5 is_stmt 1 view .LVU247
	.loc 1 400 25 is_stmt 0 view .LVU248
	movs	r3, #1
	str	r3, [r4, #16]
	b	.L39
.LVL105:
.L40:
	.loc 1 361 15 view .LVU249
	mvn	r5, #55
	b	.L35
.LVL106:
.L41:
	.loc 1 363 15 view .LVU250
	mvn	r5, #55
.LVL107:
	.loc 1 363 15 view .LVU251
	b	.L35
.LVL108:
.L42:
	.loc 1 365 15 view .LVU252
	mvn	r5, #55
.LVL109:
	.loc 1 365 15 view .LVU253
	b	.L35
.LVL110:
.L43:
	.loc 1 372 15 view .LVU254
	mvn	r5, #51
.LVL111:
	.loc 1 372 15 view .LVU255
	b	.L35
.LVL112:
.L44:
	.loc 1 381 19 view .LVU256
	mvn	r5, #51
.LVL113:
	.loc 1 381 19 view .LVU257
	b	.L35
	.cfi_endproc
.LFE20:
	.size	mbedtls_ctr_drbg_reseed_internal, .-mbedtls_ctr_drbg_reseed_internal
	.section	.text.mbedtls_ctr_drbg_init,"ax",%progbits
	.align	1
	.global	mbedtls_ctr_drbg_init
	.syntax unified
	.thumb
	.thumb_func
	.fpu fpv4-sp-d16
	.type	mbedtls_ctr_drbg_init, %function
mbedtls_ctr_drbg_init:
.LVL114:
.LFB11:
	.loc 1 52 1 is_stmt 1 view -0
	.cfi_startproc
	@ args = 0, pretend = 0, frame = 0
	@ frame_needed = 0, uses_anonymous_args = 0
	.loc 1 52 1 is_stmt 0 view .LVU259
	push	{r4, lr}
	.cfi_def_cfa_offset 8
	.cfi_offset 4, -8
	.cfi_offset 14, -4
	mov	r4, r0
	.loc 1 53 4 is_stmt 1 view .LVU260
.LVL115:
.LBB24:
.LBI24:
	.loc 2 86 189 view .LVU261
.LBB25:
	.loc 2 86 238 view .LVU262
	.loc 2 86 245 is_stmt 0 view .LVU263
	mov	r2, #320
	movs	r1, #0
	bl	memset
.LVL116:
	.loc 2 86 245 view .LVU264
.LBE25:
.LBE24:
	.loc 1 56 5 is_stmt 1 view .LVU265
	.loc 1 56 25 is_stmt 0 view .LVU266
	mov	r3, #-1
	str	r3, [r4, #16]
	.loc 1 58 5 is_stmt 1 view .LVU267
	.loc 1 58 26 is_stmt 0 view .LVU268
	movw	r3, #10000
	str	r3, [r4, #28]
	.loc 1 59 1 view .LVU269
	pop	{r4, pc}
	.loc 1 59 1 view .LVU270
	.cfi_endproc
.LFE11:
	.size	mbedtls_ctr_drbg_init, .-mbedtls_ctr_drbg_init
	.section	.text.mbedtls_ctr_drbg_free,"ax",%progbits
	.align	1
	.global	mbedtls_ctr_drbg_free
	.syntax unified
	.thumb
	.thumb_func
	.fpu fpv4-sp-d16
	.type	mbedtls_ctr_drbg_free, %function
mbedtls_ctr_drbg_free:
.LVL117:
.LFB12:
	.loc 1 66 1 is_stmt 1 view -0
	.cfi_startproc
	@ args = 0, pretend = 0, frame = 0
	@ frame_needed = 0, uses_anonymous_args = 0
	.loc 1 67 5 view .LVU272
	.loc 1 67 7 is_stmt 0 view .LVU273
	cbz	r0, .L52
	.loc 1 66 1 view .LVU274
	push	{r4, lr}
	.cfi_def_cfa_offset 8
	.cfi_offset 4, -8
	.cfi_offset 14, -4
	mov	r4, r0
	.loc 1 75 5 is_stmt 1 view .LVU275
	adds	r0, r0, #32
.LVL118:
	.loc 1 75 5 is_stmt 0 view .LVU276
	bl	mbedtls_aes_free
.LVL119:
	.loc 1 76 5 is_stmt 1 view .LVU277
	mov	r1, #320
	mov	r0, r4
	bl	mbedtls_platform_zeroize
.LVL120:
	.loc 1 77 5 view .LVU278
	.loc 1 77 26 is_stmt 0 view .LVU279
	movw	r3, #10000
	str	r3, [r4, #28]
	.loc 1 78 5 is_stmt 1 view .LVU280
	.loc 1 78 25 is_stmt 0 view .LVU281
	mov	r3, #-1
	str	r3, [r4, #16]
	.loc 1 79 1 view .LVU282
	pop	{r4, pc}
.LVL121:
.L52:
	.cfi_def_cfa_offset 0
	.cfi_restore 4
	.cfi_restore 14
	.loc 1 79 1 view .LVU283
	bx	lr
	.cfi_endproc
.LFE12:
	.size	mbedtls_ctr_drbg_free, .-mbedtls_ctr_drbg_free
	.section	.text.mbedtls_ctr_drbg_set_prediction_resistance,"ax",%progbits
	.align	1
	.global	mbedtls_ctr_drbg_set_prediction_resistance
	.syntax unified
	.thumb
	.thumb_func
	.fpu fpv4-sp-d16
	.type	mbedtls_ctr_drbg_set_prediction_resistance, %function
mbedtls_ctr_drbg_set_prediction_resistance:
.LVL122:
.LFB13:
	.loc 1 83 1 is_stmt 1 view -0
	.cfi_startproc
	@ args = 0, pretend = 0, frame = 0
	@ frame_needed = 0, uses_anonymous_args = 0
	@ link register save eliminated.
	.loc 1 84 5 view .LVU285
	.loc 1 84 32 is_stmt 0 view .LVU286
	str	r1, [r0, #20]
	.loc 1 85 1 view .LVU287
	bx	lr
	.cfi_endproc
.LFE13:
	.size	mbedtls_ctr_drbg_set_prediction_resistance, .-mbedtls_ctr_drbg_set_prediction_resistance
	.section	.text.mbedtls_ctr_drbg_set_entropy_len,"ax",%progbits
	.align	1
	.global	mbedtls_ctr_drbg_set_entropy_len
	.syntax unified
	.thumb
	.thumb_func
	.fpu fpv4-sp-d16
	.type	mbedtls_ctr_drbg_set_entropy_len, %function
mbedtls_ctr_drbg_set_entropy_len:
.LVL123:
.LFB14:
	.loc 1 89 1 is_stmt 1 view -0
	.cfi_startproc
	@ args = 0, pretend = 0, frame = 0
	@ frame_needed = 0, uses_anonymous_args = 0
	@ link register save eliminated.
	.loc 1 90 5 view .LVU289
	.loc 1 90 22 is_stmt 0 view .LVU290
	str	r1, [r0, #24]
	.loc 1 91 1 view .LVU291
	bx	lr
	.cfi_endproc
.LFE14:
	.size	mbedtls_ctr_drbg_set_entropy_len, .-mbedtls_ctr_drbg_set_entropy_len
	.section	.text.mbedtls_ctr_drbg_set_nonce_len,"ax",%progbits
	.align	1
	.global	mbedtls_ctr_drbg_set_nonce_len
	.syntax unified
	.thumb
	.thumb_func
	.fpu fpv4-sp-d16
	.type	mbedtls_ctr_drbg_set_nonce_len, %function
mbedtls_ctr_drbg_set_nonce_len:
.LVL124:
.LFB15:
	.loc 1 95 1 is_stmt 1 view -0
	.cfi_startproc
	@ args = 0, pretend = 0, frame = 0
	@ frame_needed = 0, uses_anonymous_args = 0
	@ link register save eliminated.
	.loc 1 98 5 view .LVU293
	.loc 1 98 12 is_stmt 0 view .LVU294
	ldr	r3, [r0, #312]
	.loc 1 98 7 view .LVU295
	cbnz	r3, .L59
	.loc 1 101 5 is_stmt 1 view .LVU296
	.loc 1 101 7 is_stmt 0 view .LVU297
	cmp	r1, #384
	bhi	.L60
	.loc 1 107 5 is_stmt 1 view .LVU298
	.loc 1 107 7 is_stmt 0 view .LVU299
	cmp	r1, #0
	blt	.L61
	.loc 1 115 5 is_stmt 1 view .LVU300
	.loc 1 115 25 is_stmt 0 view .LVU301
	str	r1, [r0, #16]
	.loc 1 116 5 is_stmt 1 view .LVU302
	.loc 1 116 11 is_stmt 0 view .LVU303
	movs	r0, #0
.LVL125:
	.loc 1 116 11 view .LVU304
	bx	lr
.LVL126:
.L59:
	.loc 1 99 15 view .LVU305
	mvn	r0, #51
.LVL127:
	.loc 1 99 15 view .LVU306
	bx	lr
.LVL128:
.L60:
	.loc 1 102 15 view .LVU307
	mvn	r0, #55
.LVL129:
	.loc 1 102 15 view .LVU308
	bx	lr
.LVL130:
.L61:
	.loc 1 108 15 view .LVU309
	mvn	r0, #55
.LVL131:
	.loc 1 117 1 view .LVU310
	bx	lr
	.cfi_endproc
.LFE15:
	.size	mbedtls_ctr_drbg_set_nonce_len, .-mbedtls_ctr_drbg_set_nonce_len
	.section	.text.mbedtls_ctr_drbg_set_reseed_interval,"ax",%progbits
	.align	1
	.global	mbedtls_ctr_drbg_set_reseed_interval
	.syntax unified
	.thumb
	.thumb_func
	.fpu fpv4-sp-d16
	.type	mbedtls_ctr_drbg_set_reseed_interval, %function
mbedtls_ctr_drbg_set_reseed_interval:
.LVL132:
.LFB16:
	.loc 1 121 1 is_stmt 1 view -0
	.cfi_startproc
	@ args = 0, pretend = 0, frame = 0
	@ frame_needed = 0, uses_anonymous_args = 0
	@ link register save eliminated.
	.loc 1 122 5 view .LVU312
	.loc 1 122 26 is_stmt 0 view .LVU313
	str	r1, [r0, #28]
	.loc 1 123 1 view .LVU314
	bx	lr
	.cfi_endproc
.LFE16:
	.size	mbedtls_ctr_drbg_set_reseed_interval, .-mbedtls_ctr_drbg_set_reseed_interval
	.section	.text.mbedtls_ctr_drbg_update,"ax",%progbits
	.align	1
	.global	mbedtls_ctr_drbg_update
	.syntax unified
	.thumb
	.thumb_func
	.fpu fpv4-sp-d16
	.type	mbedtls_ctr_drbg_update, %function
mbedtls_ctr_drbg_update:
.LVL133:
.LFB19:
	.loc 1 321 1 is_stmt 1 view -0
	.cfi_startproc
	@ args = 0, pretend = 0, frame = 48
	@ frame_needed = 0, uses_anonymous_args = 0
	.loc 1 321 1 is_stmt 0 view .LVU316
	push	{r4, r5, lr}
	.cfi_def_cfa_offset 12
	.cfi_offset 4, -12
	.cfi_offset 5, -8
	.cfi_offset 14, -4
	sub	sp, sp, #52
	.cfi_def_cfa_offset 64
	.loc 1 322 5 is_stmt 1 view .LVU317
	.loc 1 323 5 view .LVU318
.LVL134:
	.loc 1 325 5 view .LVU319
	.loc 1 325 7 is_stmt 0 view .LVU320
	cbnz	r2, .L68
	.loc 1 326 15 view .LVU321
	movs	r5, #0
.LVL135:
.L63:
	.loc 1 336 1 view .LVU322
	mov	r0, r5
	add	sp, sp, #52
	.cfi_remember_state
	.cfi_def_cfa_offset 12
	@ sp needed
	pop	{r4, r5, pc}
.LVL136:
.L68:
	.cfi_restore_state
	.loc 1 336 1 view .LVU323
	mov	r4, r0
	.loc 1 328 5 is_stmt 1 view .LVU324
	.loc 1 328 17 is_stmt 0 view .LVU325
	mov	r0, sp
.LVL137:
	.loc 1 328 17 view .LVU326
	bl	block_cipher_df
.LVL138:
	.loc 1 328 7 view .LVU327
	mov	r5, r0
	cbz	r0, .L69
.L65:
	.loc 1 334 5 is_stmt 1 view .LVU328
	movs	r1, #48
	mov	r0, sp
.LVL139:
	.loc 1 334 5 is_stmt 0 view .LVU329
	bl	mbedtls_platform_zeroize
.LVL140:
	.loc 1 335 5 is_stmt 1 view .LVU330
	.loc 1 335 11 is_stmt 0 view .LVU331
	b	.L63
.LVL141:
.L69:
	.loc 1 330 5 is_stmt 1 view .LVU332
	.loc 1 330 17 is_stmt 0 view .LVU333
	mov	r1, sp
	mov	r0, r4
.LVL142:
	.loc 1 330 17 view .LVU334
	bl	ctr_drbg_update_internal
.LVL143:
	mov	r5, r0
.LVL144:
	.loc 1 333 1 view .LVU335
	b	.L65
	.cfi_endproc
.LFE19:
	.size	mbedtls_ctr_drbg_update, .-mbedtls_ctr_drbg_update
	.section	.text.mbedtls_ctr_drbg_reseed,"ax",%progbits
	.align	1
	.global	mbedtls_ctr_drbg_reseed
	.syntax unified
	.thumb
	.thumb_func
	.fpu fpv4-sp-d16
	.type	mbedtls_ctr_drbg_reseed, %function
mbedtls_ctr_drbg_reseed:
.LVL145:
.LFB21:
	.loc 1 409 1 is_stmt 1 view -0
	.cfi_startproc
	@ args = 0, pretend = 0, frame = 0
	@ frame_needed = 0, uses_anonymous_args = 0
	.loc 1 409 1 is_stmt 0 view .LVU337
	push	{r3, lr}
	.cfi_def_cfa_offset 8
	.cfi_offset 3, -8
	.cfi_offset 14, -4
	.loc 1 410 5 is_stmt 1 view .LVU338
	.loc 1 410 13 is_stmt 0 view .LVU339
	movs	r3, #0
	bl	mbedtls_ctr_drbg_reseed_internal
.LVL146:
	.loc 1 411 1 view .LVU340
	pop	{r3, pc}
	.cfi_endproc
.LFE21:
	.size	mbedtls_ctr_drbg_reseed, .-mbedtls_ctr_drbg_reseed
	.section	.text.mbedtls_ctr_drbg_seed,"ax",%progbits
	.align	1
	.global	mbedtls_ctr_drbg_seed
	.syntax unified
	.thumb
	.thumb_func
	.fpu fpv4-sp-d16
	.type	mbedtls_ctr_drbg_seed, %function
mbedtls_ctr_drbg_seed:
.LVL147:
.LFB23:
	.loc 1 442 1 is_stmt 1 view -0
	.cfi_startproc
	@ args = 4, pretend = 0, frame = 32
	@ frame_needed = 0, uses_anonymous_args = 0
	.loc 1 442 1 is_stmt 0 view .LVU342
	push	{r4, r5, r6, r7, r8, lr}
	.cfi_def_cfa_offset 24
	.cfi_offset 4, -24
	.cfi_offset 5, -20
	.cfi_offset 6, -16
	.cfi_offset 7, -12
	.cfi_offset 8, -8
	.cfi_offset 14, -4
	sub	sp, sp, #32
	.cfi_def_cfa_offset 56
	mov	r4, r0
	mov	r6, r1
	mov	r5, r2
	mov	r7, r3
	.loc 1 443 5 is_stmt 1 view .LVU343
.LVL148:
	.loc 1 444 5 view .LVU344
	.loc 1 445 5 view .LVU345
	.loc 1 447 4 view .LVU346
	.loc 1 447 26 is_stmt 0 view .LVU347
	movs	r2, #32
.LVL149:
	.loc 1 447 26 view .LVU348
	movs	r1, #0
.LVL150:
	.loc 1 447 26 view .LVU349
	mov	r0, sp
.LVL151:
	.loc 1 447 26 view .LVU350
	bl	memset
.LVL152:
	.loc 1 454 5 is_stmt 1 view .LVU351
	add	r8, r4, #32
	mov	r0, r8
	bl	mbedtls_aes_init
.LVL153:
	.loc 1 456 5 view .LVU352
	.loc 1 456 20 is_stmt 0 view .LVU353
	str	r6, [r4, #312]
	.loc 1 457 5 is_stmt 1 view .LVU354
	.loc 1 457 20 is_stmt 0 view .LVU355
	str	r5, [r4, #316]
	.loc 1 459 5 is_stmt 1 view .LVU356
	.loc 1 459 12 is_stmt 0 view .LVU357
	ldr	r3, [r4, #24]
	.loc 1 459 7 view .LVU358
	cbnz	r3, .L73
	.loc 1 460 9 is_stmt 1 view .LVU359
	.loc 1 460 26 is_stmt 0 view .LVU360
	movs	r3, #32
	str	r3, [r4, #24]
.L73:
	.loc 1 465 5 is_stmt 1 view .LVU361
	.loc 1 465 22 is_stmt 0 view .LVU362
	ldr	r5, [r4, #16]
.LVL154:
	.loc 1 466 48 view .LVU363
	cmp	r5, #0
	blt	.L78
.LVL155:
.L75:
	.loc 1 470 5 is_stmt 1 view .LVU364
	.loc 1 470 17 is_stmt 0 view .LVU365
	mov	r2, #256
	mov	r1, sp
	mov	r0, r8
	bl	mbedtls_aes_setkey_enc
.LVL156:
	.loc 1 470 7 view .LVU366
	cbz	r0, .L79
.L72:
	.loc 1 483 1 view .LVU367
	add	sp, sp, #32
	.cfi_remember_state
	.cfi_def_cfa_offset 24
	@ sp needed
	pop	{r4, r5, r6, r7, r8, pc}
.LVL157:
.L78:
	.cfi_restore_state
	.loc 1 467 19 view .LVU368
	ldr	r0, [r4, #24]
	bl	good_nonce_len
.LVL158:
	.loc 1 467 19 view .LVU369
	mov	r5, r0
	b	.L75
.LVL159:
.L79:
	.loc 1 477 5 is_stmt 1 view .LVU370
	.loc 1 477 17 is_stmt 0 view .LVU371
	mov	r3, r5
	ldr	r2, [sp, #56]
	mov	r1, r7
	mov	r0, r4
.LVL160:
	.loc 1 477 17 view .LVU372
	bl	mbedtls_ctr_drbg_reseed_internal
.LVL161:
	.loc 1 477 17 view .LVU373
	b	.L72
	.cfi_endproc
.LFE23:
	.size	mbedtls_ctr_drbg_seed, .-mbedtls_ctr_drbg_seed
	.section	.text.mbedtls_ctr_drbg_random_with_add,"ax",%progbits
	.align	1
	.global	mbedtls_ctr_drbg_random_with_add
	.syntax unified
	.thumb
	.thumb_func
	.fpu fpv4-sp-d16
	.type	mbedtls_ctr_drbg_random_with_add, %function
mbedtls_ctr_drbg_random_with_add:
.LVL162:
.LFB24:
	.loc 1 507 1 is_stmt 1 view -0
	.cfi_startproc
	@ args = 4, pretend = 0, frame = 64
	@ frame_needed = 0, uses_anonymous_args = 0
	.loc 1 507 1 is_stmt 0 view .LVU375
	push	{r4, r5, r6, r7, r8, lr}
	.cfi_def_cfa_offset 24
	.cfi_offset 4, -24
	.cfi_offset 5, -20
	.cfi_offset 6, -16
	.cfi_offset 7, -12
	.cfi_offset 8, -8
	.cfi_offset 14, -4
	sub	sp, sp, #64
	.cfi_def_cfa_offset 88
	ldr	r8, [sp, #88]
	.loc 1 508 5 is_stmt 1 view .LVU376
.LVL163:
	.loc 1 509 5 view .LVU377
	.loc 1 510 5 view .LVU378
	.loc 1 511 5 view .LVU379
	.loc 1 512 5 view .LVU380
	.loc 1 513 5 view .LVU381
	.loc 1 514 5 view .LVU382
	.loc 1 516 5 view .LVU383
	.loc 1 516 7 is_stmt 0 view .LVU384
	cmp	r2, #1024
	bhi	.L90
	mov	r5, r0
	mov	r7, r1
	mov	r6, r2
	mov	r4, r3
	.loc 1 519 5 is_stmt 1 view .LVU385
	.loc 1 519 7 is_stmt 0 view .LVU386
	cmp	r8, #256
	bhi	.L91
	.loc 1 522 4 is_stmt 1 discriminator 1 view .LVU387
	.loc 1 522 26 is_stmt 0 discriminator 1 view .LVU388
	movs	r2, #48
.LVL164:
	.loc 1 522 26 discriminator 1 view .LVU389
	movs	r1, #0
.LVL165:
	.loc 1 522 26 discriminator 1 view .LVU390
	add	r0, sp, #16
.LVL166:
	.loc 1 522 26 discriminator 1 view .LVU391
	bl	memset
.LVL167:
	.loc 1 524 5 is_stmt 1 discriminator 1 view .LVU392
	.loc 1 524 12 is_stmt 0 discriminator 1 view .LVU393
	ldr	r2, [r5, #16]
	.loc 1 524 34 discriminator 1 view .LVU394
	ldr	r3, [r5, #28]
	.loc 1 524 7 discriminator 1 view .LVU395
	cmp	r2, r3
	bgt	.L82
	.loc 1 525 12 discriminator 1 view .LVU396
	ldr	r3, [r5, #20]
	.loc 1 524 52 discriminator 1 view .LVU397
	cbz	r3, .L83
.L82:
	.loc 1 527 9 is_stmt 1 view .LVU398
	.loc 1 527 21 is_stmt 0 view .LVU399
	mov	r2, r8
	mov	r1, r4
	mov	r0, r5
	bl	mbedtls_ctr_drbg_reseed
.LVL168:
	.loc 1 527 11 view .LVU400
	mov	r4, r0
.LVL169:
	.loc 1 527 11 view .LVU401
	cbz	r0, .L88
	b	.L80
.LVL170:
.L83:
	.loc 1 534 5 is_stmt 1 view .LVU402
	.loc 1 534 7 is_stmt 0 view .LVU403
	cmp	r8, #0
	beq	.L88
	.loc 1 536 9 is_stmt 1 view .LVU404
	.loc 1 536 21 is_stmt 0 view .LVU405
	mov	r2, r8
	mov	r1, r4
	add	r0, sp, #16
	bl	block_cipher_df
.LVL171:
	.loc 1 536 11 view .LVU406
	mov	r4, r0
.LVL172:
	.loc 1 536 11 view .LVU407
	cbnz	r0, .L85
	.loc 1 538 9 is_stmt 1 view .LVU408
	.loc 1 538 21 is_stmt 0 view .LVU409
	add	r1, sp, #16
	mov	r0, r5
.LVL173:
	.loc 1 538 21 view .LVU410
	bl	ctr_drbg_update_internal
.LVL174:
	.loc 1 538 11 view .LVU411
	mov	r4, r0
	cbz	r0, .L88
	b	.L85
.LVL175:
.L86:
	.loc 1 554 9 is_stmt 1 view .LVU412
	.loc 1 554 21 is_stmt 0 view .LVU413
	mov	r3, sp
	mov	r2, r5
	movs	r1, #1
	add	r0, r5, #32
	bl	mbedtls_aes_crypt_ecb
.LVL176:
	.loc 1 554 11 view .LVU414
	mov	r4, r0
	cbnz	r0, .L85
	.loc 1 560 9 is_stmt 1 view .LVU415
	.loc 1 560 17 is_stmt 0 view .LVU416
	mov	r4, r6
	cmp	r6, #16
	it	cs
	movcs	r4, #16
.LVL177:
	.loc 1 565 8 is_stmt 1 view .LVU417
.LBB26:
.LBI26:
	.loc 2 83 216 view .LVU418
.LBB27:
	.loc 2 83 292 view .LVU419
	.loc 2 83 299 is_stmt 0 view .LVU420
	mov	r2, r4
	mov	r1, sp
	mov	r0, r7
.LVL178:
	.loc 2 83 299 view .LVU421
	bl	memcpy
.LVL179:
	.loc 2 83 299 view .LVU422
.LBE27:
.LBE26:
	.loc 1 566 9 is_stmt 1 view .LVU423
	.loc 1 566 11 is_stmt 0 view .LVU424
	add	r7, r7, r4
.LVL180:
	.loc 1 567 9 is_stmt 1 view .LVU425
	.loc 1 567 20 is_stmt 0 view .LVU426
	subs	r6, r6, r4
.LVL181:
.L88:
	.loc 1 542 10 is_stmt 1 view .LVU427
	cbz	r6, .L94
	.loc 1 547 16 is_stmt 0 view .LVU428
	movs	r4, #16
.L89:
.LVL182:
	.loc 1 547 22 is_stmt 1 discriminator 1 view .LVU429
	.loc 1 547 9 is_stmt 0 discriminator 1 view .LVU430
	cmp	r4, #0
	ble	.L86
	.loc 1 548 13 is_stmt 1 view .LVU431
	.loc 1 548 34 is_stmt 0 view .LVU432
	subs	r4, r4, #1
.LVL183:
	.loc 1 548 31 view .LVU433
	ldrb	r3, [r5, r4]	@ zero_extendqisi2
	.loc 1 548 17 view .LVU434
	adds	r3, r3, #1
	uxtb	r3, r3
	.loc 1 548 15 view .LVU435
	strb	r3, [r5, r4]
	cmp	r3, #0
	beq	.L89
	b	.L86
.LVL184:
.L94:
	.loc 1 570 5 is_stmt 1 view .LVU436
	.loc 1 570 17 is_stmt 0 view .LVU437
	add	r1, sp, #16
	mov	r0, r5
	bl	ctr_drbg_update_internal
.LVL185:
	.loc 1 570 7 view .LVU438
	mov	r4, r0
	cbnz	r0, .L85
	.loc 1 573 5 is_stmt 1 view .LVU439
	.loc 1 573 8 is_stmt 0 view .LVU440
	ldr	r3, [r5, #16]
	.loc 1 573 24 view .LVU441
	adds	r3, r3, #1
	str	r3, [r5, #16]
.LVL186:
.L85:
	.loc 1 576 5 is_stmt 1 view .LVU442
	movs	r1, #48
	add	r0, sp, #16
.LVL187:
	.loc 1 576 5 is_stmt 0 view .LVU443
	bl	mbedtls_platform_zeroize
.LVL188:
	.loc 1 577 5 is_stmt 1 view .LVU444
	movs	r1, #16
	mov	r0, sp
	bl	mbedtls_platform_zeroize
.LVL189:
	.loc 1 578 5 view .LVU445
.L80:
	.loc 1 579 1 is_stmt 0 view .LVU446
	mov	r0, r4
	add	sp, sp, #64
	.cfi_remember_state
	.cfi_def_cfa_offset 24
	@ sp needed
	pop	{r4, r5, r6, r7, r8, pc}
.LVL190:
.L90:
	.cfi_restore_state
	.loc 1 517 15 view .LVU447
	mvn	r4, #53
	b	.L80
.L91:
	.loc 1 520 15 view .LVU448
	mvn	r4, #55
	b	.L80
	.cfi_endproc
.LFE24:
	.size	mbedtls_ctr_drbg_random_with_add, .-mbedtls_ctr_drbg_random_with_add
	.section	.text.mbedtls_ctr_drbg_random,"ax",%progbits
	.align	1
	.global	mbedtls_ctr_drbg_random
	.syntax unified
	.thumb
	.thumb_func
	.fpu fpv4-sp-d16
	.type	mbedtls_ctr_drbg_random, %function
mbedtls_ctr_drbg_random:
.LVL191:
.LFB25:
	.loc 1 583 1 is_stmt 1 view -0
	.cfi_startproc
	@ args = 0, pretend = 0, frame = 0
	@ frame_needed = 0, uses_anonymous_args = 0
	.loc 1 583 1 is_stmt 0 view .LVU450
	push	{lr}
	.cfi_def_cfa_offset 4
	.cfi_offset 14, -4
	sub	sp, sp, #12
	.cfi_def_cfa_offset 16
	.loc 1 584 5 is_stmt 1 view .LVU451
.LVL192:
	.loc 1 585 5 view .LVU452
	.loc 1 592 5 view .LVU453
	.loc 1 592 11 is_stmt 0 view .LVU454
	movs	r3, #0
	str	r3, [sp]
	bl	mbedtls_ctr_drbg_random_with_add
.LVL193:
	.loc 1 599 5 is_stmt 1 view .LVU455
	.loc 1 600 1 is_stmt 0 view .LVU456
	add	sp, sp, #12
	.cfi_def_cfa_offset 4
	@ sp needed
	ldr	pc, [sp], #4
	.cfi_endproc
.LFE25:
	.size	mbedtls_ctr_drbg_random, .-mbedtls_ctr_drbg_random
	.text
.Letext0:
	.file 3 "/home/sebin/LIOT/gcc-arm-none-eabi-9-2019-q4-major/arm-none-eabi/include/machine/_default_types.h"
	.file 4 "/home/sebin/LIOT/gcc-arm-none-eabi-9-2019-q4-major/lib/gcc/arm-none-eabi/9.2.1/include/stddef.h"
	.file 5 "/home/sebin/LIOT/gcc-arm-none-eabi-9-2019-q4-major/arm-none-eabi/include/sys/_stdint.h"
	.file 6 "/home/sebin/thesis/zephyrproject/modules/crypto/mbedtls/include/mbedtls/aes.h"
	.file 7 "/home/sebin/thesis/zephyrproject/modules/crypto/mbedtls/include/mbedtls/ctr_drbg.h"
	.file 8 "/home/sebin/LIOT/gcc-arm-none-eabi-9-2019-q4-major/arm-none-eabi/include/sys/lock.h"
	.file 9 "/home/sebin/LIOT/gcc-arm-none-eabi-9-2019-q4-major/arm-none-eabi/include/sys/_types.h"
	.file 10 "/home/sebin/LIOT/gcc-arm-none-eabi-9-2019-q4-major/arm-none-eabi/include/sys/reent.h"
	.file 11 "<built-in>"
	.file 12 "/home/sebin/thesis/zephyrproject/modules/crypto/mbedtls/include/mbedtls/platform_util.h"