	.cpu cortex-m4
	.eabi_attribute 27, 1
	.eabi_attribute 28, 1
	.eabi_attribute 20, 1
	.eabi_attribute 21, 1
	.eabi_attribute 23, 3
	.eabi_attribute 24, 1
	.eabi_attribute 25, 1
	.eabi_attribute 26, 1
	.eabi_attribute 30, 1
	.eabi_attribute 34, 1
	.eabi_attribute 38, 1
	.eabi_attribute 18, 4
	.file	"des.c"
	.text
.Ltext0:
	.cfi_sections	.debug_frame
	.section	.text.mbedtls_des_init,"ax",%progbits
	.align	1
	.global	mbedtls_des_init
	.arch armv7e-m
	.syntax unified
	.thumb
	.thumb_func
	.fpu fpv4-sp-d16
	.type	mbedtls_des_init, %function
mbedtls_des_init:
.LVL0:
.LFB10:
	.file 1 "/home/sebin/thesis/zephyrproject/modules/crypto/mbedtls/library/des.c"
	.loc 1 307 1 view -0
	.cfi_startproc
	@ args = 0, pretend = 0, frame = 0
	@ frame_needed = 0, uses_anonymous_args = 0
	.loc 1 307 1 is_stmt 0 view .LVU1
	push	{r3, lr}
	.cfi_def_cfa_offset 8
	.cfi_offset 3, -8
	.cfi_offset 14, -4
	.loc 1 308 4 is_stmt 1 view .LVU2
.LVL1:
.LBB14:
.LBI14:
	.file 2 "/home/sebin/LIOT/gcc-arm-none-eabi-9-2019-q4-major/arm-none-eabi/include/ssp/string.h"
	.loc 2 86 189 view .LVU3
.LBB15:
	.loc 2 86 238 view .LVU4
	.loc 2 86 245 is_stmt 0 view .LVU5
	movs	r2, #128
	movs	r1, #0
	bl	memset
.LVL2:
	.loc 2 86 245 view .LVU6
.LBE15:
.LBE14:
	.loc 1 309 1 view .LVU7
	pop	{r3, pc}
	.cfi_endproc
.LFE10:
	.size	mbedtls_des_init, .-mbedtls_des_init
	.section	.text.mbedtls_des_free,"ax",%progbits
	.align	1
	.global	mbedtls_des_free
	.syntax unified
	.thumb
	.thumb_func
	.fpu fpv4-sp-d16
	.type	mbedtls_des_free, %function
mbedtls_des_free:
.LVL3:
.LFB11:
	.loc 1 312 1 is_stmt 1 view -0
	.cfi_startproc
	@ args = 0, pretend = 0, frame = 0
	@ frame_needed = 0, uses_anonymous_args = 0
	.loc 1 313 5 view .LVU9
	.loc 1 313 7 is_stmt 0 view .LVU10
	cbz	r0, .L6
	.loc 1 312 1 view .LVU11
	push	{r3, lr}
	.cfi_def_cfa_offset 8
	.cfi_offset 3, -8
	.cfi_offset 14, -4
	.loc 1 316 5 is_stmt 1 view .LVU12
	movs	r1, #128
	bl	mbedtls_platform_zeroize
.LVL4:
	.loc 1 317 1 is_stmt 0 view .LVU13
	pop	{r3, pc}
.LVL5:
.L6:
	.cfi_def_cfa_offset 0
	.cfi_restore 3
	.cfi_restore 14
	.loc 1 317 1 view .LVU14
	bx	lr
	.cfi_endproc
.LFE11:
	.size	mbedtls_des_free, .-mbedtls_des_free
	.section	.text.mbedtls_des3_init,"ax",%progbits
	.align	1
	.global	mbedtls_des3_init
	.syntax unified
	.thumb
	.thumb_func
	.fpu fpv4-sp-d16
	.type	mbedtls_des3_init, %function
mbedtls_des3_init:
.LVL6:
.LFB12:
	.loc 1 320 1 is_stmt 1 view -0
	.cfi_startproc
	@ args = 0, pretend = 0, frame = 0
	@ frame_needed = 0, uses_anonymous_args = 0
	.loc 1 320 1 is_stmt 0 view .LVU16
	push	{r3, lr}
	.cfi_def_cfa_offset 8
	.cfi_offset 3, -8
	.cfi_offset 14, -4
	.loc 1 321 4 is_stmt 1 view .LVU17
.LVL7:
.LBB16:
.LBI16:
	.loc 2 86 189 view .LVU18
.LBB17:
	.loc 2 86 238 view .LVU19
	.loc 2 86 245 is_stmt 0 view .LVU20
	mov	r2, #384
	movs	r1, #0
	bl	memset
.LVL8:
	.loc 2 86 245 view .LVU21
.LBE17:
.LBE16:
	.loc 1 322 1 view .LVU22
	pop	{r3, pc}
	.cfi_endproc
.LFE12:
	.size	mbedtls_des3_init, .-mbedtls_des3_init
	.section	.text.mbedtls_des3_free,"ax",%progbits
	.align	1
	.global	mbedtls_des3_free
	.syntax unified
	.thumb
	.thumb_func
	.fpu fpv4-sp-d16
	.type	mbedtls_des3_free, %function
mbedtls_des3_free:
.LVL9:
.LFB13:
	.loc 1 325 1 is_stmt 1 view -0
	.cfi_startproc
	@ args = 0, pretend = 0, frame = 0
	@ frame_needed = 0, uses_anonymous_args = 0
	.loc 1 326 5 view .LVU24
	.loc 1 326 7 is_stmt 0 view .LVU25
	cbz	r0, .L14
	.loc 1 325 1 view .LVU26
	push	{r3, lr}
	.cfi_def_cfa_offset 8
	.cfi_offset 3, -8
	.cfi_offset 14, -4
	.loc 1 329 5 is_stmt 1 view .LVU27
	mov	r1, #384
	bl	mbedtls_platform_zeroize
.LVL10:
	.loc 1 330 1 is_stmt 0 view .LVU28
	pop	{r3, pc}
.LVL11:
.L14:
	.cfi_def_cfa_offset 0
	.cfi_restore 3
	.cfi_restore 14
	.loc 1 330 1 view .LVU29
	bx	lr
	.cfi_endproc
.LFE13:
	.size	mbedtls_des3_free, .-mbedtls_des3_free
	.section	.text.mbedtls_des_key_set_parity,"ax",%progbits
	.align	1
	.global	mbedtls_des_key_set_parity
	.syntax unified
	.thumb
	.thumb_func
	.fpu fpv4-sp-d16
	.type	mbedtls_des_key_set_parity, %function
mbedtls_des_key_set_parity:
.LVL12:
.LFB14:
	.loc 1 344 1 is_stmt 1 view -0
	.cfi_startproc
	@ args = 0, pretend = 0, frame = 0
	@ frame_needed = 0, uses_anonymous_args = 0
	@ link register save eliminated.
	.loc 1 345 5 view .LVU31
	.loc 1 347 5 view .LVU32
	.loc 1 347 12 is_stmt 0 view .LVU33
	movs	r3, #0
	.loc 1 347 5 view .LVU34
	b	.L18
.LVL13:
.L19:
	.loc 1 348 9 is_stmt 1 discriminator 3 view .LVU35
	.loc 1 348 38 is_stmt 0 discriminator 3 view .LVU36
	ldrb	r2, [r0, r3]	@ zero_extendqisi2
	.loc 1 348 42 discriminator 3 view .LVU37
	lsrs	r2, r2, #1
	.loc 1 348 34 discriminator 3 view .LVU38
	ldr	r1, .L20
	ldrb	r2, [r1, r2]	@ zero_extendqisi2
	.loc 1 348 16 discriminator 3 view .LVU39
	strb	r2, [r0, r3]
	.loc 1 347 24 is_stmt 1 discriminator 3 view .LVU40
	.loc 1 347 25 is_stmt 0 discriminator 3 view .LVU41
	adds	r3, r3, #1
.LVL14:
.L18:
	.loc 1 347 17 is_stmt 1 discriminator 1 view .LVU42
	.loc 1 347 5 is_stmt 0 discriminator 1 view .LVU43
	cmp	r3, #7
	ble	.L19
	.loc 1 349 1 view .LVU44
	bx	lr
.L21:
	.align	2
.L20:
	.word	.LANCHOR0
	.cfi_endproc
.LFE14:
	.size	mbedtls_des_key_set_parity, .-mbedtls_des_key_set_parity
	.section	.text.mbedtls_des_key_check_key_parity,"ax",%progbits
	.align	1
	.global	mbedtls_des_key_check_key_parity
	.syntax unified
	.thumb
	.thumb_func
	.fpu fpv4-sp-d16
	.type	mbedtls_des_key_check_key_parity, %function
mbedtls_des_key_check_key_parity:
.LVL15:
.LFB15:
	.loc 1 355 1 is_stmt 1 view -0
	.cfi_startproc
	@ args = 0, pretend = 0, frame = 0
	@ frame_needed = 0, uses_anonymous_args = 0
	@ link register save eliminated.
	.loc 1 356 5 view .LVU46
	.loc 1 358 5 view .LVU47
	.loc 1 358 12 is_stmt 0 view .LVU48
	movs	r3, #0
.LVL16:
	.loc 1 358 17 is_stmt 1 view .LVU49
	.loc 1 358 5 is_stmt 0 view .LVU50
	cmp	r3, #7
	bgt	.L31
	.loc 1 355 1 view .LVU51
	push	{r4}
	.cfi_def_cfa_offset 4
	.cfi_offset 4, -4
.L25:
	.loc 1 359 9 is_stmt 1 view .LVU52
	.loc 1 359 16 is_stmt 0 view .LVU53
	ldrb	r2, [r0, r3]	@ zero_extendqisi2
	.loc 1 359 47 view .LVU54
	lsrs	r1, r2, #1
	.loc 1 359 39 view .LVU55
	ldr	r4, .L32
	ldrb	r1, [r4, r1]	@ zero_extendqisi2
	.loc 1 359 11 view .LVU56
	cmp	r2, r1
	bne	.L26
	.loc 1 358 24 is_stmt 1 discriminator 2 view .LVU57
	.loc 1 358 25 is_stmt 0 discriminator 2 view .LVU58
	adds	r3, r3, #1
.LVL17:
	.loc 1 358 17 is_stmt 1 discriminator 2 view .LVU59
	.loc 1 358 5 is_stmt 0 discriminator 2 view .LVU60
	cmp	r3, #7
	ble	.L25
	.loc 1 362 11 view .LVU61
	movs	r0, #0
.LVL18:
.L22:
	.loc 1 363 1 view .LVU62
	ldr	r4, [sp], #4
	.cfi_remember_state
	.cfi_restore 4
	.cfi_def_cfa_offset 0
	bx	lr
.LVL19:
.L26:
	.cfi_restore_state
	.loc 1 360 19 view .LVU63
	movs	r0, #1
.LVL20:
	.loc 1 360 19 view .LVU64
	b	.L22
.LVL21:
.L31:
	.cfi_def_cfa_offset 0
	.cfi_restore 4
	.loc 1 362 11 view .LVU65
	movs	r0, #0
.LVL22:
	.loc 1 363 1 view .LVU66
	bx	lr
.L33:
	.align	2
.L32:
	.word	.LANCHOR0
	.cfi_endproc
.LFE15:
	.size	mbedtls_des_key_check_key_parity, .-mbedtls_des_key_check_key_parity
	.section	.text.mbedtls_des_key_check_weak,"ax",%progbits
	.align	1
	.global	mbedtls_des_key_check_weak
	.syntax unified
	.thumb
	.thumb_func
	.fpu fpv4-sp-d16
	.type	mbedtls_des_key_check_weak, %function
mbedtls_des_key_check_weak:
.LVL23:
.LFB16:
	.loc 1 410 1 is_stmt 1 view -0
	.cfi_startproc
	@ args = 0, pretend = 0, frame = 0
	@ frame_needed = 0, uses_anonymous_args = 0
	.loc 1 410 1 is_stmt 0 view .LVU68
	push	{r3, r4, r5, lr}
	.cfi_def_cfa_offset 16
	.cfi_offset 3, -16
	.cfi_offset 4, -12
	.cfi_offset 5, -8
	.cfi_offset 14, -4
	mov	r5, r0
	.loc 1 411 5 is_stmt 1 view .LVU69
	.loc 1 413 5 view .LVU70
.LVL24:
	.loc 1 413 12 is_stmt 0 view .LVU71
	movs	r4, #0
.LVL25:
.L35:
	.loc 1 413 17 is_stmt 1 discriminator 1 view .LVU72
	.loc 1 413 5 is_stmt 0 discriminator 1 view .LVU73
	cmp	r4, #15
	bgt	.L40
	.loc 1 414 9 is_stmt 1 view .LVU74
	.loc 1 414 13 is_stmt 0 view .LVU75
	movs	r2, #8
	mov	r1, r5
	ldr	r0, .L41
	add	r0, r0, r4, lsl #3
	bl	memcmp
.LVL26:
	.loc 1 414 11 view .LVU76
	cbz	r0, .L38
	.loc 1 413 25 is_stmt 1 discriminator 2 view .LVU77
	.loc 1 413 26 is_stmt 0 discriminator 2 view .LVU78
	adds	r4, r4, #1
.LVL27:
	.loc 1 413 26 discriminator 2 view .LVU79
	b	.L35
.L40:
	.loc 1 417 11 view .LVU80
	movs	r0, #0
.L34:
	.loc 1 418 1 view .LVU81
	pop	{r3, r4, r5, pc}
.LVL28:
.L38:
	.loc 1 415 19 view .LVU82
	movs	r0, #1
	b	.L34
.L42:
	.align	2
.L41:
	.word	.LANCHOR1
	.cfi_endproc
.LFE16:
	.size	mbedtls_des_key_check_weak, .-mbedtls_des_key_check_weak
	.section	.text.mbedtls_des_setkey,"ax",%progbits
	.align	1
	.global	mbedtls_des_setkey
	.syntax unified
	.thumb
	.thumb_func
	.fpu fpv4-sp-d16
	.type	mbedtls_des_setkey, %function
mbedtls_des_setkey:
.LVL29:
.LFB17:
	.loc 1 422 1 is_stmt 1 view -0
	.cfi_startproc
	@ args = 0, pretend = 0, frame = 0
	@ frame_needed = 0, uses_anonymous_args = 0
	.loc 1 422 1 is_stmt 0 view .LVU84
	push	{r4, r5, r6, r7, r8, lr}
	.cfi_def_cfa_offset 24
	.cfi_offset 4, -24
	.cfi_offset 5, -20
	.cfi_offset 6, -16
	.cfi_offset 7, -12
	.cfi_offset 8, -8
	.cfi_offset 14, -4
	.loc 1 423 5 is_stmt 1 view .LVU85
	.loc 1 424 5 view .LVU86
	.loc 1 426 7 view .LVU87
	.loc 1 426 31 is_stmt 0 view .LVU88
	ldrb	r3, [r1]	@ zero_extendqisi2
	.loc 1 426 66 view .LVU89
	ldrb	r2, [r1, #1]	@ zero_extendqisi2
	.loc 1 426 76 view .LVU90
	lsls	r2, r2, #16
	.loc 1 426 46 view .LVU91
	orr	r2, r2, r3, lsl #24
	.loc 1 426 104 view .LVU92
	ldrb	r3, [r1, #2]	@ zero_extendqisi2
	.loc 1 426 84 view .LVU93
	orr	r2, r2, r3, lsl #8
	.loc 1 426 141 view .LVU94
	ldrb	r3, [r1, #3]	@ zero_extendqisi2
	.loc 1 426 11 view .LVU95
	orrs	r2, r2, r3
.LVL30:
	.loc 1 426 155 is_stmt 1 view .LVU96
	.loc 1 427 7 view .LVU97
	.loc 1 427 31 is_stmt 0 view .LVU98
	ldrb	r4, [r1, #4]	@ zero_extendqisi2
	.loc 1 427 66 view .LVU99
	ldrb	r3, [r1, #5]	@ zero_extendqisi2
	.loc 1 427 76 view .LVU100
	lsls	r3, r3, #16
	.loc 1 427 46 view .LVU101
	orr	r3, r3, r4, lsl #24
	.loc 1 427 104 view .LVU102
	ldrb	r4, [r1, #6]	@ zero_extendqisi2
	.loc 1 427 84 view .LVU103
	orr	r3, r3, r4, lsl #8
	.loc 1 427 141 view .LVU104
	ldrb	r1, [r1, #7]	@ zero_extendqisi2
.LVL31:
	.loc 1 427 11 view .LVU105
	orrs	r3, r3, r1
.LVL32:
	.loc 1 427 155 is_stmt 1 view .LVU106
	.loc 1 432 5 view .LVU107
	.loc 1 432 19 is_stmt 0 view .LVU108
	eor	r1, r2, r3, lsr #4
	.loc 1 432 7 view .LVU109
	and	r1, r1, #252645135
.LVL33:
	.loc 1 432 38 is_stmt 1 view .LVU110
	.loc 1 432 40 is_stmt 0 view .LVU111
	eors	r2, r2, r1
.LVL34:
	.loc 1 432 46 is_stmt 1 view .LVU112
	.loc 1 432 48 is_stmt 0 view .LVU113
	eor	r3, r3, r1, lsl #4
.LVL35:
	.loc 1 433 5 is_stmt 1 view .LVU114
	.loc 1 433 15 is_stmt 0 view .LVU115
	eor	r1, r2, r3
.LVL36:
	.loc 1 433 7 view .LVU116
	and	r1, r1, #269488144
.LVL37:
	.loc 1 433 34 is_stmt 1 view .LVU117
	.loc 1 433 36 is_stmt 0 view .LVU118
	eor	r4, r2, r1
.LVL38:
	.loc 1 433 42 is_stmt 1 view .LVU119
	.loc 1 433 44 is_stmt 0 view .LVU120
	eors	r3, r3, r1
.LVL39:
	.loc 1 435 5 is_stmt 1 view .LVU121
	.loc 1 435 20 is_stmt 0 view .LVU122
	and	r2, r2, #15
	.loc 1 435 13 view .LVU123
	ldr	r5, .L51
	ldr	r2, [r5, r2, lsl #2]
	.loc 1 435 50 view .LVU124
	ubfx	r1, r4, #8, #4
.LVL40:
	.loc 1 435 39 view .LVU125
	ldr	r1, [r5, r1, lsl #2]
	.loc 1 435 58 view .LVU126
	lsls	r1, r1, #2
	.loc 1 435 33 view .LVU127
	orr	r1, r1, r2, lsl #3
	.loc 1 436 27 view .LVU128
	ubfx	r2, r4, #16, #4
	.loc 1 436 15 view .LVU129
	ldr	r2, [r5, r2, lsl #2]
	.loc 1 436 9 view .LVU130
	orr	r1, r1, r2, lsl #1
	.loc 1 436 58 view .LVU131
	ubfx	r2, r4, #24, #4
	.loc 1 436 46 view .LVU132
	ldr	r2, [r5, r2, lsl #2]
	.loc 1 436 40 view .LVU133
	orrs	r1, r1, r2
	.loc 1 437 26 view .LVU134
	ubfx	r2, r4, #5, #4
	.loc 1 437 15 view .LVU135
	ldr	r2, [r5, r2, lsl #2]
	.loc 1 437 9 view .LVU136
	orr	r1, r1, r2, lsl #7
	.loc 1 437 57 view .LVU137
	ubfx	r2, r4, #13, #4
	.loc 1 437 45 view .LVU138
	ldr	r2, [r5, r2, lsl #2]
	.loc 1 437 39 view .LVU139
	orr	r1, r1, r2, lsl #6
	.loc 1 438 27 view .LVU140
	ubfx	r2, r4, #21, #4
	.loc 1 438 15 view .LVU141
	ldr	r2, [r5, r2, lsl #2]
	.loc 1 438 9 view .LVU142
	orr	r1, r1, r2, lsl #5
	.loc 1 438 58 view .LVU143
	lsrs	r4, r4, #29
.LVL41:
	.loc 1 438 46 view .LVU144
	ldr	r2, [r5, r4, lsl #2]
	.loc 1 435 7 view .LVU145
	orr	r1, r1, r2, lsl #4
.LVL42:
	.loc 1 440 5 is_stmt 1 view .LVU146
	.loc 1 440 24 is_stmt 0 view .LVU147
	ubfx	r2, r3, #1, #4
	.loc 1 440 13 view .LVU148
	ldr	r4, .L51+4
	ldr	r5, [r4, r2, lsl #2]
	.loc 1 440 54 view .LVU149
	ubfx	r2, r3, #9, #4
	.loc 1 440 43 view .LVU150
	ldr	r2, [r4, r2, lsl #2]
	.loc 1 440 62 view .LVU151
	lsls	r2, r2, #2
	.loc 1 440 37 view .LVU152
	orr	r2, r2, r5, lsl #3
	.loc 1 441 27 view .LVU153
	ubfx	r5, r3, #17, #4
	.loc 1 441 15 view .LVU154
	ldr	r5, [r4, r5, lsl #2]
	.loc 1 441 9 view .LVU155
	orr	r2, r2, r5, lsl #1
	.loc 1 441 58 view .LVU156
	ubfx	r5, r3, #25, #4
	.loc 1 441 46 view .LVU157
	ldr	r5, [r4, r5, lsl #2]
	.loc 1 441 40 view .LVU158
	orrs	r2, r2, r5
	.loc 1 442 26 view .LVU159
	ubfx	r5, r3, #4, #4
	.loc 1 442 15 view .LVU160
	ldr	r5, [r4, r5, lsl #2]
	.loc 1 442 9 view .LVU161
	orr	r2, r2, r5, lsl #7
	.loc 1 442 57 view .LVU162
	ubfx	r5, r3, #12, #4
	.loc 1 442 45 view .LVU163
	ldr	r5, [r4, r5, lsl #2]
	.loc 1 442 39 view .LVU164
	orr	r2, r2, r5, lsl #6
	.loc 1 443 27 view .LVU165
	ubfx	r5, r3, #20, #4
	.loc 1 443 15 view .LVU166
	ldr	r5, [r4, r5, lsl #2]
	.loc 1 443 9 view .LVU167
	orr	r2, r2, r5, lsl #5
	.loc 1 443 58 view .LVU168
	lsrs	r3, r3, #28
.LVL43:
	.loc 1 443 46 view .LVU169
	ldr	r3, [r4, r3, lsl #2]
	.loc 1 440 7 view .LVU170
	orr	r2, r2, r3, lsl #4
.LVL44:
	.loc 1 445 5 is_stmt 1 view .LVU171
	.loc 1 445 7 is_stmt 0 view .LVU172
	bic	r1, r1, #-268435456
.LVL45:
	.loc 1 446 5 is_stmt 1 view .LVU173
	.loc 1 446 7 is_stmt 0 view .LVU174
	bic	r2, r2, #-268435456
.LVL46:
	.loc 1 451 5 is_stmt 1 view .LVU175
	.loc 1 451 12 is_stmt 0 view .LVU176
	movs	r4, #0
	.loc 1 451 5 view .LVU177
	b	.L44
.LVL47:
.L45:
	.loc 1 455 13 is_stmt 1 view .LVU178
	.loc 1 455 32 is_stmt 0 view .LVU179
	lsrs	r3, r1, #27
	.loc 1 455 27 view .LVU180
	orr	r1, r3, r1, lsl #1
.LVL48:
	.loc 1 455 15 view .LVU181
	bic	r1, r1, #-268435456
.LVL49:
	.loc 1 456 13 is_stmt 1 view .LVU182
	.loc 1 456 32 is_stmt 0 view .LVU183
	lsrs	r3, r2, #27
	.loc 1 456 27 view .LVU184
	orr	r2, r3, r2, lsl #1
.LVL50:
	.loc 1 456 15 view .LVU185
	bic	r2, r2, #-268435456
.LVL51:
.L47:
	.loc 1 464 9 is_stmt 1 discriminator 2 view .LVU186
	.loc 1 464 21 is_stmt 0 discriminator 2 view .LVU187
	lsls	r3, r1, #4
	.loc 1 464 27 discriminator 2 view .LVU188
	and	r3, r3, #603979776
	.loc 1 464 47 discriminator 2 view .LVU189
	lsls	r5, r1, #28
	.loc 1 464 54 discriminator 2 view .LVU190
	and	r5, r5, #268435456
	.loc 1 464 41 discriminator 2 view .LVU191
	orrs	r3, r3, r5
	.loc 1 465 23 discriminator 2 view .LVU192
	lsls	r5, r1, #14
	.loc 1 465 30 discriminator 2 view .LVU193
	and	r5, r5, #134217728
	.loc 1 465 17 discriminator 2 view .LVU194
	orrs	r3, r3, r5
	.loc 1 465 50 discriminator 2 view .LVU195
	lsls	r5, r1, #18
	.loc 1 465 57 discriminator 2 view .LVU196
	and	r5, r5, #34078720
	.loc 1 465 44 discriminator 2 view .LVU197
	orrs	r3, r3, r5
	.loc 1 466 23 discriminator 2 view .LVU198
	lsls	r5, r1, #6
	.loc 1 466 29 discriminator 2 view .LVU199
	and	r5, r5, #16777216
	.loc 1 466 17 discriminator 2 view .LVU200
	orrs	r3, r3, r5
	.loc 1 466 49 discriminator 2 view .LVU201
	lsls	r5, r1, #9
	.loc 1 466 55 discriminator 2 view .LVU202
	and	r5, r5, #2097152
	.loc 1 466 43 discriminator 2 view .LVU203
	orrs	r3, r3, r5
	.loc 1 467 23 discriminator 2 view .LVU204
	lsrs	r5, r1, #1
	.loc 1 467 29 discriminator 2 view .LVU205
	and	r5, r5, #1048576
	.loc 1 467 17 discriminator 2 view .LVU206
	orrs	r3, r3, r5
	.loc 1 467 49 discriminator 2 view .LVU207
	lsls	r6, r1, #10
	.loc 1 467 56 discriminator 2 view .LVU208
	and	r5, r6, #262144
	.loc 1 467 43 discriminator 2 view .LVU209
	orrs	r3, r3, r5
	.loc 1 468 23 discriminator 2 view .LVU210
	lsls	r5, r1, #2
	.loc 1 468 29 discriminator 2 view .LVU211
	and	r5, r5, #131072
	.loc 1 468 17 discriminator 2 view .LVU212
	orrs	r3, r3, r5
	.loc 1 468 49 discriminator 2 view .LVU213
	lsrs	r5, r1, #10
	.loc 1 468 56 discriminator 2 view .LVU214
	and	r5, r5, #65536
	.loc 1 468 43 discriminator 2 view .LVU215
	orrs	r3, r3, r5
	.loc 1 469 23 discriminator 2 view .LVU216
	lsrs	r5, r2, #13
	.loc 1 469 30 discriminator 2 view .LVU217
	and	r5, r5, #8192
	.loc 1 469 17 discriminator 2 view .LVU218
	orrs	r3, r3, r5
	.loc 1 469 50 discriminator 2 view .LVU219
	lsrs	r5, r2, #4
	.loc 1 469 56 discriminator 2 view .LVU220
	and	r5, r5, #4096
	.loc 1 469 44 discriminator 2 view .LVU221
	orrs	r3, r3, r5
	.loc 1 470 23 discriminator 2 view .LVU222
	lsls	r5, r2, #6
	.loc 1 470 29 discriminator 2 view .LVU223
	and	r5, r5, #2048
	.loc 1 470 17 discriminator 2 view .LVU224
	orrs	r3, r3, r5
	.loc 1 470 49 discriminator 2 view .LVU225
	lsrs	r5, r2, #1
	.loc 1 470 55 discriminator 2 view .LVU226
	and	r5, r5, #1024
	.loc 1 470 43 discriminator 2 view .LVU227
	orrs	r3, r3, r5
	.loc 1 471 23 discriminator 2 view .LVU228
	lsrs	r5, r2, #14
	.loc 1 471 30 discriminator 2 view .LVU229
	and	r7, r5, #512
	.loc 1 471 17 discriminator 2 view .LVU230
	orrs	r3, r3, r7
	.loc 1 471 52 discriminator 2 view .LVU231
	and	r7, r2, #256
	.loc 1 471 44 discriminator 2 view .LVU232
	orrs	r3, r3, r7
	.loc 1 472 23 discriminator 2 view .LVU233
	lsrs	r7, r2, #5
	.loc 1 472 29 discriminator 2 view .LVU234
	and	r7, r7, #32
	.loc 1 472 17 discriminator 2 view .LVU235
	orrs	r3, r3, r7
	.loc 1 472 49 discriminator 2 view .LVU236
	lsrs	r7, r2, #10
	.loc 1 472 56 discriminator 2 view .LVU237
	and	r7, r7, #16
	.loc 1 472 43 discriminator 2 view .LVU238
	orrs	r3, r3, r7
	.loc 1 473 23 discriminator 2 view .LVU239
	lsrs	r7, r2, #3
	.loc 1 473 29 discriminator 2 view .LVU240
	and	ip, r7, #8
	.loc 1 473 17 discriminator 2 view .LVU241
	orr	r3, r3, ip
	.loc 1 473 49 discriminator 2 view .LVU242
	lsr	ip, r2, #18
	.loc 1 473 56 discriminator 2 view .LVU243
	and	ip, ip, #4
	.loc 1 473 43 discriminator 2 view .LVU244
	orr	r3, r3, ip
	.loc 1 474 23 discriminator 2 view .LVU245
	lsr	ip, r2, #26
	.loc 1 474 30 discriminator 2 view .LVU246
	and	ip, ip, #2
	.loc 1 474 17 discriminator 2 view .LVU247
	orr	r3, r3, ip
	.loc 1 474 57 discriminator 2 view .LVU248
	ubfx	ip, r2, #24, #1
.LVL52:
	.loc 1 474 44 discriminator 2 view .LVU249
	orr	r3, r3, ip
	.loc 1 464 15 discriminator 2 view .LVU250
	mov	ip, r0
	str	r3, [ip], #8
	.loc 1 476 9 is_stmt 1 discriminator 2 view .LVU251
	.loc 1 476 21 is_stmt 0 discriminator 2 view .LVU252
	lsl	lr, r1, #15
	.loc 1 476 28 discriminator 2 view .LVU253
	and	r3, lr, #536870912
	.loc 1 476 48 discriminator 2 view .LVU254
	lsl	r8, r1, #17
	.loc 1 476 55 discriminator 2 view .LVU255
	and	r8, r8, #268435456
	.loc 1 476 42 discriminator 2 view .LVU256
	orr	r3, r3, r8
	.loc 1 477 30 discriminator 2 view .LVU257
	and	r6, r6, #134217728
	.loc 1 477 17 discriminator 2 view .LVU258
	orrs	r3, r3, r6
	.loc 1 477 50 discriminator 2 view .LVU259
	lsls	r6, r1, #22
	.loc 1 477 57 discriminator 2 view .LVU260
	and	r6, r6, #67108864
	.loc 1 477 44 discriminator 2 view .LVU261
	orrs	r3, r3, r6
	.loc 1 478 23 discriminator 2 view .LVU262
	lsrs	r6, r1, #2
	.loc 1 478 29 discriminator 2 view .LVU263
	and	r6, r6, #33554432
	.loc 1 478 17 discriminator 2 view .LVU264
	orrs	r3, r3, r6
	.loc 1 478 49 discriminator 2 view .LVU265
	lsls	r6, r1, #1
	.loc 1 478 55 discriminator 2 view .LVU266
	and	r6, r6, #16777216
	.loc 1 478 43 discriminator 2 view .LVU267
	orrs	r3, r3, r6
	.loc 1 479 23 discriminator 2 view .LVU268
	lsls	r6, r1, #16
	.loc 1 479 30 discriminator 2 view .LVU269
	and	r6, r6, #2097152
	.loc 1 479 17 discriminator 2 view .LVU270
	orrs	r3, r3, r6
	.loc 1 479 50 discriminator 2 view .LVU271
	lsls	r6, r1, #11
	.loc 1 479 57 discriminator 2 view .LVU272
	and	r6, r6, #1048576
	.loc 1 479 44 discriminator 2 view .LVU273
	orrs	r3, r3, r6
	.loc 1 480 23 discriminator 2 view .LVU274
	lsls	r6, r1, #3
	.loc 1 480 29 discriminator 2 view .LVU275
	and	r6, r6, #524288
	.loc 1 480 17 discriminator 2 view .LVU276
	orrs	r3, r3, r6
	.loc 1 480 49 discriminator 2 view .LVU277
	lsrs	r6, r1, #6
	.loc 1 480 55 discriminator 2 view .LVU278
	and	r6, r6, #262144
	.loc 1 480 43 discriminator 2 view .LVU279
	orrs	r3, r3, r6
	.loc 1 481 30 discriminator 2 view .LVU280
	and	lr, lr, #131072
	.loc 1 481 17 discriminator 2 view .LVU281
	orr	r3, r3, lr
	.loc 1 481 50 discriminator 2 view .LVU282
	lsrs	r6, r1, #4
	.loc 1 481 56 discriminator 2 view .LVU283
	and	r6, r6, #65536
	.loc 1 481 44 discriminator 2 view .LVU284
	orrs	r3, r3, r6
	.loc 1 482 23 discriminator 2 view .LVU285
	lsrs	r6, r2, #2
	.loc 1 482 29 discriminator 2 view .LVU286
	and	r6, r6, #8192
	.loc 1 482 17 discriminator 2 view .LVU287
	orrs	r3, r3, r6
	.loc 1 482 49 discriminator 2 view .LVU288
	lsls	r6, r2, #8
	.loc 1 482 55 discriminator 2 view .LVU289
	and	r6, r6, #4096
	.loc 1 482 43 discriminator 2 view .LVU290
	orrs	r3, r3, r6
	.loc 1 483 30 discriminator 2 view .LVU291
	bic	r5, r5, #2032
	bic	r5, r5, #7
	lsls	r5, r5, #20
	lsrs	r5, r5, #20
	.loc 1 483 17 discriminator 2 view .LVU292
	orrs	r3, r3, r5
	.loc 1 483 50 discriminator 2 view .LVU293
	lsrs	r5, r2, #9
	.loc 1 483 56 discriminator 2 view .LVU294
	and	r5, r5, #1024
	.loc 1 483 44 discriminator 2 view .LVU295
	orrs	r3, r3, r5
	.loc 1 484 25 discriminator 2 view .LVU296
	and	r5, r2, #512
	.loc 1 484 17 discriminator 2 view .LVU297
	orrs	r3, r3, r5
	.loc 1 484 45 discriminator 2 view .LVU298
	lsls	r5, r2, #7
	.loc 1 484 51 discriminator 2 view .LVU299
	and	r5, r5, #256
	.loc 1 484 39 discriminator 2 view .LVU300
	orrs	r3, r3, r5
	.loc 1 485 23 discriminator 2 view .LVU301
	lsrs	r5, r2, #7
	.loc 1 485 29 discriminator 2 view .LVU302
	and	r5, r5, #32
	.loc 1 485 17 discriminator 2 view .LVU303
	orrs	r3, r3, r5
	.loc 1 485 55 discriminator 2 view .LVU304
	and	r7, r7, #17
	.loc 1 485 43 discriminator 2 view .LVU305
	orrs	r3, r3, r7
	.loc 1 486 23 discriminator 2 view .LVU306
	lsls	r5, r2, #2
	.loc 1 486 29 discriminator 2 view .LVU307
	and	r5, r5, #4
	.loc 1 486 17 discriminator 2 view .LVU308
	orrs	r3, r3, r5
	.loc 1 486 49 discriminator 2 view .LVU309
	lsrs	r5, r2, #21
	.loc 1 486 56 discriminator 2 view .LVU310
	and	r5, r5, #2
.LVL53:
	.loc 1 486 43 discriminator 2 view .LVU311
	orrs	r3, r3, r5
	.loc 1 476 15 discriminator 2 view .LVU312
	str	r3, [r0, #4]
	.loc 1 451 25 is_stmt 1 discriminator 2 view .LVU313
	.loc 1 451 26 is_stmt 0 discriminator 2 view .LVU314
	adds	r4, r4, #1
.LVL54:
	.loc 1 476 12 discriminator 2 view .LVU315
	mov	r0, ip
.LVL55:
.L44:
	.loc 1 451 17 is_stmt 1 discriminator 1 view .LVU316
	.loc 1 451 5 is_stmt 0 discriminator 1 view .LVU317
	cmp	r4, #15
	bgt	.L50
	.loc 1 453 9 is_stmt 1 view .LVU318
	.loc 1 453 11 is_stmt 0 view .LVU319
	cmp	r4, #1
	ble	.L45
	.loc 1 453 19 discriminator 1 view .LVU320
	cmp	r4, #8
	beq	.L45
	.loc 1 453 29 discriminator 2 view .LVU321
	cmp	r4, #15
	beq	.L45
	.loc 1 460 13 is_stmt 1 view .LVU322
	.loc 1 460 32 is_stmt 0 view .LVU323
	lsrs	r3, r1, #26
	.loc 1 460 27 view .LVU324
	orr	r1, r3, r1, lsl #2
.LVL56:
	.loc 1 460 15 view .LVU325
	bic	r1, r1, #-268435456
.LVL57:
	.loc 1 461 13 is_stmt 1 view .LVU326
	.loc 1 461 32 is_stmt 0 view .LVU327
	lsrs	r3, r2, #26
	.loc 1 461 27 view .LVU328
	orr	r2, r3, r2, lsl #2
.LVL58:
	.loc 1 461 15 view .LVU329
	bic	r2, r2, #-268435456
.LVL59:
	.loc 1 461 15 view .LVU330
	b	.L47
.L50:
	.loc 1 488 1 view .LVU331
	pop	{r4, r5, r6, r7, r8, pc}
.LVL60:
.L52:
	.loc 1 488 1 view .LVU332
	.align	2
.L51:
	.word	.LANCHOR2
	.word	.LANCHOR3
	.cfi_endproc
.LFE17:
	.size	mbedtls_des_setkey, .-mbedtls_des_setkey
	.section	.text.des3_set2key,"ax",%progbits
	.align	1
	.syntax unified
	.thumb
	.thumb_func
	.fpu fpv4-sp-d16
	.type	des3_set2key, %function
des3_set2key:
.LVL61:
.LFB20:
	.loc 1 522 1 is_stmt 1 view -0
	.cfi_startproc
	@ args = 0, pretend = 0, frame = 0
	@ frame_needed = 0, uses_anonymous_args = 0
	.loc 1 522 1 is_stmt 0 view .LVU334
	push	{r4, r5, r6, lr}
	.cfi_def_cfa_offset 16
	.cfi_offset 4, -16
	.cfi_offset 5, -12
	.cfi_offset 6, -8
	.cfi_offset 14, -4
	mov	r5, r0
	mov	r4, r1
	mov	r6, r2
	.loc 1 523 5 is_stmt 1 view .LVU335
	.loc 1 525 5 view .LVU336
	mov	r1, r2
.LVL62:
	.loc 1 525 5 is_stmt 0 view .LVU337
	bl	mbedtls_des_setkey
.LVL63:
	.loc 1 526 5 is_stmt 1 view .LVU338
	add	r1, r6, #8
	add	r0, r4, #128
	bl	mbedtls_des_setkey
.LVL64:
	.loc 1 528 5 view .LVU339
	.loc 1 528 12 is_stmt 0 view .LVU340
	movs	r3, #0
.LVL65:
.L54:
	.loc 1 528 17 is_stmt 1 discriminator 1 view .LVU341
	.loc 1 528 5 is_stmt 0 discriminator 1 view .LVU342
	cmp	r3, #31
	bgt	.L57
	.loc 1 530 9 is_stmt 1 discriminator 3 view .LVU343
	.loc 1 530 26 is_stmt 0 discriminator 3 view .LVU344
	rsb	r2, r3, #30
	.loc 1 530 22 discriminator 3 view .LVU345
	ldr	r2, [r5, r2, lsl #2]
	.loc 1 530 17 discriminator 3 view .LVU346
	str	r2, [r4, r3, lsl #2]
	.loc 1 531 9 is_stmt 1 discriminator 3 view .LVU347
	.loc 1 531 29 is_stmt 0 discriminator 3 view .LVU348
	rsb	r1, r3, #31
	.loc 1 531 12 discriminator 3 view .LVU349
	adds	r2, r3, #1
	.loc 1 531 25 discriminator 3 view .LVU350
	ldr	r1, [r5, r1, lsl #2]
	.loc 1 531 20 discriminator 3 view .LVU351
	str	r1, [r4, r2, lsl #2]
	.loc 1 533 9 is_stmt 1 discriminator 3 view .LVU352
	.loc 1 533 30 is_stmt 0 discriminator 3 view .LVU353
	rsb	r0, r3, #62
	.loc 1 533 12 discriminator 3 view .LVU354
	add	r1, r3, #32
	.loc 1 533 26 discriminator 3 view .LVU355
	ldr	r0, [r4, r0, lsl #2]
	.loc 1 533 21 discriminator 3 view .LVU356
	str	r0, [r5, r1, lsl #2]
	.loc 1 534 9 is_stmt 1 discriminator 3 view .LVU357
	.loc 1 534 30 is_stmt 0 discriminator 3 view .LVU358
	rsb	r0, r3, #63
	.loc 1 534 12 discriminator 3 view .LVU359
	add	r1, r3, #33
	.loc 1 534 26 discriminator 3 view .LVU360
	ldr	r0, [r4, r0, lsl #2]
	.loc 1 534 21 discriminator 3 view .LVU361
	str	r0, [r5, r1, lsl #2]
	.loc 1 536 9 is_stmt 1 discriminator 3 view .LVU362
	.loc 1 536 12 is_stmt 0 discriminator 3 view .LVU363
	add	r0, r3, #64
	.loc 1 536 26 discriminator 3 view .LVU364
	ldr	r1, [r5, r3, lsl #2]
	.loc 1 536 21 discriminator 3 view .LVU365
	str	r1, [r5, r0, lsl #2]
	.loc 1 537 9 is_stmt 1 discriminator 3 view .LVU366
	.loc 1 537 12 is_stmt 0 discriminator 3 view .LVU367
	add	r1, r3, #65
	.loc 1 537 26 discriminator 3 view .LVU368
	ldr	r6, [r5, r2, lsl #2]
	.loc 1 537 21 discriminator 3 view .LVU369
	str	r6, [r5, r1, lsl #2]
	.loc 1 539 9 is_stmt 1 discriminator 3 view .LVU370
	.loc 1 539 26 is_stmt 0 discriminator 3 view .LVU371
	ldr	r6, [r4, r3, lsl #2]
	.loc 1 539 21 discriminator 3 view .LVU372
	str	r6, [r4, r0, lsl #2]
	.loc 1 540 9 is_stmt 1 discriminator 3 view .LVU373
	.loc 1 540 26 is_stmt 0 discriminator 3 view .LVU374
	ldr	r2, [r4, r2, lsl #2]
	.loc 1 540 21 discriminator 3 view .LVU375
	str	r2, [r4, r1, lsl #2]
	.loc 1 528 25 is_stmt 1 discriminator 3 view .LVU376
	.loc 1 528 27 is_stmt 0 discriminator 3 view .LVU377
	adds	r3, r3, #2
.LVL66:
	.loc 1 528 27 discriminator 3 view .LVU378
	b	.L54
.L57:
	.loc 1 542 1 view .LVU379
	pop	{r4, r5, r6, pc}
	.loc 1 542 1 view .LVU380
	.cfi_endproc
.LFE20:
	.size	des3_set2key, .-des3_set2key
	.section	.text.des3_set3key,"ax",%progbits
	.align	1
	.syntax unified
	.thumb
	.thumb_func
	.fpu fpv4-sp-d16
	.type	des3_set3key, %function
des3_set3key:
.LVL67:
.LFB23:
	.loc 1 575 1 is_stmt 1 view -0
	.cfi_startproc
	@ args = 0, pretend = 0, frame = 0
	@ frame_needed = 0, uses_anonymous_args = 0
	.loc 1 575 1 is_stmt 0 view .LVU382
	push	{r4, r5, r6, lr}
	.cfi_def_cfa_offset 16
	.cfi_offset 4, -16
	.cfi_offset 5, -12
	.cfi_offset 6, -8
	.cfi_offset 14, -4
	mov	r4, r0
	mov	r5, r1
	mov	r6, r2
	.loc 1 576 5 is_stmt 1 view .LVU383
	.loc 1 578 5 view .LVU384
	mov	r1, r2
.LVL68:
	.loc 1 578 5 is_stmt 0 view .LVU385
	bl	mbedtls_des_setkey
.LVL69:
	.loc 1 579 5 is_stmt 1 view .LVU386
	add	r1, r6, #8
	add	r0, r5, #128
	bl	mbedtls_des_setkey
.LVL70:
	.loc 1 580 5 view .LVU387
	add	r1, r6, #16
	add	r0, r4, #256
	bl	mbedtls_des_setkey
.LVL71:
	.loc 1 582 5 view .LVU388
	.loc 1 582 12 is_stmt 0 view .LVU389
	movs	r3, #0
.LVL72:
.L59:
	.loc 1 582 17 is_stmt 1 discriminator 1 view .LVU390
	.loc 1 582 5 is_stmt 0 discriminator 1 view .LVU391
	cmp	r3, #31
	bgt	.L62
	.loc 1 584 9 is_stmt 1 discriminator 3 view .LVU392
	.loc 1 584 26 is_stmt 0 discriminator 3 view .LVU393
	rsb	r2, r3, #94
	.loc 1 584 22 discriminator 3 view .LVU394
	ldr	r2, [r4, r2, lsl #2]
	.loc 1 584 17 discriminator 3 view .LVU395
	str	r2, [r5, r3, lsl #2]
	.loc 1 585 9 is_stmt 1 discriminator 3 view .LVU396
	.loc 1 585 29 is_stmt 0 discriminator 3 view .LVU397
	rsb	r1, r3, #95
	.loc 1 585 12 discriminator 3 view .LVU398
	adds	r2, r3, #1
	.loc 1 585 25 discriminator 3 view .LVU399
	ldr	r1, [r4, r1, lsl #2]
	.loc 1 585 20 discriminator 3 view .LVU400
	str	r1, [r5, r2, lsl #2]
	.loc 1 587 9 is_stmt 1 discriminator 3 view .LVU401
	.loc 1 587 30 is_stmt 0 discriminator 3 view .LVU402
	rsb	r1, r3, #62
	.loc 1 587 12 discriminator 3 view .LVU403
	add	r2, r3, #32
	.loc 1 587 26 discriminator 3 view .LVU404
	ldr	r1, [r5, r1, lsl #2]
	.loc 1 587 21 discriminator 3 view .LVU405
	str	r1, [r4, r2, lsl #2]
	.loc 1 588 9 is_stmt 1 discriminator 3 view .LVU406
	.loc 1 588 30 is_stmt 0 discriminator 3 view .LVU407
	rsb	r1, r3, #63
	.loc 1 588 12 discriminator 3 view .LVU408
	add	r2, r3, #33
	.loc 1 588 26 discriminator 3 view .LVU409
	ldr	r1, [r5, r1, lsl #2]
	.loc 1 588 21 discriminator 3 view .LVU410
	str	r1, [r4, r2, lsl #2]
	.loc 1 590 9 is_stmt 1 discriminator 3 view .LVU411
	.loc 1 590 30 is_stmt 0 discriminator 3 view .LVU412
	rsb	r1, r3, #30
	.loc 1 590 12 discriminator 3 view .LVU413
	add	r2, r3, #64
	.loc 1 590 26 discriminator 3 view .LVU414
	ldr	r1, [r4, r1, lsl #2]
	.loc 1 590 21 discriminator 3 view .LVU415
	str	r1, [r5, r2, lsl #2]
	.loc 1 591 9 is_stmt 1 discriminator 3 view .LVU416
	.loc 1 591 30 is_stmt 0 discriminator 3 view .LVU417
	rsb	r1, r3, #31
	.loc 1 591 12 discriminator 3 view .LVU418
	add	r2, r3, #65
	.loc 1 591 26 discriminator 3 view .LVU419
	ldr	r1, [r4, r1, lsl #2]
	.loc 1 591 21 discriminator 3 view .LVU420
	str	r1, [r5, r2, lsl #2]
	.loc 1 582 25 is_stmt 1 discriminator 3 view .LVU421
	.loc 1 582 27 is_stmt 0 discriminator 3 view .LVU422
	adds	r3, r3, #2
.LVL73:
	.loc 1 582 27 discriminator 3 view .LVU423
	b	.L59
.L62:
	.loc 1 593 1 view .LVU424
	pop	{r4, r5, r6, pc}
	.loc 1 593 1 view .LVU425
	.cfi_endproc
.LFE23:
	.size	des3_set3key, .-des3_set3key
	.section	.text.mbedtls_des_setkey_enc,"ax",%progbits
	.align	1
	.global	mbedtls_des_setkey_enc
	.syntax unified
	.thumb
	.thumb_func
	.fpu fpv4-sp-d16
	.type	mbedtls_des_setkey_enc, %function
mbedtls_des_setkey_enc:
.LVL74:
.LFB18:
	.loc 1 495 1 is_stmt 1 view -0
	.cfi_startproc
	@ args = 0, pretend = 0, frame = 0
	@ frame_needed = 0, uses_anonymous_args = 0
	.loc 1 495 1 is_stmt 0 view .LVU427
	push	{r3, lr}
	.cfi_def_cfa_offset 8
	.cfi_offset 3, -8
	.cfi_offset 14, -4
	.loc 1 496 5 is_stmt 1 view .LVU428
	bl	mbedtls_des_setkey
.LVL75:
	.loc 1 498 5 view .LVU429
	.loc 1 499 1 is_stmt 0 view .LVU430
	movs	r0, #0
	pop	{r3, pc}
	.cfi_endproc
.LFE18:
	.size	mbedtls_des_setkey_enc, .-mbedtls_des_setkey_enc
	.section	.text.mbedtls_des_setkey_dec,"ax",%progbits
	.align	1
	.global	mbedtls_des_setkey_dec
	.syntax unified
	.thumb
	.thumb_func
	.fpu fpv4-sp-d16
	.type	mbedtls_des_setkey_dec, %function
mbedtls_des_setkey_dec:
.LVL76:
.LFB19:
	.loc 1 505 1 is_stmt 1 view -0
	.cfi_startproc
	@ args = 0, pretend = 0, frame = 0
	@ frame_needed = 0, uses_anonymous_args = 0
	.loc 1 505 1 is_stmt 0 view .LVU432
	push	{r3, r4, r5, lr}
	.cfi_def_cfa_offset 16
	.cfi_offset 3, -16
	.cfi_offset 4, -12
	.cfi_offset 5, -8
	.cfi_offset 14, -4
	mov	r4, r0
	.loc 1 506 5 is_stmt 1 view .LVU433
	.loc 1 508 5 view .LVU434
	bl	mbedtls_des_setkey
.LVL77:
	.loc 1 510 5 view .LVU435
	.loc 1 510 12 is_stmt 0 view .LVU436
	movs	r3, #0
	.loc 1 510 5 view .LVU437
	b	.L66
.LVL78:
.L67:
	.loc 1 512 9 is_stmt 1 discriminator 3 view .LVU438
.LBB18:
	.loc 1 512 14 discriminator 3 view .LVU439
	.loc 1 512 23 is_stmt 0 discriminator 3 view .LVU440
	ldr	r1, [r4, r3, lsl #2]
.LVL79:
	.loc 1 512 42 is_stmt 1 discriminator 3 view .LVU441
	.loc 1 512 70 is_stmt 0 discriminator 3 view .LVU442
	rsb	r2, r3, #30
	.loc 1 512 66 discriminator 3 view .LVU443
	ldr	r0, [r4, r2, lsl #2]
	.loc 1 512 56 discriminator 3 view .LVU444
	str	r0, [r4, r3, lsl #2]
	.loc 1 512 77 is_stmt 1 discriminator 3 view .LVU445
	.loc 1 512 95 is_stmt 0 discriminator 3 view .LVU446
	str	r1, [r4, r2, lsl #2]
	.loc 1 512 100 is_stmt 1 discriminator 3 view .LVU447
.LVL80:
	.loc 1 512 100 is_stmt 0 discriminator 3 view .LVU448
.LBE18:
	.loc 1 512 114 is_stmt 1 discriminator 3 view .LVU449
	.loc 1 513 9 discriminator 3 view .LVU450
.LBB19:
	.loc 1 513 14 discriminator 3 view .LVU451
	.loc 1 513 38 is_stmt 0 discriminator 3 view .LVU452
	adds	r1, r3, #1
	.loc 1 513 23 discriminator 3 view .LVU453
	ldr	r0, [r4, r1, lsl #2]
.LVL81:
	.loc 1 513 45 is_stmt 1 discriminator 3 view .LVU454
	.loc 1 513 76 is_stmt 0 discriminator 3 view .LVU455
	rsb	r2, r3, #31
	.loc 1 513 72 discriminator 3 view .LVU456
	ldr	r5, [r4, r2, lsl #2]
	.loc 1 513 62 discriminator 3 view .LVU457
	str	r5, [r4, r1, lsl #2]
	.loc 1 513 83 is_stmt 1 discriminator 3 view .LVU458
	.loc 1 513 101 is_stmt 0 discriminator 3 view .LVU459
	str	r0, [r4, r2, lsl #2]
	.loc 1 513 106 is_stmt 1 discriminator 3 view .LVU460
.LVL82:
	.loc 1 513 106 is_stmt 0 discriminator 3 view .LVU461
.LBE19:
	.loc 1 513 120 is_stmt 1 discriminator 3 view .LVU462
	.loc 1 510 25 discriminator 3 view .LVU463
	.loc 1 510 27 is_stmt 0 discriminator 3 view .LVU464
	adds	r3, r3, #2
.LVL83:
.L66:
	.loc 1 510 17 is_stmt 1 discriminator 1 view .LVU465
	.loc 1 510 5 is_stmt 0 discriminator 1 view .LVU466
	cmp	r3, #15
	ble	.L67
	.loc 1 516 5 is_stmt 1 view .LVU467
	.loc 1 517 1 is_stmt 0 view .LVU468
	movs	r0, #0
	pop	{r3, r4, r5, pc}
	.loc 1 517 1 view .LVU469
	.cfi_endproc
.LFE19:
	.size	mbedtls_des_setkey_dec, .-mbedtls_des_setkey_dec
	.section	.text.mbedtls_des3_set2key_enc,"ax",%progbits
	.align	1
	.global	mbedtls_des3_set2key_enc
	.syntax unified
	.thumb
	.thumb_func
	.fpu fpv4-sp-d16
	.type	mbedtls_des3_set2key_enc, %function
mbedtls_des3_set2key_enc:
.LVL84:
.LFB21:
	.loc 1 549 1 is_stmt 1 view -0
	.cfi_startproc
	@ args = 0, pretend = 0, frame = 384
	@ frame_needed = 0, uses_anonymous_args = 0
	.loc 1 549 1 is_stmt 0 view .LVU471
	push	{lr}
	.cfi_def_cfa_offset 4
	.cfi_offset 14, -4
	sub	sp, sp, #388
	.cfi_def_cfa_offset 392
	mov	r2, r1
	.loc 1 550 5 is_stmt 1 view .LVU472
	.loc 1 552 5 view .LVU473
	mov	r1, sp
.LVL85:
	.loc 1 552 5 is_stmt 0 view .LVU474
	bl	des3_set2key
.LVL86:
	.loc 1 553 5 is_stmt 1 view .LVU475
	mov	r1, #384
	mov	r0, sp
	bl	mbedtls_platform_zeroize
.LVL87:
	.loc 1 555 5 view .LVU476
	.loc 1 556 1 is_stmt 0 view .LVU477
	movs	r0, #0
	add	sp, sp, #388
	.cfi_def_cfa_offset 4
	@ sp needed
	ldr	pc, [sp], #4
	.cfi_endproc
.LFE21:
	.size	mbedtls_des3_set2key_enc, .-mbedtls_des3_set2key_enc
	.section	.text.mbedtls_des3_set2key_dec,"ax",%progbits
	.align	1
	.global	mbedtls_des3_set2key_dec
	.syntax unified
	.thumb
	.thumb_func
	.fpu fpv4-sp-d16
	.type	mbedtls_des3_set2key_dec, %function
mbedtls_des3_set2key_dec:
.LVL88:
.LFB22:
	.loc 1 563 1 is_stmt 1 view -0
	.cfi_startproc
	@ args = 0, pretend = 0, frame = 384
	@ frame_needed = 0, uses_anonymous_args = 0
	.loc 1 563 1 is_stmt 0 view .LVU479
	push	{lr}
	.cfi_def_cfa_offset 4
	.cfi_offset 14, -4
	sub	sp, sp, #388
	.cfi_def_cfa_offset 392
	mov	r2, r1
	.loc 1 564 5 is_stmt 1 view .LVU480
	.loc 1 566 5 view .LVU481
	mov	r1, r0
.LVL89:
	.loc 1 566 5 is_stmt 0 view .LVU482
	mov	r0, sp
.LVL90:
	.loc 1 566 5 view .LVU483
	bl	des3_set2key
.LVL91:
	.loc 1 567 5 is_stmt 1 view .LVU484
	mov	r1, #384
	mov	r0, sp
	bl	mbedtls_platform_zeroize
.LVL92:
	.loc 1 569 5 view .LVU485
	.loc 1 570 1 is_stmt 0 view .LVU486
	movs	r0, #0
	add	sp, sp, #388
	.cfi_def_cfa_offset 4
	@ sp needed
	ldr	pc, [sp], #4
	.cfi_endproc
.LFE22:
	.size	mbedtls_des3_set2key_dec, .-mbedtls_des3_set2key_dec
	.section	.text.mbedtls_des3_set3key_enc,"ax",%progbits
	.align	1
	.global	mbedtls_des3_set3key_enc
	.syntax unified
	.thumb
	.thumb_func
	.fpu fpv4-sp-d16
	.type	mbedtls_des3_set3key_enc, %function
mbedtls_des3_set3key_enc:
.LVL93:
.LFB24:
	.loc 1 600 1 is_stmt 1 view -0
	.cfi_startproc
	@ args = 0, pretend = 0, frame = 384
	@ frame_needed = 0, uses_anonymous_args = 0
	.loc 1 600 1 is_stmt 0 view .LVU488
	push	{lr}
	.cfi_def_cfa_offset 4
	.cfi_offset 14, -4
	sub	sp, sp, #388
	.cfi_def_cfa_offset 392
	mov	r2, r1
	.loc 1 601 5 is_stmt 1 view .LVU489
	.loc 1 603 5 view .LVU490
	mov	r1, sp
.LVL94:
	.loc 1 603 5 is_stmt 0 view .LVU491
	bl	des3_set3key
.LVL95:
	.loc 1 604 5 is_stmt 1 view .LVU492
	mov	r1, #384
	mov	r0, sp
	bl	mbedtls_platform_zeroize
.LVL96:
	.loc 1 606 5 view .LVU493
	.loc 1 607 1 is_stmt 0 view .LVU494
	movs	r0, #0
	add	sp, sp, #388
	.cfi_def_cfa_offset 4
	@ sp needed
	ldr	pc, [sp], #4
	.cfi_endproc
.LFE24:
	.size	mbedtls_des3_set3key_enc, .-mbedtls_des3_set3key_enc
	.section	.text.mbedtls_des3_set3key_dec,"ax",%progbits
	.align	1
	.global	mbedtls_des3_set3key_dec
	.syntax unified
	.thumb
	.thumb_func
	.fpu fpv4-sp-d16
	.type	mbedtls_des3_set3key_dec, %function
mbedtls_des3_set3key_dec:
.LVL97:
.LFB25:
	.loc 1 614 1 is_stmt 1 view -0
	.cfi_startproc
	@ args = 0, pretend = 0, frame = 384
	@ frame_needed = 0, uses_anonymous_args = 0
	.loc 1 614 1 is_stmt 0 view .LVU496
	push	{lr}
	.cfi_def_cfa_offset 4
	.cfi_offset 14, -4
	sub	sp, sp, #388
	.cfi_def_cfa_offset 392
	mov	r2, r1
	.loc 1 615 5 is_stmt 1 view .LVU497
	.loc 1 617 5 view .LVU498
	mov	r1, r0
.LVL98:
	.loc 1 617 5 is_stmt 0 view .LVU499
	mov	r0, sp
.LVL99:
	.loc 1 617 5 view .LVU500
	bl	des3_set3key
.LVL100:
	.loc 1 618 5 is_stmt 1 view .LVU501
	mov	r1, #384
	mov	r0, sp
	bl	mbedtls_platform_zeroize
.LVL101:
	.loc 1 620 5 view .LVU502
	.loc 1 621 1 is_stmt 0 view .LVU503
	movs	r0, #0
	add	sp, sp, #388
	.cfi_def_cfa_offset 4
	@ sp needed
	ldr	pc, [sp], #4
	.cfi_endproc
.LFE25:
	.size	mbedtls_des3_set3key_dec, .-mbedtls_des3_set3key_dec
	.section	.text.mbedtls_des_crypt_ecb,"ax",%progbits
	.align	1
	.global	mbedtls_des_crypt_ecb
	.syntax unified
	.thumb
	.thumb_func
	.fpu fpv4-sp-d16
	.type	mbedtls_des_crypt_ecb, %function
mbedtls_des_crypt_ecb:
.LVL102:
.LFB26:
	.loc 1 630 1 is_stmt 1 view -0
	.cfi_startproc
	@ args = 0, pretend = 0, frame = 8
	@ frame_needed = 0, uses_anonymous_args = 0
	.loc 1 630 1 is_stmt 0 view .LVU505
	push	{r4, r5, r6, r7, r8, r9, r10, fp, lr}
	.cfi_def_cfa_offset 36
	.cfi_offset 4, -36
	.cfi_offset 5, -32
	.cfi_offset 6, -28
	.cfi_offset 7, -24
	.cfi_offset 8, -20
	.cfi_offset 9, -16
	.cfi_offset 10, -12
	.cfi_offset 11, -8
	.cfi_offset 14, -4
	sub	sp, sp, #12
	.cfi_def_cfa_offset 48
	str	r2, [sp, #4]
	.loc 1 631 5 is_stmt 1 view .LVU506
	.loc 1 632 5 view .LVU507
	.loc 1 634 5 view .LVU508
.LVL103:
	.loc 1 636 7 view .LVU509
	.loc 1 636 33 is_stmt 0 view .LVU510
	ldrb	r2, [r1]	@ zero_extendqisi2
.LVL104:
	.loc 1 636 70 view .LVU511
	ldrb	r3, [r1, #1]	@ zero_extendqisi2
	.loc 1 636 80 view .LVU512
	lsls	r3, r3, #16
	.loc 1 636 48 view .LVU513
	orr	r3, r3, r2, lsl #24
	.loc 1 636 110 view .LVU514
	ldrb	r2, [r1, #2]	@ zero_extendqisi2
	.loc 1 636 88 view .LVU515
	orr	r3, r3, r2, lsl #8
	.loc 1 636 149 view .LVU516
	ldrb	r2, [r1, #3]	@ zero_extendqisi2
	.loc 1 636 11 view .LVU517
	orrs	r3, r3, r2
.LVL105:
	.loc 1 636 163 is_stmt 1 view .LVU518
	.loc 1 637 7 view .LVU519
	.loc 1 637 33 is_stmt 0 view .LVU520
	ldrb	r4, [r1, #4]	@ zero_extendqisi2
	.loc 1 637 70 view .LVU521
	ldrb	r2, [r1, #5]	@ zero_extendqisi2
	.loc 1 637 80 view .LVU522
	lsls	r2, r2, #16
	.loc 1 637 48 view .LVU523
	orr	r2, r2, r4, lsl #24
	.loc 1 637 110 view .LVU524
	ldrb	r4, [r1, #6]	@ zero_extendqisi2
	.loc 1 637 88 view .LVU525
	orr	r2, r2, r4, lsl #8
	.loc 1 637 149 view .LVU526
	ldrb	r1, [r1, #7]	@ zero_extendqisi2
.LVL106:
	.loc 1 637 11 view .LVU527
	orrs	r2, r2, r1
.LVL107:
	.loc 1 637 163 is_stmt 1 view .LVU528
	.loc 1 639 5 view .LVU529
	.loc 1 639 10 view .LVU530
	.loc 1 639 26 is_stmt 0 view .LVU531
	eor	r1, r2, r3, lsr #4
	.loc 1 639 12 view .LVU532
	and	r1, r1, #252645135
.LVL108:
	.loc 1 639 47 is_stmt 1 view .LVU533
	.loc 1 639 51 is_stmt 0 view .LVU534
	eors	r2, r2, r1
.LVL109:
	.loc 1 639 57 is_stmt 1 view .LVU535
	.loc 1 639 61 is_stmt 0 view .LVU536
	eor	r3, r3, r1, lsl #4
.LVL110:
	.loc 1 639 74 is_stmt 1 view .LVU537
	.loc 1 639 91 is_stmt 0 view .LVU538
	eor	r1, r2, r3, lsr #16
.LVL111:
	.loc 1 639 76 view .LVU539
	uxth	r1, r1
.LVL112:
	.loc 1 639 112 is_stmt 1 view .LVU540
	.loc 1 639 116 is_stmt 0 view .LVU541
	eors	r2, r2, r1
.LVL113:
	.loc 1 639 122 is_stmt 1 view .LVU542
	.loc 1 639 126 is_stmt 0 view .LVU543
	eor	r3, r3, r1, lsl #16
.LVL114:
	.loc 1 639 140 is_stmt 1 view .LVU544
	.loc 1 639 156 is_stmt 0 view .LVU545
	eor	r1, r3, r2, lsr #2
.LVL115:
	.loc 1 639 142 view .LVU546
	and	r1, r1, #858993459
.LVL116:
	.loc 1 639 177 is_stmt 1 view .LVU547
	.loc 1 639 181 is_stmt 0 view .LVU548
	eors	r3, r3, r1
.LVL117:
	.loc 1 639 187 is_stmt 1 view .LVU549
	.loc 1 639 191 is_stmt 0 view .LVU550
	eor	r2, r2, r1, lsl #2
.LVL118:
	.loc 1 639 204 is_stmt 1 view .LVU551
	.loc 1 639 220 is_stmt 0 view .LVU552
	eor	r1, r3, r2, lsr #8
.LVL119:
	.loc 1 639 206 view .LVU553
	and	r1, r1, #16711935
.LVL120:
	.loc 1 639 241 is_stmt 1 view .LVU554
	.loc 1 639 245 is_stmt 0 view .LVU555
	eors	r3, r3, r1
.LVL121:
	.loc 1 639 251 is_stmt 1 view .LVU556
	.loc 1 639 255 is_stmt 0 view .LVU557
	eor	r2, r2, r1, lsl #8
.LVL122:
	.loc 1 639 268 is_stmt 1 view .LVU558
	.loc 1 639 315 view .LVU559
	.loc 1 639 324 is_stmt 0 view .LVU560
	eor	r1, r3, r2, ror #31
.LVL123:
	.loc 1 639 317 view .LVU561
	and	r1, r1, #-1431655766
.LVL124:
	.loc 1 639 345 is_stmt 1 view .LVU562
	.loc 1 639 349 is_stmt 0 view .LVU563
	eor	r2, r1, r2, ror #31
.LVL125:
	.loc 1 639 355 is_stmt 1 view .LVU564
	.loc 1 639 359 is_stmt 0 view .LVU565
	eors	r3, r3, r1
.LVL126:
	.loc 1 639 365 is_stmt 1 view .LVU566
	.loc 1 639 369 is_stmt 0 view .LVU567
	ror	r3, r3, #31
.LVL127:
	.loc 1 639 419 is_stmt 1 view .LVU568
	.loc 1 641 5 view .LVU569
	.loc 1 641 12 is_stmt 0 view .LVU570
	movs	r4, #0
	.loc 1 641 5 view .LVU571
	b	.L78
.LVL128:
.L79:
	.loc 1 643 9 is_stmt 1 discriminator 3 view .LVU572
	.loc 1 643 14 discriminator 3 view .LVU573
	.loc 1 643 18 is_stmt 0 discriminator 3 view .LVU574
	ldr	r1, [r0]
	.loc 1 643 16 discriminator 3 view .LVU575
	eors	r1, r1, r2
.LVL129:
	.loc 1 643 31 is_stmt 1 discriminator 3 view .LVU576
	.loc 1 643 48 is_stmt 0 discriminator 3 view .LVU577
	and	r5, r1, #63
	.loc 1 643 41 discriminator 3 view .LVU578
	ldr	r10, .L81+12
	ldr	r5, [r10, r5, lsl #2]
	.loc 1 643 73 discriminator 3 view .LVU579
	ubfx	r6, r1, #8, #6
	.loc 1 643 62 discriminator 3 view .LVU580
	ldr	r9, .L81+16
	ldr	r6, [r9, r6, lsl #2]
	.loc 1 643 57 discriminator 3 view .LVU581
	eors	r5, r5, r6
	.loc 1 643 99 discriminator 3 view .LVU582
	ubfx	r6, r1, #16, #6
	.loc 1 643 87 discriminator 3 view .LVU583
	ldr	r8, .L81+20
	ldr	r6, [r8, r6, lsl #2]
	.loc 1 643 82 discriminator 3 view .LVU584
	eors	r5, r5, r6
	.loc 1 643 125 discriminator 3 view .LVU585
	ubfx	r1, r1, #24, #6
.LVL130:
	.loc 1 643 113 discriminator 3 view .LVU586
	ldr	lr, .L81+24
	ldr	r1, [lr, r1, lsl #2]
	.loc 1 643 108 discriminator 3 view .LVU587
	eors	r1, r1, r5
	.loc 1 643 35 discriminator 3 view .LVU588
	eors	r1, r1, r3
.LVL131:
	.loc 1 643 135 is_stmt 1 discriminator 3 view .LVU589
	.loc 1 643 139 is_stmt 0 discriminator 3 view .LVU590
	ldr	r5, [r0, #4]
	.loc 1 643 137 discriminator 3 view .LVU591
	eor	r5, r5, r2, ror #4
.LVL132:
	.loc 1 643 175 is_stmt 1 discriminator 3 view .LVU592
	.loc 1 643 192 is_stmt 0 discriminator 3 view .LVU593
	and	r3, r5, #63
	.loc 1 643 185 discriminator 3 view .LVU594
	ldr	ip, .L81+28
	ldr	r6, [ip, r3, lsl #2]
	.loc 1 643 217 discriminator 3 view .LVU595
	ubfx	r3, r5, #8, #6
	.loc 1 643 206 discriminator 3 view .LVU596
	ldr	r7, .L81
	ldr	r3, [r7, r3, lsl #2]
	.loc 1 643 201 discriminator 3 view .LVU597
	eors	r3, r3, r6
	.loc 1 643 243 discriminator 3 view .LVU598
	ubfx	fp, r5, #16, #6
	.loc 1 643 231 discriminator 3 view .LVU599
	ldr	r6, .L81+4
	ldr	fp, [r6, fp, lsl #2]
	.loc 1 643 226 discriminator 3 view .LVU600
	eor	r3, r3, fp
	.loc 1 643 269 discriminator 3 view .LVU601
	ubfx	fp, r5, #24, #6
	.loc 1 643 257 discriminator 3 view .LVU602
	ldr	r5, .L81+8
.LVL133:
	.loc 1 643 257 discriminator 3 view .LVU603
	ldr	fp, [r5, fp, lsl #2]
	.loc 1 643 252 discriminator 3 view .LVU604
	eor	r3, r3, fp
	.loc 1 643 179 discriminator 3 view .LVU605
	eors	r3, r3, r1
.LVL134:
	.loc 1 643 286 is_stmt 1 discriminator 3 view .LVU606
	.loc 1 644 9 discriminator 3 view .LVU607
	.loc 1 644 14 discriminator 3 view .LVU608
	.loc 1 644 18 is_stmt 0 discriminator 3 view .LVU609
	ldr	r1, [r0, #8]
	.loc 1 644 16 discriminator 3 view .LVU610
	eor	fp, r1, r3
.LVL135:
	.loc 1 644 31 is_stmt 1 discriminator 3 view .LVU611
	.loc 1 644 48 is_stmt 0 discriminator 3 view .LVU612
	and	r1, fp, #63
	.loc 1 644 41 discriminator 3 view .LVU613
	ldr	r1, [r10, r1, lsl #2]
	.loc 1 644 73 discriminator 3 view .LVU614
	ubfx	r10, fp, #8, #6
	.loc 1 644 62 discriminator 3 view .LVU615
	ldr	r9, [r9, r10, lsl #2]
	.loc 1 644 57 discriminator 3 view .LVU616
	eor	r1, r1, r9
	.loc 1 644 99 discriminator 3 view .LVU617
	ubfx	r9, fp, #16, #6
	.loc 1 644 87 discriminator 3 view .LVU618
	ldr	r8, [r8, r9, lsl #2]
	.loc 1 644 82 discriminator 3 view .LVU619
	eor	r1, r1, r8
	.loc 1 644 125 discriminator 3 view .LVU620
	ubfx	fp, fp, #24, #6
.LVL136:
	.loc 1 644 113 discriminator 3 view .LVU621
	ldr	lr, [lr, fp, lsl #2]
	.loc 1 644 108 discriminator 3 view .LVU622
	eor	r1, r1, lr
	.loc 1 644 35 discriminator 3 view .LVU623
	eors	r2, r2, r1
.LVL137:
	.loc 1 644 135 is_stmt 1 discriminator 3 view .LVU624
	.loc 1 644 139 is_stmt 0 discriminator 3 view .LVU625
	ldr	r1, [r0, #12]
	.loc 1 644 137 discriminator 3 view .LVU626
	eor	lr, r1, r3, ror #4
.LVL138:
	.loc 1 644 175 is_stmt 1 discriminator 3 view .LVU627
	.loc 1 644 192 is_stmt 0 discriminator 3 view .LVU628
	and	r1, lr, #63
	.loc 1 644 185 discriminator 3 view .LVU629
	ldr	r1, [ip, r1, lsl #2]
	.loc 1 644 217 discriminator 3 view .LVU630
	ubfx	ip, lr, #8, #6
	.loc 1 644 206 discriminator 3 view .LVU631
	ldr	r7, [r7, ip, lsl #2]
	.loc 1 644 201 discriminator 3 view .LVU632
	eors	r1, r1, r7
	.loc 1 644 243 discriminator 3 view .LVU633
	ubfx	r7, lr, #16, #6
	.loc 1 644 231 discriminator 3 view .LVU634
	ldr	r6, [r6, r7, lsl #2]
	.loc 1 644 226 discriminator 3 view .LVU635
	eors	r1, r1, r6
	.loc 1 644 269 discriminator 3 view .LVU636
	ubfx	r6, lr, #24, #6
	.loc 1 644 257 discriminator 3 view .LVU637
	ldr	r5, [r5, r6, lsl #2]
	.loc 1 644 252 discriminator 3 view .LVU638
	eors	r1, r1, r5
	.loc 1 644 179 discriminator 3 view .LVU639
	eors	r2, r2, r1
.LVL139:
	.loc 1 644 286 is_stmt 1 discriminator 3 view .LVU640
	.loc 1 641 24 discriminator 3 view .LVU641
	.loc 1 641 25 is_stmt 0 discriminator 3 view .LVU642
	adds	r4, r4, #1
.LVL140:
	.loc 1 644 142 discriminator 3 view .LVU643
	adds	r0, r0, #16
.LVL141:
.L78:
	.loc 1 641 17 is_stmt 1 discriminator 1 view .LVU644
	.loc 1 641 5 is_stmt 0 discriminator 1 view .LVU645
	cmp	r4, #7
	ble	.L79
	.loc 1 647 5 is_stmt 1 view .LVU646
	.loc 1 647 10 view .LVU647
.LVL142:
	.loc 1 647 57 view .LVU648
	.loc 1 647 66 is_stmt 0 view .LVU649
	eor	r1, r3, r2, ror #1
	.loc 1 647 59 view .LVU650
	and	r1, r1, #-1431655766
.LVL143:
	.loc 1 647 87 is_stmt 1 view .LVU651
	.loc 1 647 91 is_stmt 0 view .LVU652
	eor	r2, r1, r2, ror #1
.LVL144:
	.loc 1 647 97 is_stmt 1 view .LVU653
	.loc 1 647 101 is_stmt 0 view .LVU654
	eors	r3, r3, r1
.LVL145:
	.loc 1 647 107 is_stmt 1 view .LVU655
	.loc 1 647 111 is_stmt 0 view .LVU656
	ror	r3, r3, #1
.LVL146:
	.loc 1 647 154 is_stmt 1 view .LVU657
	.loc 1 647 170 is_stmt 0 view .LVU658
	eor	r1, r2, r3, lsr #8
.LVL147:
	.loc 1 647 156 view .LVU659
	and	r1, r1, #16711935
.LVL148:
	.loc 1 647 191 is_stmt 1 view .LVU660
	.loc 1 647 195 is_stmt 0 view .LVU661
	eors	r2, r2, r1
.LVL149:
	.loc 1 647 201 is_stmt 1 view .LVU662
	.loc 1 647 205 is_stmt 0 view .LVU663
	eor	r3, r3, r1, lsl #8
.LVL150:
	.loc 1 647 218 is_stmt 1 view .LVU664
	.loc 1 647 234 is_stmt 0 view .LVU665
	eor	r1, r2, r3, lsr #2
.LVL151:
	.loc 1 647 220 view .LVU666
	and	r1, r1, #858993459
.LVL152:
	.loc 1 647 255 is_stmt 1 view .LVU667
	.loc 1 647 259 is_stmt 0 view .LVU668
	eors	r2, r2, r1
.LVL153:
	.loc 1 647 265 is_stmt 1 view .LVU669
	.loc 1 647 269 is_stmt 0 view .LVU670
	eor	r3, r3, r1, lsl #2
.LVL154:
	.loc 1 647 282 is_stmt 1 view .LVU671
	.loc 1 647 299 is_stmt 0 view .LVU672
	eor	r1, r3, r2, lsr #16
.LVL155:
	.loc 1 647 284 view .LVU673
	uxth	r1, r1
.LVL156:
	.loc 1 647 320 is_stmt 1 view .LVU674
	.loc 1 647 324 is_stmt 0 view .LVU675
	eors	r3, r3, r1
.LVL157:
	.loc 1 647 330 is_stmt 1 view .LVU676
	.loc 1 647 334 is_stmt 0 view .LVU677
	eor	r2, r2, r1, lsl #16
.LVL158:
	.loc 1 647 348 is_stmt 1 view .LVU678
	.loc 1 647 364 is_stmt 0 view .LVU679
	eor	r1, r3, r2, lsr #4
.LVL159:
	.loc 1 647 350 view .LVU680
	and	r1, r1, #252645135
.LVL160:
	.loc 1 647 385 is_stmt 1 view .LVU681
	.loc 1 647 389 is_stmt 0 view .LVU682
	eors	r3, r3, r1
.LVL161:
	.loc 1 647 395 is_stmt 1 view .LVU683
	.loc 1 647 399 is_stmt 0 view .LVU684
	eor	r2, r2, r1, lsl #4
.LVL162:
	.loc 1 647 419 is_stmt 1 view .LVU685
	.loc 1 649 7 view .LVU686
	.loc 1 649 24 is_stmt 0 view .LVU687
	lsrs	r1, r2, #24
.LVL163:
	.loc 1 649 22 view .LVU688
	ldr	r0, [sp, #4]
.LVL164:
	.loc 1 649 22 view .LVU689
	strb	r1, [r0]
	.loc 1 649 55 is_stmt 1 view .LVU690
	.loc 1 649 75 is_stmt 0 view .LVU691
	ubfx	r1, r2, #16, #8
	.loc 1 649 73 view .LVU692
	strb	r1, [r0, #1]
	.loc 1 649 106 is_stmt 1 view .LVU693
	.loc 1 649 126 is_stmt 0 view .LVU694
	ubfx	r1, r2, #8, #8
	.loc 1 649 124 view .LVU695
	strb	r1, [r0, #2]
	.loc 1 649 156 is_stmt 1 view .LVU696
	.loc 1 649 174 is_stmt 0 view .LVU697
	strb	r2, [r0, #3]
	.loc 1 649 202 is_stmt 1 view .LVU698
	.loc 1 650 7 view .LVU699
	.loc 1 650 24 is_stmt 0 view .LVU700
	lsrs	r2, r3, #24
.LVL165:
	.loc 1 650 22 view .LVU701
	strb	r2, [r0, #4]
	.loc 1 650 55 is_stmt 1 view .LVU702
	.loc 1 650 75 is_stmt 0 view .LVU703
	ubfx	r2, r3, #16, #8
	.loc 1 650 73 view .LVU704
	strb	r2, [r0, #5]
	.loc 1 650 106 is_stmt 1 view .LVU705
	.loc 1 650 126 is_stmt 0 view .LVU706
	ubfx	r2, r3, #8, #8
	.loc 1 650 124 view .LVU707
	strb	r2, [r0, #6]
	.loc 1 650 156 is_stmt 1 view .LVU708
	.loc 1 650 174 is_stmt 0 view .LVU709
	strb	r3, [r0, #7]
	.loc 1 650 202 is_stmt 1 view .LVU710
	.loc 1 652 5 view .LVU711
	.loc 1 653 1 is_stmt 0 view .LVU712
	movs	r0, #0
	add	sp, sp, #12
	.cfi_def_cfa_offset 36
	@ sp needed
	pop	{r4, r5, r6, r7, r8, r9, r10, fp, pc}
.LVL166:
.L82:
	.loc 1 653 1 view .LVU713
	.align	2
.L81:
	.word	.LANCHOR9
	.word	.LANCHOR10
	.word	.LANCHOR11
	.word	.LANCHOR4
	.word	.LANCHOR5
	.word	.LANCHOR6
	.word	.LANCHOR7
	.word	.LANCHOR8
	.cfi_endproc
.LFE26:
	.size	mbedtls_des_crypt_ecb, .-mbedtls_des_crypt_ecb
	.section	.text.mbedtls_des_crypt_cbc,"ax",%progbits
	.align	1
	.global	mbedtls_des_crypt_cbc
	.syntax unified
	.thumb
	.thumb_func
	.fpu fpv4-sp-d16
	.type	mbedtls_des_crypt_cbc, %function
mbedtls_des_crypt_cbc:
.LVL167:
.LFB27:
	.loc 1 666 1 is_stmt 1 view -0
	.cfi_startproc
	@ args = 8, pretend = 0, frame = 8
	@ frame_needed = 0, uses_anonymous_args = 0
	.loc 1 666 1 is_stmt 0 view .LVU715
	push	{r4, r5, r6, r7, r8, r9, lr}
	.cfi_def_cfa_offset 28
	.cfi_offset 4, -28
	.cfi_offset 5, -24
	.cfi_offset 6, -20
	.cfi_offset 7, -16
	.cfi_offset 8, -12
	.cfi_offset 9, -8
	.cfi_offset 14, -4
	sub	sp, sp, #12
	.cfi_def_cfa_offset 40
	ldr	r7, [sp, #40]
	ldr	r5, [sp, #44]
	.loc 1 667 5 is_stmt 1 view .LVU716
	.loc 1 668 5 view .LVU717
	.loc 1 670 5 view .LVU718
	.loc 1 670 7 is_stmt 0 view .LVU719
	tst	r2, #7
	bne	.L92
	mov	r9, r0
	mov	r8, r2
	mov	r6, r3
	.loc 1 673 5 is_stmt 1 view .LVU720
	.loc 1 673 7 is_stmt 0 view .LVU721
	cmp	r1, #1
	bne	.L86
	b	.L85
.LVL168:
.L87:
	.loc 1 678 17 is_stmt 1 discriminator 3 view .LVU722
	.loc 1 678 51 is_stmt 0 discriminator 3 view .LVU723
	ldrb	r2, [r7, r3]	@ zero_extendqisi2
	.loc 1 678 59 discriminator 3 view .LVU724
	ldrb	r1, [r6, r3]	@ zero_extendqisi2
	.loc 1 678 29 discriminator 3 view .LVU725
	eors	r2, r2, r1
	.loc 1 678 27 discriminator 3 view .LVU726
	strb	r2, [r5, r3]
	.loc 1 677 32 is_stmt 1 discriminator 3 view .LVU727
	.loc 1 677 33 is_stmt 0 discriminator 3 view .LVU728
	adds	r3, r3, #1
.LVL169:
.L88:
	.loc 1 677 25 is_stmt 1 discriminator 1 view .LVU729
	.loc 1 677 13 is_stmt 0 discriminator 1 view .LVU730
	cmp	r3, #7
	ble	.L87
	.loc 1 680 13 is_stmt 1 view .LVU731
	mov	r2, r5
	mov	r1, r5
	mov	r0, r9
	bl	mbedtls_des_crypt_ecb
.LVL170:
	.loc 1 681 12 view .LVU732
.LBB20:
.LBI20:
	.loc 2 83 216 view .LVU733
.LBB21:
	.loc 2 83 292 view .LVU734
	.loc 2 83 299 is_stmt 0 view .LVU735
	ldr	r2, [r5]	@ unaligned
	ldr	r3, [r5, #4]	@ unaligned
	str	r2, [r6]	@ unaligned
	str	r3, [r6, #4]	@ unaligned
.LVL171:
	.loc 2 83 299 view .LVU736
.LBE21:
.LBE20:
	.loc 1 683 13 is_stmt 1 view .LVU737
	.loc 1 683 19 is_stmt 0 view .LVU738
	adds	r7, r7, #8
.LVL172:
	.loc 1 684 13 is_stmt 1 view .LVU739
	.loc 1 684 20 is_stmt 0 view .LVU740
	adds	r5, r5, #8
.LVL173:
	.loc 1 685 13 is_stmt 1 view .LVU741
	.loc 1 685 20 is_stmt 0 view .LVU742
	sub	r8, r8, #8
.LVL174:
.L85:
	.loc 1 675 14 is_stmt 1 view .LVU743
	cmp	r8, #0
	beq	.L95
	.loc 1 677 20 is_stmt 0 view .LVU744
	movs	r3, #0
	b	.L88
.L95:
	.loc 1 706 11 view .LVU745
	movs	r0, #0
	b	.L83
.LVL175:
.L90:
	.loc 1 696 17 is_stmt 1 discriminator 3 view .LVU746
	.loc 1 696 52 is_stmt 0 discriminator 3 view .LVU747
	ldrb	r4, [r5, r1]	@ zero_extendqisi2
	.loc 1 696 60 discriminator 3 view .LVU748
	ldrb	r3, [r6, r1]	@ zero_extendqisi2
	.loc 1 696 29 discriminator 3 view .LVU749
	eors	r4, r4, r3
	.loc 1 696 27 discriminator 3 view .LVU750
	strb	r4, [r5, r1]
	.loc 1 695 32 is_stmt 1 discriminator 3 view .LVU751
	.loc 1 695 33 is_stmt 0 discriminator 3 view .LVU752
	adds	r1, r1, #1
.LVL176:
.L89:
	.loc 1 695 25 is_stmt 1 discriminator 1 view .LVU753
	.loc 1 695 13 is_stmt 0 discriminator 1 view .LVU754
	cmp	r1, #7
	ble	.L90
	.loc 1 698 12 is_stmt 1 view .LVU755
.LVL177:
.LBB22:
.LBI22:
	.loc 2 83 216 view .LVU756
.LBB23:
	.loc 2 83 292 view .LVU757
	.loc 2 83 299 is_stmt 0 view .LVU758
	mov	r3, sp
	ldmia	r3!, {r0, r1}
.LVL178:
	.loc 2 83 299 view .LVU759
	str	r0, [r6]	@ unaligned
	str	r1, [r6, #4]	@ unaligned
.LVL179:
	.loc 2 83 299 view .LVU760
.LBE23:
.LBE22:
	.loc 1 700 13 is_stmt 1 view .LVU761
	.loc 1 700 19 is_stmt 0 view .LVU762
	adds	r7, r7, #8
.LVL180:
	.loc 1 701 13 is_stmt 1 view .LVU763
	.loc 1 701 20 is_stmt 0 view .LVU764
	adds	r5, r5, #8
.LVL181:
	.loc 1 702 13 is_stmt 1 view .LVU765
	.loc 1 702 20 is_stmt 0 view .LVU766
	sub	r8, r8, #8
.LVL182:
.L86:
	.loc 1 690 14 is_stmt 1 view .LVU767
	cmp	r8, #0
	beq	.L96
	.loc 1 692 12 discriminator 1 view .LVU768
	mov	r3, sp
	ldr	r0, [r7]	@ unaligned
	ldr	r1, [r7, #4]	@ unaligned
	stmia	r3!, {r0, r1}
	.loc 1 693 13 discriminator 1 view .LVU769
	mov	r2, r5
	mov	r1, r7
	mov	r0, r9
	bl	mbedtls_des_crypt_ecb
.LVL183:
	.loc 1 695 13 discriminator 1 view .LVU770
	.loc 1 695 20 is_stmt 0 discriminator 1 view .LVU771
	movs	r1, #0
	.loc 1 695 13 discriminator 1 view .LVU772
	b	.L89
.LVL184:
.L96:
	.loc 1 706 11 view .LVU773
	movs	r0, #0
.LVL185:
.L83:
	.loc 1 707 1 view .LVU774
	add	sp, sp, #12
	.cfi_remember_state
	.cfi_def_cfa_offset 28
	@ sp needed
	pop	{r4, r5, r6, r7, r8, r9, pc}
.LVL186:
.L92:
	.cfi_restore_state
	.loc 1 671 15 view .LVU775
	mvn	r0, #49
.LVL187:
	.loc 1 671 15 view .LVU776
	b	.L83
	.cfi_endproc
.LFE27:
	.size	mbedtls_des_crypt_cbc, .-mbedtls_des_crypt_cbc
	.section	.text.mbedtls_des3_crypt_ecb,"ax",%progbits
	.align	1
	.global	mbedtls_des3_crypt_ecb
	.syntax unified
	.thumb
	.thumb_func
	.fpu fpv4-sp-d16
	.type	mbedtls_des3_crypt_ecb, %function
mbedtls_des3_crypt_ecb:
.LVL188:
.LFB28:
	.loc 1 717 1 is_stmt 1 view -0
	.cfi_startproc
	@ args = 0, pretend = 0, frame = 8
	@ frame_needed = 0, uses_anonymous_args = 0
	.loc 1 717 1 is_stmt 0 view .LVU778
	push	{r4, r5, r6, r7, r8, r9, r10, fp, lr}
	.cfi_def_cfa_offset 36
	.cfi_offset 4, -36
	.cfi_offset 5, -32
	.cfi_offset 6, -28
	.cfi_offset 7, -24
	.cfi_offset 8, -20
	.cfi_offset 9, -16
	.cfi_offset 10, -12
	.cfi_offset 11, -8
	.cfi_offset 14, -4
	sub	sp, sp, #12
	.cfi_def_cfa_offset 48
	str	r2, [sp, #4]
	.loc 1 718 5 is_stmt 1 view .LVU779
	.loc 1 719 5 view .LVU780
	.loc 1 721 5 view .LVU781
.LVL189:
	.loc 1 723 7 view .LVU782
	.loc 1 723 33 is_stmt 0 view .LVU783
	ldrb	r2, [r1]	@ zero_extendqisi2
.LVL190:
	.loc 1 723 70 view .LVU784
	ldrb	r3, [r1, #1]	@ zero_extendqisi2
	.loc 1 723 80 view .LVU785
	lsls	r3, r3, #16
	.loc 1 723 48 view .LVU786
	orr	r3, r3, r2, lsl #24
	.loc 1 723 110 view .LVU787
	ldrb	r2, [r1, #2]	@ zero_extendqisi2
	.loc 1 723 88 view .LVU788
	orr	r3, r3, r2, lsl #8
	.loc 1 723 149 view .LVU789
	ldrb	r2, [r1, #3]	@ zero_extendqisi2
	.loc 1 723 11 view .LVU790
	orrs	r3, r3, r2
.LVL191:
	.loc 1 723 163 is_stmt 1 view .LVU791
	.loc 1 724 7 view .LVU792
	.loc 1 724 33 is_stmt 0 view .LVU793
	ldrb	r4, [r1, #4]	@ zero_extendqisi2
	.loc 1 724 70 view .LVU794
	ldrb	r2, [r1, #5]	@ zero_extendqisi2
	.loc 1 724 80 view .LVU795
	lsls	r2, r2, #16
	.loc 1 724 48 view .LVU796
	orr	r2, r2, r4, lsl #24
	.loc 1 724 110 view .LVU797
	ldrb	r4, [r1, #6]	@ zero_extendqisi2
	.loc 1 724 88 view .LVU798
	orr	r2, r2, r4, lsl #8
	.loc 1 724 149 view .LVU799
	ldrb	r1, [r1, #7]	@ zero_extendqisi2
.LVL192:
	.loc 1 724 11 view .LVU800
	orrs	r2, r2, r1
.LVL193:
	.loc 1 724 163 is_stmt 1 view .LVU801
	.loc 1 726 5 view .LVU802
	.loc 1 726 10 view .LVU803
	.loc 1 726 26 is_stmt 0 view .LVU804
	eor	r1, r2, r3, lsr #4
	.loc 1 726 12 view .LVU805
	and	r1, r1, #252645135
.LVL194:
	.loc 1 726 47 is_stmt 1 view .LVU806
	.loc 1 726 51 is_stmt 0 view .LVU807
	eors	r2, r2, r1
.LVL195:
	.loc 1 726 57 is_stmt 1 view .LVU808
	.loc 1 726 61 is_stmt 0 view .LVU809
	eor	r3, r3, r1, lsl #4
.LVL196:
	.loc 1 726 74 is_stmt 1 view .LVU810
	.loc 1 726 91 is_stmt 0 view .LVU811
	eor	r1, r2, r3, lsr #16
.LVL197:
	.loc 1 726 76 view .LVU812
	uxth	r1, r1
.LVL198:
	.loc 1 726 112 is_stmt 1 view .LVU813
	.loc 1 726 116 is_stmt 0 view .LVU814
	eors	r2, r2, r1
.LVL199:
	.loc 1 726 122 is_stmt 1 view .LVU815
	.loc 1 726 126 is_stmt 0 view .LVU816
	eor	r3, r3, r1, lsl #16
.LVL200:
	.loc 1 726 140 is_stmt 1 view .LVU817
	.loc 1 726 156 is_stmt 0 view .LVU818
	eor	r1, r3, r2, lsr #2
.LVL201:
	.loc 1 726 142 view .LVU819
	and	r1, r1, #858993459
.LVL202:
	.loc 1 726 177 is_stmt 1 view .LVU820
	.loc 1 726 181 is_stmt 0 view .LVU821
	eors	r3, r3, r1
.LVL203:
	.loc 1 726 187 is_stmt 1 view .LVU822
	.loc 1 726 191 is_stmt 0 view .LVU823
	eor	r2, r2, r1, lsl #2
.LVL204:
	.loc 1 726 204 is_stmt 1 view .LVU824
	.loc 1 726 220 is_stmt 0 view .LVU825
	eor	r1, r3, r2, lsr #8
.LVL205:
	.loc 1 726 206 view .LVU826
	and	r1, r1, #16711935
.LVL206:
	.loc 1 726 241 is_stmt 1 view .LVU827
	.loc 1 726 245 is_stmt 0 view .LVU828
	eors	r3, r3, r1
.LVL207:
	.loc 1 726 251 is_stmt 1 view .LVU829
	.loc 1 726 255 is_stmt 0 view .LVU830
	eor	r2, r2, r1, lsl #8
.LVL208:
	.loc 1 726 268 is_stmt 1 view .LVU831
	.loc 1 726 315 view .LVU832
	.loc 1 726 324 is_stmt 0 view .LVU833
	eor	r1, r3, r2, ror #31
.LVL209:
	.loc 1 726 317 view .LVU834
	and	r1, r1, #-1431655766
.LVL210:
	.loc 1 726 345 is_stmt 1 view .LVU835
	.loc 1 726 349 is_stmt 0 view .LVU836
	eor	r2, r1, r2, ror #31
.LVL211:
	.loc 1 726 355 is_stmt 1 view .LVU837
	.loc 1 726 359 is_stmt 0 view .LVU838
	eors	r3, r3, r1
.LVL212:
	.loc 1 726 365 is_stmt 1 view .LVU839
	.loc 1 726 369 is_stmt 0 view .LVU840
	ror	r3, r3, #31
.LVL213:
	.loc 1 726 419 is_stmt 1 view .LVU841
	.loc 1 728 5 view .LVU842
	.loc 1 728 12 is_stmt 0 view .LVU843
	movs	r4, #0
	.loc 1 728 5 view .LVU844
	b	.L98
.LVL214:
.L99:
	.loc 1 730 9 is_stmt 1 discriminator 3 view .LVU845
	.loc 1 730 14 discriminator 3 view .LVU846
	.loc 1 730 18 is_stmt 0 discriminator 3 view .LVU847
	ldr	r1, [r0]
	.loc 1 730 16 discriminator 3 view .LVU848
	eors	r1, r1, r2
.LVL215:
	.loc 1 730 31 is_stmt 1 discriminator 3 view .LVU849
	.loc 1 730 48 is_stmt 0 discriminator 3 view .LVU850
	and	r5, r1, #63
	.loc 1 730 41 discriminator 3 view .LVU851
	ldr	r10, .L105+12
	ldr	r5, [r10, r5, lsl #2]
	.loc 1 730 73 discriminator 3 view .LVU852
	ubfx	r6, r1, #8, #6
	.loc 1 730 62 discriminator 3 view .LVU853
	ldr	r9, .L105+16
	ldr	r6, [r9, r6, lsl #2]
	.loc 1 730 57 discriminator 3 view .LVU854
	eors	r5, r5, r6
	.loc 1 730 99 discriminator 3 view .LVU855
	ubfx	r6, r1, #16, #6
	.loc 1 730 87 discriminator 3 view .LVU856
	ldr	r8, .L105+20
	ldr	r6, [r8, r6, lsl #2]
	.loc 1 730 82 discriminator 3 view .LVU857
	eors	r5, r5, r6
	.loc 1 730 125 discriminator 3 view .LVU858
	ubfx	r1, r1, #24, #6
.LVL216:
	.loc 1 730 113 discriminator 3 view .LVU859
	ldr	lr, .L105+24
	ldr	r1, [lr, r1, lsl #2]
	.loc 1 730 108 discriminator 3 view .LVU860
	eors	r1, r1, r5
	.loc 1 730 35 discriminator 3 view .LVU861
	eors	r1, r1, r3
.LVL217:
	.loc 1 730 135 is_stmt 1 discriminator 3 view .LVU862
	.loc 1 730 139 is_stmt 0 discriminator 3 view .LVU863
	ldr	r5, [r0, #4]
	.loc 1 730 137 discriminator 3 view .LVU864
	eor	r5, r5, r2, ror #4
.LVL218:
	.loc 1 730 175 is_stmt 1 discriminator 3 view .LVU865
	.loc 1 730 192 is_stmt 0 discriminator 3 view .LVU866
	and	r3, r5, #63
	.loc 1 730 185 discriminator 3 view .LVU867
	ldr	ip, .L105+28
	ldr	r6, [ip, r3, lsl #2]
	.loc 1 730 217 discriminator 3 view .LVU868
	ubfx	r3, r5, #8, #6
	.loc 1 730 206 discriminator 3 view .LVU869
	ldr	r7, .L105
	ldr	r3, [r7, r3, lsl #2]
	.loc 1 730 201 discriminator 3 view .LVU870
	eors	r3, r3, r6
	.loc 1 730 243 discriminator 3 view .LVU871
	ubfx	fp, r5, #16, #6
	.loc 1 730 231 discriminator 3 view .LVU872
	ldr	r6, .L105+4
	ldr	fp, [r6, fp, lsl #2]
	.loc 1 730 226 discriminator 3 view .LVU873
	eor	r3, r3, fp
	.loc 1 730 269 discriminator 3 view .LVU874
	ubfx	fp, r5, #24, #6
	.loc 1 730 257 discriminator 3 view .LVU875
	ldr	r5, .L105+8
.LVL219:
	.loc 1 730 257 discriminator 3 view .LVU876
	ldr	fp, [r5, fp, lsl #2]
	.loc 1 730 252 discriminator 3 view .LVU877
	eor	r3, r3, fp
	.loc 1 730 179 discriminator 3 view .LVU878
	eors	r3, r3, r1
.LVL220:
	.loc 1 730 286 is_stmt 1 discriminator 3 view .LVU879
	.loc 1 731 9 discriminator 3 view .LVU880
	.loc 1 731 14 discriminator 3 view .LVU881
	.loc 1 731 18 is_stmt 0 discriminator 3 view .LVU882
	ldr	r1, [r0, #8]
	.loc 1 731 16 discriminator 3 view .LVU883
	eor	fp, r1, r3
.LVL221:
	.loc 1 731 31 is_stmt 1 discriminator 3 view .LVU884
	.loc 1 731 48 is_stmt 0 discriminator 3 view .LVU885
	and	r1, fp, #63
	.loc 1 731 41 discriminator 3 view .LVU886
	ldr	r1, [r10, r1, lsl #2]
	.loc 1 731 73 discriminator 3 view .LVU887
	ubfx	r10, fp, #8, #6
	.loc 1 731 62 discriminator 3 view .LVU888
	ldr	r9, [r9, r10, lsl #2]
	.loc 1 731 57 discriminator 3 view .LVU889
	eor	r1, r1, r9
	.loc 1 731 99 discriminator 3 view .LVU890
	ubfx	r9, fp, #16, #6
	.loc 1 731 87 discriminator 3 view .LVU891
	ldr	r8, [r8, r9, lsl #2]
	.loc 1 731 82 discriminator 3 view .LVU892
	eor	r1, r1, r8
	.loc 1 731 125 discriminator 3 view .LVU893
	ubfx	fp, fp, #24, #6
.LVL222:
	.loc 1 731 113 discriminator 3 view .LVU894
	ldr	lr, [lr, fp, lsl #2]
	.loc 1 731 108 discriminator 3 view .LVU895
	eor	r1, r1, lr
	.loc 1 731 35 discriminator 3 view .LVU896
	eors	r2, r2, r1
.LVL223:
	.loc 1 731 135 is_stmt 1 discriminator 3 view .LVU897
	.loc 1 731 139 is_stmt 0 discriminator 3 view .LVU898
	ldr	r1, [r0, #12]
	.loc 1 731 137 discriminator 3 view .LVU899
	eor	lr, r1, r3, ror #4
.LVL224:
	.loc 1 731 175 is_stmt 1 discriminator 3 view .LVU900
	.loc 1 731 192 is_stmt 0 discriminator 3 view .LVU901
	and	r1, lr, #63
	.loc 1 731 185 discriminator 3 view .LVU902
	ldr	r1, [ip, r1, lsl #2]
	.loc 1 731 217 discriminator 3 view .LVU903
	ubfx	ip, lr, #8, #6
	.loc 1 731 206 discriminator 3 view .LVU904
	ldr	r7, [r7, ip, lsl #2]
	.loc 1 731 201 discriminator 3 view .LVU905
	eors	r1, r1, r7
	.loc 1 731 243 discriminator 3 view .LVU906
	ubfx	r7, lr, #16, #6
	.loc 1 731 231 discriminator 3 view .LVU907
	ldr	r6, [r6, r7, lsl #2]
	.loc 1 731 226 discriminator 3 view .LVU908
	eors	r1, r1, r6
	.loc 1 731 269 discriminator 3 view .LVU909
	ubfx	r6, lr, #24, #6
	.loc 1 731 257 discriminator 3 view .LVU910
	ldr	r5, [r5, r6, lsl #2]
	.loc 1 731 252 discriminator 3 view .LVU911
	eors	r1, r1, r5
	.loc 1 731 179 discriminator 3 view .LVU912
	eors	r2, r2, r1
.LVL225:
	.loc 1 731 286 is_stmt 1 discriminator 3 view .LVU913
	.loc 1 728 24 discriminator 3 view .LVU914
	.loc 1 728 25 is_stmt 0 discriminator 3 view .LVU915
	adds	r4, r4, #1
.LVL226:
	.loc 1 731 142 discriminator 3 view .LVU916
	adds	r0, r0, #16
.LVL227:
.L98:
	.loc 1 728 17 is_stmt 1 discriminator 1 view .LVU917
	.loc 1 728 5 is_stmt 0 discriminator 1 view .LVU918
	cmp	r4, #7
	ble	.L99
	.loc 1 734 12 view .LVU919
	movs	r4, #0
.LVL228:
	.loc 1 734 12 view .LVU920
	b	.L100
.LVL229:
.L101:
	.loc 1 736 9 is_stmt 1 discriminator 3 view .LVU921
	.loc 1 736 14 discriminator 3 view .LVU922
	.loc 1 736 18 is_stmt 0 discriminator 3 view .LVU923
	ldr	r1, [r0]
	.loc 1 736 16 discriminator 3 view .LVU924
	eors	r1, r1, r3
.LVL230:
	.loc 1 736 31 is_stmt 1 discriminator 3 view .LVU925
	.loc 1 736 48 is_stmt 0 discriminator 3 view .LVU926
	and	r5, r1, #63
	.loc 1 736 41 discriminator 3 view .LVU927
	ldr	r10, .L105+12
	ldr	r5, [r10, r5, lsl #2]
	.loc 1 736 73 discriminator 3 view .LVU928
	ubfx	r6, r1, #8, #6
	.loc 1 736 62 discriminator 3 view .LVU929
	ldr	r9, .L105+16
	ldr	r6, [r9, r6, lsl #2]
	.loc 1 736 57 discriminator 3 view .LVU930
	eors	r5, r5, r6
	.loc 1 736 99 discriminator 3 view .LVU931
	ubfx	r6, r1, #16, #6
	.loc 1 736 87 discriminator 3 view .LVU932
	ldr	r8, .L105+20
	ldr	r6, [r8, r6, lsl #2]
	.loc 1 736 82 discriminator 3 view .LVU933
	eors	r5, r5, r6
	.loc 1 736 125 discriminator 3 view .LVU934
	ubfx	r1, r1, #24, #6
.LVL231:
	.loc 1 736 113 discriminator 3 view .LVU935
	ldr	lr, .L105+24
	ldr	r1, [lr, r1, lsl #2]
	.loc 1 736 108 discriminator 3 view .LVU936
	eors	r1, r1, r5
	.loc 1 736 35 discriminator 3 view .LVU937
	eors	r1, r1, r2
.LVL232:
	.loc 1 736 135 is_stmt 1 discriminator 3 view .LVU938
	.loc 1 736 139 is_stmt 0 discriminator 3 view .LVU939
	ldr	r5, [r0, #4]
	.loc 1 736 137 discriminator 3 view .LVU940
	eor	r5, r5, r3, ror #4
.LVL233:
	.loc 1 736 175 is_stmt 1 discriminator 3 view .LVU941
	.loc 1 736 192 is_stmt 0 discriminator 3 view .LVU942
	and	r2, r5, #63
	.loc 1 736 185 discriminator 3 view .LVU943
	ldr	ip, .L105+28
	ldr	r6, [ip, r2, lsl #2]
	.loc 1 736 217 discriminator 3 view .LVU944
	ubfx	r2, r5, #8, #6
	.loc 1 736 206 discriminator 3 view .LVU945
	ldr	r7, .L105
	ldr	r2, [r7, r2, lsl #2]
	.loc 1 736 201 discriminator 3 view .LVU946
	eors	r2, r2, r6
	.loc 1 736 243 discriminator 3 view .LVU947
	ubfx	fp, r5, #16, #6
	.loc 1 736 231 discriminator 3 view .LVU948
	ldr	r6, .L105+4
	ldr	fp, [r6, fp, lsl #2]
	.loc 1 736 226 discriminator 3 view .LVU949
	eor	r2, r2, fp
	.loc 1 736 269 discriminator 3 view .LVU950
	ubfx	fp, r5, #24, #6
	.loc 1 736 257 discriminator 3 view .LVU951
	ldr	r5, .L105+8
.LVL234:
	.loc 1 736 257 discriminator 3 view .LVU952
	ldr	fp, [r5, fp, lsl #2]
	.loc 1 736 252 discriminator 3 view .LVU953
	eor	r2, r2, fp
	.loc 1 736 179 discriminator 3 view .LVU954
	eors	r2, r2, r1
.LVL235:
	.loc 1 736 286 is_stmt 1 discriminator 3 view .LVU955
	.loc 1 737 9 discriminator 3 view .LVU956
	.loc 1 737 14 discriminator 3 view .LVU957
	.loc 1 737 18 is_stmt 0 discriminator 3 view .LVU958
	ldr	r1, [r0, #8]
	.loc 1 737 16 discriminator 3 view .LVU959
	eor	fp, r1, r2
.LVL236:
	.loc 1 737 31 is_stmt 1 discriminator 3 view .LVU960
	.loc 1 737 48 is_stmt 0 discriminator 3 view .LVU961
	and	r1, fp, #63
	.loc 1 737 41 discriminator 3 view .LVU962
	ldr	r1, [r10, r1, lsl #2]
	.loc 1 737 73 discriminator 3 view .LVU963
	ubfx	r10, fp, #8, #6
	.loc 1 737 62 discriminator 3 view .LVU964
	ldr	r9, [r9, r10, lsl #2]
	.loc 1 737 57 discriminator 3 view .LVU965
	eor	r1, r1, r9
	.loc 1 737 99 discriminator 3 view .LVU966
	ubfx	r9, fp, #16, #6
	.loc 1 737 87 discriminator 3 view .LVU967
	ldr	r8, [r8, r9, lsl #2]
	.loc 1 737 82 discriminator 3 view .LVU968
	eor	r1, r1, r8
	.loc 1 737 125 discriminator 3 view .LVU969
	ubfx	fp, fp, #24, #6
.LVL237:
	.loc 1 737 113 discriminator 3 view .LVU970
	ldr	lr, [lr, fp, lsl #2]
	.loc 1 737 108 discriminator 3 view .LVU971
	eor	r1, r1, lr
	.loc 1 737 35 discriminator 3 view .LVU972
	eors	r3, r3, r1
.LVL238:
	.loc 1 737 135 is_stmt 1 discriminator 3 view .LVU973
	.loc 1 737 139 is_stmt 0 discriminator 3 view .LVU974
	ldr	r1, [r0, #12]
	.loc 1 737 137 discriminator 3 view .LVU975
	eor	lr, r1, r2, ror #4
.LVL239:
	.loc 1 737 175 is_stmt 1 discriminator 3 view .LVU976
	.loc 1 737 192 is_stmt 0 discriminator 3 view .LVU977
	and	r1, lr, #63
	.loc 1 737 185 discriminator 3 view .LVU978
	ldr	r1, [ip, r1, lsl #2]
	.loc 1 737 217 discriminator 3 view .LVU979
	ubfx	ip, lr, #8, #6
	.loc 1 737 206 discriminator 3 view .LVU980
	ldr	r7, [r7, ip, lsl #2]
	.loc 1 737 201 discriminator 3 view .LVU981
	eors	r1, r1, r7
	.loc 1 737 243 discriminator 3 view .LVU982
	ubfx	r7, lr, #16, #6
	.loc 1 737 231 discriminator 3 view .LVU983
	ldr	r6, [r6, r7, lsl #2]
	.loc 1 737 226 discriminator 3 view .LVU984
	eors	r1, r1, r6
	.loc 1 737 269 discriminator 3 view .LVU985
	ubfx	r6, lr, #24, #6
	.loc 1 737 257 discriminator 3 view .LVU986
	ldr	r5, [r5, r6, lsl #2]
	.loc 1 737 252 discriminator 3 view .LVU987
	eors	r1, r1, r5
	.loc 1 737 179 discriminator 3 view .LVU988
	eors	r3, r3, r1
.LVL240:
	.loc 1 737 286 is_stmt 1 discriminator 3 view .LVU989
	.loc 1 734 24 discriminator 3 view .LVU990
	.loc 1 734 25 is_stmt 0 discriminator 3 view .LVU991
	adds	r4, r4, #1
.LVL241:
	.loc 1 737 142 discriminator 3 view .LVU992
	adds	r0, r0, #16
.LVL242:
.L100:
	.loc 1 734 17 is_stmt 1 discriminator 1 view .LVU993
	.loc 1 734 5 is_stmt 0 discriminator 1 view .LVU994
	cmp	r4, #7
	ble	.L101
	.loc 1 740 12 view .LVU995
	movs	r4, #0
.LVL243:
	.loc 1 740 12 view .LVU996
	b	.L102
.LVL244:
.L103:
	.loc 1 742 9 is_stmt 1 discriminator 3 view .LVU997
	.loc 1 742 14 discriminator 3 view .LVU998
	.loc 1 742 18 is_stmt 0 discriminator 3 view .LVU999
	ldr	r1, [r0]
	.loc 1 742 16 discriminator 3 view .LVU1000
	eors	r1, r1, r2
.LVL245:
	.loc 1 742 31 is_stmt 1 discriminator 3 view .LVU1001
	.loc 1 742 48 is_stmt 0 discriminator 3 view .LVU1002
	and	r5, r1, #63
	.loc 1 742 41 discriminator 3 view .LVU1003
	ldr	r10, .L105+12
	ldr	r5, [r10, r5, lsl #2]
	.loc 1 742 73 discriminator 3 view .LVU1004
	ubfx	r6, r1, #8, #6
	.loc 1 742 62 discriminator 3 view .LVU1005
	ldr	r9, .L105+16
	ldr	r6, [r9, r6, lsl #2]
	.loc 1 742 57 discriminator 3 view .LVU1006
	eors	r5, r5, r6
	.loc 1 742 99 discriminator 3 view .LVU1007
	ubfx	r6, r1, #16, #6
	.loc 1 742 87 discriminator 3 view .LVU1008
	ldr	r8, .L105+20
	ldr	r6, [r8, r6, lsl #2]
	.loc 1 742 82 discriminator 3 view .LVU1009
	eors	r5, r5, r6
	.loc 1 742 125 discriminator 3 view .LVU1010
	ubfx	r1, r1, #24, #6
.LVL246:
	.loc 1 742 113 discriminator 3 view .LVU1011
	ldr	lr, .L105+24
	ldr	r1, [lr, r1, lsl #2]
	.loc 1 742 108 discriminator 3 view .LVU1012
	eors	r1, r1, r5
	.loc 1 742 35 discriminator 3 view .LVU1013
	eors	r1, r1, r3
.LVL247:
	.loc 1 742 135 is_stmt 1 discriminator 3 view .LVU1014
	.loc 1 742 139 is_stmt 0 discriminator 3 view .LVU1015
	ldr	r5, [r0, #4]
	.loc 1 742 137 discriminator 3 view .LVU1016
	eor	r5, r5, r2, ror #4
.LVL248:
	.loc 1 742 175 is_stmt 1 discriminator 3 view .LVU1017
	.loc 1 742 192 is_stmt 0 discriminator 3 view .LVU1018
	and	r3, r5, #63
	.loc 1 742 185 discriminator 3 view .LVU1019
	ldr	ip, .L105+28
	ldr	r6, [ip, r3, lsl #2]
	.loc 1 742 217 discriminator 3 view .LVU1020
	ubfx	r3, r5, #8, #6
	.loc 1 742 206 discriminator 3 view .LVU1021
	ldr	r7, .L105
	ldr	r3, [r7, r3, lsl #2]
	.loc 1 742 201 discriminator 3 view .LVU1022
	eors	r3, r3, r6
	.loc 1 742 243 discriminator 3 view .LVU1023
	ubfx	fp, r5, #16, #6
	.loc 1 742 231 discriminator 3 view .LVU1024
	ldr	r6, .L105+4
	ldr	fp, [r6, fp, lsl #2]
	.loc 1 742 226 discriminator 3 view .LVU1025
	eor	r3, r3, fp
	.loc 1 742 269 discriminator 3 view .LVU1026
	ubfx	fp, r5, #24, #6
	.loc 1 742 257 discriminator 3 view .LVU1027
	ldr	r5, .L105+8
.LVL249:
	.loc 1 742 257 discriminator 3 view .LVU1028
	ldr	fp, [r5, fp, lsl #2]
	.loc 1 742 252 discriminator 3 view .LVU1029
	eor	r3, r3, fp
	.loc 1 742 179 discriminator 3 view .LVU1030
	eors	r3, r3, r1
.LVL250:
	.loc 1 742 286 is_stmt 1 discriminator 3 view .LVU1031
	.loc 1 743 9 discriminator 3 view .LVU1032
	.loc 1 743 14 discriminator 3 view .LVU1033
	.loc 1 743 18 is_stmt 0 discriminator 3 view .LVU1034
	ldr	r1, [r0, #8]
	.loc 1 743 16 discriminator 3 view .LVU1035
	eor	fp, r1, r3
.LVL251:
	.loc 1 743 31 is_stmt 1 discriminator 3 view .LVU1036
	.loc 1 743 48 is_stmt 0 discriminator 3 view .LVU1037
	and	r1, fp, #63
	.loc 1 743 41 discriminator 3 view .LVU1038
	ldr	r1, [r10, r1, lsl #2]
	.loc 1 743 73 discriminator 3 view .LVU1039
	ubfx	r10, fp, #8, #6
	.loc 1 743 62 discriminator 3 view .LVU1040
	ldr	r9, [r9, r10, lsl #2]
	.loc 1 743 57 discriminator 3 view .LVU1041
	eor	r1, r1, r9
	.loc 1 743 99 discriminator 3 view .LVU1042
	ubfx	r9, fp, #16, #6
	.loc 1 743 87 discriminator 3 view .LVU1043
	ldr	r8, [r8, r9, lsl #2]
	.loc 1 743 82 discriminator 3 view .LVU1044
	eor	r1, r1, r8
	.loc 1 743 125 discriminator 3 view .LVU1045
	ubfx	fp, fp, #24, #6
.LVL252:
	.loc 1 743 113 discriminator 3 view .LVU1046
	ldr	lr, [lr, fp, lsl #2]
	.loc 1 743 108 discriminator 3 view .LVU1047
	eor	r1, r1, lr
	.loc 1 743 35 discriminator 3 view .LVU1048
	eors	r2, r2, r1
.LVL253:
	.loc 1 743 135 is_stmt 1 discriminator 3 view .LVU1049
	.loc 1 743 139 is_stmt 0 discriminator 3 view .LVU1050
	ldr	r1, [r0, #12]
	.loc 1 743 137 discriminator 3 view .LVU1051
	eor	lr, r1, r3, ror #4
.LVL254:
	.loc 1 743 175 is_stmt 1 discriminator 3 view .LVU1052
	.loc 1 743 192 is_stmt 0 discriminator 3 view .LVU1053
	and	r1, lr, #63
	.loc 1 743 185 discriminator 3 view .LVU1054
	ldr	r1, [ip, r1, lsl #2]
	.loc 1 743 217 discriminator 3 view .LVU1055
	ubfx	ip, lr, #8, #6
	.loc 1 743 206 discriminator 3 view .LVU1056
	ldr	r7, [r7, ip, lsl #2]
	.loc 1 743 201 discriminator 3 view .LVU1057
	eors	r1, r1, r7
	.loc 1 743 243 discriminator 3 view .LVU1058
	ubfx	r7, lr, #16, #6
	.loc 1 743 231 discriminator 3 view .LVU1059
	ldr	r6, [r6, r7, lsl #2]
	.loc 1 743 226 discriminator 3 view .LVU1060
	eors	r1, r1, r6
	.loc 1 743 269 discriminator 3 view .LVU1061
	ubfx	r6, lr, #24, #6
	.loc 1 743 257 discriminator 3 view .LVU1062
	ldr	r5, [r5, r6, lsl #2]
	.loc 1 743 252 discriminator 3 view .LVU1063
	eors	r1, r1, r5
	.loc 1 743 179 discriminator 3 view .LVU1064
	eors	r2, r2, r1
.LVL255:
	.loc 1 743 286 is_stmt 1 discriminator 3 view .LVU1065
	.loc 1 740 24 discriminator 3 view .LVU1066
	.loc 1 740 25 is_stmt 0 discriminator 3 view .LVU1067
	adds	r4, r4, #1
.LVL256:
	.loc 1 743 142 discriminator 3 view .LVU1068
	adds	r0, r0, #16
.LVL257:
.L102:
	.loc 1 740 17 is_stmt 1 discriminator 1 view .LVU1069
	.loc 1 740 5 is_stmt 0 discriminator 1 view .LVU1070
	cmp	r4, #7
	ble	.L103
	.loc 1 746 5 is_stmt 1 view .LVU1071
	.loc 1 746 10 view .LVU1072
.LVL258:
	.loc 1 746 57 view .LVU1073
	.loc 1 746 66 is_stmt 0 view .LVU1074
	eor	r1, r3, r2, ror #1
	.loc 1 746 59 view .LVU1075
	and	r1, r1, #-1431655766
.LVL259:
	.loc 1 746 87 is_stmt 1 view .LVU1076
	.loc 1 746 91 is_stmt 0 view .LVU1077
	eor	r2, r1, r2, ror #1
.LVL260:
	.loc 1 746 97 is_stmt 1 view .LVU1078
	.loc 1 746 101 is_stmt 0 view .LVU1079
	eors	r3, r3, r1
.LVL261:
	.loc 1 746 107 is_stmt 1 view .LVU1080
	.loc 1 746 111 is_stmt 0 view .LVU1081
	ror	r3, r3, #1
.LVL262:
	.loc 1 746 154 is_stmt 1 view .LVU1082
	.loc 1 746 170 is_stmt 0 view .LVU1083
	eor	r1, r2, r3, lsr #8
.LVL263:
	.loc 1 746 156 view .LVU1084
	and	r1, r1, #16711935
.LVL264:
	.loc 1 746 191 is_stmt 1 view .LVU1085
	.loc 1 746 195 is_stmt 0 view .LVU1086
	eors	r2, r2, r1
.LVL265:
	.loc 1 746 201 is_stmt 1 view .LVU1087
	.loc 1 746 205 is_stmt 0 view .LVU1088
	eor	r3, r3, r1, lsl #8
.LVL266:
	.loc 1 746 218 is_stmt 1 view .LVU1089
	.loc 1 746 234 is_stmt 0 view .LVU1090
	eor	r1, r2, r3, lsr #2
.LVL267:
	.loc 1 746 220 view .LVU1091
	and	r1, r1, #858993459
.LVL268:
	.loc 1 746 255 is_stmt 1 view .LVU1092
	.loc 1 746 259 is_stmt 0 view .LVU1093
	eors	r2, r2, r1
.LVL269:
	.loc 1 746 265 is_stmt 1 view .LVU1094
	.loc 1 746 269 is_stmt 0 view .LVU1095
	eor	r3, r3, r1, lsl #2
.LVL270:
	.loc 1 746 282 is_stmt 1 view .LVU1096
	.loc 1 746 299 is_stmt 0 view .LVU1097
	eor	r1, r3, r2, lsr #16
.LVL271:
	.loc 1 746 284 view .LVU1098
	uxth	r1, r1
.LVL272:
	.loc 1 746 320 is_stmt 1 view .LVU1099
	.loc 1 746 324 is_stmt 0 view .LVU1100
	eors	r3, r3, r1
.LVL273:
	.loc 1 746 330 is_stmt 1 view .LVU1101
	.loc 1 746 334 is_stmt 0 view .LVU1102
	eor	r2, r2, r1, lsl #16
.LVL274:
	.loc 1 746 348 is_stmt 1 view .LVU1103
	.loc 1 746 364 is_stmt 0 view .LVU1104
	eor	r1, r3, r2, lsr #4
.LVL275:
	.loc 1 746 350 view .LVU1105
	and	r1, r1, #252645135
.LVL276:
	.loc 1 746 385 is_stmt 1 view .LVU1106
	.loc 1 746 389 is_stmt 0 view .LVU1107
	eors	r3, r3, r1
.LVL277:
	.loc 1 746 395 is_stmt 1 view .LVU1108
	.loc 1 746 399 is_stmt 0 view .LVU1109
	eor	r2, r2, r1, lsl #4
.LVL278:
	.loc 1 746 419 is_stmt 1 view .LVU1110
	.loc 1 748 7 view .LVU1111
	.loc 1 748 24 is_stmt 0 view .LVU1112
	lsrs	r1, r2, #24
.LVL279:
	.loc 1 748 22 view .LVU1113
	ldr	r0, [sp, #4]
.LVL280:
	.loc 1 748 22 view .LVU1114
	strb	r1, [r0]
	.loc 1 748 55 is_stmt 1 view .LVU1115
	.loc 1 748 75 is_stmt 0 view .LVU1116
	ubfx	r1, r2, #16, #8
	.loc 1 748 73 view .LVU1117
	strb	r1, [r0, #1]
	.loc 1 748 106 is_stmt 1 view .LVU1118
	.loc 1 748 126 is_stmt 0 view .LVU1119
	ubfx	r1, r2, #8, #8
	.loc 1 748 124 view .LVU1120
	strb	r1, [r0, #2]
	.loc 1 748 156 is_stmt 1 view .LVU1121
	.loc 1 748 174 is_stmt 0 view .LVU1122
	strb	r2, [r0, #3]
	.loc 1 748 202 is_stmt 1 view .LVU1123
	.loc 1 749 7 view .LVU1124
	.loc 1 749 24 is_stmt 0 view .LVU1125
	lsrs	r2, r3, #24
.LVL281:
	.loc 1 749 22 view .LVU1126
	strb	r2, [r0, #4]
	.loc 1 749 55 is_stmt 1 view .LVU1127
	.loc 1 749 75 is_stmt 0 view .LVU1128
	ubfx	r2, r3, #16, #8
	.loc 1 749 73 view .LVU1129
	strb	r2, [r0, #5]
	.loc 1 749 106 is_stmt 1 view .LVU1130
	.loc 1 749 126 is_stmt 0 view .LVU1131
	ubfx	r2, r3, #8, #8
	.loc 1 749 124 view .LVU1132
	strb	r2, [r0, #6]
	.loc 1 749 156 is_stmt 1 view .LVU1133
	.loc 1 749 174 is_stmt 0 view .LVU1134
	strb	r3, [r0, #7]
	.loc 1 749 202 is_stmt 1 view .LVU1135
	.loc 1 751 5 view .LVU1136
	.loc 1 752 1 is_stmt 0 view .LVU1137
	movs	r0, #0
	add	sp, sp, #12
	.cfi_def_cfa_offset 36
	@ sp needed
	pop	{r4, r5, r6, r7, r8, r9, r10, fp, pc}
.LVL282:
.L106:
	.loc 1 752 1 view .LVU1138
	.align	2
.L105:
	.word	.LANCHOR9
	.word	.LANCHOR10
	.word	.LANCHOR11
	.word	.LANCHOR4
	.word	.LANCHOR5
	.word	.LANCHOR6
	.word	.LANCHOR7
	.word	.LANCHOR8
	.cfi_endproc
.LFE28:
	.size	mbedtls_des3_crypt_ecb, .-mbedtls_des3_crypt_ecb
	.section	.text.mbedtls_des3_crypt_cbc,"ax",%progbits
	.align	1
	.global	mbedtls_des3_crypt_cbc
	.syntax unified
	.thumb
	.thumb_func
	.fpu fpv4-sp-d16
	.type	mbedtls_des3_crypt_cbc, %function
mbedtls_des3_crypt_cbc:
.LVL283:
.LFB29:
	.loc 1 765 1 is_stmt 1 view -0
	.cfi_startproc
	@ args = 8, pretend = 0, frame = 8
	@ frame_needed = 0, uses_anonymous_args = 0
	.loc 1 765 1 is_stmt 0 view .LVU1140
	push	{r4, r5, r6, r7, r8, r9, lr}
	.cfi_def_cfa_offset 28
	.cfi_offset 4, -28
	.cfi_offset 5, -24
	.cfi_offset 6, -20
	.cfi_offset 7, -16
	.cfi_offset 8, -12
	.cfi_offset 9, -8
	.cfi_offset 14, -4
	sub	sp, sp, #12
	.cfi_def_cfa_offset 40
	ldr	r7, [sp, #40]
	ldr	r5, [sp, #44]
	.loc 1 766 5 is_stmt 1 view .LVU1141
	.loc 1 767 5 view .LVU1142
	.loc 1 769 5 view .LVU1143
	.loc 1 769 7 is_stmt 0 view .LVU1144
	tst	r2, #7
	bne	.L116
	mov	r9, r0
	mov	r8, r2
	mov	r6, r3
	.loc 1 772 5 is_stmt 1 view .LVU1145
	.loc 1 772 7 is_stmt 0 view .LVU1146
	cmp	r1, #1
	bne	.L110
	b	.L109
.LVL284:
.L111:
	.loc 1 777 17 is_stmt 1 discriminator 3 view .LVU1147
	.loc 1 777 51 is_stmt 0 discriminator 3 view .LVU1148
	ldrb	r2, [r7, r3]	@ zero_extendqisi2
	.loc 1 777 59 discriminator 3 view .LVU1149
	ldrb	r1, [r6, r3]	@ zero_extendqisi2
	.loc 1 777 29 discriminator 3 view .LVU1150
	eors	r2, r2, r1
	.loc 1 777 27 discriminator 3 view .LVU1151
	strb	r2, [r5, r3]
	.loc 1 776 32 is_stmt 1 discriminator 3 view .LVU1152
	.loc 1 776 33 is_stmt 0 discriminator 3 view .LVU1153
	adds	r3, r3, #1
.LVL285:
.L112:
	.loc 1 776 25 is_stmt 1 discriminator 1 view .LVU1154
	.loc 1 776 13 is_stmt 0 discriminator 1 view .LVU1155
	cmp	r3, #7
	ble	.L111
	.loc 1 779 13 is_stmt 1 view .LVU1156
	mov	r2, r5
	mov	r1, r5
	mov	r0, r9
	bl	mbedtls_des3_crypt_ecb
.LVL286:
	.loc 1 780 12 view .LVU1157
.LBB24:
.LBI24:
	.loc 2 83 216 view .LVU1158
.LBB25:
	.loc 2 83 292 view .LVU1159
	.loc 2 83 299 is_stmt 0 view .LVU1160
	ldr	r2, [r5]	@ unaligned
	ldr	r3, [r5, #4]	@ unaligned
	str	r2, [r6]	@ unaligned
	str	r3, [r6, #4]	@ unaligned
.LVL287:
	.loc 2 83 299 view .LVU1161
.LBE25:
.LBE24:
	.loc 1 782 13 is_stmt 1 view .LVU1162
	.loc 1 782 19 is_stmt 0 view .LVU1163
	adds	r7, r7, #8
.LVL288:
	.loc 1 783 13 is_stmt 1 view .LVU1164
	.loc 1 783 20 is_stmt 0 view .LVU1165
	adds	r5, r5, #8
.LVL289:
	.loc 1 784 13 is_stmt 1 view .LVU1166
	.loc 1 784 20 is_stmt 0 view .LVU1167
	sub	r8, r8, #8
.LVL290:
.L109:
	.loc 1 774 14 is_stmt 1 view .LVU1168
	cmp	r8, #0
	beq	.L119
	.loc 1 776 20 is_stmt 0 view .LVU1169
	movs	r3, #0
	b	.L112
.L119:
	.loc 1 805 11 view .LVU1170
	movs	r0, #0
	b	.L107
.LVL291:
.L114:
	.loc 1 795 17 is_stmt 1 discriminator 3 view .LVU1171
	.loc 1 795 52 is_stmt 0 discriminator 3 view .LVU1172
	ldrb	r4, [r5, r1]	@ zero_extendqisi2
	.loc 1 795 60 discriminator 3 view .LVU1173
	ldrb	r3, [r6, r1]	@ zero_extendqisi2
	.loc 1 795 29 discriminator 3 view .LVU1174
	eors	r4, r4, r3
	.loc 1 795 27 discriminator 3 view .LVU1175
	strb	r4, [r5, r1]
	.loc 1 794 32 is_stmt 1 discriminator 3 view .LVU1176
	.loc 1 794 33 is_stmt 0 discriminator 3 view .LVU1177
	adds	r1, r1, #1
.LVL292:
.L113:
	.loc 1 794 25 is_stmt 1 discriminator 1 view .LVU1178
	.loc 1 794 13 is_stmt 0 discriminator 1 view .LVU1179
	cmp	r1, #7
	ble	.L114
	.loc 1 797 12 is_stmt 1 view .LVU1180
.LVL293:
.LBB26:
.LBI26:
	.loc 2 83 216 view .LVU1181
.LBB27:
	.loc 2 83 292 view .LVU1182
	.loc 2 83 299 is_stmt 0 view .LVU1183
	mov	r3, sp
	ldmia	r3!, {r0, r1}
.LVL294:
	.loc 2 83 299 view .LVU1184
	str	r0, [r6]	@ unaligned
	str	r1, [r6, #4]	@ unaligned
.LVL295:
	.loc 2 83 299 view .LVU1185
.LBE27:
.LBE26:
	.loc 1 799 13 is_stmt 1 view .LVU1186
	.loc 1 799 19 is_stmt 0 view .LVU1187
	adds	r7, r7, #8
.LVL296:
	.loc 1 800 13 is_stmt 1 view .LVU1188
	.loc 1 800 20 is_stmt 0 view .LVU1189
	adds	r5, r5, #8
.LVL297:
	.loc 1 801 13 is_stmt 1 view .LVU1190
	.loc 1 801 20 is_stmt 0 view .LVU1191
	sub	r8, r8, #8
.LVL298:
.L110:
	.loc 1 789 14 is_stmt 1 view .LVU1192
	cmp	r8, #0
	beq	.L120
	.loc 1 791 12 discriminator 1 view .LVU1193
	mov	r3, sp
	ldr	r0, [r7]	@ unaligned
	ldr	r1, [r7, #4]	@ unaligned
	stmia	r3!, {r0, r1}
	.loc 1 792 13 discriminator 1 view .LVU1194
	mov	r2, r5
	mov	r1, r7
	mov	r0, r9
	bl	mbedtls_des3_crypt_ecb
.LVL299:
	.loc 1 794 13 discriminator 1 view .LVU1195
	.loc 1 794 20 is_stmt 0 discriminator 1 view .LVU1196
	movs	r1, #0
	.loc 1 794 13 discriminator 1 view .LVU1197
	b	.L113
.LVL300:
.L120:
	.loc 1 805 11 view .LVU1198
	movs	r0, #0
.LVL301:
.L107:
	.loc 1 806 1 view .LVU1199
	add	sp, sp, #12
	.cfi_remember_state
	.cfi_def_cfa_offset 28
	@ sp needed
	pop	{r4, r5, r6, r7, r8, r9, pc}
.LVL302:
.L116:
	.cfi_restore_state
	.loc 1 770 15 view .LVU1200
	mvn	r0, #49
.LVL303:
	.loc 1 770 15 view .LVU1201
	b	.L107
	.cfi_endproc
.LFE29:
	.size	mbedtls_des3_crypt_cbc, .-mbedtls_des3_crypt_cbc
	.section	.rodata.LHs,"a"
	.align	2
	.set	.LANCHOR2,. + 0
	.type	LHs, %object
	.size	LHs, 64
LHs:
	.word	0
	.word	1
	.word	256
	.word	257
	.word	65536
	.word	65537
	.word	65792
	.word	65793
	.word	16777216
	.word	16777217
	.word	16777472
	.word	16777473
	.word	16842752
	.word	16842753
	.word	16843008
	.word	16843009
	.section	.rodata.RHs,"a"
	.align	2
	.set	.LANCHOR3,. + 0
	.type	RHs, %object
	.size	RHs, 64
RHs:
	.word	0
	.word	16777216
	.word	65536
	.word	16842752
	.word	256
	.word	16777472
	.word	65792
	.word	16843008
	.word	1
	.word	16777217
	.word	65537
	.word	16842753
	.word	257
	.word	16777473
	.word	65793
	.word	16843009
	.section	.rodata.SB1,"a"
	.align	2
	.set	.LANCHOR11,. + 0
	.type	SB1, %object
	.size	SB1, 256
SB1:
	.word	16843776
	.word	0
	.word	65536
	.word	16843780
	.word	16842756
	.word	66564
	.word	4
	.word	65536
	.word	1024
	.word	16843776
	.word	16843780
	.word	1024
	.word	16778244
	.word	16842756
	.word	16777216
	.word	4
	.word	1028
	.word	16778240
	.word	16778240
	.word	66560
	.word	66560
	.word	16842752
	.word	16842752
	.word	16778244
	.word	65540
	.word	16777220
	.word	16777220
	.word	65540
	.word	0
	.word	1028
	.word	66564
	.word	16777216
	.word	65536
	.word	16843780
	.word	4
	.word	16842752
	.word	16843776
	.word	16777216
	.word	16777216
	.word	1024
	.word	16842756
	.word	65536
	.word	66560
	.word	16777220
	.word	1024
	.word	4
	.word	16778244
	.word	66564
	.word	16843780
	.word	65540
	.word	16842752
	.word	16778244
	.word	16777220
	.word	1028
	.word	66564
	.word	16843776
	.word	1028
	.word	16778240
	.word	16778240
	.word	0
	.word	65540
	.word	66560
	.word	0
	.word	16842756
	.section	.rodata.SB2,"a"
	.align	2
	.set	.LANCHOR7,. + 0
	.type	SB2, %object
	.size	SB2, 256
SB2:
	.word	-2146402272
	.word	-2147450880
	.word	32768
	.word	1081376
	.word	1048576
	.word	32
	.word	-2146435040
	.word	-2147450848
	.word	-2147483616
	.word	-2146402272
	.word	-2146402304
	.word	-2147483648
	.word	-2147450880
	.word	1048576
	.word	32
	.word	-2146435040
	.word	1081344
	.word	1048608
	.word	-2147450848
	.word	0
	.word	-2147483648
	.word	32768
	.word	1081376
	.word	-2146435072
	.word	1048608
	.word	-2147483616
	.word	0
	.word	1081344
	.word	32800
	.word	-2146402304
	.word	-2146435072
	.word	32800
	.word	0
	.word	1081376
	.word	-2146435040
	.word	1048576
	.word	-2147450848
	.word	-2146435072
	.word	-2146402304
	.word	32768
	.word	-2146435072
	.word	-2147450880
	.word	32
	.word	-2146402272
	.word	1081376
	.word	32
	.word	32768
	.word	-2147483648
	.word	32800
	.word	-2146402304
	.word	1048576
	.word	-2147483616
	.word	1048608
	.word	-2147450848
	.word	-2147483616
	.word	1048608
	.word	1081344
	.word	0
	.word	-2147450880
	.word	32800
	.word	-2147483648
	.word	-2146435040
	.word	-2146402272
	.word	1081344
	.section	.rodata.SB3,"a"
	.align	2
	.set	.LANCHOR10,. + 0
	.type	SB3, %object
	.size	SB3, 256
SB3:
	.word	520
	.word	134349312
	.word	0
	.word	134348808
	.word	134218240
	.word	0
	.word	131592
	.word	134218240
	.word	131080
	.word	134217736
	.word	134217736
	.word	131072
	.word	134349320
	.word	131080
	.word	134348800
	.word	520
	.word	134217728
	.word	8
	.word	134349312
	.word	512
	.word	131584
	.word	134348800
	.word	134348808
	.word	131592
	.word	134218248
	.word	131584
	.word	131072
	.word	134218248
	.word	8
	.word	134349320
	.word	512
	.word	134217728
	.word	134349312
	.word	134217728
	.word	131080
	.word	520
	.word	131072
	.word	134349312
	.word	134218240
	.word	0
	.word	512
	.word	131080
	.word	134349320
	.word	134218240
	.word	134217736
	.word	512
	.word	0
	.word	134348808
	.word	134218248
	.word	131072
	.word	134217728
	.word	134349320
	.word	8
	.word	131592
	.word	131584
	.word	134217736
	.word	134348800
	.word	134218248
	.word	520
	.word	134348800
	.word	131592
	.word	8
	.word	134348808
	.word	131584
	.section	.rodata.SB4,"a"
	.align	2
	.set	.LANCHOR6,. + 0
	.type	SB4, %object
	.size	SB4, 256
SB4:
	.word	8396801
	.word	8321
	.word	8321
	.word	128
	.word	8396928
	.word	8388737
	.word	8388609
	.word	8193
	.word	0
	.word	8396800
	.word	8396800
	.word	8396929
	.word	129
	.word	0
	.word	8388736
	.word	8388609
	.word	1
	.word	8192
	.word	8388608
	.word	8396801
	.word	128
	.word	8388608
	.word	8193
	.word	8320
	.word	8388737
	.word	1
	.word	8320
	.word	8388736
	.word	8192
	.word	8396928
	.word	8396929
	.word	129
	.word	8388736
	.word	8388609
	.word	8396800
	.word	8396929
	.word	129
	.word	0
	.word	0
	.word	8396800
	.word	8320
	.word	8388736
	.word	8388737
	.word	1
	.word	8396801
	.word	8321
	.word	8321
	.word	128
	.word	8396929
	.word	129
	.word	1
	.word	8192
	.word	8388609
	.word	8193
	.word	8396928
	.word	8388737
	.word	8193
	.word	8320
	.word	8388608
	.word	8396801
	.word	128
	.word	8388608
	.word	8192
	.word	8396928
	.section	.rodata.SB5,"a"
	.align	2
	.set	.LANCHOR9,. + 0
	.type	SB5, %object
	.size	SB5, 256
SB5:
	.word	256
	.word	34078976
	.word	34078720
	.word	1107296512
	.word	524288
	.word	256
	.word	1073741824
	.word	34078720
	.word	1074266368
	.word	524288
	.word	33554688
	.word	1074266368
	.word	1107296512
	.word	1107820544
	.word	524544
	.word	1073741824
	.word	33554432
	.word	1074266112
	.word	1074266112
	.word	0
	.word	1073742080
	.word	1107820800
	.word	1107820800
	.word	33554688
	.word	1107820544
	.word	1073742080
	.word	0
	.word	1107296256
	.word	34078976
	.word	33554432
	.word	1107296256
	.word	524544
	.word	524288
	.word	1107296512
	.word	256
	.word	33554432
	.word	1073741824
	.word	34078720
	.word	1107296512
	.word	1074266368
	.word	33554688
	.word	1073741824
	.word	1107820544
	.word	34078976
	.word	1074266368
	.word	256
	.word	33554432
	.word	1107820544
	.word	1107820800
	.word	524544
	.word	1107296256
	.word	1107820800
	.word	34078720
	.word	0
	.word	1074266112
	.word	1107296256
	.word	524544
	.word	33554688
	.word	1073742080
	.word	524288
	.word	0
	.word	1074266112
	.word	34078976
	.word	1073742080
	.section	.rodata.SB6,"a"
	.align	2
	.set	.LANCHOR5,. + 0
	.type	SB6, %object
	.size	SB6, 256
SB6:
	.word	536870928
	.word	541065216
	.word	16384
	.word	541081616
	.word	541065216
	.word	16
	.word	541081616
	.word	4194304
	.word	536887296
	.word	4210704
	.word	4194304
	.word	536870928
	.word	4194320
	.word	536887296
	.word	536870912
	.word	16400
	.word	0
	.word	4194320
	.word	536887312
	.word	16384
	.word	4210688
	.word	536887312
	.word	16
	.word	541065232
	.word	541065232
	.word	0
	.word	4210704
	.word	541081600
	.word	16400
	.word	4210688
	.word	541081600
	.word	536870912
	.word	536887296
	.word	16
	.word	541065232
	.word	4210688
	.word	541081616
	.word	4194304
	.word	16400
	.word	536870928
	.word	4194304
	.word	536887296
	.word	536870912
	.word	16400
	.word	536870928
	.word	541081616
	.word	4210688
	.word	541065216
	.word	4210704
	.word	541081600
	.word	0
	.word	541065232
	.word	16
	.word	16384
	.word	541065216
	.word	4210704
	.word	16384
	.word	4194320
	.word	536887312
	.word	0
	.word	541081600
	.word	536870912
	.word	4194320
	.word	536887312
	.section	.rodata.SB7,"a"
	.align	2
	.set	.LANCHOR8,. + 0
	.type	SB7, %object
	.size	SB7, 256
SB7:
	.word	2097152
	.word	69206018
	.word	67110914
	.word	0
	.word	2048
	.word	67110914
	.word	2099202
	.word	69208064
	.word	69208066
	.word	2097152
	.word	0
	.word	67108866
	.word	2
	.word	67108864
	.word	69206018
	.word	2050
	.word	67110912
	.word	2099202
	.word	2097154
	.word	67110912
	.word	67108866
	.word	69206016
	.word	69208064
	.word	2097154
	.word	69206016
	.word	2048
	.word	2050
	.word	69208066
	.word	2099200
	.word	2
	.word	67108864
	.word	2099200
	.word	67108864
	.word	2099200
	.word	2097152
	.word	67110914
	.word	67110914
	.word	69206018
	.word	69206018
	.word	2
	.word	2097154
	.word	67108864
	.word	67110912
	.word	2097152
	.word	69208064
	.word	2050
	.word	2099202
	.word	69208064
	.word	2050
	.word	67108866
	.word	69208066
	.word	69206016
	.word	2099200
	.word	0
	.word	2
	.word	69208066
	.word	0
	.word	2099202
	.word	69206016
	.word	2048
	.word	67108866
	.word	67110912
	.word	2048
	.word	2097154
	.section	.rodata.SB8,"a"
	.align	2
	.set	.LANCHOR4,. + 0
	.type	SB8, %object
	.size	SB8, 256
SB8:
	.word	268439616
	.word	4096
	.word	262144
	.word	268701760
	.word	268435456
	.word	268439616
	.word	64
	.word	268435456
	.word	262208
	.word	268697600
	.word	268701760
	.word	266240
	.word	268701696
	.word	266304
	.word	4096
	.word	64
	.word	268697600
	.word	268435520
	.word	268439552
	.word	4160
	.word	266240
	.word	262208
	.word	268697664
	.word	268701696
	.word	4160
	.word	0
	.word	0
	.word	268697664
	.word	268435520
	.word	268439552
	.word	266304
	.word	262144
	.word	266304
	.word	262144
	.word	268701696
	.word	4096
	.word	64
	.word	268697664
	.word	4096
	.word	266304
	.word	268439552
	.word	64
	.word	268435520
	.word	268697600
	.word	268697664
	.word	268435456
	.word	262144
	.word	268439616
	.word	0
	.word	268701760
	.word	262208
	.word	268435520
	.word	268697600
	.word	268439552
	.word	268439616
	.word	0
	.word	268701760
	.word	266240
	.word	266240
	.word	4160
	.word	4160
	.word	262208
	.word	268435456
	.word	268701696
	.section	.rodata.odd_parity_table,"a"
	.align	2
	.set	.LANCHOR0,. + 0
	.type	odd_parity_table, %object
	.size	odd_parity_table, 128
odd_parity_table:
	.ascii	"\001\002\004\007\010\013\015\016\020\023\025\026\031"
	.ascii	"\032\034\037 #%&)*,/12478;=>@CEFIJLOQRTWX[]^abdghkm"
	.ascii	"npsuvyz|\177\200\203\205\206\211\212\214\217\221\222"
	.ascii	"\224\227\230\233\235\236\241\242\244\247\250\253\255"
	.ascii	"\256\260\263\265\266\271\272\274\277\301\302\304\307"
	.ascii	"\310\313\315\316\320\323\325\326\331\332\334\337\340"
	.ascii	"\343\345\346\351\352\354\357\361\362\364\367\370\373"
	.ascii	"\375\376"
	.section	.rodata.weak_key_table,"a"
	.align	2
	.set	.LANCHOR1,. + 0
	.type	weak_key_table, %object
	.size	weak_key_table, 128
weak_key_table:
	.ascii	"\001\001\001\001\001\001\001\001"
	.ascii	"\376\376\376\376\376\376\376\376"
	.ascii	"\037\037\037\037\016\016\016\016"
	.ascii	"\340\340\340\340\361\361\361\361"
	.ascii	"\001\037\001\037\001\016\001\016"
	.ascii	"\037\001\037\001\016\001\016\001"
	.ascii	"\001\340\001\340\001\361\001\361"
	.ascii	"\340\001\340\001\361\001\361\001"
	.ascii	"\001\376\001\376\001\376\001\376"
	.ascii	"\376\001\376\001\376\001\376\001"
	.ascii	"\037\340\037\340\016\361\016\361"
	.ascii	"\340\037\340\037\361\016\361\016"
	.ascii	"\037\376\037\376\016\376\016\376"
	.ascii	"\376\037\376\037\376\016\376\016"
	.ascii	"\340\376\340\376\361\376\361\376"
	.ascii	"\376\340\376\340\376\361\376\361"
	.text
.Letext0:
	.file 3 "/home/sebin/LIOT/gcc-arm-none-eabi-9-2019-q4-major/arm-none-eabi/include/machine/_default_types.h"
	.file 4 "/home/sebin/LIOT/gcc-arm-none-eabi-9-2019-q4-major/lib/gcc/arm-none-eabi/9.2.1/include/stddef.h"
	.file 5 "/home/sebin/LIOT/gcc-arm-none-eabi-9-2019-q4-major/arm-none-eabi/include/sys/_stdint.h"
	.file 6 "/home/sebin/thesis/zephyrproject/modules/crypto/mbedtls/include/mbedtls/des.h"
	.file 7 "/home/sebin/LIOT/gcc-arm-none-eabi-9-2019-q4-major/arm-none-eabi/include/sys/lock.h"
	.file 8 "/home/sebin/LIOT/gcc-arm-none-eabi-9-2019-q4-major/arm-none-eabi/include/sys/_types.h"
	.file 9 "/home/sebin/LIOT/gcc-arm-none-eabi-9-2019-q4-major/arm-none-eabi/include/sys/reent.h"
	.file 10 "/home/sebin/thesis/zephyrproject/modules/crypto/mbedtls/include/mbedtls/platform_util.h"
	.file 11 "/home/sebin/LIOT/gcc-arm-none-eabi-9-2019-q4-major/arm-none-eabi/include/string.h"
	.file 12 "<built-in>"