	.cpu cortex-m4
	.eabi_attribute 27, 1
	.eabi_attribute 28, 1
	.eabi_attribute 20, 1
	.eabi_attribute 21, 1
	.eabi_attribute 23, 3
	.eabi_attribute 24, 1
	.eabi_attribute 25, 1
	.eabi_attribute 26, 1
	.eabi_attribute 30, 1
	.eabi_attribute 34, 1
	.eabi_attribute 38, 1
	.eabi_attribute 18, 4
	.file	"pkparse.c"
	.text
.Ltext0:
	.cfi_sections	.debug_frame
	.section	.text.pk_get_pk_alg,"ax",%progbits
	.align	1
	.arch armv7e-m
	.syntax unified
	.thumb
	.thumb_func
	.fpu fpv4-sp-d16
	.type	pk_get_pk_alg, %function
pk_get_pk_alg:
.LVL0:
.LFB29:
	.file 1 "/home/sebin/thesis/zephyrproject/modules/crypto/mbedtls/library/pkparse.c"
	.loc 1 581 1 view -0
	.cfi_startproc
	@ args = 0, pretend = 0, frame = 16
	@ frame_needed = 0, uses_anonymous_args = 0
	.loc 1 581 1 is_stmt 0 view .LVU1
	push	{r4, r5, r6, lr}
	.cfi_def_cfa_offset 16
	.cfi_offset 4, -16
	.cfi_offset 5, -12
	.cfi_offset 6, -8
	.cfi_offset 14, -4
	sub	sp, sp, #16
	.cfi_def_cfa_offset 32
	mov	r6, r2
	mov	r4, r3
	.loc 1 582 5 is_stmt 1 view .LVU2
.LVL1:
	.loc 1 583 5 view .LVU3
	.loc 1 585 4 view .LVU4
.LBB54:
.LBI54:
	.file 2 "/home/sebin/LIOT/gcc-arm-none-eabi-9-2019-q4-major/arm-none-eabi/include/ssp/string.h"
	.loc 2 86 189 view .LVU5
.LBB55:
	.loc 2 86 238 view .LVU6
	.loc 2 86 245 is_stmt 0 view .LVU7
	movs	r5, #0
	str	r5, [r3]	@ unaligned
	str	r5, [r3, #4]	@ unaligned
	str	r5, [r3, #8]	@ unaligned
.LVL2:
	.loc 2 86 245 view .LVU8
.LBE55:
.LBE54:
	.loc 1 587 5 is_stmt 1 view .LVU9
	.loc 1 587 17 is_stmt 0 view .LVU10
	add	r2, sp, #4
.LVL3:
	.loc 1 587 17 view .LVU11
	bl	mbedtls_asn1_get_alg
.LVL4:
	.loc 1 587 7 view .LVU12
	cbz	r0, .L2
	.loc 1 588 9 is_stmt 1 view .LVU13
.LVL5:
.LBB56:
.LBI56:
	.file 3 "/home/sebin/thesis/zephyrproject/modules/crypto/mbedtls/include/mbedtls/error.h"
	.loc 3 152 19 view .LVU14
.LBB57:
	.loc 3 159 5 view .LVU15
	.loc 3 160 5 view .LVU16
	.loc 3 162 5 view .LVU17
	.loc 3 162 18 is_stmt 0 view .LVU18
	sub	r0, r0, #14976
.LVL6:
.L1:
	.loc 3 162 18 view .LVU19
.LBE57:
.LBE56:
	.loc 1 604 1 view .LVU20
	add	sp, sp, #16
	.cfi_remember_state
	.cfi_def_cfa_offset 16
	@ sp needed
	pop	{r4, r5, r6, pc}
.LVL7:
.L2:
	.cfi_restore_state
	.loc 1 590 5 is_stmt 1 view .LVU21
	.loc 1 590 9 is_stmt 0 view .LVU22
	mov	r1, r6
	add	r0, sp, #4
.LVL8:
	.loc 1 590 9 view .LVU23
	bl	mbedtls_oid_get_pk_alg
.LVL9:
	.loc 1 590 7 view .LVU24
	cbnz	r0, .L5
	.loc 1 596 5 is_stmt 1 view .LVU25
	.loc 1 596 9 is_stmt 0 view .LVU26
	ldrb	r3, [r6]	@ zero_extendqisi2
	.loc 1 596 7 view .LVU27
	cmp	r3, #1
	bne	.L1
	.loc 1 597 23 discriminator 1 view .LVU28
	ldr	r3, [r4]
	.loc 1 596 35 discriminator 1 view .LVU29
	cmp	r3, #5
	beq	.L4
	.loc 1 597 37 view .LVU30
	cbnz	r3, .L6
.L4:
	.loc 1 598 23 discriminator 1 view .LVU31
	ldr	r3, [r4, #4]
	.loc 1 597 59 discriminator 1 view .LVU32
	cmp	r3, #0
	beq	.L1
	.loc 1 600 15 view .LVU33
	ldr	r0, .L9
	b	.L1
.L5:
	.loc 1 591 15 view .LVU34
	ldr	r0, .L9+4
	b	.L1
.L6:
	.loc 1 600 15 view .LVU35
	ldr	r0, .L9
	b	.L1
.L10:
	.align	2
.L9:
	.word	-14976
	.word	-15488
	.cfi_endproc
.LFE29:
	.size	pk_get_pk_alg, .-pk_get_pk_alg
	.section	.text.pk_get_rsapubkey,"ax",%progbits
	.align	1
	.syntax unified
	.thumb
	.thumb_func
	.fpu fpv4-sp-d16
	.type	pk_get_rsapubkey, %function
pk_get_rsapubkey:
.LVL10:
.LFB28:
	.loc 1 526 1 is_stmt 1 view -0
	.cfi_startproc
	@ args = 0, pretend = 0, frame = 8
	@ frame_needed = 0, uses_anonymous_args = 0
	.loc 1 526 1 is_stmt 0 view .LVU37
	push	{r4, r5, r6, lr}
	.cfi_def_cfa_offset 16
	.cfi_offset 4, -16
	.cfi_offset 5, -12
	.cfi_offset 6, -8
	.cfi_offset 14, -4
	sub	sp, sp, #40
	.cfi_def_cfa_offset 56
	mov	r4, r0
	mov	r5, r1
	mov	r6, r2
	.loc 1 527 5 is_stmt 1 view .LVU38
.LVL11:
	.loc 1 528 5 view .LVU39
	.loc 1 530 5 view .LVU40
	.loc 1 530 17 is_stmt 0 view .LVU41
	movs	r3, #48
	add	r2, sp, #36
.LVL12:
	.loc 1 530 17 view .LVU42
	bl	mbedtls_asn1_get_tag
.LVL13:
	.loc 1 530 7 view .LVU43
	cbnz	r0, .L23
	.loc 1 534 5 is_stmt 1 view .LVU44
	.loc 1 534 9 is_stmt 0 view .LVU45
	ldr	r3, [r4]
	.loc 1 534 12 view .LVU46
	ldr	r2, [sp, #36]
	add	r3, r3, r2
	.loc 1 534 7 view .LVU47
	cmp	r3, r5
	bne	.L18
	.loc 1 539 5 is_stmt 1 view .LVU48
	.loc 1 539 17 is_stmt 0 view .LVU49
	movs	r3, #2
	add	r2, sp, #36
	mov	r1, r5
	mov	r0, r4
.LVL14:
	.loc 1 539 17 view .LVU50
	bl	mbedtls_asn1_get_tag
.LVL15:
	.loc 1 539 7 view .LVU51
	cbz	r0, .L14
	.loc 1 540 9 is_stmt 1 view .LVU52
.LVL16:
.LBB58:
.LBI58:
	.loc 3 152 19 view .LVU53
.LBB59:
	.loc 3 159 5 view .LVU54
	.loc 3 160 5 view .LVU55
	.loc 3 162 5 view .LVU56
	.loc 3 162 18 is_stmt 0 view .LVU57
	sub	r0, r0, #15104
.LVL17:
	.loc 3 162 18 view .LVU58
.LBE59:
.LBE58:
	.loc 1 540 17 view .LVU59
	b	.L11
.LVL18:
.L23:
	.loc 1 532 9 is_stmt 1 view .LVU60
.LBB60:
.LBI60:
	.loc 3 152 19 view .LVU61
.LBB61:
	.loc 3 159 5 view .LVU62
	.loc 3 160 5 view .LVU63
	.loc 3 162 5 view .LVU64
	.loc 3 162 18 is_stmt 0 view .LVU65
	sub	r0, r0, #15104
.LVL19:
.L11:
	.loc 3 162 18 view .LVU66
.LBE61:
.LBE60:
	.loc 1 569 1 view .LVU67
	add	sp, sp, #40
	.cfi_remember_state
	.cfi_def_cfa_offset 16
	@ sp needed
	pop	{r4, r5, r6, pc}
.LVL20:
.L14:
	.cfi_restore_state
	.loc 1 542 5 is_stmt 1 view .LVU68
	.loc 1 542 17 is_stmt 0 view .LVU69
	movs	r3, #0
	str	r3, [sp, #24]
	str	r3, [sp, #20]
	str	r3, [sp, #16]
	str	r3, [sp, #12]
	str	r3, [sp, #8]
	str	r3, [sp, #4]
	str	r3, [sp]
	ldr	r2, [sp, #36]
	ldr	r1, [r4]
	mov	r0, r6
.LVL21:
	.loc 1 542 17 view .LVU70
	bl	mbedtls_rsa_import_raw
.LVL22:
	.loc 1 542 7 view .LVU71
	cmp	r0, #0
	bne	.L19
	.loc 1 546 5 is_stmt 1 view .LVU72
	.loc 1 546 8 is_stmt 0 view .LVU73
	ldr	r3, [r4]
	ldr	r2, [sp, #36]
	add	r3, r3, r2
	str	r3, [r4]
	.loc 1 549 5 is_stmt 1 view .LVU74
	.loc 1 549 17 is_stmt 0 view .LVU75
	movs	r3, #2
	add	r2, sp, #36
	mov	r1, r5
	mov	r0, r4
.LVL23:
	.loc 1 549 17 view .LVU76
	bl	mbedtls_asn1_get_tag
.LVL24:
	.loc 1 549 7 view .LVU77
	cbz	r0, .L15
	.loc 1 550 9 is_stmt 1 view .LVU78
.LVL25:
.LBB62:
.LBI62:
	.loc 3 152 19 view .LVU79
.LBB63:
	.loc 3 159 5 view .LVU80
	.loc 3 160 5 view .LVU81
	.loc 3 162 5 view .LVU82
	.loc 3 162 18 is_stmt 0 view .LVU83
	sub	r0, r0, #15104
.LVL26:
	.loc 3 162 18 view .LVU84
.LBE63:
.LBE62:
	.loc 1 550 17 view .LVU85
	b	.L11
.LVL27:
.L15:
	.loc 1 552 5 is_stmt 1 view .LVU86
	.loc 1 552 17 is_stmt 0 view .LVU87
	ldr	r3, [sp, #36]
	str	r3, [sp, #24]
	ldr	r3, [r4]
	str	r3, [sp, #20]
	movs	r1, #0
	str	r1, [sp, #16]
	str	r1, [sp, #12]
	str	r1, [sp, #8]
	str	r1, [sp, #4]
	str	r1, [sp]
	mov	r3, r1
	mov	r2, r1
	mov	r0, r6
.LVL28:
	.loc 1 552 17 view .LVU88
	bl	mbedtls_rsa_import_raw
.LVL29:
	.loc 1 552 7 view .LVU89
	cbnz	r0, .L20
	.loc 1 556 5 is_stmt 1 view .LVU90
	.loc 1 556 8 is_stmt 0 view .LVU91
	ldr	r3, [r4]
	ldr	r2, [sp, #36]
	add	r3, r3, r2
	str	r3, [r4]
	.loc 1 558 5 is_stmt 1 view .LVU92
	.loc 1 558 9 is_stmt 0 view .LVU93
	mov	r0, r6
.LVL30:
	.loc 1 558 9 view .LVU94
	bl	mbedtls_rsa_complete
.LVL31:
	.loc 1 558 7 view .LVU95
	cbnz	r0, .L16
	.loc 1 559 9 discriminator 1 view .LVU96
	mov	r0, r6
	bl	mbedtls_rsa_check_pubkey
.LVL32:
	.loc 1 558 42 discriminator 1 view .LVU97
	cbnz	r0, .L16
	.loc 1 564 5 is_stmt 1 view .LVU98
	.loc 1 564 9 is_stmt 0 view .LVU99
	ldr	r3, [r4]
	.loc 1 564 7 view .LVU100
	cmp	r3, r5
	beq	.L11
	.loc 1 565 17 view .LVU101
	ldr	r0, .L24
	b	.L11
.L16:
	.loc 1 561 9 is_stmt 1 view .LVU102
	.loc 1 561 15 is_stmt 0 view .LVU103
	ldr	r0, .L24+4
	b	.L11
.LVL33:
.L18:
	.loc 1 535 17 view .LVU104
	ldr	r0, .L24
.LVL34:
	.loc 1 535 17 view .LVU105
	b	.L11
.LVL35:
.L19:
	.loc 1 544 15 view .LVU106
	ldr	r0, .L24+4
.LVL36:
	.loc 1 544 15 view .LVU107
	b	.L11
.LVL37:
.L20:
	.loc 1 554 15 view .LVU108
	ldr	r0, .L24+4
.LVL38:
	.loc 1 554 15 view .LVU109
	b	.L11
.L25:
	.align	2
.L24:
	.word	-15206
	.word	-15104
	.cfi_endproc
.LFE28:
	.size	pk_get_rsapubkey, .-pk_get_rsapubkey
	.section	.text.asn1_get_nonzero_mpi,"ax",%progbits
	.align	1
	.syntax unified
	.thumb
	.thumb_func
	.fpu fpv4-sp-d16
	.type	asn1_get_nonzero_mpi, %function
asn1_get_nonzero_mpi:
.LVL39:
.LFB31:
	.loc 1 689 1 is_stmt 1 view -0
	.cfi_startproc
	@ args = 0, pretend = 0, frame = 0
	@ frame_needed = 0, uses_anonymous_args = 0
	.loc 1 689 1 is_stmt 0 view .LVU111
	push	{r3, r4, r5, lr}
	.cfi_def_cfa_offset 16
	.cfi_offset 3, -16
	.cfi_offset 4, -12
	.cfi_offset 5, -8
	.cfi_offset 14, -4
	mov	r4, r2
	.loc 1 690 5 is_stmt 1 view .LVU112
	.loc 1 692 5 view .LVU113
	.loc 1 692 11 is_stmt 0 view .LVU114
	bl	mbedtls_asn1_get_mpi
.LVL40:
	.loc 1 693 5 is_stmt 1 view .LVU115
	.loc 1 693 7 is_stmt 0 view .LVU116
	mov	r5, r0
	cbz	r0, .L30
.LVL41:
.L26:
	.loc 1 700 1 view .LVU117
	mov	r0, r5
	pop	{r3, r4, r5, pc}
.LVL42:
.L30:
	.loc 1 696 5 is_stmt 1 view .LVU118
	.loc 1 696 9 is_stmt 0 view .LVU119
	movs	r1, #0
	mov	r0, r4
.LVL43:
	.loc 1 696 9 view .LVU120
	bl	mbedtls_mpi_cmp_int
.LVL44:
	.loc 1 696 7 view .LVU121
	cmp	r0, #0
	bne	.L26
	.loc 1 697 15 view .LVU122
	ldr	r5, .L31
.LVL45:
	.loc 1 697 15 view .LVU123
	b	.L26
.L32:
	.align	2
.L31:
	.word	-15616
	.cfi_endproc
.LFE31:
	.size	asn1_get_nonzero_mpi, .-asn1_get_nonzero_mpi
	.section	.text.pk_parse_key_pkcs1_der,"ax",%progbits
	.align	1
	.syntax unified
	.thumb
	.thumb_func
	.fpu fpv4-sp-d16
	.type	pk_parse_key_pkcs1_der, %function
pk_parse_key_pkcs1_der:
.LVL46:
.LFB32:
	.loc 1 708 1 is_stmt 1 view -0
	.cfi_startproc
	@ args = 0, pretend = 0, frame = 24
	@ frame_needed = 0, uses_anonymous_args = 0
	.loc 1 708 1 is_stmt 0 view .LVU125
	push	{r4, r5, r6, lr}
	.cfi_def_cfa_offset 16
	.cfi_offset 4, -16
	.cfi_offset 5, -12
	.cfi_offset 6, -8
	.cfi_offset 14, -4
	sub	sp, sp, #32
	.cfi_def_cfa_offset 48
	mov	r6, r0
	mov	r4, r1
	mov	r5, r2
	.loc 1 709 5 is_stmt 1 view .LVU126
	.loc 1 710 5 view .LVU127
	.loc 1 711 5 view .LVU128
	.loc 1 713 5 view .LVU129
	.loc 1 714 5 view .LVU130
	add	r0, sp, #8
.LVL47:
	.loc 1 714 5 is_stmt 0 view .LVU131
	bl	mbedtls_mpi_init
.LVL48:
	.loc 1 716 5 is_stmt 1 view .LVU132
	.loc 1 716 7 is_stmt 0 view .LVU133
	str	r4, [sp, #20]
	.loc 1 717 5 is_stmt 1 view .LVU134
.LVL49:
	.loc 1 735 5 view .LVU135
	.loc 1 735 17 is_stmt 0 view .LVU136
	movs	r3, #48
	add	r2, sp, #24
	adds	r1, r4, r5
.LVL50:
	.loc 1 735 17 view .LVU137
	add	r0, sp, #20
	bl	mbedtls_asn1_get_tag
.LVL51:
	.loc 1 735 7 view .LVU138
	cbz	r0, .L34
	.loc 1 738 9 is_stmt 1 view .LVU139
.LVL52:
.LBB64:
.LBI64:
	.loc 3 152 19 view .LVU140
.LBB65:
	.loc 3 159 5 view .LVU141
	.loc 3 160 5 view .LVU142
	.loc 3 162 5 view .LVU143
	.loc 3 162 18 is_stmt 0 view .LVU144
	sub	r4, r0, #15616
.LVL53:
.L33:
	.loc 3 162 18 view .LVU145
.LBE65:
.LBE64:
	.loc 1 855 1 view .LVU146
	mov	r0, r4
	add	sp, sp, #32
	.cfi_remember_state
	.cfi_def_cfa_offset 16
	@ sp needed
	pop	{r4, r5, r6, pc}
.LVL54:
.L34:
	.cfi_restore_state
	.loc 1 741 5 is_stmt 1 view .LVU147
	.loc 1 741 9 is_stmt 0 view .LVU148
	ldr	r1, [sp, #20]
	ldr	r3, [sp, #24]
	adds	r5, r1, r3
.LVL55:
	.loc 1 743 5 is_stmt 1 view .LVU149
	.loc 1 743 17 is_stmt 0 view .LVU150
	add	r2, sp, #28
	mov	r1, r5
	add	r0, sp, #20
.LVL56:
	.loc 1 743 17 view .LVU151
	bl	mbedtls_asn1_get_int
.LVL57:
	.loc 1 743 7 view .LVU152
	cbnz	r0, .L61
	.loc 1 748 5 is_stmt 1 view .LVU153
	.loc 1 748 17 is_stmt 0 view .LVU154
	ldr	r3, [sp, #28]
	.loc 1 748 7 view .LVU155
	cmp	r3, #0
	bne	.L57
	.loc 1 754 5 is_stmt 1 view .LVU156
	.loc 1 754 17 is_stmt 0 view .LVU157
	add	r2, sp, #8
	mov	r1, r5
	add	r0, sp, #20
.LVL58:
	.loc 1 754 17 view .LVU158
	bl	asn1_get_nonzero_mpi
.LVL59:
	.loc 1 754 7 view .LVU159
	mov	r4, r0
.LVL60:
	.loc 1 754 7 view .LVU160
	cbz	r0, .L62
.L39:
.LVL61:
	.loc 1 841 5 is_stmt 1 view .LVU161
	add	r0, sp, #8
	bl	mbedtls_mpi_free
.LVL62:
	.loc 1 843 5 view .LVU162
	.loc 1 843 7 is_stmt 0 view .LVU163
	cmp	r4, #0
	beq	.L33
	.loc 1 846 9 is_stmt 1 view .LVU164
	.loc 1 846 11 is_stmt 0 view .LVU165
	movw	r3, #65408
	tst	r4, r3
	bne	.L59
	.loc 1 847 13 is_stmt 1 view .LVU166
.LVL63:
.LBB66:
.LBI66:
	.loc 3 152 19 view .LVU167
.LBB67:
	.loc 3 159 5 view .LVU168
	.loc 3 160 5 view .LVU169
	.loc 3 162 5 view .LVU170
	.loc 3 162 18 is_stmt 0 view .LVU171
	sub	r4, r4, #15616
.LVL64:
.L56:
	.loc 3 162 18 view .LVU172
.LBE67:
.LBE66:
	.loc 1 851 9 is_stmt 1 view .LVU173
	mov	r0, r6
	bl	mbedtls_rsa_free
.LVL65:
	b	.L33
.LVL66:
.L61:
	.loc 1 745 9 view .LVU174
.LBB68:
.LBI68:
	.loc 3 152 19 view .LVU175
.LBB69:
	.loc 3 159 5 view .LVU176
	.loc 3 160 5 view .LVU177
	.loc 3 162 5 view .LVU178
	.loc 3 162 18 is_stmt 0 view .LVU179
	sub	r4, r0, #15616
.LVL67:
	.loc 3 162 18 view .LVU180
.LBE69:
.LBE68:
	.loc 1 745 17 view .LVU181
	b	.L33
.L62:
	.loc 1 755 17 discriminator 1 view .LVU182
	movs	r2, #0
	str	r2, [sp, #4]
	str	r2, [sp]
	mov	r3, r2
	add	r1, sp, #8
	mov	r0, r6
.LVL68:
	.loc 1 755 17 discriminator 1 view .LVU183
	bl	mbedtls_rsa_import
.LVL69:
	.loc 1 754 60 discriminator 1 view .LVU184
	mov	r4, r0
	cmp	r0, #0
	bne	.L39
	.loc 1 760 5 is_stmt 1 view .LVU185
	.loc 1 760 17 is_stmt 0 view .LVU186
	add	r2, sp, #8
	mov	r1, r5
	add	r0, sp, #20
.LVL70:
	.loc 1 760 17 view .LVU187
	bl	asn1_get_nonzero_mpi
.LVL71:
	.loc 1 760 7 view .LVU188
	mov	r4, r0
	cmp	r0, #0
	bne	.L39
	.loc 1 761 17 discriminator 1 view .LVU189
	add	r3, sp, #8
	str	r3, [sp, #4]
	movs	r1, #0
	str	r1, [sp]
	mov	r3, r1
	mov	r2, r1
	mov	r0, r6
.LVL72:
	.loc 1 761 17 discriminator 1 view .LVU190
	bl	mbedtls_rsa_import
.LVL73:
	.loc 1 760 60 discriminator 1 view .LVU191
	mov	r4, r0
	cmp	r0, #0
	bne	.L39
	.loc 1 766 5 is_stmt 1 view .LVU192
	.loc 1 766 17 is_stmt 0 view .LVU193
	add	r2, sp, #8
	mov	r1, r5
	add	r0, sp, #20
.LVL74:
	.loc 1 766 17 view .LVU194
	bl	asn1_get_nonzero_mpi
.LVL75:
	.loc 1 766 7 view .LVU195
	mov	r4, r0
	cmp	r0, #0
	bne	.L39
	.loc 1 767 17 discriminator 1 view .LVU196
	movs	r1, #0
	str	r1, [sp, #4]
	add	r3, sp, #8
	str	r3, [sp]
	mov	r3, r1
	mov	r2, r1
	mov	r0, r6
.LVL76:
	.loc 1 767 17 discriminator 1 view .LVU197
	bl	mbedtls_rsa_import
.LVL77:
	.loc 1 766 60 discriminator 1 view .LVU198
	mov	r4, r0
	cmp	r0, #0
	bne	.L39
	.loc 1 772 5 is_stmt 1 view .LVU199
	.loc 1 772 17 is_stmt 0 view .LVU200
	add	r2, sp, #8
	mov	r1, r5
	add	r0, sp, #20
.LVL78:
	.loc 1 772 17 view .LVU201
	bl	asn1_get_nonzero_mpi
.LVL79:
	.loc 1 772 7 view .LVU202
	mov	r4, r0
	cmp	r0, #0
	bne	.L39
	.loc 1 773 17 discriminator 1 view .LVU203
	movs	r1, #0
	str	r1, [sp, #4]
	str	r1, [sp]
	mov	r3, r1
	add	r2, sp, #8
	mov	r0, r6
.LVL80:
	.loc 1 773 17 discriminator 1 view .LVU204
	bl	mbedtls_rsa_import
.LVL81:
	.loc 1 772 60 discriminator 1 view .LVU205
	mov	r4, r0
	cmp	r0, #0
	bne	.L39
	.loc 1 778 5 is_stmt 1 view .LVU206
	.loc 1 778 17 is_stmt 0 view .LVU207
	add	r2, sp, #8
	mov	r1, r5
	add	r0, sp, #20
.LVL82:
	.loc 1 778 17 view .LVU208
	bl	asn1_get_nonzero_mpi
.LVL83:
	.loc 1 778 7 view .LVU209
	mov	r4, r0
	cmp	r0, #0
	bne	.L39
	.loc 1 779 17 discriminator 1 view .LVU210
	movs	r1, #0
	str	r1, [sp, #4]
	str	r1, [sp]
	add	r3, sp, #8
	mov	r2, r1
	mov	r0, r6
.LVL84:
	.loc 1 779 17 discriminator 1 view .LVU211
	bl	mbedtls_rsa_import
.LVL85:
	.loc 1 778 60 discriminator 1 view .LVU212
	mov	r4, r0
	cmp	r0, #0
	bne	.L39
	.loc 1 796 5 is_stmt 1 view .LVU213
	.loc 1 796 17 is_stmt 0 view .LVU214
	add	r2, sp, #8
	mov	r1, r5
	add	r0, sp, #20
.LVL86:
	.loc 1 796 17 view .LVU215
	bl	asn1_get_nonzero_mpi
.LVL87:
	.loc 1 796 7 view .LVU216
	mov	r4, r0
	cmp	r0, #0
	bne	.L39
	.loc 1 797 17 discriminator 1 view .LVU217
	add	r1, sp, #8
	add	r0, r6, #68
.LVL88:
	.loc 1 797 17 discriminator 1 view .LVU218
	bl	mbedtls_mpi_copy
.LVL89:
	.loc 1 796 60 discriminator 1 view .LVU219
	mov	r4, r0
	cmp	r0, #0
	bne	.L39
	.loc 1 801 5 is_stmt 1 view .LVU220
	.loc 1 801 17 is_stmt 0 view .LVU221
	add	r2, sp, #8
	mov	r1, r5
	add	r0, sp, #20
.LVL90:
	.loc 1 801 17 view .LVU222
	bl	asn1_get_nonzero_mpi
.LVL91:
	.loc 1 801 7 view .LVU223
	mov	r4, r0
	cmp	r0, #0
	bne	.L39
	.loc 1 802 17 discriminator 1 view .LVU224
	add	r1, sp, #8
	add	r0, r6, #80
.LVL92:
	.loc 1 802 17 discriminator 1 view .LVU225
	bl	mbedtls_mpi_copy
.LVL93:
	.loc 1 801 60 discriminator 1 view .LVU226
	mov	r4, r0
	cmp	r0, #0
	bne	.L39
	.loc 1 806 5 is_stmt 1 view .LVU227
	.loc 1 806 17 is_stmt 0 view .LVU228
	add	r2, sp, #8
	mov	r1, r5
	add	r0, sp, #20
.LVL94:
	.loc 1 806 17 view .LVU229
	bl	asn1_get_nonzero_mpi
.LVL95:
	.loc 1 806 7 view .LVU230
	mov	r4, r0
	cmp	r0, #0
	bne	.L39
	.loc 1 807 17 discriminator 1 view .LVU231
	add	r1, sp, #8
	add	r0, r6, #92
.LVL96:
	.loc 1 807 17 discriminator 1 view .LVU232
	bl	mbedtls_mpi_copy
.LVL97:
	.loc 1 806 60 discriminator 1 view .LVU233
	mov	r4, r0
	cmp	r0, #0
	bne	.L39
	.loc 1 827 5 is_stmt 1 view .LVU234
	.loc 1 827 17 is_stmt 0 view .LVU235
	mov	r0, r6
.LVL98:
	.loc 1 827 17 view .LVU236
	bl	mbedtls_rsa_complete
.LVL99:
	.loc 1 827 7 view .LVU237
	mov	r4, r0
	cmp	r0, #0
	bne	.L39
	.loc 1 828 17 discriminator 1 view .LVU238
	mov	r0, r6
.LVL100:
	.loc 1 828 17 discriminator 1 view .LVU239
	bl	mbedtls_rsa_check_pubkey
.LVL101:
	.loc 1 827 52 discriminator 1 view .LVU240
	mov	r4, r0
	cmp	r0, #0
	bne	.L39
	.loc 1 833 5 is_stmt 1 view .LVU241
	.loc 1 833 11 is_stmt 0 view .LVU242
	ldr	r3, [sp, #20]
	.loc 1 833 7 view .LVU243
	cmp	r3, r5
	beq	.L39
	.loc 1 835 15 view .LVU244
	ldr	r4, .L63
	b	.L39
.LVL102:
.L59:
	.loc 1 849 17 view .LVU245
	ldr	r4, .L63+4
.LVL103:
	.loc 1 849 17 view .LVU246
	b	.L56
.LVL104:
.L57:
	.loc 1 750 15 view .LVU247
	ldr	r4, .L63+8
.LVL105:
	.loc 1 750 15 view .LVU248
	b	.L33
.L64:
	.align	2
.L63:
	.word	-15718
	.word	-15616
	.word	-15744
	.cfi_endproc
.LFE32:
	.size	pk_parse_key_pkcs1_der, .-pk_parse_key_pkcs1_der
	.section	.text.pk_parse_key_pkcs8_unencrypted_der,"ax",%progbits
	.align	1
	.syntax unified
	.thumb
	.thumb_func
	.fpu fpv4-sp-d16
	.type	pk_parse_key_pkcs8_unencrypted_der, %function
pk_parse_key_pkcs8_unencrypted_der:
.LVL106:
.LFB33:
	.loc 1 1004 1 is_stmt 1 view -0
	.cfi_startproc
	@ args = 4, pretend = 0, frame = 40
	@ frame_needed = 0, uses_anonymous_args = 0
	.loc 1 1004 1 is_stmt 0 view .LVU250
	push	{r4, r5, r6, lr}
	.cfi_def_cfa_offset 16
	.cfi_offset 4, -16
	.cfi_offset 5, -12
	.cfi_offset 6, -8
	.cfi_offset 14, -4
	sub	sp, sp, #40
	.cfi_def_cfa_offset 56
	mov	r5, r0
	mov	r0, r2
.LVL107:
	.loc 1 1005 5 is_stmt 1 view .LVU251
	.loc 1 1006 5 view .LVU252
	.loc 1 1007 5 view .LVU253
	.loc 1 1008 5 view .LVU254
	.loc 1 1008 20 is_stmt 0 view .LVU255
	str	r1, [sp, #16]
	.loc 1 1009 5 is_stmt 1 view .LVU256
.LVL108:
	.loc 1 1010 5 view .LVU257
	.loc 1 1010 23 is_stmt 0 view .LVU258
	movs	r3, #0
.LVL109:
	.loc 1 1010 23 view .LVU259
	strb	r3, [sp, #15]
	.loc 1 1011 5 is_stmt 1 view .LVU260
	.loc 1 1014 5 view .LVU261
	.loc 1 1015 5 view .LVU262
	.loc 1 1034 5 view .LVU263
	.loc 1 1034 17 is_stmt 0 view .LVU264
	movs	r3, #48
	add	r2, sp, #32
.LVL110:
	.loc 1 1034 17 view .LVU265
	add	r1, r1, r0
.LVL111:
	.loc 1 1034 17 view .LVU266
	add	r0, sp, #16
.LVL112:
	.loc 1 1034 17 view .LVU267
	bl	mbedtls_asn1_get_tag
.LVL113:
	.loc 1 1034 7 view .LVU268
	cbz	r0, .L66
	.loc 1 1037 9 is_stmt 1 view .LVU269
.LVL114:
.LBB70:
.LBI70:
	.loc 3 152 19 view .LVU270
.LBB71:
	.loc 3 159 5 view .LVU271
	.loc 3 160 5 view .LVU272
	.loc 3 162 5 view .LVU273
	.loc 3 162 18 is_stmt 0 view .LVU274
	sub	r4, r0, #15616
.LVL115:
.L65:
	.loc 3 162 18 view .LVU275
.LBE71:
.LBE70:
	.loc 1 1090 1 view .LVU276
	mov	r0, r4
	add	sp, sp, #40
	.cfi_remember_state
	.cfi_def_cfa_offset 16
	@ sp needed
	pop	{r4, r5, r6, pc}
.LVL116:
.L66:
	.cfi_restore_state
	.loc 1 1040 5 is_stmt 1 view .LVU277
	.loc 1 1040 9 is_stmt 0 view .LVU278
	ldr	r6, [sp, #16]
	ldr	r3, [sp, #32]
	add	r6, r6, r3
.LVL117:
	.loc 1 1042 5 is_stmt 1 view .LVU279
	.loc 1 1042 17 is_stmt 0 view .LVU280
	add	r2, sp, #36
	mov	r1, r6
	add	r0, sp, #16
.LVL118:
	.loc 1 1042 17 view .LVU281
	bl	mbedtls_asn1_get_int
.LVL119:
	.loc 1 1042 7 view .LVU282
	cbnz	r0, .L75
	.loc 1 1045 5 is_stmt 1 view .LVU283
	.loc 1 1045 17 is_stmt 0 view .LVU284
	ldr	r3, [sp, #36]
	.loc 1 1045 7 view .LVU285
	cbz	r3, .L69
	.loc 1 1046 9 is_stmt 1 view .LVU286
.LVL120:
.LBB72:
.LBI72:
	.loc 3 152 19 view .LVU287
.LBB73:
	.loc 3 159 5 view .LVU288
	.loc 3 160 5 view .LVU289
	.loc 3 162 5 view .LVU290
	.loc 3 162 18 is_stmt 0 view .LVU291
	sub	r4, r0, #15744
.LVL121:
	.loc 3 162 18 view .LVU292
.LBE73:
.LBE72:
	.loc 1 1046 17 view .LVU293
	b	.L65
.L75:
	.loc 1 1043 9 is_stmt 1 view .LVU294
.LVL122:
.LBB74:
.LBI74:
	.loc 3 152 19 view .LVU295
.LBB75:
	.loc 3 159 5 view .LVU296
	.loc 3 160 5 view .LVU297
	.loc 3 162 5 view .LVU298
	.loc 3 162 18 is_stmt 0 view .LVU299
	sub	r4, r0, #15616
.LVL123:
	.loc 3 162 18 view .LVU300
.LBE75:
.LBE74:
	.loc 1 1043 17 view .LVU301
	b	.L65
.L69:
	.loc 1 1048 5 is_stmt 1 view .LVU302
	.loc 1 1048 17 is_stmt 0 view .LVU303
	add	r3, sp, #20
	add	r2, sp, #15
	mov	r1, r6
	add	r0, sp, #16
.LVL124:
	.loc 1 1048 17 view .LVU304
	bl	pk_get_pk_alg
.LVL125:
	.loc 1 1048 7 view .LVU305
	mov	r4, r0
	cmp	r0, #0
	bne	.L65
	.loc 1 1053 5 is_stmt 1 view .LVU306
	.loc 1 1053 17 is_stmt 0 view .LVU307
	movs	r3, #4
	add	r2, sp, #32
	mov	r1, r6
	add	r0, sp, #16
.LVL126:
	.loc 1 1053 17 view .LVU308
	bl	mbedtls_asn1_get_tag
.LVL127:
	.loc 1 1053 7 view .LVU309
	cbnz	r0, .L76
	.loc 1 1056 5 is_stmt 1 view .LVU310
	.loc 1 1056 13 is_stmt 0 view .LVU311
	ldr	r3, [sp, #32]
	.loc 1 1056 7 view .LVU312
	cbz	r3, .L71
	.loc 1 1060 5 is_stmt 1 view .LVU313
	.loc 1 1060 21 is_stmt 0 view .LVU314
	ldrb	r0, [sp, #15]	@ zero_extendqisi2
.LVL128:
	.loc 1 1060 21 view .LVU315
	bl	mbedtls_pk_info_from_type
.LVL129:
	.loc 1 1060 7 view .LVU316
	mov	r1, r0
	cbz	r0, .L72
	.loc 1 1063 5 is_stmt 1 view .LVU317
	.loc 1 1063 17 is_stmt 0 view .LVU318
	mov	r0, r5
.LVL130:
	.loc 1 1063 17 view .LVU319
	bl	mbedtls_pk_setup
.LVL131:
	.loc 1 1063 7 view .LVU320
	mov	r4, r0
	cmp	r0, #0
	bne	.L65
	.loc 1 1067 5 is_stmt 1 view .LVU321
	.loc 1 1067 16 is_stmt 0 view .LVU322
	ldrb	r3, [sp, #15]	@ zero_extendqisi2
	.loc 1 1067 7 view .LVU323
	cmp	r3, #1
	bne	.L73
	.loc 1 1069 9 is_stmt 1 view .LVU324
	add	r3, sp, #4
	ldm	r5, {r0, r1}
.LVL132:
	.loc 1 1069 9 is_stmt 0 view .LVU325
	stm	r3, {r0, r1}
.LBB76:
.LBI76:
	.file 4 "/home/sebin/thesis/zephyrproject/modules/crypto/mbedtls/include/mbedtls/pk.h"
	.loc 4 207 36 is_stmt 1 view .LVU326
.LBB77:
	.loc 4 209 5 view .LVU327
.LBE77:
.LBE76:
	.loc 1 1069 21 is_stmt 0 view .LVU328
	ldr	r2, [sp, #32]
	ldr	r1, [sp, #16]
	ldr	r0, [sp, #8]
	bl	pk_parse_key_pkcs1_der
.LVL133:
	.loc 1 1069 11 view .LVU329
	mov	r4, r0
	cmp	r0, #0
	beq	.L65
	.loc 1 1071 13 is_stmt 1 view .LVU330
	mov	r0, r5
.LVL134:
	.loc 1 1071 13 is_stmt 0 view .LVU331
	bl	mbedtls_pk_free
.LVL135:
	.loc 1 1072 13 is_stmt 1 view .LVU332
	.loc 1 1072 19 is_stmt 0 view .LVU333
	b	.L65
.LVL136:
.L76:
	.loc 1 1054 9 is_stmt 1 view .LVU334
.LBB78:
.LBI78:
	.loc 3 152 19 view .LVU335
.LBB79:
	.loc 3 159 5 view .LVU336
	.loc 3 160 5 view .LVU337
	.loc 3 162 5 view .LVU338
	.loc 3 162 18 is_stmt 0 view .LVU339
	sub	r4, r0, #15616
.LVL137:
	.loc 3 162 18 view .LVU340
.LBE79:
.LBE78:
	.loc 1 1054 17 view .LVU341
	b	.L65
.L71:
	.loc 1 1057 17 view .LVU342
	ldr	r4, .L77
	b	.L65
.LVL138:
.L72:
	.loc 1 1061 15 view .LVU343
	ldr	r4, .L77+4
	b	.L65
.LVL139:
.L73:
	.loc 1 1087 15 view .LVU344
	ldr	r4, .L77+4
	b	.L65
.L78:
	.align	2
.L77:
	.word	-15712
	.word	-15488
	.cfi_endproc
.LFE33:
	.size	pk_parse_key_pkcs8_unencrypted_der, .-pk_parse_key_pkcs8_unencrypted_der
	.section	.text.mbedtls_pk_parse_subpubkey,"ax",%progbits
	.align	1
	.global	mbedtls_pk_parse_subpubkey
	.syntax unified
	.thumb
	.thumb_func
	.fpu fpv4-sp-d16
	.type	mbedtls_pk_parse_subpubkey, %function
mbedtls_pk_parse_subpubkey:
.LVL140:
.LFB30:
	.loc 1 613 1 is_stmt 1 view -0
	.cfi_startproc
	@ args = 0, pretend = 0, frame = 32
	@ frame_needed = 0, uses_anonymous_args = 0
	.loc 1 613 1 is_stmt 0 view .LVU346
	push	{r4, r5, r6, r7, lr}
	.cfi_def_cfa_offset 20
	.cfi_offset 4, -20
	.cfi_offset 5, -16
	.cfi_offset 6, -12
	.cfi_offset 7, -8
	.cfi_offset 14, -4
	sub	sp, sp, #36
	.cfi_def_cfa_offset 56
	mov	r4, r0
	mov	r7, r2
	.loc 1 614 5 is_stmt 1 view .LVU347
.LVL141:
	.loc 1 615 5 view .LVU348
	.loc 1 616 5 view .LVU349
	.loc 1 617 5 view .LVU350
	.loc 1 617 23 is_stmt 0 view .LVU351
	movs	r3, #0
	strb	r3, [sp, #15]
	.loc 1 618 5 is_stmt 1 view .LVU352
	.loc 1 620 5 view .LVU353
	.loc 1 620 10 view .LVU354
	.loc 1 620 17 view .LVU355
	.loc 1 621 5 view .LVU356
	.loc 1 621 10 view .LVU357
	.loc 1 621 17 view .LVU358
	.loc 1 622 5 view .LVU359
	.loc 1 622 10 view .LVU360
	.loc 1 622 17 view .LVU361
	.loc 1 623 5 view .LVU362
	.loc 1 623 10 view .LVU363
	.loc 1 623 17 view .LVU364
	.loc 1 625 5 view .LVU365
	.loc 1 625 17 is_stmt 0 view .LVU366
	movs	r3, #48
	add	r2, sp, #28
.LVL142:
	.loc 1 625 17 view .LVU367
	bl	mbedtls_asn1_get_tag
.LVL143:
	.loc 1 625 7 view .LVU368
	cbz	r0, .L80
	.loc 1 628 9 is_stmt 1 view .LVU369
.LVL144:
.LBB80:
.LBI80:
	.loc 3 152 19 view .LVU370
.LBB81:
	.loc 3 159 5 view .LVU371
	.loc 3 160 5 view .LVU372
	.loc 3 162 5 view .LVU373
	.loc 3 162 18 is_stmt 0 view .LVU374
	sub	r5, r0, #15616
.LVL145:
.L79:
	.loc 3 162 18 view .LVU375
.LBE81:
.LBE80:
	.loc 1 673 1 view .LVU376
	mov	r0, r5
	add	sp, sp, #36
	.cfi_remember_state
	.cfi_def_cfa_offset 20
	@ sp needed
	pop	{r4, r5, r6, r7, pc}
.LVL146:
.L80:
	.cfi_restore_state
	.loc 1 631 5 is_stmt 1 view .LVU377
	.loc 1 631 11 is_stmt 0 view .LVU378
	ldr	r6, [r4]
	.loc 1 631 14 view .LVU379
	ldr	r3, [sp, #28]
	.loc 1 631 9 view .LVU380
	add	r6, r6, r3
.LVL147:
	.loc 1 633 5 is_stmt 1 view .LVU381
	.loc 1 633 17 is_stmt 0 view .LVU382
	add	r3, sp, #16
	add	r2, sp, #15
	mov	r1, r6
	mov	r0, r4
.LVL148:
	.loc 1 633 17 view .LVU383
	bl	pk_get_pk_alg
.LVL149:
	.loc 1 633 7 view .LVU384
	mov	r5, r0
	cmp	r0, #0
	bne	.L79
	.loc 1 636 5 is_stmt 1 view .LVU385
	.loc 1 636 17 is_stmt 0 view .LVU386
	add	r2, sp, #28
	mov	r1, r6
	mov	r0, r4
.LVL150:
	.loc 1 636 17 view .LVU387
	bl	mbedtls_asn1_get_bitstring_null
.LVL151:
	.loc 1 636 7 view .LVU388
	cbnz	r0, .L90
	.loc 1 639 5 is_stmt 1 view .LVU389
	.loc 1 639 9 is_stmt 0 view .LVU390
	ldr	r3, [r4]
	.loc 1 639 12 view .LVU391
	ldr	r2, [sp, #28]
	add	r3, r3, r2
	.loc 1 639 7 view .LVU392
	cmp	r3, r6
	bne	.L85
	.loc 1 643 5 is_stmt 1 view .LVU393
	.loc 1 643 21 is_stmt 0 view .LVU394
	ldrb	r0, [sp, #15]	@ zero_extendqisi2
.LVL152:
	.loc 1 643 21 view .LVU395
	bl	mbedtls_pk_info_from_type
.LVL153:
	.loc 1 643 7 view .LVU396
	mov	r1, r0
	cbz	r0, .L86
	.loc 1 646 5 is_stmt 1 view .LVU397
	.loc 1 646 17 is_stmt 0 view .LVU398
	mov	r0, r7
.LVL154:
	.loc 1 646 17 view .LVU399
	bl	mbedtls_pk_setup
.LVL155:
	.loc 1 646 7 view .LVU400
	mov	r5, r0
	cmp	r0, #0
	bne	.L79
	.loc 1 650 5 is_stmt 1 view .LVU401
	.loc 1 650 16 is_stmt 0 view .LVU402
	ldrb	r3, [sp, #15]	@ zero_extendqisi2
	.loc 1 650 7 view .LVU403
	cmp	r3, #1
	beq	.L91
	.loc 1 663 13 view .LVU404
	ldr	r5, .L92
.L83:
.LVL156:
	.loc 1 669 5 is_stmt 1 view .LVU405
	.loc 1 669 7 is_stmt 0 view .LVU406
	cmp	r5, #0
	beq	.L79
.LVL157:
.L84:
	.loc 1 670 9 is_stmt 1 view .LVU407
	mov	r0, r7
	bl	mbedtls_pk_free
.LVL158:
	b	.L79
.LVL159:
.L90:
	.loc 1 637 9 view .LVU408
.LBB82:
.LBI82:
	.loc 3 152 19 view .LVU409
.LBB83:
	.loc 3 159 5 view .LVU410
	.loc 3 160 5 view .LVU411
	.loc 3 162 5 view .LVU412
	.loc 3 162 18 is_stmt 0 view .LVU413
	sub	r5, r0, #15104
.LVL160:
	.loc 3 162 18 view .LVU414
.LBE83:
.LBE82:
	.loc 1 637 17 view .LVU415
	b	.L79
.L91:
	.loc 1 652 9 is_stmt 1 view .LVU416
	add	r3, sp, #4
	ldm	r7, {r0, r1}
.LVL161:
	.loc 1 652 9 is_stmt 0 view .LVU417
	stm	r3, {r0, r1}
.LBB84:
.LBI84:
	.loc 4 207 36 is_stmt 1 view .LVU418
.LBB85:
	.loc 4 209 5 view .LVU419
.LBE85:
.LBE84:
	.loc 1 652 15 is_stmt 0 view .LVU420
	ldr	r2, [sp, #8]
	mov	r1, r6
	mov	r0, r4
	bl	pk_get_rsapubkey
.LVL162:
	.loc 1 665 5 is_stmt 1 view .LVU421
	.loc 1 665 7 is_stmt 0 view .LVU422
	mov	r5, r0
	cmp	r0, #0
	bne	.L83
	.loc 1 665 21 discriminator 1 view .LVU423
	ldr	r3, [r4]
	.loc 1 665 18 discriminator 1 view .LVU424
	cmp	r3, r6
	beq	.L83
	.loc 1 666 15 view .LVU425
	ldr	r5, .L92+4
	b	.L84
.L85:
	.loc 1 640 17 view .LVU426
	ldr	r5, .L92+4
	b	.L79
.LVL163:
.L86:
	.loc 1 644 15 view .LVU427
	ldr	r5, .L92
	b	.L79
.L93:
	.align	2
.L92:
	.word	-15488
	.word	-15206
	.cfi_endproc
.LFE30:
	.size	mbedtls_pk_parse_subpubkey, .-mbedtls_pk_parse_subpubkey
	.section	.text.mbedtls_pk_parse_key,"ax",%progbits
	.align	1
	.global	mbedtls_pk_parse_key
	.syntax unified
	.thumb
	.thumb_func
	.fpu fpv4-sp-d16
	.type	mbedtls_pk_parse_key, %function
mbedtls_pk_parse_key:
.LVL164:
.LFB34:
	.loc 1 1209 1 is_stmt 1 view -0
	.cfi_startproc
	@ args = 12, pretend = 0, frame = 8
	@ frame_needed = 0, uses_anonymous_args = 0
	.loc 1 1210 5 view .LVU429
	.loc 1 1211 5 view .LVU430
	.loc 1 1217 5 view .LVU431
	.loc 1 1217 10 view .LVU432
	.loc 1 1217 17 view .LVU433
	.loc 1 1218 5 view .LVU434
	.loc 1 1218 7 is_stmt 0 view .LVU435
	cbz	r2, .L97
	.loc 1 1209 1 view .LVU436
	push	{r4, r5, r6, lr}
	.cfi_def_cfa_offset 16
	.cfi_offset 4, -16
	.cfi_offset 5, -12
	.cfi_offset 6, -8
	.cfi_offset 14, -4
	sub	sp, sp, #16
	.cfi_def_cfa_offset 32
	mov	r4, r0
	mov	r5, r1
	mov	r6, r2
	.loc 1 1220 5 is_stmt 1 view .LVU437
	.loc 1 1220 10 view .LVU438
	.loc 1 1220 17 view .LVU439
	.loc 1 1334 5 view .LVU440
	.loc 1 1335 5 view .LVU441
	.loc 1 1373 5 view .LVU442
	.loc 1 1373 17 is_stmt 0 view .LVU443
	ldr	r3, [sp, #40]
.LVL165:
	.loc 1 1373 17 view .LVU444
	str	r3, [sp]
	ldr	r3, [sp, #36]
	bl	pk_parse_key_pkcs8_unencrypted_der
.LVL166:
	.loc 1 1373 7 view .LVU445
	cbnz	r0, .L102
.LVL167:
.L94:
	.loc 1 1417 1 view .LVU446
	add	sp, sp, #16
	.cfi_remember_state
	.cfi_def_cfa_offset 16
	@ sp needed
	pop	{r4, r5, r6, pc}
.LVL168:
.L102:
	.cfi_restore_state
	.loc 1 1379 5 is_stmt 1 view .LVU447
	mov	r0, r4
.LVL169:
	.loc 1 1379 5 is_stmt 0 view .LVU448
	bl	mbedtls_pk_free
.LVL170:
	.loc 1 1380 5 is_stmt 1 view .LVU449
	mov	r0, r4
	bl	mbedtls_pk_init
.LVL171:
	.loc 1 1384 5 view .LVU450
	.loc 1 1384 15 is_stmt 0 view .LVU451
	movs	r0, #1
	bl	mbedtls_pk_info_from_type
.LVL172:
	mov	r1, r0
.LVL173:
	.loc 1 1385 5 is_stmt 1 view .LVU452
	.loc 1 1385 9 is_stmt 0 view .LVU453
	mov	r0, r4
.LVL174:
	.loc 1 1385 9 view .LVU454
	bl	mbedtls_pk_setup
.LVL175:
	.loc 1 1385 7 view .LVU455
	cbnz	r0, .L96
	ldm	r4, {r0, r1}
	add	r3, sp, #16
	stmdb	r3, {r0, r1}
.LBB86:
.LBI86:
	.loc 4 207 36 is_stmt 1 discriminator 1 view .LVU456
.LBB87:
	.loc 4 209 5 discriminator 1 view .LVU457
.LBE87:
.LBE86:
	.loc 1 1386 9 is_stmt 0 discriminator 1 view .LVU458
	mov	r2, r6
	mov	r1, r5
	ldr	r0, [sp, #12]
	bl	pk_parse_key_pkcs1_der
.LVL176:
	.loc 1 1385 46 discriminator 1 view .LVU459
	cmp	r0, #0
	beq	.L94
.L96:
	.loc 1 1391 5 is_stmt 1 view .LVU460
	mov	r0, r4
	bl	mbedtls_pk_free
.LVL177:
	.loc 1 1392 5 view .LVU461
	mov	r0, r4
	bl	mbedtls_pk_init
.LVL178:
	.loc 1 1416 5 view .LVU462
	.loc 1 1416 11 is_stmt 0 view .LVU463
	ldr	r0, .L103
	b	.L94
.LVL179:
.L97:
	.cfi_def_cfa_offset 0
	.cfi_restore 4
	.cfi_restore 5
	.cfi_restore 6
	.cfi_restore 14
	.loc 1 1219 15 view .LVU464
	ldr	r0, .L103
.LVL180:
	.loc 1 1417 1 view .LVU465
	bx	lr
.L104:
	.align	2
.L103:
	.word	-15616
	.cfi_endproc
.LFE34:
	.size	mbedtls_pk_parse_key, .-mbedtls_pk_parse_key
	.section	.text.mbedtls_pk_parse_public_key,"ax",%progbits
	.align	1
	.global	mbedtls_pk_parse_public_key
	.syntax unified
	.thumb
	.thumb_func
	.fpu fpv4-sp-d16
	.type	mbedtls_pk_parse_public_key, %function
mbedtls_pk_parse_public_key:
.LVL181:
.LFB35:
	.loc 1 1424 1 is_stmt 1 view -0
	.cfi_startproc
	@ args = 0, pretend = 0, frame = 16
	@ frame_needed = 0, uses_anonymous_args = 0
	.loc 1 1424 1 is_stmt 0 view .LVU467
	push	{r4, r5, r6, r7, lr}
	.cfi_def_cfa_offset 20
	.cfi_offset 4, -20
	.cfi_offset 5, -16
	.cfi_offset 6, -12
	.cfi_offset 7, -8
	.cfi_offset 14, -4
	sub	sp, sp, #20
	.cfi_def_cfa_offset 40
	.loc 1 1425 5 is_stmt 1 view .LVU468
.LVL182:
	.loc 1 1426 5 view .LVU469
	.loc 1 1428 5 view .LVU470
	.loc 1 1435 5 view .LVU471
	.loc 1 1435 10 view .LVU472
	.loc 1 1435 17 view .LVU473
	.loc 1 1436 5 view .LVU474
	.loc 1 1436 7 is_stmt 0 view .LVU475
	cbz	r2, .L107
	mov	r4, r0
	mov	r5, r1
	mov	r7, r2
	.loc 1 1438 5 is_stmt 1 view .LVU476
	.loc 1 1438 10 view .LVU477
	.loc 1 1438 17 view .LVU478
	.loc 1 1503 5 view .LVU479
	.loc 1 1503 21 is_stmt 0 view .LVU480
	movs	r0, #1
.LVL183:
	.loc 1 1503 21 view .LVU481
	bl	mbedtls_pk_info_from_type
.LVL184:
	.loc 1 1503 7 view .LVU482
	mov	r1, r0
	cbz	r0, .L108
	.loc 1 1506 5 is_stmt 1 view .LVU483
	.loc 1 1506 17 is_stmt 0 view .LVU484
	mov	r0, r4
.LVL185:
	.loc 1 1506 17 view .LVU485
	bl	mbedtls_pk_setup
.LVL186:
	.loc 1 1506 7 view .LVU486
	mov	r6, r0
	cbz	r0, .L110
.LVL187:
.L105:
	.loc 1 1527 1 view .LVU487
	mov	r0, r6
	add	sp, sp, #20
	.cfi_remember_state
	.cfi_def_cfa_offset 20
	@ sp needed
	pop	{r4, r5, r6, r7, pc}
.LVL188:
.L110:
	.cfi_restore_state
	.loc 1 1509 5 is_stmt 1 view .LVU488
	.loc 1 1509 7 is_stmt 0 view .LVU489
	str	r5, [sp, #12]
	.loc 1 1510 5 is_stmt 1 view .LVU490
	.loc 1 1510 35 is_stmt 0 view .LVU491
	add	r7, r7, r5
.LVL189:
	.loc 1 1510 35 view .LVU492
	add	r3, sp, #4
	ldm	r4, {r0, r1}
.LVL190:
	.loc 1 1510 35 view .LVU493
	stm	r3, {r0, r1}
.LBB88:
.LBI88:
	.loc 4 207 36 is_stmt 1 view .LVU494
.LBB89:
	.loc 4 209 5 view .LVU495
.LBE89:
.LBE88:
	.loc 1 1510 11 is_stmt 0 view .LVU496
	ldr	r2, [sp, #8]
	mov	r1, r7
	add	r0, sp, #12
	bl	pk_get_rsapubkey
.LVL191:
	.loc 1 1511 5 is_stmt 1 view .LVU497
	.loc 1 1511 7 is_stmt 0 view .LVU498
	mov	r6, r0
	cmp	r0, #0
	beq	.L105
	.loc 1 1515 5 is_stmt 1 view .LVU499
	mov	r0, r4
.LVL192:
	.loc 1 1515 5 is_stmt 0 view .LVU500
	bl	mbedtls_pk_free
.LVL193:
	.loc 1 1516 5 is_stmt 1 view .LVU501
	.loc 3 159 5 view .LVU502
	.loc 3 160 5 view .LVU503
	.loc 3 162 5 view .LVU504
	.loc 1 1516 7 is_stmt 0 view .LVU505
	ldr	r3, .L111
	cmp	r6, r3
	bne	.L105
	.loc 1 1522 5 is_stmt 1 view .LVU506
	.loc 1 1522 7 is_stmt 0 view .LVU507
	str	r5, [sp, #12]
	.loc 1 1524 5 is_stmt 1 view .LVU508
	.loc 1 1524 11 is_stmt 0 view .LVU509
	mov	r2, r4
	mov	r1, r7
	add	r0, sp, #12
	bl	mbedtls_pk_parse_subpubkey
.LVL194:
	mov	r6, r0
.LVL195:
	.loc 1 1526 5 is_stmt 1 view .LVU510
	.loc 1 1526 11 is_stmt 0 view .LVU511
	b	.L105
.LVL196:
.L107:
	.loc 1 1437 15 view .LVU512
	ldr	r6, .L111+4
	b	.L105
.LVL197:
.L108:
	.loc 1 1504 15 view .LVU513
	ldr	r6, .L111+8
	b	.L105
.L112:
	.align	2
.L111:
	.word	-15202
	.word	-15616
	.word	-15488
	.cfi_endproc
.LFE35:
	.size	mbedtls_pk_parse_public_key, .-mbedtls_pk_parse_public_key
	.text
.Letext0:
	.file 5 "/home/sebin/LIOT/gcc-arm-none-eabi-9-2019-q4-major/arm-none-eabi/include/machine/_default_types.h"
	.file 6 "/home/sebin/LIOT/gcc-arm-none-eabi-9-2019-q4-major/lib/gcc/arm-none-eabi/9.2.1/include/stddef.h"
	.file 7 "/home/sebin/LIOT/gcc-arm-none-eabi-9-2019-q4-major/arm-none-eabi/include/sys/_stdint.h"
	.file 8 "/home/sebin/thesis/zephyrproject/modules/crypto/mbedtls/include/mbedtls/bignum.h"
	.file 9 "/home/sebin/thesis/zephyrproject/modules/crypto/mbedtls/include/mbedtls/rsa.h"
	.file 10 "/home/sebin/thesis/zephyrproject/modules/crypto/mbedtls/include/mbedtls/asn1.h"
	.file 11 "/home/sebin/LIOT/gcc-arm-none-eabi-9-2019-q4-major/arm-none-eabi/include/sys/lock.h"
	.file 12 "/home/sebin/LIOT/gcc-arm-none-eabi-9-2019-q4-major/arm-none-eabi/include/sys/_types.h"
	.file 13 "/home/sebin/LIOT/gcc-arm-none-eabi-9-2019-q4-major/arm-none-eabi/include/sys/reent.h"
	.file 14 "/home/sebin/thesis/zephyrproject/modules/crypto/mbedtls/include/mbedtls/platform.h"
	.file 15 "/home/sebin/thesis/zephyrproject/modules/crypto/mbedtls/include/mbedtls/oid.h"