	.cpu cortex-m4
	.eabi_attribute 27, 1
	.eabi_attribute 28, 1
	.eabi_attribute 20, 1
	.eabi_attribute 21, 1
	.eabi_attribute 23, 3
	.eabi_attribute 24, 1
	.eabi_attribute 25, 1
	.eabi_attribute 26, 1
	.eabi_attribute 30, 1
	.eabi_attribute 34, 1
	.eabi_attribute 38, 1
	.eabi_attribute 18, 4
	.file	"rsa_alt_helpers.c"
	.text
.Ltext0:
	.cfi_sections	.debug_frame
	.section	.rodata.mbedtls_rsa_deduce_primes.str1.4,"aMS",%progbits,1
	.align	2
.LC0:
	.ascii	"\002\003\005\007\013\015\021\023\027\035\037%)+/5;="
	.ascii	"CGIOSYaegkmq\177\203\211\213\225\227\235\243\247\255"
	.ascii	"\263\265\277\301\305\307\323\337\343\345\351\357\361"
	.ascii	"\373\000"
	.section	.text.mbedtls_rsa_deduce_primes,"ax",%progbits
	.align	1
	.global	mbedtls_rsa_deduce_primes
	.arch armv7e-m
	.syntax unified
	.thumb
	.thumb_func
	.fpu fpv4-sp-d16
	.type	mbedtls_rsa_deduce_primes, %function
mbedtls_rsa_deduce_primes:
.LVL0:
.LFB0:
	.file 1 "/home/sebin/thesis/zephyrproject/modules/crypto/mbedtls/library/rsa_alt_helpers.c"
	.loc 1 65 1 view -0
	.cfi_startproc
	@ args = 4, pretend = 0, frame = 80
	@ frame_needed = 0, uses_anonymous_args = 0
	.loc 1 65 1 is_stmt 0 view .LVU1
	push	{r4, r5, r6, r7, r8, r9, r10, lr}
	.cfi_def_cfa_offset 32
	.cfi_offset 4, -32
	.cfi_offset 5, -28
	.cfi_offset 6, -24
	.cfi_offset 7, -20
	.cfi_offset 8, -16
	.cfi_offset 9, -12
	.cfi_offset 10, -8
	.cfi_offset 14, -4
	sub	sp, sp, #88
	.cfi_def_cfa_offset 120
	mov	r6, r0
	mov	r8, r1
	mov	r7, r2
	mov	ip, r3
	ldr	r9, [sp, #120]
	.loc 1 66 5 is_stmt 1 view .LVU2
.LVL1:
	.loc 1 68 5 view .LVU3
	.loc 1 69 5 view .LVU4
	.loc 1 71 5 view .LVU5
	.loc 1 73 5 view .LVU6
	.loc 1 74 5 view .LVU7
	.loc 1 76 5 view .LVU8
	.loc 1 76 25 is_stmt 0 view .LVU9
	add	r4, sp, #8
	ldr	r5, .L25
	ldmia	r5!, {r0, r1, r2, r3}
.LVL2:
	.loc 1 76 25 view .LVU10
	stmia	r4!, {r0, r1, r2, r3}
	ldmia	r5!, {r0, r1, r2, r3}
	stmia	r4!, {r0, r1, r2, r3}
	ldmia	r5!, {r0, r1, r2, r3}
	stmia	r4!, {r0, r1, r2, r3}
	ldm	r5, {r0, r1}
	str	r0, [r4], #4
	strh	r1, [r4]	@ movhi
	.loc 1 86 5 is_stmt 1 view .LVU11
.LVL3:
	.loc 1 88 5 view .LVU12
	.loc 1 88 7 is_stmt 0 view .LVU13
	cmp	ip, #0
	beq	.L14
	mov	r5, ip
	.loc 1 88 18 discriminator 1 view .LVU14
	cmp	r9, #0
	beq	.L15
	.loc 1 88 35 discriminator 2 view .LVU15
	ldr	r3, [ip, #8]
	.loc 1 88 31 discriminator 2 view .LVU16
	cmp	r3, #0
	bne	.L16
	.loc 1 88 51 discriminator 3 view .LVU17
	ldr	r3, [r9, #8]
	.loc 1 88 47 discriminator 3 view .LVU18
	cmp	r3, #0
	bne	.L17
	.loc 1 91 5 is_stmt 1 view .LVU19
	.loc 1 91 9 is_stmt 0 view .LVU20
	movs	r1, #0
	mov	r0, r6
	bl	mbedtls_mpi_cmp_int
.LVL4:
	.loc 1 91 7 view .LVU21
	cmp	r0, #0
	ble	.L3
	.loc 1 92 9 discriminator 1 view .LVU22
	movs	r1, #1
	mov	r0, r7
	bl	mbedtls_mpi_cmp_int
.LVL5:
	.loc 1 91 42 discriminator 1 view .LVU23
	cmp	r0, #0
	ble	.L3
	.loc 1 93 9 view .LVU24
	mov	r1, r6
	mov	r0, r7
	bl	mbedtls_mpi_cmp_mpi
.LVL6:
	.loc 1 92 42 view .LVU25
	cmp	r0, #0
	bge	.L3
	.loc 1 94 9 view .LVU26
	movs	r1, #1
	mov	r0, r8
	bl	mbedtls_mpi_cmp_int
.LVL7:
	.loc 1 93 42 view .LVU27
	cmp	r0, #0
	ble	.L3
	.loc 1 95 9 view .LVU28
	mov	r1, r6
	mov	r0, r8
	bl	mbedtls_mpi_cmp_mpi
.LVL8:
	.loc 1 94 42 view .LVU29
	cmp	r0, #0
	bge	.L3
	.loc 1 104 5 is_stmt 1 view .LVU30
	add	r0, sp, #64
	bl	mbedtls_mpi_init
.LVL9:
	.loc 1 105 5 view .LVU31
	add	r0, sp, #76
	bl	mbedtls_mpi_init
.LVL10:
	.loc 1 108 5 view .LVU32
	.loc 1 108 10 view .LVU33
	.loc 1 108 23 is_stmt 0 view .LVU34
	mov	r2, r8
	mov	r1, r7
	add	r0, sp, #76
	bl	mbedtls_mpi_mul_mpi
.LVL11:
	.loc 1 108 12 view .LVU35
	mov	r4, r0
	cbz	r0, .L22
.LVL12:
.L5:
	.loc 1 188 5 is_stmt 1 view .LVU36
	add	r0, sp, #64
	bl	mbedtls_mpi_free
.LVL13:
	.loc 1 189 5 view .LVU37
	add	r0, sp, #76
	bl	mbedtls_mpi_free
.LVL14:
	.loc 1 190 5 view .LVU38
.L1:
	.loc 1 191 1 is_stmt 0 view .LVU39
	mov	r0, r4
	add	sp, sp, #88
	.cfi_remember_state
	.cfi_def_cfa_offset 32
	@ sp needed
	pop	{r4, r5, r6, r7, r8, r9, r10, pc}
.LVL15:
.L3:
	.cfi_restore_state
	.loc 1 97 9 is_stmt 1 view .LVU40
	.loc 1 97 15 is_stmt 0 view .LVU41
	mvn	r4, #3
	b	.L1
.LVL16:
.L22:
	.loc 1 108 86 is_stmt 1 discriminator 2 view .LVU42
	.loc 1 109 5 discriminator 2 view .LVU43
	.loc 1 109 10 discriminator 2 view .LVU44
	.loc 1 109 23 is_stmt 0 discriminator 2 view .LVU45
	movs	r2, #1
	add	r1, sp, #76
	mov	r0, r1
.LVL17:
	.loc 1 109 23 discriminator 2 view .LVU46
	bl	mbedtls_mpi_sub_int
.LVL18:
	.loc 1 109 12 discriminator 2 view .LVU47
	mov	r4, r0
	cmp	r0, #0
	bne	.L5
	.loc 1 109 87 is_stmt 1 discriminator 2 view .LVU48
	.loc 1 111 5 discriminator 2 view .LVU49
	.loc 1 111 30 is_stmt 0 discriminator 2 view .LVU50
	add	r0, sp, #76
.LVL19:
	.loc 1 111 30 discriminator 2 view .LVU51
	bl	mbedtls_mpi_lsb
.LVL20:
	.loc 1 111 17 discriminator 2 view .LVU52
	uxth	r10, r0
.LVL21:
	.loc 1 111 7 discriminator 2 view .LVU53
	cmp	r10, #0
	bne	.L23
	.loc 1 113 13 view .LVU54
	mvn	r4, #3
.LVL22:
	.loc 1 113 13 view .LVU55
	b	.L5
.LVL23:
.L23:
	.loc 1 118 5 is_stmt 1 view .LVU56
	.loc 1 118 10 view .LVU57
	.loc 1 118 23 is_stmt 0 view .LVU58
	mov	r1, r10
	add	r0, sp, #76
	bl	mbedtls_mpi_shift_r
.LVL24:
	.loc 1 118 12 view .LVU59
	mov	r4, r0
	cmp	r0, #0
	bne	.L5
	.loc 1 118 87 is_stmt 1 discriminator 2 view .LVU60
	.loc 1 125 5 discriminator 2 view .LVU61
.LVL25:
	.loc 1 126 5 discriminator 2 view .LVU62
	.loc 1 126 10 is_stmt 0 discriminator 2 view .LVU63
	ldr	r3, [r6, #8]
	.loc 1 126 13 discriminator 2 view .LVU64
	ldr	r3, [r3]
	.loc 1 126 17 discriminator 2 view .LVU65
	and	r3, r3, #7
	.loc 1 126 7 discriminator 2 view .LVU66
	cmp	r3, #1
	beq	.L19
	.loc 1 125 13 view .LVU67
	mov	r8, #0
.LVL26:
	.loc 1 125 13 view .LVU68
	b	.L7
.LVL27:
.L19:
	.loc 1 127 17 view .LVU69
	mov	r8, #1
.LVL28:
	.loc 1 127 17 view .LVU70
	b	.L7
.LVL29:
.L11:
	.loc 1 166 13 is_stmt 1 view .LVU71
	.loc 1 166 18 view .LVU72
	.loc 1 166 31 is_stmt 0 view .LVU73
	movs	r2, #1
	add	r1, sp, #64
	mov	r0, r1
	bl	mbedtls_mpi_sub_int
.LVL30:
	.loc 1 166 20 view .LVU74
	mov	r4, r0
	cmp	r0, #0
	bne	.L5
	.loc 1 166 95 is_stmt 1 discriminator 2 view .LVU75
	.loc 1 167 13 discriminator 2 view .LVU76
	.loc 1 167 18 discriminator 2 view .LVU77
	.loc 1 167 31 is_stmt 0 discriminator 2 view .LVU78
	add	r2, sp, #64
	mov	r1, r2
	mov	r0, r2
.LVL31:
	.loc 1 167 31 discriminator 2 view .LVU79
	bl	mbedtls_mpi_mul_mpi
.LVL32:
	.loc 1 167 20 discriminator 2 view .LVU80
	mov	r4, r0
	cmp	r0, #0
	bne	.L5
	.loc 1 167 96 is_stmt 1 discriminator 2 view .LVU81
	.loc 1 168 13 discriminator 2 view .LVU82
	.loc 1 168 18 discriminator 2 view .LVU83
	.loc 1 168 31 is_stmt 0 discriminator 2 view .LVU84
	mov	r2, r6
	add	r1, sp, #64
	mov	r0, r1
.LVL33:
	.loc 1 168 31 discriminator 2 view .LVU85
	bl	mbedtls_mpi_mod_mpi
.LVL34:
	.loc 1 168 20 discriminator 2 view .LVU86
	mov	r4, r0
	cmp	r0, #0
	bne	.L5
	.loc 1 168 95 is_stmt 1 discriminator 2 view .LVU87
	.loc 1 144 39 discriminator 2 view .LVU88
	adds	r7, r7, #1
.LVL35:
	.loc 1 144 39 is_stmt 0 discriminator 2 view .LVU89
	uxth	r7, r7
.LVL36:
.L9:
	.loc 1 144 24 is_stmt 1 discriminator 2 view .LVU90
	.loc 1 144 9 is_stmt 0 discriminator 2 view .LVU91
	cmp	r7, r10
	bhi	.L10
	.loc 1 148 13 is_stmt 1 view .LVU92
	.loc 1 148 17 is_stmt 0 view .LVU93
	movs	r1, #1
	add	r0, sp, #64
.LVL37:
	.loc 1 148 17 view .LVU94
	bl	mbedtls_mpi_cmp_int
.LVL38:
	.loc 1 148 15 view .LVU95
	cbz	r0, .L10
	.loc 1 151 13 is_stmt 1 view .LVU96
	.loc 1 151 18 view .LVU97
	.loc 1 151 31 is_stmt 0 view .LVU98
	movs	r2, #1
	add	r1, sp, #64
	mov	r0, r1
	bl	mbedtls_mpi_add_int
.LVL39:
	.loc 1 151 20 view .LVU99
	mov	r4, r0
	cmp	r0, #0
	bne	.L5
	.loc 1 151 95 is_stmt 1 discriminator 2 view .LVU100
	.loc 1 152 13 discriminator 2 view .LVU101
	.loc 1 152 18 discriminator 2 view .LVU102
	.loc 1 152 31 is_stmt 0 discriminator 2 view .LVU103
	mov	r2, r6
	add	r1, sp, #64
	mov	r0, r5
.LVL40:
	.loc 1 152 31 discriminator 2 view .LVU104
	bl	mbedtls_mpi_gcd
.LVL41:
	.loc 1 152 20 discriminator 2 view .LVU105
	mov	r4, r0
	cmp	r0, #0
	bne	.L5
	.loc 1 152 90 is_stmt 1 discriminator 2 view .LVU106
	.loc 1 154 13 discriminator 2 view .LVU107
	.loc 1 154 17 is_stmt 0 discriminator 2 view .LVU108
	movs	r1, #1
	mov	r0, r5
.LVL42:
	.loc 1 154 17 discriminator 2 view .LVU109
	bl	mbedtls_mpi_cmp_int
.LVL43:
	.loc 1 154 15 discriminator 2 view .LVU110
	cmp	r0, #1
	bne	.L11
	.loc 1 155 17 discriminator 1 view .LVU111
	mov	r1, r6
	mov	r0, r5
	bl	mbedtls_mpi_cmp_mpi
.LVL44:
	.loc 1 154 50 discriminator 1 view .LVU112
	cmp	r0, #-1
	bne	.L11
	.loc 1 162 17 is_stmt 1 view .LVU113
	.loc 1 162 22 view .LVU114
	.loc 1 162 35 is_stmt 0 view .LVU115
	mov	r3, r5
	mov	r2, r6
	movs	r1, #0
	mov	r0, r9
	bl	mbedtls_mpi_div_mpi
.LVL45:
	mov	r4, r0
.LVL46:
	.loc 1 162 35 view .LVU116
	b	.L5
.LVL47:
.L10:
	.loc 1 178 9 is_stmt 1 view .LVU117
	.loc 1 178 13 is_stmt 0 view .LVU118
	movs	r1, #1
	add	r0, sp, #64
	bl	mbedtls_mpi_cmp_int
.LVL48:
	.loc 1 178 11 view .LVU119
	cbnz	r0, .L20
.LVL49:
.L8:
	.loc 1 129 34 is_stmt 1 view .LVU120
	add	r8, r8, #1
.LVL50:
	.loc 1 129 34 is_stmt 0 view .LVU121
	uxth	r8, r8
.LVL51:
.L7:
	.loc 1 129 12 is_stmt 1 discriminator 1 view .LVU122
	.loc 1 129 5 is_stmt 0 discriminator 1 view .LVU123
	cmp	r8, #53
	bhi	.L24
	.loc 1 131 9 is_stmt 1 view .LVU124
	add	r3, sp, #88
	add	r3, r3, r8
	ldrb	r1, [r3, #-80]	@ zero_extendqisi2
	add	r0, sp, #64
	bl	mbedtls_mpi_lset
.LVL52:
	.loc 1 134 9 view .LVU125
	.loc 1 134 14 view .LVU126
	.loc 1 134 27 is_stmt 0 view .LVU127
	mov	r2, r6
	add	r1, sp, #64
	mov	r0, r5
	bl	mbedtls_mpi_gcd
.LVL53:
	.loc 1 134 16 view .LVU128
	mov	r4, r0
	cmp	r0, #0
	bne	.L5
	.loc 1 134 86 is_stmt 1 discriminator 2 view .LVU129
	.loc 1 135 9 discriminator 2 view .LVU130
	.loc 1 135 13 is_stmt 0 discriminator 2 view .LVU131
	movs	r1, #1
	mov	r0, r5
.LVL54:
	.loc 1 135 13 discriminator 2 view .LVU132
	bl	mbedtls_mpi_cmp_int
.LVL55:
	.loc 1 135 11 discriminator 2 view .LVU133
	cmp	r0, #0
	bne	.L8
	.loc 1 140 9 is_stmt 1 view .LVU134
	.loc 1 140 14 view .LVU135
	.loc 1 140 27 is_stmt 0 view .LVU136
	str	r9, [sp]
	mov	r3, r6
	add	r2, sp, #76
	add	r1, sp, #64
	mov	r0, r1
	bl	mbedtls_mpi_exp_mod
.LVL56:
	.loc 1 140 16 view .LVU137
	mov	r4, r0
	cmp	r0, #0
	bne	.L5
	.loc 1 144 19 view .LVU138
	movs	r7, #1
	b	.L9
.LVL57:
.L24:
	.loc 1 184 9 view .LVU139
	mvn	r4, #3
.LVL58:
	.loc 1 184 9 view .LVU140
	b	.L5
.LVL59:
.L20:
	.loc 1 184 9 view .LVU141
	mvn	r4, #3
.LVL60:
	.loc 1 184 9 view .LVU142
	b	.L5
.LVL61:
.L14:
	.loc 1 89 15 view .LVU143
	mvn	r4, #3
	b	.L1
.LVL62:
.L15:
	.loc 1 89 15 view .LVU144
	mvn	r4, #3
	b	.L1
.L16:
	mvn	r4, #3
	b	.L1
.L17:
	mvn	r4, #3
	b	.L1
.L26:
	.align	2
.L25:
	.word	.LC0
	.cfi_endproc
.LFE0:
	.size	mbedtls_rsa_deduce_primes, .-mbedtls_rsa_deduce_primes
	.section	.text.mbedtls_rsa_deduce_private_exponent,"ax",%progbits
	.align	1
	.global	mbedtls_rsa_deduce_private_exponent
	.syntax unified
	.thumb
	.thumb_func
	.fpu fpv4-sp-d16
	.type	mbedtls_rsa_deduce_private_exponent, %function
mbedtls_rsa_deduce_private_exponent:
.LVL63:
.LFB1:
	.loc 1 201 1 is_stmt 1 view -0
	.cfi_startproc
	@ args = 0, pretend = 0, frame = 24
	@ frame_needed = 0, uses_anonymous_args = 0
	.loc 1 201 1 is_stmt 0 view .LVU146
	push	{r4, r5, r6, r7, lr}
	.cfi_def_cfa_offset 20
	.cfi_offset 4, -20
	.cfi_offset 5, -16
	.cfi_offset 6, -12
	.cfi_offset 7, -8
	.cfi_offset 14, -4
	sub	sp, sp, #28
	.cfi_def_cfa_offset 48
	.loc 1 202 5 is_stmt 1 view .LVU147
.LVL64:
	.loc 1 203 5 view .LVU148
	.loc 1 205 5 view .LVU149
	.loc 1 205 7 is_stmt 0 view .LVU150
	cbz	r3, .L28
	mov	r4, r0
	mov	r7, r1
	mov	r6, r2
	mov	r5, r3
	.loc 1 205 21 discriminator 1 view .LVU151
	movs	r1, #0
.LVL65:
	.loc 1 205 21 discriminator 1 view .LVU152
	mov	r0, r3
.LVL66:
	.loc 1 205 21 discriminator 1 view .LVU153
	bl	mbedtls_mpi_cmp_int
.LVL67:
	.loc 1 205 18 discriminator 1 view .LVU154
	cbnz	r0, .L28
	.loc 1 208 5 is_stmt 1 view .LVU155
	.loc 1 208 9 is_stmt 0 view .LVU156
	movs	r1, #1
	mov	r0, r4
	bl	mbedtls_mpi_cmp_int
.LVL68:
	.loc 1 208 7 view .LVU157
	cmp	r0, #0
	ble	.L31
	.loc 1 209 9 discriminator 1 view .LVU158
	movs	r1, #1
	mov	r0, r7
	bl	mbedtls_mpi_cmp_int
.LVL69:
	.loc 1 208 42 discriminator 1 view .LVU159
	cmp	r0, #0
	ble	.L31
	.loc 1 210 9 view .LVU160
	movs	r1, #0
	mov	r0, r6
	bl	mbedtls_mpi_cmp_int
.LVL70:
	.loc 1 209 42 view .LVU161
	cbz	r0, .L31
	.loc 1 215 5 is_stmt 1 view .LVU162
	add	r0, sp, #12
	bl	mbedtls_mpi_init
.LVL71:
	.loc 1 216 5 view .LVU163
	mov	r0, sp
	bl	mbedtls_mpi_init
.LVL72:
	.loc 1 219 5 view .LVU164
	.loc 1 219 10 view .LVU165
	.loc 1 219 23 is_stmt 0 view .LVU166
	movs	r2, #1
	mov	r1, r4
	add	r0, sp, #12
	bl	mbedtls_mpi_sub_int
.LVL73:
	.loc 1 219 12 view .LVU167
	mov	r4, r0
.LVL74:
	.loc 1 219 12 view .LVU168
	cbz	r0, .L35
.L33:
	.loc 1 230 86 is_stmt 1 discriminator 3 view .LVU169
	.loc 1 234 5 discriminator 3 view .LVU170
	add	r0, sp, #12
.LVL75:
	.loc 1 234 5 is_stmt 0 discriminator 3 view .LVU171
	bl	mbedtls_mpi_free
.LVL76:
	.loc 1 235 5 is_stmt 1 discriminator 3 view .LVU172
	mov	r0, sp
	bl	mbedtls_mpi_free
.LVL77:
	.loc 1 237 5 discriminator 3 view .LVU173
.L27:
	.loc 1 238 1 is_stmt 0 view .LVU174
	mov	r0, r4
	add	sp, sp, #28
	.cfi_remember_state
	.cfi_def_cfa_offset 20
	@ sp needed
	pop	{r4, r5, r6, r7, pc}
.LVL78:
.L28:
	.cfi_restore_state
	.loc 1 206 9 is_stmt 1 view .LVU175
	.loc 1 206 15 is_stmt 0 view .LVU176
	mvn	r4, #3
	b	.L27
.LVL79:
.L31:
	.loc 1 212 9 is_stmt 1 view .LVU177
	.loc 1 212 15 is_stmt 0 view .LVU178
	mvn	r4, #3
.LVL80:
	.loc 1 212 15 view .LVU179
	b	.L27
.LVL81:
.L35:
	.loc 1 219 86 is_stmt 1 discriminator 2 view .LVU180
	.loc 1 220 5 discriminator 2 view .LVU181
	.loc 1 220 10 discriminator 2 view .LVU182
	.loc 1 220 23 is_stmt 0 discriminator 2 view .LVU183
	movs	r2, #1
	mov	r1, r7
	mov	r0, sp
.LVL82:
	.loc 1 220 23 discriminator 2 view .LVU184
	bl	mbedtls_mpi_sub_int
.LVL83:
	.loc 1 220 12 discriminator 2 view .LVU185
	mov	r4, r0
	cmp	r0, #0
	bne	.L33
	.loc 1 220 86 is_stmt 1 discriminator 2 view .LVU186
	.loc 1 223 5 discriminator 2 view .LVU187
	.loc 1 223 10 discriminator 2 view .LVU188
	.loc 1 223 23 is_stmt 0 discriminator 2 view .LVU189
	mov	r2, sp
	add	r1, sp, #12
	mov	r0, r5
.LVL84:
	.loc 1 223 23 discriminator 2 view .LVU190
	bl	mbedtls_mpi_gcd
.LVL85:
	.loc 1 223 12 discriminator 2 view .LVU191
	mov	r4, r0
	cmp	r0, #0
	bne	.L33
	.loc 1 223 83 is_stmt 1 discriminator 2 view .LVU192
	.loc 1 226 5 discriminator 2 view .LVU193
	.loc 1 226 10 discriminator 2 view .LVU194
	.loc 1 226 23 is_stmt 0 discriminator 2 view .LVU195
	mov	r2, sp
	add	r1, sp, #12
	mov	r0, r1
.LVL86:
	.loc 1 226 23 discriminator 2 view .LVU196
	bl	mbedtls_mpi_mul_mpi
.LVL87:
	.loc 1 226 12 discriminator 2 view .LVU197
	mov	r4, r0
	cmp	r0, #0
	bne	.L33
	.loc 1 226 88 is_stmt 1 discriminator 2 view .LVU198
	.loc 1 227 5 discriminator 2 view .LVU199
	.loc 1 227 10 discriminator 2 view .LVU200
	.loc 1 227 23 is_stmt 0 discriminator 2 view .LVU201
	mov	r3, r5
	add	r2, sp, #12
	movs	r1, #0
	mov	r0, r2
.LVL88:
	.loc 1 227 23 discriminator 2 view .LVU202
	bl	mbedtls_mpi_div_mpi
.LVL89:
	.loc 1 227 12 discriminator 2 view .LVU203
	mov	r4, r0
	cmp	r0, #0
	bne	.L33
	.loc 1 227 45 is_stmt 1 discriminator 2 view .LVU204
	.loc 1 230 5 discriminator 2 view .LVU205
	.loc 1 230 10 discriminator 2 view .LVU206
	.loc 1 230 23 is_stmt 0 discriminator 2 view .LVU207
	add	r2, sp, #12
	mov	r1, r6
	mov	r0, r5
.LVL90:
	.loc 1 230 23 discriminator 2 view .LVU208
	bl	mbedtls_mpi_inv_mod
.LVL91:
	mov	r4, r0
.LVL92:
	.loc 1 232 1 discriminator 2 view .LVU209
	b	.L33
	.cfi_endproc
.LFE1:
	.size	mbedtls_rsa_deduce_private_exponent, .-mbedtls_rsa_deduce_private_exponent
	.section	.text.mbedtls_rsa_deduce_crt,"ax",%progbits
	.align	1
	.global	mbedtls_rsa_deduce_crt
	.syntax unified
	.thumb
	.thumb_func
	.fpu fpv4-sp-d16
	.type	mbedtls_rsa_deduce_crt, %function
mbedtls_rsa_deduce_crt:
.LVL93:
.LFB2:
	.loc 1 243 1 is_stmt 1 view -0
	.cfi_startproc
	@ args = 8, pretend = 0, frame = 16
	@ frame_needed = 0, uses_anonymous_args = 0
	.loc 1 243 1 is_stmt 0 view .LVU211
	push	{r4, r5, r6, r7, r8, lr}
	.cfi_def_cfa_offset 24
	.cfi_offset 4, -24
	.cfi_offset 5, -20
	.cfi_offset 6, -16
	.cfi_offset 7, -12
	.cfi_offset 8, -8
	.cfi_offset 14, -4
	sub	sp, sp, #16
	.cfi_def_cfa_offset 40
	mov	r8, r0
	mov	r7, r1
	mov	r6, r2
	mov	r4, r3
	.loc 1 244 5 is_stmt 1 view .LVU212
.LVL94:
	.loc 1 245 5 view .LVU213
	.loc 1 246 5 view .LVU214
	add	r0, sp, #4
.LVL95:
	.loc 1 246 5 is_stmt 0 view .LVU215
	bl	mbedtls_mpi_init
.LVL96:
	.loc 1 249 5 is_stmt 1 view .LVU216
	.loc 1 249 7 is_stmt 0 view .LVU217
	cbz	r4, .L40
	.loc 1 251 9 is_stmt 1 view .LVU218
	.loc 1 251 14 view .LVU219
	.loc 1 251 27 is_stmt 0 view .LVU220
	movs	r2, #1
	mov	r1, r8
	add	r0, sp, #4
	bl	mbedtls_mpi_sub_int
.LVL97:
	.loc 1 251 16 view .LVU221
	mov	r5, r0
	cbz	r0, .L42
.LVL98:
.L38:
	.loc 1 265 90 is_stmt 1 discriminator 3 view .LVU222
	.loc 1 269 5 discriminator 3 view .LVU223
	add	r0, sp, #4
	bl	mbedtls_mpi_free
.LVL99:
	.loc 1 271 5 discriminator 3 view .LVU224
	.loc 1 272 1 is_stmt 0 discriminator 3 view .LVU225
	mov	r0, r5
	add	sp, sp, #16
	.cfi_remember_state
	.cfi_def_cfa_offset 24
	@ sp needed
	pop	{r4, r5, r6, r7, r8, pc}
.LVL100:
.L42:
	.cfi_restore_state
	.loc 1 251 90 is_stmt 1 discriminator 2 view .LVU226
	.loc 1 252 9 discriminator 2 view .LVU227
	.loc 1 252 14 discriminator 2 view .LVU228
	.loc 1 252 27 is_stmt 0 discriminator 2 view .LVU229
	add	r2, sp, #4
	mov	r1, r6
	mov	r0, r4
.LVL101:
	.loc 1 252 27 discriminator 2 view .LVU230
	bl	mbedtls_mpi_mod_mpi
.LVL102:
	.loc 1 252 16 discriminator 2 view .LVU231
	mov	r5, r0
	cbz	r0, .L37
	b	.L38
.LVL103:
.L40:
	.loc 1 244 9 view .LVU232
	movs	r5, #0
.LVL104:
.L37:
	.loc 1 252 91 is_stmt 1 discriminator 2 view .LVU233
	.loc 1 256 5 discriminator 2 view .LVU234
	.loc 1 256 7 is_stmt 0 discriminator 2 view .LVU235
	ldr	r3, [sp, #40]
	cbz	r3, .L39
	.loc 1 258 9 is_stmt 1 view .LVU236
	.loc 1 258 14 view .LVU237
	.loc 1 258 27 is_stmt 0 view .LVU238
	movs	r2, #1
	mov	r1, r7
	add	r0, sp, #4
	bl	mbedtls_mpi_sub_int
.LVL105:
	.loc 1 258 16 view .LVU239
	mov	r5, r0
	cmp	r0, #0
	bne	.L38
	.loc 1 258 90 is_stmt 1 discriminator 2 view .LVU240
	.loc 1 259 9 discriminator 2 view .LVU241
	.loc 1 259 14 discriminator 2 view .LVU242
	.loc 1 259 27 is_stmt 0 discriminator 2 view .LVU243
	add	r2, sp, #4
	mov	r1, r6
	ldr	r0, [sp, #40]
.LVL106:
	.loc 1 259 27 discriminator 2 view .LVU244
	bl	mbedtls_mpi_mod_mpi
.LVL107:
	.loc 1 259 16 discriminator 2 view .LVU245
	mov	r5, r0
	cmp	r0, #0
	bne	.L38
.LVL108:
.L39:
	.loc 1 259 91 is_stmt 1 discriminator 2 view .LVU246
	.loc 1 263 5 discriminator 2 view .LVU247
	.loc 1 263 7 is_stmt 0 discriminator 2 view .LVU248
	ldr	r3, [sp, #44]
	cmp	r3, #0
	beq	.L38
	.loc 1 265 9 is_stmt 1 view .LVU249
	.loc 1 265 14 view .LVU250
	.loc 1 265 27 is_stmt 0 view .LVU251
	mov	r2, r8
	mov	r1, r7
	mov	r0, r3
	bl	mbedtls_mpi_inv_mod
.LVL109:
	mov	r5, r0
.LVL110:
	.loc 1 268 1 view .LVU252
	b	.L38
	.cfi_endproc
.LFE2:
	.size	mbedtls_rsa_deduce_crt, .-mbedtls_rsa_deduce_crt
	.section	.text.mbedtls_rsa_validate_params,"ax",%progbits
	.align	1
	.global	mbedtls_rsa_validate_params
	.syntax unified
	.thumb
	.thumb_func
	.fpu fpv4-sp-d16
	.type	mbedtls_rsa_validate_params, %function
mbedtls_rsa_validate_params:
.LVL111:
.LFB3:
	.loc 1 282 1 is_stmt 1 view -0
	.cfi_startproc
	@ args = 12, pretend = 0, frame = 24
	@ frame_needed = 0, uses_anonymous_args = 0
	.loc 1 282 1 is_stmt 0 view .LVU254
	push	{r4, r5, r6, r7, r8, lr}
	.cfi_def_cfa_offset 24
	.cfi_offset 4, -24
	.cfi_offset 5, -20
	.cfi_offset 6, -16
	.cfi_offset 7, -12
	.cfi_offset 8, -8
	.cfi_offset 14, -4
	sub	sp, sp, #24
	.cfi_def_cfa_offset 48
	mov	r8, r0
	mov	r4, r1
	mov	r6, r2
	mov	r7, r3
	.loc 1 283 5 is_stmt 1 view .LVU255
.LVL112:
	.loc 1 284 5 view .LVU256
	.loc 1 286 5 view .LVU257
	add	r0, sp, #12
.LVL113:
	.loc 1 286 5 is_stmt 0 view .LVU258
	bl	mbedtls_mpi_init
.LVL114:
	.loc 1 287 5 is_stmt 1 view .LVU259
	mov	r0, sp
	bl	mbedtls_mpi_init
.LVL115:
	.loc 1 313 5 view .LVU260
	.loc 1 314 5 view .LVU261
	.loc 1 321 5 view .LVU262
	.loc 1 321 7 is_stmt 0 view .LVU263
	cbz	r4, .L52
	.loc 1 321 18 discriminator 1 view .LVU264
	cmp	r6, #0
	beq	.L53
	.loc 1 321 31 discriminator 2 view .LVU265
	cmp	r8, #0
	beq	.L54
	.loc 1 323 9 is_stmt 1 view .LVU266
	.loc 1 323 14 view .LVU267
	.loc 1 323 27 is_stmt 0 view .LVU268
	mov	r2, r6
	mov	r1, r4
	add	r0, sp, #12
	bl	mbedtls_mpi_mul_mpi
.LVL116:
	.loc 1 323 16 view .LVU269
	mov	r5, r0
	cbnz	r0, .L45
	.loc 1 323 90 is_stmt 1 discriminator 2 view .LVU270
	.loc 1 324 9 discriminator 2 view .LVU271
	.loc 1 324 13 is_stmt 0 discriminator 2 view .LVU272
	movs	r1, #1
	mov	r0, r8
.LVL117:
	.loc 1 324 13 discriminator 2 view .LVU273
	bl	mbedtls_mpi_cmp_int
.LVL118:
	.loc 1 324 11 discriminator 2 view .LVU274
	cmp	r0, #0
	ble	.L46
	.loc 1 325 13 discriminator 1 view .LVU275
	mov	r1, r8
	add	r0, sp, #12
	bl	mbedtls_mpi_cmp_mpi
.LVL119:
	.loc 1 324 46 discriminator 1 view .LVU276
	cbz	r0, .L44
.L46:
	.loc 1 327 13 is_stmt 1 view .LVU277
.LVL120:
	.loc 1 328 13 view .LVU278
	.loc 1 327 17 is_stmt 0 view .LVU279
	ldr	r5, .L60
	.loc 1 328 13 view .LVU280
	b	.L45
.LVL121:
.L52:
	.loc 1 283 9 view .LVU281
	movs	r5, #0
.LVL122:
.L44:
	.loc 1 336 5 is_stmt 1 view .LVU282
	.loc 1 336 7 is_stmt 0 view .LVU283
	cmp	r8, #0
	beq	.L47
	.loc 1 336 18 discriminator 1 view .LVU284
	cbz	r7, .L47
	.loc 1 336 31 discriminator 2 view .LVU285
	ldr	r3, [sp, #48]
	cbz	r3, .L47
	.loc 1 338 9 is_stmt 1 view .LVU286
	.loc 1 338 14 is_stmt 0 view .LVU287
	movs	r1, #1
	mov	r0, r7
	bl	mbedtls_mpi_cmp_int
.LVL123:
	.loc 1 338 12 view .LVU288
	cmp	r0, #0
	ble	.L48
	.loc 1 339 14 discriminator 1 view .LVU289
	movs	r1, #1
	ldr	r0, [sp, #48]
	bl	mbedtls_mpi_cmp_int
.LVL124:
	.loc 1 338 47 discriminator 1 view .LVU290
	cmp	r0, #0
	ble	.L48
	.loc 1 340 14 view .LVU291
	mov	r1, r8
	mov	r0, r7
	bl	mbedtls_mpi_cmp_mpi
.LVL125:
	.loc 1 339 47 view .LVU292
	cmp	r0, #0
	blt	.L58
.L48:
	.loc 1 343 13 is_stmt 1 view .LVU293
.LVL126:
	.loc 1 344 13 view .LVU294
	.loc 1 343 17 is_stmt 0 view .LVU295
	ldr	r5, .L60
.LVL127:
.L45:
	.loc 1 386 5 is_stmt 1 view .LVU296
	add	r0, sp, #12
	bl	mbedtls_mpi_free
.LVL128:
	.loc 1 387 5 view .LVU297
	mov	r0, sp
	bl	mbedtls_mpi_free
.LVL129:
	.loc 1 390 5 view .LVU298
	.loc 1 390 7 is_stmt 0 view .LVU299
	cbz	r5, .L43
	.loc 1 390 18 discriminator 1 view .LVU300
	cmn	r5, #16896
	beq	.L43
	.loc 1 392 9 is_stmt 1 view .LVU301
	.loc 1 392 13 is_stmt 0 view .LVU302
	sub	r5, r5, #16896
.LVL130:
	.loc 1 395 5 is_stmt 1 view .LVU303
.L43:
	.loc 1 396 1 is_stmt 0 view .LVU304
	mov	r0, r5
	add	sp, sp, #24
	.cfi_remember_state
	.cfi_def_cfa_offset 24
	@ sp needed
	pop	{r4, r5, r6, r7, r8, pc}
.LVL131:
.L53:
	.cfi_restore_state
	.loc 1 283 9 view .LVU305
	movs	r5, #0
	b	.L44
.L54:
	movs	r5, #0
	b	.L44
.LVL132:
.L58:
	.loc 1 341 14 view .LVU306
	mov	r1, r8
	ldr	r0, [sp, #48]
	bl	mbedtls_mpi_cmp_mpi
.LVL133:
	.loc 1 340 47 view .LVU307
	cmp	r0, #0
	bge	.L48
.L47:
	.loc 1 352 5 is_stmt 1 view .LVU308
	.loc 1 352 7 is_stmt 0 view .LVU309
	cmp	r4, #0
	beq	.L45
	.loc 1 352 18 discriminator 1 view .LVU310
	cmp	r6, #0
	beq	.L45
	.loc 1 352 31 discriminator 2 view .LVU311
	cmp	r7, #0
	beq	.L45
	.loc 1 352 44 discriminator 3 view .LVU312
	ldr	r3, [sp, #48]
	cmp	r3, #0
	beq	.L45
	.loc 1 354 9 is_stmt 1 view .LVU313
	.loc 1 354 13 is_stmt 0 view .LVU314
	movs	r1, #1
	mov	r0, r4
	bl	mbedtls_mpi_cmp_int
.LVL134:
	.loc 1 354 11 view .LVU315
	cmp	r0, #0
	ble	.L49
	.loc 1 355 13 discriminator 1 view .LVU316
	movs	r1, #1
	mov	r0, r6
	bl	mbedtls_mpi_cmp_int
.LVL135:
	.loc 1 354 46 discriminator 1 view .LVU317
	cmp	r0, #0
	ble	.L49
	.loc 1 362 9 is_stmt 1 view .LVU318
	.loc 1 362 14 view .LVU319
	.loc 1 362 27 is_stmt 0 view .LVU320
	ldr	r2, [sp, #48]
	mov	r1, r7
	add	r0, sp, #12
	bl	mbedtls_mpi_mul_mpi
.LVL136:
	.loc 1 362 16 view .LVU321
	mov	r5, r0
	cmp	r0, #0
	bne	.L45
	.loc 1 362 90 is_stmt 1 discriminator 2 view .LVU322
	.loc 1 363 9 discriminator 2 view .LVU323
	.loc 1 363 14 discriminator 2 view .LVU324
	.loc 1 363 27 is_stmt 0 discriminator 2 view .LVU325
	movs	r2, #1
	add	r1, sp, #12
	mov	r0, r1
.LVL137:
	.loc 1 363 27 discriminator 2 view .LVU326
	bl	mbedtls_mpi_sub_int
.LVL138:
	.loc 1 363 16 discriminator 2 view .LVU327
	mov	r5, r0
	cmp	r0, #0
	bne	.L45
	.loc 1 363 91 is_stmt 1 discriminator 2 view .LVU328
	.loc 1 364 9 discriminator 2 view .LVU329
	.loc 1 364 14 discriminator 2 view .LVU330
	.loc 1 364 27 is_stmt 0 discriminator 2 view .LVU331
	movs	r2, #1
	mov	r1, r4
	mov	r0, sp
.LVL139:
	.loc 1 364 27 discriminator 2 view .LVU332
	bl	mbedtls_mpi_sub_int
.LVL140:
	.loc 1 364 16 discriminator 2 view .LVU333
	mov	r5, r0
	cmp	r0, #0
	bne	.L45
	.loc 1 364 90 is_stmt 1 discriminator 2 view .LVU334
	.loc 1 365 9 discriminator 2 view .LVU335
	.loc 1 365 14 discriminator 2 view .LVU336
	.loc 1 365 27 is_stmt 0 discriminator 2 view .LVU337
	mov	r2, sp
	add	r1, sp, #12
	mov	r0, r1
.LVL141:
	.loc 1 365 27 discriminator 2 view .LVU338
	bl	mbedtls_mpi_mod_mpi
.LVL142:
	.loc 1 365 16 discriminator 2 view .LVU339
	mov	r5, r0
	cmp	r0, #0
	bne	.L45
	.loc 1 365 92 is_stmt 1 discriminator 2 view .LVU340
	.loc 1 366 9 discriminator 2 view .LVU341
	.loc 1 366 13 is_stmt 0 discriminator 2 view .LVU342
	movs	r1, #0
	add	r0, sp, #12
.LVL143:
	.loc 1 366 13 discriminator 2 view .LVU343
	bl	mbedtls_mpi_cmp_int
.LVL144:
	.loc 1 366 11 discriminator 2 view .LVU344
	cbz	r0, .L59
	.loc 1 368 17 view .LVU345
	ldr	r5, .L60
.LVL145:
	.loc 1 368 17 view .LVU346
	b	.L45
.LVL146:
.L49:
	.loc 1 357 13 is_stmt 1 view .LVU347
	.loc 1 358 13 view .LVU348
	.loc 1 357 17 is_stmt 0 view .LVU349
	ldr	r5, .L60
	.loc 1 358 13 view .LVU350
	b	.L45
.LVL147:
.L59:
	.loc 1 373 9 is_stmt 1 view .LVU351
	.loc 1 373 14 view .LVU352
	.loc 1 373 27 is_stmt 0 view .LVU353
	ldr	r2, [sp, #48]
	mov	r1, r7
	add	r0, sp, #12
	bl	mbedtls_mpi_mul_mpi
.LVL148:
	.loc 1 373 16 view .LVU354
	mov	r5, r0
	cmp	r0, #0
	bne	.L45
	.loc 1 373 90 is_stmt 1 discriminator 2 view .LVU355
	.loc 1 374 9 discriminator 2 view .LVU356
	.loc 1 374 14 discriminator 2 view .LVU357
	.loc 1 374 27 is_stmt 0 discriminator 2 view .LVU358
	movs	r2, #1
	add	r1, sp, #12
	mov	r0, r1
.LVL149:
	.loc 1 374 27 discriminator 2 view .LVU359
	bl	mbedtls_mpi_sub_int
.LVL150:
	.loc 1 374 16 discriminator 2 view .LVU360
	mov	r5, r0
	cmp	r0, #0
	bne	.L45
	.loc 1 374 91 is_stmt 1 discriminator 2 view .LVU361
	.loc 1 375 9 discriminator 2 view .LVU362
	.loc 1 375 14 discriminator 2 view .LVU363
	.loc 1 375 27 is_stmt 0 discriminator 2 view .LVU364
	movs	r2, #1
	mov	r1, r6
	mov	r0, sp
.LVL151:
	.loc 1 375 27 discriminator 2 view .LVU365
	bl	mbedtls_mpi_sub_int
.LVL152:
	.loc 1 375 16 discriminator 2 view .LVU366
	mov	r5, r0
	cmp	r0, #0
	bne	.L45
	.loc 1 375 90 is_stmt 1 discriminator 2 view .LVU367
	.loc 1 376 9 discriminator 2 view .LVU368
	.loc 1 376 14 discriminator 2 view .LVU369
	.loc 1 376 27 is_stmt 0 discriminator 2 view .LVU370
	mov	r2, sp
	add	r1, sp, #12
	mov	r0, r1
.LVL153:
	.loc 1 376 27 discriminator 2 view .LVU371
	bl	mbedtls_mpi_mod_mpi
.LVL154:
	.loc 1 376 16 discriminator 2 view .LVU372
	mov	r5, r0
	cmp	r0, #0
	bne	.L45
	.loc 1 376 92 is_stmt 1 discriminator 2 view .LVU373
	.loc 1 377 9 discriminator 2 view .LVU374
	.loc 1 377 13 is_stmt 0 discriminator 2 view .LVU375
	movs	r1, #0
	add	r0, sp, #12
.LVL155:
	.loc 1 377 13 discriminator 2 view .LVU376
	bl	mbedtls_mpi_cmp_int
.LVL156:
	.loc 1 377 11 discriminator 2 view .LVU377
	cmp	r0, #0
	beq	.L45
	.loc 1 379 17 view .LVU378
	ldr	r5, .L60
.LVL157:
	.loc 1 379 17 view .LVU379
	b	.L45
.L61:
	.align	2
.L60:
	.word	-16896
	.cfi_endproc
.LFE3:
	.size	mbedtls_rsa_validate_params, .-mbedtls_rsa_validate_params
	.section	.text.mbedtls_rsa_validate_crt,"ax",%progbits
	.align	1
	.global	mbedtls_rsa_validate_crt
	.syntax unified
	.thumb
	.thumb_func
	.fpu fpv4-sp-d16
	.type	mbedtls_rsa_validate_crt, %function
mbedtls_rsa_validate_crt:
.LVL158:
.LFB4:
	.loc 1 404 1 is_stmt 1 view -0
	.cfi_startproc
	@ args = 8, pretend = 0, frame = 24
	@ frame_needed = 0, uses_anonymous_args = 0
	.loc 1 404 1 is_stmt 0 view .LVU381
	push	{r4, r5, r6, r7, r8, lr}
	.cfi_def_cfa_offset 24
	.cfi_offset 4, -24
	.cfi_offset 5, -20
	.cfi_offset 6, -16
	.cfi_offset 7, -12
	.cfi_offset 8, -8
	.cfi_offset 14, -4
	sub	sp, sp, #24
	.cfi_def_cfa_offset 48
	mov	r5, r0
	mov	r8, r1
	mov	r7, r2
	mov	r6, r3
	.loc 1 405 5 is_stmt 1 view .LVU382
.LVL159:
	.loc 1 407 5 view .LVU383
	.loc 1 408 5 view .LVU384
	add	r0, sp, #12
.LVL160:
	.loc 1 408 5 is_stmt 0 view .LVU385
	bl	mbedtls_mpi_init
.LVL161:
	.loc 1 409 5 is_stmt 1 view .LVU386
	mov	r0, sp
	bl	mbedtls_mpi_init
.LVL162:
	.loc 1 412 5 view .LVU387
	.loc 1 412 7 is_stmt 0 view .LVU388
	cbz	r6, .L68
	.loc 1 414 9 is_stmt 1 view .LVU389
	.loc 1 414 11 is_stmt 0 view .LVU390
	cmp	r5, #0
	beq	.L69
	.loc 1 420 9 is_stmt 1 view .LVU391
	.loc 1 420 14 view .LVU392
	.loc 1 420 27 is_stmt 0 view .LVU393
	movs	r2, #1
	mov	r1, r5
	add	r0, sp, #12
	bl	mbedtls_mpi_sub_int
.LVL163:
	.loc 1 420 16 view .LVU394
	mov	r4, r0
	cbz	r0, .L77
.LVL164:
.L65:
	.loc 1 473 5 is_stmt 1 view .LVU395
	.loc 1 473 7 is_stmt 0 view .LVU396
	cbz	r4, .L67
.LVL165:
.L64:
	.loc 1 473 18 discriminator 1 view .LVU397
	cmn	r4, #16896
	beq	.L67
	.loc 1 474 24 view .LVU398
	cmn	r4, #16512
	beq	.L67
	.loc 1 477 9 is_stmt 1 view .LVU399
	.loc 1 477 13 is_stmt 0 view .LVU400
	sub	r4, r4, #16896
.LVL166:
.L67:
	.loc 1 480 5 is_stmt 1 view .LVU401
	add	r0, sp, #12
	bl	mbedtls_mpi_free
.LVL167:
	.loc 1 481 5 view .LVU402
	mov	r0, sp
	bl	mbedtls_mpi_free
.LVL168:
	.loc 1 483 5 view .LVU403
	.loc 1 484 1 is_stmt 0 view .LVU404
	mov	r0, r4
	add	sp, sp, #24
	.cfi_remember_state
	.cfi_def_cfa_offset 24
	@ sp needed
	pop	{r4, r5, r6, r7, r8, pc}
.LVL169:
.L77:
	.cfi_restore_state
	.loc 1 420 90 is_stmt 1 discriminator 2 view .LVU405
	.loc 1 421 9 discriminator 2 view .LVU406
	.loc 1 421 14 discriminator 2 view .LVU407
	.loc 1 421 27 is_stmt 0 discriminator 2 view .LVU408
	mov	r2, r7
	mov	r1, r6
	mov	r0, sp
.LVL170:
	.loc 1 421 27 discriminator 2 view .LVU409
	bl	mbedtls_mpi_sub_mpi
.LVL171:
	.loc 1 421 16 discriminator 2 view .LVU410
	mov	r4, r0
	cmp	r0, #0
	bne	.L65
	.loc 1 421 91 is_stmt 1 discriminator 2 view .LVU411
	.loc 1 422 9 discriminator 2 view .LVU412
	.loc 1 422 14 discriminator 2 view .LVU413
	.loc 1 422 27 is_stmt 0 discriminator 2 view .LVU414
	add	r2, sp, #12
	mov	r1, sp
	mov	r0, sp
.LVL172:
	.loc 1 422 27 discriminator 2 view .LVU415
	bl	mbedtls_mpi_mod_mpi
.LVL173:
	.loc 1 422 16 discriminator 2 view .LVU416
	mov	r4, r0
	cmp	r0, #0
	bne	.L65
	.loc 1 422 92 is_stmt 1 discriminator 2 view .LVU417
	.loc 1 424 9 discriminator 2 view .LVU418
	.loc 1 424 13 is_stmt 0 discriminator 2 view .LVU419
	movs	r1, #0
	mov	r0, sp
.LVL174:
	.loc 1 424 13 discriminator 2 view .LVU420
	bl	mbedtls_mpi_cmp_int
.LVL175:
	.loc 1 424 11 discriminator 2 view .LVU421
	cbz	r0, .L63
	.loc 1 426 17 view .LVU422
	ldr	r4, .L78
.LVL176:
	.loc 1 426 17 view .LVU423
	b	.L64
.LVL177:
.L68:
	.loc 1 405 9 view .LVU424
	movs	r4, #0
.LVL178:
.L63:
	.loc 1 432 5 is_stmt 1 view .LVU425
	.loc 1 432 7 is_stmt 0 view .LVU426
	ldr	r3, [sp, #48]
	cbz	r3, .L66
	.loc 1 434 9 is_stmt 1 view .LVU427
	.loc 1 434 11 is_stmt 0 view .LVU428
	cmp	r8, #0
	beq	.L71
	.loc 1 440 9 is_stmt 1 view .LVU429
	.loc 1 440 14 view .LVU430
	.loc 1 440 27 is_stmt 0 view .LVU431
	movs	r2, #1
	mov	r1, r8
	add	r0, sp, #12
	bl	mbedtls_mpi_sub_int
.LVL179:
	.loc 1 440 16 view .LVU432
	mov	r4, r0
	cmp	r0, #0
	bne	.L65
	.loc 1 440 90 is_stmt 1 discriminator 2 view .LVU433
	.loc 1 441 9 discriminator 2 view .LVU434
	.loc 1 441 14 discriminator 2 view .LVU435
	.loc 1 441 27 is_stmt 0 discriminator 2 view .LVU436
	mov	r2, r7
	ldr	r1, [sp, #48]
	mov	r0, sp
.LVL180:
	.loc 1 441 27 discriminator 2 view .LVU437
	bl	mbedtls_mpi_sub_mpi
.LVL181:
	.loc 1 441 16 discriminator 2 view .LVU438
	mov	r4, r0
	cmp	r0, #0
	bne	.L65
	.loc 1 441 91 is_stmt 1 discriminator 2 view .LVU439
	.loc 1 442 9 discriminator 2 view .LVU440
	.loc 1 442 14 discriminator 2 view .LVU441
	.loc 1 442 27 is_stmt 0 discriminator 2 view .LVU442
	add	r2, sp, #12
	mov	r1, sp
	mov	r0, sp
.LVL182:
	.loc 1 442 27 discriminator 2 view .LVU443
	bl	mbedtls_mpi_mod_mpi
.LVL183:
	.loc 1 442 16 discriminator 2 view .LVU444
	mov	r4, r0
	cmp	r0, #0
	bne	.L65
	.loc 1 442 92 is_stmt 1 discriminator 2 view .LVU445
	.loc 1 444 9 discriminator 2 view .LVU446
	.loc 1 444 13 is_stmt 0 discriminator 2 view .LVU447
	movs	r1, #0
	mov	r0, sp
.LVL184:
	.loc 1 444 13 discriminator 2 view .LVU448
	bl	mbedtls_mpi_cmp_int
.LVL185:
	.loc 1 444 11 discriminator 2 view .LVU449
	cbnz	r0, .L72
.L66:
	.loc 1 452 5 is_stmt 1 view .LVU450
	.loc 1 452 7 is_stmt 0 view .LVU451
	ldr	r3, [sp, #52]
	cmp	r3, #0
	beq	.L65
	.loc 1 454 9 is_stmt 1 view .LVU452
	.loc 1 454 11 is_stmt 0 view .LVU453
	cbz	r5, .L73
	.loc 1 454 22 discriminator 1 view .LVU454
	cmp	r8, #0
	beq	.L74
	.loc 1 460 9 is_stmt 1 view .LVU455
	.loc 1 460 14 view .LVU456
	.loc 1 460 27 is_stmt 0 view .LVU457
	mov	r2, r8
	mov	r1, r3
	add	r0, sp, #12
	bl	mbedtls_mpi_mul_mpi
.LVL186:
	.loc 1 460 16 view .LVU458
	mov	r4, r0
	cmp	r0, #0
	bne	.L65
	.loc 1 460 91 is_stmt 1 discriminator 2 view .LVU459
	.loc 1 461 9 discriminator 2 view .LVU460
	.loc 1 461 14 discriminator 2 view .LVU461
	.loc 1 461 27 is_stmt 0 discriminator 2 view .LVU462
	movs	r2, #1
	add	r1, sp, #12
	mov	r0, r1
.LVL187:
	.loc 1 461 27 discriminator 2 view .LVU463
	bl	mbedtls_mpi_sub_int
.LVL188:
	.loc 1 461 16 discriminator 2 view .LVU464
	mov	r4, r0
	cmp	r0, #0
	bne	.L65
	.loc 1 461 91 is_stmt 1 discriminator 2 view .LVU465
	.loc 1 462 9 discriminator 2 view .LVU466
	.loc 1 462 14 discriminator 2 view .LVU467
	.loc 1 462 27 is_stmt 0 discriminator 2 view .LVU468
	mov	r2, r5
	add	r1, sp, #12
	mov	r0, r1
.LVL189:
	.loc 1 462 27 discriminator 2 view .LVU469
	bl	mbedtls_mpi_mod_mpi
.LVL190:
	.loc 1 462 16 discriminator 2 view .LVU470
	mov	r4, r0
	cmp	r0, #0
	bne	.L65
	.loc 1 462 91 is_stmt 1 discriminator 2 view .LVU471
	.loc 1 463 9 discriminator 2 view .LVU472
	.loc 1 463 13 is_stmt 0 discriminator 2 view .LVU473
	movs	r1, #0
	add	r0, sp, #12
.LVL191:
	.loc 1 463 13 discriminator 2 view .LVU474
	bl	mbedtls_mpi_cmp_int
.LVL192:
	.loc 1 463 11 discriminator 2 view .LVU475
	cmp	r0, #0
	beq	.L65
	.loc 1 465 17 view .LVU476
	ldr	r4, .L78
.LVL193:
	.loc 1 465 17 view .LVU477
	b	.L64
.LVL194:
.L69:
	.loc 1 416 17 view .LVU478
	ldr	r4, .L78+4
	b	.L64
.LVL195:
.L71:
	.loc 1 436 17 view .LVU479
	ldr	r4, .L78+4
.LVL196:
	.loc 1 436 17 view .LVU480
	b	.L64
.LVL197:
.L72:
	.loc 1 446 17 view .LVU481
	ldr	r4, .L78
.LVL198:
	.loc 1 446 17 view .LVU482
	b	.L64
.LVL199:
.L73:
	.loc 1 456 17 view .LVU483
	ldr	r4, .L78+4
.LVL200:
	.loc 1 456 17 view .LVU484
	b	.L64
.LVL201:
.L74:
	.loc 1 456 17 view .LVU485
	ldr	r4, .L78+4
.LVL202:
	.loc 1 456 17 view .LVU486
	b	.L64
.L79:
	.align	2
.L78:
	.word	-16896
	.word	-16512
	.cfi_endproc
.LFE4:
	.size	mbedtls_rsa_validate_crt, .-mbedtls_rsa_validate_crt
	.text
.Letext0:
	.file 2 "/home/sebin/LIOT/gcc-arm-none-eabi-9-2019-q4-major/arm-none-eabi/include/machine/_default_types.h"
	.file 3 "/home/sebin/LIOT/gcc-arm-none-eabi-9-2019-q4-major/lib/gcc/arm-none-eabi/9.2.1/include/stddef.h"
	.file 4 "/home/sebin/LIOT/gcc-arm-none-eabi-9-2019-q4-major/arm-none-eabi/include/sys/_stdint.h"
	.file 5 "/home/sebin/thesis/zephyrproject/modules/crypto/mbedtls/include/mbedtls/bignum.h"