	.cpu cortex-m4
	.eabi_attribute 27, 1
	.eabi_attribute 28, 1
	.eabi_attribute 20, 1
	.eabi_attribute 21, 1
	.eabi_attribute 23, 3
	.eabi_attribute 24, 1
	.eabi_attribute 25, 1
	.eabi_attribute 26, 1
	.eabi_attribute 30, 1
	.eabi_attribute 34, 1
	.eabi_attribute 38, 1
	.eabi_attribute 18, 4
	.file	"sha1.c"
	.text
.Ltext0:
	.cfi_sections	.debug_frame
	.section	.text.mbedtls_sha1_init,"ax",%progbits
	.align	1
	.global	mbedtls_sha1_init
	.arch armv7e-m
	.syntax unified
	.thumb
	.thumb_func
	.fpu fpv4-sp-d16
	.type	mbedtls_sha1_init, %function
mbedtls_sha1_init:
.LVL0:
.LFB11:
	.file 1 "/home/sebin/thesis/zephyrproject/modules/crypto/mbedtls/library/sha1.c"
	.loc 1 75 1 view -0
	.cfi_startproc
	@ args = 0, pretend = 0, frame = 0
	@ frame_needed = 0, uses_anonymous_args = 0
	.loc 1 75 1 is_stmt 0 view .LVU1
	push	{r3, lr}
	.cfi_def_cfa_offset 8
	.cfi_offset 3, -8
	.cfi_offset 14, -4
	.loc 1 76 5 is_stmt 1 view .LVU2
	.loc 1 76 10 view .LVU3
	.loc 1 76 17 view .LVU4
	.loc 1 78 4 view .LVU5
.LVL1:
.LBB14:
.LBI14:
	.file 2 "/home/sebin/LIOT/gcc-arm-none-eabi-9-2019-q4-major/arm-none-eabi/include/ssp/string.h"
	.loc 2 86 189 view .LVU6
.LBB15:
	.loc 2 86 238 view .LVU7
	.loc 2 86 245 is_stmt 0 view .LVU8
	movs	r2, #92
	movs	r1, #0
	bl	memset
.LVL2:
	.loc 2 86 245 view .LVU9
.LBE15:
.LBE14:
	.loc 1 79 1 view .LVU10
	pop	{r3, pc}
	.cfi_endproc
.LFE11:
	.size	mbedtls_sha1_init, .-mbedtls_sha1_init
	.section	.text.mbedtls_sha1_free,"ax",%progbits
	.align	1
	.global	mbedtls_sha1_free
	.syntax unified
	.thumb
	.thumb_func
	.fpu fpv4-sp-d16
	.type	mbedtls_sha1_free, %function
mbedtls_sha1_free:
.LVL3:
.LFB12:
	.loc 1 82 1 is_stmt 1 view -0
	.cfi_startproc
	@ args = 0, pretend = 0, frame = 0
	@ frame_needed = 0, uses_anonymous_args = 0
	.loc 1 83 5 view .LVU12
	.loc 1 83 7 is_stmt 0 view .LVU13
	cbz	r0, .L6
	.loc 1 82 1 view .LVU14
	push	{r3, lr}
	.cfi_def_cfa_offset 8
	.cfi_offset 3, -8
	.cfi_offset 14, -4
	.loc 1 86 5 is_stmt 1 view .LVU15
	movs	r1, #92
	bl	mbedtls_platform_zeroize
.LVL4:
	.loc 1 87 1 is_stmt 0 view .LVU16
	pop	{r3, pc}
.LVL5:
.L6:
	.cfi_def_cfa_offset 0
	.cfi_restore 3
	.cfi_restore 14
	.loc 1 87 1 view .LVU17
	bx	lr
	.cfi_endproc
.LFE12:
	.size	mbedtls_sha1_free, .-mbedtls_sha1_free
	.section	.text.mbedtls_sha1_clone,"ax",%progbits
	.align	1
	.global	mbedtls_sha1_clone
	.syntax unified
	.thumb
	.thumb_func
	.fpu fpv4-sp-d16
	.type	mbedtls_sha1_clone, %function
mbedtls_sha1_clone:
.LVL6:
.LFB13:
	.loc 1 91 1 is_stmt 1 view -0
	.cfi_startproc
	@ args = 0, pretend = 0, frame = 0
	@ frame_needed = 0, uses_anonymous_args = 0
	.loc 1 91 1 is_stmt 0 view .LVU19
	push	{r3, lr}
	.cfi_def_cfa_offset 8
	.cfi_offset 3, -8
	.cfi_offset 14, -4
	.loc 1 92 5 is_stmt 1 view .LVU20
	.loc 1 92 10 view .LVU21
	.loc 1 92 17 view .LVU22
	.loc 1 93 5 view .LVU23
	.loc 1 93 10 view .LVU24
	.loc 1 93 17 view .LVU25
	.loc 1 95 5 view .LVU26
	.loc 1 95 10 is_stmt 0 view .LVU27
	movs	r2, #92
	bl	memcpy
.LVL7:
	.loc 1 96 1 view .LVU28
	pop	{r3, pc}
	.cfi_endproc
.LFE13:
	.size	mbedtls_sha1_clone, .-mbedtls_sha1_clone
	.section	.text.mbedtls_sha1_starts,"ax",%progbits
	.align	1
	.global	mbedtls_sha1_starts
	.syntax unified
	.thumb
	.thumb_func
	.fpu fpv4-sp-d16
	.type	mbedtls_sha1_starts, %function
mbedtls_sha1_starts:
.LVL8:
.LFB14:
	.loc 1 102 1 is_stmt 1 view -0
	.cfi_startproc
	@ args = 0, pretend = 0, frame = 0
	@ frame_needed = 0, uses_anonymous_args = 0
	@ link register save eliminated.
	.loc 1 102 1 is_stmt 0 view .LVU30
	mov	r3, r0
	.loc 1 103 5 is_stmt 1 view .LVU31
	.loc 1 103 10 view .LVU32
	.loc 1 103 17 view .LVU33
	.loc 1 105 5 view .LVU34
	.loc 1 105 19 is_stmt 0 view .LVU35
	movs	r0, #0
.LVL9:
	.loc 1 105 19 view .LVU36
	str	r0, [r3]
	.loc 1 106 5 is_stmt 1 view .LVU37
	.loc 1 106 19 is_stmt 0 view .LVU38
	str	r0, [r3, #4]
	.loc 1 108 5 is_stmt 1 view .LVU39
	.loc 1 108 19 is_stmt 0 view .LVU40
	ldr	r2, .L12
	str	r2, [r3, #8]
	.loc 1 109 5 is_stmt 1 view .LVU41
	.loc 1 109 19 is_stmt 0 view .LVU42
	add	r2, r2, #-2004318072
	str	r2, [r3, #12]
	.loc 1 110 5 is_stmt 1 view .LVU43
	.loc 1 110 19 is_stmt 0 view .LVU44
	add	r2, r2, #-1459617792
	sub	r2, r2, #1228800
	subw	r2, r2, #3723
	str	r2, [r3, #16]
	.loc 1 111 5 is_stmt 1 view .LVU45
	.loc 1 111 19 is_stmt 0 view .LVU46
	sub	r2, r2, #-2004318072
	str	r2, [r3, #20]
	.loc 1 112 5 is_stmt 1 view .LVU47
	.loc 1 112 19 is_stmt 0 view .LVU48
	ldr	r2, .L12+4
	str	r2, [r3, #24]
	.loc 1 114 5 is_stmt 1 view .LVU49
	.loc 1 115 1 is_stmt 0 view .LVU50
	bx	lr
.L13:
	.align	2
.L12:
	.word	1732584193
	.word	-1009589776
	.cfi_endproc
.LFE14:
	.size	mbedtls_sha1_starts, .-mbedtls_sha1_starts
	.section	.text.mbedtls_internal_sha1_process,"ax",%progbits
	.align	1
	.global	mbedtls_internal_sha1_process
	.syntax unified
	.thumb
	.thumb_func
	.fpu fpv4-sp-d16
	.type	mbedtls_internal_sha1_process, %function
mbedtls_internal_sha1_process:
.LVL10:
.LFB15:
	.loc 1 120 1 is_stmt 1 view -0
	.cfi_startproc
	@ args = 0, pretend = 0, frame = 176
	@ frame_needed = 0, uses_anonymous_args = 0
	.loc 1 120 1 is_stmt 0 view .LVU52
	push	{r4, r5, r6, r7, r8, r9, r10, fp, lr}
	.cfi_def_cfa_offset 36
	.cfi_offset 4, -36
	.cfi_offset 5, -32
	.cfi_offset 6, -28
	.cfi_offset 7, -24
	.cfi_offset 8, -20
	.cfi_offset 9, -16
	.cfi_offset 10, -12
	.cfi_offset 11, -8
	.cfi_offset 14, -4
	sub	sp, sp, #180
	.cfi_def_cfa_offset 216
	mov	r9, r0
	.loc 1 121 5 is_stmt 1 view .LVU53
	.loc 1 126 5 view .LVU54
	.loc 1 126 10 view .LVU55
	.loc 1 126 17 view .LVU56
	.loc 1 127 5 view .LVU57
	.loc 1 127 10 view .LVU58
	.loc 1 127 17 view .LVU59
	.loc 1 129 7 view .LVU60
	.loc 1 129 42 is_stmt 0 view .LVU61
	ldrb	r2, [r1]	@ zero_extendqisi2
	.loc 1 129 78 view .LVU62
	ldrb	r3, [r1, #1]	@ zero_extendqisi2
	.loc 1 129 88 view .LVU63
	lsls	r3, r3, #16
	.loc 1 129 57 view .LVU64
	orr	r3, r3, r2, lsl #24
	.loc 1 129 117 view .LVU65
	ldrb	r2, [r1, #2]	@ zero_extendqisi2
	.loc 1 129 96 view .LVU66
	orr	r3, r3, r2, lsl #8
	.loc 1 129 155 view .LVU67
	ldrb	r2, [r1, #3]	@ zero_extendqisi2
	.loc 1 129 134 view .LVU68
	orrs	r3, r3, r2
	str	r3, [sp, #52]
	.loc 1 129 169 is_stmt 1 view .LVU69
	.loc 1 130 7 view .LVU70
	.loc 1 130 42 is_stmt 0 view .LVU71
	ldrb	r3, [r1, #4]	@ zero_extendqisi2
	.loc 1 130 78 view .LVU72
	ldrb	r7, [r1, #5]	@ zero_extendqisi2
	.loc 1 130 88 view .LVU73
	lsls	r7, r7, #16
	.loc 1 130 57 view .LVU74
	orr	r7, r7, r3, lsl #24
	.loc 1 130 117 view .LVU75
	ldrb	r3, [r1, #6]	@ zero_extendqisi2
	.loc 1 130 96 view .LVU76
	orr	r7, r7, r3, lsl #8
	.loc 1 130 155 view .LVU77
	ldrb	r10, [r1, #7]	@ zero_extendqisi2
	.loc 1 130 134 view .LVU78
	orr	r2, r7, r10
	str	r2, [sp, #56]
	.loc 1 130 169 is_stmt 1 view .LVU79
	.loc 1 131 7 view .LVU80
	.loc 1 131 42 is_stmt 0 view .LVU81
	ldrb	r2, [r1, #8]	@ zero_extendqisi2
	.loc 1 131 78 view .LVU82
	ldrb	r3, [r1, #9]	@ zero_extendqisi2
	.loc 1 131 88 view .LVU83
	lsls	r3, r3, #16
	.loc 1 131 57 view .LVU84
	orr	r3, r3, r2, lsl #24
	.loc 1 131 117 view .LVU85
	ldrb	r2, [r1, #10]	@ zero_extendqisi2
	.loc 1 131 96 view .LVU86
	orr	r3, r3, r2, lsl #8
	.loc 1 131 155 view .LVU87
	ldrb	r2, [r1, #11]	@ zero_extendqisi2
	.loc 1 131 134 view .LVU88
	orrs	r3, r3, r2
	str	r3, [sp, #36]
	.loc 1 131 169 is_stmt 1 view .LVU89
	.loc 1 132 7 view .LVU90
	.loc 1 132 42 is_stmt 0 view .LVU91
	ldrb	r2, [r1, #12]	@ zero_extendqisi2
	.loc 1 132 79 view .LVU92
	ldrb	ip, [r1, #13]	@ zero_extendqisi2
	.loc 1 132 90 view .LVU93
	lsl	ip, ip, #16
	.loc 1 132 58 view .LVU94
	orr	ip, ip, r2, lsl #24
	.loc 1 132 119 view .LVU95
	ldrb	r2, [r1, #14]	@ zero_extendqisi2
	.loc 1 132 98 view .LVU96
	orr	ip, ip, r2, lsl #8
	.loc 1 132 158 view .LVU97
	ldrb	r2, [r1, #15]	@ zero_extendqisi2
	.loc 1 132 137 view .LVU98
	orr	ip, ip, r2
	.loc 1 132 173 is_stmt 1 view .LVU99
	.loc 1 133 7 view .LVU100
	.loc 1 133 42 is_stmt 0 view .LVU101
	ldrb	r2, [r1, #16]	@ zero_extendqisi2
	.loc 1 133 79 view .LVU102
	ldrb	r10, [r1, #17]	@ zero_extendqisi2
	.loc 1 133 90 view .LVU103
	lsl	r10, r10, #16
	.loc 1 133 58 view .LVU104
	orr	r10, r10, r2, lsl #24
	.loc 1 133 119 view .LVU105
	ldrb	r2, [r1, #18]	@ zero_extendqisi2
	.loc 1 133 98 view .LVU106
	orr	r10, r10, r2, lsl #8
	.loc 1 133 158 view .LVU107
	ldrb	r2, [r1, #19]	@ zero_extendqisi2
	.loc 1 133 137 view .LVU108
	orr	r2, r10, r2
	str	r2, [sp, #40]
	.loc 1 133 173 is_stmt 1 view .LVU109
	.loc 1 134 7 view .LVU110
	.loc 1 134 42 is_stmt 0 view .LVU111
	ldrb	r0, [r1, #20]	@ zero_extendqisi2
.LVL11:
	.loc 1 134 79 view .LVU112
	ldrb	r2, [r1, #21]	@ zero_extendqisi2
	.loc 1 134 90 view .LVU113
	lsls	r2, r2, #16
	.loc 1 134 58 view .LVU114
	orr	r2, r2, r0, lsl #24
	.loc 1 134 119 view .LVU115
	ldrb	r0, [r1, #22]	@ zero_extendqisi2
	.loc 1 134 98 view .LVU116
	orr	r2, r2, r0, lsl #8
	.loc 1 134 158 view .LVU117
	ldrb	r0, [r1, #23]	@ zero_extendqisi2
	.loc 1 134 137 view .LVU118
	orr	r4, r2, r0
	str	r4, [sp, #60]
	.loc 1 134 173 is_stmt 1 view .LVU119
	.loc 1 135 7 view .LVU120
	.loc 1 135 42 is_stmt 0 view .LVU121
	ldrb	r0, [r1, #24]	@ zero_extendqisi2
	.loc 1 135 79 view .LVU122
	ldrb	r2, [r1, #25]	@ zero_extendqisi2
	.loc 1 135 90 view .LVU123
	lsls	r2, r2, #16
	.loc 1 135 58 view .LVU124
	orr	r2, r2, r0, lsl #24
	.loc 1 135 119 view .LVU125
	ldrb	r0, [r1, #26]	@ zero_extendqisi2
	.loc 1 135 98 view .LVU126
	orr	r2, r2, r0, lsl #8
	.loc 1 135 158 view .LVU127
	ldrb	r0, [r1, #27]	@ zero_extendqisi2
	.loc 1 135 137 view .LVU128
	orr	r5, r2, r0
	str	r5, [sp, #44]
	.loc 1 135 173 is_stmt 1 view .LVU129
	.loc 1 136 7 view .LVU130
	.loc 1 136 42 is_stmt 0 view .LVU131
	ldrb	r0, [r1, #28]	@ zero_extendqisi2
	.loc 1 136 79 view .LVU132
	ldrb	r2, [r1, #29]	@ zero_extendqisi2
	.loc 1 136 90 view .LVU133
	lsls	r2, r2, #16
	.loc 1 136 58 view .LVU134
	orr	r2, r2, r0, lsl #24
	.loc 1 136 119 view .LVU135
	ldrb	r0, [r1, #30]	@ zero_extendqisi2
	.loc 1 136 98 view .LVU136
	orr	r2, r2, r0, lsl #8
	.loc 1 136 158 view .LVU137
	ldrb	r0, [r1, #31]	@ zero_extendqisi2
	.loc 1 136 137 view .LVU138
	orr	r7, r2, r0
	str	r7, [sp, #48]
	.loc 1 136 173 is_stmt 1 view .LVU139
	.loc 1 137 7 view .LVU140
	.loc 1 137 42 is_stmt 0 view .LVU141
	ldrb	r0, [r1, #32]	@ zero_extendqisi2
	.loc 1 137 79 view .LVU142
	ldrb	r2, [r1, #33]	@ zero_extendqisi2
	.loc 1 137 90 view .LVU143
	lsls	r2, r2, #16
	.loc 1 137 58 view .LVU144
	orr	r2, r2, r0, lsl #24
	.loc 1 137 119 view .LVU145
	ldrb	r0, [r1, #34]	@ zero_extendqisi2
	.loc 1 137 98 view .LVU146
	orr	r2, r2, r0, lsl #8
	.loc 1 137 158 view .LVU147
	ldrb	r0, [r1, #35]	@ zero_extendqisi2
	.loc 1 137 137 view .LVU148
	orr	lr, r2, r0
	str	lr, [sp, #12]
	.loc 1 137 173 is_stmt 1 view .LVU149
	.loc 1 138 7 view .LVU150
	.loc 1 138 42 is_stmt 0 view .LVU151
	ldrb	r0, [r1, #36]	@ zero_extendqisi2
	.loc 1 138 79 view .LVU152
	ldrb	r2, [r1, #37]	@ zero_extendqisi2
	.loc 1 138 90 view .LVU153
	lsls	r2, r2, #16
	.loc 1 138 58 view .LVU154
	orr	r2, r2, r0, lsl #24
	.loc 1 138 119 view .LVU155
	ldrb	r0, [r1, #38]	@ zero_extendqisi2
	.loc 1 138 98 view .LVU156
	orr	r2, r2, r0, lsl #8
	.loc 1 138 158 view .LVU157
	ldrb	r0, [r1, #39]	@ zero_extendqisi2
	.loc 1 138 137 view .LVU158
	orr	lr, r2, r0
	str	lr, [sp, #16]
	.loc 1 138 173 is_stmt 1 view .LVU159
	.loc 1 139 7 view .LVU160
	.loc 1 139 42 is_stmt 0 view .LVU161
	ldrb	r2, [r1, #40]	@ zero_extendqisi2
	.loc 1 139 79 view .LVU162
	ldrb	r5, [r1, #41]	@ zero_extendqisi2
	.loc 1 139 90 view .LVU163
	lsls	r5, r5, #16
	.loc 1 139 58 view .LVU164
	orr	r5, r5, r2, lsl #24
	.loc 1 139 119 view .LVU165
	ldrb	r2, [r1, #42]	@ zero_extendqisi2
	.loc 1 139 98 view .LVU166
	orr	r5, r5, r2, lsl #8
	.loc 1 139 158 view .LVU167
	ldrb	r2, [r1, #43]	@ zero_extendqisi2
	.loc 1 139 137 view .LVU168
	orrs	r5, r5, r2
	str	r5, [sp, #20]
	.loc 1 139 173 is_stmt 1 view .LVU169
	.loc 1 140 7 view .LVU170
	.loc 1 140 42 is_stmt 0 view .LVU171
	ldrb	r0, [r1, #44]	@ zero_extendqisi2
	.loc 1 140 79 view .LVU172
	ldrb	r2, [r1, #45]	@ zero_extendqisi2
	.loc 1 140 90 view .LVU173
	lsls	r2, r2, #16
	.loc 1 140 58 view .LVU174
	orr	r2, r2, r0, lsl #24
	.loc 1 140 119 view .LVU175
	ldrb	r0, [r1, #46]	@ zero_extendqisi2
	.loc 1 140 98 view .LVU176
	orr	r2, r2, r0, lsl #8
	.loc 1 140 158 view .LVU177
	ldrb	r0, [r1, #47]	@ zero_extendqisi2
	.loc 1 140 137 view .LVU178
	orr	lr, r2, r0
	str	lr, [sp, #24]
	.loc 1 140 173 is_stmt 1 view .LVU179
	.loc 1 141 7 view .LVU180
	.loc 1 141 42 is_stmt 0 view .LVU181
	ldrb	r2, [r1, #48]	@ zero_extendqisi2
	.loc 1 141 79 view .LVU182
	ldrb	r8, [r1, #49]	@ zero_extendqisi2
	.loc 1 141 90 view .LVU183
	lsl	r8, r8, #16
	.loc 1 141 58 view .LVU184
	orr	r8, r8, r2, lsl #24
	.loc 1 141 119 view .LVU185
	ldrb	r2, [r1, #50]	@ zero_extendqisi2
	.loc 1 141 98 view .LVU186
	orr	r8, r8, r2, lsl #8
	.loc 1 141 158 view .LVU187
	ldrb	r2, [r1, #51]	@ zero_extendqisi2
	.loc 1 141 137 view .LVU188
	orr	lr, r8, r2
	str	lr, [sp, #28]
	.loc 1 141 173 is_stmt 1 view .LVU189
	.loc 1 142 7 view .LVU190
	.loc 1 142 42 is_stmt 0 view .LVU191
	ldrb	r2, [r1, #52]	@ zero_extendqisi2
	.loc 1 142 79 view .LVU192
	ldrb	r5, [r1, #53]	@ zero_extendqisi2
	.loc 1 142 90 view .LVU193
	lsls	r5, r5, #16
	.loc 1 142 58 view .LVU194
	orr	r5, r5, r2, lsl #24
	.loc 1 142 119 view .LVU195
	ldrb	r2, [r1, #54]	@ zero_extendqisi2
	.loc 1 142 98 view .LVU196
	orr	r5, r5, r2, lsl #8
	.loc 1 142 158 view .LVU197
	ldrb	r2, [r1, #55]	@ zero_extendqisi2
	.loc 1 142 137 view .LVU198
	orr	lr, r5, r2
	str	lr, [sp, #32]
	.loc 1 142 173 is_stmt 1 view .LVU199
	.loc 1 143 7 view .LVU200
	.loc 1 143 42 is_stmt 0 view .LVU201
	ldrb	r0, [r1, #56]	@ zero_extendqisi2
	.loc 1 143 79 view .LVU202
	ldrb	r2, [r1, #57]	@ zero_extendqisi2
	.loc 1 143 90 view .LVU203
	lsls	r2, r2, #16
	.loc 1 143 58 view .LVU204
	orr	r2, r2, r0, lsl #24
	.loc 1 143 119 view .LVU205
	ldrb	r0, [r1, #58]	@ zero_extendqisi2
	.loc 1 143 98 view .LVU206
	orr	r2, r2, r0, lsl #8
	.loc 1 143 158 view .LVU207
	ldrb	r0, [r1, #59]	@ zero_extendqisi2
	.loc 1 143 137 view .LVU208
	orr	lr, r2, r0
	str	lr, [sp, #4]
	.loc 1 143 173 is_stmt 1 view .LVU209
	.loc 1 144 7 view .LVU210
	.loc 1 144 42 is_stmt 0 view .LVU211
	ldrb	r2, [r1, #60]	@ zero_extendqisi2
	.loc 1 144 79 view .LVU212
	ldrb	r8, [r1, #61]	@ zero_extendqisi2
	.loc 1 144 90 view .LVU213
	lsl	r8, r8, #16
	.loc 1 144 58 view .LVU214
	orr	r8, r8, r2, lsl #24
	.loc 1 144 119 view .LVU215
	ldrb	r2, [r1, #62]	@ zero_extendqisi2
	.loc 1 144 98 view .LVU216
	orr	r8, r8, r2, lsl #8
	.loc 1 144 158 view .LVU217
	ldrb	r1, [r1, #63]	@ zero_extendqisi2
.LVL12:
	.loc 1 144 137 view .LVU218
	orr	lr, r8, r1
	str	lr, [sp, #8]
	.loc 1 144 173 is_stmt 1 view .LVU219
	.loc 1 164 5 view .LVU220
	.loc 1 164 25 is_stmt 0 view .LVU221
	ldr	r0, [r9, #8]
	.loc 1 165 5 is_stmt 1 view .LVU222
	.loc 1 165 25 is_stmt 0 view .LVU223
	ldr	r6, [r9, #12]
	.loc 1 166 5 is_stmt 1 view .LVU224
	.loc 1 166 25 is_stmt 0 view .LVU225
	ldr	r5, [r9, #16]
	.loc 1 167 5 is_stmt 1 view .LVU226
	.loc 1 167 25 is_stmt 0 view .LVU227
	ldr	r7, [r9, #20]
	.loc 1 168 5 is_stmt 1 view .LVU228
	.loc 1 168 25 is_stmt 0 view .LVU229
	str	r9, [sp, #84]
	ldr	r2, [r9, #24]
	.loc 1 173 5 is_stmt 1 view .LVU230
	.loc 1 173 10 view .LVU231
	.loc 1 173 136 is_stmt 0 view .LVU232
	eor	r4, r5, r7
	.loc 1 173 121 view .LVU233
	ands	r4, r4, r6
	.loc 1 173 106 view .LVU234
	eors	r4, r4, r7
	.loc 1 173 91 view .LVU235
	add	r4, r4, r0, ror #27
	.loc 1 173 166 view .LVU236
	ldr	r1, [sp, #52]
	add	r4, r4, r1
	.loc 1 173 20 view .LVU237
	add	r4, r4, r2
	ldr	r2, .L16
	add	r4, r4, r2
	.loc 1 173 182 is_stmt 1 view .LVU238
	.loc 1 173 272 view .LVU239
	.loc 1 174 5 view .LVU240
	.loc 1 174 10 view .LVU241
	.loc 1 174 136 is_stmt 0 view .LVU242
	eor	r1, r5, r6, ror #2
	.loc 1 174 121 view .LVU243
	ands	r1, r1, r0
	.loc 1 174 106 view .LVU244
	eors	r1, r1, r5
	.loc 1 174 91 view .LVU245
	add	r1, r1, r4, ror #27
	.loc 1 174 166 view .LVU246
	ldr	r3, [sp, #56]
	add	r1, r1, r3
	.loc 1 174 20 view .LVU247
	add	r7, r7, r1
	add	r7, r7, r2
	.loc 1 174 182 is_stmt 1 view .LVU248
	.loc 1 174 217 is_stmt 0 view .LVU249
	ror	r0, r0, #2
	.loc 1 174 272 is_stmt 1 view .LVU250
	.loc 1 175 5 view .LVU251
	.loc 1 175 10 view .LVU252
	.loc 1 175 136 is_stmt 0 view .LVU253
	eor	r8, r0, r6, ror #2
	.loc 1 175 121 view .LVU254
	and	r8, r4, r8
	.loc 1 175 106 view .LVU255
	eor	r8, r8, r6, ror #2
	.loc 1 175 91 view .LVU256
	add	r8, r8, r7, ror #27
	.loc 1 175 166 view .LVU257
	ldr	r1, [sp, #36]
	add	r8, r8, r1
	.loc 1 175 20 view .LVU258
	add	r8, r8, r5
	add	r8, r8, r2
	.loc 1 175 182 is_stmt 1 view .LVU259
	.loc 1 175 272 view .LVU260
	.loc 1 176 5 view .LVU261
	.loc 1 176 10 view .LVU262
	.loc 1 176 136 is_stmt 0 view .LVU263
	eor	r5, r0, r4, ror #2
	.loc 1 176 121 view .LVU264
	ands	r5, r5, r7
	.loc 1 176 106 view .LVU265
	eors	r5, r5, r0
	.loc 1 176 91 view .LVU266
	add	r5, r5, r8, ror #27
	.loc 1 176 166 view .LVU267
	add	r5, r5, ip
	.loc 1 176 20 view .LVU268
	add	r5, r5, r6, ror #2
	add	r5, r5, r2
	.loc 1 176 182 is_stmt 1 view .LVU269
	.loc 1 176 217 is_stmt 0 view .LVU270
	ror	r7, r7, #2
	.loc 1 176 272 is_stmt 1 view .LVU271
	.loc 1 177 5 view .LVU272
	.loc 1 177 10 view .LVU273
	.loc 1 177 136 is_stmt 0 view .LVU274
	eor	r6, r7, r4, ror #2
	.loc 1 177 121 view .LVU275
	and	r6, r8, r6
	.loc 1 177 106 view .LVU276
	eor	r6, r6, r4, ror #2
	.loc 1 177 91 view .LVU277
	add	r6, r6, r5, ror #27
	.loc 1 177 166 view .LVU278
	ldr	r1, [sp, #40]
	add	r6, r6, r1
	.loc 1 177 20 view .LVU279
	add	r0, r0, r6
	add	r0, r0, r2
	.loc 1 177 182 is_stmt 1 view .LVU280
	.loc 1 177 272 view .LVU281
	.loc 1 178 5 view .LVU282
	.loc 1 178 10 view .LVU283
	.loc 1 178 136 is_stmt 0 view .LVU284
	eor	r1, r7, r8, ror #2
	.loc 1 178 121 view .LVU285
	ands	r1, r1, r5
	.loc 1 178 106 view .LVU286
	eors	r1, r1, r7
	.loc 1 178 91 view .LVU287
	add	r1, r1, r0, ror #27
	.loc 1 178 166 view .LVU288
	ldr	r6, [sp, #60]
	add	r1, r1, r6
	.loc 1 178 20 view .LVU289
	add	r1, r1, r4, ror #2
	add	r1, r1, r2
	.loc 1 178 182 is_stmt 1 view .LVU290
	.loc 1 178 217 is_stmt 0 view .LVU291
	ror	r5, r5, #2
	.loc 1 178 272 is_stmt 1 view .LVU292
	.loc 1 179 5 view .LVU293
	.loc 1 179 10 view .LVU294
	.loc 1 179 136 is_stmt 0 view .LVU295
	eor	r4, r5, r8, ror #2
	.loc 1 179 121 view .LVU296
	ands	r4, r4, r0
	.loc 1 179 106 view .LVU297
	eor	r4, r4, r8, ror #2
	.loc 1 179 91 view .LVU298
	add	r4, r4, r1, ror #27
	.loc 1 179 166 view .LVU299
	ldr	r6, [sp, #44]
	add	r4, r4, r6
	.loc 1 179 20 view .LVU300
	add	r7, r7, r4
	add	r7, r7, r2
	.loc 1 179 182 is_stmt 1 view .LVU301
	.loc 1 179 272 view .LVU302
	.loc 1 180 5 view .LVU303
	.loc 1 180 10 view .LVU304
	.loc 1 180 136 is_stmt 0 view .LVU305
	eor	fp, r5, r0, ror #2
	.loc 1 180 121 view .LVU306
	and	fp, r1, fp
	.loc 1 180 106 view .LVU307
	eor	fp, r5, fp
	.loc 1 180 91 view .LVU308
	add	fp, fp, r7, ror #27
	.loc 1 180 166 view .LVU309
	ldr	r6, [sp, #48]
	add	fp, fp, r6
	.loc 1 180 20 view .LVU310
	add	fp, fp, r8, ror #2
	add	fp, fp, r2
	.loc 1 180 182 is_stmt 1 view .LVU311
	.loc 1 180 217 is_stmt 0 view .LVU312
	ror	r1, r1, #2
	.loc 1 180 272 is_stmt 1 view .LVU313
	.loc 1 181 5 view .LVU314
	.loc 1 181 10 view .LVU315
	.loc 1 181 136 is_stmt 0 view .LVU316
	eor	r10, r1, r0, ror #2
	.loc 1 181 121 view .LVU317
	and	r10, r7, r10
	.loc 1 181 106 view .LVU318
	eor	r10, r10, r0, ror #2
	.loc 1 181 91 view .LVU319
	add	r10, r10, fp, ror #27
	.loc 1 181 166 view .LVU320
	ldr	r6, [sp, #12]
	add	r10, r10, r6
	.loc 1 181 20 view .LVU321
	add	r5, r5, r10
	add	r5, r5, r2
	.loc 1 181 182 is_stmt 1 view .LVU322
	.loc 1 181 272 view .LVU323
	.loc 1 182 5 view .LVU324
	.loc 1 182 10 view .LVU325
	.loc 1 182 136 is_stmt 0 view .LVU326
	eor	r6, r1, r7, ror #2
	.loc 1 182 121 view .LVU327
	and	r6, fp, r6
	.loc 1 182 106 view .LVU328
	eors	r6, r6, r1
	.loc 1 182 91 view .LVU329
	add	r6, r6, r5, ror #27
	.loc 1 182 166 view .LVU330
	ldr	r4, [sp, #16]
	add	r6, r6, r4
	.loc 1 182 20 view .LVU331
	add	r6, r6, r0, ror #2
	add	r6, r6, r2
	.loc 1 182 182 is_stmt 1 view .LVU332
	.loc 1 182 217 is_stmt 0 view .LVU333
	ror	fp, fp, #2
	.loc 1 182 272 is_stmt 1 view .LVU334
	.loc 1 183 5 view .LVU335
	.loc 1 183 10 view .LVU336
	.loc 1 183 136 is_stmt 0 view .LVU337
	eor	r8, fp, r7, ror #2
	.loc 1 183 121 view .LVU338
	and	r8, r5, r8
	.loc 1 183 106 view .LVU339
	eor	r8, r8, r7, ror #2
	.loc 1 183 91 view .LVU340
	add	r8, r8, r6, ror #27
	.loc 1 183 166 view .LVU341
	ldr	r0, [sp, #20]
	add	r8, r8, r0
	.loc 1 183 20 view .LVU342
	add	r1, r1, r8
	add	r1, r1, r2
	.loc 1 183 183 is_stmt 1 view .LVU343
	.loc 1 183 273 view .LVU344
	.loc 1 184 5 view .LVU345
	.loc 1 184 10 view .LVU346
	.loc 1 184 136 is_stmt 0 view .LVU347
	eor	lr, fp, r5, ror #2
	.loc 1 184 121 view .LVU348
	and	lr, r6, lr
	.loc 1 184 106 view .LVU349
	eor	lr, fp, lr
	.loc 1 184 91 view .LVU350
	add	lr, lr, r1, ror #27
	.loc 1 184 166 view .LVU351
	ldr	r0, [sp, #24]
	add	lr, lr, r0
	.loc 1 184 20 view .LVU352
	add	r7, lr, r7, ror #2
	add	r7, r7, r2
	.loc 1 184 183 is_stmt 1 view .LVU353
	.loc 1 184 218 is_stmt 0 view .LVU354
	ror	r6, r6, #2
	.loc 1 184 273 is_stmt 1 view .LVU355
	.loc 1 185 5 view .LVU356
	.loc 1 185 10 view .LVU357
	.loc 1 185 136 is_stmt 0 view .LVU358
	eor	r9, r6, r5, ror #2
.LVL13:
	.loc 1 185 121 view .LVU359
	and	r9, r1, r9
	.loc 1 185 106 view .LVU360
	eor	r9, r9, r5, ror #2
	.loc 1 185 91 view .LVU361
	add	r9, r9, r7, ror #27
	.loc 1 185 166 view .LVU362
	ldr	r0, [sp, #28]
	add	r9, r9, r0
	.loc 1 185 20 view .LVU363
	add	fp, fp, r9
	add	r9, fp, r2
	.loc 1 185 183 is_stmt 1 view .LVU364
	.loc 1 185 273 view .LVU365
	.loc 1 186 5 view .LVU366
	.loc 1 186 10 view .LVU367
	.loc 1 186 136 is_stmt 0 view .LVU368
	eor	r10, r6, r1, ror #2
	.loc 1 186 121 view .LVU369
	and	r10, r7, r10
	.loc 1 186 106 view .LVU370
	eor	r10, r6, r10
	.loc 1 186 91 view .LVU371
	add	r10, r10, r9, ror #27
	.loc 1 186 166 view .LVU372
	ldr	r4, [sp, #32]
	add	r10, r10, r4
	.loc 1 186 20 view .LVU373
	add	r10, r10, r5, ror #2
	add	r10, r10, r2
	.loc 1 186 183 is_stmt 1 view .LVU374
	.loc 1 186 218 is_stmt 0 view .LVU375
	ror	r7, r7, #2
	.loc 1 186 273 is_stmt 1 view .LVU376
	.loc 1 187 5 view .LVU377
	.loc 1 187 10 view .LVU378
	.loc 1 187 136 is_stmt 0 view .LVU379
	eor	r0, r7, r1, ror #2
	.loc 1 187 121 view .LVU380
	and	r0, r9, r0
	.loc 1 187 106 view .LVU381
	eor	r0, r0, r1, ror #2
	.loc 1 187 91 view .LVU382
	add	r0, r0, r10, ror #27
	.loc 1 187 166 view .LVU383
	ldr	r3, [sp, #4]
	add	r0, r0, r3
	.loc 1 187 20 view .LVU384
	add	r6, r6, r0
	adds	r0, r6, r2
	.loc 1 187 183 is_stmt 1 view .LVU385
	.loc 1 187 273 view .LVU386
	.loc 1 188 5 view .LVU387
	.loc 1 188 10 view .LVU388
	.loc 1 188 136 is_stmt 0 view .LVU389
	eor	r8, r7, r9, ror #2
	.loc 1 188 121 view .LVU390
	and	r8, r10, r8
	.loc 1 188 106 view .LVU391
	eor	r8, r7, r8
	.loc 1 188 91 view .LVU392
	add	r8, r8, r0, ror #27
	.loc 1 188 166 view .LVU393
	ldr	r6, [sp, #8]
	add	r8, r8, r6
	.loc 1 188 20 view .LVU394
	add	r8, r8, r1, ror #2
	add	r8, r8, r2
	.loc 1 188 183 is_stmt 1 view .LVU395
	.loc 1 188 218 is_stmt 0 view .LVU396
	ror	r10, r10, #2
	.loc 1 188 273 is_stmt 1 view .LVU397
	.loc 1 189 5 view .LVU398
	.loc 1 189 10 view .LVU399
	.loc 1 189 213 is_stmt 0 view .LVU400
	ldr	r5, [sp, #12]
	eor	r1, r5, r4
	.loc 1 189 244 view .LVU401
	ldr	r4, [sp, #36]
	eors	r1, r1, r4
	.loc 1 189 276 view .LVU402
	ldr	r5, [sp, #52]
	eors	r1, r1, r5
	.loc 1 189 136 view .LVU403
	eor	lr, r10, r9, ror #2
	.loc 1 189 121 view .LVU404
	and	lr, r0, lr
	.loc 1 189 106 view .LVU405
	eor	lr, lr, r9, ror #2
	.loc 1 189 91 view .LVU406
	add	lr, lr, r8, ror #27
	.loc 1 189 349 view .LVU407
	ror	r5, r1, #31
	str	r5, [sp, #52]
	.loc 1 189 166 view .LVU408
	add	lr, lr, r1, ror #31
	add	lr, lr, r2
	.loc 1 189 20 view .LVU409
	add	lr, lr, r7
	.loc 1 189 402 is_stmt 1 view .LVU410
	.loc 1 189 492 view .LVU411
	.loc 1 190 5 view .LVU412
	.loc 1 190 10 view .LVU413
	.loc 1 190 213 is_stmt 0 view .LVU414
	ldr	r7, [sp, #16]
	eors	r7, r7, r3
	.loc 1 190 244 view .LVU415
	eor	r7, ip, r7
	.loc 1 190 276 view .LVU416
	ldr	r3, [sp, #56]
	eors	r7, r7, r3
	.loc 1 190 136 view .LVU417
	eor	r4, r10, r0, ror #2
	.loc 1 190 121 view .LVU418
	and	r4, r8, r4
	.loc 1 190 106 view .LVU419
	eor	r4, r10, r4
	.loc 1 190 91 view .LVU420
	add	r4, r4, lr, ror #27
	.loc 1 190 349 view .LVU421
	ror	r5, r7, #31
	str	r5, [sp, #56]
	.loc 1 190 166 view .LVU422
	add	r4, r4, r7, ror #31
	add	r4, r4, r2
	.loc 1 190 20 view .LVU423
	add	fp, r4, r9, ror #2
	.loc 1 190 402 is_stmt 1 view .LVU424
	.loc 1 190 437 is_stmt 0 view .LVU425
	ror	r8, r8, #2
	.loc 1 190 492 is_stmt 1 view .LVU426
	.loc 1 191 5 view .LVU427
	.loc 1 191 10 view .LVU428
	.loc 1 191 213 is_stmt 0 view .LVU429
	ldr	r4, [sp, #20]
	ldr	r6, [sp, #8]
	eors	r4, r4, r6
	.loc 1 191 244 view .LVU430
	ldr	r5, [sp, #40]
	eors	r4, r4, r5
	.loc 1 191 276 view .LVU431
	ldr	r3, [sp, #36]
	eor	r9, r3, r4
	.loc 1 191 136 view .LVU432
	eor	r5, r8, r0, ror #2
	.loc 1 191 121 view .LVU433
	and	r5, lr, r5
	.loc 1 191 106 view .LVU434
	eor	r5, r5, r0, ror #2
	.loc 1 191 91 view .LVU435
	add	r5, r5, fp, ror #27
	.loc 1 191 349 view .LVU436
	ror	r4, r9, #31
	str	r4, [sp, #64]
	.loc 1 191 166 view .LVU437
	add	r5, r5, r9, ror #31
	add	r5, r5, r2
	.loc 1 191 20 view .LVU438
	add	r5, r5, r10
	.loc 1 191 402 is_stmt 1 view .LVU439
	.loc 1 191 492 view .LVU440
	.loc 1 192 5 view .LVU441
	.loc 1 192 10 view .LVU442
	.loc 1 192 213 is_stmt 0 view .LVU443
	ldr	r6, [sp, #24]
	eor	r1, r6, r1, ror #31
	.loc 1 192 244 view .LVU444
	ldr	r4, [sp, #60]
	eors	r1, r1, r4
	.loc 1 192 276 view .LVU445
	eor	r1, ip, r1
	.loc 1 192 136 view .LVU446
	eor	r6, r8, lr, ror #2
	.loc 1 192 121 view .LVU447
	and	r6, fp, r6
	.loc 1 192 106 view .LVU448
	eor	r6, r8, r6
	.loc 1 192 91 view .LVU449
	add	r6, r6, r5, ror #27
	.loc 1 192 349 view .LVU450
	ror	r3, r1, #31
	str	r3, [sp, #36]
	.loc 1 192 166 view .LVU451
	add	r6, r6, r1, ror #31
	add	r6, r6, r2
	.loc 1 192 20 view .LVU452
	add	r6, r6, r0, ror #2
	.loc 1 192 402 is_stmt 1 view .LVU453
	.loc 1 192 492 view .LVU454
	.loc 1 200 5 view .LVU455
	.loc 1 200 10 view .LVU456
	.loc 1 200 195 is_stmt 0 view .LVU457
	ldr	r2, [sp, #28]
	eor	r10, r2, r7, ror #31
	.loc 1 200 226 view .LVU458
	ldr	r2, [sp, #44]
	eor	r10, r2, r10
	.loc 1 200 258 view .LVU459
	ldr	r7, [sp, #40]
	eor	r10, r7, r10
	.loc 1 200 106 view .LVU460
	eor	ip, r5, fp, ror #2
	.loc 1 200 120 view .LVU461
	eor	ip, ip, lr, ror #2
	.loc 1 200 91 view .LVU462
	add	ip, ip, r6, ror #27
	.loc 1 200 331 view .LVU463
	ror	r3, r10, #31
	str	r3, [sp, #40]
	.loc 1 200 148 view .LVU464
	add	ip, ip, r10, ror #31
	add	ip, ip, #1853882368
	add	ip, ip, #5865472
	add	ip, ip, #27520
	add	ip, ip, #33
	.loc 1 200 20 view .LVU465
	add	r8, r8, ip
	.loc 1 200 384 is_stmt 1 view .LVU466
	.loc 1 200 474 view .LVU467
	.loc 1 201 5 view .LVU468
	.loc 1 201 10 view .LVU469
	.loc 1 201 195 is_stmt 0 view .LVU470
	ldr	r2, [sp, #32]
	eor	r3, r2, r9, ror #31
	.loc 1 201 226 view .LVU471
	ldr	r7, [sp, #48]
	eors	r3, r3, r7
	.loc 1 201 258 view .LVU472
	eors	r3, r3, r4
	.loc 1 201 106 view .LVU473
	eor	r7, r6, r5, ror #2
	.loc 1 201 120 view .LVU474
	eor	r7, r7, fp, ror #2
	.loc 1 201 91 view .LVU475
	add	r7, r7, r8, ror #27
	.loc 1 201 331 view .LVU476
	ror	r9, r3, #31
	.loc 1 201 148 view .LVU477
	add	r7, r7, r3, ror #31
	add	r7, r7, #1853882368
	add	r7, r7, #5865472
	add	r7, r7, #27520
	adds	r7, r7, #33
	.loc 1 201 20 view .LVU478
	add	r7, r7, lr, ror #2
	.loc 1 201 384 is_stmt 1 view .LVU479
	.loc 1 201 474 view .LVU480
	.loc 1 202 5 view .LVU481
	.loc 1 202 10 view .LVU482
	.loc 1 202 195 is_stmt 0 view .LVU483
	ldr	r2, [sp, #4]
	eor	r1, r2, r1, ror #31
	.loc 1 202 226 view .LVU484
	ldr	r0, [sp, #12]
	eors	r1, r1, r0
	.loc 1 202 258 view .LVU485
	ldr	r4, [sp, #44]
	eors	r1, r1, r4
	.loc 1 202 106 view .LVU486
	eor	r4, r8, r6, ror #2
	.loc 1 202 120 view .LVU487
	eor	r4, r4, r5, ror #2
	.loc 1 202 91 view .LVU488
	add	r4, r4, r7, ror #27
	.loc 1 202 331 view .LVU489
	ror	lr, r1, #31
	.loc 1 202 148 view .LVU490
	add	r4, r4, r1, ror #31
	add	r4, r4, #1853882368
	add	r4, r4, #5865472
	add	r4, r4, #27520
	adds	r4, r4, #33
	.loc 1 202 20 view .LVU491
	add	r4, r4, fp, ror #2
	.loc 1 202 384 is_stmt 1 view .LVU492
	.loc 1 202 474 view .LVU493
	.loc 1 203 5 view .LVU494
	.loc 1 203 10 view .LVU495
	.loc 1 203 195 is_stmt 0 view .LVU496
	ldr	r2, [sp, #8]
	eor	r2, r2, r10, ror #31
	.loc 1 203 226 view .LVU497
	ldr	r0, [sp, #16]
	eors	r2, r2, r0
	.loc 1 203 258 view .LVU498
	ldr	r0, [sp, #48]
	eors	r2, r2, r0
	.loc 1 203 106 view .LVU499
	eor	r10, r7, r8, ror #2
	.loc 1 203 120 view .LVU500
	eor	r10, r10, r6, ror #2
	.loc 1 203 91 view .LVU501
	add	r10, r10, r4, ror #27
	.loc 1 203 331 view .LVU502
	ror	fp, r2, #31
	.loc 1 203 148 view .LVU503
	add	r10, r10, r2, ror #31
	add	r10, r10, #1853882368
	add	r10, r10, #5865472
	add	r10, r10, #27520
	add	r10, r10, #33
	.loc 1 203 20 view .LVU504
	add	r10, r10, r5, ror #2
	.loc 1 203 384 is_stmt 1 view .LVU505
	.loc 1 203 474 view .LVU506
	.loc 1 204 5 view .LVU507
	.loc 1 204 10 view .LVU508
	.loc 1 204 195 is_stmt 0 view .LVU509
	ldr	r5, [sp, #52]
	eor	r3, r5, r3, ror #31
	.loc 1 204 226 view .LVU510
	ldr	r5, [sp, #20]
	eors	r3, r3, r5
	.loc 1 204 258 view .LVU511
	ldr	r0, [sp, #12]
	eors	r3, r3, r0
	.loc 1 204 106 view .LVU512
	eor	r5, r4, r7, ror #2
	.loc 1 204 120 view .LVU513
	eor	r5, r5, r8, ror #2
	.loc 1 204 91 view .LVU514
	add	r5, r5, r10, ror #27
	.loc 1 204 331 view .LVU515
	ror	r0, r3, #31
	str	r0, [sp, #60]
	.loc 1 204 148 view .LVU516
	add	r5, r5, r3, ror #31
	add	r5, r5, #1853882368
	add	r5, r5, #5865472
	add	r5, r5, #27520
	adds	r5, r5, #33
	.loc 1 204 20 view .LVU517
	add	r6, r5, r6, ror #2
	.loc 1 204 384 is_stmt 1 view .LVU518
	.loc 1 204 474 view .LVU519
	.loc 1 205 5 view .LVU520
	.loc 1 205 10 view .LVU521
	.loc 1 205 195 is_stmt 0 view .LVU522
	ldr	r5, [sp, #56]
	eor	r1, r5, r1, ror #31
	.loc 1 205 226 view .LVU523
	ldr	r0, [sp, #24]
	eors	r1, r1, r0
	.loc 1 205 258 view .LVU524
	ldr	r0, [sp, #16]
	eors	r1, r1, r0
	.loc 1 205 106 view .LVU525
	eor	ip, r10, r4, ror #2
	.loc 1 205 120 view .LVU526
	eor	ip, ip, r7, ror #2
	.loc 1 205 91 view .LVU527
	add	ip, ip, r6, ror #27
	.loc 1 205 331 view .LVU528
	ror	r5, r1, #31
	str	r5, [sp, #12]
	.loc 1 205 148 view .LVU529
	add	ip, ip, r1, ror #31
	add	ip, ip, #1853882368
	add	ip, ip, #5865472
	add	ip, ip, #27520
	add	ip, ip, #33
	.loc 1 205 20 view .LVU530
	add	r8, ip, r8, ror #2
	.loc 1 205 384 is_stmt 1 view .LVU531
	.loc 1 205 474 view .LVU532
	.loc 1 206 5 view .LVU533
	.loc 1 206 10 view .LVU534
	.loc 1 206 195 is_stmt 0 view .LVU535
	ldr	r0, [sp, #64]
	eor	ip, r0, r2, ror #31
	.loc 1 206 226 view .LVU536
	ldr	r5, [sp, #28]
	b	.L17
.L18:
	.align	2
.L16:
	.word	1518500249
.L17:
	eor	ip, r5, ip
	.loc 1 206 258 view .LVU537
	ldr	r5, [sp, #20]
	eor	ip, r5, ip
	.loc 1 206 106 view .LVU538
	eor	r2, r6, r10, ror #2
	.loc 1 206 120 view .LVU539
	eor	r2, r2, r4, ror #2
	.loc 1 206 91 view .LVU540
	add	r2, r2, r8, ror #27
	.loc 1 206 331 view .LVU541
	ror	r5, ip, #31
	str	r5, [sp, #16]
	.loc 1 206 148 view .LVU542
	add	r2, r2, ip, ror #31
	add	r2, r2, #1853882368
	add	r2, r2, #5865472
	add	r2, r2, #27520
	adds	r2, r2, #33
	.loc 1 206 20 view .LVU543
	add	r2, r2, r7, ror #2
	.loc 1 206 384 is_stmt 1 view .LVU544
	.loc 1 206 474 view .LVU545
	.loc 1 207 5 view .LVU546
	.loc 1 207 10 view .LVU547
	.loc 1 207 195 is_stmt 0 view .LVU548
	ldr	r7, [sp, #36]
	eor	r3, r7, r3, ror #31
	.loc 1 207 226 view .LVU549
	ldr	r7, [sp, #32]
	eors	r3, r3, r7
	.loc 1 207 258 view .LVU550
	ldr	r0, [sp, #24]
	eors	r3, r3, r0
	.loc 1 207 106 view .LVU551
	eor	r5, r8, r6, ror #2
	.loc 1 207 120 view .LVU552
	eor	r5, r5, r10, ror #2
	.loc 1 207 91 view .LVU553
	add	r5, r5, r2, ror #27
	.loc 1 207 331 view .LVU554
	ror	r0, r3, #31
	str	r0, [sp, #20]
	.loc 1 207 148 view .LVU555
	add	r5, r5, r3, ror #31
	add	r5, r5, #1853882368
	add	r5, r5, #5865472
	add	r5, r5, #27520
	adds	r5, r5, #33
	.loc 1 207 20 view .LVU556
	add	r4, r5, r4, ror #2
	.loc 1 207 384 is_stmt 1 view .LVU557
	.loc 1 207 474 view .LVU558
	.loc 1 208 5 view .LVU559
	.loc 1 208 10 view .LVU560
	.loc 1 208 195 is_stmt 0 view .LVU561
	ldr	r0, [sp, #40]
	eor	r1, r0, r1, ror #31
	.loc 1 208 226 view .LVU562
	ldr	r5, [sp, #4]
	eors	r1, r1, r5
	.loc 1 208 258 view .LVU563
	ldr	r0, [sp, #28]
	eors	r1, r1, r0
	.loc 1 208 106 view .LVU564
	eor	r5, r2, r8, ror #2
	.loc 1 208 120 view .LVU565
	eor	r5, r5, r6, ror #2
	.loc 1 208 91 view .LVU566
	add	r5, r5, r4, ror #27
	.loc 1 208 331 view .LVU567
	ror	r0, r1, #31
	str	r0, [sp, #68]
	.loc 1 208 148 view .LVU568
	add	r5, r5, r1, ror #31
	add	r5, r5, #1853882368
	add	r5, r5, #5865472
	add	r5, r5, #27520
	adds	r5, r5, #33
	.loc 1 208 20 view .LVU569
	add	r10, r5, r10, ror #2
	.loc 1 208 384 is_stmt 1 view .LVU570
	.loc 1 208 474 view .LVU571
	.loc 1 209 5 view .LVU572
	.loc 1 209 10 view .LVU573
	.loc 1 209 195 is_stmt 0 view .LVU574
	eor	r5, r9, ip, ror #31
	.loc 1 209 226 view .LVU575
	ldr	r0, [sp, #8]
	eors	r5, r5, r0
	.loc 1 209 258 view .LVU576
	eors	r5, r5, r7
	.loc 1 209 106 view .LVU577
	eor	r7, r4, r2, ror #2
	.loc 1 209 120 view .LVU578
	eor	r7, r7, r8, ror #2
	.loc 1 209 91 view .LVU579
	add	r7, r7, r10, ror #27
	.loc 1 209 331 view .LVU580
	ror	r0, r5, #31
	str	r0, [sp, #24]
	.loc 1 209 148 view .LVU581
	add	r7, r7, r5, ror #31
	add	r7, r7, #1853882368
	add	r7, r7, #5865472
	add	r7, r7, #27520
	adds	r7, r7, #33
	.loc 1 209 20 view .LVU582
	add	r6, r7, r6, ror #2
	.loc 1 209 384 is_stmt 1 view .LVU583
	.loc 1 209 474 view .LVU584
	.loc 1 210 5 view .LVU585
	.loc 1 210 10 view .LVU586
	.loc 1 210 195 is_stmt 0 view .LVU587
	eor	r3, lr, r3, ror #31
	.loc 1 210 226 view .LVU588
	ldr	r7, [sp, #52]
	eors	r3, r3, r7
	.loc 1 210 258 view .LVU589
	ldr	r7, [sp, #4]
	eors	r3, r3, r7
	.loc 1 210 106 view .LVU590
	eor	ip, r10, r4, ror #2
	.loc 1 210 120 view .LVU591
	eor	ip, ip, r2, ror #2
	.loc 1 210 91 view .LVU592
	str	r6, [sp, #4]
	add	ip, ip, r6, ror #27
	.loc 1 210 331 view .LVU593
	ror	r6, r3, #31
	str	r6, [sp, #28]
	.loc 1 210 148 view .LVU594
	add	ip, ip, r3, ror #31
	add	ip, ip, #1853882368
	add	ip, ip, #5865472
	add	ip, ip, #27520
	add	ip, ip, #33
	.loc 1 210 20 view .LVU595
	add	ip, ip, r8, ror #2
	.loc 1 210 384 is_stmt 1 view .LVU596
	.loc 1 210 474 view .LVU597
	.loc 1 211 5 view .LVU598
	.loc 1 211 10 view .LVU599
	.loc 1 211 195 is_stmt 0 view .LVU600
	eor	r8, fp, r1, ror #31
	.loc 1 211 226 view .LVU601
	ldr	r7, [sp, #56]
	eor	r8, r7, r8
	.loc 1 211 258 view .LVU602
	ldr	r0, [sp, #8]
	eor	r8, r0, r8
	.loc 1 211 106 view .LVU603
	ldr	r6, [sp, #4]
	eor	r7, r6, r10, ror #2
	.loc 1 211 120 view .LVU604
	eor	r7, r7, r4, ror #2
	.loc 1 211 91 view .LVU605
	add	r7, r7, ip, ror #27
	.loc 1 211 331 view .LVU606
	ror	r1, r8, #31
	str	r1, [sp, #8]
	.loc 1 211 148 view .LVU607
	add	r7, r7, r8, ror #31
	add	r7, r7, #1853882368
	add	r7, r7, #5865472
	add	r7, r7, #27520
	adds	r7, r7, #33
	.loc 1 211 20 view .LVU608
	add	r7, r7, r2, ror #2
	.loc 1 211 384 is_stmt 1 view .LVU609
	.loc 1 211 474 view .LVU610
	.loc 1 212 5 view .LVU611
	.loc 1 212 10 view .LVU612
	.loc 1 212 195 is_stmt 0 view .LVU613
	ldr	r2, [sp, #60]
	eor	r2, r2, r5, ror #31
	.loc 1 212 226 view .LVU614
	ldr	r0, [sp, #64]
	eors	r2, r2, r0
	.loc 1 212 258 view .LVU615
	ldr	r5, [sp, #52]
	eors	r2, r2, r5
	.loc 1 212 106 view .LVU616
	eor	r1, ip, r6, ror #2
	.loc 1 212 120 view .LVU617
	eor	r1, r1, r10, ror #2
	.loc 1 212 91 view .LVU618
	add	r1, r1, r7, ror #27
	.loc 1 212 331 view .LVU619
	ror	r6, r2, #31
	str	r6, [sp, #32]
	.loc 1 212 148 view .LVU620
	add	r1, r1, r2, ror #31
	add	r1, r1, #1853882368
	add	r1, r1, #5865472
	add	r1, r1, #27520
	adds	r1, r1, #33
	.loc 1 212 20 view .LVU621
	add	r4, r1, r4, ror #2
	.loc 1 212 384 is_stmt 1 view .LVU622
	.loc 1 212 474 view .LVU623
	.loc 1 213 5 view .LVU624
	.loc 1 213 10 view .LVU625
	.loc 1 213 195 is_stmt 0 view .LVU626
	ldr	r6, [sp, #12]
	eor	r3, r6, r3, ror #31
	.loc 1 213 226 view .LVU627
	ldr	r5, [sp, #36]
	eors	r3, r3, r5
	.loc 1 213 258 view .LVU628
	ldr	r5, [sp, #56]
	eors	r3, r3, r5
	.loc 1 213 106 view .LVU629
	eor	r5, r7, ip, ror #2
	.loc 1 213 120 view .LVU630
	ldr	r1, [sp, #4]
	eor	r5, r5, r1, ror #2
	.loc 1 213 91 view .LVU631
	add	r5, r5, r4, ror #27
	.loc 1 213 331 view .LVU632
	ror	r1, r3, #31
	str	r1, [sp, #44]
	.loc 1 213 148 view .LVU633
	add	r5, r5, r3, ror #31
	add	r5, r5, #1853882368
	add	r5, r5, #5865472
	add	r5, r5, #27520
	adds	r5, r5, #33
	.loc 1 213 20 view .LVU634
	add	r5, r5, r10, ror #2
	.loc 1 213 384 is_stmt 1 view .LVU635
	.loc 1 213 474 view .LVU636
	.loc 1 214 5 view .LVU637
	.loc 1 214 10 view .LVU638
	.loc 1 214 195 is_stmt 0 view .LVU639
	ldr	r6, [sp, #16]
	eor	r1, r6, r8, ror #31
	.loc 1 214 226 view .LVU640
	ldr	r6, [sp, #40]
	eors	r1, r1, r6
	.loc 1 214 258 view .LVU641
	eors	r1, r1, r0
	.loc 1 214 106 view .LVU642
	eor	r10, r4, r7, ror #2
	.loc 1 214 120 view .LVU643
	eor	r10, r10, ip, ror #2
	.loc 1 214 91 view .LVU644
	add	r10, r10, r5, ror #27
	.loc 1 214 331 view .LVU645
	ror	r6, r1, #31
	str	r6, [sp, #48]
	.loc 1 214 148 view .LVU646
	add	r10, r10, r1, ror #31
	add	r10, r10, #1853882368
	add	r10, r10, #5865472
	add	r10, r10, #27520
	add	r10, r10, #33
	.loc 1 214 20 view .LVU647
	ldr	r6, [sp, #4]
	add	r6, r10, r6, ror #2
	.loc 1 214 384 is_stmt 1 view .LVU648
	.loc 1 214 474 view .LVU649
	.loc 1 215 5 view .LVU650
	.loc 1 215 10 view .LVU651
	.loc 1 215 195 is_stmt 0 view .LVU652
	ldr	r0, [sp, #20]
	eor	r2, r0, r2, ror #31
	.loc 1 215 226 view .LVU653
	eor	r2, r9, r2
	.loc 1 215 258 view .LVU654
	ldr	r0, [sp, #36]
	eors	r2, r2, r0
	.loc 1 215 106 view .LVU655
	eor	r8, r5, r4, ror #2
	.loc 1 215 120 view .LVU656
	eor	r8, r8, r7, ror #2
	.loc 1 215 91 view .LVU657
	add	r8, r8, r6, ror #27
	.loc 1 215 331 view .LVU658
	ror	r0, r2, #31
	str	r0, [sp, #4]
	.loc 1 215 148 view .LVU659
	add	r8, r8, r2, ror #31
	add	r8, r8, #1853882368
	add	r8, r8, #5865472
	add	r8, r8, #27520
	add	r8, r8, #33
	.loc 1 215 20 view .LVU660
	add	ip, r8, ip, ror #2
	.loc 1 215 384 is_stmt 1 view .LVU661
	.loc 1 215 474 view .LVU662
	.loc 1 216 5 view .LVU663
	.loc 1 216 10 view .LVU664
	.loc 1 216 195 is_stmt 0 view .LVU665
	ldr	r0, [sp, #68]
	eor	r3, r0, r3, ror #31
	.loc 1 216 226 view .LVU666
	eor	r3, lr, r3
	.loc 1 216 258 view .LVU667
	ldr	r0, [sp, #40]
	eor	r10, r3, r0
	.loc 1 216 106 view .LVU668
	eor	r8, r6, r5, ror #2
	.loc 1 216 120 view .LVU669
	eor	r8, r8, r4, ror #2
	.loc 1 216 91 view .LVU670
	add	r8, r8, ip, ror #27
	.loc 1 216 331 view .LVU671
	ror	r0, r10, #31
	str	r0, [sp, #36]
	.loc 1 216 148 view .LVU672
	add	r8, r8, r10, ror #31
	add	r8, r8, #1853882368
	add	r8, r8, #5865472
	add	r8, r8, #27520
	add	r8, r8, #33
	.loc 1 216 20 view .LVU673
	add	r7, r8, r7, ror #2
	.loc 1 216 384 is_stmt 1 view .LVU674
	.loc 1 216 474 view .LVU675
	.loc 1 217 5 view .LVU676
	.loc 1 217 10 view .LVU677
	.loc 1 217 195 is_stmt 0 view .LVU678
	ldr	r0, [sp, #24]
	eor	r1, r0, r1, ror #31
	.loc 1 217 226 view .LVU679
	eor	r1, fp, r1
	.loc 1 217 258 view .LVU680
	eor	r1, r9, r1
	.loc 1 217 106 view .LVU681
	eor	r9, ip, r6, ror #2
	.loc 1 217 120 view .LVU682
	eor	r9, r9, r5, ror #2
	.loc 1 217 91 view .LVU683
	add	r9, r9, r7, ror #27
	.loc 1 217 331 view .LVU684
	ror	r0, r1, #31
	str	r0, [sp, #40]
	.loc 1 217 148 view .LVU685
	add	r9, r9, r1, ror #31
	add	r9, r9, #1853882368
	add	r9, r9, #5865472
	add	r9, r9, #27520
	add	r9, r9, #33
	.loc 1 217 20 view .LVU686
	add	r4, r9, r4, ror #2
	.loc 1 217 384 is_stmt 1 view .LVU687
	.loc 1 217 474 view .LVU688
	.loc 1 218 5 view .LVU689
	.loc 1 218 10 view .LVU690
	.loc 1 218 195 is_stmt 0 view .LVU691
	ldr	r0, [sp, #28]
	eor	r9, r0, r2, ror #31
	.loc 1 218 226 view .LVU692
	ldr	r0, [sp, #60]
	eor	r9, r0, r9
	.loc 1 218 258 view .LVU693
	eor	r9, lr, r9
	.loc 1 218 106 view .LVU694
	eor	r2, r7, ip, ror #2
	.loc 1 218 120 view .LVU695
	eor	r2, r2, r6, ror #2
	.loc 1 218 91 view .LVU696
	add	r2, r2, r4, ror #27
	.loc 1 218 331 view .LVU697
	ror	r3, r9, #31
	str	r3, [sp, #52]
	.loc 1 218 148 view .LVU698
	add	r2, r2, r9, ror #31
	add	r2, r2, #1853882368
	add	r2, r2, #5865472
	add	r2, r2, #27520
	adds	r2, r2, #33
	.loc 1 218 20 view .LVU699
	add	r5, r2, r5, ror #2
	.loc 1 218 384 is_stmt 1 view .LVU700
	.loc 1 218 474 view .LVU701
	.loc 1 219 5 view .LVU702
	.loc 1 219 10 view .LVU703
	.loc 1 219 195 is_stmt 0 view .LVU704
	ldr	r2, [sp, #8]
	eor	r3, r2, r10, ror #31
	.loc 1 219 226 view .LVU705
	ldr	r2, [sp, #12]
	eors	r3, r3, r2
	.loc 1 219 258 view .LVU706
	eor	r3, fp, r3
	.loc 1 219 106 view .LVU707
	eor	lr, r4, r7, ror #2
	.loc 1 219 120 view .LVU708
	eor	lr, lr, ip, ror #2
	.loc 1 219 91 view .LVU709
	add	lr, lr, r5, ror #27
	.loc 1 219 331 view .LVU710
	ror	r2, r3, #31
	str	r2, [sp, #56]
	.loc 1 219 148 view .LVU711
	add	lr, lr, r3, ror #31
	add	lr, lr, #1853882368
	add	lr, lr, #5865472
	add	lr, lr, #27520
	add	lr, lr, #33
	.loc 1 219 20 view .LVU712
	add	r10, lr, r6, ror #2
	.loc 1 219 384 is_stmt 1 view .LVU713
	.loc 1 219 474 view .LVU714
	.loc 1 227 5 view .LVU715
	.loc 1 227 10 view .LVU716
	.loc 1 227 229 is_stmt 0 view .LVU717
	ldr	r6, [sp, #32]
	eor	fp, r6, r1, ror #31
	.loc 1 227 260 view .LVU718
	ldr	r6, [sp, #16]
	eor	fp, r6, fp
	.loc 1 227 292 view .LVU719
	eor	fp, r0, fp
	.loc 1 227 107 view .LVU720
	and	r2, r5, r4, ror #2
	.loc 1 227 152 view .LVU721
	orr	r8, r5, r4, ror #2
	.loc 1 227 137 view .LVU722
	and	r8, r8, r7, ror #2
	.loc 1 227 122 view .LVU723
	orr	r2, r2, r8
	.loc 1 227 91 view .LVU724
	add	r2, r2, r10, ror #27
	.loc 1 227 365 view .LVU725
	ror	lr, fp, #31
	str	lr, [sp, #72]
	.loc 1 227 182 view .LVU726
	add	r2, r2, fp, ror #31
	ldr	r6, .L19
	add	r2, r2, r6
	.loc 1 227 20 view .LVU727
	add	r8, r2, ip, ror #2
	.loc 1 227 418 is_stmt 1 view .LVU728
	.loc 1 227 508 view .LVU729
	.loc 1 228 5 view .LVU730
	.loc 1 228 10 view .LVU731
	.loc 1 228 229 is_stmt 0 view .LVU732
	ldr	r1, [sp, #44]
	eor	ip, r1, r9, ror #31
	.loc 1 228 260 view .LVU733
	ldr	r0, [sp, #20]
	eor	ip, r0, ip
	.loc 1 228 292 view .LVU734
	ldr	r2, [sp, #12]
	eor	ip, r2, ip
	.loc 1 228 107 view .LVU735
	and	r2, r10, r5, ror #2
	.loc 1 228 152 view .LVU736
	orr	r1, r10, r5, ror #2
	.loc 1 228 137 view .LVU737
	and	r1, r1, r4, ror #2
	.loc 1 228 122 view .LVU738
	orrs	r1, r1, r2
	.loc 1 228 91 view .LVU739
	add	r1, r1, r8, ror #27
	.loc 1 228 365 view .LVU740
	ror	lr, ip, #31
	str	lr, [sp, #12]
	.loc 1 228 182 view .LVU741
	add	r1, r1, ip, ror #31
	add	r1, r1, r6
	.loc 1 228 20 view .LVU742
	add	r1, r1, r7, ror #2
	.loc 1 228 418 is_stmt 1 view .LVU743
	.loc 1 228 508 view .LVU744
	.loc 1 229 5 view .LVU745
	.loc 1 229 10 view .LVU746
	.loc 1 229 229 is_stmt 0 view .LVU747
	ldr	r7, [sp, #48]
	eor	r3, r7, r3, ror #31
	.loc 1 229 260 view .LVU748
	ldr	r7, [sp, #68]
	eors	r3, r3, r7
	.loc 1 229 292 view .LVU749
	ldr	r2, [sp, #16]
	eors	r3, r3, r2
	.loc 1 229 107 view .LVU750
	and	r2, r8, r10, ror #2
	.loc 1 229 152 view .LVU751
	orr	r0, r8, r10, ror #2
	.loc 1 229 137 view .LVU752
	and	r0, r0, r5, ror #2
	.loc 1 229 122 view .LVU753
	orr	r9, r2, r0
	.loc 1 229 91 view .LVU754
	add	r9, r9, r1, ror #27
	.loc 1 229 365 view .LVU755
	ror	r2, r3, #31
	str	r2, [sp, #16]
	.loc 1 229 182 view .LVU756
	add	r9, r9, r3, ror #31
	add	r9, r9, r6
	.loc 1 229 20 view .LVU757
	add	r9, r9, r4, ror #2
	.loc 1 229 418 is_stmt 1 view .LVU758
	.loc 1 229 508 view .LVU759
	.loc 1 230 5 view .LVU760
	.loc 1 230 10 view .LVU761
	.loc 1 230 229 is_stmt 0 view .LVU762
	ldr	r4, [sp, #4]
	eor	r0, r4, fp, ror #31
	.loc 1 230 260 view .LVU763
	ldr	r2, [sp, #24]
	eors	r0, r0, r2
	.loc 1 230 292 view .LVU764
	ldr	r2, [sp, #20]
	eors	r0, r0, r2
	.loc 1 230 107 view .LVU765
	and	r2, r1, r8, ror #2
	.loc 1 230 152 view .LVU766
	orr	r4, r1, r8, ror #2
	.loc 1 230 137 view .LVU767
	and	r4, r4, r10, ror #2
	.loc 1 230 122 view .LVU768
	orrs	r4, r4, r2
	.loc 1 230 91 view .LVU769
	add	r4, r4, r9, ror #27
	.loc 1 230 365 view .LVU770
	ror	r2, r0, #31
	str	r2, [sp, #20]
	.loc 1 230 182 view .LVU771
	add	r4, r4, r0, ror #31
	add	r4, r4, r6
	.loc 1 230 20 view .LVU772
	add	r5, r4, r5, ror #2
	.loc 1 230 418 is_stmt 1 view .LVU773
	.loc 1 230 508 view .LVU774
	.loc 1 231 5 view .LVU775
	.loc 1 231 10 view .LVU776
	.loc 1 231 229 is_stmt 0 view .LVU777
	ldr	r2, [sp, #36]
	eor	ip, r2, ip, ror #31
	.loc 1 231 260 view .LVU778
	ldr	r4, [sp, #28]
	eor	ip, r4, ip
	.loc 1 231 292 view .LVU779
	eor	ip, r7, ip
	.loc 1 231 107 view .LVU780
	and	r2, r9, r1, ror #2
	.loc 1 231 152 view .LVU781
	orr	r4, r9, r1, ror #2
	.loc 1 231 137 view .LVU782
	and	r4, r4, r8, ror #2
	.loc 1 231 122 view .LVU783
	orr	lr, r2, r4
	.loc 1 231 91 view .LVU784
	add	lr, lr, r5, ror #27
	.loc 1 231 365 view .LVU785
	ror	fp, ip, #31
	str	fp, [sp, #60]
	.loc 1 231 182 view .LVU786
	add	lr, lr, ip, ror #31
	add	lr, lr, r6
	.loc 1 231 20 view .LVU787
	add	lr, lr, r10, ror #2
	.loc 1 231 418 is_stmt 1 view .LVU788
	.loc 1 231 508 view .LVU789
	.loc 1 232 5 view .LVU790
	.loc 1 232 10 view .LVU791
	.loc 1 232 229 is_stmt 0 view .LVU792
	ldr	r7, [sp, #40]
	eor	r3, r7, r3, ror #31
	.loc 1 232 260 view .LVU793
	ldr	r7, [sp, #8]
	eors	r3, r3, r7
	.loc 1 232 292 view .LVU794
	ldr	r2, [sp, #24]
	eors	r3, r3, r2
	.loc 1 232 107 view .LVU795
	and	r2, r5, r9, ror #2
	.loc 1 232 152 view .LVU796
	orr	r4, r5, r9, ror #2
	.loc 1 232 137 view .LVU797
	and	r4, r4, r1, ror #2
	.loc 1 232 122 view .LVU798
	orrs	r2, r2, r4
	.loc 1 232 91 view .LVU799
	add	r2, r2, lr, ror #27
	.loc 1 232 365 view .LVU800
	ror	r4, r3, #31
	str	r4, [sp, #24]
	.loc 1 232 182 view .LVU801
	add	r2, r2, r3, ror #31
	add	r2, r2, r6
	.loc 1 232 20 view .LVU802
	add	r2, r2, r8, ror #2
	.loc 1 232 418 is_stmt 1 view .LVU803
	.loc 1 232 508 view .LVU804
	.loc 1 233 5 view .LVU805
	.loc 1 233 10 view .LVU806
	.loc 1 233 229 is_stmt 0 view .LVU807
	ldr	r4, [sp, #52]
	eor	r0, r4, r0, ror #31
	.loc 1 233 260 view .LVU808
	ldr	r4, [sp, #32]
	eors	r0, r0, r4
	.loc 1 233 292 view .LVU809
	ldr	r7, [sp, #28]
	eors	r0, r0, r7
	.loc 1 233 107 view .LVU810
	and	r4, lr, r5, ror #2
	.loc 1 233 152 view .LVU811
	orr	r7, lr, r5, ror #2
	.loc 1 233 137 view .LVU812
	and	r7, r7, r9, ror #2
	.loc 1 233 122 view .LVU813
	orrs	r7, r7, r4
	.loc 1 233 91 view .LVU814
	add	r7, r7, r2, ror #27
	.loc 1 233 365 view .LVU815
	ror	r4, r0, #31
	str	r4, [sp, #28]
	.loc 1 233 182 view .LVU816
	add	r7, r7, r0, ror #31
	add	r7, r7, r6
	.loc 1 233 20 view .LVU817
	add	r1, r7, r1, ror #2
	.loc 1 233 418 is_stmt 1 view .LVU818
	.loc 1 233 508 view .LVU819
	.loc 1 234 5 view .LVU820
	.loc 1 234 10 view .LVU821
	.loc 1 234 229 is_stmt 0 view .LVU822
	ldr	r4, [sp, #56]
	eor	ip, r4, ip, ror #31
	.loc 1 234 260 view .LVU823
	ldr	r4, [sp, #44]
	eor	ip, r4, ip
	.loc 1 234 292 view .LVU824
	ldr	r7, [sp, #8]
	eor	ip, r7, ip
	.loc 1 234 107 view .LVU825
	and	r4, r2, lr, ror #2
	.loc 1 234 152 view .LVU826
	orr	r7, r2, lr, ror #2
	.loc 1 234 137 view .LVU827
	and	r7, r7, r5, ror #2
	.loc 1 234 122 view .LVU828
	orrs	r4, r4, r7
	.loc 1 234 91 view .LVU829
	add	r4, r4, r1, ror #27
	.loc 1 234 365 view .LVU830
	ror	r8, ip, #31
	str	r8, [sp, #64]
	.loc 1 234 182 view .LVU831
	add	r4, r4, ip, ror #31
	add	r4, r4, r6
	.loc 1 234 20 view .LVU832
	add	r9, r4, r9, ror #2
	.loc 1 234 418 is_stmt 1 view .LVU833
	.loc 1 234 508 view .LVU834
	.loc 1 235 5 view .LVU835
	.loc 1 235 10 view .LVU836
	.loc 1 235 229 is_stmt 0 view .LVU837
	ldr	r7, [sp, #72]
	eor	r3, r7, r3, ror #31
	.loc 1 235 260 view .LVU838
	ldr	r7, [sp, #48]
	eors	r3, r3, r7
	.loc 1 235 292 view .LVU839
	ldr	r7, [sp, #32]
	eors	r3, r3, r7
	.loc 1 235 107 view .LVU840
	and	fp, r1, r2, ror #2
	.loc 1 235 152 view .LVU841
	orr	r4, r1, r2, ror #2
	.loc 1 235 137 view .LVU842
	and	r4, r4, lr, ror #2
	.loc 1 235 122 view .LVU843
	orr	fp, fp, r4
	.loc 1 235 91 view .LVU844
	add	fp, fp, r9, ror #27
	.loc 1 235 365 view .LVU845
	ror	r7, r3, #31
	str	r7, [sp, #32]
	.loc 1 235 182 view .LVU846
	add	fp, fp, r3, ror #31
	add	fp, fp, r6
	.loc 1 235 20 view .LVU847
	add	r4, fp, r5, ror #2
	.loc 1 235 418 is_stmt 1 view .LVU848
	.loc 1 235 508 view .LVU849
	.loc 1 236 5 view .LVU850
	.loc 1 236 10 view .LVU851
	.loc 1 236 229 is_stmt 0 view .LVU852
	ldr	r5, [sp, #12]
	eor	r0, r5, r0, ror #31
	.loc 1 236 260 view .LVU853
	ldr	r5, [sp, #4]
	eors	r0, r0, r5
	.loc 1 236 292 view .LVU854
	ldr	r5, [sp, #44]
	eors	r0, r0, r5
	.loc 1 236 107 view .LVU855
	and	r10, r9, r1, ror #2
	.loc 1 236 152 view .LVU856
	orr	r5, r9, r1, ror #2
	.loc 1 236 137 view .LVU857
	and	r5, r5, r2, ror #2
	.loc 1 236 122 view .LVU858
	orr	r10, r10, r5
	.loc 1 236 91 view .LVU859
	add	r10, r10, r4, ror #27
	.loc 1 236 365 view .LVU860
	ror	r5, r0, #31
	str	r5, [sp, #44]
	.loc 1 236 182 view .LVU861
	add	r10, r10, r0, ror #31
	add	r10, r10, r6
	.loc 1 236 20 view .LVU862
	add	r10, r10, lr, ror #2
	.loc 1 236 418 is_stmt 1 view .LVU863
	.loc 1 236 508 view .LVU864
	.loc 1 237 5 view .LVU865
	.loc 1 237 10 view .LVU866
	.loc 1 237 229 is_stmt 0 view .LVU867
	ldr	r5, [sp, #16]
	eor	ip, r5, ip, ror #31
	.loc 1 237 260 view .LVU868
	ldr	r5, [sp, #36]
	eor	ip, r5, ip
	.loc 1 237 292 view .LVU869
	ldr	r7, [sp, #48]
	eor	ip, r7, ip
	.loc 1 237 107 view .LVU870
	and	r8, r4, r9, ror #2
	.loc 1 237 152 view .LVU871
	orr	r5, r4, r9, ror #2
	.loc 1 237 137 view .LVU872
	and	r5, r5, r1, ror #2
	.loc 1 237 122 view .LVU873
	orr	r8, r8, r5
	.loc 1 237 91 view .LVU874
	add	r8, r8, r10, ror #27
	.loc 1 237 365 view .LVU875
	ror	lr, ip, #31
	str	lr, [sp, #48]
	.loc 1 237 182 view .LVU876
	add	r8, r8, ip, ror #31
	add	r8, r8, r6
	.loc 1 237 20 view .LVU877
	add	r2, r8, r2, ror #2
	.loc 1 237 418 is_stmt 1 view .LVU878
	.loc 1 237 508 view .LVU879
	.loc 1 238 5 view .LVU880
	.loc 1 238 10 view .LVU881
	.loc 1 238 229 is_stmt 0 view .LVU882
	ldr	r7, [sp, #20]
	eor	r3, r7, r3, ror #31
	.loc 1 238 260 view .LVU883
	ldr	r7, [sp, #40]
	eors	r3, r3, r7
	.loc 1 238 292 view .LVU884
	ldr	r5, [sp, #4]
	eors	r3, r3, r5
	.loc 1 238 107 view .LVU885
	and	r7, r10, r4, ror #2
	.loc 1 238 152 view .LVU886
	orr	r5, r10, r4, ror #2
	.loc 1 238 137 view .LVU887
	and	r5, r5, r9, ror #2
	.loc 1 238 122 view .LVU888
	orrs	r7, r7, r5
	.loc 1 238 91 view .LVU889
	add	r7, r7, r2, ror #27
	.loc 1 238 365 view .LVU890
	ror	r5, r3, #31
	str	r5, [sp, #68]
	.loc 1 238 182 view .LVU891
	add	r7, r7, r3, ror #31
	add	r7, r7, r6
	.loc 1 238 20 view .LVU892
	add	r7, r7, r1, ror #2
	.loc 1 238 418 is_stmt 1 view .LVU893
	.loc 1 238 508 view .LVU894
	.loc 1 239 5 view .LVU895
	.loc 1 239 10 view .LVU896
	.loc 1 239 229 is_stmt 0 view .LVU897
	ldr	r1, [sp, #60]
	eor	r0, r1, r0, ror #31
	.loc 1 239 260 view .LVU898
	ldr	r1, [sp, #52]
	eors	r0, r0, r1
	.loc 1 239 292 view .LVU899
	ldr	r5, [sp, #36]
	eors	r0, r0, r5
	.loc 1 239 107 view .LVU900
	and	r1, r2, r10, ror #2
	.loc 1 239 152 view .LVU901
	orr	r5, r2, r10, ror #2
	.loc 1 239 137 view .LVU902
	and	r5, r5, r4, ror #2
	.loc 1 239 122 view .LVU903
	orrs	r1, r1, r5
	.loc 1 239 91 view .LVU904
	add	r1, r1, r7, ror #27
	.loc 1 239 365 view .LVU905
	ror	r5, r0, #31
	str	r5, [sp, #36]
	.loc 1 239 182 view .LVU906
	add	r1, r1, r0, ror #31
	add	r1, r1, r6
	.loc 1 239 20 view .LVU907
	add	r9, r1, r9, ror #2
	.loc 1 239 418 is_stmt 1 view .LVU908
	.loc 1 239 508 view .LVU909
	.loc 1 240 5 view .LVU910
	.loc 1 240 10 view .LVU911
	.loc 1 240 229 is_stmt 0 view .LVU912
	ldr	r1, [sp, #24]
	eor	ip, r1, ip, ror #31
	.loc 1 240 260 view .LVU913
	ldr	r5, [sp, #56]
	eor	ip, r5, ip
	.loc 1 240 292 view .LVU914
	ldr	r5, [sp, #40]
	eor	ip, r5, ip
	.loc 1 240 107 view .LVU915
	and	r5, r7, r2, ror #2
	.loc 1 240 152 view .LVU916
	orr	fp, r7, r2, ror #2
	.loc 1 240 137 view .LVU917
	and	fp, fp, r10, ror #2
	.loc 1 240 122 view .LVU918
	orr	r5, r5, fp
	.loc 1 240 91 view .LVU919
	add	r5, r5, r9, ror #27
	.loc 1 240 365 view .LVU920
	ror	lr, ip, #31
	str	lr, [sp, #76]
	.loc 1 240 182 view .LVU921
	add	r5, r5, ip, ror #31
	add	r5, r5, r6
	.loc 1 240 20 view .LVU922
	add	fp, r5, r4, ror #2
	.loc 1 240 418 is_stmt 1 view .LVU923
	.loc 1 240 508 view .LVU924
	.loc 1 241 5 view .LVU925
	.loc 1 241 10 view .LVU926
	.loc 1 241 229 is_stmt 0 view .LVU927
	ldr	r4, [sp, #28]
	eor	r3, r4, r3, ror #31
	.loc 1 241 260 view .LVU928
	ldr	r4, [sp, #72]
	eors	r3, r3, r4
	.loc 1 241 292 view .LVU929
	ldr	r5, [sp, #52]
	eors	r3, r3, r5
	.loc 1 241 107 view .LVU930
	and	lr, r9, r7, ror #2
	.loc 1 241 152 view .LVU931
	orr	r1, r9, r7, ror #2
	.loc 1 241 137 view .LVU932
	and	r1, r1, r2, ror #2
	.loc 1 241 122 view .LVU933
	orr	lr, lr, r1
	.loc 1 241 91 view .LVU934
	add	lr, lr, fp, ror #27
	.loc 1 241 365 view .LVU935
	ror	r1, r3, #31
	str	r1, [sp, #40]
	.loc 1 241 182 view .LVU936
	add	lr, lr, r3, ror #31
	add	lr, lr, r6
	.loc 1 241 20 view .LVU937
	add	r10, lr, r10, ror #2
	.loc 1 241 418 is_stmt 1 view .LVU938
	.loc 1 241 508 view .LVU939
	.loc 1 242 5 view .LVU940
	.loc 1 242 10 view .LVU941
	.loc 1 242 229 is_stmt 0 view .LVU942
	ldr	r1, [sp, #64]
	eor	r0, r1, r0, ror #31
	.loc 1 242 260 view .LVU943
	ldr	r5, [sp, #12]
	eors	r0, r0, r5
	.loc 1 242 292 view .LVU944
	ldr	r5, [sp, #56]
	eors	r0, r0, r5
	.loc 1 242 107 view .LVU945
	and	r8, fp, r9, ror #2
	.loc 1 242 152 view .LVU946
	orr	r1, fp, r9, ror #2
	.loc 1 242 137 view .LVU947
	and	r1, r1, r7, ror #2
	.loc 1 242 122 view .LVU948
	orr	r8, r8, r1
	.loc 1 242 91 view .LVU949
	add	r8, r8, r10, ror #27
	.loc 1 242 365 view .LVU950
	ror	r5, r0, #31
	str	r5, [sp, #52]
	.loc 1 242 182 view .LVU951
	add	r8, r8, r0, ror #31
	add	r8, r8, r6
	.loc 1 242 20 view .LVU952
	add	r8, r8, r2, ror #2
	.loc 1 242 418 is_stmt 1 view .LVU953
	.loc 1 242 508 view .LVU954
	.loc 1 243 5 view .LVU955
	.loc 1 243 10 view .LVU956
	.loc 1 243 229 is_stmt 0 view .LVU957
	ldr	r2, [sp, #32]
	eor	ip, r2, ip, ror #31
	.loc 1 243 260 view .LVU958
	ldr	r2, [sp, #16]
	eor	ip, r2, ip
	.loc 1 243 292 view .LVU959
	eor	ip, r4, ip
	.loc 1 243 107 view .LVU960
	and	r1, r10, fp, ror #2
	.loc 1 243 152 view .LVU961
	orr	r2, r10, fp, ror #2
	.loc 1 243 137 view .LVU962
	and	r2, r2, r9, ror #2
	.loc 1 243 122 view .LVU963
	orrs	r1, r1, r2
	.loc 1 243 91 view .LVU964
	add	r1, r1, r8, ror #27
	.loc 1 243 365 view .LVU965
	ror	lr, ip, #31
	str	lr, [sp, #80]
	.loc 1 243 182 view .LVU966
	add	r1, r1, ip, ror #31
	add	r1, r1, r6
	.loc 1 243 20 view .LVU967
	add	r7, r1, r7, ror #2
	.loc 1 243 418 is_stmt 1 view .LVU968
	.loc 1 243 508 view .LVU969
	.loc 1 244 5 view .LVU970
	.loc 1 244 10 view .LVU971
	.loc 1 244 229 is_stmt 0 view .LVU972
	ldr	r5, [sp, #44]
	eor	r3, r5, r3, ror #31
	.loc 1 244 260 view .LVU973
	ldr	r4, [sp, #20]
	eors	r3, r3, r4
	.loc 1 244 292 view .LVU974
	ldr	r5, [sp, #12]
	eors	r3, r3, r5
	.loc 1 244 107 view .LVU975
	and	r2, r8, r10, ror #2
	.loc 1 244 152 view .LVU976
	orr	r1, r8, r10, ror #2
	.loc 1 244 137 view .LVU977
	and	r1, r1, fp, ror #2
	.loc 1 244 122 view .LVU978
	orrs	r2, r2, r1
	.loc 1 244 91 view .LVU979
	add	r2, r2, r7, ror #27
	.loc 1 244 365 view .LVU980
	ror	r5, r3, #31
	str	r5, [sp, #56]
	.loc 1 244 182 view .LVU981
	add	r2, r2, r3, ror #31
	add	r6, r6, r2
	.loc 1 244 20 view .LVU982
	add	r6, r6, r9, ror #2
	.loc 1 244 418 is_stmt 1 view .LVU983
	.loc 1 244 508 view .LVU984
	.loc 1 245 5 view .LVU985
	.loc 1 245 10 view .LVU986
	.loc 1 245 229 is_stmt 0 view .LVU987
	ldr	r5, [sp, #48]
	eor	r0, r5, r0, ror #31
	.loc 1 245 260 view .LVU988
	ldr	r5, [sp, #60]
	eors	r0, r0, r5
	.loc 1 245 292 view .LVU989
	ldr	r2, [sp, #16]
	eors	r0, r0, r2
	b	.L20
.L21:
	.align	2
.L19:
	.word	-1894007588
.L20:
	.loc 1 245 107 view .LVU990
	and	r4, r7, r8, ror #2
	.loc 1 245 152 view .LVU991
	orr	r5, r7, r8, ror #2
	.loc 1 245 137 view .LVU992
	and	r5, r5, r10, ror #2
	.loc 1 245 122 view .LVU993
	orrs	r4, r4, r5
	.loc 1 245 91 view .LVU994
	add	r4, r4, r6, ror #27
	.loc 1 245 365 view .LVU995
	ror	r2, r0, #31
	str	r2, [sp, #72]
	.loc 1 245 182 view .LVU996
	add	r4, r4, r0, ror #31
	ldr	r2, .L22
	add	r4, r4, r2
	.loc 1 245 20 view .LVU997
	add	r5, r4, fp, ror #2
	.loc 1 245 418 is_stmt 1 view .LVU998
	.loc 1 245 508 view .LVU999
	.loc 1 246 5 view .LVU1000
	.loc 1 246 10 view .LVU1001
	.loc 1 246 229 is_stmt 0 view .LVU1002
	ldr	r1, [sp, #68]
	eor	r1, r1, ip, ror #31
	.loc 1 246 260 view .LVU1003
	ldr	r4, [sp, #24]
	eors	r1, r1, r4
	.loc 1 246 292 view .LVU1004
	ldr	r4, [sp, #20]
	eor	ip, r4, r1
	str	ip, [sp, #4]
	.loc 1 246 107 view .LVU1005
	and	r1, r6, r7, ror #2
	.loc 1 246 152 view .LVU1006
	orr	r4, r6, r7, ror #2
	.loc 1 246 137 view .LVU1007
	and	r4, r4, r8, ror #2
	.loc 1 246 122 view .LVU1008
	orr	lr, r1, r4
	.loc 1 246 91 view .LVU1009
	add	lr, lr, r5, ror #27
	.loc 1 246 182 view .LVU1010
	mov	r4, ip
	add	lr, lr, ip, ror #31
	add	lr, lr, r2
	.loc 1 246 20 view .LVU1011
	add	lr, lr, r10, ror #2
	.loc 1 246 418 is_stmt 1 view .LVU1012
	.loc 1 246 508 view .LVU1013
	.loc 1 254 5 view .LVU1014
	.loc 1 254 10 view .LVU1015
	.loc 1 254 195 is_stmt 0 view .LVU1016
	ldr	r2, [sp, #36]
	eor	r2, r2, r3, ror #31
	.loc 1 254 226 view .LVU1017
	ldr	r3, [sp, #28]
	eors	r2, r2, r3
	.loc 1 254 258 view .LVU1018
	ldr	r3, [sp, #60]
	eors	r3, r3, r2
	.loc 1 254 106 view .LVU1019
	eor	ip, r5, r6, ror #2
	.loc 1 254 120 view .LVU1020
	eor	ip, ip, r7, ror #2
	.loc 1 254 91 view .LVU1021
	add	ip, ip, lr, ror #27
	.loc 1 254 148 view .LVU1022
	str	r3, [sp, #8]
	add	ip, ip, r3, ror #31
	ldr	r3, .L22+4
	add	ip, ip, r3
	.loc 1 254 20 view .LVU1023
	add	r8, ip, r8, ror #2
	.loc 1 254 384 is_stmt 1 view .LVU1024
	.loc 1 254 474 view .LVU1025
	.loc 1 255 5 view .LVU1026
	.loc 1 255 10 view .LVU1027
	.loc 1 255 195 is_stmt 0 view .LVU1028
	ldr	r2, [sp, #76]
	eor	r0, r2, r0, ror #31
	.loc 1 255 226 view .LVU1029
	ldr	r1, [sp, #64]
	eors	r0, r0, r1
	.loc 1 255 258 view .LVU1030
	ldr	r2, [sp, #24]
	eors	r0, r0, r2
	.loc 1 255 106 view .LVU1031
	eor	r10, lr, r5, ror #2
	.loc 1 255 120 view .LVU1032
	eor	r10, r10, r6, ror #2
	.loc 1 255 91 view .LVU1033
	add	r10, r10, r8, ror #27
	.loc 1 255 148 view .LVU1034
	str	r0, [sp, #12]
	add	r10, r10, r0, ror #31
	add	r10, r10, r3
	.loc 1 255 20 view .LVU1035
	add	r1, r10, r7, ror #2
	.loc 1 255 384 is_stmt 1 view .LVU1036
	.loc 1 255 474 view .LVU1037
	.loc 1 256 5 view .LVU1038
	.loc 1 256 10 view .LVU1039
	.loc 1 256 195 is_stmt 0 view .LVU1040
	ldr	r0, [sp, #40]
	eor	r2, r0, r4, ror #31
	.loc 1 256 226 view .LVU1041
	ldr	r7, [sp, #32]
	eors	r2, r2, r7
	.loc 1 256 258 view .LVU1042
	ldr	r7, [sp, #28]
	eor	ip, r7, r2
	mov	r7, ip
	.loc 1 256 106 view .LVU1043
	eor	r9, r8, lr, ror #2
	.loc 1 256 120 view .LVU1044
	eor	r9, r9, r5, ror #2
	.loc 1 256 91 view .LVU1045
	add	r9, r9, r1, ror #27
	.loc 1 256 148 view .LVU1046
	add	r9, r9, ip, ror #31
	add	r9, r9, r3
	.loc 1 256 20 view .LVU1047
	add	r2, r9, r6, ror #2
	.loc 1 256 384 is_stmt 1 view .LVU1048
	.loc 1 256 474 view .LVU1049
	.loc 1 257 5 view .LVU1050
	.loc 1 257 10 view .LVU1051
	.loc 1 257 195 is_stmt 0 view .LVU1052
	ldr	r6, [sp, #52]
	ldr	r0, [sp, #8]
	eor	r0, r6, r0, ror #31
	.loc 1 257 226 view .LVU1053
	ldr	r4, [sp, #44]
	eors	r0, r0, r4
	.loc 1 257 258 view .LVU1054
	ldr	r6, [sp, #64]
	eor	ip, r6, r0
	.loc 1 257 106 view .LVU1055
	eor	fp, r1, r8, ror #2
	.loc 1 257 120 view .LVU1056
	eor	fp, fp, lr, ror #2
	.loc 1 257 91 view .LVU1057
	add	fp, fp, r2, ror #27
	.loc 1 257 148 view .LVU1058
	str	ip, [sp, #16]
	add	fp, fp, ip, ror #31
	add	fp, fp, r3
	.loc 1 257 20 view .LVU1059
	add	r4, fp, r5, ror #2
	.loc 1 257 384 is_stmt 1 view .LVU1060
	.loc 1 257 474 view .LVU1061
	.loc 1 258 5 view .LVU1062
	.loc 1 258 10 view .LVU1063
	.loc 1 258 195 is_stmt 0 view .LVU1064
	ldr	r6, [sp, #80]
	ldr	r5, [sp, #12]
	eor	r5, r6, r5, ror #31
	.loc 1 258 226 view .LVU1065
	ldr	r0, [sp, #48]
	eors	r5, r5, r0
	.loc 1 258 258 view .LVU1066
	ldr	r6, [sp, #32]
	eors	r5, r5, r6
	.loc 1 258 106 view .LVU1067
	eor	r0, r2, r1, ror #2
	.loc 1 258 120 view .LVU1068
	eor	r0, r0, r8, ror #2
	.loc 1 258 91 view .LVU1069
	add	r0, r0, r4, ror #27
	.loc 1 258 331 view .LVU1070
	ror	r5, r5, #31
	.loc 1 258 306 view .LVU1071
	str	r5, [sp, #92]
	.loc 1 258 148 view .LVU1072
	str	r5, [sp, #32]
	add	r0, r0, r5
	add	r0, r0, r3
	.loc 1 258 20 view .LVU1073
	add	lr, r0, lr, ror #2
	.loc 1 258 384 is_stmt 1 view .LVU1074
	.loc 1 258 474 view .LVU1075
	.loc 1 259 5 view .LVU1076
	.loc 1 259 10 view .LVU1077
	.loc 1 259 195 is_stmt 0 view .LVU1078
	ldr	r0, [sp, #56]
	str	r7, [sp, #28]
	eor	r0, r0, r7, ror #31
	.loc 1 259 226 view .LVU1079
	ldr	r7, [sp, #68]
	eors	r0, r0, r7
	.loc 1 259 258 view .LVU1080
	ldr	r7, [sp, #44]
	eors	r0, r0, r7
	.loc 1 259 106 view .LVU1081
	eor	ip, r4, r2, ror #2
	.loc 1 259 120 view .LVU1082
	eor	ip, ip, r1, ror #2
	.loc 1 259 91 view .LVU1083
	add	ip, ip, lr, ror #27
	.loc 1 259 331 view .LVU1084
	ror	r7, r0, #31
	.loc 1 259 306 view .LVU1085
	str	r7, [sp, #96]
	.loc 1 259 148 view .LVU1086
	str	r7, [sp, #44]
	add	ip, ip, r7
	add	ip, ip, r3
	.loc 1 259 20 view .LVU1087
	add	r8, ip, r8, ror #2
	.loc 1 259 384 is_stmt 1 view .LVU1088
	.loc 1 259 474 view .LVU1089
	.loc 1 260 5 view .LVU1090
	.loc 1 260 10 view .LVU1091
	.loc 1 260 195 is_stmt 0 view .LVU1092
	ldr	r7, [sp, #72]
	ldr	r5, [sp, #16]
	eor	r0, r7, r5, ror #31
	.loc 1 260 226 view .LVU1093
	ldr	r6, [sp, #36]
	eors	r0, r0, r6
	.loc 1 260 258 view .LVU1094
	ldr	r6, [sp, #48]
	eors	r0, r0, r6
	.loc 1 260 106 view .LVU1095
	eor	r7, lr, r4, ror #2
	.loc 1 260 120 view .LVU1096
	eor	r7, r7, r2, ror #2
	.loc 1 260 91 view .LVU1097
	add	r7, r7, r8, ror #27
	.loc 1 260 331 view .LVU1098
	ror	r0, r0, #31
	.loc 1 260 306 view .LVU1099
	str	r0, [sp, #100]
	.loc 1 260 148 view .LVU1100
	add	r7, r7, r0
	add	r7, r7, r3
	.loc 1 260 20 view .LVU1101
	add	r10, r7, r1, ror #2
	.loc 1 260 384 is_stmt 1 view .LVU1102
	.loc 1 260 474 view .LVU1103
	.loc 1 261 5 view .LVU1104
	.loc 1 261 10 view .LVU1105
	.loc 1 261 195 is_stmt 0 view .LVU1106
	ldr	r7, [sp, #32]
	ldr	r5, [sp, #4]
	eor	r1, r7, r5, ror #31
	.loc 1 261 226 view .LVU1107
	ldr	r7, [sp, #76]
	eors	r1, r1, r7
	.loc 1 261 258 view .LVU1108
	ldr	r6, [sp, #68]
	eors	r1, r1, r6
	.loc 1 261 106 view .LVU1109
	eor	r6, r8, lr, ror #2
	.loc 1 261 120 view .LVU1110
	eor	r6, r6, r4, ror #2
	.loc 1 261 91 view .LVU1111
	add	r6, r6, r10, ror #27
	.loc 1 261 331 view .LVU1112
	ror	r1, r1, #31
	.loc 1 261 306 view .LVU1113
	str	r1, [sp, #104]
	.loc 1 261 148 view .LVU1114
	add	r6, r6, r1
	add	r6, r6, r3
	.loc 1 261 20 view .LVU1115
	add	r9, r6, r2, ror #2
	.loc 1 261 384 is_stmt 1 view .LVU1116
	.loc 1 261 474 view .LVU1117
	.loc 1 262 5 view .LVU1118
	.loc 1 262 10 view .LVU1119
	.loc 1 262 195 is_stmt 0 view .LVU1120
	ldr	r2, [sp, #44]
	mov	ip, r2
	ldr	r2, [sp, #8]
	eor	r2, ip, r2, ror #31
	.loc 1 262 226 view .LVU1121
	ldr	r6, [sp, #40]
	eors	r2, r2, r6
	.loc 1 262 258 view .LVU1122
	ldr	r6, [sp, #36]
	eors	r2, r2, r6
	.loc 1 262 106 view .LVU1123
	eor	r5, r10, r8, ror #2
	.loc 1 262 120 view .LVU1124
	eor	r5, r5, lr, ror #2
	.loc 1 262 91 view .LVU1125
	add	r5, r5, r9, ror #27
	.loc 1 262 331 view .LVU1126
	ror	r2, r2, #31
	.loc 1 262 306 view .LVU1127
	str	r2, [sp, #108]
	.loc 1 262 148 view .LVU1128
	add	r5, r5, r2
	add	r5, r5, r3
	.loc 1 262 20 view .LVU1129
	add	fp, r5, r4, ror #2
	.loc 1 262 384 is_stmt 1 view .LVU1130
	.loc 1 262 474 view .LVU1131
	.loc 1 263 5 view .LVU1132
	.loc 1 263 10 view .LVU1133
	.loc 1 263 195 is_stmt 0 view .LVU1134
	ldr	r6, [sp, #12]
	eor	r4, r0, r6, ror #31
	.loc 1 263 226 view .LVU1135
	ldr	r5, [sp, #52]
	eors	r4, r4, r5
	.loc 1 263 258 view .LVU1136
	eors	r4, r4, r7
	.loc 1 263 106 view .LVU1137
	eor	r5, r9, r10, ror #2
	.loc 1 263 120 view .LVU1138
	eor	r5, r5, r8, ror #2
	.loc 1 263 91 view .LVU1139
	add	r5, r5, fp, ror #27
	.loc 1 263 331 view .LVU1140
	ror	r4, r4, #31
	str	r4, [sp, #20]
	.loc 1 263 306 view .LVU1141
	str	r4, [sp, #112]
	.loc 1 263 148 view .LVU1142
	add	r5, r5, r4
	add	r5, r5, r3
	.loc 1 263 20 view .LVU1143
	add	lr, r5, lr, ror #2
	.loc 1 263 384 is_stmt 1 view .LVU1144
	.loc 1 263 474 view .LVU1145
	.loc 1 264 5 view .LVU1146
	.loc 1 264 10 view .LVU1147
	.loc 1 264 195 is_stmt 0 view .LVU1148
	ldr	r7, [sp, #28]
	eor	r5, r1, r7, ror #31
	.loc 1 264 226 view .LVU1149
	ldr	r4, [sp, #80]
	eors	r5, r5, r4
	.loc 1 264 258 view .LVU1150
	ldr	r6, [sp, #40]
	eors	r5, r5, r6
	.loc 1 264 106 view .LVU1151
	eor	ip, fp, r9, ror #2
	.loc 1 264 120 view .LVU1152
	eor	ip, ip, r10, ror #2
	.loc 1 264 91 view .LVU1153
	add	ip, ip, lr, ror #27
	.loc 1 264 331 view .LVU1154
	ror	r7, r5, #31
	.loc 1 264 306 view .LVU1155
	str	r7, [sp, #116]
	.loc 1 264 148 view .LVU1156
	str	r7, [sp, #36]
	add	ip, ip, r7
	add	ip, ip, r3
	.loc 1 264 20 view .LVU1157
	add	ip, ip, r8, ror #2
	.loc 1 264 384 is_stmt 1 view .LVU1158
	.loc 1 264 474 view .LVU1159
	.loc 1 265 5 view .LVU1160
	.loc 1 265 10 view .LVU1161
	.loc 1 265 195 is_stmt 0 view .LVU1162
	ldr	r7, [sp, #16]
	eor	r8, r2, r7, ror #31
	.loc 1 265 226 view .LVU1163
	ldr	r6, [sp, #56]
	eor	r8, r6, r8
	.loc 1 265 258 view .LVU1164
	ldr	r5, [sp, #52]
	eor	r8, r5, r8
	.loc 1 265 106 view .LVU1165
	eor	r7, lr, fp, ror #2
	.loc 1 265 120 view .LVU1166
	eor	r7, r7, r9, ror #2
	.loc 1 265 91 view .LVU1167
	add	r7, r7, ip, ror #27
	.loc 1 265 331 view .LVU1168
	ror	r8, r8, #31
	.loc 1 265 306 view .LVU1169
	str	r8, [sp, #120]
	.loc 1 265 148 view .LVU1170
	add	r7, r7, r8
	add	r7, r7, r3
	.loc 1 265 20 view .LVU1171
	add	r7, r7, r10, ror #2
	.loc 1 265 384 is_stmt 1 view .LVU1172
	.loc 1 265 474 view .LVU1173
	.loc 1 266 5 view .LVU1174
	.loc 1 266 10 view .LVU1175
	.loc 1 266 195 is_stmt 0 view .LVU1176
	ldr	r5, [sp, #32]
	mov	r10, r5
	ldr	r5, [sp, #20]
	eor	r10, r10, r5
	.loc 1 266 226 view .LVU1177
	ldr	r5, [sp, #72]
	eor	r10, r5, r10
	.loc 1 266 258 view .LVU1178
	eor	r10, r4, r10
	.loc 1 266 106 view .LVU1179
	eor	r6, ip, lr, ror #2
	.loc 1 266 120 view .LVU1180
	eor	r6, r6, fp, ror #2
	.loc 1 266 91 view .LVU1181
	add	r6, r6, r7, ror #27
	.loc 1 266 331 view .LVU1182
	ror	r10, r10, #31
	.loc 1 266 306 view .LVU1183
	str	r10, [sp, #124]
	.loc 1 266 148 view .LVU1184
	add	r6, r6, r10
	add	r6, r6, r3
	.loc 1 266 20 view .LVU1185
	add	r4, r6, r9, ror #2
	.loc 1 266 384 is_stmt 1 view .LVU1186
	.loc 1 266 474 view .LVU1187
	.loc 1 267 5 view .LVU1188
	.loc 1 267 10 view .LVU1189
	.loc 1 267 195 is_stmt 0 view .LVU1190
	ldr	r5, [sp, #44]
	ldr	r6, [sp, #36]
	eor	r9, r5, r6
	.loc 1 267 226 view .LVU1191
	ldr	r5, [sp, #4]
	eor	r9, r9, r5, ror #31
	.loc 1 267 258 view .LVU1192
	ldr	r5, [sp, #56]
	eor	r9, r5, r9
	.loc 1 267 106 view .LVU1193
	eor	r5, r7, ip, ror #2
	.loc 1 267 120 view .LVU1194
	eor	r5, r5, lr, ror #2
	.loc 1 267 91 view .LVU1195
	str	r4, [sp, #24]
	add	r5, r5, r4, ror #27
	.loc 1 267 331 view .LVU1196
	ror	r9, r9, #31
	.loc 1 267 306 view .LVU1197
	str	r9, [sp, #128]
	.loc 1 267 148 view .LVU1198
	add	r5, r5, r9
	add	r5, r5, r3
	.loc 1 267 20 view .LVU1199
	add	r5, r5, fp, ror #2
	.loc 1 267 384 is_stmt 1 view .LVU1200
	.loc 1 267 474 view .LVU1201
	.loc 1 268 5 view .LVU1202
	.loc 1 268 10 view .LVU1203
	.loc 1 268 195 is_stmt 0 view .LVU1204
	eor	r0, r0, r8
	.loc 1 268 226 view .LVU1205
	ldr	r6, [sp, #8]
	eor	r0, r0, r6, ror #31
	.loc 1 268 258 view .LVU1206
	ldr	r6, [sp, #72]
	eors	r0, r0, r6
	.loc 1 268 106 view .LVU1207
	mov	r6, r4
	eor	fp, r4, r7, ror #2
	.loc 1 268 120 view .LVU1208
	eor	fp, fp, ip, ror #2
	.loc 1 268 91 view .LVU1209
	add	fp, fp, r5, ror #27
	.loc 1 268 331 view .LVU1210
	ror	r4, r0, #31
	.loc 1 268 306 view .LVU1211
	str	r4, [sp, #132]
	.loc 1 268 148 view .LVU1212
	add	fp, fp, r4
	add	fp, fp, r3
	.loc 1 268 20 view .LVU1213
	add	lr, fp, lr, ror #2
	.loc 1 268 384 is_stmt 1 view .LVU1214
	.loc 1 268 474 view .LVU1215
	.loc 1 269 5 view .LVU1216
	.loc 1 269 10 view .LVU1217
	.loc 1 269 195 is_stmt 0 view .LVU1218
	eor	r1, r1, r10
	.loc 1 269 226 view .LVU1219
	ldr	r0, [sp, #12]
	eor	r1, r1, r0, ror #31
	.loc 1 269 258 view .LVU1220
	ldr	r0, [sp, #4]
	eor	r1, r1, r0, ror #31
	.loc 1 269 106 view .LVU1221
	eor	fp, r5, r6, ror #2
	.loc 1 269 120 view .LVU1222
	eor	fp, fp, r7, ror #2
	.loc 1 269 91 view .LVU1223
	add	fp, fp, lr, ror #27
	.loc 1 269 331 view .LVU1224
	ror	r1, r1, #31
	.loc 1 269 306 view .LVU1225
	str	r1, [sp, #136]
	.loc 1 269 148 view .LVU1226
	add	fp, fp, r1
	add	fp, fp, r3
	.loc 1 269 20 view .LVU1227
	add	ip, fp, ip, ror #2
	.loc 1 269 384 is_stmt 1 view .LVU1228
	.loc 1 269 474 view .LVU1229
	.loc 1 270 5 view .LVU1230
	.loc 1 270 10 view .LVU1231
	.loc 1 270 195 is_stmt 0 view .LVU1232
	eor	r2, r2, r9
	.loc 1 270 226 view .LVU1233
	ldr	r0, [sp, #28]
	eor	r2, r2, r0, ror #31
	.loc 1 270 258 view .LVU1234
	ldr	r6, [sp, #8]
	eor	r2, r2, r6, ror #31
	.loc 1 270 106 view .LVU1235
	eor	r10, lr, r5, ror #2
	.loc 1 270 120 view .LVU1236
	ldr	r0, [sp, #24]
	eor	r10, r10, r0, ror #2
	.loc 1 270 91 view .LVU1237
	add	r10, r10, ip, ror #27
	.loc 1 270 331 view .LVU1238
	ror	r2, r2, #31
	.loc 1 270 306 view .LVU1239
	str	r2, [sp, #140]
	.loc 1 270 148 view .LVU1240
	add	r10, r10, r2
	add	r10, r10, r3
	.loc 1 270 20 view .LVU1241
	add	r7, r10, r7, ror #2
	.loc 1 270 384 is_stmt 1 view .LVU1242
	.loc 1 270 474 view .LVU1243
	.loc 1 271 5 view .LVU1244
	.loc 1 271 10 view .LVU1245
	.loc 1 271 195 is_stmt 0 view .LVU1246
	ldr	r0, [sp, #20]
	eors	r4, r4, r0
	mov	r0, r4
	.loc 1 271 226 view .LVU1247
	ldr	r4, [sp, #16]
	eor	r0, r0, r4, ror #31
	.loc 1 271 258 view .LVU1248
	ldr	r6, [sp, #12]
	eor	r0, r0, r6, ror #31
	.loc 1 271 106 view .LVU1249
	eor	r9, ip, lr, ror #2
	.loc 1 271 120 view .LVU1250
	eor	r9, r9, r5, ror #2
	.loc 1 271 91 view .LVU1251
	add	r9, r9, r7, ror #27
	.loc 1 271 331 view .LVU1252
	ror	r0, r0, #31
	.loc 1 271 306 view .LVU1253
	str	r0, [sp, #144]
	.loc 1 271 148 view .LVU1254
	add	r9, r9, r0
	add	r9, r9, r3
	.loc 1 271 20 view .LVU1255
	ldr	r6, [sp, #24]
	add	r9, r9, r6, ror #2
	.loc 1 271 384 is_stmt 1 view .LVU1256
	.loc 1 271 419 is_stmt 0 view .LVU1257
	ror	r4, ip, #2
	.loc 1 271 394 view .LVU1258
	str	r4, [sp, #172]
	.loc 1 271 474 is_stmt 1 view .LVU1259
	.loc 1 272 5 view .LVU1260
	.loc 1 272 10 view .LVU1261
	.loc 1 272 195 is_stmt 0 view .LVU1262
	ldr	r6, [sp, #36]
	eors	r1, r1, r6
	b	.L23
.L24:
	.align	2
.L22:
	.word	-1894007588
	.word	-899497514
.L23:
	.loc 1 272 226 view .LVU1263
	ldr	r6, [sp, #32]
	eors	r1, r1, r6
	.loc 1 272 258 view .LVU1264
	ldr	r0, [sp, #28]
	eor	r1, r1, r0, ror #31
	.loc 1 272 106 view .LVU1265
	eor	r0, r7, r4
	.loc 1 272 120 view .LVU1266
	eor	r0, r0, lr, ror #2
	.loc 1 272 91 view .LVU1267
	add	r0, r0, r9, ror #27
	.loc 1 272 331 view .LVU1268
	ror	r1, r1, #31
	.loc 1 272 306 view .LVU1269
	str	r1, [sp, #148]
	.loc 1 272 148 view .LVU1270
	add	r1, r1, r0
	add	r1, r1, r3
	.loc 1 272 20 view .LVU1271
	add	r5, r1, r5, ror #2
	str	r5, [sp, #160]
	.loc 1 272 384 is_stmt 1 view .LVU1272
	.loc 1 272 419 is_stmt 0 view .LVU1273
	ror	r7, r7, #2
	.loc 1 272 394 view .LVU1274
	str	r7, [sp, #168]
	.loc 1 272 474 is_stmt 1 view .LVU1275
	.loc 1 273 5 view .LVU1276
	.loc 1 273 10 view .LVU1277
	.loc 1 273 195 is_stmt 0 view .LVU1278
	eor	r2, r8, r2
	.loc 1 273 226 view .LVU1279
	ldr	r6, [sp, #44]
	eors	r2, r2, r6
	.loc 1 273 258 view .LVU1280
	ldr	r0, [sp, #16]
	eor	r2, r2, r0, ror #31
	.loc 1 273 164 view .LVU1281
	str	r2, [sp, #88]
	.loc 1 273 106 view .LVU1282
	eor	fp, r9, r7
	.loc 1 273 120 view .LVU1283
	eor	fp, r4, fp
	.loc 1 273 91 view .LVU1284
	add	fp, fp, r5, ror #27
	.loc 1 273 331 view .LVU1285
	ror	r2, r2, #31
	.loc 1 273 306 view .LVU1286
	str	r2, [sp, #152]
	.loc 1 273 148 view .LVU1287
	add	r2, r2, fp
	add	r3, r3, r2
	.loc 1 273 20 view .LVU1288
	add	r3, r3, lr, ror #2
	str	r3, [sp, #156]
	.loc 1 273 384 is_stmt 1 view .LVU1289
	.loc 1 273 419 is_stmt 0 view .LVU1290
	ror	r6, r9, #2
	.loc 1 273 394 view .LVU1291
	str	r6, [sp, #164]
	.loc 1 273 474 is_stmt 1 view .LVU1292
	.loc 1 278 5 view .LVU1293
	.loc 1 278 19 is_stmt 0 view .LVU1294
	ldr	r1, [sp, #84]
	ldr	r2, [r1, #8]
	add	r3, r3, r2
	str	r3, [r1, #8]
	.loc 1 279 5 is_stmt 1 view .LVU1295
	.loc 1 279 19 is_stmt 0 view .LVU1296
	ldr	r3, [r1, #12]
	add	r5, r5, r3
	str	r5, [r1, #12]
	.loc 1 280 5 is_stmt 1 view .LVU1297
	.loc 1 280 19 is_stmt 0 view .LVU1298
	ldr	r3, [r1, #16]
	add	r6, r6, r3
	str	r6, [r1, #16]
	.loc 1 281 5 is_stmt 1 view .LVU1299
	.loc 1 281 19 is_stmt 0 view .LVU1300
	ldr	r3, [r1, #20]
	add	r7, r7, r3
	str	r7, [r1, #20]
	.loc 1 282 5 is_stmt 1 view .LVU1301
	.loc 1 282 19 is_stmt 0 view .LVU1302
	ldr	r3, [r1, #24]
	add	r4, r4, r3
	str	r4, [r1, #24]
	.loc 1 285 5 is_stmt 1 view .LVU1303
	movs	r1, #88
	add	r0, sp, r1
	bl	mbedtls_platform_zeroize
.LVL14:
	.loc 1 287 5 view .LVU1304
	.loc 1 288 1 is_stmt 0 view .LVU1305
	movs	r0, #0
	add	sp, sp, #180
	.cfi_def_cfa_offset 36
	@ sp needed
	pop	{r4, r5, r6, r7, r8, r9, r10, fp, pc}
	.loc 1 288 1 view .LVU1306
	.cfi_endproc
.LFE15:
	.size	mbedtls_internal_sha1_process, .-mbedtls_internal_sha1_process
	.section	.text.mbedtls_sha1_update,"ax",%progbits
	.align	1
	.global	mbedtls_sha1_update
	.syntax unified
	.thumb
	.thumb_func
	.fpu fpv4-sp-d16
	.type	mbedtls_sha1_update, %function
mbedtls_sha1_update:
.LVL15:
.LFB16:
	.loc 1 298 1 is_stmt 1 view -0
	.cfi_startproc
	@ args = 0, pretend = 0, frame = 0
	@ frame_needed = 0, uses_anonymous_args = 0
	.loc 1 298 1 is_stmt 0 view .LVU1308
	push	{r3, r4, r5, r6, r7, r8, r9, lr}
	.cfi_def_cfa_offset 32
	.cfi_offset 3, -32
	.cfi_offset 4, -28
	.cfi_offset 5, -24
	.cfi_offset 6, -20
	.cfi_offset 7, -16
	.cfi_offset 8, -12
	.cfi_offset 9, -8
	.cfi_offset 14, -4
	.loc 1 299 5 is_stmt 1 view .LVU1309
.LVL16:
	.loc 1 300 5 view .LVU1310
	.loc 1 301 5 view .LVU1311
	.loc 1 303 5 view .LVU1312
	.loc 1 303 10 view .LVU1313
	.loc 1 303 17 view .LVU1314
	.loc 1 304 5 view .LVU1315
	.loc 1 304 10 view .LVU1316
	.loc 1 304 17 view .LVU1317
	.loc 1 306 5 view .LVU1318
	.loc 1 306 7 is_stmt 0 view .LVU1319
	cbz	r2, .L31
	mov	r6, r0
	mov	r5, r1
	mov	r4, r2
	.loc 1 309 5 is_stmt 1 view .LVU1320
	.loc 1 309 22 is_stmt 0 view .LVU1321
	ldr	r3, [r0]
	.loc 1 309 10 view .LVU1322
	and	r7, r3, #63
.LVL17:
	.loc 1 310 5 is_stmt 1 view .LVU1323
	.loc 1 310 10 is_stmt 0 view .LVU1324
	rsb	r8, r7, #64
.LVL18:
	.loc 1 312 5 is_stmt 1 view .LVU1325
	.loc 1 312 19 is_stmt 0 view .LVU1326
	add	r3, r3, r2
	str	r3, [r0]
	.loc 1 313 5 is_stmt 1 view .LVU1327
	.loc 1 315 5 view .LVU1328
	.loc 1 315 7 is_stmt 0 view .LVU1329
	cmp	r3, r2
	bcs	.L27
	.loc 1 316 9 is_stmt 1 view .LVU1330
	.loc 1 316 19 is_stmt 0 view .LVU1331
	ldr	r3, [r0, #4]
	.loc 1 316 22 view .LVU1332
	adds	r3, r3, #1
	str	r3, [r0, #4]
.L27:
	.loc 1 318 5 is_stmt 1 view .LVU1333
	.loc 1 318 7 is_stmt 0 view .LVU1334
	cbz	r7, .L29
	.loc 1 318 14 discriminator 1 view .LVU1335
	cmp	r4, r8
	bcc	.L29
	.loc 1 320 8 is_stmt 1 view .LVU1336
	.loc 1 320 18 is_stmt 0 view .LVU1337
	add	r9, r6, #28
.LVL19:
.LBB16:
.LBI16:
	.loc 2 83 216 is_stmt 1 view .LVU1338
.LBB17:
	.loc 2 83 292 view .LVU1339
	.loc 2 83 299 is_stmt 0 view .LVU1340
	mov	r2, r8
.LVL20:
	.loc 2 83 299 view .LVU1341
	mov	r1, r5
.LVL21:
	.loc 2 83 299 view .LVU1342
	add	r0, r9, r7
.LVL22:
	.loc 2 83 299 view .LVU1343
	bl	memcpy
.LVL23:
	.loc 2 83 299 view .LVU1344
.LBE17:
.LBE16:
	.loc 1 322 9 is_stmt 1 view .LVU1345
	.loc 1 322 21 is_stmt 0 view .LVU1346
	mov	r1, r9
	mov	r0, r6
	bl	mbedtls_internal_sha1_process
.LVL24:
	.loc 1 322 11 view .LVU1347
	mov	r3, r0
	cbnz	r0, .L25
	.loc 1 325 9 is_stmt 1 view .LVU1348
	.loc 1 325 15 is_stmt 0 view .LVU1349
	add	r5, r5, r8
.LVL25:
	.loc 1 326 9 is_stmt 1 view .LVU1350
	.loc 1 326 14 is_stmt 0 view .LVU1351
	subs	r7, r7, #64
.LVL26:
	.loc 1 326 14 view .LVU1352
	add	r4, r4, r7
.LVL27:
	.loc 1 327 9 is_stmt 1 view .LVU1353
	.loc 1 327 14 is_stmt 0 view .LVU1354
	movs	r7, #0
.LVL28:
.L29:
	.loc 1 330 10 is_stmt 1 view .LVU1355
	cmp	r4, #63
	bls	.L34
	.loc 1 332 9 view .LVU1356
	.loc 1 332 21 is_stmt 0 view .LVU1357
	mov	r1, r5
	mov	r0, r6
	bl	mbedtls_internal_sha1_process
.LVL29:
	.loc 1 332 11 view .LVU1358
	mov	r3, r0
	cbnz	r0, .L25
	.loc 1 335 9 is_stmt 1 view .LVU1359
	.loc 1 335 15 is_stmt 0 view .LVU1360
	adds	r5, r5, #64
.LVL30:
	.loc 1 336 9 is_stmt 1 view .LVU1361
	.loc 1 336 14 is_stmt 0 view .LVU1362
	subs	r4, r4, #64
.LVL31:
	.loc 1 336 14 view .LVU1363
	b	.L29
.LVL32:
.L34:
	.loc 1 339 5 is_stmt 1 view .LVU1364
	.loc 1 339 7 is_stmt 0 view .LVU1365
	cbz	r4, .L32
	.loc 1 340 8 is_stmt 1 view .LVU1366
	.loc 1 340 18 is_stmt 0 view .LVU1367
	add	r0, r6, #28
.LVL33:
.LBB18:
.LBI18:
	.loc 2 83 216 is_stmt 1 view .LVU1368
.LBB19:
	.loc 2 83 292 view .LVU1369
	.loc 2 83 299 is_stmt 0 view .LVU1370
	mov	r2, r4
	mov	r1, r5
	add	r0, r0, r7
.LVL34:
	.loc 2 83 299 view .LVU1371
	bl	memcpy
.LVL35:
	.loc 2 83 299 view .LVU1372
.LBE19:
.LBE18:
	.loc 1 342 11 view .LVU1373
	movs	r3, #0
	b	.L25
.LVL36:
.L31:
	.loc 1 307 15 view .LVU1374
	movs	r3, #0
.LVL37:
.L25:
	.loc 1 343 1 view .LVU1375
	mov	r0, r3
	pop	{r3, r4, r5, r6, r7, r8, r9, pc}
.LVL38:
.L32:
	.loc 1 342 11 view .LVU1376
	movs	r3, #0
	b	.L25
	.cfi_endproc
.LFE16:
	.size	mbedtls_sha1_update, .-mbedtls_sha1_update
	.section	.text.mbedtls_sha1_finish,"ax",%progbits
	.align	1
	.global	mbedtls_sha1_finish
	.syntax unified
	.thumb
	.thumb_func
	.fpu fpv4-sp-d16
	.type	mbedtls_sha1_finish, %function
mbedtls_sha1_finish:
.LVL39:
.LFB17:
	.loc 1 350 1 is_stmt 1 view -0
	.cfi_startproc
	@ args = 0, pretend = 0, frame = 0
	@ frame_needed = 0, uses_anonymous_args = 0
	.loc 1 350 1 is_stmt 0 view .LVU1378
	push	{r4, r5, r6, lr}
	.cfi_def_cfa_offset 16
	.cfi_offset 4, -16
	.cfi_offset 5, -12
	.cfi_offset 6, -8
	.cfi_offset 14, -4
	mov	r4, r0
	mov	r5, r1
	.loc 1 351 5 is_stmt 1 view .LVU1379
.LVL40:
	.loc 1 352 5 view .LVU1380
	.loc 1 353 5 view .LVU1381
	.loc 1 355 5 view .LVU1382
	.loc 1 355 10 view .LVU1383
	.loc 1 355 17 view .LVU1384
	.loc 1 356 5 view .LVU1385
	.loc 1 356 10 view .LVU1386
	.loc 1 356 17 view .LVU1387
	.loc 1 361 5 view .LVU1388
	.loc 1 361 22 is_stmt 0 view .LVU1389
	ldr	r3, [r0]
	.loc 1 361 10 view .LVU1390
	and	r3, r3, #63
.LVL41:
	.loc 1 363 5 is_stmt 1 view .LVU1391
	.loc 1 363 21 is_stmt 0 view .LVU1392
	adds	r0, r3, #1
.LVL42:
	.loc 1 363 25 view .LVU1393
	add	r3, r3, r4
	movs	r2, #128
	strb	r2, [r3, #28]
	.loc 1 365 5 is_stmt 1 view .LVU1394
	.loc 1 365 7 is_stmt 0 view .LVU1395
	cmp	r0, #56
	bhi	.L36
	.loc 1 368 8 is_stmt 1 view .LVU1396
	.loc 1 368 8 is_stmt 0 view .LVU1397
	add	r3, r4, #28
.LVL43:
.LBB20:
.LBI20:
	.loc 2 86 189 is_stmt 1 view .LVU1398
.LBB21:
	.loc 2 86 238 view .LVU1399
	.loc 2 86 245 is_stmt 0 view .LVU1400
	rsb	r2, r0, #56
.LVL44:
	.loc 2 86 245 view .LVU1401
	movs	r1, #0
.LVL45:
	.loc 2 86 245 view .LVU1402
	add	r0, r0, r3
.LVL46:
	.loc 2 86 245 view .LVU1403
	bl	memset
.LVL47:
.L37:
	.loc 2 86 245 view .LVU1404
.LBE21:
.LBE20:
	.loc 1 384 5 is_stmt 1 view .LVU1405
	.loc 1 384 24 is_stmt 0 view .LVU1406
	ldr	r2, [r4]
	.loc 1 385 24 view .LVU1407
	ldr	r3, [r4, #4]
	.loc 1 385 28 view .LVU1408
	lsls	r3, r3, #3
	.loc 1 384 10 view .LVU1409
	orr	r0, r3, r2, lsr #29
.LVL48:
	.loc 1 386 5 is_stmt 1 view .LVU1410
	.loc 1 386 9 is_stmt 0 view .LVU1411
	lsls	r1, r2, #3
.LVL49:
	.loc 1 388 7 is_stmt 1 view .LVU1412
	.loc 1 388 30 is_stmt 0 view .LVU1413
	lsrs	r6, r3, #24
	.loc 1 388 28 view .LVU1414
	strb	r6, [r4, #84]
	.loc 1 388 64 is_stmt 1 view .LVU1415
	.loc 1 388 90 is_stmt 0 view .LVU1416
	ubfx	r6, r3, #16, #8
	.loc 1 388 88 view .LVU1417
	strb	r6, [r4, #85]
	.loc 1 388 124 is_stmt 1 view .LVU1418
	.loc 1 388 150 is_stmt 0 view .LVU1419
	ubfx	r3, r3, #8, #8
	.loc 1 388 148 view .LVU1420
	strb	r3, [r4, #86]
	.loc 1 388 183 is_stmt 1 view .LVU1421
	.loc 1 388 207 is_stmt 0 view .LVU1422
	strb	r0, [r4, #87]
	.loc 1 388 238 is_stmt 1 view .LVU1423
	.loc 1 389 7 view .LVU1424
	.loc 1 389 30 is_stmt 0 view .LVU1425
	ubfx	r3, r2, #21, #8
	.loc 1 389 28 view .LVU1426
	strb	r3, [r4, #88]
	.loc 1 389 63 is_stmt 1 view .LVU1427
	.loc 1 389 89 is_stmt 0 view .LVU1428
	ubfx	r3, r2, #13, #8
	.loc 1 389 87 view .LVU1429
	strb	r3, [r4, #89]
	.loc 1 389 122 is_stmt 1 view .LVU1430
	.loc 1 389 148 is_stmt 0 view .LVU1431
	ubfx	r2, r2, #5, #8
	.loc 1 389 146 view .LVU1432
	strb	r2, [r4, #90]
	.loc 1 389 180 is_stmt 1 view .LVU1433
	.loc 1 389 204 is_stmt 0 view .LVU1434
	strb	r1, [r4, #91]
	.loc 1 389 234 is_stmt 1 view .LVU1435
	.loc 1 391 5 view .LVU1436
	.loc 1 391 17 is_stmt 0 view .LVU1437
	add	r1, r4, #28
.LVL50:
	.loc 1 391 17 view .LVU1438
	mov	r0, r4
.LVL51:
	.loc 1 391 17 view .LVU1439
	bl	mbedtls_internal_sha1_process
.LVL52:
	.loc 1 391 7 view .LVU1440
	cbnz	r0, .L35
	.loc 1 397 7 is_stmt 1 view .LVU1441
	.loc 1 397 24 is_stmt 0 view .LVU1442
	ldrb	r3, [r4, #11]	@ zero_extendqisi2
	.loc 1 397 22 view .LVU1443
	strb	r3, [r5]
	.loc 1 397 67 is_stmt 1 view .LVU1444
	.loc 1 397 87 is_stmt 0 view .LVU1445
	ldrb	r3, [r4, #10]	@ zero_extendqisi2
	.loc 1 397 85 view .LVU1446
	strb	r3, [r5, #1]
	.loc 1 397 130 is_stmt 1 view .LVU1447
	.loc 1 397 150 is_stmt 0 view .LVU1448
	ldrb	r3, [r4, #9]	@ zero_extendqisi2
	.loc 1 397 148 view .LVU1449
	strb	r3, [r5, #2]
	.loc 1 397 192 is_stmt 1 view .LVU1450
	.loc 1 397 212 is_stmt 0 view .LVU1451
	ldrb	r3, [r4, #8]	@ zero_extendqisi2
	.loc 1 397 210 view .LVU1452
	strb	r3, [r5, #3]
	.loc 1 397 250 is_stmt 1 view .LVU1453
	.loc 1 398 7 view .LVU1454
	.loc 1 398 24 is_stmt 0 view .LVU1455
	ldrb	r3, [r4, #15]	@ zero_extendqisi2
	.loc 1 398 22 view .LVU1456
	strb	r3, [r5, #4]
	.loc 1 398 67 is_stmt 1 view .LVU1457
	.loc 1 398 87 is_stmt 0 view .LVU1458
	ldrb	r3, [r4, #14]	@ zero_extendqisi2
	.loc 1 398 85 view .LVU1459
	strb	r3, [r5, #5]
	.loc 1 398 130 is_stmt 1 view .LVU1460
	.loc 1 398 150 is_stmt 0 view .LVU1461
	ldrb	r3, [r4, #13]	@ zero_extendqisi2
	.loc 1 398 148 view .LVU1462
	strb	r3, [r5, #6]
	.loc 1 398 192 is_stmt 1 view .LVU1463
	.loc 1 398 212 is_stmt 0 view .LVU1464
	ldrb	r3, [r4, #12]	@ zero_extendqisi2
	.loc 1 398 210 view .LVU1465
	strb	r3, [r5, #7]
	.loc 1 398 250 is_stmt 1 view .LVU1466
	.loc 1 399 7 view .LVU1467
	.loc 1 399 24 is_stmt 0 view .LVU1468
	ldrb	r3, [r4, #19]	@ zero_extendqisi2
	.loc 1 399 22 view .LVU1469
	strb	r3, [r5, #8]
	.loc 1 399 67 is_stmt 1 view .LVU1470
	.loc 1 399 87 is_stmt 0 view .LVU1471
	ldrb	r3, [r4, #18]	@ zero_extendqisi2
	.loc 1 399 85 view .LVU1472
	strb	r3, [r5, #9]
	.loc 1 399 130 is_stmt 1 view .LVU1473
	.loc 1 399 150 is_stmt 0 view .LVU1474
	ldrb	r3, [r4, #17]	@ zero_extendqisi2
	.loc 1 399 148 view .LVU1475
	strb	r3, [r5, #10]
	.loc 1 399 192 is_stmt 1 view .LVU1476
	.loc 1 399 212 is_stmt 0 view .LVU1477
	ldrb	r3, [r4, #16]	@ zero_extendqisi2
	.loc 1 399 210 view .LVU1478
	strb	r3, [r5, #11]
	.loc 1 399 250 is_stmt 1 view .LVU1479
	.loc 1 400 7 view .LVU1480
	.loc 1 400 25 is_stmt 0 view .LVU1481
	ldrb	r3, [r4, #23]	@ zero_extendqisi2
	.loc 1 400 23 view .LVU1482
	strb	r3, [r5, #12]
	.loc 1 400 68 is_stmt 1 view .LVU1483
	.loc 1 400 89 is_stmt 0 view .LVU1484
	ldrb	r3, [r4, #22]	@ zero_extendqisi2
	.loc 1 400 87 view .LVU1485
	strb	r3, [r5, #13]
	.loc 1 400 132 is_stmt 1 view .LVU1486
	.loc 1 400 153 is_stmt 0 view .LVU1487
	ldrb	r3, [r4, #21]	@ zero_extendqisi2
	.loc 1 400 151 view .LVU1488
	strb	r3, [r5, #14]
	.loc 1 400 195 is_stmt 1 view .LVU1489
	.loc 1 400 216 is_stmt 0 view .LVU1490
	ldrb	r3, [r4, #20]	@ zero_extendqisi2
	.loc 1 400 214 view .LVU1491
	strb	r3, [r5, #15]
	.loc 1 400 254 is_stmt 1 view .LVU1492
	.loc 1 401 7 view .LVU1493
	.loc 1 401 25 is_stmt 0 view .LVU1494
	ldrb	r3, [r4, #27]	@ zero_extendqisi2
	.loc 1 401 23 view .LVU1495
	strb	r3, [r5, #16]
	.loc 1 401 68 is_stmt 1 view .LVU1496
	.loc 1 401 89 is_stmt 0 view .LVU1497
	ldrb	r3, [r4, #26]	@ zero_extendqisi2
	.loc 1 401 87 view .LVU1498
	strb	r3, [r5, #17]
	.loc 1 401 132 is_stmt 1 view .LVU1499
	.loc 1 401 153 is_stmt 0 view .LVU1500
	ldrb	r3, [r4, #25]	@ zero_extendqisi2
	.loc 1 401 151 view .LVU1501
	strb	r3, [r5, #18]
	.loc 1 401 195 is_stmt 1 view .LVU1502
	.loc 1 401 216 is_stmt 0 view .LVU1503
	ldrb	r3, [r4, #24]	@ zero_extendqisi2
	.loc 1 401 214 view .LVU1504
	strb	r3, [r5, #19]
	.loc 1 401 254 is_stmt 1 view .LVU1505
	.loc 1 403 5 view .LVU1506
.L35:
	.loc 1 404 1 is_stmt 0 view .LVU1507
	pop	{r4, r5, r6, pc}
.LVL53:
.L36:
	.loc 1 373 8 is_stmt 1 view .LVU1508
	.loc 1 373 8 is_stmt 0 view .LVU1509
	add	r6, r4, #28
.LVL54:
.LBB22:
.LBI22:
	.loc 2 86 189 is_stmt 1 view .LVU1510
.LBB23:
	.loc 2 86 238 view .LVU1511
	.loc 2 86 245 is_stmt 0 view .LVU1512
	rsb	r2, r0, #64
.LVL55:
	.loc 2 86 245 view .LVU1513
	movs	r1, #0
.LVL56:
	.loc 2 86 245 view .LVU1514
	add	r0, r0, r6
.LVL57:
	.loc 2 86 245 view .LVU1515
	bl	memset
.LVL58:
	.loc 2 86 245 view .LVU1516
.LBE23:
.LBE22:
	.loc 1 375 9 is_stmt 1 view .LVU1517
	.loc 1 375 21 is_stmt 0 view .LVU1518
	mov	r1, r6
	mov	r0, r4
	bl	mbedtls_internal_sha1_process
.LVL59:
	.loc 1 375 11 view .LVU1519
	cmp	r0, #0
	bne	.L35
	.loc 1 378 8 is_stmt 1 view .LVU1520
.LVL60:
.LBB24:
.LBI24:
	.loc 2 86 189 view .LVU1521
.LBB25:
	.loc 2 86 238 view .LVU1522
	.loc 2 86 245 is_stmt 0 view .LVU1523
	movs	r2, #56
	movs	r1, #0
	mov	r0, r6
.LVL61:
	.loc 2 86 245 view .LVU1524
	bl	memset
.LVL62:
	.loc 2 86 245 view .LVU1525
	b	.L37
.LBE25:
.LBE24:
	.cfi_endproc
.LFE17:
	.size	mbedtls_sha1_finish, .-mbedtls_sha1_finish
	.section	.text.mbedtls_sha1,"ax",%progbits
	.align	1
	.global	mbedtls_sha1
	.syntax unified
	.thumb
	.thumb_func
	.fpu fpv4-sp-d16
	.type	mbedtls_sha1, %function
mbedtls_sha1:
.LVL63:
.LFB18:
	.loc 1 414 1 is_stmt 1 view -0
	.cfi_startproc
	@ args = 0, pretend = 0, frame = 96
	@ frame_needed = 0, uses_anonymous_args = 0
	.loc 1 414 1 is_stmt 0 view .LVU1527
	push	{r4, r5, r6, r7, lr}
	.cfi_def_cfa_offset 20
	.cfi_offset 4, -20
	.cfi_offset 5, -16
	.cfi_offset 6, -12
	.cfi_offset 7, -8
	.cfi_offset 14, -4
	sub	sp, sp, #100
	.cfi_def_cfa_offset 120
	mov	r4, r0
	mov	r5, r1
	mov	r6, r2
	.loc 1 415 5 is_stmt 1 view .LVU1528
.LVL64:
	.loc 1 416 5 view .LVU1529
	.loc 1 418 5 view .LVU1530
	.loc 1 418 10 view .LVU1531
	.loc 1 418 17 view .LVU1532
	.loc 1 419 5 view .LVU1533
	.loc 1 419 10 view .LVU1534
	.loc 1 419 17 view .LVU1535
	.loc 1 421 5 view .LVU1536
	add	r0, sp, #4
.LVL65:
	.loc 1 421 5 is_stmt 0 view .LVU1537
	bl	mbedtls_sha1_init
.LVL66:
	.loc 1 423 5 is_stmt 1 view .LVU1538
	.loc 1 423 17 is_stmt 0 view .LVU1539
	add	r0, sp, #4
	bl	mbedtls_sha1_starts
.LVL67:
	.loc 1 423 7 view .LVU1540
	mov	r7, r0
	cbz	r0, .L43
.L41:
	.loc 1 433 5 is_stmt 1 view .LVU1541
	add	r0, sp, #4
.LVL68:
	.loc 1 433 5 is_stmt 0 view .LVU1542
	bl	mbedtls_sha1_free
.LVL69:
	.loc 1 435 5 is_stmt 1 view .LVU1543
	.loc 1 436 1 is_stmt 0 view .LVU1544
	mov	r0, r7
	add	sp, sp, #100
	.cfi_remember_state
	.cfi_def_cfa_offset 20
	@ sp needed
	pop	{r4, r5, r6, r7, pc}
.LVL70:
.L43:
	.cfi_restore_state
	.loc 1 426 5 is_stmt 1 view .LVU1545
	.loc 1 426 17 is_stmt 0 view .LVU1546
	mov	r2, r5
	mov	r1, r4
	add	r0, sp, #4
.LVL71:
	.loc 1 426 17 view .LVU1547
	bl	mbedtls_sha1_update
.LVL72:
	.loc 1 426 7 view .LVU1548
	mov	r7, r0
	cmp	r0, #0
	bne	.L41
	.loc 1 429 5 is_stmt 1 view .LVU1549
	.loc 1 429 17 is_stmt 0 view .LVU1550
	mov	r1, r6
	add	r0, sp, #4
.LVL73:
	.loc 1 429 17 view .LVU1551
	bl	mbedtls_sha1_finish
.LVL74:
	mov	r7, r0
.LVL75:
	.loc 1 432 1 view .LVU1552
	b	.L41
	.cfi_endproc
.LFE18:
	.size	mbedtls_sha1, .-mbedtls_sha1
	.text
.Letext0:
	.file 3 "/home/sebin/LIOT/gcc-arm-none-eabi-9-2019-q4-major/arm-none-eabi/include/machine/_default_types.h"
	.file 4 "/home/sebin/LIOT/gcc-arm-none-eabi-9-2019-q4-major/lib/gcc/arm-none-eabi/9.2.1/include/stddef.h"
	.file 5 "/home/sebin/LIOT/gcc-arm-none-eabi-9-2019-q4-major/arm-none-eabi/include/sys/_stdint.h"
	.file 6 "/home/sebin/thesis/zephyrproject/modules/crypto/mbedtls/include/mbedtls/sha1.h"
	.file 7 "/home/sebin/LIOT/gcc-arm-none-eabi-9-2019-q4-major/arm-none-eabi/include/sys/lock.h"
	.file 8 "/home/sebin/LIOT/gcc-arm-none-eabi-9-2019-q4-major/arm-none-eabi/include/sys/_types.h"
	.file 9 "/home/sebin/LIOT/gcc-arm-none-eabi-9-2019-q4-major/arm-none-eabi/include/sys/reent.h"
	.file 10 "<built-in>"
	.file 11 "/home/sebin/thesis/zephyrproject/modules/crypto/mbedtls/include/mbedtls/platform_util.h"