	.cpu cortex-m4
	.eabi_attribute 27, 1
	.eabi_attribute 28, 1
	.eabi_attribute 20, 1
	.eabi_attribute 21, 1
	.eabi_attribute 23, 3
	.eabi_attribute 24, 1
	.eabi_attribute 25, 1
	.eabi_attribute 26, 1
	.eabi_attribute 30, 1
	.eabi_attribute 34, 1
	.eabi_attribute 38, 1
	.eabi_attribute 18, 4
	.file	"ssl_ciphersuites.c"
	.text
.Ltext0:
	.cfi_sections	.debug_frame
	.section	.text.ciphersuite_is_removed,"ax",%progbits
	.align	1
	.arch armv7e-m
	.syntax unified
	.thumb
	.thumb_func
	.fpu fpv4-sp-d16
	.type	ciphersuite_is_removed, %function
ciphersuite_is_removed:
.LVL0:
.LFB40:
	.file 1 "/home/sebin/thesis/zephyrproject/modules/crypto/mbedtls/library/ssl_ciphersuites.c"
	.loc 1 1917 1 view -0
	.cfi_startproc
	@ args = 0, pretend = 0, frame = 0
	@ frame_needed = 0, uses_anonymous_args = 0
	@ link register save eliminated.
	.loc 1 1918 5 view .LVU1
	.loc 1 1920 5 view .LVU2
	.loc 1 1921 1 is_stmt 0 view .LVU3
	movs	r0, #0
.LVL1:
	.loc 1 1921 1 view .LVU4
	bx	lr
	.cfi_endproc
.LFE40:
	.size	ciphersuite_is_removed, .-ciphersuite_is_removed
	.section	.text.mbedtls_ssl_ciphersuite_from_string,"ax",%progbits
	.align	1
	.global	mbedtls_ssl_ciphersuite_from_string
	.syntax unified
	.thumb
	.thumb_func
	.fpu fpv4-sp-d16
	.type	mbedtls_ssl_ciphersuite_from_string, %function
mbedtls_ssl_ciphersuite_from_string:
.LVL2:
.LFB42:
	.loc 1 1956 1 is_stmt 1 view -0
	.cfi_startproc
	@ args = 0, pretend = 0, frame = 0
	@ frame_needed = 0, uses_anonymous_args = 0
	.loc 1 1956 1 is_stmt 0 view .LVU6
	push	{r3, r4, r5, lr}
	.cfi_def_cfa_offset 16
	.cfi_offset 3, -16
	.cfi_offset 4, -12
	.cfi_offset 5, -8
	.cfi_offset 14, -4
	.loc 1 1957 5 is_stmt 1 view .LVU7
.LVL3:
	.loc 1 1959 5 view .LVU8
	.loc 1 1959 7 is_stmt 0 view .LVU9
	mov	r5, r0
	cbz	r0, .L6
	.loc 1 1957 38 view .LVU10
	ldr	r4, .L9
.LVL4:
.L4:
	.loc 1 1962 10 is_stmt 1 view .LVU11
	.loc 1 1962 15 is_stmt 0 view .LVU12
	ldr	r3, [r4]
	.loc 1 1962 10 view .LVU13
	cbz	r3, .L8
	.loc 1 1964 9 is_stmt 1 view .LVU14
	.loc 1 1964 18 is_stmt 0 view .LVU15
	mov	r1, r5
	ldr	r0, [r4, #4]
	bl	strcmp
.LVL5:
	.loc 1 1964 11 view .LVU16
	cbz	r0, .L2
	.loc 1 1967 9 is_stmt 1 view .LVU17
	.loc 1 1967 12 is_stmt 0 view .LVU18
	adds	r4, r4, #32
.LVL6:
	.loc 1 1967 12 view .LVU19
	b	.L4
.L8:
	.loc 1 1970 11 view .LVU20
	movs	r4, #0
.LVL7:
.L2:
	.loc 1 1971 1 view .LVU21
	mov	r0, r4
	pop	{r3, r4, r5, pc}
.LVL8:
.L6:
	.loc 1 1960 15 view .LVU22
	mov	r4, r0
	b	.L2
.L10:
	.align	2
.L9:
	.word	.LANCHOR0
	.cfi_endproc
.LFE42:
	.size	mbedtls_ssl_ciphersuite_from_string, .-mbedtls_ssl_ciphersuite_from_string
	.section	.text.mbedtls_ssl_ciphersuite_from_id,"ax",%progbits
	.align	1
	.global	mbedtls_ssl_ciphersuite_from_id
	.syntax unified
	.thumb
	.thumb_func
	.fpu fpv4-sp-d16
	.type	mbedtls_ssl_ciphersuite_from_id, %function
mbedtls_ssl_ciphersuite_from_id:
.LVL9:
.LFB43:
	.loc 1 1974 1 is_stmt 1 view -0
	.cfi_startproc
	@ args = 0, pretend = 0, frame = 0
	@ frame_needed = 0, uses_anonymous_args = 0
	@ link register save eliminated.
	.loc 1 1974 1 is_stmt 0 view .LVU24
	mov	r2, r0
	.loc 1 1975 5 is_stmt 1 view .LVU25
.LVL10:
	.loc 1 1977 5 view .LVU26
	.loc 1 1975 38 is_stmt 0 view .LVU27
	ldr	r0, .L16
.LVL11:
.L12:
	.loc 1 1977 10 is_stmt 1 view .LVU28
	.loc 1 1977 15 is_stmt 0 view .LVU29
	ldr	r3, [r0]
	.loc 1 1977 10 view .LVU30
	cbz	r3, .L15
	.loc 1 1979 9 is_stmt 1 view .LVU31
	.loc 1 1979 11 is_stmt 0 view .LVU32
	cmp	r3, r2
	beq	.L11
	.loc 1 1982 9 is_stmt 1 view .LVU33
	.loc 1 1982 12 is_stmt 0 view .LVU34
	adds	r0, r0, #32
.LVL12:
	.loc 1 1982 12 view .LVU35
	b	.L12
.L15:
	.loc 1 1985 11 view .LVU36
	movs	r0, #0
.LVL13:
.L11:
	.loc 1 1986 1 view .LVU37
	bx	lr
.L17:
	.align	2
.L16:
	.word	.LANCHOR0
	.cfi_endproc
.LFE43:
	.size	mbedtls_ssl_ciphersuite_from_id, .-mbedtls_ssl_ciphersuite_from_id
	.section	.text.mbedtls_ssl_list_ciphersuites,"ax",%progbits
	.align	1
	.global	mbedtls_ssl_list_ciphersuites
	.syntax unified
	.thumb
	.thumb_func
	.fpu fpv4-sp-d16
	.type	mbedtls_ssl_list_ciphersuites, %function
mbedtls_ssl_list_ciphersuites:
.LFB41:
	.loc 1 1924 1 is_stmt 1 view -0
	.cfi_startproc
	@ args = 0, pretend = 0, frame = 0
	@ frame_needed = 0, uses_anonymous_args = 0
	.loc 1 1929 5 view .LVU39
	.loc 1 1929 24 is_stmt 0 view .LVU40
	ldr	r3, .L28
	ldr	r3, [r3]
	.loc 1 1929 7 view .LVU41
	cbz	r3, .L24
	.loc 1 1950 5 is_stmt 1 view .LVU42
	.loc 1 1951 1 is_stmt 0 view .LVU43
	ldr	r0, .L28+4
	bx	lr
.LVL14:
.L21:
	.cfi_def_cfa_offset 16
	.cfi_offset 4, -16
	.cfi_offset 5, -12
	.cfi_offset 6, -8
	.cfi_offset 14, -4
.LBB2:
	.loc 1 1936 14 is_stmt 1 view .LVU44
	.loc 1 1936 15 is_stmt 0 view .LVU45
	adds	r6, r6, #4
.LVL15:
.L19:
	.loc 1 1935 14 is_stmt 1 discriminator 1 view .LVU46
	ldr	r4, [r6]
	.loc 1 1934 9 is_stmt 0 discriminator 1 view .LVU47
	cbz	r4, .L22
	.loc 1 1935 22 view .LVU48
	ldr	r3, .L28+8
	cmp	r5, r3
	bcs	.L22
.LBB3:
	.loc 1 1938 13 is_stmt 1 view .LVU49
	.loc 1 1939 13 view .LVU50
	.loc 1 1939 29 is_stmt 0 view .LVU51
	mov	r0, r4
	bl	mbedtls_ssl_ciphersuite_from_id
.LVL16:
	.loc 1 1939 15 view .LVU52
	cmp	r0, #0
	beq	.L21
	.loc 1 1940 18 discriminator 1 view .LVU53
	bl	ciphersuite_is_removed
.LVL17:
	.loc 1 1939 76 discriminator 1 view .LVU54
	cmp	r0, #0
	bne	.L21
	.loc 1 1942 17 is_stmt 1 view .LVU55
.LVL18:
	.loc 1 1942 24 is_stmt 0 view .LVU56
	str	r4, [r5], #4
.LVL19:
	.loc 1 1942 24 view .LVU57
	b	.L21
.LVL20:
.L24:
	.cfi_def_cfa_offset 0
	.cfi_restore 4
	.cfi_restore 5
	.cfi_restore 6
	.cfi_restore 14
	.loc 1 1942 24 view .LVU58
.LBE3:
.LBE2:
	.loc 1 1924 1 view .LVU59
	push	{r4, r5, r6, lr}
	.cfi_def_cfa_offset 16
	.cfi_offset 4, -16
	.cfi_offset 5, -12
	.cfi_offset 6, -8
	.cfi_offset 14, -4
.LBB4:
	.loc 1 1934 44 view .LVU60
	ldr	r5, .L28+4
	.loc 1 1934 16 view .LVU61
	ldr	r6, .L28+12
	b	.L19
.LVL21:
.L22:
	.loc 1 1945 9 is_stmt 1 view .LVU62
	.loc 1 1945 12 is_stmt 0 view .LVU63
	movs	r3, #0
	str	r3, [r5]
	.loc 1 1947 9 is_stmt 1 view .LVU64
	.loc 1 1947 24 is_stmt 0 view .LVU65
	ldr	r3, .L28
	movs	r2, #1
	str	r2, [r3]
.LBE4:
	.loc 1 1950 5 is_stmt 1 view .LVU66
	.loc 1 1951 1 is_stmt 0 view .LVU67
	ldr	r0, .L28+4
	pop	{r4, r5, r6, pc}
.LVL22:
.L29:
	.loc 1 1951 1 view .LVU68
	.align	2
.L28:
	.word	.LANCHOR3
	.word	.LANCHOR1
	.word	.LANCHOR1+16
	.word	.LANCHOR2
	.cfi_endproc
.LFE41:
	.size	mbedtls_ssl_list_ciphersuites, .-mbedtls_ssl_list_ciphersuites
	.section	.rodata.mbedtls_ssl_get_ciphersuite_name.str1.4,"aMS",%progbits,1
	.align	2
.LC0:
	.ascii	"unknown\000"
	.section	.text.mbedtls_ssl_get_ciphersuite_name,"ax",%progbits
	.align	1
	.global	mbedtls_ssl_get_ciphersuite_name
	.syntax unified
	.thumb
	.thumb_func
	.fpu fpv4-sp-d16
	.type	mbedtls_ssl_get_ciphersuite_name, %function
mbedtls_ssl_get_ciphersuite_name:
.LVL23:
.LFB44:
	.loc 1 1989 1 is_stmt 1 view -0
	.cfi_startproc
	@ args = 0, pretend = 0, frame = 0
	@ frame_needed = 0, uses_anonymous_args = 0
	.loc 1 1989 1 is_stmt 0 view .LVU70
	push	{r3, lr}
	.cfi_def_cfa_offset 8
	.cfi_offset 3, -8
	.cfi_offset 14, -4
	.loc 1 1990 5 is_stmt 1 view .LVU71
	.loc 1 1992 5 view .LVU72
	.loc 1 1992 11 is_stmt 0 view .LVU73
	bl	mbedtls_ssl_ciphersuite_from_id
.LVL24:
	.loc 1 1994 5 is_stmt 1 view .LVU74
	.loc 1 1994 7 is_stmt 0 view .LVU75
	cbz	r0, .L32
	.loc 1 1997 5 is_stmt 1 view .LVU76
	.loc 1 1997 16 is_stmt 0 view .LVU77
	ldr	r0, [r0, #4]
.LVL25:
.L30:
	.loc 1 1998 1 view .LVU78
	pop	{r3, pc}
.LVL26:
.L32:
	.loc 1 1995 15 view .LVU79
	ldr	r0, .L34
.LVL27:
	.loc 1 1995 15 view .LVU80
	b	.L30
.L35:
	.align	2
.L34:
	.word	.LC0
	.cfi_endproc
.LFE44:
	.size	mbedtls_ssl_get_ciphersuite_name, .-mbedtls_ssl_get_ciphersuite_name
	.section	.text.mbedtls_ssl_get_ciphersuite_id,"ax",%progbits
	.align	1
	.global	mbedtls_ssl_get_ciphersuite_id
	.syntax unified
	.thumb
	.thumb_func
	.fpu fpv4-sp-d16
	.type	mbedtls_ssl_get_ciphersuite_id, %function
mbedtls_ssl_get_ciphersuite_id:
.LVL28:
.LFB45:
	.loc 1 2001 1 is_stmt 1 view -0
	.cfi_startproc
	@ args = 0, pretend = 0, frame = 0
	@ frame_needed = 0, uses_anonymous_args = 0
	.loc 1 2001 1 is_stmt 0 view .LVU82
	push	{r3, lr}
	.cfi_def_cfa_offset 8
	.cfi_offset 3, -8
	.cfi_offset 14, -4
	.loc 1 2002 5 is_stmt 1 view .LVU83
	.loc 1 2004 5 view .LVU84
	.loc 1 2004 11 is_stmt 0 view .LVU85
	bl	mbedtls_ssl_ciphersuite_from_string
.LVL29:
	.loc 1 2006 5 is_stmt 1 view .LVU86
	.loc 1 2006 7 is_stmt 0 view .LVU87
	cbz	r0, .L38
	.loc 1 2009 5 is_stmt 1 view .LVU88
	.loc 1 2009 16 is_stmt 0 view .LVU89
	ldr	r0, [r0]
.LVL30:
.L36:
	.loc 1 2010 1 view .LVU90
	pop	{r3, pc}
.LVL31:
.L38:
	.loc 1 2007 15 view .LVU91
	movs	r0, #0
.LVL32:
	.loc 1 2007 15 view .LVU92
	b	.L36
	.cfi_endproc
.LFE45:
	.size	mbedtls_ssl_get_ciphersuite_id, .-mbedtls_ssl_get_ciphersuite_id
	.section	.text.mbedtls_ssl_get_ciphersuite_sig_pk_alg,"ax",%progbits
	.align	1
	.global	mbedtls_ssl_get_ciphersuite_sig_pk_alg
	.syntax unified
	.thumb
	.thumb_func
	.fpu fpv4-sp-d16
	.type	mbedtls_ssl_get_ciphersuite_sig_pk_alg, %function
mbedtls_ssl_get_ciphersuite_sig_pk_alg:
.LVL33:
.LFB46:
	.loc 1 2014 1 is_stmt 1 view -0
	.cfi_startproc
	@ args = 0, pretend = 0, frame = 0
	@ frame_needed = 0, uses_anonymous_args = 0
	@ link register save eliminated.
	.loc 1 2015 5 view .LVU94
	.loc 1 2015 17 is_stmt 0 view .LVU95
	ldrb	r0, [r0, #10]	@ zero_extendqisi2
.LVL34:
	.loc 1 2015 17 view .LVU96
	subs	r3, r0, #1
	cmp	r3, #9
	bhi	.L41
	tbb	[pc, r3]
.L43:
	.byte	(.L44-.L43)/2
	.byte	(.L44-.L43)/2
	.byte	(.L44-.L43)/2
	.byte	(.L45-.L43)/2
	.byte	(.L41-.L43)/2
	.byte	(.L41-.L43)/2
	.byte	(.L44-.L43)/2
	.byte	(.L41-.L43)/2
	.byte	(.L42-.L43)/2
	.byte	(.L42-.L43)/2
	.p2align 1
.L44:
	movs	r0, #1
	bx	lr
.L42:
	.loc 1 2028 13 is_stmt 1 view .LVU97
	.loc 1 2028 19 is_stmt 0 view .LVU98
	movs	r0, #2
	bx	lr
.L41:
	.loc 1 2031 13 is_stmt 1 view .LVU99
	.loc 1 2031 19 is_stmt 0 view .LVU100
	movs	r0, #0
.L45:
	.loc 1 2033 1 view .LVU101
	bx	lr
	.cfi_endproc
.LFE46:
	.size	mbedtls_ssl_get_ciphersuite_sig_pk_alg, .-mbedtls_ssl_get_ciphersuite_sig_pk_alg
	.section	.text.mbedtls_ssl_get_ciphersuite_sig_alg,"ax",%progbits
	.align	1
	.global	mbedtls_ssl_get_ciphersuite_sig_alg
	.syntax unified
	.thumb
	.thumb_func
	.fpu fpv4-sp-d16
	.type	mbedtls_ssl_get_ciphersuite_sig_alg, %function
mbedtls_ssl_get_ciphersuite_sig_alg:
.LVL35:
.LFB47:
	.loc 1 2036 1 is_stmt 1 view -0
	.cfi_startproc
	@ args = 0, pretend = 0, frame = 0
	@ frame_needed = 0, uses_anonymous_args = 0
	@ link register save eliminated.
	.loc 1 2037 5 view .LVU103
	.loc 1 2037 17 is_stmt 0 view .LVU104
	ldrb	r0, [r0, #10]	@ zero_extendqisi2
.LVL36:
	.loc 1 2037 5 view .LVU105
	cmp	r0, #3
	bls	.L51
	cmp	r0, #4
	bne	.L52
.L48:
	.loc 1 2050 1 view .LVU106
	bx	lr
.L51:
	.loc 1 2037 5 view .LVU107
	sxtb	r0, r0
	cbnz	r0, .L53
	.loc 1 2048 19 view .LVU108
	movs	r0, #0
	bx	lr
.L53:
	.loc 1 2037 5 view .LVU109
	movs	r0, #1
	bx	lr
.L52:
	.loc 1 2048 19 view .LVU110
	movs	r0, #0
	b	.L48
	.cfi_endproc
.LFE47:
	.size	mbedtls_ssl_get_ciphersuite_sig_alg, .-mbedtls_ssl_get_ciphersuite_sig_alg
	.section	.rodata.str1.4,"aMS",%progbits,1
	.align	2
.LC1:
	.ascii	"TLS-RSA-WITH-AES-128-CBC-SHA256\000"
	.align	2
.LC2:
	.ascii	"TLS-RSA-WITH-AES-256-CBC-SHA256\000"
	.align	2
.LC3:
	.ascii	"TLS-RSA-WITH-AES-128-CBC-SHA\000"
	.align	2
.LC4:
	.ascii	"TLS-RSA-WITH-AES-256-CBC-SHA\000"
	.align	2
.LC5:
	.ascii	"\000"
	.section	.bss.supported_ciphersuites,"aw",%nobits
	.align	2
	.set	.LANCHOR1,. + 0
	.type	supported_ciphersuites, %object
	.size	supported_ciphersuites, 20
supported_ciphersuites:
	.space	20
	.section	.bss.supported_init,"aw",%nobits
	.align	2
	.set	.LANCHOR3,. + 0
	.type	supported_init, %object
	.size	supported_init, 4
supported_init:
	.space	4
	.section	.rodata.ciphersuite_definitions,"a"
	.align	2
	.set	.LANCHOR0,. + 0
	.type	ciphersuite_definitions, %object
	.size	ciphersuite_definitions, 160
ciphersuite_definitions:
	.word	60
	.word	.LC1
	.byte	5
	.byte	4
	.byte	1
	.space	1
	.word	3
	.word	3
	.word	3
	.word	3
	.byte	0
	.space	3
	.word	61
	.word	.LC2
	.byte	7
	.byte	4
	.byte	1
	.space	1
	.word	3
	.word	3
	.word	3
	.word	3
	.byte	0
	.space	3
	.word	47
	.word	.LC3
	.byte	5
	.byte	2
	.byte	1
	.space	1
	.word	3
	.word	1
	.word	3
	.word	3
	.byte	0
	.space	3
	.word	53
	.word	.LC4
	.byte	7
	.byte	2
	.byte	1
	.space	1
	.word	3
	.word	1
	.word	3
	.word	3
	.byte	0
	.space	3
	.word	0
	.word	.LC5
	.byte	0
	.byte	0
	.byte	0
	.space	1
	.word	0
	.word	0
	.word	0
	.word	0
	.byte	0
	.space	3
	.section	.rodata.ciphersuite_preference,"a"
	.align	2
	.set	.LANCHOR2,. + 0
	.type	ciphersuite_preference, %object
	.size	ciphersuite_preference, 744
ciphersuite_preference:
	.word	52392
	.word	52393
	.word	52394
	.word	49196
	.word	49200
	.word	159
	.word	49325
	.word	49311
	.word	49188
	.word	49192
	.word	107
	.word	49162
	.word	49172
	.word	57
	.word	49327
	.word	49315
	.word	49287
	.word	49291
	.word	49277
	.word	49267
	.word	49271
	.word	196
	.word	136
	.word	49245
	.word	49249
	.word	49235
	.word	49225
	.word	49229
	.word	49221
	.word	49195
	.word	49199
	.word	158
	.word	49324
	.word	49310
	.word	49187
	.word	49191
	.word	103
	.word	49161
	.word	49171
	.word	51
	.word	49326
	.word	49314
	.word	49286
	.word	49290
	.word	49276
	.word	49266
	.word	49270
	.word	190
	.word	69
	.word	49244
	.word	49248
	.word	49234
	.word	49224
	.word	49228
	.word	49220
	.word	52396
	.word	52397
	.word	171
	.word	49319
	.word	49208
	.word	179
	.word	49206
	.word	145
	.word	49297
	.word	49307
	.word	49303
	.word	49323
	.word	49261
	.word	49265
	.word	49255
	.word	170
	.word	49318
	.word	49207
	.word	178
	.word	49205
	.word	144
	.word	49296
	.word	49302
	.word	49306
	.word	49322
	.word	49260
	.word	49264
	.word	49254
	.word	49407
	.word	157
	.word	49309
	.word	61
	.word	53
	.word	49202
	.word	49194
	.word	49167
	.word	49198
	.word	49190
	.word	49157
	.word	49313
	.word	49275
	.word	192
	.word	132
	.word	49293
	.word	49273
	.word	49289
	.word	49269
	.word	49247
	.word	49251
	.word	49233
	.word	49227
	.word	49231
	.word	49213
	.word	156
	.word	49308
	.word	60
	.word	47
	.word	49201
	.word	49193
	.word	49166
	.word	49197
	.word	49189
	.word	49156
	.word	49312
	.word	49274
	.word	186
	.word	65
	.word	49292
	.word	49272
	.word	49288
	.word	49268
	.word	49246
	.word	49250
	.word	49232
	.word	49226
	.word	49230
	.word	49212
	.word	52398
	.word	173
	.word	183
	.word	149
	.word	49299
	.word	49305
	.word	49263
	.word	49257
	.word	172
	.word	182
	.word	148
	.word	49298
	.word	49304
	.word	49262
	.word	49256
	.word	52395
	.word	169
	.word	49317
	.word	175
	.word	141
	.word	49295
	.word	49301
	.word	49321
	.word	49259
	.word	49253
	.word	168
	.word	49316
	.word	174
	.word	140
	.word	49294
	.word	49300
	.word	49320
	.word	49258
	.word	49252
	.word	49158
	.word	49168
	.word	49211
	.word	49210
	.word	49209
	.word	181
	.word	180
	.word	45
	.word	59
	.word	2
	.word	1
	.word	49163
	.word	49153
	.word	185
	.word	184
	.word	46
	.word	177
	.word	176
	.word	44
	.word	0
	.text
.Letext0:
	.file 2 "/home/sebin/LIOT/gcc-arm-none-eabi-9-2019-q4-major/arm-none-eabi/include/machine/_default_types.h"
	.file 3 "/home/sebin/LIOT/gcc-arm-none-eabi-9-2019-q4-major/arm-none-eabi/include/sys/lock.h"
	.file 4 "/home/sebin/LIOT/gcc-arm-none-eabi-9-2019-q4-major/arm-none-eabi/include/sys/_types.h"
	.file 5 "/home/sebin/LIOT/gcc-arm-none-eabi-9-2019-q4-major/lib/gcc/arm-none-eabi/9.2.1/include/stddef.h"
	.file 6 "/home/sebin/LIOT/gcc-arm-none-eabi-9-2019-q4-major/arm-none-eabi/include/sys/reent.h"
	.file 7 "/home/sebin/LIOT/gcc-arm-none-eabi-9-2019-q4-major/arm-none-eabi/include/sys/_stdint.h"
	.file 8 "/home/sebin/thesis/zephyrproject/modules/crypto/mbedtls/include/mbedtls/platform.h"
	.file 9 "/home/sebin/thesis/zephyrproject/modules/crypto/mbedtls/include/mbedtls/md.h"
	.file 10 "/home/sebin/thesis/zephyrproject/modules/crypto/mbedtls/include/mbedtls/pk.h"
	.file 11 "/home/sebin/thesis/zephyrproject/modules/crypto/mbedtls/include/mbedtls/cipher.h"
	.file 12 "/home/sebin/thesis/zephyrproject/modules/crypto/mbedtls/include/mbedtls/ssl_ciphersuites.h"
	.file 13 "/home/sebin/thesis/zephyrproject/modules/crypto/mbedtls/include/mbedtls/x509_crt.h"
	.file 14 "/home/sebin/LIOT/gcc-arm-none-eabi-9-2019-q4-major/arm-none-eabi/include/string.h"