	.cpu cortex-m4
	.eabi_attribute 27, 1
	.eabi_attribute 28, 1
	.eabi_attribute 20, 1
	.eabi_attribute 21, 1
	.eabi_attribute 23, 3
	.eabi_attribute 24, 1
	.eabi_attribute 25, 1
	.eabi_attribute 26, 1
	.eabi_attribute 30, 1
	.eabi_attribute 34, 1
	.eabi_attribute 38, 1
	.eabi_attribute 18, 4
	.file	"x509_crt.c"
	.text
.Ltext0:
	.cfi_sections	.debug_frame
	.section	.text.x509_profile_check_md_alg,"ax",%progbits
	.align	1
	.arch armv7e-m
	.syntax unified
	.thumb
	.thumb_func
	.fpu fpv4-sp-d16
	.type	x509_profile_check_md_alg, %function
x509_profile_check_md_alg:
.LVL0:
.LFB28:
	.file 1 "/home/sebin/thesis/zephyrproject/modules/crypto/mbedtls/library/x509_crt.c"
	.loc 1 186 1 view -0
	.cfi_startproc
	@ args = 0, pretend = 0, frame = 0
	@ frame_needed = 0, uses_anonymous_args = 0
	@ link register save eliminated.
	.loc 1 187 5 view .LVU1
	.loc 1 187 7 is_stmt 0 view .LVU2
	mov	r3, r1
	cbz	r1, .L3
	.loc 1 190 5 is_stmt 1 view .LVU3
	.loc 1 190 18 is_stmt 0 view .LVU4
	ldr	r1, [r0]
.LVL1:
	.loc 1 190 52 view .LVU5
	subs	r3, r3, #1
	.loc 1 190 38 view .LVU6
	movs	r2, #1
	lsl	r3, r2, r3
	.loc 1 190 7 view .LVU7
	tst	r1, r3
	beq	.L5
	.loc 1 191 15 view .LVU8
	movs	r0, #0
.LVL2:
	.loc 1 194 1 view .LVU9
	bx	lr
.LVL3:
.L5:
	.loc 1 193 11 view .LVU10
	mov	r0, #-1
.LVL4:
	.loc 1 193 11 view .LVU11
	bx	lr
.LVL5:
.L3:
	.loc 1 188 15 view .LVU12
	mov	r0, #-1
.LVL6:
	.loc 1 188 15 view .LVU13
	bx	lr
	.cfi_endproc
.LFE28:
	.size	x509_profile_check_md_alg, .-x509_profile_check_md_alg
	.section	.text.x509_profile_check_pk_alg,"ax",%progbits
	.align	1
	.syntax unified
	.thumb
	.thumb_func
	.fpu fpv4-sp-d16
	.type	x509_profile_check_pk_alg, %function
x509_profile_check_pk_alg:
.LVL7:
.LFB29:
	.loc 1 202 1 is_stmt 1 view -0
	.cfi_startproc
	@ args = 0, pretend = 0, frame = 0
	@ frame_needed = 0, uses_anonymous_args = 0
	@ link register save eliminated.
	.loc 1 203 5 view .LVU15
	.loc 1 203 7 is_stmt 0 view .LVU16
	mov	r3, r1
	cbz	r1, .L8
	.loc 1 206 5 is_stmt 1 view .LVU17
	.loc 1 206 18 is_stmt 0 view .LVU18
	ldr	r1, [r0, #4]
.LVL8:
	.loc 1 206 52 view .LVU19
	subs	r3, r3, #1
	.loc 1 206 38 view .LVU20
	movs	r2, #1
	lsl	r3, r2, r3
	.loc 1 206 7 view .LVU21
	tst	r1, r3
	beq	.L10
	.loc 1 207 15 view .LVU22
	movs	r0, #0
.LVL9:
	.loc 1 210 1 view .LVU23
	bx	lr
.LVL10:
.L10:
	.loc 1 209 11 view .LVU24
	mov	r0, #-1
.LVL11:
	.loc 1 209 11 view .LVU25
	bx	lr
.LVL12:
.L8:
	.loc 1 204 15 view .LVU26
	mov	r0, #-1
.LVL13:
	.loc 1 204 15 view .LVU27
	bx	lr
	.cfi_endproc
.LFE29:
	.size	x509_profile_check_pk_alg, .-x509_profile_check_pk_alg
	.section	.text.x509_memcasecmp,"ax",%progbits
	.align	1
	.syntax unified
	.thumb
	.thumb_func
	.fpu fpv4-sp-d16
	.type	x509_memcasecmp, %function
x509_memcasecmp:
.LVL14:
.LFB31:
	.loc 1 255 1 is_stmt 1 view -0
	.cfi_startproc
	@ args = 0, pretend = 0, frame = 0
	@ frame_needed = 0, uses_anonymous_args = 0
	@ link register save eliminated.
	.loc 1 255 1 is_stmt 0 view .LVU29
	push	{r4, r5, r6}
	.cfi_def_cfa_offset 12
	.cfi_offset 4, -12
	.cfi_offset 5, -8
	.cfi_offset 6, -4
	.loc 1 256 5 is_stmt 1 view .LVU30
	.loc 1 257 5 view .LVU31
	.loc 1 258 5 view .LVU32
.LVL15:
	.loc 1 260 5 view .LVU33
	.loc 1 260 12 is_stmt 0 view .LVU34
	movs	r4, #0
	.loc 1 260 5 view .LVU35
	b	.L12
.LVL16:
.L13:
	.loc 1 260 26 is_stmt 1 discriminator 2 view .LVU36
	.loc 1 260 27 is_stmt 0 discriminator 2 view .LVU37
	adds	r4, r4, #1
.LVL17:
.L12:
	.loc 1 260 17 is_stmt 1 discriminator 1 view .LVU38
	.loc 1 260 5 is_stmt 0 discriminator 1 view .LVU39
	cmp	r4, r2
	bcs	.L19
	.loc 1 262 9 is_stmt 1 view .LVU40
	.loc 1 262 18 is_stmt 0 view .LVU41
	ldrb	r3, [r0, r4]	@ zero_extendqisi2
	.loc 1 262 26 view .LVU42
	ldrb	r5, [r1, r4]	@ zero_extendqisi2
	.loc 1 262 14 view .LVU43
	eor	r6, r3, r5
.LVL18:
	.loc 1 264 9 is_stmt 1 view .LVU44
	.loc 1 264 11 is_stmt 0 view .LVU45
	cmp	r3, r5
	beq	.L13
	.loc 1 267 9 is_stmt 1 view .LVU46
	.loc 1 267 11 is_stmt 0 view .LVU47
	cmp	r6, #32
	bne	.L16
	.loc 1 268 30 discriminator 1 view .LVU48
	sub	r5, r3, #97
	uxtb	r5, r5
	.loc 1 267 24 discriminator 1 view .LVU49
	cmp	r5, #25
	bls	.L13
	.loc 1 269 30 view .LVU50
	subs	r3, r3, #65
	uxtb	r3, r3
	.loc 1 268 48 view .LVU51
	cmp	r3, #25
	bls	.L13
	.loc 1 274 15 view .LVU52
	mov	r0, #-1
.LVL19:
	.loc 1 274 15 view .LVU53
	b	.L11
.LVL20:
.L19:
	.loc 1 277 11 view .LVU54
	movs	r0, #0
.LVL21:
.L11:
	.loc 1 278 1 view .LVU55
	pop	{r4, r5, r6}
	.cfi_remember_state
	.cfi_restore 6
	.cfi_restore 5
	.cfi_restore 4
	.cfi_def_cfa_offset 0
.LVL22:
	.loc 1 278 1 view .LVU56
	bx	lr
.LVL23:
.L16:
	.cfi_restore_state
	.loc 1 274 15 view .LVU57
	mov	r0, #-1
.LVL24:
	.loc 1 274 15 view .LVU58
	b	.L11
	.cfi_endproc
.LFE31:
	.size	x509_memcasecmp, .-x509_memcasecmp
	.section	.text.x509_crt_verify_chain_reset,"ax",%progbits
	.align	1
	.syntax unified
	.thumb
	.thumb_func
	.fpu fpv4-sp-d16
	.type	x509_crt_verify_chain_reset, %function
x509_crt_verify_chain_reset:
.LVL25:
.LFB35:
	.loc 1 386 1 is_stmt 1 view -0
	.cfi_startproc
	@ args = 0, pretend = 0, frame = 0
	@ frame_needed = 0, uses_anonymous_args = 0
	@ link register save eliminated.
	.loc 1 387 5 view .LVU60
	.loc 1 389 5 view .LVU61
	.loc 1 389 12 is_stmt 0 view .LVU62
	movs	r3, #0
.LVL26:
.L21:
	.loc 1 389 17 is_stmt 1 discriminator 1 view .LVU63
	.loc 1 389 5 is_stmt 0 discriminator 1 view .LVU64
	cmp	r3, #9
	bhi	.L23
	.loc 1 391 9 is_stmt 1 discriminator 3 view .LVU65
	.loc 1 391 33 is_stmt 0 discriminator 3 view .LVU66
	movs	r2, #0
	str	r2, [r0, r3, lsl #3]
	.loc 1 392 9 is_stmt 1 discriminator 3 view .LVU67
	.loc 1 392 35 is_stmt 0 discriminator 3 view .LVU68
	add	r2, r0, r3, lsl #3
	mov	r1, #-1
	str	r1, [r2, #4]
	.loc 1 389 32 is_stmt 1 discriminator 3 view .LVU69
	.loc 1 389 33 is_stmt 0 discriminator 3 view .LVU70
	adds	r3, r3, #1
.LVL27:
	.loc 1 389 33 discriminator 3 view .LVU71
	b	.L21
.L23:
	.loc 1 395 5 is_stmt 1 view .LVU72
	.loc 1 395 20 is_stmt 0 view .LVU73
	movs	r3, #0
.LVL28:
	.loc 1 395 20 view .LVU74
	str	r3, [r0, #80]
	.loc 1 400 1 view .LVU75
	bx	lr
	.cfi_endproc
.LFE35:
	.size	x509_crt_verify_chain_reset, .-x509_crt_verify_chain_reset
	.section	.text.x509_crt_merge_flags_with_cb,"ax",%progbits
	.align	1
	.syntax unified
	.thumb
	.thumb_func
	.fpu fpv4-sp-d16
	.type	x509_crt_merge_flags_with_cb, %function
x509_crt_merge_flags_with_cb:
.LVL29:
.LFB72:
	.loc 1 3064 1 is_stmt 1 view -0
	.cfi_startproc
	@ args = 0, pretend = 0, frame = 8
	@ frame_needed = 0, uses_anonymous_args = 0
	.loc 1 3064 1 is_stmt 0 view .LVU77
	push	{r4, r5, r6, r7, r8, r9, lr}
	.cfi_def_cfa_offset 28
	.cfi_offset 4, -28
	.cfi_offset 5, -24
	.cfi_offset 6, -20
	.cfi_offset 7, -16
	.cfi_offset 8, -12
	.cfi_offset 9, -8
	.cfi_offset 14, -4
	sub	sp, sp, #12
	.cfi_def_cfa_offset 40
	mov	r6, r0
	mov	r7, r1
	mov	r8, r2
	mov	r9, r3
	.loc 1 3065 5 is_stmt 1 view .LVU78
.LVL30:
	.loc 1 3066 5 view .LVU79
	.loc 1 3067 5 view .LVU80
	.loc 1 3068 5 view .LVU81
	.loc 1 3070 5 view .LVU82
	.loc 1 3070 12 is_stmt 0 view .LVU83
	ldr	r2, [r1, #80]
.LVL31:
	.loc 1 3070 5 view .LVU84
	b	.L25
.LVL32:
.L26:
	.loc 1 3079 9 is_stmt 1 discriminator 2 view .LVU85
	.loc 1 3079 16 is_stmt 0 discriminator 2 view .LVU86
	ldr	r4, [r6]
	ldr	r3, [sp, #4]
	orrs	r4, r4, r3
	str	r4, [r6]
	.loc 1 3070 38 is_stmt 1 discriminator 2 view .LVU87
.LVL33:
	.loc 1 3070 38 is_stmt 0 discriminator 2 view .LVU88
	mov	r2, r5
.LVL34:
.L25:
	.loc 1 3070 30 is_stmt 1 discriminator 1 view .LVU89
	.loc 1 3070 5 is_stmt 0 discriminator 1 view .LVU90
	cbz	r2, .L30
	.loc 1 3072 9 is_stmt 1 view .LVU91
	.loc 1 3072 34 is_stmt 0 view .LVU92
	subs	r5, r2, #1
.LVL35:
	.loc 1 3073 9 is_stmt 1 view .LVU93
	.loc 1 3073 24 is_stmt 0 view .LVU94
	add	r3, r7, r5, lsl #3
.LVL36:
	.loc 1 3073 24 view .LVU95
	ldr	r3, [r3, #4]
.LVL37:
	.loc 1 3073 19 view .LVU96
	str	r3, [sp, #4]
	.loc 1 3075 9 is_stmt 1 view .LVU97
	.loc 1 3075 11 is_stmt 0 view .LVU98
	cmp	r8, #0
	beq	.L26
	.loc 1 3076 13 is_stmt 1 view .LVU99
	.loc 1 3076 25 is_stmt 0 view .LVU100
	add	r3, sp, #4
	mov	r2, r5
.LVL38:
	.loc 1 3076 25 view .LVU101
	ldr	r1, [r7, r5, lsl #3]
	mov	r0, r9
	blx	r8
.LVL39:
	.loc 1 3076 15 view .LVU102
	mov	r3, r0
	cmp	r0, #0
	beq	.L26
	b	.L24
.LVL40:
.L30:
	.loc 1 3082 11 view .LVU103
	movs	r3, #0
.LVL41:
.L24:
	.loc 1 3083 1 view .LVU104
	mov	r0, r3
	add	sp, sp, #12
	.cfi_def_cfa_offset 28
	@ sp needed
	pop	{r4, r5, r6, r7, r8, r9, pc}
	.loc 1 3083 1 view .LVU105
	.cfi_endproc
.LFE72:
	.size	x509_crt_merge_flags_with_cb, .-x509_crt_merge_flags_with_cb
	.section	.text.x509_get_uid,"ax",%progbits
	.align	1
	.syntax unified
	.thumb
	.thumb_func
	.fpu fpv4-sp-d16
	.type	x509_get_uid, %function
x509_get_uid:
.LVL42:
.LFB38:
	.loc 1 474 1 is_stmt 1 view -0
	.cfi_startproc
	@ args = 0, pretend = 0, frame = 0
	@ frame_needed = 0, uses_anonymous_args = 0
	.loc 1 474 1 is_stmt 0 view .LVU107
	push	{r3, r4, r5, lr}
	.cfi_def_cfa_offset 16
	.cfi_offset 3, -16
	.cfi_offset 4, -12
	.cfi_offset 5, -8
	.cfi_offset 14, -4
	mov	r5, r2
	.loc 1 475 5 is_stmt 1 view .LVU108
.LVL43:
	.loc 1 477 5 view .LVU109
	.loc 1 477 9 is_stmt 0 view .LVU110
	ldr	r2, [r0]
.LVL44:
	.loc 1 477 7 view .LVU111
	cmp	r2, r1
	beq	.L34
	mov	r4, r0
	.loc 1 480 5 is_stmt 1 view .LVU112
	.loc 1 480 16 is_stmt 0 view .LVU113
	ldrb	r0, [r2]	@ zero_extendqisi2
.LVL45:
	.loc 1 480 14 view .LVU114
	mov	r2, r5
	str	r0, [r2], #4
	.loc 1 482 5 is_stmt 1 view .LVU115
	.loc 1 482 17 is_stmt 0 view .LVU116
	orr	r3, r3, #160
.LVL46:
	.loc 1 482 17 view .LVU117
	mov	r0, r4
	bl	mbedtls_asn1_get_tag
.LVL47:
	.loc 1 482 7 view .LVU118
	cbz	r0, .L33
	.loc 1 485 9 is_stmt 1 view .LVU119
	.loc 1 485 11 is_stmt 0 view .LVU120
	cmn	r0, #98
	beq	.L35
	.loc 1 488 9 is_stmt 1 view .LVU121
.LVL48:
.LBB130:
.LBI130:
	.file 2 "/home/sebin/thesis/zephyrproject/modules/crypto/mbedtls/include/mbedtls/error.h"
	.loc 2 152 19 view .LVU122
.LBB131:
	.loc 2 159 5 view .LVU123
	.loc 2 160 5 view .LVU124
	.loc 2 162 5 view .LVU125
	.loc 2 162 18 is_stmt 0 view .LVU126
	sub	r0, r0, #8576
.LVL49:
	.loc 2 162 18 view .LVU127
.LBE131:
.LBE130:
	.loc 1 488 17 view .LVU128
	b	.L31
.LVL50:
.L33:
	.loc 1 491 5 is_stmt 1 view .LVU129
	.loc 1 491 14 is_stmt 0 view .LVU130
	ldr	r3, [r4]
	.loc 1 491 12 view .LVU131
	str	r3, [r5, #8]
	.loc 1 492 5 is_stmt 1 view .LVU132
	.loc 1 492 14 is_stmt 0 view .LVU133
	ldr	r2, [r5, #4]
	.loc 1 492 8 view .LVU134
	add	r3, r3, r2
	str	r3, [r4]
	.loc 1 494 5 is_stmt 1 view .LVU135
.LVL51:
.L31:
	.loc 1 495 1 is_stmt 0 view .LVU136
	pop	{r3, r4, r5, pc}
.LVL52:
.L34:
	.loc 1 478 15 view .LVU137
	movs	r0, #0
.LVL53:
	.loc 1 478 15 view .LVU138
	b	.L31
.LVL54:
.L35:
	.loc 1 486 19 view .LVU139
	movs	r0, #0
.LVL55:
	.loc 1 486 19 view .LVU140
	b	.L31
	.cfi_endproc
.LFE38:
	.size	x509_get_uid, .-x509_get_uid
	.section	.text.x509_get_certificate_policies,"ax",%progbits
	.align	1
	.syntax unified
	.thumb
	.thumb_func
	.fpu fpv4-sp-d16
	.type	x509_get_certificate_policies, %function
x509_get_certificate_policies:
.LVL56:
.LFB44:
	.loc 1 790 1 is_stmt 1 view -0
	.cfi_startproc
	@ args = 0, pretend = 0, frame = 8
	@ frame_needed = 0, uses_anonymous_args = 0
	.loc 1 790 1 is_stmt 0 view .LVU142
	push	{r4, r5, r6, r7, r8, r9, r10, lr}
	.cfi_def_cfa_offset 32
	.cfi_offset 4, -32
	.cfi_offset 5, -28
	.cfi_offset 6, -24
	.cfi_offset 7, -20
	.cfi_offset 8, -16
	.cfi_offset 9, -12
	.cfi_offset 10, -8
	.cfi_offset 14, -4
	sub	sp, sp, #8
	.cfi_def_cfa_offset 40
	mov	r4, r0
	mov	r7, r1
	mov	r5, r2
	.loc 1 791 5 is_stmt 1 view .LVU143
.LVL57:
	.loc 1 792 5 view .LVU144
	.loc 1 793 5 view .LVU145
	.loc 1 794 5 view .LVU146
	.loc 1 797 5 view .LVU147
	.loc 1 797 11 is_stmt 0 view .LVU148
	movs	r3, #48
	add	r2, sp, #4
.LVL58:
	.loc 1 797 11 view .LVU149
	bl	mbedtls_asn1_get_tag
.LVL59:
	.loc 1 799 5 is_stmt 1 view .LVU150
	.loc 1 799 7 is_stmt 0 view .LVU151
	mov	r8, r0
	cbnz	r0, .L57
	.loc 1 802 5 is_stmt 1 view .LVU152
	.loc 1 802 9 is_stmt 0 view .LVU153
	ldr	r3, [r4]
	.loc 1 802 12 view .LVU154
	ldr	r2, [sp, #4]
	add	r3, r3, r2
	.loc 1 802 7 view .LVU155
	cmp	r3, r7
	bne	.L49
	.loc 1 809 5 is_stmt 1 view .LVU156
	.loc 1 809 7 is_stmt 0 view .LVU157
	cbnz	r2, .L40
	.loc 1 810 17 view .LVU158
	ldr	r8, .L63+4
	b	.L37
.L57:
	.loc 1 800 9 is_stmt 1 view .LVU159
.LVL60:
.LBB132:
.LBI132:
	.loc 2 152 19 view .LVU160
.LBB133:
	.loc 2 159 5 view .LVU161
	.loc 2 160 5 view .LVU162
	.loc 2 162 5 view .LVU163
	.loc 2 162 18 is_stmt 0 view .LVU164
	sub	r8, r0, #9472
.LVL61:
.L37:
	.loc 2 162 18 view .LVU165
.LBE133:
.LBE132:
	.loc 1 897 1 view .LVU166
	mov	r0, r8
	add	sp, sp, #8
	.cfi_remember_state
	.cfi_def_cfa_offset 32
	@ sp needed
	pop	{r4, r5, r6, r7, r8, r9, r10, pc}
.LVL62:
.L60:
	.cfi_restore_state
.LBB134:
	.loc 1 823 13 is_stmt 1 view .LVU167
.LBB135:
.LBI135:
	.loc 2 152 19 view .LVU168
.LBB136:
	.loc 2 159 5 view .LVU169
	.loc 2 160 5 view .LVU170
	.loc 2 162 5 view .LVU171
	.loc 2 162 18 is_stmt 0 view .LVU172
	sub	r8, r0, #9472
.LVL63:
	.loc 2 162 18 view .LVU173
.LBE136:
.LBE135:
	.loc 1 823 21 view .LVU174
	b	.L37
.LVL64:
.L61:
	.loc 1 829 13 is_stmt 1 view .LVU175
.LBB137:
.LBI137:
	.loc 2 152 19 view .LVU176
.LBB138:
	.loc 2 159 5 view .LVU177
	.loc 2 160 5 view .LVU178
	.loc 2 162 5 view .LVU179
	.loc 2 162 18 is_stmt 0 view .LVU180
	sub	r8, r0, #9472
.LVL65:
	.loc 2 162 18 view .LVU181
.LBE138:
.LBE137:
	.loc 1 829 21 view .LVU182
	b	.L37
.LVL66:
.L62:
	.loc 1 838 86 discriminator 2 view .LVU183
	mov	r2, r9
	mov	r1, r10
	ldr	r0, .L63
.LVL67:
	.loc 1 838 86 discriminator 2 view .LVU184
	bl	memcmp
.LVL68:
	.loc 1 838 83 discriminator 2 view .LVU185
	cbz	r0, .L44
	.loc 1 844 23 view .LVU186
	ldr	r8, .L63+8
.LVL69:
	.loc 1 844 23 view .LVU187
	b	.L44
.LVL70:
.L47:
	.loc 1 881 13 is_stmt 1 view .LVU188
	.loc 1 881 16 is_stmt 0 view .LVU189
	ldr	r3, [r4]
	ldr	r2, [sp, #4]
	add	r3, r3, r2
	str	r3, [r4]
.LVL71:
.L46:
	.loc 1 884 9 is_stmt 1 view .LVU190
	.loc 1 884 13 is_stmt 0 view .LVU191
	ldr	r3, [r4]
	.loc 1 884 11 view .LVU192
	cmp	r3, r6
	bne	.L58
.LVL72:
.L40:
	.loc 1 884 11 view .LVU193
.LBE134:
	.loc 1 813 10 is_stmt 1 view .LVU194
	.loc 1 813 12 is_stmt 0 view .LVU195
	ldr	r3, [r4]
	.loc 1 813 10 view .LVU196
	cmp	r3, r7
	bcs	.L59
.LBB141:
	.loc 1 815 9 is_stmt 1 view .LVU197
	.loc 1 816 9 view .LVU198
	.loc 1 821 9 view .LVU199
	.loc 1 821 21 is_stmt 0 view .LVU200
	movs	r3, #48
	add	r2, sp, #4
	mov	r1, r7
	mov	r0, r4
	bl	mbedtls_asn1_get_tag
.LVL73:
	.loc 1 821 11 view .LVU201
	cmp	r0, #0
	bne	.L60
	.loc 1 825 9 is_stmt 1 view .LVU202
	.loc 1 825 22 is_stmt 0 view .LVU203
	ldr	r6, [r4]
	.loc 1 825 25 view .LVU204
	ldr	r3, [sp, #4]
	.loc 1 825 20 view .LVU205
	add	r6, r6, r3
.LVL74:
	.loc 1 827 9 is_stmt 1 view .LVU206
	.loc 1 827 21 is_stmt 0 view .LVU207
	movs	r3, #6
	add	r2, sp, #4
	mov	r1, r6
	mov	r0, r4
.LVL75:
	.loc 1 827 21 view .LVU208
	bl	mbedtls_asn1_get_tag
.LVL76:
	.loc 1 827 11 view .LVU209
	cmp	r0, #0
	bne	.L61
	.loc 1 831 9 is_stmt 1 view .LVU210
	.loc 1 832 9 view .LVU211
	.loc 1 832 24 is_stmt 0 view .LVU212
	ldr	r9, [sp, #4]
	.loc 1 833 9 is_stmt 1 view .LVU213
	.loc 1 833 24 is_stmt 0 view .LVU214
	ldr	r10, [r4]
	.loc 1 838 9 is_stmt 1 view .LVU215
	.loc 1 838 83 is_stmt 0 view .LVU216
	cmp	r9, #4
	beq	.L62
	.loc 1 844 23 view .LVU217
	ldr	r8, .L63+8
.LVL77:
.L44:
	.loc 1 848 9 is_stmt 1 view .LVU218
	.loc 1 848 21 is_stmt 0 view .LVU219
	ldr	r3, [r5, #8]
	.loc 1 848 11 view .LVU220
	cbz	r3, .L45
	.loc 1 850 13 is_stmt 1 view .LVU221
	.loc 1 850 20 is_stmt 0 view .LVU222
	ldr	r3, [r5, #12]
	.loc 1 850 15 view .LVU223
	cbnz	r3, .L53
	.loc 1 853 13 is_stmt 1 view .LVU224
	.loc 1 853 25 is_stmt 0 view .LVU225
	movs	r1, #16
	movs	r0, #1
	bl	mbedtls_calloc
.LVL78:
	.loc 1 853 23 view .LVU226
	str	r0, [r5, #12]
	.loc 1 855 13 is_stmt 1 view .LVU227
	.loc 1 855 15 is_stmt 0 view .LVU228
	cbz	r0, .L54
	.loc 1 859 17 view .LVU229
	mov	r5, r0
.LVL79:
.L45:
	.loc 1 862 9 is_stmt 1 view .LVU230
	.loc 1 863 9 view .LVU231
	.loc 1 863 18 is_stmt 0 view .LVU232
	movs	r3, #6
	str	r3, [r5]
	.loc 1 864 9 is_stmt 1 view .LVU233
	.loc 1 864 16 is_stmt 0 view .LVU234
	str	r10, [r5, #8]
	.loc 1 865 9 is_stmt 1 view .LVU235
	.loc 1 865 18 is_stmt 0 view .LVU236
	str	r9, [r5, #4]
	.loc 1 867 9 is_stmt 1 view .LVU237
	.loc 1 867 12 is_stmt 0 view .LVU238
	ldr	r3, [r4]
	ldr	r2, [sp, #4]
	add	r3, r3, r2
	str	r3, [r4]
	.loc 1 873 9 is_stmt 1 view .LVU239
	.loc 1 873 11 is_stmt 0 view .LVU240
	cmp	r3, r6
	bcs	.L46
	.loc 1 875 13 is_stmt 1 view .LVU241
	.loc 1 875 25 is_stmt 0 view .LVU242
	movs	r3, #48
	add	r2, sp, #4
	mov	r1, r6
	mov	r0, r4
	bl	mbedtls_asn1_get_tag
.LVL80:
	.loc 1 875 15 view .LVU243
	cmp	r0, #0
	beq	.L47
	.loc 1 877 17 is_stmt 1 view .LVU244
.LVL81:
.LBB139:
.LBI139:
	.loc 2 152 19 view .LVU245
.LBB140:
	.loc 2 159 5 view .LVU246
	.loc 2 160 5 view .LVU247
	.loc 2 162 5 view .LVU248
	.loc 2 162 18 is_stmt 0 view .LVU249
	sub	r8, r0, #9472
.LVL82:
	.loc 2 162 18 view .LVU250
.LBE140:
.LBE139:
	.loc 1 877 25 view .LVU251
	b	.L37
.LVL83:
.L58:
	.loc 1 885 21 view .LVU252
	ldr	r8, .L63+4
.LVL84:
	.loc 1 885 21 view .LVU253
	b	.L37
.LVL85:
.L53:
	.loc 1 851 23 view .LVU254
	ldr	r8, .L63+12
.LVL86:
	.loc 1 851 23 view .LVU255
	b	.L37
.LVL87:
.L54:
	.loc 1 856 25 view .LVU256
	ldr	r8, .L63+16
.LVL88:
	.loc 1 856 25 view .LVU257
	b	.L37
.LVL89:
.L59:
	.loc 1 856 25 view .LVU258
.LBE141:
	.loc 1 890 5 is_stmt 1 view .LVU259
	.loc 1 890 15 is_stmt 0 view .LVU260
	movs	r3, #0
	str	r3, [r5, #12]
	.loc 1 892 5 is_stmt 1 view .LVU261
	.loc 1 892 9 is_stmt 0 view .LVU262
	ldr	r3, [r4]
	.loc 1 892 7 view .LVU263
	cmp	r3, r7
	beq	.L37
	.loc 1 893 17 view .LVU264
	ldr	r8, .L63+4
.LVL90:
	.loc 1 893 17 view .LVU265
	b	.L37
.LVL91:
.L49:
	.loc 1 803 17 view .LVU266
	ldr	r8, .L63+4
	b	.L37
.L64:
	.align	2
.L63:
	.word	.LANCHOR0
	.word	-9574
	.word	-8320
	.word	-9472
	.word	-9578
	.cfi_endproc
.LFE44:
	.size	x509_get_certificate_policies, .-x509_get_certificate_policies
	.section	.text.x509_string_cmp,"ax",%progbits
	.align	1
	.syntax unified
	.thumb
	.thumb_func
	.fpu fpv4-sp-d16
	.type	x509_string_cmp, %function
x509_string_cmp:
.LVL92:
.LFB33:
	.loc 1 320 1 is_stmt 1 view -0
	.cfi_startproc
	@ args = 0, pretend = 0, frame = 0
	@ frame_needed = 0, uses_anonymous_args = 0
	.loc 1 320 1 is_stmt 0 view .LVU268
	push	{r3, r4, r5, lr}
	.cfi_def_cfa_offset 16
	.cfi_offset 3, -16
	.cfi_offset 4, -12
	.cfi_offset 5, -8
	.cfi_offset 14, -4
	mov	r4, r0
	mov	r5, r1
	.loc 1 321 5 is_stmt 1 view .LVU269
	.loc 1 321 10 is_stmt 0 view .LVU270
	ldr	r2, [r0]
	.loc 1 321 20 view .LVU271
	ldr	r3, [r1]
	.loc 1 321 7 view .LVU272
	cmp	r2, r3
	beq	.L74
.LVL93:
.L66:
	.loc 1 328 5 is_stmt 1 view .LVU273
	.loc 1 328 12 is_stmt 0 view .LVU274
	ldr	r3, [r4]
	.loc 1 328 7 view .LVU275
	cmp	r3, #12
	beq	.L68
	.loc 1 328 26 discriminator 2 view .LVU276
	cmp	r3, #19
	bne	.L70
.L68:
	.loc 1 329 12 discriminator 3 view .LVU277
	ldr	r3, [r5]
	.loc 1 328 46 discriminator 3 view .LVU278
	cmp	r3, #12
	beq	.L69
	.loc 1 329 26 view .LVU279
	cmp	r3, #19
	bne	.L71
.L69:
	.loc 1 330 10 discriminator 1 view .LVU280
	ldr	r3, [r4, #4]
	.loc 1 330 20 discriminator 1 view .LVU281
	ldr	r2, [r5, #4]
	.loc 1 329 46 discriminator 1 view .LVU282
	cmp	r3, r2
	bne	.L72
	.loc 1 331 9 view .LVU283
	ldr	r1, [r5, #8]
	ldr	r0, [r4, #8]
	bl	x509_memcasecmp
.LVL94:
	.loc 1 330 26 view .LVU284
	cbnz	r0, .L75
.L65:
	.loc 1 337 1 view .LVU285
	pop	{r3, r4, r5, pc}
.LVL95:
.L74:
	.loc 1 322 10 discriminator 1 view .LVU286
	ldr	r3, [r0, #4]
	.loc 1 322 20 discriminator 1 view .LVU287
	ldr	r2, [r1, #4]
	.loc 1 321 26 discriminator 1 view .LVU288
	cmp	r3, r2
	bne	.L66
	.loc 1 323 9 view .LVU289
	ldr	r1, [r1, #8]
.LVL96:
	.loc 1 323 9 view .LVU290
	ldr	r0, [r0, #8]
.LVL97:
	.loc 1 323 9 view .LVU291
	bl	memcmp
.LVL98:
	.loc 1 322 26 view .LVU292
	cmp	r0, #0
	bne	.L66
	b	.L65
.L75:
	.loc 1 336 11 view .LVU293
	mov	r0, #-1
	b	.L65
.L70:
	.loc 1 336 11 view .LVU294
	mov	r0, #-1
	b	.L65
.L71:
	.loc 1 336 11 view .LVU295
	mov	r0, #-1
	b	.L65
.L72:
	.loc 1 336 11 view .LVU296
	mov	r0, #-1
	b	.L65
	.cfi_endproc
.LFE33:
	.size	x509_string_cmp, .-x509_string_cmp
	.section	.text.x509_name_cmp,"ax",%progbits
	.align	1
	.syntax unified
	.thumb
	.thumb_func
	.fpu fpv4-sp-d16
	.type	x509_name_cmp, %function
x509_name_cmp:
.LVL99:
.LFB34:
	.loc 1 350 1 is_stmt 1 view -0
	.cfi_startproc
	@ args = 0, pretend = 0, frame = 0
	@ frame_needed = 0, uses_anonymous_args = 0
	.loc 1 350 1 is_stmt 0 view .LVU298
	push	{r3, r4, r5, lr}
	.cfi_def_cfa_offset 16
	.cfi_offset 3, -16
	.cfi_offset 4, -12
	.cfi_offset 5, -8
	.cfi_offset 14, -4
	mov	r4, r0
	mov	r5, r1
	.loc 1 352 5 is_stmt 1 view .LVU299
	.loc 1 352 10 is_stmt 0 view .LVU300
	b	.L77
.LVL100:
.L81:
	.loc 1 354 9 is_stmt 1 view .LVU301
	.loc 1 354 11 is_stmt 0 view .LVU302
	cbz	r4, .L82
	.loc 1 354 22 discriminator 1 view .LVU303
	cbz	r5, .L83
	.loc 1 358 9 is_stmt 1 view .LVU304
	.loc 1 358 19 is_stmt 0 view .LVU305
	ldr	r2, [r4]
	.loc 1 358 33 view .LVU306
	ldr	r3, [r5]
	.loc 1 358 11 view .LVU307
	cmp	r2, r3
	bne	.L79
	.loc 1 359 19 discriminator 1 view .LVU308
	ldr	r3, [r4, #4]
	.loc 1 359 33 discriminator 1 view .LVU309
	ldr	r2, [r5, #4]
	.loc 1 358 38 discriminator 1 view .LVU310
	cmp	r3, r2
	bne	.L79
	.loc 1 360 13 view .LVU311
	ldr	r1, [r5, #8]
	ldr	r0, [r4, #8]
	bl	memcmp
.LVL101:
	.loc 1 359 38 view .LVU312
	cbnz	r0, .L79
	.loc 1 366 9 is_stmt 1 view .LVU313
	.loc 1 366 13 is_stmt 0 view .LVU314
	add	r1, r5, #12
	add	r0, r4, #12
	bl	x509_string_cmp
.LVL102:
	.loc 1 366 11 view .LVU315
	cbnz	r0, .L84
	.loc 1 370 9 is_stmt 1 view .LVU316
	.loc 1 370 14 is_stmt 0 view .LVU317
	ldrb	r2, [r4, #28]	@ zero_extendqisi2
	.loc 1 370 32 view .LVU318
	ldrb	r3, [r5, #28]	@ zero_extendqisi2
	.loc 1 370 11 view .LVU319
	cmp	r2, r3
	bne	.L85
	.loc 1 373 9 is_stmt 1 view .LVU320
	.loc 1 373 11 is_stmt 0 view .LVU321
	ldr	r4, [r4, #24]
.LVL103:
	.loc 1 374 9 is_stmt 1 view .LVU322
	.loc 1 374 11 is_stmt 0 view .LVU323
	ldr	r5, [r5, #24]
.LVL104:
.L77:
	.loc 1 352 10 is_stmt 1 view .LVU324
	cmp	r4, #0
	bne	.L81
	.loc 1 352 21 is_stmt 0 discriminator 1 view .LVU325
	cmp	r5, #0
	bne	.L81
	.loc 1 378 11 view .LVU326
	movs	r0, #0
	b	.L76
.L79:
	.loc 1 362 13 is_stmt 1 view .LVU327
	.loc 1 362 19 is_stmt 0 view .LVU328
	mov	r0, #-1
.L76:
	.loc 1 379 1 view .LVU329
	pop	{r3, r4, r5, pc}
.LVL105:
.L82:
	.loc 1 355 19 view .LVU330
	mov	r0, #-1
	b	.L76
.L83:
	mov	r0, #-1
	b	.L76
.L84:
	.loc 1 367 19 view .LVU331
	mov	r0, #-1
	b	.L76
.L85:
	.loc 1 371 19 view .LVU332
	mov	r0, #-1
	b	.L76
	.cfi_endproc
.LFE34:
	.size	x509_name_cmp, .-x509_name_cmp
	.section	.text.x509_crt_check_ee_locally_trusted,"ax",%progbits
	.align	1
	.syntax unified
	.thumb
	.thumb_func
	.fpu fpv4-sp-d16
	.type	x509_crt_check_ee_locally_trusted, %function
x509_crt_check_ee_locally_trusted:
.LVL106:
.LFB67:
	.loc 1 2744 1 is_stmt 1 view -0
	.cfi_startproc
	@ args = 0, pretend = 0, frame = 0
	@ frame_needed = 0, uses_anonymous_args = 0
	.loc 1 2744 1 is_stmt 0 view .LVU334
	push	{r3, r4, r5, lr}
	.cfi_def_cfa_offset 16
	.cfi_offset 3, -16
	.cfi_offset 4, -12
	.cfi_offset 5, -8
	.cfi_offset 14, -4
	mov	r5, r0
	mov	r4, r1
	.loc 1 2745 5 is_stmt 1 view .LVU335
	.loc 1 2748 5 view .LVU336
	.loc 1 2748 9 is_stmt 0 view .LVU337
	add	r1, r0, #112
.LVL107:
	.loc 1 2748 9 view .LVU338
	adds	r0, r0, #80
.LVL108:
	.loc 1 2748 9 view .LVU339
	bl	x509_name_cmp
.LVL109:
	.loc 1 2748 7 view .LVU340
	cbz	r0, .L89
	.loc 1 2749 15 view .LVU341
	mov	r3, #-1
	b	.L87
.LVL110:
.L90:
	.loc 1 2752 38 is_stmt 1 discriminator 2 view .LVU342
	.loc 1 2752 42 is_stmt 0 discriminator 2 view .LVU343
	ldr	r4, [r4, #336]
.LVL111:
.L89:
	.loc 1 2752 26 is_stmt 1 discriminator 1 view .LVU344
	.loc 1 2752 5 is_stmt 0 discriminator 1 view .LVU345
	cbz	r4, .L94
	.loc 1 2754 9 is_stmt 1 view .LVU346
	.loc 1 2754 21 is_stmt 0 view .LVU347
	ldr	r2, [r5, #8]
	.loc 1 2754 37 view .LVU348
	ldr	r3, [r4, #8]
	.loc 1 2754 11 view .LVU349
	cmp	r2, r3
	bne	.L90
	.loc 1 2755 13 discriminator 1 view .LVU350
	ldr	r1, [r4, #12]
	ldr	r0, [r5, #12]
	bl	memcmp
.LVL112:
	.loc 1 2754 42 discriminator 1 view .LVU351
	mov	r3, r0
	cmp	r0, #0
	bne	.L90
	b	.L87
.L94:
	.loc 1 2762 11 view .LVU352
	mov	r3, #-1
.LVL113:
.L87:
	.loc 1 2763 1 view .LVU353
	mov	r0, r3
	pop	{r3, r4, r5, pc}
	.loc 1 2763 1 view .LVU354
	.cfi_endproc
.LFE67:
	.size	x509_crt_check_ee_locally_trusted, .-x509_crt_check_ee_locally_trusted
	.section	.text.x509_get_version,"ax",%progbits
	.align	1
	.syntax unified
	.thumb
	.thumb_func
	.fpu fpv4-sp-d16
	.type	x509_get_version, %function
x509_get_version:
.LVL114:
.LFB36:
	.loc 1 408 1 is_stmt 1 view -0
	.cfi_startproc
	@ args = 0, pretend = 0, frame = 8
	@ frame_needed = 0, uses_anonymous_args = 0
	.loc 1 408 1 is_stmt 0 view .LVU356
	push	{r4, r5, r6, lr}
	.cfi_def_cfa_offset 16
	.cfi_offset 4, -16
	.cfi_offset 5, -12
	.cfi_offset 6, -8
	.cfi_offset 14, -4
	sub	sp, sp, #8
	.cfi_def_cfa_offset 24
	mov	r5, r0
	mov	r4, r2
	.loc 1 409 5 is_stmt 1 view .LVU357
.LVL115:
	.loc 1 410 5 view .LVU358
	.loc 1 412 5 view .LVU359
	.loc 1 412 17 is_stmt 0 view .LVU360
	movs	r3, #160
	add	r2, sp, #4
.LVL116:
	.loc 1 412 17 view .LVU361
	bl	mbedtls_asn1_get_tag
.LVL117:
	.loc 1 412 7 view .LVU362
	cbz	r0, .L96
	.loc 1 415 9 is_stmt 1 view .LVU363
	.loc 1 415 11 is_stmt 0 view .LVU364
	cmn	r0, #98
	beq	.L102
	.loc 1 421 9 is_stmt 1 view .LVU365
.LVL118:
.LBB142:
.LBI142:
	.loc 2 152 19 view .LVU366
.LBB143:
	.loc 2 159 5 view .LVU367
	.loc 2 160 5 view .LVU368
	.loc 2 162 5 view .LVU369
	.loc 2 162 18 is_stmt 0 view .LVU370
	sub	r0, r0, #8576
.LVL119:
.L95:
	.loc 2 162 18 view .LVU371
.LBE143:
.LBE142:
	.loc 1 434 1 view .LVU372
	add	sp, sp, #8
	.cfi_remember_state
	.cfi_def_cfa_offset 16
	@ sp needed
	pop	{r4, r5, r6, pc}
.LVL120:
.L102:
	.cfi_restore_state
	.loc 1 417 13 is_stmt 1 view .LVU373
	.loc 1 417 18 is_stmt 0 view .LVU374
	movs	r0, #0
.LVL121:
	.loc 1 417 18 view .LVU375
	str	r0, [r4]
	.loc 1 418 13 is_stmt 1 view .LVU376
	.loc 1 418 19 is_stmt 0 view .LVU377
	b	.L95
.LVL122:
.L96:
	.loc 1 424 5 is_stmt 1 view .LVU378
	.loc 1 424 11 is_stmt 0 view .LVU379
	ldr	r6, [r5]
	.loc 1 424 14 view .LVU380
	ldr	r3, [sp, #4]
	.loc 1 424 9 view .LVU381
	add	r6, r6, r3
.LVL123:
	.loc 1 426 5 is_stmt 1 view .LVU382
	.loc 1 426 17 is_stmt 0 view .LVU383
	mov	r2, r4
	mov	r1, r6
	mov	r0, r5
.LVL124:
	.loc 1 426 17 view .LVU384
	bl	mbedtls_asn1_get_int
.LVL125:
	.loc 1 426 7 view .LVU385
	cbnz	r0, .L103
	.loc 1 429 5 is_stmt 1 view .LVU386
	.loc 1 429 9 is_stmt 0 view .LVU387
	ldr	r3, [r5]
	.loc 1 429 7 view .LVU388
	cmp	r3, r6
	beq	.L95
	.loc 1 430 17 view .LVU389
	ldr	r0, .L104
.LVL126:
	.loc 1 430 17 view .LVU390
	b	.L95
.LVL127:
.L103:
	.loc 1 427 9 is_stmt 1 view .LVU391
.LBB144:
.LBI144:
	.loc 2 152 19 view .LVU392
.LBB145:
	.loc 2 159 5 view .LVU393
	.loc 2 160 5 view .LVU394
	.loc 2 162 5 view .LVU395
	.loc 2 162 18 is_stmt 0 view .LVU396
	sub	r0, r0, #8704
.LVL128:
	.loc 2 162 18 view .LVU397
.LBE145:
.LBE144:
	.loc 1 427 17 view .LVU398
	b	.L95
.L105:
	.align	2
.L104:
	.word	-8806
	.cfi_endproc
.LFE36:
	.size	x509_get_version, .-x509_get_version
	.section	.text.x509_get_dates,"ax",%progbits
	.align	1
	.syntax unified
	.thumb
	.thumb_func
	.fpu fpv4-sp-d16
	.type	x509_get_dates, %function
x509_get_dates:
.LVL129:
.LFB37:
	.loc 1 445 1 is_stmt 1 view -0
	.cfi_startproc
	@ args = 0, pretend = 0, frame = 8
	@ frame_needed = 0, uses_anonymous_args = 0
	.loc 1 445 1 is_stmt 0 view .LVU400
	push	{r4, r5, r6, r7, lr}
	.cfi_def_cfa_offset 20
	.cfi_offset 4, -20
	.cfi_offset 5, -16
	.cfi_offset 6, -12
	.cfi_offset 7, -8
	.cfi_offset 14, -4
	sub	sp, sp, #12
	.cfi_def_cfa_offset 32
	mov	r4, r0
	mov	r6, r2
	mov	r7, r3
	.loc 1 446 5 is_stmt 1 view .LVU401
.LVL130:
	.loc 1 447 5 view .LVU402
	.loc 1 449 5 view .LVU403
	.loc 1 449 17 is_stmt 0 view .LVU404
	movs	r3, #48
.LVL131:
	.loc 1 449 17 view .LVU405
	add	r2, sp, #4
.LVL132:
	.loc 1 449 17 view .LVU406
	bl	mbedtls_asn1_get_tag
.LVL133:
	.loc 1 449 7 view .LVU407
	cbz	r0, .L107
	.loc 1 451 9 is_stmt 1 view .LVU408
.LVL134:
.LBB146:
.LBI146:
	.loc 2 152 19 view .LVU409
.LBB147:
	.loc 2 159 5 view .LVU410
	.loc 2 160 5 view .LVU411
	.loc 2 162 5 view .LVU412
	.loc 2 162 18 is_stmt 0 view .LVU413
	sub	r0, r0, #9216
.LVL135:
.L106:
	.loc 2 162 18 view .LVU414
.LBE147:
.LBE146:
	.loc 1 466 1 view .LVU415
	add	sp, sp, #12
	.cfi_remember_state
	.cfi_def_cfa_offset 20
	@ sp needed
	pop	{r4, r5, r6, r7, pc}
.LVL136:
.L107:
	.cfi_restore_state
	.loc 1 453 5 is_stmt 1 view .LVU416
	.loc 1 453 11 is_stmt 0 view .LVU417
	ldr	r5, [r4]
	.loc 1 453 14 view .LVU418
	ldr	r3, [sp, #4]
	.loc 1 453 9 view .LVU419
	add	r5, r5, r3
.LVL137:
	.loc 1 455 5 is_stmt 1 view .LVU420
	.loc 1 455 17 is_stmt 0 view .LVU421
	mov	r2, r6
	mov	r1, r5
	mov	r0, r4
.LVL138:
	.loc 1 455 17 view .LVU422
	bl	mbedtls_x509_get_time
.LVL139:
	.loc 1 455 7 view .LVU423
	cmp	r0, #0
	bne	.L106
	.loc 1 458 5 is_stmt 1 view .LVU424
	.loc 1 458 17 is_stmt 0 view .LVU425
	mov	r2, r7
	mov	r1, r5
	mov	r0, r4
.LVL140:
	.loc 1 458 17 view .LVU426
	bl	mbedtls_x509_get_time
.LVL141:
	.loc 1 458 7 view .LVU427
	cmp	r0, #0
	bne	.L106
	.loc 1 461 5 is_stmt 1 view .LVU428
	.loc 1 461 9 is_stmt 0 view .LVU429
	ldr	r3, [r4]
	.loc 1 461 7 view .LVU430
	cmp	r3, r5
	beq	.L106
	.loc 1 462 17 view .LVU431
	ldr	r0, .L111
.LVL142:
	.loc 1 462 17 view .LVU432
	b	.L106
.L112:
	.align	2
.L111:
	.word	-9318
	.cfi_endproc
.LFE37:
	.size	x509_get_dates, .-x509_get_dates
	.section	.text.x509_get_basic_constraints,"ax",%progbits
	.align	1
	.syntax unified
	.thumb
	.thumb_func
	.fpu fpv4-sp-d16
	.type	x509_get_basic_constraints, %function
x509_get_basic_constraints:
.LVL143:
.LFB39:
	.loc 1 501 1 is_stmt 1 view -0
	.cfi_startproc
	@ args = 0, pretend = 0, frame = 8
	@ frame_needed = 0, uses_anonymous_args = 0
	.loc 1 501 1 is_stmt 0 view .LVU434
	push	{r4, r5, r6, r7, r8, lr}
	.cfi_def_cfa_offset 24
	.cfi_offset 4, -24
	.cfi_offset 5, -20
	.cfi_offset 6, -16
	.cfi_offset 7, -12
	.cfi_offset 8, -8
	.cfi_offset 14, -4
	sub	sp, sp, #8
	.cfi_def_cfa_offset 32
	mov	r5, r0
	mov	r4, r1
	mov	r6, r2
	mov	r7, r3
	.loc 1 502 5 is_stmt 1 view .LVU435
.LVL144:
	.loc 1 503 5 view .LVU436
	.loc 1 510 5 view .LVU437
	.loc 1 510 16 is_stmt 0 view .LVU438
	movs	r3, #0
.LVL145:
	.loc 1 510 16 view .LVU439
	str	r3, [r2]
	.loc 1 511 5 is_stmt 1 view .LVU440
	.loc 1 511 18 is_stmt 0 view .LVU441
	str	r3, [r7]
	.loc 1 513 5 is_stmt 1 view .LVU442
	.loc 1 513 17 is_stmt 0 view .LVU443
	movs	r3, #48
	add	r2, sp, #4
.LVL146:
	.loc 1 513 17 view .LVU444
	bl	mbedtls_asn1_get_tag
.LVL147:
	.loc 1 513 7 view .LVU445
	mov	r8, r0
	cbnz	r0, .L123
	.loc 1 517 5 is_stmt 1 view .LVU446
	.loc 1 517 9 is_stmt 0 view .LVU447
	ldr	r3, [r5]
	.loc 1 517 7 view .LVU448
	cmp	r3, r4
	beq	.L113
	.loc 1 520 5 is_stmt 1 view .LVU449
	.loc 1 520 17 is_stmt 0 view .LVU450
	mov	r2, r6
	mov	r1, r4
	mov	r0, r5
.LVL148:
	.loc 1 520 17 view .LVU451
	bl	mbedtls_asn1_get_bool
.LVL149:
	.loc 1 520 7 view .LVU452
	mov	r3, r0
	cbz	r0, .L116
	.loc 1 522 9 is_stmt 1 view .LVU453
	.loc 1 522 11 is_stmt 0 view .LVU454
	cmn	r0, #98
	beq	.L124
.L117:
	.loc 1 525 9 is_stmt 1 view .LVU455
	.loc 1 525 11 is_stmt 0 view .LVU456
	cbnz	r3, .L125
	.loc 1 528 9 is_stmt 1 view .LVU457
	.loc 1 528 13 is_stmt 0 view .LVU458
	ldr	r3, [r6]
	.loc 1 528 11 view .LVU459
	cbz	r3, .L116
	.loc 1 529 13 is_stmt 1 view .LVU460
	.loc 1 529 24 is_stmt 0 view .LVU461
	movs	r3, #1
	str	r3, [r6]
.L116:
	.loc 1 532 5 is_stmt 1 view .LVU462
	.loc 1 532 9 is_stmt 0 view .LVU463
	ldr	r3, [r5]
	.loc 1 532 7 view .LVU464
	cmp	r3, r4
	beq	.L113
	.loc 1 535 5 is_stmt 1 view .LVU465
	.loc 1 535 17 is_stmt 0 view .LVU466
	mov	r2, r7
	mov	r1, r4
	mov	r0, r5
.LVL150:
	.loc 1 535 17 view .LVU467
	bl	mbedtls_asn1_get_int
.LVL151:
	.loc 1 535 7 view .LVU468
	mov	r8, r0
	cbnz	r0, .L126
	.loc 1 538 5 is_stmt 1 view .LVU469
	.loc 1 538 9 is_stmt 0 view .LVU470
	ldr	r3, [r5]
	.loc 1 538 7 view .LVU471
	cmp	r3, r4
	bne	.L120
	.loc 1 544 5 is_stmt 1 view .LVU472
	.loc 1 544 9 is_stmt 0 view .LVU473
	ldr	r3, [r7]
	.loc 1 544 7 view .LVU474
	mvn	r2, #-2147483648
	cmp	r3, r2
	beq	.L121
	.loc 1 548 5 is_stmt 1 view .LVU475
	.loc 1 548 19 is_stmt 0 view .LVU476
	adds	r3, r3, #1
	str	r3, [r7]
	.loc 1 550 5 is_stmt 1 view .LVU477
	.loc 1 550 11 is_stmt 0 view .LVU478
	b	.L113
.L123:
	.loc 1 515 9 is_stmt 1 view .LVU479
.LVL152:
.LBB148:
.LBI148:
	.loc 2 152 19 view .LVU480
.LBB149:
	.loc 2 159 5 view .LVU481
	.loc 2 160 5 view .LVU482
	.loc 2 162 5 view .LVU483
	.loc 2 162 18 is_stmt 0 view .LVU484
	sub	r8, r0, #9472
.LVL153:
.L113:
	.loc 2 162 18 view .LVU485
.LBE149:
.LBE148:
	.loc 1 551 1 view .LVU486
	mov	r0, r8
.LVL154:
	.loc 1 551 1 view .LVU487
	add	sp, sp, #8
	.cfi_remember_state
	.cfi_def_cfa_offset 24
	@ sp needed
	pop	{r4, r5, r6, r7, r8, pc}
.LVL155:
.L124:
	.cfi_restore_state
	.loc 1 523 13 is_stmt 1 view .LVU488
	.loc 1 523 19 is_stmt 0 view .LVU489
	mov	r2, r6
	mov	r1, r4
	mov	r0, r5
.LVL156:
	.loc 1 523 19 view .LVU490
	bl	mbedtls_asn1_get_int
.LVL157:
	.loc 1 523 19 view .LVU491
	mov	r3, r0
.LVL158:
	.loc 1 523 19 view .LVU492
	b	.L117
.L125:
	.loc 1 526 13 is_stmt 1 view .LVU493
.LVL159:
.LBB150:
.LBI150:
	.loc 2 152 19 view .LVU494
.LBB151:
	.loc 2 159 5 view .LVU495
	.loc 2 160 5 view .LVU496
	.loc 2 162 5 view .LVU497
	.loc 2 162 18 is_stmt 0 view .LVU498
	sub	r8, r3, #9472
.LVL160:
	.loc 2 162 18 view .LVU499
.LBE151:
.LBE150:
	.loc 1 526 21 view .LVU500
	b	.L113
.L126:
	.loc 1 536 9 is_stmt 1 view .LVU501
.LVL161:
.LBB152:
.LBI152:
	.loc 2 152 19 view .LVU502
.LBB153:
	.loc 2 159 5 view .LVU503
	.loc 2 160 5 view .LVU504
	.loc 2 162 5 view .LVU505
	.loc 2 162 18 is_stmt 0 view .LVU506
	sub	r8, r0, #9472
.LVL162:
	.loc 2 162 18 view .LVU507
.LBE153:
.LBE152:
	.loc 1 536 17 view .LVU508
	b	.L113
.L120:
	.loc 1 539 17 view .LVU509
	ldr	r8, .L127
	b	.L113
.L121:
	.loc 1 545 17 view .LVU510
	ldr	r8, .L127+4
	b	.L113
.L128:
	.align	2
.L127:
	.word	-9574
	.word	-9572
	.cfi_endproc
.LFE39:
	.size	x509_get_basic_constraints, .-x509_get_basic_constraints
	.section	.text.x509_get_key_usage,"ax",%progbits
	.align	1
	.syntax unified
	.thumb
	.thumb_func
	.fpu fpv4-sp-d16
	.type	x509_get_key_usage, %function
x509_get_key_usage:
.LVL163:
.LFB41:
	.loc 1 575 1 is_stmt 1 view -0
	.cfi_startproc
	@ args = 0, pretend = 0, frame = 16
	@ frame_needed = 0, uses_anonymous_args = 0
	.loc 1 575 1 is_stmt 0 view .LVU512
	push	{r4, r5, lr}
	.cfi_def_cfa_offset 12
	.cfi_offset 4, -12
	.cfi_offset 5, -8
	.cfi_offset 14, -4
	sub	sp, sp, #20
	.cfi_def_cfa_offset 32
	mov	r5, r2
	.loc 1 576 5 is_stmt 1 view .LVU513
.LVL164:
	.loc 1 577 5 view .LVU514
	.loc 1 578 5 view .LVU515
	.loc 1 578 28 is_stmt 0 view .LVU516
	movs	r3, #0
	str	r3, [sp, #4]
	strb	r3, [sp, #8]
	str	r3, [sp, #12]
	.loc 1 580 5 is_stmt 1 view .LVU517
	.loc 1 580 17 is_stmt 0 view .LVU518
	add	r2, sp, #4
.LVL165:
	.loc 1 580 17 view .LVU519
	bl	mbedtls_asn1_get_bitstring
.LVL166:
	.loc 1 580 7 view .LVU520
	cbnz	r0, .L136
	.loc 1 583 5 is_stmt 1 view .LVU521
	.loc 1 583 11 is_stmt 0 view .LVU522
	ldr	r3, [sp, #4]
	.loc 1 583 7 view .LVU523
	cbz	r3, .L134
	.loc 1 588 5 is_stmt 1 view .LVU524
	.loc 1 588 16 is_stmt 0 view .LVU525
	movs	r3, #0
.LVL167:
	.loc 1 588 16 view .LVU526
	str	r3, [r5]
	.loc 1 589 5 is_stmt 1 view .LVU527
.LVL168:
	.loc 1 589 5 is_stmt 0 view .LVU528
	b	.L132
.LVL169:
.L136:
	.loc 1 581 9 is_stmt 1 view .LVU529
.LBB154:
.LBI154:
	.loc 2 152 19 view .LVU530
.LBB155:
	.loc 2 159 5 view .LVU531
	.loc 2 160 5 view .LVU532
	.loc 2 162 5 view .LVU533
	.loc 2 162 18 is_stmt 0 view .LVU534
	sub	r0, r0, #9472
.LVL170:
	.loc 2 162 18 view .LVU535
.LBE155:
.LBE154:
	.loc 1 581 17 view .LVU536
	b	.L129
.LVL171:
.L133:
	.loc 1 591 9 is_stmt 1 discriminator 4 view .LVU537
	.loc 1 591 40 is_stmt 0 discriminator 4 view .LVU538
	ldr	r2, [sp, #12]
	.loc 1 591 42 discriminator 4 view .LVU539
	ldrb	r1, [r2, r3]	@ zero_extendqisi2
	.loc 1 591 51 discriminator 4 view .LVU540
	lsls	r4, r3, #3
	.loc 1 591 46 discriminator 4 view .LVU541
	lsl	r4, r1, r4
	.loc 1 591 20 discriminator 4 view .LVU542
	ldr	r1, [r5]
	orrs	r1, r1, r4
	str	r1, [r5]
	.loc 1 589 59 is_stmt 1 discriminator 4 view .LVU543
	.loc 1 589 60 is_stmt 0 discriminator 4 view .LVU544
	adds	r3, r3, #1
.LVL172:
.L132:
	.loc 1 589 17 is_stmt 1 discriminator 1 view .LVU545
	.loc 1 589 23 is_stmt 0 discriminator 1 view .LVU546
	ldr	r2, [sp, #4]
	.loc 1 589 5 discriminator 1 view .LVU547
	cmp	r2, r3
	bls	.L129
	.loc 1 589 28 discriminator 3 view .LVU548
	cmp	r3, #3
	bls	.L133
.LVL173:
.L129:
	.loc 1 595 1 view .LVU549
	add	sp, sp, #20
	.cfi_remember_state
	.cfi_def_cfa_offset 12
	@ sp needed
	pop	{r4, r5, pc}
.LVL174:
.L134:
	.cfi_restore_state
	.loc 1 584 17 view .LVU550
	ldr	r0, .L137
	b	.L129
.L138:
	.align	2
.L137:
	.word	-9572
	.cfi_endproc
.LFE41:
	.size	x509_get_key_usage, .-x509_get_key_usage
	.section	.text.x509_get_ns_cert_type,"ax",%progbits
	.align	1
	.syntax unified
	.thumb
	.thumb_func
	.fpu fpv4-sp-d16
	.type	x509_get_ns_cert_type, %function
x509_get_ns_cert_type:
.LVL175:
.LFB40:
	.loc 1 556 1 is_stmt 1 view -0
	.cfi_startproc
	@ args = 0, pretend = 0, frame = 16
	@ frame_needed = 0, uses_anonymous_args = 0
	.loc 1 556 1 is_stmt 0 view .LVU552
	push	{r4, lr}
	.cfi_def_cfa_offset 8
	.cfi_offset 4, -8
	.cfi_offset 14, -4
	sub	sp, sp, #16
	.cfi_def_cfa_offset 24
	mov	r4, r2
	.loc 1 557 5 is_stmt 1 view .LVU553
.LVL176:
	.loc 1 558 5 view .LVU554
	.loc 1 558 28 is_stmt 0 view .LVU555
	movs	r3, #0
	str	r3, [sp, #4]
	strb	r3, [sp, #8]
	str	r3, [sp, #12]
	.loc 1 560 5 is_stmt 1 view .LVU556
	.loc 1 560 17 is_stmt 0 view .LVU557
	add	r2, sp, #4
.LVL177:
	.loc 1 560 17 view .LVU558
	bl	mbedtls_asn1_get_bitstring
.LVL178:
	.loc 1 560 7 view .LVU559
	cbnz	r0, .L144
	.loc 1 563 5 is_stmt 1 view .LVU560
	.loc 1 563 11 is_stmt 0 view .LVU561
	ldr	r3, [sp, #4]
	.loc 1 563 7 view .LVU562
	cmp	r3, #1
	bne	.L142
	.loc 1 568 5 is_stmt 1 view .LVU563
	.loc 1 568 24 is_stmt 0 view .LVU564
	ldr	r3, [sp, #12]
	.loc 1 568 21 view .LVU565
	ldrb	r3, [r3]	@ zero_extendqisi2
	.loc 1 568 19 view .LVU566
	strb	r3, [r4]
	.loc 1 569 5 is_stmt 1 view .LVU567
.L139:
	.loc 1 570 1 is_stmt 0 view .LVU568
	add	sp, sp, #16
	.cfi_remember_state
	.cfi_def_cfa_offset 8
	@ sp needed
	pop	{r4, pc}
.LVL179:
.L144:
	.cfi_restore_state
	.loc 1 561 9 is_stmt 1 view .LVU569
.LBB156:
.LBI156:
	.loc 2 152 19 view .LVU570
.LBB157:
	.loc 2 159 5 view .LVU571
	.loc 2 160 5 view .LVU572
	.loc 2 162 5 view .LVU573
	.loc 2 162 18 is_stmt 0 view .LVU574
	sub	r0, r0, #9472
.LVL180:
	.loc 2 162 18 view .LVU575
.LBE157:
.LBE156:
	.loc 1 561 17 view .LVU576
	b	.L139
.L142:
	.loc 1 564 17 view .LVU577
	ldr	r0, .L145
	b	.L139
.L146:
	.align	2
.L145:
	.word	-9572
	.cfi_endproc
.LFE40:
	.size	x509_get_ns_cert_type, .-x509_get_ns_cert_type
	.section	.text.x509_get_ext_key_usage,"ax",%progbits
	.align	1
	.syntax unified
	.thumb
	.thumb_func
	.fpu fpv4-sp-d16
	.type	x509_get_ext_key_usage, %function
x509_get_ext_key_usage:
.LVL181:
.LFB42:
	.loc 1 605 1 is_stmt 1 view -0
	.cfi_startproc
	@ args = 0, pretend = 0, frame = 0
	@ frame_needed = 0, uses_anonymous_args = 0
	.loc 1 605 1 is_stmt 0 view .LVU579
	push	{r4, lr}
	.cfi_def_cfa_offset 8
	.cfi_offset 4, -8
	.cfi_offset 14, -4
	mov	r4, r2
	.loc 1 606 5 is_stmt 1 view .LVU580
.LVL182:
	.loc 1 608 5 view .LVU581
	.loc 1 608 17 is_stmt 0 view .LVU582
	movs	r3, #6
	bl	mbedtls_asn1_get_sequence_of
.LVL183:
	.loc 1 608 7 view .LVU583
	cbnz	r0, .L152
	.loc 1 612 5 is_stmt 1 view .LVU584
	.loc 1 612 27 is_stmt 0 view .LVU585
	ldr	r3, [r4, #8]
	.loc 1 612 7 view .LVU586
	cbz	r3, .L153
.L147:
	.loc 1 617 1 view .LVU587
	pop	{r4, pc}
.LVL184:
.L152:
	.loc 1 609 9 is_stmt 1 view .LVU588
.LBB158:
.LBI158:
	.loc 2 152 19 view .LVU589
.LBB159:
	.loc 2 159 5 view .LVU590
	.loc 2 160 5 view .LVU591
	.loc 2 162 5 view .LVU592
	.loc 2 162 18 is_stmt 0 view .LVU593
	sub	r0, r0, #9472
.LVL185:
	.loc 2 162 18 view .LVU594
.LBE159:
.LBE158:
	.loc 1 609 17 view .LVU595
	b	.L147
.L153:
	.loc 1 613 17 view .LVU596
	ldr	r0, .L154
	b	.L147
.L155:
	.align	2
.L154:
	.word	-9572
	.cfi_endproc
.LFE42:
	.size	x509_get_ext_key_usage, .-x509_get_ext_key_usage
	.section	.rodata.x509_get_other_name.str1.4,"aMS",%progbits,1
	.align	2
.LC1:
	.ascii	"+\006\001\005\005\007\010\004\000"
	.section	.text.x509_get_other_name,"ax",%progbits
	.align	1
	.syntax unified
	.thumb
	.thumb_func
	.fpu fpv4-sp-d16
	.type	x509_get_other_name, %function
x509_get_other_name:
.LVL186:
.LFB52:
	.loc 1 1702 1 is_stmt 1 view -0
	.cfi_startproc
	@ args = 0, pretend = 0, frame = 8
	@ frame_needed = 0, uses_anonymous_args = 0
	.loc 1 1702 1 is_stmt 0 view .LVU598
	push	{r4, r5, lr}
	.cfi_def_cfa_offset 12
	.cfi_offset 4, -12
	.cfi_offset 5, -8
	.cfi_offset 14, -4
	sub	sp, sp, #12
	.cfi_def_cfa_offset 24
	.loc 1 1703 5 is_stmt 1 view .LVU599
.LVL187:
	.loc 1 1704 5 view .LVU600
	.loc 1 1705 5 view .LVU601
	.loc 1 1705 40 is_stmt 0 view .LVU602
	ldr	r4, [r0, #8]
	.loc 1 1705 20 view .LVU603
	str	r4, [sp]
	.loc 1 1706 5 is_stmt 1 view .LVU604
	.loc 1 1706 52 is_stmt 0 view .LVU605
	ldr	r3, [r0, #4]
	.loc 1 1706 26 view .LVU606
	add	r4, r4, r3
.LVL188:
	.loc 1 1707 5 is_stmt 1 view .LVU607
	.loc 1 1709 5 view .LVU608
	.loc 1 1709 27 is_stmt 0 view .LVU609
	ldr	r3, [r0]
	.loc 1 1709 33 view .LVU610
	and	r3, r3, #223
	.loc 1 1709 7 view .LVU611
	cmp	r3, #128
	bne	.L167
	mov	r5, r1
	.loc 1 1719 5 is_stmt 1 view .LVU612
	.loc 1 1719 17 is_stmt 0 view .LVU613
	movs	r3, #6
	add	r2, sp, #4
	mov	r1, r4
.LVL189:
	.loc 1 1719 17 view .LVU614
	mov	r0, sp
.LVL190:
	.loc 1 1719 17 view .LVU615
	bl	mbedtls_asn1_get_tag
.LVL191:
	.loc 1 1719 7 view .LVU616
	cbnz	r0, .L169
	.loc 1 1723 5 is_stmt 1 view .LVU617
	.loc 1 1724 5 view .LVU618
	.loc 1 1724 15 is_stmt 0 view .LVU619
	ldr	r1, [sp]
	.loc 1 1725 5 is_stmt 1 view .LVU620
	.loc 1 1725 17 is_stmt 0 view .LVU621
	ldr	r2, [sp, #4]
	.loc 1 1730 5 is_stmt 1 view .LVU622
	.loc 1 1730 98 is_stmt 0 view .LVU623
	cmp	r2, #8
	bne	.L159
	.loc 1 1730 101 discriminator 2 view .LVU624
	ldr	r0, .L174
.LVL192:
	.loc 1 1730 101 discriminator 2 view .LVU625
	bl	memcmp
.LVL193:
	.loc 1 1730 98 discriminator 2 view .LVU626
	cbnz	r0, .L159
	.loc 1 1735 5 is_stmt 1 view .LVU627
	.loc 1 1735 11 is_stmt 0 view .LVU628
	ldr	r3, [sp]
	ldr	r2, [sp, #4]
	add	r3, r3, r2
	.loc 1 1735 7 view .LVU629
	cmp	r3, r4
	bcs	.L170
	.loc 1 1741 5 is_stmt 1 view .LVU630
	.loc 1 1741 7 is_stmt 0 view .LVU631
	str	r3, [sp]
	.loc 1 1742 5 is_stmt 1 view .LVU632
	.loc 1 1742 17 is_stmt 0 view .LVU633
	movs	r3, #160
	add	r2, sp, #4
	mov	r1, r4
	mov	r0, sp
	bl	mbedtls_asn1_get_tag
.LVL194:
	.loc 1 1742 7 view .LVU634
	cbz	r0, .L162
	.loc 1 1744 9 is_stmt 1 view .LVU635
.LVL195:
.LBB160:
.LBI160:
	.loc 2 152 19 view .LVU636
.LBB161:
	.loc 2 159 5 view .LVU637
	.loc 2 160 5 view .LVU638
	.loc 2 162 5 view .LVU639
	.loc 2 162 18 is_stmt 0 view .LVU640
	sub	r0, r0, #9472
.LVL196:
	.loc 2 162 18 view .LVU641
.LBE161:
.LBE160:
	.loc 1 1744 17 view .LVU642
	b	.L156
.LVL197:
.L169:
	.loc 1 1721 9 is_stmt 1 view .LVU643
.LBB162:
.LBI162:
	.loc 2 152 19 view .LVU644
.LBB163:
	.loc 2 159 5 view .LVU645
	.loc 2 160 5 view .LVU646
	.loc 2 162 5 view .LVU647
	.loc 2 162 18 is_stmt 0 view .LVU648
	sub	r0, r0, #9472
.LVL198:
.L156:
	.loc 2 162 18 view .LVU649
.LBE163:
.LBE162:
	.loc 1 1780 1 view .LVU650
	add	sp, sp, #12
	.cfi_remember_state
	.cfi_def_cfa_offset 12
	@ sp needed
	pop	{r4, r5, pc}
.LVL199:
.L159:
	.cfi_restore_state
	.loc 1 1732 9 is_stmt 1 discriminator 3 view .LVU651
	.loc 1 1732 15 is_stmt 0 discriminator 3 view .LVU652
	ldr	r0, .L174+4
	b	.L156
.L170:
	.loc 1 1737 9 is_stmt 1 view .LVU653
	movs	r1, #36
	mov	r0, r5
	bl	mbedtls_platform_zeroize
.LVL200:
	.loc 1 1738 9 view .LVU654
	.loc 2 159 5 view .LVU655
	.loc 2 160 5 view .LVU656
	.loc 2 162 5 view .LVU657
	.loc 1 1738 17 is_stmt 0 view .LVU658
	ldr	r0, .L174+8
	b	.L156
.LVL201:
.L162:
	.loc 1 1746 5 is_stmt 1 view .LVU659
	.loc 1 1746 17 is_stmt 0 view .LVU660
	movs	r3, #48
	add	r2, sp, #4
	mov	r1, r4
	mov	r0, sp
.LVL202:
	.loc 1 1746 17 view .LVU661
	bl	mbedtls_asn1_get_tag
.LVL203:
	.loc 1 1746 7 view .LVU662
	cbz	r0, .L163
	.loc 1 1748 8 is_stmt 1 view .LVU663
.LVL204:
.LBB164:
.LBI164:
	.loc 2 152 19 view .LVU664
.LBB165:
	.loc 2 159 5 view .LVU665
	.loc 2 160 5 view .LVU666
	.loc 2 162 5 view .LVU667
	.loc 2 162 18 is_stmt 0 view .LVU668
	sub	r0, r0, #9472
.LVL205:
	.loc 2 162 18 view .LVU669
.LBE165:
.LBE164:
	.loc 1 1748 16 view .LVU670
	b	.L156
.LVL206:
.L163:
	.loc 1 1750 5 is_stmt 1 view .LVU671
	.loc 1 1750 17 is_stmt 0 view .LVU672
	movs	r3, #6
	add	r2, sp, #4
	mov	r1, r4
	mov	r0, sp
.LVL207:
	.loc 1 1750 17 view .LVU673
	bl	mbedtls_asn1_get_tag
.LVL208:
	.loc 1 1750 7 view .LVU674
	cbnz	r0, .L171
	.loc 1 1753 5 is_stmt 1 view .LVU675
	.loc 1 1753 52 is_stmt 0 view .LVU676
	movs	r3, #6
	str	r3, [r5, #12]
	.loc 1 1754 5 is_stmt 1 view .LVU677
	.loc 1 1754 50 is_stmt 0 view .LVU678
	ldr	r3, [sp]
	str	r3, [r5, #20]
	.loc 1 1755 5 is_stmt 1 view .LVU679
	.loc 1 1755 52 is_stmt 0 view .LVU680
	ldr	r2, [sp, #4]
	str	r2, [r5, #16]
	.loc 1 1757 5 is_stmt 1 view .LVU681
	.loc 1 1757 11 is_stmt 0 view .LVU682
	add	r3, r3, r2
	.loc 1 1757 7 view .LVU683
	cmp	r3, r4
	bcs	.L172
	.loc 1 1763 5 is_stmt 1 view .LVU684
	.loc 1 1763 7 is_stmt 0 view .LVU685
	str	r3, [sp]
	.loc 1 1764 5 is_stmt 1 view .LVU686
	.loc 1 1764 17 is_stmt 0 view .LVU687
	movs	r3, #4
	add	r2, sp, r3
	mov	r1, r4
	mov	r0, sp
.LVL209:
	.loc 1 1764 17 view .LVU688
	bl	mbedtls_asn1_get_tag
.LVL210:
	.loc 1 1764 7 view .LVU689
	cbnz	r0, .L173
	.loc 1 1768 5 is_stmt 1 view .LVU690
	.loc 1 1768 52 is_stmt 0 view .LVU691
	movs	r3, #4
	str	r3, [r5, #24]
	.loc 1 1769 5 is_stmt 1 view .LVU692
	.loc 1 1769 50 is_stmt 0 view .LVU693
	ldr	r3, [sp]
	str	r3, [r5, #32]
	.loc 1 1770 5 is_stmt 1 view .LVU694
	.loc 1 1770 52 is_stmt 0 view .LVU695
	ldr	r2, [sp, #4]
	str	r2, [r5, #28]
	.loc 1 1771 5 is_stmt 1 view .LVU696
	.loc 1 1771 7 is_stmt 0 view .LVU697
	add	r3, r3, r2
	str	r3, [sp]
	.loc 1 1772 5 is_stmt 1 view .LVU698
	.loc 1 1772 7 is_stmt 0 view .LVU699
	cmp	r3, r4
	beq	.L156
	.loc 1 1774 9 is_stmt 1 view .LVU700
	movs	r1, #36
	mov	r0, r5
.LVL211:
	.loc 1 1774 9 is_stmt 0 view .LVU701
	bl	mbedtls_platform_zeroize
.LVL212:
	.loc 1 1776 9 is_stmt 1 view .LVU702
	.loc 2 159 5 view .LVU703
	.loc 2 160 5 view .LVU704
	.loc 2 162 5 view .LVU705
	.loc 1 1776 17 is_stmt 0 view .LVU706
	ldr	r0, .L174+8
	b	.L156
.LVL213:
.L171:
	.loc 1 1751 9 is_stmt 1 view .LVU707
.LBB166:
.LBI166:
	.loc 2 152 19 view .LVU708
.LBB167:
	.loc 2 159 5 view .LVU709
	.loc 2 160 5 view .LVU710
	.loc 2 162 5 view .LVU711
	.loc 2 162 18 is_stmt 0 view .LVU712
	sub	r0, r0, #9472
.LVL214:
	.loc 2 162 18 view .LVU713
.LBE167:
.LBE166:
	.loc 1 1751 17 view .LVU714
	b	.L156
.LVL215:
.L172:
	.loc 1 1759 9 is_stmt 1 view .LVU715
	movs	r1, #36
	mov	r0, r5
.LVL216:
	.loc 1 1759 9 is_stmt 0 view .LVU716
	bl	mbedtls_platform_zeroize
.LVL217:
	.loc 1 1760 9 is_stmt 1 view .LVU717
	.loc 2 159 5 view .LVU718
	.loc 2 160 5 view .LVU719
	.loc 2 162 5 view .LVU720
	.loc 1 1760 17 is_stmt 0 view .LVU721
	ldr	r0, .L174+8
	b	.L156
.LVL218:
.L173:
	.loc 1 1766 9 is_stmt 1 view .LVU722
.LBB168:
.LBI168:
	.loc 2 152 19 view .LVU723
.LBB169:
	.loc 2 159 5 view .LVU724
	.loc 2 160 5 view .LVU725
	.loc 2 162 5 view .LVU726
	.loc 2 162 18 is_stmt 0 view .LVU727
	sub	r0, r0, #9472
.LVL219:
	.loc 2 162 18 view .LVU728
.LBE169:
.LBE168:
	.loc 1 1766 17 view .LVU729
	b	.L156
.LVL220:
.L167:
	.loc 1 1716 15 view .LVU730
	ldr	r0, .L174+12
.LVL221:
	.loc 1 1716 15 view .LVU731
	b	.L156
.L175:
	.align	2
.L174:
	.word	.LC1
	.word	-8320
	.word	-9574
	.word	-10240
	.cfi_endproc
.LFE52:
	.size	x509_get_other_name, .-x509_get_other_name
	.section	.rodata.x509_info_cert_type.str1.4,"aMS",%progbits,1
	.align	2
.LC2:
	.ascii	", \000"
	.align	2
.LC3:
	.ascii	"\000"
	.align	2
.LC4:
	.ascii	"%sSSL Client\000"
	.align	2
.LC5:
	.ascii	"%sSSL Server\000"
	.align	2
.LC6:
	.ascii	"%sEmail\000"
	.align	2
.LC7:
	.ascii	"%sObject Signing\000"
	.align	2
.LC8:
	.ascii	"%sReserved\000"
	.align	2
.LC9:
	.ascii	"%sSSL CA\000"
	.align	2
.LC10:
	.ascii	"%sEmail CA\000"
	.align	2
.LC11:
	.ascii	"%sObject Signing CA\000"
	.section	.text.x509_info_cert_type,"ax",%progbits
	.align	1
	.syntax unified
	.thumb
	.thumb_func
	.fpu fpv4-sp-d16
	.type	x509_info_cert_type, %function
x509_info_cert_type:
.LVL222:
.LFB55:
	.loc 1 1959 1 is_stmt 1 view -0
	.cfi_startproc
	@ args = 0, pretend = 0, frame = 0
	@ frame_needed = 0, uses_anonymous_args = 0
	.loc 1 1959 1 is_stmt 0 view .LVU733
	push	{r4, r5, r6, r7, r8, lr}
	.cfi_def_cfa_offset 24
	.cfi_offset 4, -24
	.cfi_offset 5, -20
	.cfi_offset 6, -16
	.cfi_offset 7, -12
	.cfi_offset 8, -8
	.cfi_offset 14, -4
	mov	r7, r0
	mov	r8, r1
	mov	r5, r2
	.loc 1 1960 5 is_stmt 1 view .LVU734
.LVL223:
	.loc 1 1961 5 view .LVU735
	.loc 1 1961 12 is_stmt 0 view .LVU736
	ldr	r4, [r1]
.LVL224:
	.loc 1 1962 5 is_stmt 1 view .LVU737
	.loc 1 1962 11 is_stmt 0 view .LVU738
	ldr	r6, [r0]
.LVL225:
	.loc 1 1963 5 is_stmt 1 view .LVU739
	.loc 1 1965 5 view .LVU740
	.loc 1 1965 7 is_stmt 0 view .LVU741
	tst	r2, #128
	bne	.L204
	.loc 1 1963 17 view .LVU742
	ldr	r3, .L212
.LVL226:
.L177:
	.loc 1 1965 130 is_stmt 1 discriminator 7 view .LVU743
	.loc 1 1965 131 discriminator 7 view .LVU744
	.loc 1 1966 5 discriminator 7 view .LVU745
	.loc 1 1966 7 is_stmt 0 discriminator 7 view .LVU746
	tst	r5, #64
	bne	.L205
.LVL227:
.L179:
	.loc 1 1966 130 is_stmt 1 discriminator 7 view .LVU747
	.loc 1 1966 131 discriminator 7 view .LVU748
	.loc 1 1967 5 discriminator 7 view .LVU749
	.loc 1 1967 7 is_stmt 0 discriminator 7 view .LVU750
	tst	r5, #32
	bne	.L206
.LVL228:
.L180:
	.loc 1 1967 130 is_stmt 1 discriminator 7 view .LVU751
	.loc 1 1967 131 discriminator 7 view .LVU752
	.loc 1 1968 5 discriminator 7 view .LVU753
	.loc 1 1968 7 is_stmt 0 discriminator 7 view .LVU754
	tst	r5, #16
	bne	.L207
.LVL229:
.L181:
	.loc 1 1968 130 is_stmt 1 discriminator 7 view .LVU755
	.loc 1 1968 131 discriminator 7 view .LVU756
	.loc 1 1969 5 discriminator 7 view .LVU757
	.loc 1 1969 7 is_stmt 0 discriminator 7 view .LVU758
	tst	r5, #8
	bne	.L208
.LVL230:
.L182:
	.loc 1 1969 130 is_stmt 1 discriminator 7 view .LVU759
	.loc 1 1969 131 discriminator 7 view .LVU760
	.loc 1 1970 5 discriminator 7 view .LVU761
	.loc 1 1970 7 is_stmt 0 discriminator 7 view .LVU762
	tst	r5, #4
	bne	.L209
.LVL231:
.L183:
	.loc 1 1970 130 is_stmt 1 discriminator 7 view .LVU763
	.loc 1 1970 131 discriminator 7 view .LVU764
	.loc 1 1971 5 discriminator 7 view .LVU765
	.loc 1 1971 7 is_stmt 0 discriminator 7 view .LVU766
	tst	r5, #2
	bne	.L210
.LVL232:
.L184:
	.loc 1 1971 130 is_stmt 1 discriminator 7 view .LVU767
	.loc 1 1971 131 discriminator 7 view .LVU768
	.loc 1 1972 5 discriminator 7 view .LVU769
	.loc 1 1972 7 is_stmt 0 discriminator 7 view .LVU770
	tst	r5, #1
	bne	.L211
.LVL233:
.L185:
	.loc 1 1972 130 is_stmt 1 discriminator 7 view .LVU771
	.loc 1 1972 131 discriminator 7 view .LVU772
	.loc 1 1974 5 discriminator 7 view .LVU773
	.loc 1 1974 11 is_stmt 0 discriminator 7 view .LVU774
	str	r4, [r8]
	.loc 1 1975 5 is_stmt 1 discriminator 7 view .LVU775
	.loc 1 1975 10 is_stmt 0 discriminator 7 view .LVU776
	str	r6, [r7]
	.loc 1 1977 5 is_stmt 1 discriminator 7 view .LVU777
	.loc 1 1977 11 is_stmt 0 discriminator 7 view .LVU778
	movs	r0, #0
.L176:
	.loc 1 1978 1 view .LVU779
	pop	{r4, r5, r6, r7, r8, pc}
.LVL234:
.L204:
	.loc 1 1965 37 is_stmt 1 discriminator 1 view .LVU780
	.loc 1 1965 4 is_stmt 0 discriminator 1 view .LVU781
	ldr	r3, .L212
	ldr	r2, .L212+4
.LVL235:
	.loc 1 1965 4 discriminator 1 view .LVU782
	mov	r1, r4
.LVL236:
	.loc 1 1965 4 discriminator 1 view .LVU783
	mov	r0, r6
.LVL237:
	.loc 1 1965 4 discriminator 1 view .LVU784
	bl	snprintf
.LVL238:
	.loc 1 1965 6 is_stmt 1 discriminator 1 view .LVU785
	.loc 1 1965 11 discriminator 1 view .LVU786
	.loc 1 1965 13 is_stmt 0 discriminator 1 view .LVU787
	cmp	r0, #0
	.loc 1 1965 13 discriminator 1 view .LVU788
	blt	.L187
	.loc 1 1965 23 discriminator 4 view .LVU789
	cmp	r0, r4
	bcs	.L188
	.loc 1 1965 65 is_stmt 1 discriminator 6 view .LVU790
	.loc 1 1965 67 is_stmt 0 discriminator 6 view .LVU791
	subs	r4, r4, r0
.LVL239:
	.loc 1 1965 84 is_stmt 1 discriminator 6 view .LVU792
	.loc 1 1965 86 is_stmt 0 discriminator 6 view .LVU793
	add	r6, r6, r0
.LVL240:
	.loc 1 1965 110 is_stmt 1 discriminator 6 view .LVU794
	.loc 1 1965 117 discriminator 6 view .LVU795
	.loc 1 1965 121 is_stmt 0 discriminator 6 view .LVU796
	ldr	r3, .L212+8
	b	.L177
.LVL241:
.L205:
	.loc 1 1966 37 is_stmt 1 discriminator 1 view .LVU797
	.loc 1 1966 4 is_stmt 0 discriminator 1 view .LVU798
	ldr	r2, .L212+12
	mov	r1, r4
	mov	r0, r6
	bl	snprintf
.LVL242:
	.loc 1 1966 6 is_stmt 1 discriminator 1 view .LVU799
	.loc 1 1966 11 discriminator 1 view .LVU800
	.loc 1 1966 13 is_stmt 0 discriminator 1 view .LVU801
	cmp	r0, #0
	.loc 1 1966 13 discriminator 1 view .LVU802
	blt	.L189
	.loc 1 1966 23 discriminator 4 view .LVU803
	cmp	r0, r4
	bcs	.L190
	.loc 1 1966 65 is_stmt 1 discriminator 6 view .LVU804
	.loc 1 1966 67 is_stmt 0 discriminator 6 view .LVU805
	subs	r4, r4, r0
.LVL243:
	.loc 1 1966 84 is_stmt 1 discriminator 6 view .LVU806
	.loc 1 1966 86 is_stmt 0 discriminator 6 view .LVU807
	add	r6, r6, r0
.LVL244:
	.loc 1 1966 110 is_stmt 1 discriminator 6 view .LVU808
	.loc 1 1966 117 discriminator 6 view .LVU809
	.loc 1 1966 121 is_stmt 0 discriminator 6 view .LVU810
	ldr	r3, .L212+8
	b	.L179
.LVL245:
.L206:
	.loc 1 1967 37 is_stmt 1 discriminator 1 view .LVU811
	.loc 1 1967 4 is_stmt 0 discriminator 1 view .LVU812
	ldr	r2, .L212+16
	mov	r1, r4
	mov	r0, r6
	bl	snprintf
.LVL246:
	.loc 1 1967 6 is_stmt 1 discriminator 1 view .LVU813
	.loc 1 1967 11 discriminator 1 view .LVU814
	.loc 1 1967 13 is_stmt 0 discriminator 1 view .LVU815
	cmp	r0, #0
	.loc 1 1967 13 discriminator 1 view .LVU816
	blt	.L191
	.loc 1 1967 23 discriminator 4 view .LVU817
	cmp	r0, r4
	bcs	.L192
	.loc 1 1967 65 is_stmt 1 discriminator 6 view .LVU818
	.loc 1 1967 67 is_stmt 0 discriminator 6 view .LVU819
	subs	r4, r4, r0
.LVL247:
	.loc 1 1967 84 is_stmt 1 discriminator 6 view .LVU820
	.loc 1 1967 86 is_stmt 0 discriminator 6 view .LVU821
	add	r6, r6, r0
.LVL248:
	.loc 1 1967 110 is_stmt 1 discriminator 6 view .LVU822
	.loc 1 1967 117 discriminator 6 view .LVU823
	.loc 1 1967 121 is_stmt 0 discriminator 6 view .LVU824
	ldr	r3, .L212+8
	b	.L180
.LVL249:
.L207:
	.loc 1 1968 37 is_stmt 1 discriminator 1 view .LVU825
	.loc 1 1968 4 is_stmt 0 discriminator 1 view .LVU826
	ldr	r2, .L212+20
	mov	r1, r4
	mov	r0, r6
	bl	snprintf
.LVL250:
	.loc 1 1968 6 is_stmt 1 discriminator 1 view .LVU827
	.loc 1 1968 11 discriminator 1 view .LVU828
	.loc 1 1968 13 is_stmt 0 discriminator 1 view .LVU829
	cmp	r0, #0
	.loc 1 1968 13 discriminator 1 view .LVU830
	blt	.L193
	.loc 1 1968 23 discriminator 4 view .LVU831
	cmp	r0, r4
	bcs	.L194
	.loc 1 1968 65 is_stmt 1 discriminator 6 view .LVU832
	.loc 1 1968 67 is_stmt 0 discriminator 6 view .LVU833
	subs	r4, r4, r0
.LVL251:
	.loc 1 1968 84 is_stmt 1 discriminator 6 view .LVU834
	.loc 1 1968 86 is_stmt 0 discriminator 6 view .LVU835
	add	r6, r6, r0
.LVL252:
	.loc 1 1968 110 is_stmt 1 discriminator 6 view .LVU836
	.loc 1 1968 117 discriminator 6 view .LVU837
	.loc 1 1968 121 is_stmt 0 discriminator 6 view .LVU838
	ldr	r3, .L212+8
	b	.L181
.LVL253:
.L208:
	.loc 1 1969 37 is_stmt 1 discriminator 1 view .LVU839
	.loc 1 1969 4 is_stmt 0 discriminator 1 view .LVU840
	ldr	r2, .L212+24
	mov	r1, r4
	mov	r0, r6
	bl	snprintf
.LVL254:
	.loc 1 1969 6 is_stmt 1 discriminator 1 view .LVU841
	.loc 1 1969 11 discriminator 1 view .LVU842
	.loc 1 1969 13 is_stmt 0 discriminator 1 view .LVU843
	cmp	r0, #0
	.loc 1 1969 13 discriminator 1 view .LVU844
	blt	.L195
	.loc 1 1969 23 discriminator 4 view .LVU845
	cmp	r0, r4
	bcs	.L196
	.loc 1 1969 65 is_stmt 1 discriminator 6 view .LVU846
	.loc 1 1969 67 is_stmt 0 discriminator 6 view .LVU847
	subs	r4, r4, r0
.LVL255:
	.loc 1 1969 84 is_stmt 1 discriminator 6 view .LVU848
	.loc 1 1969 86 is_stmt 0 discriminator 6 view .LVU849
	add	r6, r6, r0
.LVL256:
	.loc 1 1969 110 is_stmt 1 discriminator 6 view .LVU850
	.loc 1 1969 117 discriminator 6 view .LVU851
	.loc 1 1969 121 is_stmt 0 discriminator 6 view .LVU852
	ldr	r3, .L212+8
	b	.L182
.LVL257:
.L209:
	.loc 1 1970 37 is_stmt 1 discriminator 1 view .LVU853
	.loc 1 1970 4 is_stmt 0 discriminator 1 view .LVU854
	ldr	r2, .L212+28
	mov	r1, r4
	mov	r0, r6
	bl	snprintf
.LVL258:
	.loc 1 1970 6 is_stmt 1 discriminator 1 view .LVU855
	.loc 1 1970 11 discriminator 1 view .LVU856
	.loc 1 1970 13 is_stmt 0 discriminator 1 view .LVU857
	cmp	r0, #0
	.loc 1 1970 13 discriminator 1 view .LVU858
	blt	.L197
	.loc 1 1970 23 discriminator 4 view .LVU859
	cmp	r0, r4
	bcs	.L198
	.loc 1 1970 65 is_stmt 1 discriminator 6 view .LVU860
	.loc 1 1970 67 is_stmt 0 discriminator 6 view .LVU861
	subs	r4, r4, r0
.LVL259:
	.loc 1 1970 84 is_stmt 1 discriminator 6 view .LVU862
	.loc 1 1970 86 is_stmt 0 discriminator 6 view .LVU863
	add	r6, r6, r0
.LVL260:
	.loc 1 1970 110 is_stmt 1 discriminator 6 view .LVU864
	.loc 1 1970 117 discriminator 6 view .LVU865
	.loc 1 1970 121 is_stmt 0 discriminator 6 view .LVU866
	ldr	r3, .L212+8
	b	.L183
.LVL261:
.L210:
	.loc 1 1971 37 is_stmt 1 discriminator 1 view .LVU867
	.loc 1 1971 4 is_stmt 0 discriminator 1 view .LVU868
	ldr	r2, .L212+32
	mov	r1, r4
	mov	r0, r6
	bl	snprintf
.LVL262:
	.loc 1 1971 6 is_stmt 1 discriminator 1 view .LVU869
	.loc 1 1971 11 discriminator 1 view .LVU870
	.loc 1 1971 13 is_stmt 0 discriminator 1 view .LVU871
	cmp	r0, #0
	.loc 1 1971 13 discriminator 1 view .LVU872
	blt	.L199
	.loc 1 1971 23 discriminator 4 view .LVU873
	cmp	r0, r4
	bcs	.L200
	.loc 1 1971 65 is_stmt 1 discriminator 6 view .LVU874
	.loc 1 1971 67 is_stmt 0 discriminator 6 view .LVU875
	subs	r4, r4, r0
.LVL263:
	.loc 1 1971 84 is_stmt 1 discriminator 6 view .LVU876
	.loc 1 1971 86 is_stmt 0 discriminator 6 view .LVU877
	add	r6, r6, r0
.LVL264:
	.loc 1 1971 110 is_stmt 1 discriminator 6 view .LVU878
	.loc 1 1971 117 discriminator 6 view .LVU879
	.loc 1 1971 121 is_stmt 0 discriminator 6 view .LVU880
	ldr	r3, .L212+8
	b	.L184
.LVL265:
.L211:
	.loc 1 1972 37 is_stmt 1 discriminator 1 view .LVU881
	.loc 1 1972 4 is_stmt 0 discriminator 1 view .LVU882
	ldr	r2, .L212+36
	mov	r1, r4
	mov	r0, r6
	bl	snprintf
.LVL266:
	.loc 1 1972 6 is_stmt 1 discriminator 1 view .LVU883
	.loc 1 1972 11 discriminator 1 view .LVU884
	.loc 1 1972 13 is_stmt 0 discriminator 1 view .LVU885
	cmp	r0, #0
	.loc 1 1972 13 discriminator 1 view .LVU886
	blt	.L201
	.loc 1 1972 23 discriminator 4 view .LVU887
	cmp	r0, r4
	bcs	.L202
	.loc 1 1972 65 is_stmt 1 discriminator 6 view .LVU888
	.loc 1 1972 67 is_stmt 0 discriminator 6 view .LVU889
	subs	r4, r4, r0
.LVL267:
	.loc 1 1972 84 is_stmt 1 discriminator 6 view .LVU890
	.loc 1 1972 86 is_stmt 0 discriminator 6 view .LVU891
	add	r6, r6, r0
.LVL268:
	.loc 1 1972 110 is_stmt 1 discriminator 6 view .LVU892
	.loc 1 1972 117 discriminator 6 view .LVU893
	.loc 1 1972 117 is_stmt 0 discriminator 6 view .LVU894
	b	.L185
.LVL269:
.L187:
	.loc 1 1965 52 view .LVU895
	ldr	r0, .L212+40
.LVL270:
	.loc 1 1965 52 view .LVU896
	b	.L176
.LVL271:
.L188:
	.loc 1 1965 52 view .LVU897
	ldr	r0, .L212+40
.LVL272:
	.loc 1 1965 52 view .LVU898
	b	.L176
.LVL273:
.L189:
	.loc 1 1966 52 view .LVU899
	ldr	r0, .L212+40
.LVL274:
	.loc 1 1966 52 view .LVU900
	b	.L176
.LVL275:
.L190:
	.loc 1 1966 52 view .LVU901
	ldr	r0, .L212+40
.LVL276:
	.loc 1 1966 52 view .LVU902
	b	.L176
.LVL277:
.L191:
	.loc 1 1967 52 view .LVU903
	ldr	r0, .L212+40
.LVL278:
	.loc 1 1967 52 view .LVU904
	b	.L176
.LVL279:
.L192:
	.loc 1 1967 52 view .LVU905
	ldr	r0, .L212+40
.LVL280:
	.loc 1 1967 52 view .LVU906
	b	.L176
.LVL281:
.L193:
	.loc 1 1968 52 view .LVU907
	ldr	r0, .L212+40
.LVL282:
	.loc 1 1968 52 view .LVU908
	b	.L176
.LVL283:
.L194:
	.loc 1 1968 52 view .LVU909
	ldr	r0, .L212+40
.LVL284:
	.loc 1 1968 52 view .LVU910
	b	.L176
.LVL285:
.L195:
	.loc 1 1969 52 view .LVU911
	ldr	r0, .L212+40
.LVL286:
	.loc 1 1969 52 view .LVU912
	b	.L176
.LVL287:
.L196:
	.loc 1 1969 52 view .LVU913
	ldr	r0, .L212+40
.LVL288:
	.loc 1 1969 52 view .LVU914
	b	.L176
.LVL289:
.L197:
	.loc 1 1970 52 view .LVU915
	ldr	r0, .L212+40
.LVL290:
	.loc 1 1970 52 view .LVU916
	b	.L176
.LVL291:
.L198:
	.loc 1 1970 52 view .LVU917
	ldr	r0, .L212+40
.LVL292:
	.loc 1 1970 52 view .LVU918
	b	.L176
.LVL293:
.L199:
	.loc 1 1971 52 view .LVU919
	ldr	r0, .L212+40
.LVL294:
	.loc 1 1971 52 view .LVU920
	b	.L176
.LVL295:
.L200:
	.loc 1 1971 52 view .LVU921
	ldr	r0, .L212+40
.LVL296:
	.loc 1 1971 52 view .LVU922
	b	.L176
.LVL297:
.L201:
	.loc 1 1972 52 view .LVU923
	ldr	r0, .L212+40
.LVL298:
	.loc 1 1972 52 view .LVU924
	b	.L176
.LVL299:
.L202:
	.loc 1 1972 52 view .LVU925
	ldr	r0, .L212+40
.LVL300:
	.loc 1 1972 52 view .LVU926
	b	.L176
.L213:
	.align	2
.L212:
	.word	.LC3
	.word	.LC4
	.word	.LC2
	.word	.LC5
	.word	.LC6
	.word	.LC7
	.word	.LC8
	.word	.LC9
	.word	.LC10
	.word	.LC11
	.word	-10624
	.cfi_endproc
.LFE55:
	.size	x509_info_cert_type, .-x509_info_cert_type
	.section	.rodata.x509_info_key_usage.str1.4,"aMS",%progbits,1
	.align	2
.LC12:
	.ascii	"%sDigital Signature\000"
	.align	2
.LC13:
	.ascii	"%sNon Repudiation\000"
	.align	2
.LC14:
	.ascii	"%sKey Encipherment\000"
	.align	2
.LC15:
	.ascii	"%sData Encipherment\000"
	.align	2
.LC16:
	.ascii	"%sKey Agreement\000"
	.align	2
.LC17:
	.ascii	"%sKey Cert Sign\000"
	.align	2
.LC18:
	.ascii	"%sCRL Sign\000"
	.align	2
.LC19:
	.ascii	"%sEncipher Only\000"
	.align	2
.LC20:
	.ascii	"%sDecipher Only\000"
	.section	.text.x509_info_key_usage,"ax",%progbits
	.align	1
	.syntax unified
	.thumb
	.thumb_func
	.fpu fpv4-sp-d16
	.type	x509_info_key_usage, %function
x509_info_key_usage:
.LVL301:
.LFB56:
	.loc 1 1986 1 is_stmt 1 view -0
	.cfi_startproc
	@ args = 0, pretend = 0, frame = 0
	@ frame_needed = 0, uses_anonymous_args = 0
	.loc 1 1986 1 is_stmt 0 view .LVU928
	push	{r4, r5, r6, r7, r8, lr}
	.cfi_def_cfa_offset 24
	.cfi_offset 4, -24
	.cfi_offset 5, -20
	.cfi_offset 6, -16
	.cfi_offset 7, -12
	.cfi_offset 8, -8
	.cfi_offset 14, -4
	mov	r7, r0
	mov	r8, r1
	mov	r5, r2
	.loc 1 1987 5 is_stmt 1 view .LVU929
.LVL302:
	.loc 1 1988 5 view .LVU930
	.loc 1 1988 12 is_stmt 0 view .LVU931
	ldr	r4, [r1]
.LVL303:
	.loc 1 1989 5 is_stmt 1 view .LVU932
	.loc 1 1989 11 is_stmt 0 view .LVU933
	ldr	r6, [r0]
.LVL304:
	.loc 1 1990 5 is_stmt 1 view .LVU934
	.loc 1 1992 5 view .LVU935
	.loc 1 1992 7 is_stmt 0 view .LVU936
	tst	r2, #128
	bne	.L245
	.loc 1 1990 17 view .LVU937
	ldr	r3, .L254
.LVL305:
.L215:
	.loc 1 1992 130 is_stmt 1 discriminator 7 view .LVU938
	.loc 1 1992 131 discriminator 7 view .LVU939
	.loc 1 1993 5 discriminator 7 view .LVU940
	.loc 1 1993 7 is_stmt 0 discriminator 7 view .LVU941
	tst	r5, #64
	bne	.L246
.LVL306:
.L217:
	.loc 1 1993 130 is_stmt 1 discriminator 7 view .LVU942
	.loc 1 1993 131 discriminator 7 view .LVU943
	.loc 1 1994 5 discriminator 7 view .LVU944
	.loc 1 1994 7 is_stmt 0 discriminator 7 view .LVU945
	tst	r5, #32
	bne	.L247
.LVL307:
.L218:
	.loc 1 1994 130 is_stmt 1 discriminator 7 view .LVU946
	.loc 1 1994 131 discriminator 7 view .LVU947
	.loc 1 1995 5 discriminator 7 view .LVU948
	.loc 1 1995 7 is_stmt 0 discriminator 7 view .LVU949
	tst	r5, #16
	bne	.L248
.LVL308:
.L219:
	.loc 1 1995 130 is_stmt 1 discriminator 7 view .LVU950
	.loc 1 1995 131 discriminator 7 view .LVU951
	.loc 1 1996 5 discriminator 7 view .LVU952
	.loc 1 1996 7 is_stmt 0 discriminator 7 view .LVU953
	tst	r5, #8
	bne	.L249
.LVL309:
.L220:
	.loc 1 1996 130 is_stmt 1 discriminator 7 view .LVU954
	.loc 1 1996 131 discriminator 7 view .LVU955
	.loc 1 1997 5 discriminator 7 view .LVU956
	.loc 1 1997 7 is_stmt 0 discriminator 7 view .LVU957
	tst	r5, #4
	bne	.L250
.LVL310:
.L221:
	.loc 1 1997 130 is_stmt 1 discriminator 7 view .LVU958
	.loc 1 1997 131 discriminator 7 view .LVU959
	.loc 1 1998 5 discriminator 7 view .LVU960
	.loc 1 1998 7 is_stmt 0 discriminator 7 view .LVU961
	tst	r5, #2
	bne	.L251
.LVL311:
.L222:
	.loc 1 1998 130 is_stmt 1 discriminator 7 view .LVU962
	.loc 1 1998 131 discriminator 7 view .LVU963
	.loc 1 1999 5 discriminator 7 view .LVU964
	.loc 1 1999 7 is_stmt 0 discriminator 7 view .LVU965
	tst	r5, #1
	bne	.L252
.LVL312:
.L223:
	.loc 1 1999 130 is_stmt 1 discriminator 7 view .LVU966
	.loc 1 1999 131 discriminator 7 view .LVU967
	.loc 1 2000 5 discriminator 7 view .LVU968
	.loc 1 2000 7 is_stmt 0 discriminator 7 view .LVU969
	tst	r5, #32768
	bne	.L253
.LVL313:
.L224:
	.loc 1 2000 130 is_stmt 1 discriminator 7 view .LVU970
	.loc 1 2000 131 discriminator 7 view .LVU971
	.loc 1 2002 5 discriminator 7 view .LVU972
	.loc 1 2002 11 is_stmt 0 discriminator 7 view .LVU973
	str	r4, [r8]
	.loc 1 2003 5 is_stmt 1 discriminator 7 view .LVU974
	.loc 1 2003 10 is_stmt 0 discriminator 7 view .LVU975
	str	r6, [r7]
	.loc 1 2005 5 is_stmt 1 discriminator 7 view .LVU976
	.loc 1 2005 11 is_stmt 0 discriminator 7 view .LVU977
	movs	r0, #0
.L214:
	.loc 1 2006 1 view .LVU978
	pop	{r4, r5, r6, r7, r8, pc}
.LVL314:
.L245:
	.loc 1 1992 34 is_stmt 1 discriminator 1 view .LVU979
	.loc 1 1992 4 is_stmt 0 discriminator 1 view .LVU980
	ldr	r3, .L254
	ldr	r2, .L254+4
.LVL315:
	.loc 1 1992 4 discriminator 1 view .LVU981
	mov	r1, r4
.LVL316:
	.loc 1 1992 4 discriminator 1 view .LVU982
	mov	r0, r6
.LVL317:
	.loc 1 1992 4 discriminator 1 view .LVU983
	bl	snprintf
.LVL318:
	.loc 1 1992 6 is_stmt 1 discriminator 1 view .LVU984
	.loc 1 1992 11 discriminator 1 view .LVU985
	.loc 1 1992 13 is_stmt 0 discriminator 1 view .LVU986
	cmp	r0, #0
	.loc 1 1992 13 discriminator 1 view .LVU987
	blt	.L226
	.loc 1 1992 23 discriminator 4 view .LVU988
	cmp	r0, r4
	bcs	.L227
	.loc 1 1992 65 is_stmt 1 discriminator 6 view .LVU989
	.loc 1 1992 67 is_stmt 0 discriminator 6 view .LVU990
	subs	r4, r4, r0
.LVL319:
	.loc 1 1992 84 is_stmt 1 discriminator 6 view .LVU991
	.loc 1 1992 86 is_stmt 0 discriminator 6 view .LVU992
	add	r6, r6, r0
.LVL320:
	.loc 1 1992 110 is_stmt 1 discriminator 6 view .LVU993
	.loc 1 1992 117 discriminator 6 view .LVU994
	.loc 1 1992 121 is_stmt 0 discriminator 6 view .LVU995
	ldr	r3, .L254+8
	b	.L215
.LVL321:
.L246:
	.loc 1 1993 34 is_stmt 1 discriminator 1 view .LVU996
	.loc 1 1993 4 is_stmt 0 discriminator 1 view .LVU997
	ldr	r2, .L254+12
	mov	r1, r4
	mov	r0, r6
	bl	snprintf
.LVL322:
	.loc 1 1993 6 is_stmt 1 discriminator 1 view .LVU998
	.loc 1 1993 11 discriminator 1 view .LVU999
	.loc 1 1993 13 is_stmt 0 discriminator 1 view .LVU1000
	cmp	r0, #0
	.loc 1 1993 13 discriminator 1 view .LVU1001
	blt	.L228
	.loc 1 1993 23 discriminator 4 view .LVU1002
	cmp	r0, r4
	bcs	.L229
	.loc 1 1993 65 is_stmt 1 discriminator 6 view .LVU1003
	.loc 1 1993 67 is_stmt 0 discriminator 6 view .LVU1004
	subs	r4, r4, r0
.LVL323:
	.loc 1 1993 84 is_stmt 1 discriminator 6 view .LVU1005
	.loc 1 1993 86 is_stmt 0 discriminator 6 view .LVU1006
	add	r6, r6, r0
.LVL324:
	.loc 1 1993 110 is_stmt 1 discriminator 6 view .LVU1007
	.loc 1 1993 117 discriminator 6 view .LVU1008
	.loc 1 1993 121 is_stmt 0 discriminator 6 view .LVU1009
	ldr	r3, .L254+8
	b	.L217
.LVL325:
.L247:
	.loc 1 1994 34 is_stmt 1 discriminator 1 view .LVU1010
	.loc 1 1994 4 is_stmt 0 discriminator 1 view .LVU1011
	ldr	r2, .L254+16
	mov	r1, r4
	mov	r0, r6
	bl	snprintf
.LVL326:
	.loc 1 1994 6 is_stmt 1 discriminator 1 view .LVU1012
	.loc 1 1994 11 discriminator 1 view .LVU1013
	.loc 1 1994 13 is_stmt 0 discriminator 1 view .LVU1014
	cmp	r0, #0
	.loc 1 1994 13 discriminator 1 view .LVU1015
	blt	.L230
	.loc 1 1994 23 discriminator 4 view .LVU1016
	cmp	r0, r4
	bcs	.L231
	.loc 1 1994 65 is_stmt 1 discriminator 6 view .LVU1017
	.loc 1 1994 67 is_stmt 0 discriminator 6 view .LVU1018
	subs	r4, r4, r0
.LVL327:
	.loc 1 1994 84 is_stmt 1 discriminator 6 view .LVU1019
	.loc 1 1994 86 is_stmt 0 discriminator 6 view .LVU1020
	add	r6, r6, r0
.LVL328:
	.loc 1 1994 110 is_stmt 1 discriminator 6 view .LVU1021
	.loc 1 1994 117 discriminator 6 view .LVU1022
	.loc 1 1994 121 is_stmt 0 discriminator 6 view .LVU1023
	ldr	r3, .L254+8
	b	.L218
.LVL329:
.L248:
	.loc 1 1995 34 is_stmt 1 discriminator 1 view .LVU1024
	.loc 1 1995 4 is_stmt 0 discriminator 1 view .LVU1025
	ldr	r2, .L254+20
	mov	r1, r4
	mov	r0, r6
	bl	snprintf
.LVL330:
	.loc 1 1995 6 is_stmt 1 discriminator 1 view .LVU1026
	.loc 1 1995 11 discriminator 1 view .LVU1027
	.loc 1 1995 13 is_stmt 0 discriminator 1 view .LVU1028
	cmp	r0, #0
	.loc 1 1995 13 discriminator 1 view .LVU1029
	blt	.L232
	.loc 1 1995 23 discriminator 4 view .LVU1030
	cmp	r0, r4
	bcs	.L233
	.loc 1 1995 65 is_stmt 1 discriminator 6 view .LVU1031
	.loc 1 1995 67 is_stmt 0 discriminator 6 view .LVU1032
	subs	r4, r4, r0
.LVL331:
	.loc 1 1995 84 is_stmt 1 discriminator 6 view .LVU1033
	.loc 1 1995 86 is_stmt 0 discriminator 6 view .LVU1034
	add	r6, r6, r0
.LVL332:
	.loc 1 1995 110 is_stmt 1 discriminator 6 view .LVU1035
	.loc 1 1995 117 discriminator 6 view .LVU1036
	.loc 1 1995 121 is_stmt 0 discriminator 6 view .LVU1037
	ldr	r3, .L254+8
	b	.L219
.LVL333:
.L249:
	.loc 1 1996 34 is_stmt 1 discriminator 1 view .LVU1038
	.loc 1 1996 4 is_stmt 0 discriminator 1 view .LVU1039
	ldr	r2, .L254+24
	mov	r1, r4
	mov	r0, r6
	bl	snprintf
.LVL334:
	.loc 1 1996 6 is_stmt 1 discriminator 1 view .LVU1040
	.loc 1 1996 11 discriminator 1 view .LVU1041
	.loc 1 1996 13 is_stmt 0 discriminator 1 view .LVU1042
	cmp	r0, #0
	.loc 1 1996 13 discriminator 1 view .LVU1043
	blt	.L234
	.loc 1 1996 23 discriminator 4 view .LVU1044
	cmp	r0, r4
	bcs	.L235
	.loc 1 1996 65 is_stmt 1 discriminator 6 view .LVU1045
	.loc 1 1996 67 is_stmt 0 discriminator 6 view .LVU1046
	subs	r4, r4, r0
.LVL335:
	.loc 1 1996 84 is_stmt 1 discriminator 6 view .LVU1047
	.loc 1 1996 86 is_stmt 0 discriminator 6 view .LVU1048
	add	r6, r6, r0
.LVL336:
	.loc 1 1996 110 is_stmt 1 discriminator 6 view .LVU1049
	.loc 1 1996 117 discriminator 6 view .LVU1050
	.loc 1 1996 121 is_stmt 0 discriminator 6 view .LVU1051
	ldr	r3, .L254+8
	b	.L220
.LVL337:
.L250:
	.loc 1 1997 34 is_stmt 1 discriminator 1 view .LVU1052
	.loc 1 1997 4 is_stmt 0 discriminator 1 view .LVU1053
	ldr	r2, .L254+28
	mov	r1, r4
	mov	r0, r6
	bl	snprintf
.LVL338:
	.loc 1 1997 6 is_stmt 1 discriminator 1 view .LVU1054
	.loc 1 1997 11 discriminator 1 view .LVU1055
	.loc 1 1997 13 is_stmt 0 discriminator 1 view .LVU1056
	cmp	r0, #0
	.loc 1 1997 13 discriminator 1 view .LVU1057
	blt	.L236
	.loc 1 1997 23 discriminator 4 view .LVU1058
	cmp	r0, r4
	bcs	.L237
	.loc 1 1997 65 is_stmt 1 discriminator 6 view .LVU1059
	.loc 1 1997 67 is_stmt 0 discriminator 6 view .LVU1060
	subs	r4, r4, r0
.LVL339:
	.loc 1 1997 84 is_stmt 1 discriminator 6 view .LVU1061
	.loc 1 1997 86 is_stmt 0 discriminator 6 view .LVU1062
	add	r6, r6, r0
.LVL340:
	.loc 1 1997 110 is_stmt 1 discriminator 6 view .LVU1063
	.loc 1 1997 117 discriminator 6 view .LVU1064
	.loc 1 1997 121 is_stmt 0 discriminator 6 view .LVU1065
	ldr	r3, .L254+8
	b	.L221
.LVL341:
.L251:
	.loc 1 1998 34 is_stmt 1 discriminator 1 view .LVU1066
	.loc 1 1998 4 is_stmt 0 discriminator 1 view .LVU1067
	ldr	r2, .L254+32
	mov	r1, r4
	mov	r0, r6
	bl	snprintf
.LVL342:
	.loc 1 1998 6 is_stmt 1 discriminator 1 view .LVU1068
	.loc 1 1998 11 discriminator 1 view .LVU1069
	.loc 1 1998 13 is_stmt 0 discriminator 1 view .LVU1070
	cmp	r0, #0
	.loc 1 1998 13 discriminator 1 view .LVU1071
	blt	.L238
	.loc 1 1998 23 discriminator 4 view .LVU1072
	cmp	r0, r4
	bcs	.L239
	.loc 1 1998 65 is_stmt 1 discriminator 6 view .LVU1073
	.loc 1 1998 67 is_stmt 0 discriminator 6 view .LVU1074
	subs	r4, r4, r0
.LVL343:
	.loc 1 1998 84 is_stmt 1 discriminator 6 view .LVU1075
	.loc 1 1998 86 is_stmt 0 discriminator 6 view .LVU1076
	add	r6, r6, r0
.LVL344:
	.loc 1 1998 110 is_stmt 1 discriminator 6 view .LVU1077
	.loc 1 1998 117 discriminator 6 view .LVU1078
	.loc 1 1998 121 is_stmt 0 discriminator 6 view .LVU1079
	ldr	r3, .L254+8
	b	.L222
.LVL345:
.L252:
	.loc 1 1999 34 is_stmt 1 discriminator 1 view .LVU1080
	.loc 1 1999 4 is_stmt 0 discriminator 1 view .LVU1081
	ldr	r2, .L254+36
	mov	r1, r4
	mov	r0, r6
	bl	snprintf
.LVL346:
	.loc 1 1999 6 is_stmt 1 discriminator 1 view .LVU1082
	.loc 1 1999 11 discriminator 1 view .LVU1083
	.loc 1 1999 13 is_stmt 0 discriminator 1 view .LVU1084
	cmp	r0, #0
	.loc 1 1999 13 discriminator 1 view .LVU1085
	blt	.L240
	.loc 1 1999 23 discriminator 4 view .LVU1086
	cmp	r0, r4
	bcs	.L241
	.loc 1 1999 65 is_stmt 1 discriminator 6 view .LVU1087
	.loc 1 1999 67 is_stmt 0 discriminator 6 view .LVU1088
	subs	r4, r4, r0
.LVL347:
	.loc 1 1999 84 is_stmt 1 discriminator 6 view .LVU1089
	.loc 1 1999 86 is_stmt 0 discriminator 6 view .LVU1090
	add	r6, r6, r0
.LVL348:
	.loc 1 1999 110 is_stmt 1 discriminator 6 view .LVU1091
	.loc 1 1999 117 discriminator 6 view .LVU1092
	.loc 1 1999 121 is_stmt 0 discriminator 6 view .LVU1093
	ldr	r3, .L254+8
	b	.L223
.LVL349:
.L253:
	.loc 1 2000 36 is_stmt 1 discriminator 1 view .LVU1094
	.loc 1 2000 4 is_stmt 0 discriminator 1 view .LVU1095
	ldr	r2, .L254+40
	mov	r1, r4
	mov	r0, r6
	bl	snprintf
.LVL350:
	.loc 1 2000 6 is_stmt 1 discriminator 1 view .LVU1096
	.loc 1 2000 11 discriminator 1 view .LVU1097
	.loc 1 2000 13 is_stmt 0 discriminator 1 view .LVU1098
	cmp	r0, #0
	.loc 1 2000 13 discriminator 1 view .LVU1099
	blt	.L242
	.loc 1 2000 23 discriminator 4 view .LVU1100
	cmp	r0, r4
	bcs	.L243
	.loc 1 2000 65 is_stmt 1 discriminator 6 view .LVU1101
	.loc 1 2000 67 is_stmt 0 discriminator 6 view .LVU1102
	subs	r4, r4, r0
.LVL351:
	.loc 1 2000 84 is_stmt 1 discriminator 6 view .LVU1103
	.loc 1 2000 86 is_stmt 0 discriminator 6 view .LVU1104
	add	r6, r6, r0
.LVL352:
	.loc 1 2000 110 is_stmt 1 discriminator 6 view .LVU1105
	.loc 1 2000 117 discriminator 6 view .LVU1106
	.loc 1 2000 117 is_stmt 0 discriminator 6 view .LVU1107
	b	.L224
.LVL353:
.L226:
	.loc 1 1992 52 view .LVU1108
	ldr	r0, .L254+44
.LVL354:
	.loc 1 1992 52 view .LVU1109
	b	.L214
.LVL355:
.L227:
	.loc 1 1992 52 view .LVU1110
	ldr	r0, .L254+44
.LVL356:
	.loc 1 1992 52 view .LVU1111
	b	.L214
.LVL357:
.L228:
	.loc 1 1993 52 view .LVU1112
	ldr	r0, .L254+44
.LVL358:
	.loc 1 1993 52 view .LVU1113
	b	.L214
.LVL359:
.L229:
	.loc 1 1993 52 view .LVU1114
	ldr	r0, .L254+44
.LVL360:
	.loc 1 1993 52 view .LVU1115
	b	.L214
.LVL361:
.L230:
	.loc 1 1994 52 view .LVU1116
	ldr	r0, .L254+44
.LVL362:
	.loc 1 1994 52 view .LVU1117
	b	.L214
.LVL363:
.L231:
	.loc 1 1994 52 view .LVU1118
	ldr	r0, .L254+44
.LVL364:
	.loc 1 1994 52 view .LVU1119
	b	.L214
.LVL365:
.L232:
	.loc 1 1995 52 view .LVU1120
	ldr	r0, .L254+44
.LVL366:
	.loc 1 1995 52 view .LVU1121
	b	.L214
.LVL367:
.L233:
	.loc 1 1995 52 view .LVU1122
	ldr	r0, .L254+44
.LVL368:
	.loc 1 1995 52 view .LVU1123
	b	.L214
.LVL369:
.L234:
	.loc 1 1996 52 view .LVU1124
	ldr	r0, .L254+44
.LVL370:
	.loc 1 1996 52 view .LVU1125
	b	.L214
.LVL371:
.L235:
	.loc 1 1996 52 view .LVU1126
	ldr	r0, .L254+44
.LVL372:
	.loc 1 1996 52 view .LVU1127
	b	.L214
.LVL373:
.L236:
	.loc 1 1997 52 view .LVU1128
	ldr	r0, .L254+44
.LVL374:
	.loc 1 1997 52 view .LVU1129
	b	.L214
.LVL375:
.L237:
	.loc 1 1997 52 view .LVU1130
	ldr	r0, .L254+44
.LVL376:
	.loc 1 1997 52 view .LVU1131
	b	.L214
.LVL377:
.L238:
	.loc 1 1998 52 view .LVU1132
	ldr	r0, .L254+44
.LVL378:
	.loc 1 1998 52 view .LVU1133
	b	.L214
.LVL379:
.L239:
	.loc 1 1998 52 view .LVU1134
	ldr	r0, .L254+44
.LVL380:
	.loc 1 1998 52 view .LVU1135
	b	.L214
.LVL381:
.L240:
	.loc 1 1999 52 view .LVU1136
	ldr	r0, .L254+44
.LVL382:
	.loc 1 1999 52 view .LVU1137
	b	.L214
.LVL383:
.L241:
	.loc 1 1999 52 view .LVU1138
	ldr	r0, .L254+44
.LVL384:
	.loc 1 1999 52 view .LVU1139
	b	.L214
.LVL385:
.L242:
	.loc 1 2000 52 view .LVU1140
	ldr	r0, .L254+44
.LVL386:
	.loc 1 2000 52 view .LVU1141
	b	.L214
.LVL387:
.L243:
	.loc 1 2000 52 view .LVU1142
	ldr	r0, .L254+44
.LVL388:
	.loc 1 2000 52 view .LVU1143
	b	.L214
.L255:
	.align	2
.L254:
	.word	.LC3
	.word	.LC12
	.word	.LC2
	.word	.LC13
	.word	.LC14
	.word	.LC15
	.word	.LC16
	.word	.LC17
	.word	.LC18
	.word	.LC19
	.word	.LC20
	.word	-10624
	.cfi_endproc
.LFE56:
	.size	x509_info_key_usage, .-x509_info_key_usage
	.section	.rodata.x509_info_ext_key_usage.str1.4,"aMS",%progbits,1
	.align	2
.LC21:
	.ascii	"???\000"
	.align	2
.LC22:
	.ascii	"%s%s\000"
	.section	.text.x509_info_ext_key_usage,"ax",%progbits
	.align	1
	.syntax unified
	.thumb
	.thumb_func
	.fpu fpv4-sp-d16
	.type	x509_info_ext_key_usage, %function
x509_info_ext_key_usage:
.LVL389:
.LFB57:
	.loc 1 2010 1 is_stmt 1 view -0
	.cfi_startproc
	@ args = 0, pretend = 0, frame = 8
	@ frame_needed = 0, uses_anonymous_args = 0
	.loc 1 2010 1 is_stmt 0 view .LVU1145
	push	{r4, r5, r6, r7, r8, r9, lr}
	.cfi_def_cfa_offset 28
	.cfi_offset 4, -28
	.cfi_offset 5, -24
	.cfi_offset 6, -20
	.cfi_offset 7, -16
	.cfi_offset 8, -12
	.cfi_offset 9, -8
	.cfi_offset 14, -4
	sub	sp, sp, #20
	.cfi_def_cfa_offset 48
	mov	r8, r0
	mov	r9, r1
	mov	r4, r2
	.loc 1 2011 5 is_stmt 1 view .LVU1146
.LVL390:
	.loc 1 2012 5 view .LVU1147
	.loc 1 2013 5 view .LVU1148
	.loc 1 2013 12 is_stmt 0 view .LVU1149
	ldr	r5, [r1]
.LVL391:
	.loc 1 2014 5 is_stmt 1 view .LVU1150
	.loc 1 2014 11 is_stmt 0 view .LVU1151
	ldr	r6, [r0]
.LVL392:
	.loc 1 2015 5 is_stmt 1 view .LVU1152
	.loc 1 2016 5 view .LVU1153
	.loc 1 2018 5 view .LVU1154
	.loc 1 2016 17 is_stmt 0 view .LVU1155
	ldr	r7, .L265
	.loc 1 2018 10 view .LVU1156
	b	.L257
.LVL393:
.L258:
	.loc 1 2023 9 is_stmt 1 view .LVU1157
	.loc 1 2023 14 is_stmt 0 view .LVU1158
	ldr	r3, [sp, #12]
	str	r3, [sp]
	mov	r3, r7
	ldr	r2, .L265+4
	mov	r1, r5
	mov	r0, r6
	bl	snprintf
.LVL394:
	.loc 1 2024 9 is_stmt 1 view .LVU1159
	.loc 1 2024 14 view .LVU1160
	.loc 1 2024 16 is_stmt 0 view .LVU1161
	cmp	r0, #0
	.loc 1 2024 16 view .LVU1162
	blt	.L261
	.loc 1 2024 26 discriminator 2 view .LVU1163
	cmp	r0, r5
	bcs	.L262
	.loc 1 2024 68 is_stmt 1 discriminator 4 view .LVU1164
	.loc 1 2024 70 is_stmt 0 discriminator 4 view .LVU1165
	subs	r5, r5, r0
.LVL395:
	.loc 1 2024 87 is_stmt 1 discriminator 4 view .LVU1166
	.loc 1 2024 89 is_stmt 0 discriminator 4 view .LVU1167
	add	r6, r6, r0
.LVL396:
	.loc 1 2024 113 is_stmt 1 discriminator 4 view .LVU1168
	.loc 1 2026 9 discriminator 4 view .LVU1169
	.loc 1 2028 9 discriminator 4 view .LVU1170
	.loc 1 2028 13 is_stmt 0 discriminator 4 view .LVU1171
	ldr	r4, [r4, #12]
.LVL397:
	.loc 1 2026 13 discriminator 4 view .LVU1172
	ldr	r7, .L265+8
.LVL398:
.L257:
	.loc 1 2018 10 is_stmt 1 view .LVU1173
	cbz	r4, .L264
	.loc 1 2020 9 view .LVU1174
	.loc 1 2020 13 is_stmt 0 view .LVU1175
	add	r1, sp, #12
	mov	r0, r4
	bl	mbedtls_oid_get_extended_key_usage
.LVL399:
	.loc 1 2020 11 view .LVU1176
	cmp	r0, #0
	beq	.L258
	.loc 1 2021 13 is_stmt 1 view .LVU1177
	.loc 1 2021 18 is_stmt 0 view .LVU1178
	ldr	r3, .L265+12
	str	r3, [sp, #12]
	b	.L258
.L264:
	.loc 1 2031 5 is_stmt 1 view .LVU1179
	.loc 1 2031 11 is_stmt 0 view .LVU1180
	str	r5, [r9]
	.loc 1 2032 5 is_stmt 1 view .LVU1181
	.loc 1 2032 10 is_stmt 0 view .LVU1182
	str	r6, [r8]
	.loc 1 2034 5 is_stmt 1 view .LVU1183
	.loc 1 2034 11 is_stmt 0 view .LVU1184
	movs	r0, #0
.L256:
	.loc 1 2035 1 view .LVU1185
	add	sp, sp, #20
	.cfi_remember_state
	.cfi_def_cfa_offset 28
	@ sp needed
	pop	{r4, r5, r6, r7, r8, r9, pc}
.LVL400:
.L261:
	.cfi_restore_state
	.loc 1 2024 55 view .LVU1186
	ldr	r0, .L265+16
.LVL401:
	.loc 1 2024 55 view .LVU1187
	b	.L256
.LVL402:
.L262:
	.loc 1 2024 55 view .LVU1188
	ldr	r0, .L265+16
.LVL403:
	.loc 1 2024 55 view .LVU1189
	b	.L256
.L266:
	.align	2
.L265:
	.word	.LC3
	.word	.LC22
	.word	.LC2
	.word	.LC21
	.word	-10624
	.cfi_endproc
.LFE57:
	.size	x509_info_ext_key_usage, .-x509_info_ext_key_usage
	.section	.text.x509_info_cert_policies,"ax",%progbits
	.align	1
	.syntax unified
	.thumb
	.thumb_func
	.fpu fpv4-sp-d16
	.type	x509_info_cert_policies, %function
x509_info_cert_policies:
.LVL404:
.LFB58:
	.loc 1 2039 1 is_stmt 1 view -0
	.cfi_startproc
	@ args = 0, pretend = 0, frame = 8
	@ frame_needed = 0, uses_anonymous_args = 0
	.loc 1 2039 1 is_stmt 0 view .LVU1191
	push	{r4, r5, r6, r7, r8, r9, lr}
	.cfi_def_cfa_offset 28
	.cfi_offset 4, -28
	.cfi_offset 5, -24
	.cfi_offset 6, -20
	.cfi_offset 7, -16
	.cfi_offset 8, -12
	.cfi_offset 9, -8
	.cfi_offset 14, -4
	sub	sp, sp, #20
	.cfi_def_cfa_offset 48
	mov	r8, r0
	mov	r9, r1
	mov	r4, r2
	.loc 1 2040 5 is_stmt 1 view .LVU1192
.LVL405:
	.loc 1 2041 5 view .LVU1193
	.loc 1 2042 5 view .LVU1194
	.loc 1 2042 12 is_stmt 0 view .LVU1195
	ldr	r5, [r1]
.LVL406:
	.loc 1 2043 5 is_stmt 1 view .LVU1196
	.loc 1 2043 11 is_stmt 0 view .LVU1197
	ldr	r6, [r0]
.LVL407:
	.loc 1 2044 5 is_stmt 1 view .LVU1198
	.loc 1 2045 5 view .LVU1199
	.loc 1 2047 5 view .LVU1200
	.loc 1 2045 17 is_stmt 0 view .LVU1201
	ldr	r7, .L276
	.loc 1 2047 10 view .LVU1202
	b	.L268
.LVL408:
.L269:
	.loc 1 2052 9 is_stmt 1 view .LVU1203
	.loc 1 2052 14 is_stmt 0 view .LVU1204
	ldr	r3, [sp, #12]
	str	r3, [sp]
	mov	r3, r7
	ldr	r2, .L276+4
	mov	r1, r5
	mov	r0, r6
	bl	snprintf
.LVL409:
	.loc 1 2053 9 is_stmt 1 view .LVU1205
	.loc 1 2053 14 view .LVU1206
	.loc 1 2053 16 is_stmt 0 view .LVU1207
	cmp	r0, #0
	.loc 1 2053 16 view .LVU1208
	blt	.L272
	.loc 1 2053 26 discriminator 2 view .LVU1209
	cmp	r0, r5
	bcs	.L273
	.loc 1 2053 68 is_stmt 1 discriminator 4 view .LVU1210
	.loc 1 2053 70 is_stmt 0 discriminator 4 view .LVU1211
	subs	r5, r5, r0
.LVL410:
	.loc 1 2053 87 is_stmt 1 discriminator 4 view .LVU1212
	.loc 1 2053 89 is_stmt 0 discriminator 4 view .LVU1213
	add	r6, r6, r0
.LVL411:
	.loc 1 2053 113 is_stmt 1 discriminator 4 view .LVU1214
	.loc 1 2055 9 discriminator 4 view .LVU1215
	.loc 1 2057 9 discriminator 4 view .LVU1216
	.loc 1 2057 13 is_stmt 0 discriminator 4 view .LVU1217
	ldr	r4, [r4, #12]
.LVL412:
	.loc 1 2055 13 discriminator 4 view .LVU1218
	ldr	r7, .L276+8
.LVL413:
.L268:
	.loc 1 2047 10 is_stmt 1 view .LVU1219
	cbz	r4, .L275
	.loc 1 2049 9 view .LVU1220
	.loc 1 2049 13 is_stmt 0 view .LVU1221
	add	r1, sp, #12
	mov	r0, r4
	bl	mbedtls_oid_get_certificate_policies
.LVL414:
	.loc 1 2049 11 view .LVU1222
	cmp	r0, #0
	beq	.L269
	.loc 1 2050 13 is_stmt 1 view .LVU1223
	.loc 1 2050 18 is_stmt 0 view .LVU1224
	ldr	r3, .L276+12
	str	r3, [sp, #12]
	b	.L269
.L275:
	.loc 1 2060 5 is_stmt 1 view .LVU1225
	.loc 1 2060 11 is_stmt 0 view .LVU1226
	str	r5, [r9]
	.loc 1 2061 5 is_stmt 1 view .LVU1227
	.loc 1 2061 10 is_stmt 0 view .LVU1228
	str	r6, [r8]
	.loc 1 2063 5 is_stmt 1 view .LVU1229
	.loc 1 2063 11 is_stmt 0 view .LVU1230
	movs	r0, #0
.L267:
	.loc 1 2064 1 view .LVU1231
	add	sp, sp, #20
	.cfi_remember_state
	.cfi_def_cfa_offset 28
	@ sp needed
	pop	{r4, r5, r6, r7, r8, r9, pc}
.LVL415:
.L272:
	.cfi_restore_state
	.loc 1 2053 55 view .LVU1232
	ldr	r0, .L276+16
.LVL416:
	.loc 1 2053 55 view .LVU1233
	b	.L267
.LVL417:
.L273:
	.loc 1 2053 55 view .LVU1234
	ldr	r0, .L276+16
.LVL418:
	.loc 1 2053 55 view .LVU1235
	b	.L267
.L277:
	.align	2
.L276:
	.word	.LC3
	.word	.LC22
	.word	.LC2
	.word	.LC21
	.word	-10624
	.cfi_endproc
.LFE58:
	.size	x509_info_cert_policies, .-x509_info_cert_policies
	.section	.text.x509_profile_check_key,"ax",%progbits
	.align	1
	.syntax unified
	.thumb
	.thumb_func
	.fpu fpv4-sp-d16
	.type	x509_profile_check_key, %function
x509_profile_check_key:
.LVL419:
.LFB30:
	.loc 1 218 1 is_stmt 1 view -0
	.cfi_startproc
	@ args = 0, pretend = 0, frame = 0
	@ frame_needed = 0, uses_anonymous_args = 0
	.loc 1 218 1 is_stmt 0 view .LVU1237
	push	{r3, r4, r5, lr}
	.cfi_def_cfa_offset 16
	.cfi_offset 3, -16
	.cfi_offset 4, -12
	.cfi_offset 5, -8
	.cfi_offset 14, -4
	mov	r5, r0
	mov	r4, r1
	.loc 1 219 5 is_stmt 1 view .LVU1238
	.loc 1 219 38 is_stmt 0 view .LVU1239
	mov	r0, r1
.LVL420:
	.loc 1 219 38 view .LVU1240
	bl	mbedtls_pk_get_type
.LVL421:
	.loc 1 222 5 is_stmt 1 view .LVU1241
	.loc 1 222 7 is_stmt 0 view .LVU1242
	cmp	r0, #1
	beq	.L279
	.loc 1 222 34 discriminator 1 view .LVU1243
	cmp	r0, #6
	bne	.L281
.L279:
	.loc 1 224 9 is_stmt 1 view .LVU1244
	.loc 1 224 13 is_stmt 0 view .LVU1245
	mov	r0, r4
.LVL422:
	.loc 1 224 13 view .LVU1246
	bl	mbedtls_pk_get_bitlen
.LVL423:
	.loc 1 224 51 view .LVU1247
	ldr	r3, [r5, #12]
	.loc 1 224 11 view .LVU1248
	cmp	r0, r3
	bcc	.L282
	.loc 1 225 19 view .LVU1249
	movs	r0, #0
.L278:
	.loc 1 249 1 view .LVU1250
	pop	{r3, r4, r5, pc}
.LVL424:
.L281:
	.loc 1 248 11 view .LVU1251
	mov	r0, #-1
.LVL425:
	.loc 1 248 11 view .LVU1252
	b	.L278
.L282:
	.loc 1 227 15 view .LVU1253
	mov	r0, #-1
	b	.L278
	.cfi_endproc
.LFE30:
	.size	x509_profile_check_key, .-x509_profile_check_key
	.section	.text.x509_check_wildcard,"ax",%progbits
	.align	1
	.syntax unified
	.thumb
	.thumb_func
	.fpu fpv4-sp-d16
	.type	x509_check_wildcard, %function
x509_check_wildcard:
.LVL426:
.LFB32:
	.loc 1 284 1 is_stmt 1 view -0
	.cfi_startproc
	@ args = 0, pretend = 0, frame = 0
	@ frame_needed = 0, uses_anonymous_args = 0
	.loc 1 284 1 is_stmt 0 view .LVU1255
	push	{r3, r4, r5, lr}
	.cfi_def_cfa_offset 16
	.cfi_offset 3, -16
	.cfi_offset 4, -12
	.cfi_offset 5, -8
	.cfi_offset 14, -4
	mov	r4, r0
	mov	r5, r1
	.loc 1 285 5 is_stmt 1 view .LVU1256
	.loc 1 286 5 view .LVU1257
.LVL427:
	.loc 1 286 33 is_stmt 0 view .LVU1258
	bl	strlen
.LVL428:
	.loc 1 289 5 is_stmt 1 view .LVU1259
	.loc 1 289 13 is_stmt 0 view .LVU1260
	ldr	r2, [r5, #4]
	.loc 1 289 7 view .LVU1261
	cmp	r2, #2
	bls	.L289
	.loc 1 289 30 discriminator 1 view .LVU1262
	ldr	r5, [r5, #8]
.LVL429:
	.loc 1 289 33 discriminator 1 view .LVU1263
	ldrb	r3, [r5]	@ zero_extendqisi2
	.loc 1 289 23 discriminator 1 view .LVU1264
	cmp	r3, #42
	bne	.L290
	.loc 1 289 54 discriminator 2 view .LVU1265
	ldrb	r3, [r5, #1]	@ zero_extendqisi2
	.loc 1 289 44 discriminator 2 view .LVU1266
	cmp	r3, #46
	bne	.L291
	.loc 1 292 12 view .LVU1267
	movs	r1, #0
.L286:
.LVL430:
	.loc 1 292 17 is_stmt 1 discriminator 1 view .LVU1268
	.loc 1 292 5 is_stmt 0 discriminator 1 view .LVU1269
	cmp	r1, r0
	bcs	.L295
	.loc 1 294 9 is_stmt 1 view .LVU1270
	.loc 1 294 15 is_stmt 0 view .LVU1271
	ldrb	r3, [r4, r1]	@ zero_extendqisi2
	.loc 1 294 11 view .LVU1272
	cmp	r3, #46
	beq	.L287
	.loc 1 292 29 is_stmt 1 discriminator 2 view .LVU1273
	adds	r1, r1, #1
.LVL431:
	.loc 1 292 29 is_stmt 0 discriminator 2 view .LVU1274
	b	.L286
.L295:
	.loc 1 286 12 view .LVU1275
	movs	r1, #0
.LVL432:
.L287:
	.loc 1 301 5 is_stmt 1 view .LVU1276
	.loc 1 301 7 is_stmt 0 view .LVU1277
	cbz	r1, .L292
	.loc 1 304 5 is_stmt 1 view .LVU1278
	.loc 1 304 16 is_stmt 0 view .LVU1279
	subs	r3, r0, r1
	.loc 1 304 38 view .LVU1280
	subs	r2, r2, #1
	.loc 1 304 7 view .LVU1281
	cmp	r3, r2
	bne	.L293
	.loc 1 305 9 discriminator 1 view .LVU1282
	add	r1, r1, r4
.LVL433:
	.loc 1 305 9 discriminator 1 view .LVU1283
	adds	r0, r5, #1
.LVL434:
	.loc 1 305 9 discriminator 1 view .LVU1284
	bl	x509_memcasecmp
.LVL435:
	.loc 1 304 42 discriminator 1 view .LVU1285
	cbnz	r0, .L296
.L284:
	.loc 1 311 1 view .LVU1286
	pop	{r3, r4, r5, pc}
.LVL436:
.L296:
	.loc 1 310 11 view .LVU1287
	mov	r0, #-1
	b	.L284
.LVL437:
.L289:
	.loc 1 290 15 view .LVU1288
	mov	r0, #-1
.LVL438:
	.loc 1 290 15 view .LVU1289
	b	.L284
.LVL439:
.L290:
	.loc 1 290 15 view .LVU1290
	mov	r0, #-1
.LVL440:
	.loc 1 290 15 view .LVU1291
	b	.L284
.LVL441:
.L291:
	.loc 1 290 15 view .LVU1292
	mov	r0, #-1
.LVL442:
	.loc 1 290 15 view .LVU1293
	b	.L284
.LVL443:
.L292:
	.loc 1 302 15 view .LVU1294
	mov	r0, #-1
.LVL444:
	.loc 1 302 15 view .LVU1295
	b	.L284
.LVL445:
.L293:
	.loc 1 310 11 view .LVU1296
	mov	r0, #-1
.LVL446:
	.loc 1 310 11 view .LVU1297
	b	.L284
	.cfi_endproc
.LFE32:
	.size	x509_check_wildcard, .-x509_check_wildcard
	.section	.text.x509_crt_check_cn,"ax",%progbits
	.align	1
	.syntax unified
	.thumb
	.thumb_func
	.fpu fpv4-sp-d16
	.type	x509_crt_check_cn, %function
x509_crt_check_cn:
.LVL447:
.LFB69:
	.loc 1 2982 1 is_stmt 1 view -0
	.cfi_startproc
	@ args = 0, pretend = 0, frame = 0
	@ frame_needed = 0, uses_anonymous_args = 0
	.loc 1 2982 1 is_stmt 0 view .LVU1299
	push	{r3, r4, r5, lr}
	.cfi_def_cfa_offset 16
	.cfi_offset 3, -16
	.cfi_offset 4, -12
	.cfi_offset 5, -8
	.cfi_offset 14, -4
	mov	r4, r0
	mov	r5, r1
	.loc 1 2984 5 is_stmt 1 view .LVU1300
	.loc 1 2984 13 is_stmt 0 view .LVU1301
	ldr	r3, [r0, #4]
	.loc 1 2984 7 view .LVU1302
	cmp	r3, r2
	bne	.L298
	.loc 1 2985 9 discriminator 1 view .LVU1303
	ldr	r1, [r0, #8]
.LVL448:
	.loc 1 2985 9 discriminator 1 view .LVU1304
	mov	r0, r5
.LVL449:
	.loc 1 2985 9 discriminator 1 view .LVU1305
	bl	x509_memcasecmp
.LVL450:
	.loc 1 2984 29 discriminator 1 view .LVU1306
	cbz	r0, .L297
.L298:
	.loc 1 2991 5 is_stmt 1 view .LVU1307
	.loc 1 2991 9 is_stmt 0 view .LVU1308
	mov	r1, r4
	mov	r0, r5
	bl	x509_check_wildcard
.LVL451:
	.loc 1 2991 7 view .LVU1309
	cbnz	r0, .L301
.L297:
	.loc 1 2997 1 view .LVU1310
	pop	{r3, r4, r5, pc}
.LVL452:
.L301:
	.loc 1 2996 11 view .LVU1311
	mov	r0, #-1
	b	.L297
	.cfi_endproc
.LFE69:
	.size	x509_crt_check_cn, .-x509_crt_check_cn
	.section	.text.x509_crt_check_san,"ax",%progbits
	.align	1
	.syntax unified
	.thumb
	.thumb_func
	.fpu fpv4-sp-d16
	.type	x509_crt_check_san, %function
x509_crt_check_san:
.LVL453:
.LFB70:
	.loc 1 3004 1 is_stmt 1 view -0
	.cfi_startproc
	@ args = 0, pretend = 0, frame = 0
	@ frame_needed = 0, uses_anonymous_args = 0
	.loc 1 3004 1 is_stmt 0 view .LVU1313
	push	{r3, lr}
	.cfi_def_cfa_offset 8
	.cfi_offset 3, -8
	.cfi_offset 14, -4
	.loc 1 3005 5 is_stmt 1 view .LVU1314
	.loc 1 3005 62 is_stmt 0 view .LVU1315
	ldrb	r3, [r0]	@ zero_extendqisi2
	.loc 1 3005 25 view .LVU1316
	and	r3, r3, #31
.LVL454:
	.loc 1 3009 5 is_stmt 1 view .LVU1317
	.loc 1 3009 7 is_stmt 0 view .LVU1318
	cmp	r3, #2
	bne	.L304
	.loc 1 3010 9 is_stmt 1 view .LVU1319
	.loc 1 3010 17 is_stmt 0 view .LVU1320
	bl	x509_crt_check_cn
.LVL455:
.L302:
	.loc 1 3016 1 view .LVU1321
	pop	{r3, pc}
.LVL456:
.L304:
	.loc 1 3015 11 view .LVU1322
	mov	r0, #-1
.LVL457:
	.loc 1 3015 11 view .LVU1323
	b	.L302
	.cfi_endproc
.LFE70:
	.size	x509_crt_check_san, .-x509_crt_check_san
	.section	.rodata.x509_crt_verify_name.str1.4,"aMS",%progbits,1
	.align	2
.LC23:
	.ascii	"U\004\003\000"
	.section	.text.x509_crt_verify_name,"ax",%progbits
	.align	1
	.syntax unified
	.thumb
	.thumb_func
	.fpu fpv4-sp-d16
	.type	x509_crt_verify_name, %function
x509_crt_verify_name:
.LVL458:
.LFB71:
	.loc 1 3024 1 is_stmt 1 view -0
	.cfi_startproc
	@ args = 0, pretend = 0, frame = 0
	@ frame_needed = 0, uses_anonymous_args = 0
	.loc 1 3024 1 is_stmt 0 view .LVU1325
	push	{r3, r4, r5, r6, r7, lr}
	.cfi_def_cfa_offset 24
	.cfi_offset 3, -24
	.cfi_offset 4, -20
	.cfi_offset 5, -16
	.cfi_offset 6, -12
	.cfi_offset 7, -8
	.cfi_offset 14, -4
	mov	r4, r0
	mov	r5, r1
	mov	r7, r2
	.loc 1 3025 5 is_stmt 1 view .LVU1326
	.loc 1 3026 5 view .LVU1327
	.loc 1 3027 5 view .LVU1328
	.loc 1 3027 21 is_stmt 0 view .LVU1329
	mov	r0, r1
.LVL459:
	.loc 1 3027 21 view .LVU1330
	bl	strlen
.LVL460:
	.loc 1 3027 21 view .LVU1331
	mov	r6, r0
.LVL461:
	.loc 1 3029 5 is_stmt 1 view .LVU1332
	.loc 1 3029 12 is_stmt 0 view .LVU1333
	ldr	r3, [r4, #280]
	.loc 1 3029 7 view .LVU1334
	tst	r3, #32
	beq	.L307
	.loc 1 3031 9 is_stmt 1 view .LVU1335
	.loc 1 3031 18 is_stmt 0 view .LVU1336
	adds	r4, r4, #248
.LVL462:
.L308:
	.loc 1 3031 45 is_stmt 1 discriminator 1 view .LVU1337
	.loc 1 3031 9 is_stmt 0 discriminator 1 view .LVU1338
	cbz	r4, .L309
	.loc 1 3033 13 is_stmt 1 view .LVU1339
	.loc 1 3033 17 is_stmt 0 view .LVU1340
	mov	r2, r6
	mov	r1, r5
	mov	r0, r4
	bl	x509_crt_check_san
.LVL463:
	.loc 1 3033 15 view .LVU1341
	cbz	r0, .L309
	.loc 1 3031 57 is_stmt 1 discriminator 2 view .LVU1342
	.loc 1 3031 61 is_stmt 0 discriminator 2 view .LVU1343
	ldr	r4, [r4, #12]
.LVL464:
	.loc 1 3031 61 discriminator 2 view .LVU1344
	b	.L308
.L309:
	.loc 1 3037 9 is_stmt 1 view .LVU1345
	.loc 1 3037 11 is_stmt 0 view .LVU1346
	cbz	r4, .L317
.LVL465:
.L306:
	.loc 1 3054 1 view .LVU1347
	pop	{r3, r4, r5, r6, r7, pc}
.LVL466:
.L317:
	.loc 1 3038 13 is_stmt 1 view .LVU1348
	.loc 1 3038 20 is_stmt 0 view .LVU1349
	ldr	r3, [r7]
	orr	r3, r3, #4
	str	r3, [r7]
	b	.L306
.LVL467:
.L307:
	.loc 1 3042 9 is_stmt 1 view .LVU1350
	.loc 1 3042 19 is_stmt 0 view .LVU1351
	adds	r4, r4, #112
.LVL468:
	.loc 1 3042 9 view .LVU1352
	b	.L312
.LVL469:
.L313:
	.loc 1 3042 49 is_stmt 1 discriminator 2 view .LVU1353
	.loc 1 3042 54 is_stmt 0 discriminator 2 view .LVU1354
	ldr	r4, [r4, #24]
.LVL470:
.L312:
	.loc 1 3042 36 is_stmt 1 discriminator 1 view .LVU1355
	.loc 1 3042 9 is_stmt 0 discriminator 1 view .LVU1356
	cbz	r4, .L314
	.loc 1 3044 13 is_stmt 1 view .LVU1357
	.loc 1 3044 71 is_stmt 0 view .LVU1358
	ldr	r2, [r4, #4]
	.loc 1 3044 79 view .LVU1359
	cmp	r2, #3
	bne	.L313
	.loc 1 3044 82 discriminator 2 view .LVU1360
	ldr	r1, [r4, #8]
	ldr	r0, .L318
	bl	memcmp
.LVL471:
	.loc 1 3044 79 discriminator 2 view .LVU1361
	cmp	r0, #0
	bne	.L313
	.loc 1 3045 17 view .LVU1362
	mov	r2, r6
	mov	r1, r5
	add	r0, r4, #12
	bl	x509_crt_check_cn
.LVL472:
	.loc 1 3044 162 view .LVU1363
	cmp	r0, #0
	bne	.L313
.L314:
	.loc 1 3051 9 is_stmt 1 view .LVU1364
	.loc 1 3051 11 is_stmt 0 view .LVU1365
	cmp	r4, #0
	bne	.L306
	.loc 1 3052 13 is_stmt 1 view .LVU1366
	.loc 1 3052 20 is_stmt 0 view .LVU1367
	ldr	r3, [r7]
	orr	r3, r3, #4
	str	r3, [r7]
	.loc 1 3054 1 view .LVU1368
	b	.L306
.L319:
	.align	2
.L318:
	.word	.LC23
	.cfi_endproc
.LFE71:
	.size	x509_crt_verify_name, .-x509_crt_verify_name
	.section	.text.x509_crt_check_signature,"ax",%progbits
	.align	1
	.syntax unified
	.thumb
	.thumb_func
	.fpu fpv4-sp-d16
	.type	x509_crt_check_signature, %function
x509_crt_check_signature:
.LVL473:
.LFB63:
	.loc 1 2423 1 is_stmt 1 view -0
	.cfi_startproc
	@ args = 0, pretend = 0, frame = 32
	@ frame_needed = 0, uses_anonymous_args = 0
	.loc 1 2423 1 is_stmt 0 view .LVU1370
	push	{r4, r5, r6, r7, lr}
	.cfi_def_cfa_offset 20
	.cfi_offset 4, -20
	.cfi_offset 5, -16
	.cfi_offset 6, -12
	.cfi_offset 7, -8
	.cfi_offset 14, -4
	sub	sp, sp, #52
	.cfi_def_cfa_offset 72
	mov	r4, r0
	mov	r5, r1
	.loc 1 2424 5 is_stmt 1 view .LVU1371
	.loc 1 2425 5 view .LVU1372
	.loc 1 2427 5 view .LVU1373
	.loc 1 2428 5 view .LVU1374
	.loc 1 2428 15 is_stmt 0 view .LVU1375
	ldrb	r0, [r0, #328]	@ zero_extendqisi2
.LVL474:
	.loc 1 2428 15 view .LVU1376
	bl	mbedtls_md_info_from_type
.LVL475:
	.loc 1 2428 15 view .LVU1377
	mov	r6, r0
.LVL476:
	.loc 1 2429 5 is_stmt 1 view .LVU1378
	.loc 1 2429 16 is_stmt 0 view .LVU1379
	bl	mbedtls_md_get_size
.LVL477:
	.loc 1 2429 16 view .LVU1380
	mov	r7, r0
.LVL478:
	.loc 1 2432 5 is_stmt 1 view .LVU1381
	.loc 1 2432 9 is_stmt 0 view .LVU1382
	add	r3, sp, #16
	ldr	r2, [r4, #20]
	ldr	r1, [r4, #24]
	mov	r0, r6
.LVL479:
	.loc 1 2432 9 view .LVU1383
	bl	mbedtls_md
.LVL480:
	.loc 1 2432 7 view .LVU1384
	cbnz	r0, .L322
	.loc 1 2454 5 is_stmt 1 view .LVU1385
	.loc 1 2454 30 is_stmt 0 view .LVU1386
	adds	r5, r5, #204
.LVL481:
	.loc 1 2454 11 view .LVU1387
	ldrb	r1, [r4, #329]	@ zero_extendqisi2
	mov	r0, r5
	bl	mbedtls_pk_can_do
.LVL482:
	.loc 1 2454 7 view .LVU1388
	cbz	r0, .L323
	.loc 1 2465 5 is_stmt 1 view .LVU1389
	.loc 1 2468 5 view .LVU1390
	.loc 1 2470 27 is_stmt 0 view .LVU1391
	ldr	r3, [r4, #324]
	.loc 1 2468 13 view .LVU1392
	ldr	r2, [r4, #320]
	str	r2, [sp, #12]
	str	r3, [sp, #8]
	str	r7, [sp, #4]
	add	r3, sp, #16
	str	r3, [sp]
	ldrb	r3, [r4, #328]	@ zero_extendqisi2
	mov	r2, r5
	ldr	r1, [r4, #332]
	ldrb	r0, [r4, #329]	@ zero_extendqisi2
	bl	mbedtls_pk_verify_ext
.LVL483:
.L320:
	.loc 1 2471 1 view .LVU1393
	add	sp, sp, #52
	.cfi_remember_state
	.cfi_def_cfa_offset 20
	@ sp needed
	pop	{r4, r5, r6, r7, pc}
.LVL484:
.L322:
	.cfi_restore_state
	.loc 1 2433 15 view .LVU1394
	mov	r0, #-1
	b	.L320
.LVL485:
.L323:
	.loc 1 2455 15 view .LVU1395
	mov	r0, #-1
	b	.L320
	.cfi_endproc
.LFE63:
	.size	x509_crt_check_signature, .-x509_crt_check_signature
	.section	.text.mbedtls_x509_parse_subject_alt_name,"ax",%progbits
	.align	1
	.global	mbedtls_x509_parse_subject_alt_name
	.syntax unified
	.thumb
	.thumb_func
	.fpu fpv4-sp-d16
	.type	mbedtls_x509_parse_subject_alt_name, %function
mbedtls_x509_parse_subject_alt_name:
.LVL486:
.LFB53:
	.loc 1 1784 1 is_stmt 1 view -0
	.cfi_startproc
	@ args = 0, pretend = 0, frame = 40
	@ frame_needed = 0, uses_anonymous_args = 0
	.loc 1 1784 1 is_stmt 0 view .LVU1397
	push	{r4, r5, r6, r7, lr}
	.cfi_def_cfa_offset 20
	.cfi_offset 4, -20
	.cfi_offset 5, -16
	.cfi_offset 6, -12
	.cfi_offset 7, -8
	.cfi_offset 14, -4
	sub	sp, sp, #44
	.cfi_def_cfa_offset 64
	mov	r4, r0
	mov	r5, r1
	.loc 1 1785 5 is_stmt 1 view .LVU1398
.LVL487:
	.loc 1 1786 5 view .LVU1399
	.loc 1 1786 20 is_stmt 0 view .LVU1400
	ldr	r3, [r0]
	.loc 1 1786 26 view .LVU1401
	and	r3, r3, #223
	.loc 1 1786 5 view .LVU1402
	cmp	r3, #128
	beq	.L326
	cmp	r3, #130
	beq	.L327
	ldr	r7, .L332
.LVL488:
.L325:
	.loc 1 1830 1 view .LVU1403
	mov	r0, r7
	add	sp, sp, #44
	.cfi_remember_state
	.cfi_def_cfa_offset 20
	@ sp needed
	pop	{r4, r5, r6, r7, pc}
.LVL489:
.L326:
	.cfi_restore_state
.LBB170:
	.loc 1 1795 13 is_stmt 1 view .LVU1404
	.loc 1 1797 13 view .LVU1405
	.loc 1 1797 19 is_stmt 0 view .LVU1406
	add	r1, sp, #4
.LVL490:
	.loc 1 1797 19 view .LVU1407
	bl	x509_get_other_name
.LVL491:
	.loc 1 1798 13 is_stmt 1 view .LVU1408
	.loc 1 1798 15 is_stmt 0 view .LVU1409
	mov	r7, r0
	cmp	r0, #0
	bne	.L325
	.loc 1 1801 12 is_stmt 1 view .LVU1410
.LVL492:
.LBB171:
.LBI171:
	.file 3 "/home/sebin/LIOT/gcc-arm-none-eabi-9-2019-q4-major/arm-none-eabi/include/ssp/string.h"
	.loc 3 86 189 view .LVU1411
.LBB172:
	.loc 3 86 238 view .LVU1412
	.loc 3 86 245 is_stmt 0 view .LVU1413
	movs	r2, #40
	movs	r1, #0
	mov	r0, r5
.LVL493:
	.loc 3 86 245 view .LVU1414
	bl	memset
.LVL494:
	.loc 3 86 245 view .LVU1415
.LBE172:
.LBE171:
	.loc 1 1802 13 is_stmt 1 view .LVU1416
	.loc 1 1803 12 view .LVU1417
.LBB173:
.LBI173:
	.loc 3 83 216 view .LVU1418
.LBB174:
	.loc 3 83 292 view .LVU1419
	.loc 3 83 299 is_stmt 0 view .LVU1420
	add	r6, sp, #4
.LVL495:
	.loc 3 83 299 view .LVU1421
	adds	r5, r5, #4
.LVL496:
	.loc 3 83 299 view .LVU1422
	add	ip, sp, #36
.LVL497:
.L330:
	.loc 3 83 299 view .LVU1423
	mov	r4, r6
	ldmia	r4!, {r0, r1, r2, r3}
	str	r0, [r5]	@ unaligned
	str	r1, [r5, #4]	@ unaligned
	str	r2, [r5, #8]	@ unaligned
	str	r3, [r5, #12]	@ unaligned
	mov	r6, r4
	adds	r5, r5, #16
	cmp	r4, ip
	bne	.L330
	ldr	r0, [r4]
	str	r0, [r5]	@ unaligned
.LVL498:
	.loc 3 83 299 view .LVU1424
.LBE174:
.LBE173:
.LBE170:
	.loc 1 1807 9 is_stmt 1 view .LVU1425
	b	.L325
.LVL499:
.L327:
	.loc 1 1814 12 view .LVU1426
.LBB175:
.LBI175:
	.loc 3 86 189 view .LVU1427
.LBB176:
	.loc 3 86 238 view .LVU1428
	.loc 3 86 245 is_stmt 0 view .LVU1429
	movs	r2, #40
	movs	r1, #0
.LVL500:
	.loc 3 86 245 view .LVU1430
	mov	r0, r5
.LVL501:
	.loc 3 86 245 view .LVU1431
	bl	memset
.LVL502:
	.loc 3 86 245 view .LVU1432
.LBE176:
.LBE175:
	.loc 1 1815 13 is_stmt 1 view .LVU1433
	.loc 1 1815 23 is_stmt 0 view .LVU1434
	mov	r3, r5
	movs	r2, #2
	str	r2, [r3], #4
	.loc 1 1817 12 is_stmt 1 view .LVU1435
.LVL503:
.LBB177:
.LBI177:
	.loc 3 83 216 view .LVU1436
.LBB178:
	.loc 3 83 292 view .LVU1437
	.loc 3 83 299 is_stmt 0 view .LVU1438
	ldr	r0, [r4]	@ unaligned
	ldr	r1, [r4, #4]	@ unaligned
	ldr	r2, [r4, #8]	@ unaligned
	str	r0, [r5, #4]	@ unaligned
	str	r1, [r3, #4]	@ unaligned
	str	r2, [r3, #8]	@ unaligned
.LVL504:
	.loc 3 83 299 view .LVU1439
.LBE178:
.LBE177:
	.loc 1 1829 11 view .LVU1440
	movs	r7, #0
	b	.L325
.L333:
	.align	2
.L332:
	.word	-8320
	.cfi_endproc
.LFE53:
	.size	mbedtls_x509_parse_subject_alt_name, .-mbedtls_x509_parse_subject_alt_name
	.section	.text.x509_get_subject_alt_name,"ax",%progbits
	.align	1
	.syntax unified
	.thumb
	.thumb_func
	.fpu fpv4-sp-d16
	.type	x509_get_subject_alt_name, %function
x509_get_subject_alt_name:
.LVL505:
.LFB43:
	.loc 1 649 1 is_stmt 1 view -0
	.cfi_startproc
	@ args = 0, pretend = 0, frame = 48
	@ frame_needed = 0, uses_anonymous_args = 0
	.loc 1 649 1 is_stmt 0 view .LVU1442
	push	{r4, r5, r6, r7, r8, r9, r10, lr}
	.cfi_def_cfa_offset 32
	.cfi_offset 4, -32
	.cfi_offset 5, -28
	.cfi_offset 6, -24
	.cfi_offset 7, -20
	.cfi_offset 8, -16
	.cfi_offset 9, -12
	.cfi_offset 10, -8
	.cfi_offset 14, -4
	sub	sp, sp, #48
	.cfi_def_cfa_offset 80
	mov	r4, r0
	mov	r7, r1
	mov	r8, r2
	.loc 1 650 5 is_stmt 1 view .LVU1443
.LVL506:
	.loc 1 651 5 view .LVU1444
	.loc 1 652 5 view .LVU1445
	.loc 1 653 5 view .LVU1446
	.loc 1 654 5 view .LVU1447
	.loc 1 657 5 view .LVU1448
	.loc 1 657 17 is_stmt 0 view .LVU1449
	movs	r3, #48
	add	r2, sp, #44
.LVL507:
	.loc 1 657 17 view .LVU1450
	bl	mbedtls_asn1_get_tag
.LVL508:
	.loc 1 657 7 view .LVU1451
	mov	r9, r0
	cbnz	r0, .L351
	.loc 1 661 5 is_stmt 1 view .LVU1452
	.loc 1 661 9 is_stmt 0 view .LVU1453
	ldr	r3, [r4]
	.loc 1 661 12 view .LVU1454
	ldr	r2, [sp, #44]
	add	r3, r3, r2
	.loc 1 661 7 view .LVU1455
	cmp	r3, r7
	bne	.L345
	.loc 1 654 28 view .LVU1456
	mov	r5, r8
	b	.L337
.L351:
	.loc 1 659 9 is_stmt 1 view .LVU1457
.LVL509:
.LBB179:
.LBI179:
	.loc 2 152 19 view .LVU1458
.LBB180:
	.loc 2 159 5 view .LVU1459
	.loc 2 160 5 view .LVU1460
	.loc 2 162 5 view .LVU1461
	.loc 2 162 18 is_stmt 0 view .LVU1462
	sub	r9, r0, #9472
.LVL510:
.L334:
	.loc 2 162 18 view .LVU1463
.LBE180:
.LBE179:
	.loc 1 736 1 view .LVU1464
	mov	r0, r9
	add	sp, sp, #48
	.cfi_remember_state
	.cfi_def_cfa_offset 32
	@ sp needed
	pop	{r4, r5, r6, r7, r8, r9, r10, pc}
.LVL511:
.L353:
	.cfi_restore_state
.LBB181:
	.loc 1 673 13 is_stmt 1 view .LVU1465
.LBB182:
.LBI182:
	.loc 2 152 19 view .LVU1466
.LBB183:
	.loc 2 159 5 view .LVU1467
	.loc 2 160 5 view .LVU1468
	.loc 2 162 5 view .LVU1469
	.loc 2 162 18 is_stmt 0 view .LVU1470
	sub	r9, r0, #9472
.LVL512:
	.loc 2 162 18 view .LVU1471
.LBE183:
.LBE182:
	.loc 1 673 21 view .LVU1472
	b	.L334
.LVL513:
.L342:
.LBB184:
	.loc 1 696 17 is_stmt 1 view .LVU1473
	.loc 1 697 17 view .LVU1474
	.loc 1 697 25 is_stmt 0 view .LVU1475
	ldr	r5, [r4, #12]
.LVL514:
	.loc 1 698 17 is_stmt 1 view .LVU1476
	movs	r1, #16
	mov	r0, r4
	bl	mbedtls_platform_zeroize
.LVL515:
	.loc 1 700 17 view .LVU1477
	mov	r0, r4
	bl	mbedtls_free
.LVL516:
	.loc 1 697 25 is_stmt 0 view .LVU1478
	mov	r4, r5
.LVL517:
.L341:
	.loc 1 694 18 is_stmt 1 view .LVU1479
	cmp	r4, #0
	bne	.L342
	.loc 1 702 13 view .LVU1480
	.loc 1 702 36 is_stmt 0 view .LVU1481
	movs	r3, #0
	str	r3, [r8, #12]
	.loc 1 703 13 is_stmt 1 view .LVU1482
	.loc 1 703 19 is_stmt 0 view .LVU1483
	mov	r9, r10
	b	.L334
.LVL518:
.L340:
	.loc 1 703 19 view .LVU1484
.LBE184:
	.loc 1 707 9 is_stmt 1 view .LVU1485
	.loc 1 707 21 is_stmt 0 view .LVU1486
	ldr	r3, [r5, #8]
	.loc 1 707 11 view .LVU1487
	cbz	r3, .L343
	.loc 1 709 13 is_stmt 1 view .LVU1488
	.loc 1 709 20 is_stmt 0 view .LVU1489
	ldr	r3, [r5, #12]
	.loc 1 709 15 view .LVU1490
	cmp	r3, #0
	bne	.L347
	.loc 1 712 13 is_stmt 1 view .LVU1491
	.loc 1 712 25 is_stmt 0 view .LVU1492
	movs	r1, #16
	movs	r0, #1
.LVL519:
	.loc 1 712 25 view .LVU1493
	bl	mbedtls_calloc
.LVL520:
	.loc 1 712 23 view .LVU1494
	str	r0, [r5, #12]
	.loc 1 714 13 is_stmt 1 view .LVU1495
	.loc 1 714 15 is_stmt 0 view .LVU1496
	cmp	r0, #0
	beq	.L348
	.loc 1 718 17 view .LVU1497
	mov	r5, r0
.LVL521:
.L343:
	.loc 1 721 9 is_stmt 1 view .LVU1498
	.loc 1 722 9 view .LVU1499
	.loc 1 722 18 is_stmt 0 view .LVU1500
	str	r6, [r5]
	.loc 1 723 9 is_stmt 1 view .LVU1501
	.loc 1 723 18 is_stmt 0 view .LVU1502
	ldr	r3, [r4]
	.loc 1 723 16 view .LVU1503
	str	r3, [r5, #8]
	.loc 1 724 9 is_stmt 1 view .LVU1504
	.loc 1 724 18 is_stmt 0 view .LVU1505
	ldr	r2, [sp, #40]
	str	r2, [r5, #4]
	.loc 1 725 9 is_stmt 1 view .LVU1506
	.loc 1 725 12 is_stmt 0 view .LVU1507
	ldr	r3, [r4]
	add	r3, r3, r2
	str	r3, [r4]
.LVL522:
.L337:
	.loc 1 725 12 view .LVU1508
.LBE181:
	.loc 1 665 10 is_stmt 1 view .LVU1509
	.loc 1 665 12 is_stmt 0 view .LVU1510
	ldr	r3, [r4]
	.loc 1 665 10 view .LVU1511
	cmp	r3, r7
	bcs	.L352
.LBB186:
	.loc 1 667 9 is_stmt 1 discriminator 1 view .LVU1512
	.loc 1 668 8 discriminator 1 view .LVU1513
	.loc 1 668 30 is_stmt 0 discriminator 1 view .LVU1514
	movs	r2, #40
	movs	r1, #0
	mov	r0, sp
	bl	memset
.LVL523:
	.loc 1 670 9 is_stmt 1 discriminator 1 view .LVU1515
	.loc 1 670 13 is_stmt 0 discriminator 1 view .LVU1516
	ldr	r3, [r4]
	ldrb	r6, [r3], #1	@ zero_extendqisi2
.LVL524:
	.loc 1 671 9 is_stmt 1 discriminator 1 view .LVU1517
	.loc 1 671 13 is_stmt 0 discriminator 1 view .LVU1518
	str	r3, [r4]
	.loc 1 672 9 is_stmt 1 discriminator 1 view .LVU1519
	.loc 1 672 21 is_stmt 0 discriminator 1 view .LVU1520
	add	r2, sp, #40
	mov	r1, r7
	mov	r0, r4
	bl	mbedtls_asn1_get_len
.LVL525:
	.loc 1 672 11 discriminator 1 view .LVU1521
	cmp	r0, #0
	bne	.L353
	.loc 1 675 9 is_stmt 1 view .LVU1522
	.loc 1 675 11 is_stmt 0 view .LVU1523
	and	r3, r6, #192
	cmp	r3, #128
	bne	.L346
	.loc 1 685 9 is_stmt 1 view .LVU1524
	.loc 1 685 15 is_stmt 0 view .LVU1525
	mov	r1, sp
	mov	r0, r5
.LVL526:
	.loc 1 685 15 view .LVU1526
	bl	mbedtls_x509_parse_subject_alt_name
.LVL527:
	.loc 1 690 9 is_stmt 1 view .LVU1527
	.loc 1 690 11 is_stmt 0 view .LVU1528
	mov	r10, r0
	cmp	r0, #0
	beq	.L340
	.loc 1 690 22 discriminator 1 view .LVU1529
	cmn	r0, #8320
	beq	.L340
.LBB185:
	.loc 1 692 13 is_stmt 1 view .LVU1530
	.loc 1 692 36 is_stmt 0 view .LVU1531
	ldr	r4, [r8, #12]
.LVL528:
	.loc 1 693 13 is_stmt 1 view .LVU1532
	.loc 1 694 13 view .LVU1533
	.loc 1 694 18 is_stmt 0 view .LVU1534
	b	.L341
.LVL529:
.L346:
	.loc 1 694 18 view .LVU1535
.LBE185:
	.loc 1 678 21 view .LVU1536
	ldr	r9, .L354
	b	.L334
.L347:
	.loc 1 710 23 view .LVU1537
	ldr	r9, .L354+4
	b	.L334
.LVL530:
.L348:
	.loc 1 715 25 view .LVU1538
	ldr	r9, .L354+8
	b	.L334
.LVL531:
.L352:
	.loc 1 715 25 view .LVU1539
.LBE186:
	.loc 1 729 5 is_stmt 1 view .LVU1540
	.loc 1 729 15 is_stmt 0 view .LVU1541
	movs	r3, #0
	str	r3, [r5, #12]
	.loc 1 731 5 is_stmt 1 view .LVU1542
	.loc 1 731 9 is_stmt 0 view .LVU1543
	ldr	r3, [r4]
	.loc 1 731 7 view .LVU1544
	cmp	r3, r7
	beq	.L334
	.loc 1 732 17 view .LVU1545
	ldr	r9, .L354+12
	b	.L334
.LVL532:
.L345:
	.loc 1 662 17 view .LVU1546
	ldr	r9, .L354+12
	b	.L334
.L355:
	.align	2
.L354:
	.word	-9570
	.word	-9472
	.word	-9578
	.word	-9574
	.cfi_endproc
.LFE43:
	.size	x509_get_subject_alt_name, .-x509_get_subject_alt_name
	.section	.text.x509_get_crt_ext,"ax",%progbits
	.align	1
	.syntax unified
	.thumb
	.thumb_func
	.fpu fpv4-sp-d16
	.type	x509_get_crt_ext, %function
x509_get_crt_ext:
.LVL533:
.LFB45:
	.loc 1 908 1 is_stmt 1 view -0
	.cfi_startproc
	@ args = 4, pretend = 0, frame = 24
	@ frame_needed = 0, uses_anonymous_args = 0
	.loc 1 908 1 is_stmt 0 view .LVU1548
	push	{r4, r5, r6, r7, r8, r9, r10, fp, lr}
	.cfi_def_cfa_offset 36
	.cfi_offset 4, -36
	.cfi_offset 5, -32
	.cfi_offset 6, -28
	.cfi_offset 7, -24
	.cfi_offset 8, -20
	.cfi_offset 9, -16
	.cfi_offset 10, -12
	.cfi_offset 11, -8
	.cfi_offset 14, -4
	sub	sp, sp, #36
	.cfi_def_cfa_offset 72
	mov	r9, r3
	.loc 1 909 5 is_stmt 1 view .LVU1549
.LVL534:
	.loc 1 910 5 view .LVU1550
	.loc 1 911 5 view .LVU1551
	.loc 1 913 5 view .LVU1552
	.loc 1 913 9 is_stmt 0 view .LVU1553
	ldr	r3, [r0]
.LVL535:
	.loc 1 913 7 view .LVU1554
	cmp	r3, r1
	beq	.L380
	mov	r4, r0
	mov	r7, r2
	.loc 1 916 5 is_stmt 1 view .LVU1555
	.loc 1 916 17 is_stmt 0 view .LVU1556
	movs	r3, #3
	adds	r2, r2, #236
.LVL536:
	.loc 1 916 17 view .LVU1557
	bl	mbedtls_x509_get_ext
.LVL537:
	.loc 1 916 7 view .LVU1558
	mov	r10, r0
	cmp	r0, #0
	bne	.L356
	.loc 1 919 5 is_stmt 1 view .LVU1559
	.loc 1 919 22 is_stmt 0 view .LVU1560
	ldr	r2, [r7, #244]
	.loc 1 919 38 view .LVU1561
	ldr	r3, [r7, #240]
	.loc 1 919 9 view .LVU1562
	add	r8, r2, r3
.LVL538:
	.loc 1 920 5 is_stmt 1 view .LVU1563
.L358:
	.loc 1 920 10 view .LVU1564
	.loc 1 920 12 is_stmt 0 view .LVU1565
	ldr	r3, [r4]
	.loc 1 920 10 view .LVU1566
	cmp	r3, r8
	bcs	.L395
.LBB187:
	.loc 1 928 9 is_stmt 1 view .LVU1567
	.loc 1 928 26 is_stmt 0 view .LVU1568
	movs	r1, #0
	str	r1, [sp, #16]
	str	r1, [sp, #20]
	str	r1, [sp, #24]
	.loc 1 929 9 is_stmt 1 view .LVU1569
	.loc 1 929 13 is_stmt 0 view .LVU1570
	str	r1, [sp, #8]
	.loc 1 930 9 is_stmt 1 view .LVU1571
	.loc 1 930 13 is_stmt 0 view .LVU1572
	str	r1, [sp, #12]
	.loc 1 932 9 is_stmt 1 view .LVU1573
	.loc 1 932 21 is_stmt 0 view .LVU1574
	movs	r3, #48
	add	r2, sp, #28
	mov	r1, r8
	mov	r0, r4
	bl	mbedtls_asn1_get_tag
.LVL539:
	.loc 1 932 11 view .LVU1575
	cmp	r0, #0
	bne	.L396
	.loc 1 936 9 is_stmt 1 view .LVU1576
	.loc 1 936 24 is_stmt 0 view .LVU1577
	ldr	r5, [r4]
	.loc 1 936 27 view .LVU1578
	ldr	r3, [sp, #28]
	.loc 1 936 22 view .LVU1579
	add	r5, r5, r3
.LVL540:
	.loc 1 939 9 is_stmt 1 view .LVU1580
	.loc 1 939 21 is_stmt 0 view .LVU1581
	movs	r3, #6
	add	r2, sp, #20
	mov	r1, r5
	mov	r0, r4
.LVL541:
	.loc 1 939 21 view .LVU1582
	bl	mbedtls_asn1_get_tag
.LVL542:
	.loc 1 939 11 view .LVU1583
	cmp	r0, #0
	bne	.L397
	.loc 1 943 9 is_stmt 1 view .LVU1584
	.loc 1 943 22 is_stmt 0 view .LVU1585
	movs	r3, #6
	str	r3, [sp, #16]
	.loc 1 944 9 is_stmt 1 view .LVU1586
	.loc 1 944 22 is_stmt 0 view .LVU1587
	ldr	r3, [r4]
	.loc 1 944 20 view .LVU1588
	str	r3, [sp, #24]
	.loc 1 945 9 is_stmt 1 view .LVU1589
	.loc 1 945 23 is_stmt 0 view .LVU1590
	ldr	r2, [sp, #20]
	.loc 1 945 12 view .LVU1591
	add	r3, r3, r2
	str	r3, [r4]
	.loc 1 948 9 is_stmt 1 view .LVU1592
	.loc 1 948 21 is_stmt 0 view .LVU1593
	add	r2, sp, #8
	mov	r1, r5
	mov	r0, r4
.LVL543:
	.loc 1 948 21 view .LVU1594
	bl	mbedtls_asn1_get_bool
.LVL544:
	.loc 1 948 11 view .LVU1595
	cbz	r0, .L362
	.loc 1 948 83 discriminator 1 view .LVU1596
	cmn	r0, #98
	bne	.L398
.L362:
	.loc 1 953 9 is_stmt 1 view .LVU1597
	.loc 1 953 21 is_stmt 0 view .LVU1598
	movs	r3, #4
	add	r2, sp, #28
	mov	r1, r5
	mov	r0, r4
.LVL545:
	.loc 1 953 21 view .LVU1599
	bl	mbedtls_asn1_get_tag
.LVL546:
	.loc 1 953 11 view .LVU1600
	cbnz	r0, .L399
	.loc 1 957 9 is_stmt 1 view .LVU1601
	.loc 1 957 25 is_stmt 0 view .LVU1602
	ldr	fp, [r4]
.LVL547:
	.loc 1 958 9 is_stmt 1 view .LVU1603
	.loc 1 958 28 is_stmt 0 view .LVU1604
	ldr	r6, [sp, #28]
	.loc 1 958 23 view .LVU1605
	add	r6, r6, fp
.LVL548:
	.loc 1 960 9 is_stmt 1 view .LVU1606
	.loc 1 960 11 is_stmt 0 view .LVU1607
	cmp	r5, r6
	bne	.L381
	.loc 1 967 9 is_stmt 1 view .LVU1608
	.loc 1 967 15 is_stmt 0 view .LVU1609
	add	r1, sp, #12
	add	r0, sp, #16
.LVL549:
	.loc 1 967 15 view .LVU1610
	bl	mbedtls_oid_get_x509_ext_type
.LVL550:
	.loc 1 969 9 is_stmt 1 view .LVU1611
	.loc 1 969 11 is_stmt 0 view .LVU1612
	cbz	r0, .L364
	.loc 1 972 13 is_stmt 1 view .LVU1613
	.loc 1 972 15 is_stmt 0 view .LVU1614
	cmp	r9, #0
	beq	.L365
	.loc 1 974 17 is_stmt 1 view .LVU1615
	.loc 1 974 23 is_stmt 0 view .LVU1616
	str	r6, [sp, #4]
	ldr	r3, [r4]
	str	r3, [sp]
	ldr	r3, [sp, #8]
	add	r2, sp, #16
	mov	r1, r7
	ldr	r0, [sp, #72]
.LVL551:
	.loc 1 974 23 view .LVU1617
	blx	r9
.LVL552:
	.loc 1 975 17 is_stmt 1 view .LVU1618
	.loc 1 975 19 is_stmt 0 view .LVU1619
	cbz	r0, .L366
	.loc 1 975 30 discriminator 1 view .LVU1620
	ldr	r2, [sp, #8]
	cbz	r2, .L366
	.loc 1 976 27 view .LVU1621
	mov	r10, r0
	b	.L356
.LVL553:
.L396:
	.loc 1 934 13 is_stmt 1 view .LVU1622
.LBB188:
.LBI188:
	.loc 2 152 19 view .LVU1623
.LBB189:
	.loc 2 159 5 view .LVU1624
	.loc 2 160 5 view .LVU1625
	.loc 2 162 5 view .LVU1626
	.loc 2 162 18 is_stmt 0 view .LVU1627
	sub	r10, r0, #9472
.LVL554:
	.loc 2 162 18 view .LVU1628
.LBE189:
.LBE188:
	.loc 1 934 21 view .LVU1629
	b	.L356
.LVL555:
.L397:
	.loc 1 941 13 is_stmt 1 view .LVU1630
.LBB190:
.LBI190:
	.loc 2 152 19 view .LVU1631
.LBB191:
	.loc 2 159 5 view .LVU1632
	.loc 2 160 5 view .LVU1633
	.loc 2 162 5 view .LVU1634
	.loc 2 162 18 is_stmt 0 view .LVU1635
	sub	r10, r0, #9472
.LVL556:
	.loc 2 162 18 view .LVU1636
.LBE191:
.LBE190:
	.loc 1 941 21 view .LVU1637
	b	.L356
.L398:
	.loc 1 950 13 is_stmt 1 view .LVU1638
.LVL557:
.LBB192:
.LBI192:
	.loc 2 152 19 view .LVU1639
.LBB193:
	.loc 2 159 5 view .LVU1640
	.loc 2 160 5 view .LVU1641
	.loc 2 162 5 view .LVU1642
	.loc 2 162 18 is_stmt 0 view .LVU1643
	sub	r10, r0, #9472
.LVL558:
	.loc 2 162 18 view .LVU1644
.LBE193:
.LBE192:
	.loc 1 950 21 view .LVU1645
	b	.L356
.L399:
	.loc 1 955 13 is_stmt 1 view .LVU1646
.LVL559:
.LBB194:
.LBI194:
	.loc 2 152 19 view .LVU1647
.LBB195:
	.loc 2 159 5 view .LVU1648
	.loc 2 160 5 view .LVU1649
	.loc 2 162 5 view .LVU1650
	.loc 2 162 18 is_stmt 0 view .LVU1651
	sub	r10, r0, #9472
.LVL560:
	.loc 2 162 18 view .LVU1652
.LBE195:
.LBE194:
	.loc 1 955 21 view .LVU1653
	b	.L356
.LVL561:
.L366:
	.loc 1 977 17 is_stmt 1 view .LVU1654
	.loc 1 977 20 is_stmt 0 view .LVU1655
	str	r6, [r4]
	.loc 1 978 17 is_stmt 1 view .LVU1656
	b	.L358
.L365:
	.loc 1 982 13 view .LVU1657
	.loc 1 982 16 is_stmt 0 view .LVU1658
	str	r6, [r4]
	.loc 1 984 13 is_stmt 1 view .LVU1659
	.loc 1 984 17 is_stmt 0 view .LVU1660
	ldr	r3, [sp, #8]
	.loc 1 984 15 view .LVU1661
	cmp	r3, #0
	beq	.L358
	.loc 1 987 25 view .LVU1662
	ldr	r10, .L402
	b	.L356
.L364:
	.loc 1 994 9 is_stmt 1 view .LVU1663
	.loc 1 994 18 is_stmt 0 view .LVU1664
	ldr	r2, [r7, #280]
	.loc 1 994 30 view .LVU1665
	ldr	r3, [sp, #12]
	.loc 1 994 11 view .LVU1666
	tst	r2, r3
	bne	.L384
	.loc 1 997 9 is_stmt 1 view .LVU1667
	.loc 1 997 24 is_stmt 0 view .LVU1668
	orrs	r2, r2, r3
	str	r2, [r7, #280]
	.loc 1 999 9 is_stmt 1 view .LVU1669
	cmp	r3, #256
	beq	.L368
	bgt	.L369
	cmp	r3, #8
	beq	.L370
	cmp	r3, #32
	bne	.L400
	.loc 1 1024 13 view .LVU1670
	.loc 1 1024 25 is_stmt 0 view .LVU1671
	add	r2, r7, #248
	mov	r1, r6
	mov	r0, r4
.LVL562:
	.loc 1 1024 25 view .LVU1672
	bl	x509_get_subject_alt_name
.LVL563:
	.loc 1 1024 15 view .LVU1673
	cmp	r0, #0
	beq	.L358
	.loc 1 1026 23 view .LVU1674
	mov	r10, r0
	b	.L356
.L400:
	.loc 1 999 9 view .LVU1675
	cmp	r3, #4
	bne	.L373
	.loc 1 1010 13 is_stmt 1 view .LVU1676
	.loc 1 1010 25 is_stmt 0 view .LVU1677
	add	r2, r7, #292
	mov	r1, r6
	mov	r0, r4
.LVL564:
	.loc 1 1010 25 view .LVU1678
	bl	x509_get_key_usage
.LVL565:
	.loc 1 1010 15 view .LVU1679
	cmp	r0, #0
	beq	.L358
	.loc 1 1012 23 view .LVU1680
	mov	r10, r0
	b	.L356
.L369:
	.loc 1 999 9 view .LVU1681
	cmp	r3, #2048
	beq	.L374
	cmp	r3, #65536
	bne	.L373
	.loc 1 1031 13 is_stmt 1 view .LVU1682
	.loc 1 1031 25 is_stmt 0 view .LVU1683
	add	r2, r7, #312
	mov	r1, r6
	mov	r0, r4
.LVL566:
	.loc 1 1031 25 view .LVU1684
	bl	x509_get_ns_cert_type
.LVL567:
	.loc 1 1031 15 view .LVU1685
	cmp	r0, #0
	beq	.L358
	.loc 1 1033 23 view .LVU1686
	mov	r10, r0
	b	.L356
.L368:
	.loc 1 1003 13 is_stmt 1 view .LVU1687
	.loc 1 1003 25 is_stmt 0 view .LVU1688
	add	r3, r7, #288
	add	r2, r7, #284
	mov	r1, r6
	mov	r0, r4
.LVL568:
	.loc 1 1003 25 view .LVU1689
	bl	x509_get_basic_constraints
.LVL569:
	.loc 1 1003 15 view .LVU1690
	cmp	r0, #0
	beq	.L358
	.loc 1 1005 23 view .LVU1691
	mov	r10, r0
	b	.L356
.L374:
	.loc 1 1017 13 is_stmt 1 view .LVU1692
	.loc 1 1017 25 is_stmt 0 view .LVU1693
	add	r2, r7, #296
	mov	r1, r6
	mov	r0, r4
.LVL570:
	.loc 1 1017 25 view .LVU1694
	bl	x509_get_ext_key_usage
.LVL571:
	.loc 1 1017 15 view .LVU1695
	cmp	r0, #0
	beq	.L358
	.loc 1 1019 23 view .LVU1696
	mov	r10, r0
	b	.L356
.L370:
	.loc 1 1038 13 is_stmt 1 view .LVU1697
	.loc 1 1038 25 is_stmt 0 view .LVU1698
	add	r2, r7, #264
	mov	r1, r6
	mov	r0, r4
.LVL572:
	.loc 1 1038 25 view .LVU1699
	bl	x509_get_certificate_policies
.LVL573:
	.loc 1 1038 15 view .LVU1700
	mov	r5, r0
.LVL574:
	.loc 1 1038 15 view .LVU1701
	cmp	r0, #0
	beq	.L358
	.loc 1 1043 17 is_stmt 1 view .LVU1702
	.loc 1 1043 19 is_stmt 0 view .LVU1703
	cmn	r0, #8320
	beq	.L401
.LVL575:
.L377:
	.loc 1 1048 17 is_stmt 1 view .LVU1704
	.loc 1 1048 21 is_stmt 0 view .LVU1705
	ldr	r3, [sp, #8]
	.loc 1 1048 19 view .LVU1706
	cbnz	r3, .L390
	.loc 1 1057 17 is_stmt 1 view .LVU1707
	.loc 1 1057 19 is_stmt 0 view .LVU1708
	cmn	r5, #8320
	beq	.L358
	.loc 1 1058 27 view .LVU1709
	mov	r10, r5
	b	.L356
.LVL576:
.L401:
	.loc 1 1043 36 discriminator 1 view .LVU1710
	cmp	r9, #0
	beq	.L377
	.loc 1 1044 21 discriminator 2 view .LVU1711
	str	r6, [sp, #4]
	str	fp, [sp]
	ldr	r3, [sp, #8]
	add	r2, sp, #16
	mov	r1, r7
	ldr	r0, [sp, #72]
.LVL577:
	.loc 1 1044 21 discriminator 2 view .LVU1712
	blx	r9
.LVL578:
	.loc 1 1043 78 discriminator 2 view .LVU1713
	cmp	r0, #0
	beq	.L358
	b	.L377
.LVL579:
.L373:
	.loc 1 1068 13 is_stmt 1 view .LVU1714
	.loc 1 1068 17 is_stmt 0 view .LVU1715
	ldr	r3, [sp, #8]
	.loc 1 1068 15 view .LVU1716
	cbnz	r3, .L392
	.loc 1 1071 17 is_stmt 1 view .LVU1717
	.loc 1 1071 20 is_stmt 0 view .LVU1718
	str	r6, [r4]
	b	.L358
.L381:
	.loc 1 961 21 view .LVU1719
	ldr	r10, .L402+4
	b	.L356
.L384:
	.loc 1 995 19 view .LVU1720
	ldr	r10, .L402+8
	b	.L356
.LVL580:
.L390:
	.loc 1 1049 27 view .LVU1721
	mov	r10, r5
	b	.L356
.LVL581:
.L392:
	.loc 1 1069 23 view .LVU1722
	ldr	r10, .L402+12
	b	.L356
.LVL582:
.L395:
	.loc 1 1069 23 view .LVU1723
.LBE187:
	.loc 1 1075 5 is_stmt 1 view .LVU1724
	.loc 1 1075 7 is_stmt 0 view .LVU1725
	beq	.L356
	.loc 1 1076 17 view .LVU1726
	ldr	r10, .L402+4
	b	.L356
.LVL583:
.L380:
	.loc 1 914 15 view .LVU1727
	mov	r10, #0
.LVL584:
.L356:
	.loc 1 1080 1 view .LVU1728
	mov	r0, r10
	add	sp, sp, #36
	.cfi_def_cfa_offset 36
	@ sp needed
	pop	{r4, r5, r6, r7, r8, r9, r10, fp, pc}
.LVL585:
.L403:
	.loc 1 1080 1 view .LVU1729
	.align	2
.L402:
	.word	-9570
	.word	-9574
	.word	-9472
	.word	-8320
	.cfi_endproc
.LFE45:
	.size	x509_get_crt_ext, .-x509_get_crt_ext
	.section	.rodata.x509_info_subject_alt_name.str1.4,"aMS",%progbits,1
	.align	2
.LC24:
	.ascii	"\012%s    <unsupported>\000"
	.align	2
.LC25:
	.ascii	"\012%s    <malformed>\000"
	.align	2
.LC26:
	.ascii	"\012%s    otherName :\000"
	.align	2
.LC27:
	.ascii	"\012%s        hardware module name :\000"
	.align	2
.LC28:
	.ascii	"\012%s            hardware type          : \000"
	.align	2
.LC29:
	.ascii	"\012%s            hardware serial number : \000"
	.align	2
.LC30:
	.ascii	"\012%s    dNSName : \000"
	.section	.text.x509_info_subject_alt_name,"ax",%progbits
	.align	1
	.syntax unified
	.thumb
	.thumb_func
	.fpu fpv4-sp-d16
	.type	x509_info_subject_alt_name, %function
x509_info_subject_alt_name:
.LVL586:
.LFB54:
	.loc 1 1837 1 is_stmt 1 view -0
	.cfi_startproc
	@ args = 0, pretend = 0, frame = 40
	@ frame_needed = 0, uses_anonymous_args = 0
	.loc 1 1837 1 is_stmt 0 view .LVU1731
	push	{r4, r5, r6, r7, r8, r9, lr}
	.cfi_def_cfa_offset 28
	.cfi_offset 4, -28
	.cfi_offset 5, -24
	.cfi_offset 6, -20
	.cfi_offset 7, -16
	.cfi_offset 8, -12
	.cfi_offset 9, -8
	.cfi_offset 14, -4
	sub	sp, sp, #44
	.cfi_def_cfa_offset 72
	mov	r8, r0
	mov	r9, r1
	mov	r6, r2
	mov	r7, r3
	.loc 1 1838 5 is_stmt 1 view .LVU1732
.LVL587:
	.loc 1 1839 5 view .LVU1733
	.loc 1 1839 12 is_stmt 0 view .LVU1734
	ldr	r4, [r1]
.LVL588:
	.loc 1 1840 5 is_stmt 1 view .LVU1735
	.loc 1 1840 11 is_stmt 0 view .LVU1736
	ldr	r5, [r0]
.LVL589:
	.loc 1 1841 5 is_stmt 1 view .LVU1737
	.loc 1 1842 5 view .LVU1738
	.loc 1 1843 5 view .LVU1739
	.loc 1 1845 5 view .LVU1740
	.loc 1 1845 10 is_stmt 0 view .LVU1741
	b	.L405
.LVL590:
.L440:
	.loc 1 1853 17 is_stmt 1 view .LVU1742
	.loc 1 1853 22 is_stmt 0 view .LVU1743
	mov	r3, r7
	ldr	r2, .L445
	mov	r1, r4
	mov	r0, r5
.LVL591:
	.loc 1 1853 22 view .LVU1744
	bl	snprintf
.LVL592:
	.loc 1 1854 17 is_stmt 1 view .LVU1745
	.loc 1 1854 22 view .LVU1746
	.loc 1 1854 24 is_stmt 0 view .LVU1747
	cmp	r0, #0
	.loc 1 1854 24 view .LVU1748
	blt	.L419
	.loc 1 1854 34 discriminator 2 view .LVU1749
	cmp	r0, r4
	bcs	.L420
	.loc 1 1854 76 is_stmt 1 discriminator 4 view .LVU1750
	.loc 1 1854 78 is_stmt 0 discriminator 4 view .LVU1751
	subs	r4, r4, r0
.LVL593:
	.loc 1 1854 95 is_stmt 1 discriminator 4 view .LVU1752
	.loc 1 1854 97 is_stmt 0 discriminator 4 view .LVU1753
	add	r5, r5, r0
.LVL594:
	.loc 1 1854 121 is_stmt 1 discriminator 4 view .LVU1754
	b	.L409
.L441:
	.loc 1 1859 76 discriminator 4 view .LVU1755
	.loc 1 1859 78 is_stmt 0 discriminator 4 view .LVU1756
	subs	r4, r4, r2
.LVL595:
	.loc 1 1859 95 is_stmt 1 discriminator 4 view .LVU1757
	.loc 1 1859 97 is_stmt 0 discriminator 4 view .LVU1758
	add	r5, r5, r2
.LVL596:
.L409:
	.loc 1 1859 121 is_stmt 1 discriminator 5 view .LVU1759
	.loc 1 1861 13 discriminator 5 view .LVU1760
	.loc 1 1861 17 is_stmt 0 discriminator 5 view .LVU1761
	ldr	r6, [r6, #12]
.LVL597:
	.loc 1 1862 13 is_stmt 1 discriminator 5 view .LVU1762
.L405:
	.loc 1 1845 10 view .LVU1763
	cmp	r6, #0
	beq	.L439
	.loc 1 1847 8 discriminator 1 view .LVU1764
	.loc 1 1847 30 is_stmt 0 discriminator 1 view .LVU1765
	movs	r2, #40
	movs	r1, #0
	mov	r0, sp
	bl	memset
.LVL598:
	.loc 1 1848 9 is_stmt 1 discriminator 1 view .LVU1766
	.loc 1 1848 21 is_stmt 0 discriminator 1 view .LVU1767
	mov	r1, sp
	mov	r0, r6
	bl	mbedtls_x509_parse_subject_alt_name
.LVL599:
	.loc 1 1849 9 is_stmt 1 discriminator 1 view .LVU1768
	.loc 1 1849 11 is_stmt 0 discriminator 1 view .LVU1769
	cbz	r0, .L406
	.loc 1 1851 13 is_stmt 1 view .LVU1770
	.loc 1 1851 15 is_stmt 0 view .LVU1771
	cmn	r0, #8320
	beq	.L440
	.loc 1 1858 17 is_stmt 1 view .LVU1772
	.loc 1 1858 22 is_stmt 0 view .LVU1773
	mov	r3, r7
	ldr	r2, .L445+4
	mov	r1, r4
	mov	r0, r5
.LVL600:
	.loc 1 1858 22 view .LVU1774
	bl	snprintf
.LVL601:
	.loc 1 1859 17 is_stmt 1 view .LVU1775
	.loc 1 1859 22 view .LVU1776
	.loc 1 1859 24 is_stmt 0 view .LVU1777
	subs	r2, r0, #0
	blt	.L421
	.loc 1 1859 34 discriminator 2 view .LVU1778
	cmp	r2, r4
	bcc	.L441
	.loc 1 1859 63 view .LVU1779
	ldr	r0, .L445+8
.LVL602:
	.loc 1 1859 63 view .LVU1780
	b	.L404
.LVL603:
.L406:
	.loc 1 1865 9 is_stmt 1 view .LVU1781
	.loc 1 1865 20 is_stmt 0 view .LVU1782
	ldr	r3, [sp]
	.loc 1 1865 9 view .LVU1783
	cbz	r3, .L411
	cmp	r3, #2
	beq	.L412
	.loc 1 1930 17 is_stmt 1 view .LVU1784
	.loc 1 1930 22 is_stmt 0 view .LVU1785
	mov	r3, r7
	ldr	r2, .L445
	mov	r1, r4
	mov	r0, r5
.LVL604:
	.loc 1 1930 22 view .LVU1786
	bl	snprintf
.LVL605:
	.loc 1 1931 17 is_stmt 1 view .LVU1787
	.loc 1 1931 22 view .LVU1788
	.loc 1 1931 24 is_stmt 0 view .LVU1789
	cmp	r0, #0
	.loc 1 1931 24 view .LVU1790
	blt	.L435
	.loc 1 1931 34 discriminator 2 view .LVU1791
	cmp	r0, r4
	bcs	.L436
	.loc 1 1931 76 is_stmt 1 discriminator 4 view .LVU1792
	.loc 1 1931 78 is_stmt 0 discriminator 4 view .LVU1793
	subs	r4, r4, r0
.LVL606:
	.loc 1 1931 95 is_stmt 1 discriminator 4 view .LVU1794
	.loc 1 1931 97 is_stmt 0 discriminator 4 view .LVU1795
	add	r5, r5, r0
.LVL607:
	.loc 1 1931 121 is_stmt 1 discriminator 4 view .LVU1796
	.loc 1 1932 17 discriminator 4 view .LVU1797
.L415:
	.loc 1 1935 9 view .LVU1798
	.loc 1 1935 13 is_stmt 0 view .LVU1799
	ldr	r6, [r6, #12]
.LVL608:
	.loc 1 1935 13 view .LVU1800
	b	.L405
.LVL609:
.L411:
.LBB196:
	.loc 1 1872 17 is_stmt 1 view .LVU1801
	.loc 1 1874 17 view .LVU1802
	.loc 1 1874 22 is_stmt 0 view .LVU1803
	mov	r3, r7
	ldr	r2, .L445+12
	mov	r1, r4
	mov	r0, r5
.LVL610:
	.loc 1 1874 22 view .LVU1804
	bl	snprintf
.LVL611:
	.loc 1 1875 17 is_stmt 1 view .LVU1805
	.loc 1 1875 22 view .LVU1806
	.loc 1 1875 24 is_stmt 0 view .LVU1807
	cmp	r0, #0
	.loc 1 1875 24 view .LVU1808
	blt	.L423
	.loc 1 1875 34 discriminator 2 view .LVU1809
	cmp	r0, r4
	bcs	.L424
	.loc 1 1875 76 is_stmt 1 discriminator 4 view .LVU1810
	.loc 1 1875 78 is_stmt 0 discriminator 4 view .LVU1811
	subs	r4, r4, r0
.LVL612:
	.loc 1 1875 95 is_stmt 1 discriminator 4 view .LVU1812
	.loc 1 1875 97 is_stmt 0 discriminator 4 view .LVU1813
	add	r5, r5, r0
.LVL613:
	.loc 1 1875 121 is_stmt 1 discriminator 4 view .LVU1814
	.loc 1 1877 17 discriminator 4 view .LVU1815
	.loc 1 1877 137 is_stmt 0 discriminator 4 view .LVU1816
	ldr	r2, [sp, #20]
	.loc 1 1877 145 discriminator 4 view .LVU1817
	cmp	r2, #8
	beq	.L442
.LVL614:
.L414:
	.loc 1 1880 21 is_stmt 1 discriminator 3 view .LVU1818
	.loc 1 1880 26 is_stmt 0 discriminator 3 view .LVU1819
	mov	r3, r7
	ldr	r2, .L445+16
	mov	r1, r4
	mov	r0, r5
	bl	snprintf
.LVL615:
	.loc 1 1881 21 is_stmt 1 discriminator 3 view .LVU1820
	.loc 1 1881 26 discriminator 3 view .LVU1821
	.loc 1 1881 28 is_stmt 0 discriminator 3 view .LVU1822
	cmp	r0, #0
	.loc 1 1881 28 discriminator 3 view .LVU1823
	blt	.L425
	.loc 1 1881 38 discriminator 2 view .LVU1824
	cmp	r0, r4
	bcs	.L426
	.loc 1 1881 80 is_stmt 1 discriminator 4 view .LVU1825
	.loc 1 1881 82 is_stmt 0 discriminator 4 view .LVU1826
	subs	r4, r4, r0
.LVL616:
	.loc 1 1881 99 is_stmt 1 discriminator 4 view .LVU1827
	.loc 1 1881 101 is_stmt 0 discriminator 4 view .LVU1828
	add	r5, r5, r0
.LVL617:
	.loc 1 1881 125 is_stmt 1 discriminator 4 view .LVU1829
	.loc 1 1882 21 discriminator 4 view .LVU1830
	.loc 1 1882 26 is_stmt 0 discriminator 4 view .LVU1831
	mov	r3, r7
	ldr	r2, .L445+20
	mov	r1, r4
	mov	r0, r5
.LVL618:
	.loc 1 1882 26 discriminator 4 view .LVU1832
	bl	snprintf
.LVL619:
	.loc 1 1883 21 is_stmt 1 discriminator 4 view .LVU1833
	.loc 1 1883 26 discriminator 4 view .LVU1834
	.loc 1 1883 28 is_stmt 0 discriminator 4 view .LVU1835
	cmp	r0, #0
	.loc 1 1883 28 discriminator 4 view .LVU1836
	blt	.L427
	.loc 1 1883 38 discriminator 2 view .LVU1837
	cmp	r0, r4
	bcs	.L428
	.loc 1 1883 80 is_stmt 1 discriminator 4 view .LVU1838
	.loc 1 1883 82 is_stmt 0 discriminator 4 view .LVU1839
	subs	r4, r4, r0
.LVL620:
	.loc 1 1883 99 is_stmt 1 discriminator 4 view .LVU1840
	.loc 1 1883 101 is_stmt 0 discriminator 4 view .LVU1841
	add	r5, r5, r0
.LVL621:
	.loc 1 1883 125 is_stmt 1 discriminator 4 view .LVU1842
	.loc 1 1885 21 discriminator 4 view .LVU1843
	.loc 1 1885 27 is_stmt 0 discriminator 4 view .LVU1844
	add	r2, sp, #16
	mov	r1, r4
	mov	r0, r5
.LVL622:
	.loc 1 1885 27 discriminator 4 view .LVU1845
	bl	mbedtls_oid_get_numeric_string
.LVL623:
	.loc 1 1886 21 is_stmt 1 discriminator 4 view .LVU1846
	.loc 1 1886 26 discriminator 4 view .LVU1847
	.loc 1 1886 28 is_stmt 0 discriminator 4 view .LVU1848
	cmp	r0, #0
	.loc 1 1886 28 discriminator 4 view .LVU1849
	blt	.L429
	.loc 1 1886 38 discriminator 2 view .LVU1850
	cmp	r0, r4
	bcs	.L430
	.loc 1 1886 80 is_stmt 1 discriminator 4 view .LVU1851
	.loc 1 1886 82 is_stmt 0 discriminator 4 view .LVU1852
	subs	r4, r4, r0
.LVL624:
	.loc 1 1886 99 is_stmt 1 discriminator 4 view .LVU1853
	.loc 1 1886 101 is_stmt 0 discriminator 4 view .LVU1854
	add	r5, r5, r0
.LVL625:
	.loc 1 1886 125 is_stmt 1 discriminator 4 view .LVU1855
	.loc 1 1888 21 discriminator 4 view .LVU1856
	.loc 1 1888 26 is_stmt 0 discriminator 4 view .LVU1857
	mov	r3, r7
	ldr	r2, .L445+24
	mov	r1, r4
	mov	r0, r5
.LVL626:
	.loc 1 1888 26 discriminator 4 view .LVU1858
	bl	snprintf
.LVL627:
	.loc 1 1889 21 is_stmt 1 discriminator 4 view .LVU1859
	.loc 1 1889 26 discriminator 4 view .LVU1860
	.loc 1 1889 28 is_stmt 0 discriminator 4 view .LVU1861
	cmp	r0, #0
	.loc 1 1889 28 discriminator 4 view .LVU1862
	blt	.L431
	.loc 1 1889 38 discriminator 2 view .LVU1863
	cmp	r0, r4
	bcs	.L432
	.loc 1 1889 80 is_stmt 1 discriminator 4 view .LVU1864
	.loc 1 1889 82 is_stmt 0 discriminator 4 view .LVU1865
	subs	r4, r4, r0
.LVL628:
	.loc 1 1889 99 is_stmt 1 discriminator 4 view .LVU1866
	.loc 1 1889 101 is_stmt 0 discriminator 4 view .LVU1867
	add	r5, r5, r0
.LVL629:
	.loc 1 1889 125 is_stmt 1 discriminator 4 view .LVU1868
	.loc 1 1891 21 discriminator 4 view .LVU1869
	.loc 1 1891 67 is_stmt 0 discriminator 4 view .LVU1870
	ldr	r2, [sp, #32]
	.loc 1 1891 23 discriminator 4 view .LVU1871
	cmp	r2, r4
	bcs	.L443
	.loc 1 1897 20 is_stmt 1 view .LVU1872
.LVL630:
.LBB197:
.LBI197:
	.loc 3 83 216 view .LVU1873
.LBB198:
	.loc 3 83 292 view .LVU1874
	.loc 3 83 299 is_stmt 0 view .LVU1875
	ldr	r1, [sp, #36]
	mov	r0, r5
.LVL631:
	.loc 3 83 299 view .LVU1876
	bl	memcpy
.LVL632:
	.loc 3 83 299 view .LVU1877
.LBE198:
.LBE197:
	.loc 1 1899 21 is_stmt 1 view .LVU1878
	.loc 1 1899 68 is_stmt 0 view .LVU1879
	ldr	r3, [sp, #32]
	.loc 1 1899 23 view .LVU1880
	add	r5, r5, r3
.LVL633:
	.loc 1 1901 21 is_stmt 1 view .LVU1881
	.loc 1 1901 23 is_stmt 0 view .LVU1882
	subs	r4, r4, r3
.LVL634:
	.loc 1 1901 23 view .LVU1883
	b	.L415
.LVL635:
.L442:
	.loc 1 1877 148 discriminator 2 view .LVU1884
	ldr	r1, [sp, #24]
	ldr	r0, .L445+28
.LVL636:
	.loc 1 1877 148 discriminator 2 view .LVU1885
	bl	memcmp
.LVL637:
	.loc 1 1877 145 discriminator 2 view .LVU1886
	cmp	r0, #0
	beq	.L415
	b	.L414
.LVL638:
.L443:
	.loc 1 1893 25 is_stmt 1 view .LVU1887
	.loc 1 1893 28 is_stmt 0 view .LVU1888
	movs	r3, #0
	strb	r3, [r5]
	.loc 1 1894 25 is_stmt 1 view .LVU1889
	.loc 1 1894 31 is_stmt 0 view .LVU1890
	ldr	r0, .L445+8
.LVL639:
	.loc 1 1894 31 view .LVU1891
	b	.L404
.LVL640:
.L412:
	.loc 1 1894 31 view .LVU1892
.LBE196:
	.loc 1 1912 17 is_stmt 1 view .LVU1893
	.loc 1 1912 22 is_stmt 0 view .LVU1894
	mov	r3, r7
	ldr	r2, .L445+32
	mov	r1, r4
	mov	r0, r5
.LVL641:
	.loc 1 1912 22 view .LVU1895
	bl	snprintf
.LVL642:
	.loc 1 1913 17 is_stmt 1 view .LVU1896
	.loc 1 1913 22 view .LVU1897
	.loc 1 1913 24 is_stmt 0 view .LVU1898
	cmp	r0, #0
	.loc 1 1913 24 view .LVU1899
	blt	.L433
	.loc 1 1913 34 discriminator 2 view .LVU1900
	cmp	r0, r4
	bcs	.L434
	.loc 1 1913 76 is_stmt 1 discriminator 4 view .LVU1901
	.loc 1 1913 78 is_stmt 0 discriminator 4 view .LVU1902
	subs	r4, r4, r0
.LVL643:
	.loc 1 1913 95 is_stmt 1 discriminator 4 view .LVU1903
	.loc 1 1913 97 is_stmt 0 discriminator 4 view .LVU1904
	add	r5, r5, r0
.LVL644:
	.loc 1 1913 121 is_stmt 1 discriminator 4 view .LVU1905
	.loc 1 1914 17 discriminator 4 view .LVU1906
	.loc 1 1914 46 is_stmt 0 discriminator 4 view .LVU1907
	ldr	r2, [sp, #8]
	.loc 1 1914 19 discriminator 4 view .LVU1908
	cmp	r2, r4
	bcs	.L444
	.loc 1 1920 16 is_stmt 1 view .LVU1909
.LVL645:
.LBB199:
.LBI199:
	.loc 3 83 216 view .LVU1910
.LBB200:
	.loc 3 83 292 view .LVU1911
	.loc 3 83 299 is_stmt 0 view .LVU1912
	ldr	r1, [sp, #12]
	mov	r0, r5
.LVL646:
	.loc 3 83 299 view .LVU1913
	bl	memcpy
.LVL647:
	.loc 3 83 299 view .LVU1914
.LBE200:
.LBE199:
	.loc 1 1921 17 is_stmt 1 view .LVU1915
	.loc 1 1921 47 is_stmt 0 view .LVU1916
	ldr	r3, [sp, #8]
	.loc 1 1921 19 view .LVU1917
	add	r5, r5, r3
.LVL648:
	.loc 1 1922 17 is_stmt 1 view .LVU1918
	.loc 1 1922 19 is_stmt 0 view .LVU1919
	subs	r4, r4, r3
.LVL649:
	.loc 1 1924 13 is_stmt 1 view .LVU1920
	b	.L415
.LVL650:
.L444:
	.loc 1 1916 21 view .LVU1921
	.loc 1 1916 24 is_stmt 0 view .LVU1922
	movs	r3, #0
	strb	r3, [r5]
	.loc 1 1917 21 is_stmt 1 view .LVU1923
	.loc 1 1917 27 is_stmt 0 view .LVU1924
	ldr	r0, .L445+8
.LVL651:
	.loc 1 1917 27 view .LVU1925
	b	.L404
.L439:
	.loc 1 1938 5 is_stmt 1 view .LVU1926
	.loc 1 1938 8 is_stmt 0 view .LVU1927
	movs	r0, #0
	strb	r0, [r5]
	.loc 1 1940 5 is_stmt 1 view .LVU1928
	.loc 1 1940 11 is_stmt 0 view .LVU1929
	str	r4, [r9]
	.loc 1 1941 5 is_stmt 1 view .LVU1930
	.loc 1 1941 10 is_stmt 0 view .LVU1931
	str	r5, [r8]
	.loc 1 1943 5 is_stmt 1 view .LVU1932
.L404:
	.loc 1 1944 1 is_stmt 0 view .LVU1933
	add	sp, sp, #44
	.cfi_remember_state
	.cfi_def_cfa_offset 28
	@ sp needed
	pop	{r4, r5, r6, r7, r8, r9, pc}
.LVL652:
.L419:
	.cfi_restore_state
	.loc 1 1854 63 view .LVU1934
	ldr	r0, .L445+8
.LVL653:
	.loc 1 1854 63 view .LVU1935
	b	.L404
.LVL654:
.L420:
	.loc 1 1854 63 view .LVU1936
	ldr	r0, .L445+8
.LVL655:
	.loc 1 1854 63 view .LVU1937
	b	.L404
.LVL656:
.L421:
	.loc 1 1859 63 view .LVU1938
	ldr	r0, .L445+8
.LVL657:
	.loc 1 1859 63 view .LVU1939
	b	.L404
.LVL658:
.L423:
.LBB201:
	.loc 1 1875 63 view .LVU1940
	ldr	r0, .L445+8
.LVL659:
	.loc 1 1875 63 view .LVU1941
	b	.L404
.LVL660:
.L424:
	.loc 1 1875 63 view .LVU1942
	ldr	r0, .L445+8
.LVL661:
	.loc 1 1875 63 view .LVU1943
	b	.L404
.LVL662:
.L425:
	.loc 1 1881 67 view .LVU1944
	ldr	r0, .L445+8
.LVL663:
	.loc 1 1881 67 view .LVU1945
	b	.L404
.LVL664:
.L426:
	.loc 1 1881 67 view .LVU1946
	ldr	r0, .L445+8
.LVL665:
	.loc 1 1881 67 view .LVU1947
	b	.L404
.LVL666:
.L427:
	.loc 1 1883 67 view .LVU1948
	ldr	r0, .L445+8
.LVL667:
	.loc 1 1883 67 view .LVU1949
	b	.L404
.LVL668:
.L428:
	.loc 1 1883 67 view .LVU1950
	ldr	r0, .L445+8
.LVL669:
	.loc 1 1883 67 view .LVU1951
	b	.L404
.LVL670:
.L429:
	.loc 1 1886 67 view .LVU1952
	ldr	r0, .L445+8
.LVL671:
	.loc 1 1886 67 view .LVU1953
	b	.L404
.LVL672:
.L430:
	.loc 1 1886 67 view .LVU1954
	ldr	r0, .L445+8
.LVL673:
	.loc 1 1886 67 view .LVU1955
	b	.L404
.LVL674:
.L431:
	.loc 1 1889 67 view .LVU1956
	ldr	r0, .L445+8
.LVL675:
	.loc 1 1889 67 view .LVU1957
	b	.L404
.LVL676:
.L432:
	.loc 1 1889 67 view .LVU1958
	ldr	r0, .L445+8
.LVL677:
	.loc 1 1889 67 view .LVU1959
	b	.L404
.LVL678:
.L433:
	.loc 1 1889 67 view .LVU1960
.LBE201:
	.loc 1 1913 63 view .LVU1961
	ldr	r0, .L445+8
.LVL679:
	.loc 1 1913 63 view .LVU1962
	b	.L404
.LVL680:
.L434:
	.loc 1 1913 63 view .LVU1963
	ldr	r0, .L445+8
.LVL681:
	.loc 1 1913 63 view .LVU1964
	b	.L404
.LVL682:
.L435:
	.loc 1 1931 63 view .LVU1965
	ldr	r0, .L445+8
.LVL683:
	.loc 1 1931 63 view .LVU1966
	b	.L404
.LVL684:
.L436:
	.loc 1 1931 63 view .LVU1967
	ldr	r0, .L445+8
.LVL685:
	.loc 1 1931 63 view .LVU1968
	b	.L404
.L446:
	.align	2
.L445:
	.word	.LC24
	.word	.LC25
	.word	-10624
	.word	.LC26
	.word	.LC27
	.word	.LC28
	.word	.LC29
	.word	.LC1
	.word	.LC30
	.cfi_endproc
.LFE54:
	.size	x509_info_subject_alt_name, .-x509_info_subject_alt_name
	.section	.rodata.mbedtls_x509_crt_info.str1.4,"aMS",%progbits,1
	.align	2
.LC31:
	.ascii	"false\000"
	.align	2
.LC32:
	.ascii	"true\000"
	.align	2
.LC33:
	.ascii	"\012Certificate is uninitialised!\012\000"
	.align	2
.LC34:
	.ascii	"%scert. version     : %d\012\000"
	.align	2
.LC35:
	.ascii	"%sserial number     : \000"
	.align	2
.LC36:
	.ascii	"\012%sissuer name       : \000"
	.align	2
.LC37:
	.ascii	"\012%ssubject name      : \000"
	.align	2
.LC38:
	.ascii	"\012%sissued  on        : %04d-%02d-%02d %02d:%02d:"
	.ascii	"%02d\000"
	.align	2
.LC39:
	.ascii	"\012%sexpires on        : %04d-%02d-%02d %02d:%02d:"
	.ascii	"%02d\000"
	.align	2
.LC40:
	.ascii	"\012%ssigned using      : \000"
	.align	2
.LC41:
	.ascii	"\012%s%-18s: %d bits\000"
	.align	2
.LC42:
	.ascii	"\012%sbasic constraints : CA=%s\000"
	.align	2
.LC43:
	.ascii	", max_pathlen=%d\000"
	.align	2
.LC44:
	.ascii	"\012%ssubject alt name  :\000"
	.align	2
.LC45:
	.ascii	"\012%scert. type        : \000"
	.align	2
.LC46:
	.ascii	"\012%skey usage         : \000"
	.align	2
.LC47:
	.ascii	"\012%sext key usage     : \000"
	.align	2
.LC48:
	.ascii	"\012%scertificate policies : \000"
	.align	2
.LC49:
	.ascii	"\012\000"
	.section	.text.mbedtls_x509_crt_info,"ax",%progbits
	.align	1
	.global	mbedtls_x509_crt_info
	.syntax unified
	.thumb
	.thumb_func
	.fpu fpv4-sp-d16
	.type	mbedtls_x509_crt_info, %function
mbedtls_x509_crt_info:
.LVL686:
.LFB59:
	.loc 1 2073 1 is_stmt 1 view -0
	.cfi_startproc
	@ args = 0, pretend = 0, frame = 32
	@ frame_needed = 0, uses_anonymous_args = 0
	.loc 1 2073 1 is_stmt 0 view .LVU1970
	push	{r4, r5, r6, r7, r8, r9, lr}
	.cfi_def_cfa_offset 28
	.cfi_offset 4, -28
	.cfi_offset 5, -24
	.cfi_offset 6, -20
	.cfi_offset 7, -16
	.cfi_offset 8, -12
	.cfi_offset 9, -8
	.cfi_offset 14, -4
	sub	sp, sp, #60
	.cfi_def_cfa_offset 88
	mov	r6, r1
	.loc 1 2074 5 is_stmt 1 view .LVU1971
.LVL687:
	.loc 1 2075 5 view .LVU1972
	.loc 1 2076 5 view .LVU1973
	.loc 1 2077 5 view .LVU1974
	.loc 1 2079 5 view .LVU1975
	.loc 1 2079 7 is_stmt 0 view .LVU1976
	str	r0, [sp, #48]
	.loc 1 2080 5 is_stmt 1 view .LVU1977
	.loc 1 2080 7 is_stmt 0 view .LVU1978
	str	r1, [sp, #52]
	.loc 1 2082 5 is_stmt 1 view .LVU1979
	.loc 1 2082 7 is_stmt 0 view .LVU1980
	cmp	r3, #0
	beq	.L501
	mov	r5, r2
	mov	r4, r3
	.loc 1 2090 5 is_stmt 1 view .LVU1981
	.loc 1 2090 10 is_stmt 0 view .LVU1982
	ldr	r3, [r3, #28]
.LVL688:
	.loc 1 2090 10 view .LVU1983
	str	r3, [sp]
	mov	r3, r2
	ldr	r2, .L507
.LVL689:
	.loc 1 2090 10 view .LVU1984
	bl	snprintf
.LVL690:
	.loc 1 2092 5 is_stmt 1 view .LVU1985
	.loc 1 2092 10 view .LVU1986
	.loc 1 2092 12 is_stmt 0 view .LVU1987
	cmp	r0, #0
	.loc 1 2092 12 view .LVU1988
	blt	.L459
	.loc 1 2092 38 discriminator 2 view .LVU1989
	ldr	r1, [sp, #52]
	.loc 1 2092 22 discriminator 2 view .LVU1990
	cmp	r0, r1
	bcs	.L460
	.loc 1 2092 64 is_stmt 1 discriminator 4 view .LVU1991
	.loc 1 2092 66 is_stmt 0 discriminator 4 view .LVU1992
	subs	r1, r1, r0
	str	r1, [sp, #52]
	.loc 1 2092 83 is_stmt 1 discriminator 4 view .LVU1993
	.loc 1 2092 85 is_stmt 0 discriminator 4 view .LVU1994
	ldr	r3, [sp, #48]
	add	r0, r0, r3
.LVL691:
	.loc 1 2092 85 discriminator 4 view .LVU1995
	str	r0, [sp, #48]
	.loc 1 2092 109 is_stmt 1 discriminator 4 view .LVU1996
	.loc 1 2093 5 discriminator 4 view .LVU1997
	.loc 1 2093 10 is_stmt 0 discriminator 4 view .LVU1998
	mov	r3, r5
	ldr	r2, .L507+4
	bl	snprintf
.LVL692:
	.loc 1 2095 5 is_stmt 1 discriminator 4 view .LVU1999
	.loc 1 2095 10 discriminator 4 view .LVU2000
	.loc 1 2095 12 is_stmt 0 discriminator 4 view .LVU2001
	cmp	r0, #0
	.loc 1 2095 12 discriminator 4 view .LVU2002
	blt	.L461
	.loc 1 2095 38 discriminator 2 view .LVU2003
	ldr	r1, [sp, #52]
	.loc 1 2095 22 discriminator 2 view .LVU2004
	cmp	r0, r1
	bcs	.L462
	.loc 1 2095 64 is_stmt 1 discriminator 4 view .LVU2005
	.loc 1 2095 66 is_stmt 0 discriminator 4 view .LVU2006
	subs	r1, r1, r0
	str	r1, [sp, #52]
	.loc 1 2095 83 is_stmt 1 discriminator 4 view .LVU2007
	.loc 1 2095 85 is_stmt 0 discriminator 4 view .LVU2008
	ldr	r3, [sp, #48]
	add	r0, r0, r3
.LVL693:
	.loc 1 2095 85 discriminator 4 view .LVU2009
	str	r0, [sp, #48]
	.loc 1 2095 109 is_stmt 1 discriminator 4 view .LVU2010
	.loc 1 2097 5 discriminator 4 view .LVU2011
	.loc 1 2097 11 is_stmt 0 discriminator 4 view .LVU2012
	add	r2, r4, #32
	bl	mbedtls_x509_serial_gets
.LVL694:
	.loc 1 2098 5 is_stmt 1 discriminator 4 view .LVU2013
	.loc 1 2098 10 discriminator 4 view .LVU2014
	.loc 1 2098 12 is_stmt 0 discriminator 4 view .LVU2015
	cmp	r0, #0
	.loc 1 2098 12 discriminator 4 view .LVU2016
	blt	.L463
	.loc 1 2098 38 discriminator 2 view .LVU2017
	ldr	r1, [sp, #52]
	.loc 1 2098 22 discriminator 2 view .LVU2018
	cmp	r0, r1
	bcs	.L464
	.loc 1 2098 64 is_stmt 1 discriminator 4 view .LVU2019
	.loc 1 2098 66 is_stmt 0 discriminator 4 view .LVU2020
	subs	r1, r1, r0
	str	r1, [sp, #52]
	.loc 1 2098 83 is_stmt 1 discriminator 4 view .LVU2021
	.loc 1 2098 85 is_stmt 0 discriminator 4 view .LVU2022
	ldr	r3, [sp, #48]
	add	r0, r0, r3
.LVL695:
	.loc 1 2098 85 discriminator 4 view .LVU2023
	str	r0, [sp, #48]
	.loc 1 2098 109 is_stmt 1 discriminator 4 view .LVU2024
	.loc 1 2100 5 discriminator 4 view .LVU2025
	.loc 1 2100 10 is_stmt 0 discriminator 4 view .LVU2026
	mov	r3, r5
	ldr	r2, .L507+8
	bl	snprintf
.LVL696:
	.loc 1 2101 5 is_stmt 1 discriminator 4 view .LVU2027
	.loc 1 2101 10 discriminator 4 view .LVU2028
	.loc 1 2101 12 is_stmt 0 discriminator 4 view .LVU2029
	cmp	r0, #0
	.loc 1 2101 12 discriminator 4 view .LVU2030
	blt	.L465
	.loc 1 2101 38 discriminator 2 view .LVU2031
	ldr	r1, [sp, #52]
	.loc 1 2101 22 discriminator 2 view .LVU2032
	cmp	r0, r1
	bcs	.L466
	.loc 1 2101 64 is_stmt 1 discriminator 4 view .LVU2033
	.loc 1 2101 66 is_stmt 0 discriminator 4 view .LVU2034
	subs	r1, r1, r0
	str	r1, [sp, #52]
	.loc 1 2101 83 is_stmt 1 discriminator 4 view .LVU2035
	.loc 1 2101 85 is_stmt 0 discriminator 4 view .LVU2036
	ldr	r3, [sp, #48]
	add	r0, r0, r3
.LVL697:
	.loc 1 2101 85 discriminator 4 view .LVU2037
	str	r0, [sp, #48]
	.loc 1 2101 109 is_stmt 1 discriminator 4 view .LVU2038
	.loc 1 2102 5 discriminator 4 view .LVU2039
	.loc 1 2102 11 is_stmt 0 discriminator 4 view .LVU2040
	add	r2, r4, #80
	bl	mbedtls_x509_dn_gets
.LVL698:
	.loc 1 2103 5 is_stmt 1 discriminator 4 view .LVU2041
	.loc 1 2103 10 discriminator 4 view .LVU2042
	.loc 1 2103 12 is_stmt 0 discriminator 4 view .LVU2043
	cmp	r0, #0
	.loc 1 2103 12 discriminator 4 view .LVU2044
	blt	.L467
	.loc 1 2103 38 discriminator 2 view .LVU2045
	ldr	r1, [sp, #52]
	.loc 1 2103 22 discriminator 2 view .LVU2046
	cmp	r0, r1
	bcs	.L468
	.loc 1 2103 64 is_stmt 1 discriminator 4 view .LVU2047
	.loc 1 2103 66 is_stmt 0 discriminator 4 view .LVU2048
	subs	r1, r1, r0
	str	r1, [sp, #52]
	.loc 1 2103 83 is_stmt 1 discriminator 4 view .LVU2049
	.loc 1 2103 85 is_stmt 0 discriminator 4 view .LVU2050
	ldr	r3, [sp, #48]
	add	r0, r0, r3
.LVL699:
	.loc 1 2103 85 discriminator 4 view .LVU2051
	str	r0, [sp, #48]
	.loc 1 2103 109 is_stmt 1 discriminator 4 view .LVU2052
	.loc 1 2105 5 discriminator 4 view .LVU2053
	.loc 1 2105 10 is_stmt 0 discriminator 4 view .LVU2054
	mov	r3, r5
	ldr	r2, .L507+12
	bl	snprintf
.LVL700:
	.loc 1 2106 5 is_stmt 1 discriminator 4 view .LVU2055
	.loc 1 2106 10 discriminator 4 view .LVU2056
	.loc 1 2106 12 is_stmt 0 discriminator 4 view .LVU2057
	cmp	r0, #0
	.loc 1 2106 12 discriminator 4 view .LVU2058
	blt	.L469
	.loc 1 2106 38 discriminator 2 view .LVU2059
	ldr	r1, [sp, #52]
	.loc 1 2106 22 discriminator 2 view .LVU2060
	cmp	r0, r1
	bcs	.L470
	.loc 1 2106 64 is_stmt 1 discriminator 4 view .LVU2061
	.loc 1 2106 66 is_stmt 0 discriminator 4 view .LVU2062
	subs	r1, r1, r0
	str	r1, [sp, #52]
	.loc 1 2106 83 is_stmt 1 discriminator 4 view .LVU2063
	.loc 1 2106 85 is_stmt 0 discriminator 4 view .LVU2064
	ldr	r3, [sp, #48]
	add	r0, r0, r3
.LVL701:
	.loc 1 2106 85 discriminator 4 view .LVU2065
	str	r0, [sp, #48]
	.loc 1 2106 109 is_stmt 1 discriminator 4 view .LVU2066
	.loc 1 2107 5 discriminator 4 view .LVU2067
	.loc 1 2107 11 is_stmt 0 discriminator 4 view .LVU2068
	add	r2, r4, #112
	bl	mbedtls_x509_dn_gets
.LVL702:
	.loc 1 2108 5 is_stmt 1 discriminator 4 view .LVU2069
	.loc 1 2108 10 discriminator 4 view .LVU2070
	.loc 1 2108 12 is_stmt 0 discriminator 4 view .LVU2071
	cmp	r0, #0
	.loc 1 2108 12 discriminator 4 view .LVU2072
	blt	.L471
	.loc 1 2108 38 discriminator 2 view .LVU2073
	ldr	r1, [sp, #52]
	.loc 1 2108 22 discriminator 2 view .LVU2074
	cmp	r0, r1
	bcs	.L472
	.loc 1 2108 64 is_stmt 1 discriminator 4 view .LVU2075
	.loc 1 2108 66 is_stmt 0 discriminator 4 view .LVU2076
	subs	r1, r1, r0
	str	r1, [sp, #52]
	.loc 1 2108 83 is_stmt 1 discriminator 4 view .LVU2077
	.loc 1 2108 85 is_stmt 0 discriminator 4 view .LVU2078
	ldr	r3, [sp, #48]
	add	r0, r0, r3
.LVL703:
	.loc 1 2108 85 discriminator 4 view .LVU2079
	str	r0, [sp, #48]
	.loc 1 2108 109 is_stmt 1 discriminator 4 view .LVU2080
	.loc 1 2110 5 discriminator 4 view .LVU2081
	.loc 1 2110 10 is_stmt 0 discriminator 4 view .LVU2082
	ldr	r3, [r4, #164]
	str	r3, [sp, #20]
	ldr	r3, [r4, #160]
	str	r3, [sp, #16]
	ldr	r3, [r4, #156]
	str	r3, [sp, #12]
	ldr	r3, [r4, #152]
	str	r3, [sp, #8]
	ldr	r3, [r4, #148]
	str	r3, [sp, #4]
	ldr	r3, [r4, #144]
	str	r3, [sp]
	mov	r3, r5
	ldr	r2, .L507+16
	bl	snprintf
.LVL704:
	.loc 1 2115 5 is_stmt 1 discriminator 4 view .LVU2083
	.loc 1 2115 10 discriminator 4 view .LVU2084
	.loc 1 2115 12 is_stmt 0 discriminator 4 view .LVU2085
	cmp	r0, #0
	.loc 1 2115 12 discriminator 4 view .LVU2086
	blt	.L473
	.loc 1 2115 38 discriminator 2 view .LVU2087
	ldr	r1, [sp, #52]
	.loc 1 2115 22 discriminator 2 view .LVU2088
	cmp	r0, r1
	bcs	.L474
	.loc 1 2115 64 is_stmt 1 discriminator 4 view .LVU2089
	.loc 1 2115 66 is_stmt 0 discriminator 4 view .LVU2090
	subs	r1, r1, r0
	str	r1, [sp, #52]
	.loc 1 2115 83 is_stmt 1 discriminator 4 view .LVU2091
	.loc 1 2115 85 is_stmt 0 discriminator 4 view .LVU2092
	ldr	r3, [sp, #48]
	add	r0, r0, r3
.LVL705:
	.loc 1 2115 85 discriminator 4 view .LVU2093
	str	r0, [sp, #48]
	.loc 1 2115 109 is_stmt 1 discriminator 4 view .LVU2094
	.loc 1 2117 5 discriminator 4 view .LVU2095
	.loc 1 2117 10 is_stmt 0 discriminator 4 view .LVU2096
	ldr	r3, [r4, #188]
	str	r3, [sp, #20]
	ldr	r3, [r4, #184]
	str	r3, [sp, #16]
	ldr	r3, [r4, #180]
	str	r3, [sp, #12]
	ldr	r3, [r4, #176]
	str	r3, [sp, #8]
	ldr	r3, [r4, #172]
	str	r3, [sp, #4]
	ldr	r3, [r4, #168]
	str	r3, [sp]
	mov	r3, r5
	ldr	r2, .L507+20
	bl	snprintf
.LVL706:
	.loc 1 2122 5 is_stmt 1 discriminator 4 view .LVU2097
	.loc 1 2122 10 discriminator 4 view .LVU2098
	.loc 1 2122 12 is_stmt 0 discriminator 4 view .LVU2099
	cmp	r0, #0
	.loc 1 2122 12 discriminator 4 view .LVU2100
	blt	.L475
	.loc 1 2122 38 discriminator 2 view .LVU2101
	ldr	r1, [sp, #52]
	.loc 1 2122 22 discriminator 2 view .LVU2102
	cmp	r0, r1
	bcs	.L476
	.loc 1 2122 64 is_stmt 1 discriminator 4 view .LVU2103
	.loc 1 2122 66 is_stmt 0 discriminator 4 view .LVU2104
	subs	r1, r1, r0
	str	r1, [sp, #52]
	.loc 1 2122 83 is_stmt 1 discriminator 4 view .LVU2105
	.loc 1 2122 85 is_stmt 0 discriminator 4 view .LVU2106
	ldr	r3, [sp, #48]
	add	r0, r0, r3
.LVL707:
	.loc 1 2122 85 discriminator 4 view .LVU2107
	str	r0, [sp, #48]
	.loc 1 2122 109 is_stmt 1 discriminator 4 view .LVU2108
	.loc 1 2124 5 discriminator 4 view .LVU2109
	.loc 1 2124 10 is_stmt 0 discriminator 4 view .LVU2110
	mov	r3, r5
	ldr	r2, .L507+24
	bl	snprintf
.LVL708:
	.loc 1 2125 5 is_stmt 1 discriminator 4 view .LVU2111
	.loc 1 2125 10 discriminator 4 view .LVU2112
	.loc 1 2125 12 is_stmt 0 discriminator 4 view .LVU2113
	cmp	r0, #0
	.loc 1 2125 12 discriminator 4 view .LVU2114
	blt	.L477
	.loc 1 2125 38 discriminator 2 view .LVU2115
	ldr	r1, [sp, #52]
	.loc 1 2125 22 discriminator 2 view .LVU2116
	cmp	r0, r1
	bcs	.L478
	.loc 1 2125 64 is_stmt 1 discriminator 4 view .LVU2117
	.loc 1 2125 66 is_stmt 0 discriminator 4 view .LVU2118
	subs	r1, r1, r0
	str	r1, [sp, #52]
	.loc 1 2125 83 is_stmt 1 discriminator 4 view .LVU2119
	.loc 1 2125 85 is_stmt 0 discriminator 4 view .LVU2120
	ldr	r3, [sp, #48]
	add	r0, r0, r3
.LVL709:
	.loc 1 2125 85 discriminator 4 view .LVU2121
	str	r0, [sp, #48]
	.loc 1 2125 109 is_stmt 1 discriminator 4 view .LVU2122
	.loc 1 2127 5 discriminator 4 view .LVU2123
	.loc 1 2128 46 is_stmt 0 discriminator 4 view .LVU2124
	ldr	r3, [r4, #332]
	.loc 1 2127 11 discriminator 4 view .LVU2125
	str	r3, [sp, #4]
	ldrb	r3, [r4, #328]	@ zero_extendqisi2
	str	r3, [sp]
	ldrb	r3, [r4, #329]	@ zero_extendqisi2
	add	r2, r4, #44
	bl	mbedtls_x509_sig_alg_gets
.LVL710:
	.loc 1 2129 5 is_stmt 1 discriminator 4 view .LVU2126
	.loc 1 2129 10 discriminator 4 view .LVU2127
	.loc 1 2129 12 is_stmt 0 discriminator 4 view .LVU2128
	cmp	r0, #0
	.loc 1 2129 12 discriminator 4 view .LVU2129
	blt	.L479
	.loc 1 2129 38 discriminator 2 view .LVU2130
	ldr	r3, [sp, #52]
	.loc 1 2129 22 discriminator 2 view .LVU2131
	cmp	r0, r3
	bcs	.L480
	.loc 1 2129 64 is_stmt 1 discriminator 4 view .LVU2132
	.loc 1 2129 66 is_stmt 0 discriminator 4 view .LVU2133
	subs	r3, r3, r0
	str	r3, [sp, #52]
	.loc 1 2129 83 is_stmt 1 discriminator 4 view .LVU2134
	.loc 1 2129 85 is_stmt 0 discriminator 4 view .LVU2135
	ldr	r3, [sp, #48]
	add	r0, r0, r3
.LVL711:
	.loc 1 2129 85 discriminator 4 view .LVU2136
	str	r0, [sp, #48]
	.loc 1 2129 109 is_stmt 1 discriminator 4 view .LVU2137
	.loc 1 2132 5 discriminator 4 view .LVU2138
	.loc 1 2132 17 is_stmt 0 discriminator 4 view .LVU2139
	add	r7, r4, #204
	mov	r0, r7
	bl	mbedtls_pk_get_name
.LVL712:
	mov	r2, r0
	movs	r1, #18
	add	r0, sp, #28
	bl	mbedtls_x509_key_size_helper
.LVL713:
	.loc 1 2132 7 discriminator 4 view .LVU2140
	cmp	r0, #0
	bne	.L447
	.loc 1 2138 5 is_stmt 1 view .LVU2141
	.loc 1 2138 10 is_stmt 0 view .LVU2142
	ldr	r8, [sp, #48]
	ldr	r9, [sp, #52]
	.loc 1 2138 66 view .LVU2143
	mov	r0, r7
.LVL714:
	.loc 1 2138 66 view .LVU2144
	bl	mbedtls_pk_get_bitlen
.LVL715:
	.loc 1 2138 10 view .LVU2145
	str	r0, [sp, #4]
	add	r3, sp, #28
	str	r3, [sp]
	mov	r3, r5
	ldr	r2, .L507+28
	mov	r1, r9
	mov	r0, r8
	bl	snprintf
.LVL716:
	.loc 1 2140 5 is_stmt 1 view .LVU2146
	.loc 1 2140 10 view .LVU2147
	.loc 1 2140 12 is_stmt 0 view .LVU2148
	cmp	r0, #0
	.loc 1 2140 12 view .LVU2149
	blt	.L481
	.loc 1 2140 38 discriminator 2 view .LVU2150
	ldr	r1, [sp, #52]
	.loc 1 2140 22 discriminator 2 view .LVU2151
	cmp	r0, r1
	bcs	.L482
	.loc 1 2140 64 is_stmt 1 discriminator 4 view .LVU2152
	.loc 1 2140 66 is_stmt 0 discriminator 4 view .LVU2153
	subs	r1, r1, r0
	str	r1, [sp, #52]
	.loc 1 2140 83 is_stmt 1 discriminator 4 view .LVU2154
	.loc 1 2140 85 is_stmt 0 discriminator 4 view .LVU2155
	ldr	r3, [sp, #48]
	add	r0, r0, r3
.LVL717:
	.loc 1 2140 85 discriminator 4 view .LVU2156
	str	r0, [sp, #48]
	.loc 1 2140 109 is_stmt 1 discriminator 4 view .LVU2157
	.loc 1 2146 5 discriminator 4 view .LVU2158
	.loc 1 2146 12 is_stmt 0 discriminator 4 view .LVU2159
	ldr	r3, [r4, #280]
	.loc 1 2146 7 discriminator 4 view .LVU2160
	tst	r3, #256
	beq	.L450
	.loc 1 2148 9 is_stmt 1 view .LVU2161
	.loc 1 2148 58 is_stmt 0 view .LVU2162
	ldr	r3, [r4, #284]
	.loc 1 2148 14 view .LVU2163
	cmp	r3, #0
	beq	.L483
	ldr	r3, .L507+32
.L451:
	.loc 1 2148 14 discriminator 4 view .LVU2164
	str	r3, [sp]
	mov	r3, r5
	ldr	r2, .L507+36
	bl	snprintf
.LVL718:
	.loc 1 2150 9 is_stmt 1 discriminator 4 view .LVU2165
	.loc 1 2150 14 discriminator 4 view .LVU2166
	.loc 1 2150 16 is_stmt 0 discriminator 4 view .LVU2167
	cmp	r0, #0
	.loc 1 2150 16 discriminator 4 view .LVU2168
	blt	.L484
	.loc 1 2150 42 discriminator 2 view .LVU2169
	ldr	r1, [sp, #52]
	.loc 1 2150 26 discriminator 2 view .LVU2170
	cmp	r0, r1
	bcs	.L485
	.loc 1 2150 68 is_stmt 1 discriminator 4 view .LVU2171
	.loc 1 2150 70 is_stmt 0 discriminator 4 view .LVU2172
	subs	r1, r1, r0
	str	r1, [sp, #52]
	.loc 1 2150 87 is_stmt 1 discriminator 4 view .LVU2173
	.loc 1 2150 89 is_stmt 0 discriminator 4 view .LVU2174
	ldr	r3, [sp, #48]
	add	r0, r0, r3
.LVL719:
	.loc 1 2150 89 discriminator 4 view .LVU2175
	str	r0, [sp, #48]
	.loc 1 2150 113 is_stmt 1 discriminator 4 view .LVU2176
	.loc 1 2152 9 discriminator 4 view .LVU2177
	.loc 1 2152 16 is_stmt 0 discriminator 4 view .LVU2178
	ldr	r3, [r4, #288]
	.loc 1 2152 11 discriminator 4 view .LVU2179
	cmp	r3, #0
	bgt	.L502
.L450:
	.loc 1 2155 117 is_stmt 1 discriminator 5 view .LVU2180
	.loc 1 2159 5 discriminator 5 view .LVU2181
	.loc 1 2159 12 is_stmt 0 discriminator 5 view .LVU2182
	ldr	r3, [r4, #280]
	.loc 1 2159 7 discriminator 5 view .LVU2183
	tst	r3, #32
	bne	.L503
.L452:
	.loc 1 2170 5 is_stmt 1 view .LVU2184
	.loc 1 2170 12 is_stmt 0 view .LVU2185
	ldr	r3, [r4, #280]
	.loc 1 2170 7 view .LVU2186
	tst	r3, #65536
	bne	.L504
.L453:
	.loc 1 2179 5 is_stmt 1 view .LVU2187
	.loc 1 2179 12 is_stmt 0 view .LVU2188
	ldr	r3, [r4, #280]
	.loc 1 2179 7 view .LVU2189
	tst	r3, #4
	bne	.L505
.L454:
	.loc 1 2188 5 is_stmt 1 view .LVU2190
	.loc 1 2188 12 is_stmt 0 view .LVU2191
	ldr	r3, [r4, #280]
	.loc 1 2188 7 view .LVU2192
	tst	r3, #2048
	bne	.L506
.L455:
	.loc 1 2198 5 is_stmt 1 view .LVU2193
	.loc 1 2198 12 is_stmt 0 view .LVU2194
	ldr	r3, [r4, #280]
	.loc 1 2198 7 view .LVU2195
	tst	r3, #8
	beq	.L456
	.loc 1 2200 9 is_stmt 1 view .LVU2196
	.loc 1 2200 14 is_stmt 0 view .LVU2197
	mov	r3, r5
	ldr	r2, .L507+40
	ldr	r1, [sp, #52]
	ldr	r0, [sp, #48]
	bl	snprintf
.LVL720:
	.loc 1 2201 9 is_stmt 1 view .LVU2198
	.loc 1 2201 14 view .LVU2199
	.loc 1 2201 16 is_stmt 0 view .LVU2200
	cmp	r0, #0
	.loc 1 2201 16 view .LVU2201
	blt	.L496
	.loc 1 2201 42 discriminator 2 view .LVU2202
	ldr	r3, [sp, #52]
	.loc 1 2201 26 discriminator 2 view .LVU2203
	cmp	r0, r3
	bcs	.L497
	.loc 1 2201 68 is_stmt 1 discriminator 4 view .LVU2204
	.loc 1 2201 70 is_stmt 0 discriminator 4 view .LVU2205
	subs	r3, r3, r0
	str	r3, [sp, #52]
	.loc 1 2201 87 is_stmt 1 discriminator 4 view .LVU2206
	.loc 1 2201 89 is_stmt 0 discriminator 4 view .LVU2207
	ldr	r3, [sp, #48]
	add	r0, r0, r3
.LVL721:
	.loc 1 2201 89 discriminator 4 view .LVU2208
	str	r0, [sp, #48]
	.loc 1 2201 113 is_stmt 1 discriminator 4 view .LVU2209
	.loc 1 2203 9 discriminator 4 view .LVU2210
	.loc 1 2203 21 is_stmt 0 discriminator 4 view .LVU2211
	add	r2, r4, #264
	add	r1, sp, #52
	add	r0, sp, #48
	bl	x509_info_cert_policies
.LVL722:
	.loc 1 2203 11 discriminator 4 view .LVU2212
	cbnz	r0, .L447
.LVL723:
.L456:
	.loc 1 2208 5 is_stmt 1 view .LVU2213
	.loc 1 2208 10 is_stmt 0 view .LVU2214
	ldr	r2, .L507+44
	ldr	r1, [sp, #52]
	ldr	r0, [sp, #48]
	bl	snprintf
.LVL724:
	.loc 1 2209 5 is_stmt 1 view .LVU2215
	.loc 1 2209 10 view .LVU2216
	.loc 1 2209 12 is_stmt 0 view .LVU2217
	subs	r3, r0, #0
	blt	.L498
	.loc 1 2209 38 discriminator 2 view .LVU2218
	ldr	r0, [sp, #52]
.LVL725:
	.loc 1 2209 22 discriminator 2 view .LVU2219
	cmp	r3, r0
	bcs	.L499
	.loc 1 2209 64 is_stmt 1 discriminator 4 view .LVU2220
	.loc 1 2209 66 is_stmt 0 discriminator 4 view .LVU2221
	subs	r0, r0, r3
	.loc 1 2209 83 is_stmt 1 discriminator 4 view .LVU2222
	.loc 1 2209 109 discriminator 4 view .LVU2223
	.loc 1 2211 5 discriminator 4 view .LVU2224
	.loc 1 2211 26 is_stmt 0 discriminator 4 view .LVU2225
	subs	r0, r6, r0
	.loc 1 2211 13 discriminator 4 view .LVU2226
	b	.L447
.LVL726:
.L501:
	.loc 1 2084 9 is_stmt 1 view .LVU2227
	.loc 1 2084 14 is_stmt 0 view .LVU2228
	ldr	r2, .L507+48
.LVL727:
	.loc 1 2084 14 view .LVU2229
	bl	snprintf
.LVL728:
	.loc 1 2085 9 is_stmt 1 view .LVU2230
	.loc 1 2085 14 view .LVU2231
	.loc 1 2085 16 is_stmt 0 view .LVU2232
	subs	r3, r0, #0
	blt	.L457
	.loc 1 2085 42 discriminator 2 view .LVU2233
	ldr	r0, [sp, #52]
.LVL729:
	.loc 1 2085 26 discriminator 2 view .LVU2234
	cmp	r3, r0
	bcs	.L458
	.loc 1 2085 68 is_stmt 1 discriminator 4 view .LVU2235
	.loc 1 2085 70 is_stmt 0 discriminator 4 view .LVU2236
	subs	r0, r0, r3
	.loc 1 2085 87 is_stmt 1 discriminator 4 view .LVU2237
	.loc 1 2085 113 discriminator 4 view .LVU2238
	.loc 1 2087 9 discriminator 4 view .LVU2239
	.loc 1 2087 30 is_stmt 0 discriminator 4 view .LVU2240
	subs	r0, r6, r0
.LVL730:
.L447:
	.loc 1 2212 1 view .LVU2241
	add	sp, sp, #60
	.cfi_remember_state
	.cfi_def_cfa_offset 28
	@ sp needed
	pop	{r4, r5, r6, r7, r8, r9, pc}
.LVL731:
.L483:
	.cfi_restore_state
	.loc 1 2148 14 view .LVU2242
	ldr	r3, .L507+52
	b	.L451
.L508:
	.align	2
.L507:
	.word	.LC34
	.word	.LC35
	.word	.LC36
	.word	.LC37
	.word	.LC38
	.word	.LC39
	.word	.LC40
	.word	.LC41
	.word	.LC32
	.word	.LC42
	.word	.LC48
	.word	.LC49
	.word	.LC33
	.word	.LC31
.L502:
	.loc 1 2154 13 is_stmt 1 view .LVU2243
	.loc 1 2154 18 is_stmt 0 view .LVU2244
	subs	r3, r3, #1
	ldr	r2, .L509
	bl	snprintf
.LVL732:
	.loc 1 2155 13 is_stmt 1 view .LVU2245
	.loc 1 2155 18 view .LVU2246
	.loc 1 2155 20 is_stmt 0 view .LVU2247
	cmp	r0, #0
	.loc 1 2155 20 view .LVU2248
	blt	.L486
	.loc 1 2155 46 discriminator 2 view .LVU2249
	ldr	r3, [sp, #52]
	.loc 1 2155 30 discriminator 2 view .LVU2250
	cmp	r0, r3
	bcs	.L487
	.loc 1 2155 72 is_stmt 1 discriminator 4 view .LVU2251
	.loc 1 2155 74 is_stmt 0 discriminator 4 view .LVU2252
	subs	r3, r3, r0
	str	r3, [sp, #52]
	.loc 1 2155 91 is_stmt 1 discriminator 4 view .LVU2253
	.loc 1 2155 93 is_stmt 0 discriminator 4 view .LVU2254
	ldr	r3, [sp, #48]
	add	r0, r0, r3
.LVL733:
	.loc 1 2155 93 discriminator 4 view .LVU2255
	str	r0, [sp, #48]
	b	.L450
.L503:
	.loc 1 2161 9 is_stmt 1 view .LVU2256
	.loc 1 2161 14 is_stmt 0 view .LVU2257
	mov	r3, r5
	ldr	r2, .L509+4
	ldr	r1, [sp, #52]
	ldr	r0, [sp, #48]
	bl	snprintf
.LVL734:
	.loc 1 2162 9 is_stmt 1 view .LVU2258
	.loc 1 2162 14 view .LVU2259
	.loc 1 2162 16 is_stmt 0 view .LVU2260
	cmp	r0, #0
	.loc 1 2162 16 view .LVU2261
	blt	.L488
	.loc 1 2162 42 discriminator 2 view .LVU2262
	ldr	r3, [sp, #52]
	.loc 1 2162 26 discriminator 2 view .LVU2263
	cmp	r0, r3
	bcs	.L489
	.loc 1 2162 68 is_stmt 1 discriminator 4 view .LVU2264
	.loc 1 2162 70 is_stmt 0 discriminator 4 view .LVU2265
	subs	r3, r3, r0
	str	r3, [sp, #52]
	.loc 1 2162 87 is_stmt 1 discriminator 4 view .LVU2266
	.loc 1 2162 89 is_stmt 0 discriminator 4 view .LVU2267
	ldr	r3, [sp, #48]
	add	r0, r0, r3
.LVL735:
	.loc 1 2162 89 discriminator 4 view .LVU2268
	str	r0, [sp, #48]
	.loc 1 2162 113 is_stmt 1 discriminator 4 view .LVU2269
	.loc 1 2164 9 discriminator 4 view .LVU2270
	.loc 1 2164 21 is_stmt 0 discriminator 4 view .LVU2271
	mov	r3, r5
	add	r2, r4, #248
	add	r1, sp, #52
	add	r0, sp, #48
	bl	x509_info_subject_alt_name
.LVL736:
	.loc 1 2164 11 discriminator 4 view .LVU2272
	cmp	r0, #0
	beq	.L452
	b	.L447
.LVL737:
.L504:
	.loc 1 2172 9 is_stmt 1 view .LVU2273
	.loc 1 2172 14 is_stmt 0 view .LVU2274
	mov	r3, r5
	ldr	r2, .L509+8
	ldr	r1, [sp, #52]
	ldr	r0, [sp, #48]
	bl	snprintf
.LVL738:
	.loc 1 2173 9 is_stmt 1 view .LVU2275
	.loc 1 2173 14 view .LVU2276
	.loc 1 2173 16 is_stmt 0 view .LVU2277
	cmp	r0, #0
	.loc 1 2173 16 view .LVU2278
	blt	.L490
	.loc 1 2173 42 discriminator 2 view .LVU2279
	ldr	r3, [sp, #52]
	.loc 1 2173 26 discriminator 2 view .LVU2280
	cmp	r0, r3
	bcs	.L491
	.loc 1 2173 68 is_stmt 1 discriminator 4 view .LVU2281
	.loc 1 2173 70 is_stmt 0 discriminator 4 view .LVU2282
	subs	r3, r3, r0
	str	r3, [sp, #52]
	.loc 1 2173 87 is_stmt 1 discriminator 4 view .LVU2283
	.loc 1 2173 89 is_stmt 0 discriminator 4 view .LVU2284
	ldr	r3, [sp, #48]
	add	r0, r0, r3
.LVL739:
	.loc 1 2173 89 discriminator 4 view .LVU2285
	str	r0, [sp, #48]
	.loc 1 2173 113 is_stmt 1 discriminator 4 view .LVU2286
	.loc 1 2175 9 discriminator 4 view .LVU2287
	.loc 1 2175 21 is_stmt 0 discriminator 4 view .LVU2288
	ldrb	r2, [r4, #312]	@ zero_extendqisi2
	add	r1, sp, #52
	add	r0, sp, #48
	bl	x509_info_cert_type
.LVL740:
	.loc 1 2175 11 discriminator 4 view .LVU2289
	cmp	r0, #0
	beq	.L453
	b	.L447
.LVL741:
.L505:
	.loc 1 2181 9 is_stmt 1 view .LVU2290
	.loc 1 2181 14 is_stmt 0 view .LVU2291
	mov	r3, r5
	ldr	r2, .L509+12
	ldr	r1, [sp, #52]
	ldr	r0, [sp, #48]
	bl	snprintf
.LVL742:
	.loc 1 2182 9 is_stmt 1 view .LVU2292
	.loc 1 2182 14 view .LVU2293
	.loc 1 2182 16 is_stmt 0 view .LVU2294
	cmp	r0, #0
	.loc 1 2182 16 view .LVU2295
	blt	.L492
	.loc 1 2182 42 discriminator 2 view .LVU2296
	ldr	r3, [sp, #52]
	.loc 1 2182 26 discriminator 2 view .LVU2297
	cmp	r0, r3
	bcs	.L493
	.loc 1 2182 68 is_stmt 1 discriminator 4 view .LVU2298
	.loc 1 2182 70 is_stmt 0 discriminator 4 view .LVU2299
	subs	r3, r3, r0
	str	r3, [sp, #52]
	.loc 1 2182 87 is_stmt 1 discriminator 4 view .LVU2300
	.loc 1 2182 89 is_stmt 0 discriminator 4 view .LVU2301
	ldr	r3, [sp, #48]
	add	r0, r0, r3
.LVL743:
	.loc 1 2182 89 discriminator 4 view .LVU2302
	str	r0, [sp, #48]
	.loc 1 2182 113 is_stmt 1 discriminator 4 view .LVU2303
	.loc 1 2184 9 discriminator 4 view .LVU2304
	.loc 1 2184 21 is_stmt 0 discriminator 4 view .LVU2305
	ldr	r2, [r4, #292]
	add	r1, sp, #52
	add	r0, sp, #48
	bl	x509_info_key_usage
.LVL744:
	.loc 1 2184 11 discriminator 4 view .LVU2306
	cmp	r0, #0
	beq	.L454
	b	.L447
.LVL745:
.L506:
	.loc 1 2190 9 is_stmt 1 view .LVU2307
	.loc 1 2190 14 is_stmt 0 view .LVU2308
	mov	r3, r5
	ldr	r2, .L509+16
	ldr	r1, [sp, #52]
	ldr	r0, [sp, #48]
	bl	snprintf
.LVL746:
	.loc 1 2191 9 is_stmt 1 view .LVU2309
	.loc 1 2191 14 view .LVU2310
	.loc 1 2191 16 is_stmt 0 view .LVU2311
	cmp	r0, #0
	.loc 1 2191 16 view .LVU2312
	blt	.L494
	.loc 1 2191 42 discriminator 2 view .LVU2313
	ldr	r3, [sp, #52]
	.loc 1 2191 26 discriminator 2 view .LVU2314
	cmp	r0, r3
	bcs	.L495
	.loc 1 2191 68 is_stmt 1 discriminator 4 view .LVU2315
	.loc 1 2191 70 is_stmt 0 discriminator 4 view .LVU2316
	subs	r3, r3, r0
	str	r3, [sp, #52]
	.loc 1 2191 87 is_stmt 1 discriminator 4 view .LVU2317
	.loc 1 2191 89 is_stmt 0 discriminator 4 view .LVU2318
	ldr	r3, [sp, #48]
	add	r0, r0, r3
.LVL747:
	.loc 1 2191 89 discriminator 4 view .LVU2319
	str	r0, [sp, #48]
	.loc 1 2191 113 is_stmt 1 discriminator 4 view .LVU2320
	.loc 1 2193 9 discriminator 4 view .LVU2321
	.loc 1 2193 21 is_stmt 0 discriminator 4 view .LVU2322
	add	r2, r4, #296
	add	r1, sp, #52
	add	r0, sp, #48
	bl	x509_info_ext_key_usage
.LVL748:
	.loc 1 2193 11 discriminator 4 view .LVU2323
	cmp	r0, #0
	beq	.L455
	b	.L447
.LVL749:
.L457:
	.loc 1 2085 55 view .LVU2324
	ldr	r0, .L509+20
.LVL750:
	.loc 1 2085 55 view .LVU2325
	b	.L447
.L458:
	ldr	r0, .L509+20
	b	.L447
.LVL751:
.L459:
	.loc 1 2092 51 view .LVU2326
	ldr	r0, .L509+20
.LVL752:
	.loc 1 2092 51 view .LVU2327
	b	.L447
.LVL753:
.L460:
	.loc 1 2092 51 view .LVU2328
	ldr	r0, .L509+20
.LVL754:
	.loc 1 2092 51 view .LVU2329
	b	.L447
.LVL755:
.L461:
	.loc 1 2095 51 view .LVU2330
	ldr	r0, .L509+20
.LVL756:
	.loc 1 2095 51 view .LVU2331
	b	.L447
.LVL757:
.L462:
	.loc 1 2095 51 view .LVU2332
	ldr	r0, .L509+20
.LVL758:
	.loc 1 2095 51 view .LVU2333
	b	.L447
.LVL759:
.L463:
	.loc 1 2098 51 view .LVU2334
	ldr	r0, .L509+20
.LVL760:
	.loc 1 2098 51 view .LVU2335
	b	.L447
.LVL761:
.L464:
	.loc 1 2098 51 view .LVU2336
	ldr	r0, .L509+20
.LVL762:
	.loc 1 2098 51 view .LVU2337
	b	.L447
.LVL763:
.L465:
	.loc 1 2101 51 view .LVU2338
	ldr	r0, .L509+20
.LVL764:
	.loc 1 2101 51 view .LVU2339
	b	.L447
.LVL765:
.L466:
	.loc 1 2101 51 view .LVU2340
	ldr	r0, .L509+20
.LVL766:
	.loc 1 2101 51 view .LVU2341
	b	.L447
.LVL767:
.L467:
	.loc 1 2103 51 view .LVU2342
	ldr	r0, .L509+20
.LVL768:
	.loc 1 2103 51 view .LVU2343
	b	.L447
.LVL769:
.L468:
	.loc 1 2103 51 view .LVU2344
	ldr	r0, .L509+20
.LVL770:
	.loc 1 2103 51 view .LVU2345
	b	.L447
.LVL771:
.L469:
	.loc 1 2106 51 view .LVU2346
	ldr	r0, .L509+20
.LVL772:
	.loc 1 2106 51 view .LVU2347
	b	.L447
.LVL773:
.L470:
	.loc 1 2106 51 view .LVU2348
	ldr	r0, .L509+20
.LVL774:
	.loc 1 2106 51 view .LVU2349
	b	.L447
.LVL775:
.L471:
	.loc 1 2108 51 view .LVU2350
	ldr	r0, .L509+20
.LVL776:
	.loc 1 2108 51 view .LVU2351
	b	.L447
.LVL777:
.L472:
	.loc 1 2108 51 view .LVU2352
	ldr	r0, .L509+20
.LVL778:
	.loc 1 2108 51 view .LVU2353
	b	.L447
.LVL779:
.L473:
	.loc 1 2115 51 view .LVU2354
	ldr	r0, .L509+20
.LVL780:
	.loc 1 2115 51 view .LVU2355
	b	.L447
.LVL781:
.L474:
	.loc 1 2115 51 view .LVU2356
	ldr	r0, .L509+20
.LVL782:
	.loc 1 2115 51 view .LVU2357
	b	.L447
.LVL783:
.L475:
	.loc 1 2122 51 view .LVU2358
	ldr	r0, .L509+20
.LVL784:
	.loc 1 2122 51 view .LVU2359
	b	.L447
.LVL785:
.L476:
	.loc 1 2122 51 view .LVU2360
	ldr	r0, .L509+20
.LVL786:
	.loc 1 2122 51 view .LVU2361
	b	.L447
.LVL787:
.L477:
	.loc 1 2125 51 view .LVU2362
	ldr	r0, .L509+20
.LVL788:
	.loc 1 2125 51 view .LVU2363
	b	.L447
.LVL789:
.L478:
	.loc 1 2125 51 view .LVU2364
	ldr	r0, .L509+20
.LVL790:
	.loc 1 2125 51 view .LVU2365
	b	.L447
.LVL791:
.L479:
	.loc 1 2129 51 view .LVU2366
	ldr	r0, .L509+20
.LVL792:
	.loc 1 2129 51 view .LVU2367
	b	.L447
.LVL793:
.L480:
	.loc 1 2129 51 view .LVU2368
	ldr	r0, .L509+20
.LVL794:
	.loc 1 2129 51 view .LVU2369
	b	.L447
.LVL795:
.L481:
	.loc 1 2140 51 view .LVU2370
	ldr	r0, .L509+20
.LVL796:
	.loc 1 2140 51 view .LVU2371
	b	.L447
.LVL797:
.L482:
	.loc 1 2140 51 view .LVU2372
	ldr	r0, .L509+20
.LVL798:
	.loc 1 2140 51 view .LVU2373
	b	.L447
.LVL799:
.L484:
	.loc 1 2150 55 view .LVU2374
	ldr	r0, .L509+20
.LVL800:
	.loc 1 2150 55 view .LVU2375
	b	.L447
.LVL801:
.L485:
	.loc 1 2150 55 view .LVU2376
	ldr	r0, .L509+20
.LVL802:
	.loc 1 2150 55 view .LVU2377
	b	.L447
.LVL803:
.L486:
	.loc 1 2155 59 view .LVU2378
	ldr	r0, .L509+20
.LVL804:
	.loc 1 2155 59 view .LVU2379
	b	.L447
.LVL805:
.L487:
	.loc 1 2155 59 view .LVU2380
	ldr	r0, .L509+20
.LVL806:
	.loc 1 2155 59 view .LVU2381
	b	.L447
.LVL807:
.L488:
	.loc 1 2162 55 view .LVU2382
	ldr	r0, .L509+20
.LVL808:
	.loc 1 2162 55 view .LVU2383
	b	.L447
.LVL809:
.L489:
	.loc 1 2162 55 view .LVU2384
	ldr	r0, .L509+20
.LVL810:
	.loc 1 2162 55 view .LVU2385
	b	.L447
.LVL811:
.L490:
	.loc 1 2173 55 view .LVU2386
	ldr	r0, .L509+20
.LVL812:
	.loc 1 2173 55 view .LVU2387
	b	.L447
.LVL813:
.L491:
	.loc 1 2173 55 view .LVU2388
	ldr	r0, .L509+20
.LVL814:
	.loc 1 2173 55 view .LVU2389
	b	.L447
.LVL815:
.L492:
	.loc 1 2182 55 view .LVU2390
	ldr	r0, .L509+20
.LVL816:
	.loc 1 2182 55 view .LVU2391
	b	.L447
.LVL817:
.L493:
	.loc 1 2182 55 view .LVU2392
	ldr	r0, .L509+20
.LVL818:
	.loc 1 2182 55 view .LVU2393
	b	.L447
.LVL819:
.L494:
	.loc 1 2191 55 view .LVU2394
	ldr	r0, .L509+20
.LVL820:
	.loc 1 2191 55 view .LVU2395
	b	.L447
.LVL821:
.L495:
	.loc 1 2191 55 view .LVU2396
	ldr	r0, .L509+20
.LVL822:
	.loc 1 2191 55 view .LVU2397
	b	.L447
.LVL823:
.L496:
	.loc 1 2201 55 view .LVU2398
	ldr	r0, .L509+20
.LVL824:
	.loc 1 2201 55 view .LVU2399
	b	.L447
.LVL825:
.L497:
	.loc 1 2201 55 view .LVU2400
	ldr	r0, .L509+20
.LVL826:
	.loc 1 2201 55 view .LVU2401
	b	.L447
.LVL827:
.L498:
	.loc 1 2209 51 view .LVU2402
	ldr	r0, .L509+20
.LVL828:
	.loc 1 2209 51 view .LVU2403
	b	.L447
.L499:
	ldr	r0, .L509+20
	b	.L447
.L510:
	.align	2
.L509:
	.word	.LC43
	.word	.LC44
	.word	.LC45
	.word	.LC46
	.word	.LC47
	.word	-10624
	.cfi_endproc
.LFE59:
	.size	mbedtls_x509_crt_info, .-mbedtls_x509_crt_info
	.section	.rodata.mbedtls_x509_crt_verify_info.str1.4,"aMS",%progbits,1
	.align	2
.LC50:
	.ascii	"%s%s\012\000"
	.align	2
.LC51:
	.ascii	"%sUnknown reason (this should not happen)\012\000"
	.section	.text.mbedtls_x509_crt_verify_info,"ax",%progbits
	.align	1
	.global	mbedtls_x509_crt_verify_info
	.syntax unified
	.thumb
	.thumb_func
	.fpu fpv4-sp-d16
	.type	mbedtls_x509_crt_verify_info, %function
mbedtls_x509_crt_verify_info:
.LVL829:
.LFB60:
	.loc 1 2228 1 is_stmt 1 view -0
	.cfi_startproc
	@ args = 0, pretend = 0, frame = 0
	@ frame_needed = 0, uses_anonymous_args = 0
	.loc 1 2228 1 is_stmt 0 view .LVU2405
	push	{r4, r5, r6, r7, r8, r9, lr}
	.cfi_def_cfa_offset 28
	.cfi_offset 4, -28
	.cfi_offset 5, -24
	.cfi_offset 6, -20
	.cfi_offset 7, -16
	.cfi_offset 8, -12
	.cfi_offset 9, -8
	.cfi_offset 14, -4
	sub	sp, sp, #12
	.cfi_def_cfa_offset 40
	mov	r7, r0
	mov	r9, r1
	mov	r8, r2
	mov	r5, r3
	.loc 1 2229 5 is_stmt 1 view .LVU2406
.LVL830:
	.loc 1 2230 5 view .LVU2407
	.loc 1 2231 5 view .LVU2408
	.loc 1 2232 5 view .LVU2409
	.loc 1 2234 5 view .LVU2410
	.loc 1 2232 12 is_stmt 0 view .LVU2411
	mov	r6, r1
	.loc 1 2234 14 view .LVU2412
	ldr	r4, .L524
	.loc 1 2234 5 view .LVU2413
	b	.L512
.LVL831:
.L513:
	.loc 1 2234 62 is_stmt 1 discriminator 2 view .LVU2414
	.loc 1 2234 65 is_stmt 0 discriminator 2 view .LVU2415
	adds	r4, r4, #8
.LVL832:
.L512:
	.loc 1 2234 41 is_stmt 1 discriminator 1 view .LVU2416
	.loc 1 2234 44 is_stmt 0 discriminator 1 view .LVU2417
	ldr	r3, [r4, #4]
	.loc 1 2234 5 discriminator 1 view .LVU2418
	cbz	r3, .L522
	.loc 1 2236 9 is_stmt 1 view .LVU2419
	.loc 1 2236 26 is_stmt 0 view .LVU2420
	ldr	r2, [r4]
	.loc 1 2236 11 view .LVU2421
	tst	r2, r5
	beq	.L513
	.loc 1 2239 9 is_stmt 1 view .LVU2422
	.loc 1 2239 14 is_stmt 0 view .LVU2423
	str	r3, [sp]
	mov	r3, r8
	ldr	r2, .L524+4
	mov	r1, r6
	mov	r0, r7
	bl	snprintf
.LVL833:
	.loc 1 2240 9 is_stmt 1 view .LVU2424
	.loc 1 2240 14 view .LVU2425
	.loc 1 2240 16 is_stmt 0 view .LVU2426
	cmp	r0, #0
	.loc 1 2240 16 view .LVU2427
	blt	.L517
	.loc 1 2240 26 discriminator 2 view .LVU2428
	cmp	r0, r6
	bcs	.L518
	.loc 1 2240 68 is_stmt 1 discriminator 4 view .LVU2429
	.loc 1 2240 70 is_stmt 0 discriminator 4 view .LVU2430
	subs	r6, r6, r0
.LVL834:
	.loc 1 2240 87 is_stmt 1 discriminator 4 view .LVU2431
	.loc 1 2240 89 is_stmt 0 discriminator 4 view .LVU2432
	add	r7, r7, r0
.LVL835:
	.loc 1 2240 113 is_stmt 1 discriminator 4 view .LVU2433
	.loc 1 2241 9 discriminator 4 view .LVU2434
	.loc 1 2241 21 is_stmt 0 discriminator 4 view .LVU2435
	ldr	r3, [r4]
	.loc 1 2241 15 discriminator 4 view .LVU2436
	eors	r5, r5, r3
.LVL836:
	.loc 1 2241 15 discriminator 4 view .LVU2437
	b	.L513
.LVL837:
.L522:
	.loc 1 2244 5 is_stmt 1 view .LVU2438
	.loc 1 2244 7 is_stmt 0 view .LVU2439
	cbnz	r5, .L523
.LVL838:
.L516:
	.loc 1 2248 113 is_stmt 1 discriminator 5 view .LVU2440
	.loc 1 2251 5 discriminator 5 view .LVU2441
	.loc 1 2251 26 is_stmt 0 discriminator 5 view .LVU2442
	sub	r0, r9, r6
.L511:
	.loc 1 2252 1 view .LVU2443
	add	sp, sp, #12
	.cfi_remember_state
	.cfi_def_cfa_offset 28
	@ sp needed
	pop	{r4, r5, r6, r7, r8, r9, pc}
.LVL839:
.L523:
	.cfi_restore_state
	.loc 1 2246 9 is_stmt 1 view .LVU2444
	.loc 1 2246 14 is_stmt 0 view .LVU2445
	mov	r3, r8
	ldr	r2, .L524+8
	mov	r1, r6
	mov	r0, r7
	bl	snprintf
.LVL840:
	.loc 1 2248 9 is_stmt 1 view .LVU2446
	.loc 1 2248 14 view .LVU2447
	.loc 1 2248 16 is_stmt 0 view .LVU2448
	cmp	r0, #0
	.loc 1 2248 16 view .LVU2449
	blt	.L519
	.loc 1 2248 26 discriminator 2 view .LVU2450
	cmp	r0, r6
	bcs	.L520
	.loc 1 2248 68 is_stmt 1 discriminator 4 view .LVU2451
	.loc 1 2248 70 is_stmt 0 discriminator 4 view .LVU2452
	subs	r6, r6, r0
.LVL841:
	.loc 1 2248 87 is_stmt 1 discriminator 4 view .LVU2453
	.loc 1 2248 87 is_stmt 0 discriminator 4 view .LVU2454
	b	.L516
.LVL842:
.L517:
	.loc 1 2240 55 view .LVU2455
	ldr	r0, .L524+12
.LVL843:
	.loc 1 2240 55 view .LVU2456
	b	.L511
.LVL844:
.L518:
	.loc 1 2240 55 view .LVU2457
	ldr	r0, .L524+12
.LVL845:
	.loc 1 2240 55 view .LVU2458
	b	.L511
.LVL846:
.L519:
	.loc 1 2248 55 view .LVU2459
	ldr	r0, .L524+12
.LVL847:
	.loc 1 2248 55 view .LVU2460
	b	.L511
.LVL848:
.L520:
	.loc 1 2248 55 view .LVU2461
	ldr	r0, .L524+12
.LVL849:
	.loc 1 2248 55 view .LVU2462
	b	.L511
.L525:
	.align	2
.L524:
	.word	.LANCHOR1
	.word	.LC50
	.word	.LC51
	.word	-10624
	.cfi_endproc
.LFE60:
	.size	mbedtls_x509_crt_verify_info, .-mbedtls_x509_crt_verify_info
	.section	.text.mbedtls_x509_crt_check_key_usage,"ax",%progbits
	.align	1
	.global	mbedtls_x509_crt_check_key_usage
	.syntax unified
	.thumb
	.thumb_func
	.fpu fpv4-sp-d16
	.type	mbedtls_x509_crt_check_key_usage, %function
mbedtls_x509_crt_check_key_usage:
.LVL850:
.LFB61:
	.loc 1 2257 1 is_stmt 1 view -0
	.cfi_startproc
	@ args = 0, pretend = 0, frame = 0
	@ frame_needed = 0, uses_anonymous_args = 0
	@ link register save eliminated.
	.loc 1 2257 1 is_stmt 0 view .LVU2464
	mov	r2, r0
	.loc 1 2258 5 is_stmt 1 view .LVU2465
	.loc 1 2259 5 view .LVU2466
.LVL851:
	.loc 1 2262 5 view .LVU2467
	.loc 1 2262 14 is_stmt 0 view .LVU2468
	ldr	r3, [r0, #280]
	.loc 1 2262 7 view .LVU2469
	ands	r0, r3, #4
.LVL852:
	.loc 1 2262 7 view .LVU2470
	beq	.L526
	.loc 1 2265 5 is_stmt 1 view .LVU2471
	.loc 1 2265 16 is_stmt 0 view .LVU2472
	bic	r0, r1, #32768
	bic	r0, r0, #1
.LVL853:
	.loc 1 2267 5 is_stmt 1 view .LVU2473
	.loc 1 2267 16 is_stmt 0 view .LVU2474
	ldr	r3, [r2, #292]
	.loc 1 2267 7 view .LVU2475
	bics	r2, r0, r3
.LVL854:
	.loc 1 2267 7 view .LVU2476
	bne	.L528
	.loc 1 2270 5 is_stmt 1 view .LVU2477
	.loc 1 2270 15 is_stmt 0 view .LVU2478
	movw	r2, #32769
	and	r0, r1, r2
.LVL855:
	.loc 1 2272 5 is_stmt 1 view .LVU2479
	.loc 1 2272 41 is_stmt 0 view .LVU2480
	orrs	r1, r1, r3
.LVL856:
	.loc 1 2272 41 view .LVU2481
	ands	r1, r1, r2
	.loc 1 2272 7 view .LVU2482
	cmp	r1, r0
	bne	.L529
	.loc 1 2275 11 view .LVU2483
	movs	r0, #0
.LVL857:
	.loc 1 2275 11 view .LVU2484
	bx	lr
.LVL858:
.L528:
	.loc 1 2268 15 view .LVU2485
	ldr	r0, .L530
.LVL859:
	.loc 1 2268 15 view .LVU2486
	bx	lr
.LVL860:
.L529:
	.loc 1 2273 15 view .LVU2487
	ldr	r0, .L530
.LVL861:
.L526:
	.loc 1 2276 1 view .LVU2488
	bx	lr
.L531:
	.align	2
.L530:
	.word	-10240
	.cfi_endproc
.LFE61:
	.size	mbedtls_x509_crt_check_key_usage, .-mbedtls_x509_crt_check_key_usage
	.section	.text.x509_crt_check_parent,"ax",%progbits
	.align	1
	.syntax unified
	.thumb
	.thumb_func
	.fpu fpv4-sp-d16
	.type	x509_crt_check_parent, %function
x509_crt_check_parent:
.LVL862:
.LFB64:
	.loc 1 2482 1 is_stmt 1 view -0
	.cfi_startproc
	@ args = 0, pretend = 0, frame = 0
	@ frame_needed = 0, uses_anonymous_args = 0
	.loc 1 2482 1 is_stmt 0 view .LVU2490
	push	{r3, r4, r5, lr}
	.cfi_def_cfa_offset 16
	.cfi_offset 3, -16
	.cfi_offset 4, -12
	.cfi_offset 5, -8
	.cfi_offset 14, -4
	mov	r4, r1
	mov	r5, r2
	.loc 1 2483 5 is_stmt 1 view .LVU2491
	.loc 1 2486 5 view .LVU2492
	.loc 1 2486 9 is_stmt 0 view .LVU2493
	adds	r1, r1, #112
.LVL863:
	.loc 1 2486 9 view .LVU2494
	adds	r0, r0, #80
.LVL864:
	.loc 1 2486 9 view .LVU2495
	bl	x509_name_cmp
.LVL865:
	.loc 1 2486 7 view .LVU2496
	cbnz	r0, .L536
	mov	r3, r0
	.loc 1 2490 5 is_stmt 1 view .LVU2497
.LVL866:
	.loc 1 2493 5 view .LVU2498
	.loc 1 2493 7 is_stmt 0 view .LVU2499
	cbz	r5, .L534
	.loc 1 2493 22 discriminator 1 view .LVU2500
	ldr	r2, [r4, #28]
	.loc 1 2493 13 discriminator 1 view .LVU2501
	cmp	r2, #2
	ble	.L535
.L534:
.LVL867:
	.loc 1 2496 32 discriminator 1 view .LVU2502
	ldr	r3, [r4, #284]
	.loc 1 2496 21 discriminator 1 view .LVU2503
	cbz	r3, .L537
	movs	r3, #1
.L535:
	.loc 1 2499 5 is_stmt 1 view .LVU2504
	.loc 1 2499 7 is_stmt 0 view .LVU2505
	cbz	r3, .L532
	.loc 1 2500 9 discriminator 1 view .LVU2506
	movs	r1, #4
	mov	r0, r4
	bl	mbedtls_x509_crt_check_key_usage
.LVL868:
	.loc 1 2499 21 discriminator 1 view .LVU2507
	mov	r3, r0
	cbnz	r0, .L540
.L532:
	.loc 1 2506 1 view .LVU2508
	mov	r0, r3
	pop	{r3, r4, r5, pc}
.LVL869:
.L536:
	.loc 1 2487 15 view .LVU2509
	mov	r3, #-1
	b	.L532
.L537:
	.loc 1 2497 15 view .LVU2510
	mov	r3, #-1
	b	.L532
.L540:
	.loc 1 2502 15 view .LVU2511
	mov	r3, #-1
	b	.L532
	.cfi_endproc
.LFE64:
	.size	x509_crt_check_parent, .-x509_crt_check_parent
	.section	.text.x509_crt_find_parent_in,"ax",%progbits
	.align	1
	.syntax unified
	.thumb
	.thumb_func
	.fpu fpv4-sp-d16
	.type	x509_crt_find_parent_in, %function
x509_crt_find_parent_in:
.LVL870:
.LFB65:
	.loc 1 2560 1 is_stmt 1 view -0
	.cfi_startproc
	@ args = 16, pretend = 0, frame = 8
	@ frame_needed = 0, uses_anonymous_args = 0
	.loc 1 2560 1 is_stmt 0 view .LVU2513
	push	{r4, r5, r6, r7, r8, r9, r10, fp, lr}
	.cfi_def_cfa_offset 36
	.cfi_offset 4, -36
	.cfi_offset 5, -32
	.cfi_offset 6, -28
	.cfi_offset 7, -24
	.cfi_offset 8, -20
	.cfi_offset 9, -16
	.cfi_offset 10, -12
	.cfi_offset 11, -8
	.cfi_offset 14, -4
	sub	sp, sp, #12
	.cfi_def_cfa_offset 48
	mov	r6, r0
	mov	r4, r1
	str	r2, [sp]
	mov	r8, r3
	ldr	r7, [sp, #48]
	ldr	r10, [sp, #52]
	ldr	r9, [sp, #56]
	.loc 1 2561 5 is_stmt 1 view .LVU2514
.LVL871:
	.loc 1 2562 5 view .LVU2515
	.loc 1 2563 5 view .LVU2516
	.loc 1 2584 5 view .LVU2517
	.loc 1 2585 5 view .LVU2518
	.loc 1 2587 5 view .LVU2519
	.loc 1 2585 32 is_stmt 0 view .LVU2520
	movs	r3, #0
.LVL872:
	.loc 1 2585 32 view .LVU2521
	str	r3, [sp, #4]
	.loc 1 2584 21 view .LVU2522
	mov	fp, r3
	.loc 1 2587 5 view .LVU2523
	b	.L542
.LVL873:
.L546:
	.loc 1 2628 13 is_stmt 1 view .LVU2524
	.loc 1 2628 15 is_stmt 0 view .LVU2525
	cmp	fp, #0
	beq	.L554
.LVL874:
.L543:
	.loc 1 2587 46 is_stmt 1 discriminator 2 view .LVU2526
	.loc 1 2587 53 is_stmt 0 discriminator 2 view .LVU2527
	ldr	r4, [r4, #336]
.LVL875:
.L542:
	.loc 1 2587 31 is_stmt 1 discriminator 1 view .LVU2528
	.loc 1 2587 5 is_stmt 0 discriminator 1 view .LVU2529
	cbz	r4, .L549
	.loc 1 2590 9 is_stmt 1 view .LVU2530
	.loc 1 2590 13 is_stmt 0 view .LVU2531
	mov	r2, r7
	mov	r1, r4
	mov	r0, r6
	bl	x509_crt_check_parent
.LVL876:
	.loc 1 2590 11 view .LVU2532
	cmp	r0, #0
	bne	.L543
	.loc 1 2594 9 is_stmt 1 view .LVU2533
	.loc 1 2594 19 is_stmt 0 view .LVU2534
	ldr	r2, [r4, #288]
	.loc 1 2594 11 view .LVU2535
	cmp	r2, #0
	ble	.L544
	.loc 1 2595 57 discriminator 1 view .LVU2536
	sub	r3, r10, r9
	adds	r3, r3, #1
	.loc 1 2594 37 discriminator 1 view .LVU2537
	cmp	r2, r3
	bcc	.L543
.L544:
	.loc 1 2604 9 is_stmt 1 view .LVU2538
	.loc 1 2604 15 is_stmt 0 view .LVU2539
	ldr	r2, [sp, #60]
	mov	r1, r4
	mov	r0, r6
	bl	x509_crt_check_signature
.LVL877:
	.loc 1 2617 9 is_stmt 1 view .LVU2540
	.loc 1 2620 9 view .LVU2541
	.loc 1 2620 33 is_stmt 0 view .LVU2542
	clz	r5, r0
	lsrs	r5, r5, #5
.LVL878:
	.loc 1 2621 9 is_stmt 1 view .LVU2543
	.loc 1 2621 11 is_stmt 0 view .LVU2544
	cbz	r7, .L545
	.loc 1 2621 17 discriminator 1 view .LVU2545
	cmp	r0, #0
	bne	.L543
.L545:
	.loc 1 2625 9 is_stmt 1 view .LVU2546
	.loc 1 2625 13 is_stmt 0 view .LVU2547
	add	r0, r4, #168
.LVL879:
	.loc 1 2625 13 view .LVU2548
	bl	mbedtls_x509_time_is_past
.LVL880:
	.loc 1 2625 11 view .LVU2549
	cmp	r0, #0
	bne	.L546
	.loc 1 2626 13 discriminator 1 view .LVU2550
	add	r0, r4, #144
	bl	mbedtls_x509_time_is_future
.LVL881:
	.loc 1 2625 60 discriminator 1 view .LVU2551
	cmp	r0, #0
	bne	.L546
	.loc 1 2637 9 is_stmt 1 view .LVU2552
	.loc 1 2637 19 is_stmt 0 view .LVU2553
	ldr	r3, [sp]
	str	r4, [r3]
	.loc 1 2638 9 is_stmt 1 view .LVU2554
	.loc 1 2638 30 is_stmt 0 view .LVU2555
	str	r5, [r8]
	.loc 1 2640 9 is_stmt 1 view .LVU2556
.LVL882:
.L549:
	.loc 1 2643 5 view .LVU2557
	.loc 1 2643 7 is_stmt 0 view .LVU2558
	cbz	r4, .L555
.L551:
	.loc 1 2649 5 is_stmt 1 view .LVU2559
	.loc 1 2650 1 is_stmt 0 view .LVU2560
	movs	r0, #0
	add	sp, sp, #12
	.cfi_remember_state
	.cfi_def_cfa_offset 36
.LVL883:
	.loc 1 2650 1 view .LVU2561
	@ sp needed
	pop	{r4, r5, r6, r7, r8, r9, r10, fp, pc}
.LVL884:
.L554:
	.cfi_restore_state
	.loc 1 2631 44 view .LVU2562
	str	r5, [sp, #4]
.LVL885:
	.loc 1 2630 33 view .LVU2563
	mov	fp, r4
.LVL886:
	.loc 1 2634 13 is_stmt 1 view .LVU2564
	b	.L543
.LVL887:
.L555:
	.loc 1 2645 9 view .LVU2565
	.loc 1 2645 19 is_stmt 0 view .LVU2566
	ldr	r3, [sp]
	str	fp, [r3]
	.loc 1 2646 9 is_stmt 1 view .LVU2567
	.loc 1 2646 30 is_stmt 0 view .LVU2568
	ldr	r3, [sp, #4]
	str	r3, [r8]
	b	.L551
	.cfi_endproc
.LFE65:
	.size	x509_crt_find_parent_in, .-x509_crt_find_parent_in
	.section	.text.x509_crt_find_parent,"ax",%progbits
	.align	1
	.syntax unified
	.thumb
	.thumb_func
	.fpu fpv4-sp-d16
	.type	x509_crt_find_parent, %function
x509_crt_find_parent:
.LVL888:
.LFB66:
	.loc 1 2683 1 is_stmt 1 view -0
	.cfi_startproc
	@ args = 16, pretend = 0, frame = 0
	@ frame_needed = 0, uses_anonymous_args = 0
	.loc 1 2683 1 is_stmt 0 view .LVU2570
	push	{r4, r5, r6, r7, r8, r9, r10, fp, lr}
	.cfi_def_cfa_offset 36
	.cfi_offset 4, -36
	.cfi_offset 5, -32
	.cfi_offset 6, -28
	.cfi_offset 7, -24
	.cfi_offset 8, -20
	.cfi_offset 9, -16
	.cfi_offset 10, -12
	.cfi_offset 11, -8
	.cfi_offset 14, -4
	sub	sp, sp, #20
	.cfi_def_cfa_offset 56
	mov	r6, r0
	mov	fp, r1
	mov	r5, r2
	mov	r4, r3
	ldr	r7, [sp, #56]
	ldr	r10, [sp, #60]
	ldr	r9, [sp, #64]
	ldr	r8, [sp, #68]
	.loc 1 2684 5 is_stmt 1 view .LVU2571
.LVL889:
	.loc 1 2685 5 view .LVU2572
	.loc 1 2687 5 view .LVU2573
	.loc 1 2687 24 is_stmt 0 view .LVU2574
	movs	r3, #1
.LVL890:
	.loc 1 2687 24 view .LVU2575
	str	r3, [r4]
	b	.L559
.LVL891:
.L561:
	.loc 1 2699 53 view .LVU2576
	mov	r1, fp
.L557:
.LVL892:
	.loc 1 2701 9 is_stmt 1 discriminator 4 view .LVU2577
	.loc 1 2701 15 is_stmt 0 discriminator 4 view .LVU2578
	str	r8, [sp, #12]
	str	r9, [sp, #8]
	str	r10, [sp, #4]
	str	r3, [sp]
	mov	r3, r7
	mov	r2, r5
	mov	r0, r6
	bl	x509_crt_find_parent_in
.LVL893:
	.loc 1 2714 9 is_stmt 1 discriminator 4 view .LVU2579
	.loc 1 2718 9 discriminator 4 view .LVU2580
	.loc 1 2718 13 is_stmt 0 discriminator 4 view .LVU2581
	ldr	r3, [r5]
	.loc 1 2718 11 discriminator 4 view .LVU2582
	cbnz	r3, .L558
	.loc 1 2718 31 discriminator 1 view .LVU2583
	ldr	r2, [r4]
	.loc 1 2718 28 discriminator 1 view .LVU2584
	cbz	r2, .L558
	.loc 1 2722 9 is_stmt 1 view .LVU2585
	.loc 1 2722 28 is_stmt 0 view .LVU2586
	str	r3, [r4]
	.loc 1 2698 10 is_stmt 1 view .LVU2587
.L559:
	.loc 1 2698 5 view .LVU2588
	.loc 1 2699 9 view .LVU2589
	.loc 1 2699 23 is_stmt 0 view .LVU2590
	ldr	r3, [r4]
	.loc 1 2699 53 view .LVU2591
	cmp	r3, #0
	bne	.L561
	.loc 1 2699 53 discriminator 1 view .LVU2592
	ldr	r1, [r6, #336]
	b	.L557
.L558:
	.loc 1 2726 5 is_stmt 1 view .LVU2593
	.loc 1 2726 7 is_stmt 0 view .LVU2594
	cbz	r3, .L563
.L560:
	.loc 1 2732 5 is_stmt 1 view .LVU2595
	.loc 1 2733 1 is_stmt 0 view .LVU2596
	movs	r0, #0
	add	sp, sp, #20
	.cfi_remember_state
	.cfi_def_cfa_offset 36
	@ sp needed
	pop	{r4, r5, r6, r7, r8, r9, r10, fp, pc}
.LVL894:
.L563:
	.cfi_restore_state
	.loc 1 2728 9 is_stmt 1 view .LVU2597
	.loc 1 2728 28 is_stmt 0 view .LVU2598
	str	r3, [r4]
	.loc 1 2729 9 is_stmt 1 view .LVU2599
	.loc 1 2729 28 is_stmt 0 view .LVU2600
	str	r3, [r7]
	b	.L560
	.cfi_endproc
.LFE66:
	.size	x509_crt_find_parent, .-x509_crt_find_parent
	.section	.text.x509_crt_verify_chain,"ax",%progbits
	.align	1
	.syntax unified
	.thumb
	.thumb_func
	.fpu fpv4-sp-d16
	.type	x509_crt_verify_chain, %function
x509_crt_verify_chain:
.LVL895:
.LFB68:
	.loc 1 2814 1 is_stmt 1 view -0
	.cfi_startproc
	@ args = 16, pretend = 0, frame = 16
	@ frame_needed = 0, uses_anonymous_args = 0
	.loc 1 2814 1 is_stmt 0 view .LVU2602
	push	{r4, r5, r6, r7, r8, r9, r10, fp, lr}
	.cfi_def_cfa_offset 36
	.cfi_offset 4, -36
	.cfi_offset 5, -32
	.cfi_offset 6, -28
	.cfi_offset 7, -24
	.cfi_offset 8, -20
	.cfi_offset 9, -16
	.cfi_offset 10, -12
	.cfi_offset 11, -8
	.cfi_offset 14, -4
	sub	sp, sp, #36
	.cfi_def_cfa_offset 72
	mov	r6, r0
	mov	r9, r1
	ldr	r7, [sp, #76]
	ldr	r4, [sp, #80]
	ldr	fp, [sp, #84]
	.loc 1 2817 5 is_stmt 1 view .LVU2603
.LVL896:
	.loc 1 2818 5 view .LVU2604
	.loc 1 2819 5 view .LVU2605
	.loc 1 2820 5 view .LVU2606
	.loc 1 2821 5 view .LVU2607
	.loc 1 2822 5 view .LVU2608
	.loc 1 2823 5 view .LVU2609
	.loc 1 2824 5 view .LVU2610
	.loc 1 2825 5 view .LVU2611
	.loc 1 2826 5 view .LVU2612
	.loc 1 2845 5 view .LVU2613
	.loc 1 2846 5 view .LVU2614
	.loc 1 2847 5 view .LVU2615
	.loc 1 2847 23 is_stmt 0 view .LVU2616
	movs	r3, #0
.LVL897:
	.loc 1 2847 23 view .LVU2617
	str	r3, [sp, #24]
	.loc 1 2848 5 is_stmt 1 view .LVU2618
.LVL898:
	.loc 1 2846 14 is_stmt 0 view .LVU2619
	mov	r10, r3
	.loc 1 2848 22 view .LVU2620
	mov	r8, r3
	b	.L576
.LVL899:
.L581:
	.loc 1 2878 13 discriminator 1 view .LVU2621
	mov	r1, r9
	mov	r0, r6
	bl	x509_crt_check_ee_locally_trusted
.LVL900:
	.loc 1 2877 33 discriminator 1 view .LVU2622
	cmp	r0, #0
	bne	.L570
	.loc 1 2880 19 view .LVU2623
	mov	r8, r0
.LVL901:
	.loc 1 2880 19 view .LVU2624
	b	.L564
.LVL902:
.L582:
	.loc 1 2932 13 is_stmt 1 view .LVU2625
	.loc 1 2932 20 is_stmt 0 view .LVU2626
	add	r4, r4, r5, lsl #3
.LVL903:
	.loc 1 2932 20 view .LVU2627
	ldr	r3, [r4, #4]
	orr	r3, r3, #8
	str	r3, [r4, #4]
	.loc 1 2933 13 is_stmt 1 view .LVU2628
	.loc 1 2933 19 is_stmt 0 view .LVU2629
	b	.L564
.LVL904:
.L583:
	.loc 1 2940 13 discriminator 1 view .LVU2630
	add	r1, r6, #112
	add	r0, r6, #80
	bl	x509_name_cmp
.LVL905:
	.loc 1 2939 33 discriminator 1 view .LVU2631
	cmp	r0, #0
	bne	.L572
	.loc 1 2942 13 is_stmt 1 view .LVU2632
	.loc 1 2942 21 is_stmt 0 view .LVU2633
	add	r10, r10, #1
.LVL906:
	.loc 1 2942 21 view .LVU2634
	b	.L572
.L573:
	.loc 1 2955 9 is_stmt 1 view .LVU2635
	.loc 1 2955 13 is_stmt 0 view .LVU2636
	ldr	r3, [sp, #20]
	.loc 1 2955 11 view .LVU2637
	cbnz	r3, .L574
	.loc 1 2956 13 is_stmt 1 view .LVU2638
	.loc 1 2956 20 is_stmt 0 view .LVU2639
	add	r2, r4, r5, lsl #3
	ldr	r3, [r2, #4]
	orr	r3, r3, #8
	str	r3, [r2, #4]
.L574:
	.loc 1 2959 9 is_stmt 1 view .LVU2640
	.loc 1 2959 13 is_stmt 0 view .LVU2641
	ldr	r1, [sp, #28]
	adds	r1, r1, #204
	mov	r0, r7
	bl	x509_profile_check_key
.LVL907:
	.loc 1 2959 11 view .LVU2642
	cbz	r0, .L575
	.loc 1 2960 13 is_stmt 1 view .LVU2643
	.loc 1 2960 20 is_stmt 0 view .LVU2644
	add	r5, r4, r5, lsl #3
.LVL908:
	.loc 1 2960 20 view .LVU2645
	ldr	r3, [r5, #4]
	orr	r3, r3, #65536
	str	r3, [r5, #4]
.L575:
	.loc 1 2966 9 is_stmt 1 view .LVU2646
	.loc 1 2970 9 view .LVU2647
	.loc 1 2970 15 is_stmt 0 view .LVU2648
	ldr	r6, [sp, #28]
.LVL909:
	.loc 1 2971 9 is_stmt 1 view .LVU2649
	.loc 1 2971 16 is_stmt 0 view .LVU2650
	movs	r3, #0
	str	r3, [sp, #28]
	.loc 1 2972 9 is_stmt 1 view .LVU2651
	.loc 1 2972 26 is_stmt 0 view .LVU2652
	ldr	r8, [sp, #24]
.LVL910:
	.loc 1 2973 9 is_stmt 1 view .LVU2653
	.loc 1 2973 27 is_stmt 0 view .LVU2654
	str	r3, [sp, #20]
	.loc 1 2850 10 is_stmt 1 view .LVU2655
.LVL911:
.L576:
	.loc 1 2850 5 view .LVU2656
	.loc 1 2852 9 view .LVU2657
	.loc 1 2852 42 is_stmt 0 view .LVU2658
	ldr	r5, [r4, #80]
.LVL912:
	.loc 1 2853 9 is_stmt 1 view .LVU2659
	.loc 1 2853 18 is_stmt 0 view .LVU2660
	str	r6, [r4, r5, lsl #3]
	.loc 1 2854 9 is_stmt 1 view .LVU2661
	.loc 1 2854 20 is_stmt 0 view .LVU2662
	add	r3, r4, r5, lsl #3
.LVL913:
	.loc 1 2854 20 view .LVU2663
	movs	r2, #0
	str	r2, [r3, #4]
	.loc 1 2855 9 is_stmt 1 view .LVU2664
	.loc 1 2855 23 is_stmt 0 view .LVU2665
	adds	r3, r5, #1
.LVL914:
	.loc 1 2855 23 view .LVU2666
	str	r3, [r4, #80]
	.loc 1 2856 9 is_stmt 1 view .LVU2667
.LVL915:
	.loc 1 2859 9 view .LVU2668
	.loc 1 2859 13 is_stmt 0 view .LVU2669
	add	r0, r6, #168
	bl	mbedtls_x509_time_is_past
.LVL916:
	.loc 1 2859 11 view .LVU2670
	cbz	r0, .L565
	.loc 1 2860 13 is_stmt 1 view .LVU2671
	.loc 1 2860 20 is_stmt 0 view .LVU2672
	add	r2, r4, r5, lsl #3
.LVL917:
	.loc 1 2860 20 view .LVU2673
	ldr	r3, [r2, #4]
	orr	r3, r3, #1
	str	r3, [r2, #4]
.LVL918:
.L565:
	.loc 1 2862 9 is_stmt 1 view .LVU2674
	.loc 1 2862 13 is_stmt 0 view .LVU2675
	add	r0, r6, #144
	bl	mbedtls_x509_time_is_future
.LVL919:
	.loc 1 2862 11 view .LVU2676
	cbz	r0, .L566
	.loc 1 2863 13 is_stmt 1 view .LVU2677
	.loc 1 2863 20 is_stmt 0 view .LVU2678
	add	r2, r4, r5, lsl #3
	ldr	r3, [r2, #4]
	orr	r3, r3, #512
	str	r3, [r2, #4]
.L566:
	.loc 1 2866 9 is_stmt 1 view .LVU2679
	.loc 1 2866 11 is_stmt 0 view .LVU2680
	cmp	r8, #0
	bne	.L577
	.loc 1 2870 9 is_stmt 1 view .LVU2681
	.loc 1 2870 13 is_stmt 0 view .LVU2682
	ldrb	r1, [r6, #328]	@ zero_extendqisi2
	mov	r0, r7
	bl	x509_profile_check_md_alg
.LVL920:
	.loc 1 2870 11 view .LVU2683
	cbz	r0, .L568
	.loc 1 2871 13 is_stmt 1 view .LVU2684
	.loc 1 2871 20 is_stmt 0 view .LVU2685
	add	r2, r4, r5, lsl #3
	ldr	r3, [r2, #4]
	orr	r3, r3, #16384
	str	r3, [r2, #4]
.L568:
	.loc 1 2873 9 is_stmt 1 view .LVU2686
	.loc 1 2873 13 is_stmt 0 view .LVU2687
	ldrb	r1, [r6, #329]	@ zero_extendqisi2
	mov	r0, r7
	bl	x509_profile_check_pk_alg
.LVL921:
	.loc 1 2873 11 view .LVU2688
	cbz	r0, .L569
	.loc 1 2874 13 is_stmt 1 view .LVU2689
	.loc 1 2874 20 is_stmt 0 view .LVU2690
	add	r2, r4, r5, lsl #3
	ldr	r3, [r2, #4]
	orr	r3, r3, #32768
	str	r3, [r2, #4]
.L569:
	.loc 1 2877 9 is_stmt 1 view .LVU2691
	.loc 1 2877 22 is_stmt 0 view .LVU2692
	ldr	r3, [r4, #80]
	.loc 1 2877 11 view .LVU2693
	cmp	r3, #1
	beq	.L581
.L570:
	.loc 1 2905 13 is_stmt 1 view .LVU2694
	.loc 1 2906 13 view .LVU2695
	.loc 1 2907 13 view .LVU2696
.LVL922:
	.loc 1 2911 9 view .LVU2697
	.loc 1 2913 49 is_stmt 0 view .LVU2698
	ldr	r3, [r4, #80]
	.loc 1 2911 15 view .LVU2699
	str	fp, [sp, #12]
	str	r10, [sp, #8]
	subs	r3, r3, #1
	str	r3, [sp, #4]
	add	r3, sp, #20
	str	r3, [sp]
	add	r3, sp, #24
	add	r2, sp, #28
	mov	r1, r9
	mov	r0, r6
	bl	x509_crt_find_parent
.LVL923:
	.loc 1 2926 9 is_stmt 1 view .LVU2700
	.loc 1 2930 9 view .LVU2701
	.loc 1 2930 20 is_stmt 0 view .LVU2702
	ldr	r3, [sp, #28]
	.loc 1 2930 11 view .LVU2703
	cmp	r3, #0
	beq	.L582
	.loc 1 2939 9 is_stmt 1 view .LVU2704
	.loc 1 2939 22 is_stmt 0 view .LVU2705
	ldr	r3, [r4, #80]
	.loc 1 2939 11 view .LVU2706
	cmp	r3, #1
	bne	.L583
.L572:
	.loc 1 2947 9 is_stmt 1 view .LVU2707
	.loc 1 2947 13 is_stmt 0 view .LVU2708
	ldr	r3, [sp, #24]
	.loc 1 2947 11 view .LVU2709
	cmp	r3, #0
	bne	.L573
	.loc 1 2948 22 discriminator 1 view .LVU2710
	ldr	r3, [r4, #80]
	.loc 1 2947 33 discriminator 1 view .LVU2711
	cmp	r3, #8
	bls	.L573
	.loc 1 2951 19 view .LVU2712
	ldr	r8, .L584
.LVL924:
	.loc 1 2951 19 view .LVU2713
	b	.L564
.LVL925:
.L577:
	.loc 1 2867 19 view .LVU2714
	mov	r8, #0
.LVL926:
.L564:
	.loc 1 2975 1 view .LVU2715
	mov	r0, r8
	add	sp, sp, #36
	.cfi_def_cfa_offset 36
	@ sp needed
	pop	{r4, r5, r6, r7, r8, r9, r10, fp, pc}
.LVL927:
.L585:
	.loc 1 2975 1 view .LVU2716
	.align	2
.L584:
	.word	-12288
	.cfi_endproc
.LFE68:
	.size	x509_crt_verify_chain, .-x509_crt_verify_chain
	.section	.text.x509_crt_verify_restartable_ca_cb,"ax",%progbits
	.align	1
	.syntax unified
	.thumb
	.thumb_func
	.fpu fpv4-sp-d16
	.type	x509_crt_verify_restartable_ca_cb, %function
x509_crt_verify_restartable_ca_cb:
.LVL928:
.LFB73:
	.loc 1 3112 1 is_stmt 1 view -0
	.cfi_startproc
	@ args = 28, pretend = 0, frame = 88
	@ frame_needed = 0, uses_anonymous_args = 0
	.loc 1 3112 1 is_stmt 0 view .LVU2718
	push	{r4, r5, r6, r7, r8, r9, r10, lr}
	.cfi_def_cfa_offset 32
	.cfi_offset 4, -32
	.cfi_offset 5, -28
	.cfi_offset 6, -24
	.cfi_offset 7, -20
	.cfi_offset 8, -16
	.cfi_offset 9, -12
	.cfi_offset 10, -8
	.cfi_offset 14, -4
	sub	sp, sp, #104
	.cfi_def_cfa_offset 136
	mov	r4, r0
	mov	r6, r1
	mov	r8, r2
	mov	r10, r3
	ldr	r5, [sp, #140]
	ldr	r7, [sp, #144]
	ldr	r9, [sp, #148]
	.loc 1 3113 5 is_stmt 1 view .LVU2719
.LVL929:
	.loc 1 3114 5 view .LVU2720
	.loc 1 3115 5 view .LVU2721
	.loc 1 3116 5 view .LVU2722
	.loc 1 3118 5 view .LVU2723
	.loc 1 3118 12 is_stmt 0 view .LVU2724
	movs	r3, #0
.LVL930:
	.loc 1 3118 12 view .LVU2725
	str	r3, [r9]
	.loc 1 3119 5 is_stmt 1 view .LVU2726
	.loc 1 3119 14 is_stmt 0 view .LVU2727
	str	r3, [sp, #16]
	.loc 1 3120 5 is_stmt 1 view .LVU2728
	add	r0, sp, #20
.LVL931:
	.loc 1 3120 5 is_stmt 0 view .LVU2729
	bl	x509_crt_verify_chain_reset
.LVL932:
	.loc 1 3122 5 is_stmt 1 view .LVU2730
	.loc 1 3122 7 is_stmt 0 view .LVU2731
	cmp	r5, #0
	beq	.L595
	.loc 1 3129 5 is_stmt 1 view .LVU2732
	.loc 1 3129 7 is_stmt 0 view .LVU2733
	cbz	r7, .L588
	.loc 1 3130 9 is_stmt 1 view .LVU2734
	add	r2, sp, #16
	mov	r1, r7
	mov	r0, r4
	bl	x509_crt_verify_name
.LVL933:
.L588:
	.loc 1 3133 5 view .LVU2735
	.loc 1 3133 36 is_stmt 0 view .LVU2736
	add	r7, r4, #204
	.loc 1 3133 15 view .LVU2737
	mov	r0, r7
	bl	mbedtls_pk_get_type
.LVL934:
	mov	r1, r0
.LVL935:
	.loc 1 3135 5 is_stmt 1 view .LVU2738
	.loc 1 3135 9 is_stmt 0 view .LVU2739
	mov	r0, r5
	bl	x509_profile_check_pk_alg
.LVL936:
	.loc 1 3135 7 view .LVU2740
	cbz	r0, .L589
	.loc 1 3136 9 is_stmt 1 view .LVU2741
	.loc 1 3136 18 is_stmt 0 view .LVU2742
	ldr	r3, [sp, #16]
	orr	r3, r3, #32768
	str	r3, [sp, #16]
.L589:
	.loc 1 3138 5 is_stmt 1 view .LVU2743
	.loc 1 3138 9 is_stmt 0 view .LVU2744
	mov	r1, r7
	mov	r0, r5
	bl	x509_profile_check_key
.LVL937:
	.loc 1 3138 7 view .LVU2745
	cbz	r0, .L590
	.loc 1 3139 9 is_stmt 1 view .LVU2746
	.loc 1 3139 18 is_stmt 0 view .LVU2747
	ldr	r3, [sp, #16]
	orr	r3, r3, #65536
	str	r3, [sp, #16]
.L590:
	.loc 1 3142 5 is_stmt 1 view .LVU2748
	.loc 1 3142 11 is_stmt 0 view .LVU2749
	ldr	r3, [sp, #160]
	str	r3, [sp, #12]
	add	r3, sp, #20
	str	r3, [sp, #8]
	str	r5, [sp, #4]
	ldr	r3, [sp, #136]
	str	r3, [sp]
	mov	r3, r10
	mov	r2, r8
	mov	r1, r6
	mov	r0, r4
	bl	x509_crt_verify_chain
.LVL938:
	.loc 1 3146 5 is_stmt 1 view .LVU2750
	.loc 1 3146 7 is_stmt 0 view .LVU2751
	cbz	r0, .L599
.L591:
	.loc 1 3171 5 is_stmt 1 view .LVU2752
	.loc 1 3171 7 is_stmt 0 view .LVU2753
	cmn	r0, #9984
	beq	.L600
.LVL939:
.L587:
	.loc 1 3174 5 is_stmt 1 view .LVU2754
	.loc 1 3174 7 is_stmt 0 view .LVU2755
	cbnz	r0, .L592
	.loc 1 3180 5 is_stmt 1 view .LVU2756
	.loc 1 3180 9 is_stmt 0 view .LVU2757
	ldr	r3, [r9]
	.loc 1 3180 7 view .LVU2758
	cbnz	r3, .L601
.LVL940:
.L586:
	.loc 1 3184 1 view .LVU2759
	add	sp, sp, #104
	.cfi_remember_state
	.cfi_def_cfa_offset 32
	@ sp needed
	pop	{r4, r5, r6, r7, r8, r9, r10, pc}
.LVL941:
.L599:
	.cfi_restore_state
	.loc 1 3150 5 is_stmt 1 view .LVU2760
	.loc 1 3150 30 is_stmt 0 view .LVU2761
	ldr	r3, [sp, #24]
	ldr	r2, [sp, #16]
	orrs	r3, r3, r2
	str	r3, [sp, #24]
	.loc 1 3153 5 is_stmt 1 view .LVU2762
	.loc 1 3153 11 is_stmt 0 view .LVU2763
	ldr	r3, [sp, #156]
	ldr	r2, [sp, #152]
	add	r1, sp, #20
	mov	r0, r9
.LVL942:
	.loc 1 3153 11 view .LVU2764
	bl	x509_crt_merge_flags_with_cb
.LVL943:
	.loc 1 3153 11 view .LVU2765
	b	.L591
.LVL944:
.L595:
	.loc 1 3124 13 view .LVU2766
	ldr	r0, .L602
	b	.L587
.LVL945:
.L600:
	.loc 1 3172 13 view .LVU2767
	ldr	r0, .L602+4
.LVL946:
.L592:
	.loc 1 3176 9 is_stmt 1 view .LVU2768
	.loc 1 3176 16 is_stmt 0 view .LVU2769
	mov	r3, #-1
	str	r3, [r9]
	.loc 1 3177 9 is_stmt 1 view .LVU2770
	.loc 1 3177 15 is_stmt 0 view .LVU2771
	b	.L586
.LVL947:
.L601:
	.loc 1 3181 15 view .LVU2772
	ldr	r0, .L602+8
.LVL948:
	.loc 1 3181 15 view .LVU2773
	b	.L586
.L603:
	.align	2
.L602:
	.word	-10240
	.word	-12288
	.word	-9984
	.cfi_endproc
.LFE73:
	.size	x509_crt_verify_restartable_ca_cb, .-x509_crt_verify_restartable_ca_cb
	.section	.text.mbedtls_x509_crt_check_extended_key_usage,"ax",%progbits
	.align	1
	.global	mbedtls_x509_crt_check_extended_key_usage
	.syntax unified
	.thumb
	.thumb_func
	.fpu fpv4-sp-d16
	.type	mbedtls_x509_crt_check_extended_key_usage, %function
mbedtls_x509_crt_check_extended_key_usage:
.LVL949:
.LFB62:
	.loc 1 2281 1 is_stmt 1 view -0
	.cfi_startproc
	@ args = 0, pretend = 0, frame = 0
	@ frame_needed = 0, uses_anonymous_args = 0
	.loc 1 2282 5 view .LVU2775
	.loc 1 2285 5 view .LVU2776
	.loc 1 2285 14 is_stmt 0 view .LVU2777
	ldr	r3, [r0, #280]
	.loc 1 2285 7 view .LVU2778
	ands	r3, r3, #2048
	beq	.L611
	.loc 1 2281 1 view .LVU2779
	push	{r4, r5, r6, lr}
	.cfi_def_cfa_offset 16
	.cfi_offset 4, -16
	.cfi_offset 5, -12
	.cfi_offset 6, -8
	.cfi_offset 14, -4
	mov	r6, r1
	mov	r5, r2
	.loc 1 2291 5 is_stmt 1 view .LVU2780
	.loc 1 2291 14 is_stmt 0 view .LVU2781
	add	r4, r0, #296
.LVL950:
	.loc 1 2291 5 view .LVU2782
	b	.L606
.LVL951:
.L615:
.LBB202:
	.loc 1 2296 13 discriminator 1 view .LVU2783
	mov	r2, r5
	mov	r1, r6
	ldr	r0, [r4, #8]
	bl	memcmp
.LVL952:
	.loc 1 2295 39 discriminator 1 view .LVU2784
	mov	r3, r0
	cbnz	r0, .L607
	.loc 1 2295 39 discriminator 1 view .LVU2785
	b	.L604
.L608:
	.loc 1 2295 39 discriminator 1 view .LVU2786
.LBE202:
	.loc 1 2291 49 is_stmt 1 discriminator 3 view .LVU2787
	.loc 1 2291 53 is_stmt 0 discriminator 3 view .LVU2788
	ldr	r4, [r4, #12]
.LVL953:
.L606:
	.loc 1 2291 37 is_stmt 1 discriminator 1 view .LVU2789
	.loc 1 2291 5 is_stmt 0 discriminator 1 view .LVU2790
	cbz	r4, .L614
.LBB203:
	.loc 1 2293 9 is_stmt 1 view .LVU2791
.LVL954:
	.loc 1 2295 9 view .LVU2792
	.loc 1 2295 20 is_stmt 0 view .LVU2793
	ldr	r3, [r4, #4]
	.loc 1 2295 11 view .LVU2794
	cmp	r3, r5
	beq	.L615
.L607:
	.loc 1 2301 9 is_stmt 1 view .LVU2795
	.loc 1 2301 71 is_stmt 0 view .LVU2796
	ldr	r2, [r4, #4]
	.loc 1 2301 79 view .LVU2797
	cmp	r2, #4
	bne	.L608
	.loc 1 2301 82 discriminator 2 view .LVU2798
	ldr	r1, [r4, #8]
	ldr	r0, .L616
	bl	memcmp
.LVL955:
	.loc 1 2301 79 discriminator 2 view .LVU2799
	mov	r3, r0
	cmp	r0, #0
	bne	.L608
	b	.L604
.LVL956:
.L614:
	.loc 1 2301 79 discriminator 2 view .LVU2800
.LBE203:
	.loc 1 2305 11 view .LVU2801
	ldr	r3, .L616+4
.L604:
	.loc 1 2306 1 view .LVU2802
	mov	r0, r3
	pop	{r4, r5, r6, pc}
.LVL957:
.L611:
	.cfi_def_cfa_offset 0
	.cfi_restore 4
	.cfi_restore 5
	.cfi_restore 6
	.cfi_restore 14
	.loc 1 2306 1 view .LVU2803
	mov	r0, r3
.LVL958:
	.loc 1 2306 1 view .LVU2804
	bx	lr
.L617:
	.align	2
.L616:
	.word	.LANCHOR0+8
	.word	-10240
	.cfi_endproc
.LFE62:
	.size	mbedtls_x509_crt_check_extended_key_usage, .-mbedtls_x509_crt_check_extended_key_usage
	.section	.text.mbedtls_x509_crt_verify,"ax",%progbits
	.align	1
	.global	mbedtls_x509_crt_verify
	.syntax unified
	.thumb
	.thumb_func
	.fpu fpv4-sp-d16
	.type	mbedtls_x509_crt_verify, %function
mbedtls_x509_crt_verify:
.LVL959:
.LFB74:
	.loc 1 3196 1 is_stmt 1 view -0
	.cfi_startproc
	@ args = 12, pretend = 0, frame = 0
	@ frame_needed = 0, uses_anonymous_args = 0
	.loc 1 3196 1 is_stmt 0 view .LVU2806
	push	{r4, r5, lr}
	.cfi_def_cfa_offset 12
	.cfi_offset 4, -12
	.cfi_offset 5, -8
	.cfi_offset 14, -4
	sub	sp, sp, #36
	.cfi_def_cfa_offset 48
	mov	r4, r3
	.loc 1 3197 5 is_stmt 1 view .LVU2807
	.loc 1 3197 13 is_stmt 0 view .LVU2808
	movs	r3, #0
.LVL960:
	.loc 1 3197 13 view .LVU2809
	str	r3, [sp, #24]
	ldr	r5, [sp, #56]
	str	r5, [sp, #20]
	ldr	r5, [sp, #52]
	str	r5, [sp, #16]
	ldr	r5, [sp, #48]
	str	r5, [sp, #12]
	str	r4, [sp, #8]
	ldr	r4, .L620
.LVL961:
	.loc 1 3197 13 view .LVU2810
	str	r4, [sp, #4]
	str	r3, [sp]
	bl	x509_crt_verify_restartable_ca_cb
.LVL962:
	.loc 1 3202 1 view .LVU2811
	add	sp, sp, #36
	.cfi_def_cfa_offset 12
	@ sp needed
	pop	{r4, r5, pc}
.LVL963:
.L621:
	.loc 1 3202 1 view .LVU2812
	.align	2
.L620:
	.word	.LANCHOR2
	.cfi_endproc
.LFE74:
	.size	mbedtls_x509_crt_verify, .-mbedtls_x509_crt_verify
	.section	.text.mbedtls_x509_crt_verify_with_profile,"ax",%progbits
	.align	1
	.global	mbedtls_x509_crt_verify_with_profile
	.syntax unified
	.thumb
	.thumb_func
	.fpu fpv4-sp-d16
	.type	mbedtls_x509_crt_verify_with_profile, %function
mbedtls_x509_crt_verify_with_profile:
.LVL964:
.LFB75:
	.loc 1 3214 1 is_stmt 1 view -0
	.cfi_startproc
	@ args = 16, pretend = 0, frame = 0
	@ frame_needed = 0, uses_anonymous_args = 0
	.loc 1 3214 1 is_stmt 0 view .LVU2814
	push	{r4, r5, lr}
	.cfi_def_cfa_offset 12
	.cfi_offset 4, -12
	.cfi_offset 5, -8
	.cfi_offset 14, -4
	sub	sp, sp, #36
	.cfi_def_cfa_offset 48
	mov	r4, r3
	.loc 1 3215 5 is_stmt 1 view .LVU2815
	.loc 1 3215 13 is_stmt 0 view .LVU2816
	movs	r3, #0
.LVL965:
	.loc 1 3215 13 view .LVU2817
	str	r3, [sp, #24]
	ldr	r5, [sp, #60]
	str	r5, [sp, #20]
	ldr	r5, [sp, #56]
	str	r5, [sp, #16]
	ldr	r5, [sp, #52]
	str	r5, [sp, #12]
	ldr	r5, [sp, #48]
	str	r5, [sp, #8]
	str	r4, [sp, #4]
	str	r3, [sp]
	bl	x509_crt_verify_restartable_ca_cb
.LVL966:
	.loc 1 3219 1 view .LVU2818
	add	sp, sp, #36
	.cfi_def_cfa_offset 12
	@ sp needed
	pop	{r4, r5, pc}
	.loc 1 3219 1 view .LVU2819
	.cfi_endproc
.LFE75:
	.size	mbedtls_x509_crt_verify_with_profile, .-mbedtls_x509_crt_verify_with_profile
	.section	.text.mbedtls_x509_crt_verify_restartable,"ax",%progbits
	.align	1
	.global	mbedtls_x509_crt_verify_restartable
	.syntax unified
	.thumb
	.thumb_func
	.fpu fpv4-sp-d16
	.type	mbedtls_x509_crt_verify_restartable, %function
mbedtls_x509_crt_verify_restartable:
.LVL967:
.LFB76:
	.loc 1 3249 1 is_stmt 1 view -0
	.cfi_startproc
	@ args = 20, pretend = 0, frame = 0
	@ frame_needed = 0, uses_anonymous_args = 0
	.loc 1 3249 1 is_stmt 0 view .LVU2821
	push	{r4, lr}
	.cfi_def_cfa_offset 8
	.cfi_offset 4, -8
	.cfi_offset 14, -4
	sub	sp, sp, #32
	.cfi_def_cfa_offset 40
	.loc 1 3250 5 is_stmt 1 view .LVU2822
	.loc 1 3250 13 is_stmt 0 view .LVU2823
	ldr	r4, [sp, #56]
	str	r4, [sp, #24]
	ldr	r4, [sp, #52]
	str	r4, [sp, #20]
	ldr	r4, [sp, #48]
	str	r4, [sp, #16]
	ldr	r4, [sp, #44]
	str	r4, [sp, #12]
	ldr	r4, [sp, #40]
	str	r4, [sp, #8]
	str	r3, [sp, #4]
	movs	r3, #0
.LVL968:
	.loc 1 3250 13 view .LVU2824
	str	r3, [sp]
	bl	x509_crt_verify_restartable_ca_cb
.LVL969:
	.loc 1 3254 1 view .LVU2825
	add	sp, sp, #32
	.cfi_def_cfa_offset 8
	@ sp needed
	pop	{r4, pc}
	.loc 1 3254 1 view .LVU2826
	.cfi_endproc
.LFE76:
	.size	mbedtls_x509_crt_verify_restartable, .-mbedtls_x509_crt_verify_restartable
	.section	.text.mbedtls_x509_crt_init,"ax",%progbits
	.align	1
	.global	mbedtls_x509_crt_init
	.syntax unified
	.thumb
	.thumb_func
	.fpu fpv4-sp-d16
	.type	mbedtls_x509_crt_init, %function
mbedtls_x509_crt_init:
.LVL970:
.LFB77:
	.loc 1 3261 1 is_stmt 1 view -0
	.cfi_startproc
	@ args = 0, pretend = 0, frame = 0
	@ frame_needed = 0, uses_anonymous_args = 0
	.loc 1 3261 1 is_stmt 0 view .LVU2828
	push	{r3, lr}
	.cfi_def_cfa_offset 8
	.cfi_offset 3, -8
	.cfi_offset 14, -4
	.loc 1 3262 4 is_stmt 1 view .LVU2829
.LVL971:
.LBB204:
.LBI204:
	.loc 3 86 189 view .LVU2830
.LBB205:
	.loc 3 86 238 view .LVU2831
	.loc 3 86 245 is_stmt 0 view .LVU2832
	mov	r2, #340
	movs	r1, #0
	bl	memset
.LVL972:
	.loc 3 86 245 view .LVU2833
.LBE205:
.LBE204:
	.loc 1 3263 1 view .LVU2834
	pop	{r3, pc}
	.cfi_endproc
.LFE77:
	.size	mbedtls_x509_crt_init, .-mbedtls_x509_crt_init
	.section	.text.mbedtls_x509_crt_free,"ax",%progbits
	.align	1
	.global	mbedtls_x509_crt_free
	.syntax unified
	.thumb
	.thumb_func
	.fpu fpv4-sp-d16
	.type	mbedtls_x509_crt_free, %function
mbedtls_x509_crt_free:
.LVL973:
.LFB78:
	.loc 1 3269 1 is_stmt 1 view -0
	.cfi_startproc
	@ args = 0, pretend = 0, frame = 0
	@ frame_needed = 0, uses_anonymous_args = 0
	.loc 1 3270 5 view .LVU2836
	.loc 1 3271 5 view .LVU2837
	.loc 1 3272 5 view .LVU2838
	.loc 1 3273 5 view .LVU2839
	.loc 1 3274 5 view .LVU2840
	.loc 1 3275 5 view .LVU2841
	.loc 1 3277 5 view .LVU2842
	.loc 1 3277 7 is_stmt 0 view .LVU2843
	cmp	r0, #0
	beq	.L645
	.loc 1 3269 1 view .LVU2844
	push	{r3, r4, r5, r6, r7, lr}
	.cfi_def_cfa_offset 24
	.cfi_offset 3, -24
	.cfi_offset 4, -20
	.cfi_offset 5, -16
	.cfi_offset 6, -12
	.cfi_offset 7, -8
	.cfi_offset 14, -4
	mov	r7, r0
	.loc 1 3270 23 view .LVU2845
	mov	r6, r0
	b	.L641
.LVL974:
.L631:
	.loc 1 3291 13 is_stmt 1 view .LVU2846
	.loc 1 3292 13 view .LVU2847
	.loc 1 3292 22 is_stmt 0 view .LVU2848
	ldr	r5, [r4, #24]
.LVL975:
	.loc 1 3293 13 is_stmt 1 view .LVU2849
	movs	r1, #32
	mov	r0, r4
	bl	mbedtls_platform_zeroize
.LVL976:
	.loc 1 3294 13 view .LVU2850
	mov	r0, r4
	bl	mbedtls_free
.LVL977:
	.loc 1 3292 22 is_stmt 0 view .LVU2851
	mov	r4, r5
.LVL978:
.L630:
	.loc 1 3289 14 is_stmt 1 view .LVU2852
	cmp	r4, #0
	bne	.L631
	.loc 1 3297 9 view .LVU2853
	.loc 1 3297 18 is_stmt 0 view .LVU2854
	ldr	r4, [r6, #136]
.LVL979:
	.loc 1 3298 9 is_stmt 1 view .LVU2855
.L632:
	.loc 1 3298 14 view .LVU2856
	cbz	r4, .L648
	.loc 1 3300 13 view .LVU2857
.LVL980:
	.loc 1 3301 13 view .LVU2858
	.loc 1 3301 22 is_stmt 0 view .LVU2859
	ldr	r5, [r4, #24]
.LVL981:
	.loc 1 3302 13 is_stmt 1 view .LVU2860
	movs	r1, #32
	mov	r0, r4
	bl	mbedtls_platform_zeroize
.LVL982:
	.loc 1 3303 13 view .LVU2861
	mov	r0, r4
	bl	mbedtls_free
.LVL983:
	.loc 1 3301 22 is_stmt 0 view .LVU2862
	mov	r4, r5
.LVL984:
	.loc 1 3301 22 view .LVU2863
	b	.L632
.LVL985:
.L648:
	.loc 1 3306 9 is_stmt 1 view .LVU2864
	.loc 1 3306 17 is_stmt 0 view .LVU2865
	ldr	r4, [r6, #308]
.LVL986:
	.loc 1 3307 9 is_stmt 1 view .LVU2866
.L634:
	.loc 1 3307 14 view .LVU2867
	cbz	r4, .L649
	.loc 1 3309 13 view .LVU2868
.LVL987:
	.loc 1 3310 13 view .LVU2869
	.loc 1 3310 21 is_stmt 0 view .LVU2870
	ldr	r5, [r4, #12]
.LVL988:
	.loc 1 3311 13 is_stmt 1 view .LVU2871
	movs	r1, #16
	mov	r0, r4
	bl	mbedtls_platform_zeroize
.LVL989:
	.loc 1 3313 13 view .LVU2872
	mov	r0, r4
	bl	mbedtls_free
.LVL990:
	.loc 1 3310 21 is_stmt 0 view .LVU2873
	mov	r4, r5
.LVL991:
	.loc 1 3310 21 view .LVU2874
	b	.L634
.LVL992:
.L649:
	.loc 1 3316 9 is_stmt 1 view .LVU2875
	.loc 1 3316 17 is_stmt 0 view .LVU2876
	ldr	r4, [r6, #260]
.LVL993:
	.loc 1 3317 9 is_stmt 1 view .LVU2877
	.loc 1 3317 14 is_stmt 0 view .LVU2878
	b	.L636
.L637:
	.loc 1 3319 13 is_stmt 1 view .LVU2879
.LVL994:
	.loc 1 3320 13 view .LVU2880
	.loc 1 3320 21 is_stmt 0 view .LVU2881
	ldr	r5, [r4, #12]
.LVL995:
	.loc 1 3321 13 is_stmt 1 view .LVU2882
	movs	r1, #16
	mov	r0, r4
	bl	mbedtls_platform_zeroize
.LVL996:
	.loc 1 3323 13 view .LVU2883
	mov	r0, r4
	bl	mbedtls_free
.LVL997:
	.loc 1 3320 21 is_stmt 0 view .LVU2884
	mov	r4, r5
.LVL998:
.L636:
	.loc 1 3317 14 is_stmt 1 view .LVU2885
	cmp	r4, #0
	bne	.L637
	.loc 1 3326 9 view .LVU2886
	.loc 1 3326 17 is_stmt 0 view .LVU2887
	ldr	r4, [r6, #276]
.LVL999:
	.loc 1 3327 9 is_stmt 1 view .LVU2888
	.loc 1 3327 14 is_stmt 0 view .LVU2889
	b	.L638
.L639:
	.loc 1 3329 13 is_stmt 1 view .LVU2890
.LVL1000:
	.loc 1 3330 13 view .LVU2891
	.loc 1 3330 21 is_stmt 0 view .LVU2892
	ldr	r5, [r4, #12]
.LVL1001:
	.loc 1 3331 13 is_stmt 1 view .LVU2893
	movs	r1, #16
	mov	r0, r4
	bl	mbedtls_platform_zeroize
.LVL1002:
	.loc 1 3333 13 view .LVU2894
	mov	r0, r4
	bl	mbedtls_free
.LVL1003:
	.loc 1 3330 21 is_stmt 0 view .LVU2895
	mov	r4, r5
.LVL1004:
.L638:
	.loc 1 3327 14 is_stmt 1 view .LVU2896
	cmp	r4, #0
	bne	.L639
	.loc 1 3336 9 view .LVU2897
	.loc 1 3336 26 is_stmt 0 view .LVU2898
	ldr	r0, [r6, #12]
	.loc 1 3336 11 view .LVU2899
	cbz	r0, .L640
	.loc 1 3336 47 discriminator 1 view .LVU2900
	ldr	r3, [r6]
	.loc 1 3336 36 discriminator 1 view .LVU2901
	cbnz	r3, .L650
.L640:
	.loc 1 3342 9 is_stmt 1 view .LVU2902
	.loc 1 3342 18 is_stmt 0 view .LVU2903
	ldr	r6, [r6, #336]
.LVL1005:
	.loc 1 3344 10 is_stmt 1 view .LVU2904
	.loc 1 3344 28 is_stmt 0 view .LVU2905
	cbz	r6, .L651
.LVL1006:
.L641:
	.loc 1 3280 5 is_stmt 1 view .LVU2906
	.loc 1 3282 9 view .LVU2907
	add	r0, r6, #204
	bl	mbedtls_pk_free
.LVL1007:
	.loc 1 3288 9 view .LVU2908
	.loc 1 3288 18 is_stmt 0 view .LVU2909
	ldr	r4, [r6, #104]
.LVL1008:
	.loc 1 3289 9 is_stmt 1 view .LVU2910
	.loc 1 3289 14 is_stmt 0 view .LVU2911
	b	.L630
.LVL1009:
.L650:
	.loc 1 3338 13 is_stmt 1 view .LVU2912
	ldr	r1, [r6, #8]
	bl	mbedtls_platform_zeroize
.LVL1010:
	.loc 1 3339 13 view .LVU2913
	ldr	r0, [r6, #12]
	bl	mbedtls_free
.LVL1011:
	b	.L640
.L651:
	.loc 1 3346 14 is_stmt 0 view .LVU2914
	mov	r4, r7
.LVL1012:
	.loc 1 3346 14 view .LVU2915
	b	.L643
.LVL1013:
.L642:
	.loc 1 3356 10 is_stmt 1 view .LVU2916
	.loc 1 3356 28 is_stmt 0 view .LVU2917
	cbz	r4, .L652
.LVL1014:
.L643:
	.loc 1 3347 5 is_stmt 1 view .LVU2918
	.loc 1 3349 9 view .LVU2919
	.loc 1 3350 9 view .LVU2920
	mov	r5, r4
	.loc 1 3350 18 is_stmt 0 view .LVU2921
	ldr	r4, [r4, #336]
.LVL1015:
	.loc 1 3352 9 is_stmt 1 view .LVU2922
	mov	r1, #340
	mov	r0, r5
	bl	mbedtls_platform_zeroize
.LVL1016:
	.loc 1 3353 9 view .LVU2923
	.loc 1 3353 11 is_stmt 0 view .LVU2924
	cmp	r5, r7
	beq	.L642
	.loc 1 3354 13 is_stmt 1 view .LVU2925
	mov	r0, r5
	bl	mbedtls_free
.LVL1017:
	b	.L642
.L652:
	.loc 1 3357 1 is_stmt 0 view .LVU2926
	pop	{r3, r4, r5, r6, r7, pc}
.LVL1018:
.L645:
	.cfi_def_cfa_offset 0
	.cfi_restore 3
	.cfi_restore 4
	.cfi_restore 5
	.cfi_restore 6
	.cfi_restore 7
	.cfi_restore 14
	.loc 1 3357 1 view .LVU2927
	bx	lr
	.cfi_endproc
.LFE78:
	.size	mbedtls_x509_crt_free, .-mbedtls_x509_crt_free
	.section	.text.x509_crt_parse_der_core,"ax",%progbits
	.align	1
	.syntax unified
	.thumb
	.thumb_func
	.fpu fpv4-sp-d16
	.type	x509_crt_parse_der_core, %function
x509_crt_parse_der_core:
.LVL1019:
.LFB46:
	.loc 1 1091 1 is_stmt 1 view -0
	.cfi_startproc
	@ args = 8, pretend = 0, frame = 48
	@ frame_needed = 0, uses_anonymous_args = 0
	.loc 1 1091 1 is_stmt 0 view .LVU2929
	push	{r4, r5, r6, r7, r8, lr}
	.cfi_def_cfa_offset 24
	.cfi_offset 4, -24
	.cfi_offset 5, -20
	.cfi_offset 6, -16
	.cfi_offset 7, -12
	.cfi_offset 8, -8
	.cfi_offset 14, -4
	sub	sp, sp, #56
	.cfi_def_cfa_offset 80
	.loc 1 1092 5 is_stmt 1 view .LVU2930
.LVL1020:
	.loc 1 1093 5 view .LVU2931
	.loc 1 1094 5 view .LVU2932
	.loc 1 1095 5 view .LVU2933
	.loc 1 1097 4 view .LVU2934
	.loc 1 1097 26 is_stmt 0 view .LVU2935
	movs	r4, #0
	str	r4, [sp, #36]
	str	r4, [sp, #40]
	str	r4, [sp, #44]
	.loc 1 1098 4 is_stmt 1 view .LVU2936
	.loc 1 1098 26 is_stmt 0 view .LVU2937
	str	r4, [sp, #24]
	str	r4, [sp, #28]
	str	r4, [sp, #32]
	.loc 1 1099 4 is_stmt 1 view .LVU2938
	.loc 1 1099 26 is_stmt 0 view .LVU2939
	str	r4, [sp, #12]
	str	r4, [sp, #16]
	str	r4, [sp, #20]
	.loc 1 1104 5 is_stmt 1 view .LVU2940
	.loc 1 1104 7 is_stmt 0 view .LVU2941
	cmp	r0, #0
	beq	.L677
	mov	r5, r1
	mov	r1, r2
.LVL1021:
	.loc 1 1104 7 view .LVU2942
	mov	r7, r3
	mov	r4, r0
	.loc 1 1104 20 discriminator 1 view .LVU2943
	cmp	r5, #0
	beq	.L678
	.loc 1 1108 5 is_stmt 1 view .LVU2944
	.loc 1 1108 7 is_stmt 0 view .LVU2945
	str	r5, [sp, #48]
	.loc 1 1109 5 is_stmt 1 view .LVU2946
	.loc 1 1109 9 is_stmt 0 view .LVU2947
	str	r2, [sp, #52]
	.loc 1 1110 5 is_stmt 1 view .LVU2948
.LVL1022:
	.loc 1 1118 5 view .LVU2949
	.loc 1 1118 17 is_stmt 0 view .LVU2950
	movs	r3, #48
.LVL1023:
	.loc 1 1118 17 view .LVU2951
	add	r2, sp, #52
.LVL1024:
	.loc 1 1118 17 view .LVU2952
	add	r1, r1, r5
.LVL1025:
	.loc 1 1118 17 view .LVU2953
	add	r0, sp, r3
.LVL1026:
	.loc 1 1118 17 view .LVU2954
	bl	mbedtls_asn1_get_tag
.LVL1027:
	.loc 1 1118 7 view .LVU2955
	cmp	r0, #0
	bne	.L681
	.loc 1 1125 5 is_stmt 1 view .LVU2956
	.loc 1 1125 19 is_stmt 0 view .LVU2957
	ldr	r6, [sp, #48]
	ldr	r3, [sp, #52]
	add	r6, r6, r3
.LVL1028:
	.loc 1 1126 5 is_stmt 1 view .LVU2958
	.loc 1 1126 28 is_stmt 0 view .LVU2959
	subs	r1, r6, r5
	.loc 1 1126 18 view .LVU2960
	str	r1, [r4, #8]
	.loc 1 1127 5 is_stmt 1 view .LVU2961
	.loc 1 1127 7 is_stmt 0 view .LVU2962
	cbnz	r7, .L682
	.loc 1 1142 9 is_stmt 1 view .LVU2963
	.loc 1 1142 20 is_stmt 0 view .LVU2964
	str	r5, [r4, #12]
	.loc 1 1143 9 is_stmt 1 view .LVU2965
	.loc 1 1143 25 is_stmt 0 view .LVU2966
	movs	r3, #0
	str	r3, [r4]
.LVL1029:
.L657:
	.loc 1 1149 5 is_stmt 1 view .LVU2967
	.loc 1 1149 16 is_stmt 0 view .LVU2968
	ldr	r3, [sp, #48]
	str	r3, [r4, #24]
	.loc 1 1151 5 is_stmt 1 view .LVU2969
	.loc 1 1151 17 is_stmt 0 view .LVU2970
	movs	r3, #48
	add	r2, sp, #52
	mov	r1, r6
	add	r0, sp, r3
	bl	mbedtls_asn1_get_tag
.LVL1030:
	.loc 1 1151 7 view .LVU2971
	mov	r5, r0
.LVL1031:
	.loc 1 1151 7 view .LVU2972
	cmp	r0, #0
	bne	.L683
	.loc 1 1158 5 is_stmt 1 view .LVU2973
	.loc 1 1158 9 is_stmt 0 view .LVU2974
	ldr	r7, [sp, #48]
.LVL1032:
	.loc 1 1158 9 view .LVU2975
	ldr	r3, [sp, #52]
	add	r7, r7, r3
.LVL1033:
	.loc 1 1159 5 is_stmt 1 view .LVU2976
	.loc 1 1159 34 is_stmt 0 view .LVU2977
	ldr	r3, [r4, #24]
	.loc 1 1159 24 view .LVU2978
	subs	r3, r7, r3
	.loc 1 1159 18 view .LVU2979
	str	r3, [r4, #20]
	.loc 1 1168 5 is_stmt 1 view .LVU2980
	.loc 1 1168 17 is_stmt 0 view .LVU2981
	add	r2, r4, #28
	mov	r1, r7
	add	r0, sp, #48
.LVL1034:
	.loc 1 1168 17 view .LVU2982
	bl	x509_get_version
.LVL1035:
	.loc 1 1168 7 view .LVU2983
	mov	r5, r0
	cbnz	r0, .L659
	.loc 1 1169 17 discriminator 1 view .LVU2984
	add	r2, r4, #32
	mov	r1, r7
	add	r0, sp, #48
.LVL1036:
	.loc 1 1169 17 discriminator 1 view .LVU2985
	bl	mbedtls_x509_get_serial
.LVL1037:
	.loc 1 1168 67 discriminator 1 view .LVU2986
	mov	r5, r0
	cbz	r0, .L684
.L659:
	.loc 1 1173 9 is_stmt 1 view .LVU2987
	mov	r0, r4
.LVL1038:
	.loc 1 1173 9 is_stmt 0 view .LVU2988
	bl	mbedtls_x509_crt_free
.LVL1039:
	.loc 1 1174 9 is_stmt 1 view .LVU2989
.L653:
	.loc 1 1342 1 is_stmt 0 view .LVU2990
	mov	r0, r5
	add	sp, sp, #56
	.cfi_remember_state
	.cfi_def_cfa_offset 24
	@ sp needed
	pop	{r4, r5, r6, r7, r8, pc}
.LVL1040:
.L681:
	.cfi_restore_state
	.loc 1 1121 9 is_stmt 1 view .LVU2991
	mov	r0, r4
.LVL1041:
	.loc 1 1121 9 is_stmt 0 view .LVU2992
	bl	mbedtls_x509_crt_free
.LVL1042:
	.loc 1 1122 9 is_stmt 1 view .LVU2993
	.loc 1 1122 15 is_stmt 0 view .LVU2994
	ldr	r5, .L699
.LVL1043:
	.loc 1 1122 15 view .LVU2995
	b	.L653
.LVL1044:
.L682:
	.loc 1 1130 9 is_stmt 1 view .LVU2996
	.loc 1 1130 26 is_stmt 0 view .LVU2997
	movs	r0, #1
.LVL1045:
	.loc 1 1130 26 view .LVU2998
	bl	mbedtls_calloc
.LVL1046:
	.loc 1 1130 24 view .LVU2999
	str	r0, [sp, #48]
	.loc 1 1130 20 view .LVU3000
	str	r0, [r4, #12]
	.loc 1 1131 9 is_stmt 1 view .LVU3001
	.loc 1 1131 11 is_stmt 0 view .LVU3002
	cmp	r0, #0
	beq	.L679
	.loc 1 1134 8 is_stmt 1 view .LVU3003
.LVL1047:
.LBB206:
.LBI206:
	.loc 3 83 216 view .LVU3004
.LBB207:
	.loc 3 83 292 view .LVU3005
	.loc 3 83 299 is_stmt 0 view .LVU3006
	ldr	r2, [r4, #8]
	mov	r1, r5
	bl	memcpy
.LVL1048:
	.loc 3 83 299 view .LVU3007
.LBE207:
.LBE206:
	.loc 1 1135 9 is_stmt 1 view .LVU3008
	.loc 1 1135 25 is_stmt 0 view .LVU3009
	movs	r3, #1
	str	r3, [r4]
	.loc 1 1137 9 is_stmt 1 view .LVU3010
	.loc 1 1137 22 is_stmt 0 view .LVU3011
	ldr	r6, [r4, #8]
.LVL1049:
	.loc 1 1137 27 view .LVU3012
	ldr	r2, [sp, #52]
	subs	r3, r6, r2
	.loc 1 1137 11 view .LVU3013
	ldr	r6, [sp, #48]
	add	r6, r6, r3
	str	r6, [sp, #48]
	.loc 1 1138 9 is_stmt 1 view .LVU3014
	.loc 1 1138 23 is_stmt 0 view .LVU3015
	add	r6, r6, r2
.LVL1050:
	.loc 1 1138 23 view .LVU3016
	b	.L657
.LVL1051:
.L683:
	.loc 1 1154 9 is_stmt 1 view .LVU3017
	mov	r0, r4
.LVL1052:
	.loc 1 1154 9 is_stmt 0 view .LVU3018
	bl	mbedtls_x509_crt_free
.LVL1053:
	.loc 1 1155 9 is_stmt 1 view .LVU3019
.LBB208:
.LBI208:
	.loc 2 152 19 view .LVU3020
.LBB209:
	.loc 2 159 5 view .LVU3021
	.loc 2 160 5 view .LVU3022
	.loc 2 162 5 view .LVU3023
	.loc 2 162 18 is_stmt 0 view .LVU3024
	sub	r5, r5, #8576
.LVL1054:
	.loc 2 162 18 view .LVU3025
.LBE209:
.LBE208:
	.loc 1 1155 17 view .LVU3026
	b	.L653
.LVL1055:
.L684:
	.loc 1 1170 17 view .LVU3027
	add	r8, r4, #44
	add	r3, sp, #36
	mov	r2, r8
	mov	r1, r7
	add	r0, sp, #48
.LVL1056:
	.loc 1 1170 17 view .LVU3028
	bl	mbedtls_x509_get_alg
.LVL1057:
	.loc 1 1169 73 view .LVU3029
	mov	r5, r0
	cmp	r0, #0
	bne	.L659
	.loc 1 1177 5 is_stmt 1 view .LVU3030
	.loc 1 1177 12 is_stmt 0 view .LVU3031
	ldr	r3, [r4, #28]
	.loc 1 1177 7 view .LVU3032
	cmp	r3, #2
	bhi	.L685
	.loc 1 1183 5 is_stmt 1 view .LVU3033
	.loc 1 1183 17 is_stmt 0 view .LVU3034
	adds	r3, r3, #1
	str	r3, [r4, #28]
	.loc 1 1185 5 is_stmt 1 view .LVU3035
	.loc 1 1185 17 is_stmt 0 view .LVU3036
	add	r3, r4, #332
	str	r3, [sp]
	addw	r3, r4, #329
	add	r2, r4, #328
	add	r1, sp, #36
	mov	r0, r8
.LVL1058:
	.loc 1 1185 17 view .LVU3037
	bl	mbedtls_x509_get_sig_alg
.LVL1059:
	.loc 1 1185 7 view .LVU3038
	mov	r5, r0
	cmp	r0, #0
	bne	.L686
	.loc 1 1196 5 is_stmt 1 view .LVU3039
	.loc 1 1196 23 is_stmt 0 view .LVU3040
	ldr	r3, [sp, #48]
	str	r3, [r4, #64]
	.loc 1 1198 5 is_stmt 1 view .LVU3041
	.loc 1 1198 17 is_stmt 0 view .LVU3042
	movs	r3, #48
	add	r2, sp, #52
	mov	r1, r7
	add	r0, sp, r3
.LVL1060:
	.loc 1 1198 17 view .LVU3043
	bl	mbedtls_asn1_get_tag
.LVL1061:
	.loc 1 1198 7 view .LVU3044
	mov	r5, r0
	cmp	r0, #0
	bne	.L687
	.loc 1 1205 5 is_stmt 1 view .LVU3045
	.loc 1 1205 17 is_stmt 0 view .LVU3046
	add	r2, r4, #80
	ldr	r1, [sp, #48]
	ldr	r3, [sp, #52]
	add	r1, r1, r3
	add	r0, sp, #48
.LVL1062:
	.loc 1 1205 17 view .LVU3047
	bl	mbedtls_x509_get_name
.LVL1063:
	.loc 1 1205 7 view .LVU3048
	mov	r5, r0
	cmp	r0, #0
	bne	.L688
	.loc 1 1211 5 is_stmt 1 view .LVU3049
	.loc 1 1211 46 is_stmt 0 view .LVU3050
	ldr	r2, [r4, #64]
	.loc 1 1211 29 view .LVU3051
	ldr	r3, [sp, #48]
	subs	r3, r3, r2
	.loc 1 1211 25 view .LVU3052
	str	r3, [r4, #60]
	.loc 1 1219 5 is_stmt 1 view .LVU3053
	.loc 1 1219 17 is_stmt 0 view .LVU3054
	add	r3, r4, #168
	add	r2, r4, #144
	mov	r1, r7
	add	r0, sp, #48
.LVL1064:
	.loc 1 1219 17 view .LVU3055
	bl	x509_get_dates
.LVL1065:
	.loc 1 1219 7 view .LVU3056
	mov	r5, r0
	cmp	r0, #0
	bne	.L689
	.loc 1 1229 5 is_stmt 1 view .LVU3057
	.loc 1 1229 24 is_stmt 0 view .LVU3058
	ldr	r3, [sp, #48]
	str	r3, [r4, #76]
	.loc 1 1231 5 is_stmt 1 view .LVU3059
	.loc 1 1231 17 is_stmt 0 view .LVU3060
	movs	r3, #48
	add	r2, sp, #52
	mov	r1, r7
	add	r0, sp, r3
.LVL1066:
	.loc 1 1231 17 view .LVU3061
	bl	mbedtls_asn1_get_tag
.LVL1067:
	.loc 1 1231 7 view .LVU3062
	mov	r5, r0
	cmp	r0, #0
	bne	.L690
	.loc 1 1238 5 is_stmt 1 view .LVU3063
	.loc 1 1238 9 is_stmt 0 view .LVU3064
	ldr	r3, [sp, #52]
	.loc 1 1238 7 view .LVU3065
	cbz	r3, .L667
	.loc 1 1238 24 discriminator 1 view .LVU3066
	add	r2, r4, #112
	ldr	r1, [sp, #48]
	add	r1, r1, r3
	add	r0, sp, #48
.LVL1068:
	.loc 1 1238 24 discriminator 1 view .LVU3067
	bl	mbedtls_x509_get_name
.LVL1069:
	.loc 1 1238 13 discriminator 1 view .LVU3068
	mov	r5, r0
	cmp	r0, #0
	bne	.L691
.L667:
	.loc 1 1244 5 is_stmt 1 view .LVU3069
	.loc 1 1244 30 is_stmt 0 view .LVU3070
	ldr	r2, [sp, #48]
	.loc 1 1244 48 view .LVU3071
	ldr	r3, [r4, #76]
	.loc 1 1244 30 view .LVU3072
	subs	r3, r2, r3
	.loc 1 1244 26 view .LVU3073
	str	r3, [r4, #72]
	.loc 1 1249 5 is_stmt 1 view .LVU3074
	.loc 1 1249 19 is_stmt 0 view .LVU3075
	str	r2, [r4, #200]
	.loc 1 1250 5 is_stmt 1 view .LVU3076
	.loc 1 1250 17 is_stmt 0 view .LVU3077
	add	r2, r4, #204
	mov	r1, r7
	add	r0, sp, #48
.LVL1070:
	.loc 1 1250 17 view .LVU3078
	bl	mbedtls_pk_parse_subpubkey
.LVL1071:
	.loc 1 1250 7 view .LVU3079
	mov	r5, r0
	cmp	r0, #0
	bne	.L692
	.loc 1 1255 5 is_stmt 1 view .LVU3080
	.loc 1 1255 38 is_stmt 0 view .LVU3081
	ldr	r2, [r4, #200]
	.loc 1 1255 25 view .LVU3082
	ldr	r3, [sp, #48]
	subs	r3, r3, r2
	.loc 1 1255 21 view .LVU3083
	str	r3, [r4, #196]
	.loc 1 1265 5 is_stmt 1 view .LVU3084
	.loc 1 1265 12 is_stmt 0 view .LVU3085
	ldr	r3, [r4, #28]
	.loc 1 1265 27 view .LVU3086
	subs	r3, r3, #2
	.loc 1 1265 7 view .LVU3087
	cmp	r3, #1
	bls	.L693
.L669:
	.loc 1 1275 5 is_stmt 1 view .LVU3088
	.loc 1 1275 12 is_stmt 0 view .LVU3089
	ldr	r3, [r4, #28]
	.loc 1 1275 27 view .LVU3090
	subs	r3, r3, #2
	.loc 1 1275 7 view .LVU3091
	cmp	r3, #1
	bls	.L694
.L670:
	.loc 1 1285 5 is_stmt 1 view .LVU3092
	.loc 1 1285 12 is_stmt 0 view .LVU3093
	ldr	r3, [r4, #28]
	.loc 1 1285 7 view .LVU3094
	cmp	r3, #3
	beq	.L695
.L671:
	.loc 1 1295 5 is_stmt 1 view .LVU3095
	.loc 1 1295 11 is_stmt 0 view .LVU3096
	ldr	r3, [sp, #48]
	.loc 1 1295 7 view .LVU3097
	cmp	r3, r7
	bne	.L696
	.loc 1 1302 5 is_stmt 1 view .LVU3098
.LVL1072:
	.loc 1 1311 5 view .LVU3099
	.loc 1 1311 17 is_stmt 0 view .LVU3100
	add	r3, sp, #24
	add	r2, sp, #12
	mov	r1, r6
	add	r0, sp, #48
.LVL1073:
	.loc 1 1311 17 view .LVU3101
	bl	mbedtls_x509_get_alg
.LVL1074:
	.loc 1 1311 7 view .LVU3102
	mov	r5, r0
	cmp	r0, #0
	bne	.L697
	.loc 1 1317 5 is_stmt 1 view .LVU3103
	.loc 1 1317 21 is_stmt 0 view .LVU3104
	ldr	r2, [r4, #48]
	.loc 1 1317 37 view .LVU3105
	ldr	r3, [sp, #16]
	.loc 1 1317 7 view .LVU3106
	cmp	r2, r3
	bne	.L674
	.loc 1 1318 9 discriminator 1 view .LVU3107
	ldr	r1, [sp, #20]
	ldr	r0, [r4, #52]
.LVL1075:
	.loc 1 1318 9 discriminator 1 view .LVU3108
	bl	memcmp
.LVL1076:
	.loc 1 1317 42 discriminator 1 view .LVU3109
	cmp	r0, #0
	bne	.L674
	.loc 1 1318 69 view .LVU3110
	ldr	r2, [sp, #36]
	ldr	r3, [sp, #24]
	cmp	r2, r3
	bne	.L674
	.loc 1 1320 20 view .LVU3111
	ldr	r2, [sp, #40]
	.loc 1 1320 39 view .LVU3112
	ldr	r3, [sp, #28]
	.loc 1 1319 44 view .LVU3113
	cmp	r2, r3
	bne	.L674
	.loc 1 1320 44 view .LVU3114
	cbz	r2, .L675
	.loc 1 1322 11 view .LVU3115
	ldr	r1, [sp, #32]
	ldr	r0, [sp, #44]
	bl	memcmp
.LVL1077:
	.loc 1 1321 32 view .LVU3116
	cmp	r0, #0
	bne	.L674
.L675:
	.loc 1 1328 5 is_stmt 1 view .LVU3117
	.loc 1 1328 17 is_stmt 0 view .LVU3118
	add	r2, r4, #316
	mov	r1, r6
	add	r0, sp, #48
	bl	mbedtls_x509_get_sig
.LVL1078:
	.loc 1 1328 7 view .LVU3119
	mov	r5, r0
	cmp	r0, #0
	bne	.L698
	.loc 1 1334 5 is_stmt 1 view .LVU3120
	.loc 1 1334 11 is_stmt 0 view .LVU3121
	ldr	r3, [sp, #48]
	.loc 1 1334 7 view .LVU3122
	cmp	r3, r6
	beq	.L653
	.loc 1 1336 9 is_stmt 1 view .LVU3123
	mov	r0, r4
.LVL1079:
	.loc 1 1336 9 is_stmt 0 view .LVU3124
	bl	mbedtls_x509_crt_free
.LVL1080:
	.loc 1 1337 9 is_stmt 1 view .LVU3125
	.loc 2 159 5 view .LVU3126
	.loc 2 160 5 view .LVU3127
	.loc 2 162 5 view .LVU3128
	.loc 1 1337 17 is_stmt 0 view .LVU3129
	ldr	r5, .L699+4
.LVL1081:
	.loc 1 1337 17 view .LVU3130
	b	.L653
.LVL1082:
.L685:
	.loc 1 1179 9 is_stmt 1 view .LVU3131
	mov	r0, r4
.LVL1083:
	.loc 1 1179 9 is_stmt 0 view .LVU3132
	bl	mbedtls_x509_crt_free
.LVL1084:
	.loc 1 1180 9 is_stmt 1 view .LVU3133
	.loc 1 1180 15 is_stmt 0 view .LVU3134
	ldr	r5, .L699+8
.LVL1085:
	.loc 1 1180 15 view .LVU3135
	b	.L653
.LVL1086:
.L686:
	.loc 1 1189 9 is_stmt 1 view .LVU3136
	mov	r0, r4
.LVL1087:
	.loc 1 1189 9 is_stmt 0 view .LVU3137
	bl	mbedtls_x509_crt_free
.LVL1088:
	.loc 1 1190 9 is_stmt 1 view .LVU3138
	.loc 1 1190 15 is_stmt 0 view .LVU3139
	b	.L653
.LVL1089:
.L687:
	.loc 1 1201 9 is_stmt 1 view .LVU3140
	mov	r0, r4
.LVL1090:
	.loc 1 1201 9 is_stmt 0 view .LVU3141
	bl	mbedtls_x509_crt_free
.LVL1091:
	.loc 1 1202 9 is_stmt 1 view .LVU3142
.LBB210:
.LBI210:
	.loc 2 152 19 view .LVU3143
.LBB211:
	.loc 2 159 5 view .LVU3144
	.loc 2 160 5 view .LVU3145
	.loc 2 162 5 view .LVU3146
	.loc 2 162 18 is_stmt 0 view .LVU3147
	sub	r5, r5, #8576
.LVL1092:
	.loc 2 162 18 view .LVU3148
.LBE211:
.LBE210:
	.loc 1 1202 17 view .LVU3149
	b	.L653
.LVL1093:
.L688:
	.loc 1 1207 9 is_stmt 1 view .LVU3150
	mov	r0, r4
.LVL1094:
	.loc 1 1207 9 is_stmt 0 view .LVU3151
	bl	mbedtls_x509_crt_free
.LVL1095:
	.loc 1 1208 9 is_stmt 1 view .LVU3152
	.loc 1 1208 15 is_stmt 0 view .LVU3153
	b	.L653
.LVL1096:
.L689:
	.loc 1 1222 9 is_stmt 1 view .LVU3154
	mov	r0, r4
.LVL1097:
	.loc 1 1222 9 is_stmt 0 view .LVU3155
	bl	mbedtls_x509_crt_free
.LVL1098:
	.loc 1 1223 9 is_stmt 1 view .LVU3156
	.loc 1 1223 15 is_stmt 0 view .LVU3157
	b	.L653
.LVL1099:
.L690:
	.loc 1 1234 9 is_stmt 1 view .LVU3158
	mov	r0, r4
.LVL1100:
	.loc 1 1234 9 is_stmt 0 view .LVU3159
	bl	mbedtls_x509_crt_free
.LVL1101:
	.loc 1 1235 9 is_stmt 1 view .LVU3160
.LBB212:
.LBI212:
	.loc 2 152 19 view .LVU3161
.LBB213:
	.loc 2 159 5 view .LVU3162
	.loc 2 160 5 view .LVU3163
	.loc 2 162 5 view .LVU3164
	.loc 2 162 18 is_stmt 0 view .LVU3165
	sub	r5, r5, #8576
.LVL1102:
	.loc 2 162 18 view .LVU3166
.LBE213:
.LBE212:
	.loc 1 1235 17 view .LVU3167
	b	.L653
.LVL1103:
.L691:
	.loc 1 1240 9 is_stmt 1 view .LVU3168
	mov	r0, r4
.LVL1104:
	.loc 1 1240 9 is_stmt 0 view .LVU3169
	bl	mbedtls_x509_crt_free
.LVL1105:
	.loc 1 1241 9 is_stmt 1 view .LVU3170
	.loc 1 1241 15 is_stmt 0 view .LVU3171
	b	.L653
.LVL1106:
.L692:
	.loc 1 1252 9 is_stmt 1 view .LVU3172
	mov	r0, r4
.LVL1107:
	.loc 1 1252 9 is_stmt 0 view .LVU3173
	bl	mbedtls_x509_crt_free
.LVL1108:
	.loc 1 1253 9 is_stmt 1 view .LVU3174
	.loc 1 1253 15 is_stmt 0 view .LVU3175
	b	.L653
.LVL1109:
.L693:
	.loc 1 1267 9 is_stmt 1 view .LVU3176
	.loc 1 1267 15 is_stmt 0 view .LVU3177
	movs	r3, #1
	add	r2, r4, #212
	mov	r1, r7
	add	r0, sp, #48
.LVL1110:
	.loc 1 1267 15 view .LVU3178
	bl	x509_get_uid
.LVL1111:
	.loc 1 1268 9 is_stmt 1 view .LVU3179
	.loc 1 1268 11 is_stmt 0 view .LVU3180
	mov	r5, r0
	cmp	r0, #0
	beq	.L669
	.loc 1 1270 13 is_stmt 1 view .LVU3181
	mov	r0, r4
.LVL1112:
	.loc 1 1270 13 is_stmt 0 view .LVU3182
	bl	mbedtls_x509_crt_free
.LVL1113:
	.loc 1 1271 13 is_stmt 1 view .LVU3183
	.loc 1 1271 19 is_stmt 0 view .LVU3184
	b	.L653
.LVL1114:
.L694:
	.loc 1 1277 9 is_stmt 1 view .LVU3185
	.loc 1 1277 15 is_stmt 0 view .LVU3186
	movs	r3, #2
	add	r2, r4, #224
	mov	r1, r7
	add	r0, sp, #48
.LVL1115:
	.loc 1 1277 15 view .LVU3187
	bl	x509_get_uid
.LVL1116:
	.loc 1 1278 9 is_stmt 1 view .LVU3188
	.loc 1 1278 11 is_stmt 0 view .LVU3189
	mov	r5, r0
	cmp	r0, #0
	beq	.L670
	.loc 1 1280 13 is_stmt 1 view .LVU3190
	mov	r0, r4
.LVL1117:
	.loc 1 1280 13 is_stmt 0 view .LVU3191
	bl	mbedtls_x509_crt_free
.LVL1118:
	.loc 1 1281 13 is_stmt 1 view .LVU3192
	.loc 1 1281 19 is_stmt 0 view .LVU3193
	b	.L653
.LVL1119:
.L695:
	.loc 1 1287 9 is_stmt 1 view .LVU3194
	.loc 1 1287 15 is_stmt 0 view .LVU3195
	ldr	r3, [sp, #84]
	str	r3, [sp]
	ldr	r3, [sp, #80]
	mov	r2, r4
	mov	r1, r7
	add	r0, sp, #48
.LVL1120:
	.loc 1 1287 15 view .LVU3196
	bl	x509_get_crt_ext
.LVL1121:
	.loc 1 1288 9 is_stmt 1 view .LVU3197
	.loc 1 1288 11 is_stmt 0 view .LVU3198
	mov	r5, r0
	cmp	r0, #0
	beq	.L671
	.loc 1 1290 13 is_stmt 1 view .LVU3199
	mov	r0, r4
.LVL1122:
	.loc 1 1290 13 is_stmt 0 view .LVU3200
	bl	mbedtls_x509_crt_free
.LVL1123:
	.loc 1 1291 13 is_stmt 1 view .LVU3201
	.loc 1 1291 19 is_stmt 0 view .LVU3202
	b	.L653
.LVL1124:
.L696:
	.loc 1 1297 9 is_stmt 1 view .LVU3203
	mov	r0, r4
.LVL1125:
	.loc 1 1297 9 is_stmt 0 view .LVU3204
	bl	mbedtls_x509_crt_free
.LVL1126:
	.loc 1 1298 9 is_stmt 1 view .LVU3205
	.loc 2 159 5 view .LVU3206
	.loc 2 160 5 view .LVU3207
	.loc 2 162 5 view .LVU3208
	.loc 1 1298 17 is_stmt 0 view .LVU3209
	ldr	r5, .L699+4
.LVL1127:
	.loc 1 1298 17 view .LVU3210
	b	.L653
.LVL1128:
.L697:
	.loc 1 1313 9 is_stmt 1 view .LVU3211
	mov	r0, r4
.LVL1129:
	.loc 1 1313 9 is_stmt 0 view .LVU3212
	bl	mbedtls_x509_crt_free
.LVL1130:
	.loc 1 1314 9 is_stmt 1 view .LVU3213
	.loc 1 1314 15 is_stmt 0 view .LVU3214
	b	.L653
.L674:
	.loc 1 1324 9 is_stmt 1 view .LVU3215
	mov	r0, r4
	bl	mbedtls_x509_crt_free
.LVL1131:
	.loc 1 1325 9 view .LVU3216
	.loc 1 1325 15 is_stmt 0 view .LVU3217
	ldr	r5, .L699+12
.LVL1132:
	.loc 1 1325 15 view .LVU3218
	b	.L653
.LVL1133:
.L698:
	.loc 1 1330 9 is_stmt 1 view .LVU3219
	mov	r0, r4
.LVL1134:
	.loc 1 1330 9 is_stmt 0 view .LVU3220
	bl	mbedtls_x509_crt_free
.LVL1135:
	.loc 1 1331 9 is_stmt 1 view .LVU3221
	.loc 1 1331 15 is_stmt 0 view .LVU3222
	b	.L653
.LVL1136:
.L677:
	.loc 1 1105 15 view .LVU3223
	ldr	r5, .L699+16
	b	.L653
.LVL1137:
.L678:
	.loc 1 1105 15 view .LVU3224
	ldr	r5, .L699+16
.LVL1138:
	.loc 1 1105 15 view .LVU3225
	b	.L653
.LVL1139:
.L679:
	.loc 1 1132 19 view .LVU3226
	ldr	r5, .L699+20
.LVL1140:
	.loc 1 1132 19 view .LVU3227
	b	.L653
.L700:
	.align	2
.L699:
	.word	-8576
	.word	-8678
	.word	-9600
	.word	-9856
	.word	-10240
	.word	-10368
	.cfi_endproc
.LFE46:
	.size	x509_crt_parse_der_core, .-x509_crt_parse_der_core
	.section	.text.mbedtls_x509_crt_parse_der_internal,"ax",%progbits
	.align	1
	.syntax unified
	.thumb
	.thumb_func
	.fpu fpv4-sp-d16
	.type	mbedtls_x509_crt_parse_der_internal, %function
mbedtls_x509_crt_parse_der_internal:
.LVL1141:
.LFB47:
	.loc 1 1354 1 is_stmt 1 view -0
	.cfi_startproc
	@ args = 8, pretend = 0, frame = 0
	@ frame_needed = 0, uses_anonymous_args = 0
	.loc 1 1354 1 is_stmt 0 view .LVU3229
	push	{r4, r5, r6, r7, r8, r9, r10, lr}
	.cfi_def_cfa_offset 32
	.cfi_offset 4, -32
	.cfi_offset 5, -28
	.cfi_offset 6, -24
	.cfi_offset 7, -20
	.cfi_offset 8, -16
	.cfi_offset 9, -12
	.cfi_offset 10, -8
	.cfi_offset 14, -4
	sub	sp, sp, #8
	.cfi_def_cfa_offset 40
	.loc 1 1355 5 is_stmt 1 view .LVU3230
.LVL1142:
	.loc 1 1356 5 view .LVU3231
	.loc 1 1361 5 view .LVU3232
	.loc 1 1361 7 is_stmt 0 view .LVU3233
	cmp	r0, #0
	beq	.L708
	mov	r7, r1
	mov	r8, r2
	mov	r9, r3
	mov	r10, r0
	.loc 1 1361 20 discriminator 1 view .LVU3234
	cmp	r1, #0
	beq	.L709
	.loc 1 1356 23 view .LVU3235
	mov	r4, r0
	.loc 1 1356 37 view .LVU3236
	movs	r6, #0
	b	.L704
.LVL1143:
.L710:
	.loc 1 1366 14 view .LVU3237
	mov	r6, r4
.LVL1144:
	.loc 1 1367 13 view .LVU3238
	mov	r4, r0
.LVL1145:
.L704:
	.loc 1 1364 10 is_stmt 1 view .LVU3239
	.loc 1 1364 15 is_stmt 0 view .LVU3240
	ldr	r5, [r4, #28]
	.loc 1 1364 10 view .LVU3241
	cbz	r5, .L703
	.loc 1 1364 36 discriminator 1 view .LVU3242
	ldr	r0, [r4, #336]
	.loc 1 1364 30 discriminator 1 view .LVU3243
	cmp	r0, #0
	bne	.L710
.L703:
	.loc 1 1373 5 is_stmt 1 view .LVU3244
	.loc 1 1373 7 is_stmt 0 view .LVU3245
	cbz	r5, .L705
	.loc 1 1373 33 discriminator 1 view .LVU3246
	ldr	r3, [r4, #336]
.LVL1146:
	.loc 1 1373 27 discriminator 1 view .LVU3247
	cbz	r3, .L713
.LVL1147:
.L705:
	.loc 1 1385 5 is_stmt 1 view .LVU3248
	.loc 1 1385 11 is_stmt 0 view .LVU3249
	ldr	r3, [sp, #44]
	str	r3, [sp, #4]
	ldr	r3, [sp, #40]
	str	r3, [sp]
	mov	r3, r9
	mov	r2, r8
	mov	r1, r7
	mov	r0, r4
	bl	x509_crt_parse_der_core
.LVL1148:
	.loc 1 1386 5 is_stmt 1 view .LVU3250
	.loc 1 1386 7 is_stmt 0 view .LVU3251
	mov	r5, r0
	cbnz	r0, .L714
.LVL1149:
.L701:
	.loc 1 1398 1 view .LVU3252
	mov	r0, r5
	add	sp, sp, #8
	.cfi_remember_state
	.cfi_def_cfa_offset 32
	@ sp needed
	pop	{r4, r5, r6, r7, r8, r9, r10, pc}
.LVL1150:
.L713:
	.cfi_restore_state
	.loc 1 1375 9 is_stmt 1 view .LVU3253
	.loc 1 1375 21 is_stmt 0 view .LVU3254
	mov	r1, #340
.LVL1151:
	.loc 1 1375 21 view .LVU3255
	movs	r0, #1
	bl	mbedtls_calloc
.LVL1152:
	.loc 1 1375 19 view .LVU3256
	str	r0, [r4, #336]
	.loc 1 1377 9 is_stmt 1 view .LVU3257
	.loc 1 1377 11 is_stmt 0 view .LVU3258
	cbz	r0, .L711
	.loc 1 1380 9 is_stmt 1 view .LVU3259
.LVL1153:
	.loc 1 1381 9 view .LVU3260
	bl	mbedtls_x509_crt_init
.LVL1154:
	.loc 1 1382 9 view .LVU3261
	.loc 1 1380 14 is_stmt 0 view .LVU3262
	mov	r6, r4
	.loc 1 1382 13 view .LVU3263
	ldr	r4, [r4, #336]
.LVL1155:
	.loc 1 1382 13 view .LVU3264
	b	.L705
.LVL1156:
.L714:
	.loc 1 1388 9 is_stmt 1 view .LVU3265
	.loc 1 1388 11 is_stmt 0 view .LVU3266
	cbz	r6, .L706
	.loc 1 1389 13 is_stmt 1 view .LVU3267
	.loc 1 1389 24 is_stmt 0 view .LVU3268
	movs	r3, #0
	str	r3, [r6, #336]
.L706:
	.loc 1 1391 9 is_stmt 1 view .LVU3269
	.loc 1 1391 11 is_stmt 0 view .LVU3270
	cmp	r4, r10
	beq	.L701
	.loc 1 1392 13 is_stmt 1 view .LVU3271
	mov	r0, r4
.LVL1157:
	.loc 1 1392 13 is_stmt 0 view .LVU3272
	bl	mbedtls_free
.LVL1158:
	.loc 1 1394 9 is_stmt 1 view .LVU3273
	.loc 1 1394 15 is_stmt 0 view .LVU3274
	b	.L701
.LVL1159:
.L708:
	.loc 1 1362 15 view .LVU3275
	ldr	r5, .L715
	b	.L701
.L709:
	.loc 1 1362 15 view .LVU3276
	ldr	r5, .L715
	b	.L701
.LVL1160:
.L711:
	.loc 1 1378 19 view .LVU3277
	ldr	r5, .L715+4
	b	.L701
.L716:
	.align	2
.L715:
	.word	-10240
	.word	-10368
	.cfi_endproc
.LFE47:
	.size	mbedtls_x509_crt_parse_der_internal, .-mbedtls_x509_crt_parse_der_internal
	.section	.text.mbedtls_x509_crt_parse_der_nocopy,"ax",%progbits
	.align	1
	.global	mbedtls_x509_crt_parse_der_nocopy
	.syntax unified
	.thumb
	.thumb_func
	.fpu fpv4-sp-d16
	.type	mbedtls_x509_crt_parse_der_nocopy, %function
mbedtls_x509_crt_parse_der_nocopy:
.LVL1161:
.LFB48:
	.loc 1 1403 1 is_stmt 1 view -0
	.cfi_startproc
	@ args = 0, pretend = 0, frame = 0
	@ frame_needed = 0, uses_anonymous_args = 0
	.loc 1 1403 1 is_stmt 0 view .LVU3279
	push	{lr}
	.cfi_def_cfa_offset 4
	.cfi_offset 14, -4
	sub	sp, sp, #12
	.cfi_def_cfa_offset 16
	.loc 1 1404 5 is_stmt 1 view .LVU3280
	.loc 1 1404 13 is_stmt 0 view .LVU3281
	movs	r3, #0
	str	r3, [sp, #4]
	str	r3, [sp]
	bl	mbedtls_x509_crt_parse_der_internal
.LVL1162:
	.loc 1 1405 1 view .LVU3282
	add	sp, sp, #12
	.cfi_def_cfa_offset 4
	@ sp needed
	ldr	pc, [sp], #4
	.cfi_endproc
.LFE48:
	.size	mbedtls_x509_crt_parse_der_nocopy, .-mbedtls_x509_crt_parse_der_nocopy
	.section	.text.mbedtls_x509_crt_parse_der_with_ext_cb,"ax",%progbits
	.align	1
	.global	mbedtls_x509_crt_parse_der_with_ext_cb
	.syntax unified
	.thumb
	.thumb_func
	.fpu fpv4-sp-d16
	.type	mbedtls_x509_crt_parse_der_with_ext_cb, %function
mbedtls_x509_crt_parse_der_with_ext_cb:
.LVL1163:
.LFB49:
	.loc 1 1413 1 is_stmt 1 view -0
	.cfi_startproc
	@ args = 8, pretend = 0, frame = 0
	@ frame_needed = 0, uses_anonymous_args = 0
	.loc 1 1413 1 is_stmt 0 view .LVU3284
	push	{r4, lr}
	.cfi_def_cfa_offset 8
	.cfi_offset 4, -8
	.cfi_offset 14, -4
	sub	sp, sp, #8
	.cfi_def_cfa_offset 16
	.loc 1 1414 5 is_stmt 1 view .LVU3285
	.loc 1 1414 13 is_stmt 0 view .LVU3286
	ldr	r4, [sp, #20]
	str	r4, [sp, #4]
	ldr	r4, [sp, #16]
	str	r4, [sp]
	bl	mbedtls_x509_crt_parse_der_internal
.LVL1164:
	.loc 1 1415 1 view .LVU3287
	add	sp, sp, #8
	.cfi_def_cfa_offset 8
	@ sp needed
	pop	{r4, pc}
	.loc 1 1415 1 view .LVU3288
	.cfi_endproc
.LFE49:
	.size	mbedtls_x509_crt_parse_der_with_ext_cb, .-mbedtls_x509_crt_parse_der_with_ext_cb
	.section	.text.mbedtls_x509_crt_parse_der,"ax",%progbits
	.align	1
	.global	mbedtls_x509_crt_parse_der
	.syntax unified
	.thumb
	.thumb_func
	.fpu fpv4-sp-d16
	.type	mbedtls_x509_crt_parse_der, %function
mbedtls_x509_crt_parse_der:
.LVL1165:
.LFB50:
	.loc 1 1420 1 is_stmt 1 view -0
	.cfi_startproc
	@ args = 0, pretend = 0, frame = 0
	@ frame_needed = 0, uses_anonymous_args = 0
	.loc 1 1420 1 is_stmt 0 view .LVU3290
	push	{lr}
	.cfi_def_cfa_offset 4
	.cfi_offset 14, -4
	sub	sp, sp, #12
	.cfi_def_cfa_offset 16
	.loc 1 1421 5 is_stmt 1 view .LVU3291
	.loc 1 1421 13 is_stmt 0 view .LVU3292
	movs	r3, #0
	str	r3, [sp, #4]
	str	r3, [sp]
	movs	r3, #1
	bl	mbedtls_x509_crt_parse_der_internal
.LVL1166:
	.loc 1 1422 1 view .LVU3293
	add	sp, sp, #12
	.cfi_def_cfa_offset 4
	@ sp needed
	ldr	pc, [sp], #4
	.cfi_endproc
.LFE50:
	.size	mbedtls_x509_crt_parse_der, .-mbedtls_x509_crt_parse_der
	.section	.text.mbedtls_x509_crt_parse,"ax",%progbits
	.align	1
	.global	mbedtls_x509_crt_parse
	.syntax unified
	.thumb
	.thumb_func
	.fpu fpv4-sp-d16
	.type	mbedtls_x509_crt_parse, %function
mbedtls_x509_crt_parse:
.LVL1167:
.LFB51:
	.loc 1 1431 1 is_stmt 1 view -0
	.cfi_startproc
	@ args = 0, pretend = 0, frame = 0
	@ frame_needed = 0, uses_anonymous_args = 0
	.loc 1 1440 5 view .LVU3295
	.loc 1 1440 7 is_stmt 0 view .LVU3296
	cbz	r0, .L725
	.loc 1 1431 1 discriminator 1 view .LVU3297
	push	{r3, lr}
	.cfi_def_cfa_offset 8
	.cfi_offset 3, -8
	.cfi_offset 14, -4
	.loc 1 1440 22 discriminator 1 view .LVU3298
	cbz	r1, .L726
	.loc 1 1457 5 is_stmt 1 view .LVU3299
	.loc 1 1457 12 is_stmt 0 view .LVU3300
	bl	mbedtls_x509_crt_parse_der
.LVL1168:
.L723:
	.loc 1 1539 1 view .LVU3301
	pop	{r3, pc}
.LVL1169:
.L725:
	.cfi_def_cfa_offset 0
	.cfi_restore 3
	.cfi_restore 14
	.loc 1 1441 15 view .LVU3302
	ldr	r0, .L731
.LVL1170:
	.loc 1 1539 1 view .LVU3303
	bx	lr
.LVL1171:
.L726:
	.cfi_def_cfa_offset 8
	.cfi_offset 3, -8
	.cfi_offset 14, -4
	.loc 1 1441 15 view .LVU3304
	ldr	r0, .L731
.LVL1172:
	.loc 1 1441 15 view .LVU3305
	b	.L723
.L732:
	.align	2
.L731:
	.word	-10240
	.cfi_endproc
.LFE51:
	.size	mbedtls_x509_crt_parse, .-mbedtls_x509_crt_parse
	.section	.rodata.str1.4,"aMS",%progbits,1
	.align	2
.LC53:
	.ascii	"The certificate validity has expired\000"
	.align	2
.LC54:
	.ascii	"The certificate has been revoked (is on a CRL)\000"
	.align	2
.LC55:
	.ascii	"The certificate Common Name (CN) does not match wit"
	.ascii	"h the expected CN\000"
	.align	2
.LC56:
	.ascii	"The certificate is not correctly signed by the trus"
	.ascii	"ted CA\000"
	.align	2
.LC57:
	.ascii	"The CRL is not correctly signed by the trusted CA\000"
	.align	2
.LC58:
	.ascii	"The CRL is expired\000"
	.align	2
.LC59:
	.ascii	"Certificate was missing\000"
	.align	2
.LC60:
	.ascii	"Certificate verification was skipped\000"
	.align	2
.LC61:
	.ascii	"Other reason (can be used by verify callback)\000"
	.align	2
.LC62:
	.ascii	"The certificate validity starts in the future\000"
	.align	2
.LC63:
	.ascii	"The CRL is from the future\000"
	.align	2
.LC64:
	.ascii	"Usage does not match the keyUsage extension\000"
	.align	2
.LC65:
	.ascii	"Usage does not match the extendedKeyUsage extension"
	.ascii	"\000"
	.align	2
.LC66:
	.ascii	"Usage does not match the nsCertType extension\000"
	.align	2
.LC67:
	.ascii	"The certificate is signed with an unacceptable hash"
	.ascii	".\000"
	.align	2
.LC68:
	.ascii	"The certificate is signed with an unacceptable PK a"
	.ascii	"lg (eg RSA vs ECDSA).\000"
	.align	2
.LC69:
	.ascii	"The certificate is signed with an unacceptable key "
	.ascii	"(eg bad curve, RSA too short).\000"
	.align	2
.LC70:
	.ascii	"The CRL is signed with an unacceptable hash.\000"
	.align	2
.LC71:
	.ascii	"The CRL is signed with an unacceptable PK alg (eg R"
	.ascii	"SA vs ECDSA).\000"
	.align	2
.LC72:
	.ascii	"The CRL is signed with an unacceptable key (eg bad "
	.ascii	"curve, RSA too short).\000"
	.global	mbedtls_x509_crt_profile_none
	.global	mbedtls_x509_crt_profile_suiteb
	.global	mbedtls_x509_crt_profile_next
	.global	mbedtls_x509_crt_profile_default
	.section	.rodata
	.align	2
	.set	.LANCHOR0,. + 0
.LC0:
	.ascii	"U\035 \000\000"
	.space	3
.LC52:
	.ascii	"U\035%\000\000"
	.section	.rodata.mbedtls_x509_crt_profile_default,"a"
	.align	2
	.set	.LANCHOR2,. + 0
	.type	mbedtls_x509_crt_profile_default, %object
	.size	mbedtls_x509_crt_profile_default, 16
mbedtls_x509_crt_profile_default:
	.word	56
	.word	268435455
	.word	0
	.word	2048
	.section	.rodata.mbedtls_x509_crt_profile_next,"a"
	.align	2
	.type	mbedtls_x509_crt_profile_next, %object
	.size	mbedtls_x509_crt_profile_next, 16
mbedtls_x509_crt_profile_next:
	.word	56
	.word	268435455
	.word	0
	.word	2048
	.section	.rodata.mbedtls_x509_crt_profile_none,"a"
	.align	2
	.type	mbedtls_x509_crt_profile_none, %object
	.size	mbedtls_x509_crt_profile_none, 16
mbedtls_x509_crt_profile_none:
	.word	0
	.word	0
	.word	0
	.word	-1
	.section	.rodata.mbedtls_x509_crt_profile_suiteb,"a"
	.align	2
	.type	mbedtls_x509_crt_profile_suiteb, %object
	.size	mbedtls_x509_crt_profile_suiteb, 16
mbedtls_x509_crt_profile_suiteb:
	.word	24
	.word	10
	.word	0
	.word	0
	.section	.rodata.x509_crt_verify_strings,"a"
	.align	2
	.set	.LANCHOR1,. + 0
	.type	x509_crt_verify_strings, %object
	.size	x509_crt_verify_strings, 168
x509_crt_verify_strings:
	.word	1
	.word	.LC53
	.word	2
	.word	.LC54
	.word	4
	.word	.LC55
	.word	8
	.word	.LC56
	.word	16
	.word	.LC57
	.word	32
	.word	.LC58
	.word	64
	.word	.LC59
	.word	128
	.word	.LC60
	.word	256
	.word	.LC61
	.word	512
	.word	.LC62
	.word	1024
	.word	.LC63
	.word	2048
	.word	.LC64
	.word	4096
	.word	.LC65
	.word	8192
	.word	.LC66
	.word	16384
	.word	.LC67
	.word	32768
	.word	.LC68
	.word	65536
	.word	.LC69
	.word	131072
	.word	.LC70
	.word	262144
	.word	.LC71
	.word	524288
	.word	.LC72
	.word	0
	.word	0
	.text
.Letext0:
	.file 4 "/home/sebin/LIOT/gcc-arm-none-eabi-9-2019-q4-major/arm-none-eabi/include/machine/_default_types.h"
	.file 5 "/home/sebin/LIOT/gcc-arm-none-eabi-9-2019-q4-major/lib/gcc/arm-none-eabi/9.2.1/include/stddef.h"
	.file 6 "/home/sebin/LIOT/gcc-arm-none-eabi-9-2019-q4-major/arm-none-eabi/include/sys/_stdint.h"
	.file 7 "/home/sebin/thesis/zephyrproject/modules/crypto/mbedtls/include/mbedtls/asn1.h"
	.file 8 "/home/sebin/thesis/zephyrproject/modules/crypto/mbedtls/include/mbedtls/md.h"
	.file 9 "/home/sebin/thesis/zephyrproject/modules/crypto/mbedtls/include/mbedtls/pk.h"
	.file 10 "/home/sebin/thesis/zephyrproject/modules/crypto/mbedtls/include/mbedtls/x509.h"
	.file 11 "/home/sebin/thesis/zephyrproject/modules/crypto/mbedtls/include/mbedtls/x509_crl.h"
	.file 12 "/home/sebin/thesis/zephyrproject/modules/crypto/mbedtls/include/mbedtls/x509_crt.h"
	.file 13 "/home/sebin/LIOT/gcc-arm-none-eabi-9-2019-q4-major/arm-none-eabi/include/sys/lock.h"
	.file 14 "/home/sebin/LIOT/gcc-arm-none-eabi-9-2019-q4-major/arm-none-eabi/include/sys/_types.h"
	.file 15 "/home/sebin/LIOT/gcc-arm-none-eabi-9-2019-q4-major/arm-none-eabi/include/sys/reent.h"
	.file 16 "/home/sebin/thesis/zephyrproject/modules/crypto/mbedtls/include/mbedtls/platform.h"
	.file 17 "/home/sebin/thesis/zephyrproject/modules/crypto/mbedtls/include/mbedtls/platform_util.h"
	.file 18 "/home/sebin/LIOT/gcc-arm-none-eabi-9-2019-q4-major/arm-none-eabi/include/string.h"
	.file 19 "<built-in>"
	.file 20 "/home/sebin/thesis/zephyrproject/modules/crypto/mbedtls/include/mbedtls/oid.h"