	.cpu cortex-m4
	.eabi_attribute 27, 1
	.eabi_attribute 28, 1
	.eabi_attribute 20, 1
	.eabi_attribute 21, 1
	.eabi_attribute 23, 3
	.eabi_attribute 24, 1
	.eabi_attribute 25, 1
	.eabi_attribute 26, 1
	.eabi_attribute 30, 1
	.eabi_attribute 34, 1
	.eabi_attribute 38, 1
	.eabi_attribute 18, 4
	.file	"x509.c"
	.text
.Ltext0:
	.cfi_sections	.debug_frame
	.section	.text.x509_parse_int,"ax",%progbits
	.align	1
	.arch armv7e-m
	.syntax unified
	.thumb
	.thumb_func
	.fpu fpv4-sp-d16
	.type	x509_parse_int, %function
x509_parse_int:
.LVL0:
.LFB33:
	.file 1 "/home/sebin/thesis/zephyrproject/modules/crypto/mbedtls/library/x509.c"
	.loc 1 482 1 view -0
	.cfi_startproc
	@ args = 0, pretend = 0, frame = 0
	@ frame_needed = 0, uses_anonymous_args = 0
	@ link register save eliminated.
	.loc 1 483 5 view .LVU1
	.loc 1 483 10 is_stmt 0 view .LVU2
	movs	r3, #0
	str	r3, [r2]
	.loc 1 485 5 is_stmt 1 view .LVU3
	.loc 1 485 12 view .LVU4
	.loc 1 485 5 is_stmt 0 view .LVU5
	cbz	r1, .L10
	.loc 1 482 1 view .LVU6
	push	{r4}
	.cfi_def_cfa_offset 4
	.cfi_offset 4, -4
.L4:
	.loc 1 487 9 is_stmt 1 view .LVU7
	.loc 1 487 16 is_stmt 0 view .LVU8
	ldr	r3, [r0]
	.loc 1 487 15 view .LVU9
	ldrb	r3, [r3]	@ zero_extendqisi2
	.loc 1 487 26 view .LVU10
	subs	r3, r3, #48
	uxtb	r3, r3
	.loc 1 487 11 view .LVU11
	cmp	r3, #9
	bhi	.L5
	.loc 1 490 9 is_stmt 1 view .LVU12
	.loc 1 490 14 is_stmt 0 view .LVU13
	ldr	r3, [r2]
	add	r3, r3, r3, lsl #2
	lsls	r3, r3, #1
	str	r3, [r2]
	.loc 1 491 9 is_stmt 1 view .LVU14
	.loc 1 491 21 is_stmt 0 view .LVU15
	ldr	r3, [r0]
	.loc 1 491 24 view .LVU16
	adds	r4, r3, #1
	str	r4, [r0]
	.loc 1 491 19 view .LVU17
	ldrb	r3, [r3]	@ zero_extendqisi2
	.loc 1 491 27 view .LVU18
	sub	r4, r3, #48
	.loc 1 491 14 view .LVU19
	ldr	r3, [r2]
	add	r3, r3, r4
	str	r3, [r2]
	.loc 1 485 19 is_stmt 1 view .LVU20
	subs	r1, r1, #1
.LVL1:
	.loc 1 485 12 view .LVU21
	.loc 1 485 5 is_stmt 0 view .LVU22
	cmp	r1, #0
	bne	.L4
	.loc 1 494 11 view .LVU23
	movs	r0, #0
.LVL2:
.L1:
	.loc 1 495 1 view .LVU24
	ldr	r4, [sp], #4
	.cfi_remember_state
	.cfi_restore 4
	.cfi_def_cfa_offset 0
	bx	lr
.LVL3:
.L5:
	.cfi_restore_state
	.loc 1 488 20 view .LVU25
	ldr	r0, .L11
.LVL4:
	.loc 1 488 20 view .LVU26
	b	.L1
.LVL5:
.L10:
	.cfi_def_cfa_offset 0
	.cfi_restore 4
	.loc 1 494 11 view .LVU27
	movs	r0, #0
.LVL6:
	.loc 1 495 1 view .LVU28
	bx	lr
.L12:
	.align	2
.L11:
	.word	-9216
	.cfi_endproc
.LFE33:
	.size	x509_parse_int, .-x509_parse_int
	.section	.text.x509_date_is_valid,"ax",%progbits
	.align	1
	.syntax unified
	.thumb
	.thumb_func
	.fpu fpv4-sp-d16
	.type	x509_date_is_valid, %function
x509_date_is_valid:
.LVL7:
.LFB34:
	.loc 1 498 1 is_stmt 1 view -0
	.cfi_startproc
	@ args = 0, pretend = 0, frame = 0
	@ frame_needed = 0, uses_anonymous_args = 0
	@ link register save eliminated.
	.loc 1 499 5 view .LVU30
	.loc 1 500 5 view .LVU31
	.loc 1 502 5 view .LVU32
	.loc 1 502 10 view .LVU33
	.loc 1 502 17 is_stmt 0 view .LVU34
	ldr	r2, [r0]
	.loc 1 502 12 view .LVU35
	movw	r3, #9999
	cmp	r2, r3
	bhi	.L20
	.loc 1 502 88 is_stmt 1 discriminator 2 view .LVU36
	.loc 1 503 5 discriminator 2 view .LVU37
	.loc 1 503 10 discriminator 2 view .LVU38
	.loc 1 503 17 is_stmt 0 discriminator 2 view .LVU39
	ldr	r3, [r0, #12]
	.loc 1 503 12 discriminator 2 view .LVU40
	cmp	r3, #23
	bhi	.L21
	.loc 1 503 86 is_stmt 1 discriminator 2 view .LVU41
	.loc 1 504 5 discriminator 2 view .LVU42
	.loc 1 504 10 discriminator 2 view .LVU43
	.loc 1 504 17 is_stmt 0 discriminator 2 view .LVU44
	ldr	r3, [r0, #16]
	.loc 1 504 12 discriminator 2 view .LVU45
	cmp	r3, #59
	bhi	.L22
	.loc 1 504 84 is_stmt 1 discriminator 2 view .LVU46
	.loc 1 505 5 discriminator 2 view .LVU47
	.loc 1 505 10 discriminator 2 view .LVU48
	.loc 1 505 17 is_stmt 0 discriminator 2 view .LVU49
	ldr	r3, [r0, #20]
	.loc 1 505 12 discriminator 2 view .LVU50
	cmp	r3, #59
	bhi	.L23
	.loc 1 505 84 is_stmt 1 discriminator 2 view .LVU51
	.loc 1 507 5 discriminator 2 view .LVU52
	.loc 1 507 14 is_stmt 0 discriminator 2 view .LVU53
	ldr	r3, [r0, #4]
	subs	r3, r3, #1
	cmp	r3, #11
	bhi	.L24
	tbb	[pc, r3]
.L16:
	.byte	(.L15-.L16)/2
	.byte	(.L18-.L16)/2
	.byte	(.L15-.L16)/2
	.byte	(.L25-.L16)/2
	.byte	(.L15-.L16)/2
	.byte	(.L25-.L16)/2
	.byte	(.L15-.L16)/2
	.byte	(.L15-.L16)/2
	.byte	(.L25-.L16)/2
	.byte	(.L15-.L16)/2
	.byte	(.L25-.L16)/2
	.byte	(.L15-.L16)/2
	.p2align 1
.L15:
	.loc 1 507 14 view .LVU54
	movs	r2, #31
.L17:
.LVL8:
	.loc 1 525 5 is_stmt 1 view .LVU55
	.loc 1 525 10 view .LVU56
	.loc 1 525 17 is_stmt 0 view .LVU57
	ldr	r3, [r0, #8]
	.loc 1 525 12 view .LVU58
	cmp	r3, #0
	ble	.L28
	.loc 1 525 33 discriminator 2 view .LVU59
	cmp	r3, r2
	bgt	.L29
	.loc 1 527 11 view .LVU60
	movs	r0, #0
.LVL9:
	.loc 1 527 11 view .LVU61
	bx	lr
.LVL10:
.L18:
	.loc 1 516 13 is_stmt 1 view .LVU62
	.loc 1 516 15 is_stmt 0 view .LVU63
	tst	r2, #3
	bne	.L19
	.loc 1 516 47 discriminator 1 view .LVU64
	ldr	r1, .L30
	smull	r3, r1, r1, r2
	asrs	r3, r2, #31
	rsb	r3, r3, r1, asr #5
	movs	r1, #100
	mls	r3, r1, r3, r2
	.loc 1 516 36 discriminator 1 view .LVU65
	cbnz	r3, .L26
.L19:
	.loc 1 517 28 discriminator 3 view .LVU66
	ldr	r1, .L30
	smull	r3, r1, r1, r2
	asrs	r3, r2, #31
	rsb	r3, r3, r1, asr #7
	mov	r1, #400
	mls	r3, r1, r3, r2
	.loc 1 516 55 discriminator 3 view .LVU67
	cbnz	r3, .L27
	.loc 1 518 27 view .LVU68
	movs	r2, #29
	b	.L17
.L25:
	.loc 1 513 23 view .LVU69
	movs	r2, #30
	b	.L17
.L26:
	.loc 1 518 27 view .LVU70
	movs	r2, #29
	b	.L17
.L27:
	.loc 1 520 27 view .LVU71
	movs	r2, #28
	b	.L17
.L20:
	.loc 1 502 70 view .LVU72
	ldr	r0, .L30+4
.LVL11:
	.loc 1 502 70 view .LVU73
	bx	lr
.LVL12:
.L21:
	.loc 1 503 68 view .LVU74
	ldr	r0, .L30+4
.LVL13:
	.loc 1 503 68 view .LVU75
	bx	lr
.LVL14:
.L22:
	.loc 1 504 66 view .LVU76
	ldr	r0, .L30+4
.LVL15:
	.loc 1 504 66 view .LVU77
	bx	lr
.LVL16:
.L23:
	.loc 1 505 66 view .LVU78
	ldr	r0, .L30+4
.LVL17:
	.loc 1 505 66 view .LVU79
	bx	lr
.LVL18:
.L24:
	.loc 1 507 14 view .LVU80
	ldr	r0, .L30+4
.LVL19:
	.loc 1 507 14 view .LVU81
	bx	lr
.LVL20:
.L28:
	.loc 1 525 73 view .LVU82
	ldr	r0, .L30+4
.LVL21:
	.loc 1 525 73 view .LVU83
	bx	lr
.LVL22:
.L29:
	.loc 1 525 73 view .LVU84
	ldr	r0, .L30+4
.LVL23:
	.loc 1 528 1 view .LVU85
	bx	lr
.L31:
	.align	2
.L30:
	.word	1374389535
	.word	-9216
	.cfi_endproc
.LFE34:
	.size	x509_date_is_valid, .-x509_date_is_valid
	.section	.text.x509_parse_time,"ax",%progbits
	.align	1
	.syntax unified
	.thumb
	.thumb_func
	.fpu fpv4-sp-d16
	.type	x509_parse_time, %function
x509_parse_time:
.LVL24:
.LFB35:
	.loc 1 536 1 is_stmt 1 view -0
	.cfi_startproc
	@ args = 0, pretend = 0, frame = 0
	@ frame_needed = 0, uses_anonymous_args = 0
	.loc 1 536 1 is_stmt 0 view .LVU87
	push	{r4, r5, r6, r7, r8, lr}
	.cfi_def_cfa_offset 24
	.cfi_offset 4, -24
	.cfi_offset 5, -20
	.cfi_offset 6, -16
	.cfi_offset 7, -12
	.cfi_offset 8, -8
	.cfi_offset 14, -4
	mov	r6, r3
	.loc 1 537 5 is_stmt 1 view .LVU88
.LVL25:
	.loc 1 542 5 view .LVU89
	.loc 1 542 24 is_stmt 0 view .LVU90
	add	r3, r2, #8
.LVL26:
	.loc 1 542 8 view .LVU91
	cmp	r3, r1
	bhi	.L37
	mov	r7, r0
	mov	r5, r2
	.loc 1 544 5 is_stmt 1 view .LVU92
	.loc 1 544 9 is_stmt 0 view .LVU93
	subs	r4, r1, r2
	sub	r8, r4, #8
.LVL27:
	.loc 1 549 5 is_stmt 1 view .LVU94
	.loc 1 549 19 is_stmt 0 view .LVU95
	mov	r2, r6
.LVL28:
	.loc 1 549 19 view .LVU96
	mov	r1, r5
	bl	x509_parse_int
.LVL29:
	.loc 1 549 7 view .LVU97
	mov	r3, r0
	cbnz	r0, .L32
	.loc 1 549 87 is_stmt 1 discriminator 2 view .LVU98
	.loc 1 550 5 discriminator 2 view .LVU99
	.loc 1 550 8 is_stmt 0 discriminator 2 view .LVU100
	cmp	r5, #2
	beq	.L41
.L34:
	.loc 1 558 5 is_stmt 1 view .LVU101
	.loc 1 558 19 is_stmt 0 view .LVU102
	adds	r2, r6, #4
	movs	r1, #2
	mov	r0, r7
.LVL30:
	.loc 1 558 19 view .LVU103
	bl	x509_parse_int
.LVL31:
	.loc 1 558 7 view .LVU104
	mov	r3, r0
	cbz	r0, .L42
.LVL32:
.L32:
	.loc 1 592 1 view .LVU105
	mov	r0, r3
	pop	{r4, r5, r6, r7, r8, pc}
.LVL33:
.L41:
	.loc 1 552 9 is_stmt 1 view .LVU106
	.loc 1 552 16 is_stmt 0 view .LVU107
	ldr	r3, [r6]
	.loc 1 552 12 view .LVU108
	cmp	r3, #49
	bgt	.L35
	.loc 1 553 13 is_stmt 1 view .LVU109
	.loc 1 553 22 is_stmt 0 view .LVU110
	adds	r3, r3, #100
	str	r3, [r6]
.L35:
	.loc 1 555 9 is_stmt 1 view .LVU111
	.loc 1 555 18 is_stmt 0 view .LVU112
	ldr	r3, [r6]
	addw	r3, r3, #1900
	str	r3, [r6]
	b	.L34
.L42:
	.loc 1 558 80 is_stmt 1 discriminator 2 view .LVU113
	.loc 1 559 5 discriminator 2 view .LVU114
	.loc 1 559 19 is_stmt 0 discriminator 2 view .LVU115
	add	r2, r6, #8
	movs	r1, #2
	mov	r0, r7
.LVL34:
	.loc 1 559 19 discriminator 2 view .LVU116
	bl	x509_parse_int
.LVL35:
	.loc 1 559 7 discriminator 2 view .LVU117
	mov	r3, r0
	cmp	r0, #0
	bne	.L32
	.loc 1 559 80 is_stmt 1 discriminator 2 view .LVU118
	.loc 1 560 5 discriminator 2 view .LVU119
	.loc 1 560 19 is_stmt 0 discriminator 2 view .LVU120
	add	r2, r6, #12
	movs	r1, #2
	mov	r0, r7
.LVL36:
	.loc 1 560 19 discriminator 2 view .LVU121
	bl	x509_parse_int
.LVL37:
	.loc 1 560 7 discriminator 2 view .LVU122
	mov	r3, r0
	cmp	r0, #0
	bne	.L32
	.loc 1 560 81 is_stmt 1 discriminator 2 view .LVU123
	.loc 1 561 5 discriminator 2 view .LVU124
	.loc 1 561 19 is_stmt 0 discriminator 2 view .LVU125
	add	r2, r6, #16
	movs	r1, #2
	mov	r0, r7
.LVL38:
	.loc 1 561 19 discriminator 2 view .LVU126
	bl	x509_parse_int
.LVL39:
	.loc 1 561 7 discriminator 2 view .LVU127
	mov	r3, r0
	cmp	r0, #0
	bne	.L32
	.loc 1 561 80 is_stmt 1 discriminator 2 view .LVU128
	.loc 1 566 5 discriminator 2 view .LVU129
	.loc 1 566 8 is_stmt 0 discriminator 2 view .LVU130
	cmp	r8, #1
	bls	.L38
	.loc 1 568 9 is_stmt 1 view .LVU131
	.loc 1 568 23 is_stmt 0 view .LVU132
	add	r2, r6, #20
	movs	r1, #2
	mov	r0, r7
.LVL40:
	.loc 1 568 23 view .LVU133
	bl	x509_parse_int
.LVL41:
	.loc 1 568 11 view .LVU134
	mov	r3, r0
	cmp	r0, #0
	bne	.L32
	.loc 1 568 84 is_stmt 1 discriminator 2 view .LVU135
	.loc 1 569 9 discriminator 2 view .LVU136
	.loc 1 569 13 is_stmt 0 discriminator 2 view .LVU137
	sub	r3, r4, #10
.LVL42:
	.loc 1 577 5 is_stmt 1 discriminator 2 view .LVU138
	.loc 1 577 8 is_stmt 0 discriminator 2 view .LVU139
	cmp	r4, #11
	beq	.L43
.L36:
	.loc 1 586 5 is_stmt 1 view .LVU140
	.loc 1 586 8 is_stmt 0 view .LVU141
	cbnz	r3, .L39
	.loc 1 589 5 is_stmt 1 view .LVU142
	.loc 1 589 19 is_stmt 0 view .LVU143
	mov	r0, r6
.LVL43:
	.loc 1 589 19 view .LVU144
	bl	x509_date_is_valid
.LVL44:
	.loc 1 589 19 view .LVU145
	mov	r3, r0
.LVL45:
	.loc 1 589 19 view .LVU146
	b	.L32
.LVL46:
.L43:
	.loc 1 577 30 discriminator 1 view .LVU147
	ldr	r2, [r7]
	.loc 1 577 29 discriminator 1 view .LVU148
	ldrb	r1, [r2]	@ zero_extendqisi2
	.loc 1 577 19 discriminator 1 view .LVU149
	cmp	r1, #90
	bne	.L36
	.loc 1 579 9 is_stmt 1 view .LVU150
	.loc 1 579 13 is_stmt 0 view .LVU151
	adds	r2, r2, #1
	str	r2, [r7]
	.loc 1 580 9 is_stmt 1 view .LVU152
	.loc 1 580 12 is_stmt 0 view .LVU153
	sub	r3, r4, #11
.LVL47:
	.loc 1 580 12 view .LVU154
	b	.L36
.LVL48:
.L37:
	.loc 1 543 16 view .LVU155
	ldr	r3, .L44
	b	.L32
.LVL49:
.L38:
	.loc 1 572 16 view .LVU156
	ldr	r3, .L44
	b	.L32
.LVL50:
.L39:
	.loc 1 587 16 view .LVU157
	ldr	r3, .L44
.LVL51:
	.loc 1 587 16 view .LVU158
	b	.L32
.L45:
	.align	2
.L44:
	.word	-9216
	.cfi_endproc
.LFE35:
	.size	x509_parse_time, .-x509_parse_time
	.section	.text.x509_get_attr_type_value,"ax",%progbits
	.align	1
	.syntax unified
	.thumb
	.thumb_func
	.fpu fpv4-sp-d16
	.type	x509_get_attr_type_value, %function
x509_get_attr_type_value:
.LVL52:
.LFB31:
	.loc 1 349 1 is_stmt 1 view -0
	.cfi_startproc
	@ args = 0, pretend = 0, frame = 8
	@ frame_needed = 0, uses_anonymous_args = 0
	.loc 1 349 1 is_stmt 0 view .LVU160
	push	{r4, r5, r6, lr}
	.cfi_def_cfa_offset 16
	.cfi_offset 4, -16
	.cfi_offset 5, -12
	.cfi_offset 6, -8
	.cfi_offset 14, -4
	sub	sp, sp, #8
	.cfi_def_cfa_offset 24
	mov	r4, r0
	mov	r5, r2
	.loc 1 350 5 is_stmt 1 view .LVU161
.LVL53:
	.loc 1 351 5 view .LVU162
	.loc 1 352 5 view .LVU163
	.loc 1 353 5 view .LVU164
	.loc 1 355 5 view .LVU165
	.loc 1 355 17 is_stmt 0 view .LVU166
	movs	r3, #48
	add	r2, sp, #4
.LVL54:
	.loc 1 355 17 view .LVU167
	bl	mbedtls_asn1_get_tag
.LVL55:
	.loc 1 355 7 view .LVU168
	cmp	r0, #0
	bne	.L57
	.loc 1 359 5 is_stmt 1 view .LVU169
	.loc 1 359 11 is_stmt 0 view .LVU170
	ldr	r2, [r4]
	.loc 1 359 14 view .LVU171
	ldr	r3, [sp, #4]
	.loc 1 359 9 view .LVU172
	adds	r6, r2, r3
.LVL56:
	.loc 1 361 5 is_stmt 1 view .LVU173
	.loc 1 361 7 is_stmt 0 view .LVU174
	cmp	r3, #0
	ble	.L52
	.loc 1 365 5 is_stmt 1 view .LVU175
.LVL57:
	.loc 1 366 5 view .LVU176
	.loc 1 366 16 is_stmt 0 view .LVU177
	ldrb	r3, [r2]	@ zero_extendqisi2
	.loc 1 366 14 view .LVU178
	mov	r2, r5
	str	r3, [r2], #4
	.loc 1 368 5 is_stmt 1 view .LVU179
	.loc 1 368 17 is_stmt 0 view .LVU180
	movs	r3, #6
	mov	r1, r6
	mov	r0, r4
.LVL58:
	.loc 1 368 17 view .LVU181
	bl	mbedtls_asn1_get_tag
.LVL59:
	.loc 1 368 7 view .LVU182
	cbnz	r0, .L58
	.loc 1 371 5 is_stmt 1 view .LVU183
	.loc 1 371 14 is_stmt 0 view .LVU184
	ldr	r2, [r4]
	.loc 1 371 12 view .LVU185
	str	r2, [r5, #8]
	.loc 1 372 5 is_stmt 1 view .LVU186
	.loc 1 372 14 is_stmt 0 view .LVU187
	ldr	r0, [r5, #4]
.LVL60:
	.loc 1 372 8 view .LVU188
	adds	r3, r2, r0
	str	r3, [r4]
	.loc 1 374 5 is_stmt 1 view .LVU189
	.loc 1 374 15 is_stmt 0 view .LVU190
	subs	r1, r6, r3
	.loc 1 374 7 view .LVU191
	cmp	r1, #0
	ble	.L53
	.loc 1 378 5 is_stmt 1 view .LVU192
	.loc 1 378 9 is_stmt 0 view .LVU193
	ldrb	r1, [r2, r0]	@ zero_extendqisi2
	.loc 1 378 7 view .LVU194
	cmp	r1, #30
	beq	.L50
	.loc 1 378 21 discriminator 1 view .LVU195
	cmp	r1, #12
	beq	.L50
	.loc 1 378 36 discriminator 2 view .LVU196
	cmp	r1, #20
	beq	.L50
	.loc 1 379 21 view .LVU197
	cmp	r1, #19
	beq	.L50
	.loc 1 379 36 discriminator 1 view .LVU198
	cmp	r1, #22
	beq	.L50
	.loc 1 380 21 view .LVU199
	cmp	r1, #28
	beq	.L50
	.loc 1 380 36 discriminator 1 view .LVU200
	cmp	r1, #3
	bne	.L54
.L50:
	.loc 1 385 5 is_stmt 1 view .LVU201
.LVL61:
	.loc 1 386 5 view .LVU202
	.loc 1 386 21 is_stmt 0 view .LVU203
	adds	r3, r3, #1
	str	r3, [r4]
	.loc 1 386 16 view .LVU204
	ldrb	r3, [r2, r0]	@ zero_extendqisi2
	.loc 1 386 14 view .LVU205
	str	r3, [r5, #12]
	.loc 1 388 5 is_stmt 1 view .LVU206
	.loc 1 388 17 is_stmt 0 view .LVU207
	add	r2, r5, #16
	mov	r1, r6
	mov	r0, r4
	bl	mbedtls_asn1_get_len
.LVL62:
	.loc 1 388 7 view .LVU208
	cbnz	r0, .L59
	.loc 1 391 5 is_stmt 1 view .LVU209
	.loc 1 391 14 is_stmt 0 view .LVU210
	ldr	r3, [r4]
	.loc 1 391 12 view .LVU211
	str	r3, [r5, #20]
	.loc 1 392 5 is_stmt 1 view .LVU212
	.loc 1 392 14 is_stmt 0 view .LVU213
	ldr	r2, [r5, #16]
	.loc 1 392 8 view .LVU214
	add	r3, r3, r2
	str	r3, [r4]
	.loc 1 394 5 is_stmt 1 view .LVU215
	.loc 1 394 7 is_stmt 0 view .LVU216
	cmp	r3, r6
	bne	.L55
	.loc 1 400 5 is_stmt 1 view .LVU217
	.loc 1 400 15 is_stmt 0 view .LVU218
	movs	r3, #0
	str	r3, [r5, #24]
	.loc 1 402 5 is_stmt 1 view .LVU219
	.loc 1 402 11 is_stmt 0 view .LVU220
	b	.L46
.LVL63:
.L57:
	.loc 1 357 9 is_stmt 1 view .LVU221
.LBB46:
.LBI46:
	.file 2 "/home/sebin/thesis/zephyrproject/modules/crypto/mbedtls/include/mbedtls/error.h"
	.loc 2 152 19 view .LVU222
.LBB47:
	.loc 2 159 5 view .LVU223
	.loc 2 160 5 view .LVU224
	.loc 2 162 5 view .LVU225
	.loc 2 162 18 is_stmt 0 view .LVU226
	sub	r0, r0, #9088
.LVL64:
.L46:
	.loc 2 162 18 view .LVU227
.LBE47:
.LBE46:
	.loc 1 403 1 view .LVU228
	add	sp, sp, #8
	.cfi_remember_state
	.cfi_def_cfa_offset 16
	@ sp needed
	pop	{r4, r5, r6, pc}
.LVL65:
.L58:
	.cfi_restore_state
	.loc 1 369 9 is_stmt 1 view .LVU229
.LBB48:
.LBI48:
	.loc 2 152 19 view .LVU230
.LBB49:
	.loc 2 159 5 view .LVU231
	.loc 2 160 5 view .LVU232
	.loc 2 162 5 view .LVU233
	.loc 2 162 18 is_stmt 0 view .LVU234
	sub	r0, r0, #9088
.LVL66:
	.loc 2 162 18 view .LVU235
.LBE49:
.LBE48:
	.loc 1 369 17 view .LVU236
	b	.L46
.LVL67:
.L59:
	.loc 1 389 9 is_stmt 1 view .LVU237
.LBB50:
.LBI50:
	.loc 2 152 19 view .LVU238
.LBB51:
	.loc 2 159 5 view .LVU239
	.loc 2 160 5 view .LVU240
	.loc 2 162 5 view .LVU241
	.loc 2 162 18 is_stmt 0 view .LVU242
	sub	r0, r0, #9088
.LVL68:
	.loc 2 162 18 view .LVU243
.LBE51:
.LBE50:
	.loc 1 389 17 view .LVU244
	b	.L46
.LVL69:
.L52:
	.loc 1 362 17 view .LVU245
	ldr	r0, .L60
.LVL70:
	.loc 1 362 17 view .LVU246
	b	.L46
.LVL71:
.L53:
	.loc 1 375 17 view .LVU247
	ldr	r0, .L60
	b	.L46
.L54:
	.loc 1 382 17 view .LVU248
	ldr	r0, .L60+4
	b	.L46
.LVL72:
.L55:
	.loc 1 396 17 view .LVU249
	ldr	r0, .L60+8
.LVL73:
	.loc 1 396 17 view .LVU250
	b	.L46
.L61:
	.align	2
.L60:
	.word	-9184
	.word	-9186
	.word	-9190
	.cfi_endproc
.LFE31:
	.size	x509_get_attr_type_value, .-x509_get_attr_type_value
	.section	.text.mbedtls_x509_get_serial,"ax",%progbits
	.align	1
	.global	mbedtls_x509_get_serial
	.syntax unified
	.thumb
	.thumb_func
	.fpu fpv4-sp-d16
	.type	mbedtls_x509_get_serial, %function
mbedtls_x509_get_serial:
.LVL74:
.LFB28:
	.loc 1 80 1 is_stmt 1 view -0
	.cfi_startproc
	@ args = 0, pretend = 0, frame = 0
	@ frame_needed = 0, uses_anonymous_args = 0
	.loc 1 80 1 is_stmt 0 view .LVU252
	push	{r3, r4, r5, lr}
	.cfi_def_cfa_offset 16
	.cfi_offset 3, -16
	.cfi_offset 4, -12
	.cfi_offset 5, -8
	.cfi_offset 14, -4
	mov	r5, r2
	.loc 1 81 5 is_stmt 1 view .LVU253
.LVL75:
	.loc 1 83 5 view .LVU254
	.loc 1 83 17 is_stmt 0 view .LVU255
	ldr	r3, [r0]
	.loc 1 83 15 view .LVU256
	subs	r2, r1, r3
.LVL76:
	.loc 1 83 7 view .LVU257
	cmp	r2, #0
	ble	.L66
	mov	r4, r0
	.loc 1 87 5 is_stmt 1 view .LVU258
	.loc 1 87 9 is_stmt 0 view .LVU259
	ldrb	r2, [r3]	@ zero_extendqisi2
	.loc 1 87 7 view .LVU260
	cmp	r2, #130
	beq	.L64
	.loc 1 87 36 discriminator 1 view .LVU261
	cmp	r2, #2
	bne	.L67
.L64:
	.loc 1 92 5 is_stmt 1 view .LVU262
	.loc 1 92 24 is_stmt 0 view .LVU263
	adds	r2, r3, #1
	str	r2, [r4]
	.loc 1 92 19 view .LVU264
	ldrb	r3, [r3]	@ zero_extendqisi2
	.loc 1 92 17 view .LVU265
	mov	r2, r5
	str	r3, [r2], #4
	.loc 1 94 5 is_stmt 1 view .LVU266
	.loc 1 94 17 is_stmt 0 view .LVU267
	mov	r0, r4
.LVL77:
	.loc 1 94 17 view .LVU268
	bl	mbedtls_asn1_get_len
.LVL78:
	.loc 1 94 7 view .LVU269
	cbnz	r0, .L69
	.loc 1 97 5 is_stmt 1 view .LVU270
	.loc 1 97 17 is_stmt 0 view .LVU271
	ldr	r3, [r4]
	.loc 1 97 15 view .LVU272
	str	r3, [r5, #8]
	.loc 1 98 5 is_stmt 1 view .LVU273
	.loc 1 98 17 is_stmt 0 view .LVU274
	ldr	r2, [r5, #4]
	.loc 1 98 8 view .LVU275
	add	r3, r3, r2
	str	r3, [r4]
	.loc 1 100 5 is_stmt 1 view .LVU276
.LVL79:
.L62:
	.loc 1 101 1 is_stmt 0 view .LVU277
	pop	{r3, r4, r5, pc}
.LVL80:
.L69:
	.loc 1 95 9 is_stmt 1 view .LVU278
.LBB52:
.LBI52:
	.loc 2 152 19 view .LVU279
.LBB53:
	.loc 2 159 5 view .LVU280
	.loc 2 160 5 view .LVU281
	.loc 2 162 5 view .LVU282
	.loc 2 162 18 is_stmt 0 view .LVU283
	sub	r0, r0, #8832
.LVL81:
	.loc 2 162 18 view .LVU284
.LBE53:
.LBE52:
	.loc 1 95 17 view .LVU285
	b	.L62
.LVL82:
.L66:
	.loc 1 84 17 view .LVU286
	ldr	r0, .L70
.LVL83:
	.loc 1 84 17 view .LVU287
	b	.L62
.LVL84:
.L67:
	.loc 1 89 17 view .LVU288
	ldr	r0, .L70+4
.LVL85:
	.loc 1 89 17 view .LVU289
	b	.L62
.L71:
	.align	2
.L70:
	.word	-8928
	.word	-8930
	.cfi_endproc
.LFE28:
	.size	mbedtls_x509_get_serial, .-mbedtls_x509_get_serial
	.section	.text.mbedtls_x509_get_alg_null,"ax",%progbits
	.align	1
	.global	mbedtls_x509_get_alg_null
	.syntax unified
	.thumb
	.thumb_func
	.fpu fpv4-sp-d16
	.type	mbedtls_x509_get_alg_null, %function
mbedtls_x509_get_alg_null:
.LVL86:
.LFB29:
	.loc 1 111 1 is_stmt 1 view -0
	.cfi_startproc
	@ args = 0, pretend = 0, frame = 0
	@ frame_needed = 0, uses_anonymous_args = 0
	.loc 1 111 1 is_stmt 0 view .LVU291
	push	{r3, lr}
	.cfi_def_cfa_offset 8
	.cfi_offset 3, -8
	.cfi_offset 14, -4
	.loc 1 112 5 is_stmt 1 view .LVU292
.LVL87:
	.loc 1 114 5 view .LVU293
	.loc 1 114 17 is_stmt 0 view .LVU294
	bl	mbedtls_asn1_get_alg_null
.LVL88:
	.loc 1 114 7 view .LVU295
	cbnz	r0, .L75
.L72:
	.loc 1 118 1 view .LVU296
	pop	{r3, pc}
.L75:
	.loc 1 115 9 is_stmt 1 view .LVU297
.LVL89:
.LBB54:
.LBI54:
	.loc 2 152 19 view .LVU298
.LBB55:
	.loc 2 159 5 view .LVU299
	.loc 2 160 5 view .LVU300
	.loc 2 162 5 view .LVU301
	.loc 2 162 18 is_stmt 0 view .LVU302
	sub	r0, r0, #8960
.LVL90:
	.loc 2 162 18 view .LVU303
.LBE55:
.LBE54:
	.loc 1 115 17 view .LVU304
	b	.L72
	.cfi_endproc
.LFE29:
	.size	mbedtls_x509_get_alg_null, .-mbedtls_x509_get_alg_null
	.section	.text.mbedtls_x509_get_alg,"ax",%progbits
	.align	1
	.global	mbedtls_x509_get_alg
	.syntax unified
	.thumb
	.thumb_func
	.fpu fpv4-sp-d16
	.type	mbedtls_x509_get_alg, %function
mbedtls_x509_get_alg:
.LVL91:
.LFB30:
	.loc 1 125 1 is_stmt 1 view -0
	.cfi_startproc
	@ args = 0, pretend = 0, frame = 0
	@ frame_needed = 0, uses_anonymous_args = 0
	.loc 1 125 1 is_stmt 0 view .LVU306
	push	{r3, lr}
	.cfi_def_cfa_offset 8
	.cfi_offset 3, -8
	.cfi_offset 14, -4
	.loc 1 126 5 is_stmt 1 view .LVU307
.LVL92:
	.loc 1 128 5 view .LVU308
	.loc 1 128 17 is_stmt 0 view .LVU309
	bl	mbedtls_asn1_get_alg
.LVL93:
	.loc 1 128 7 view .LVU310
	cbnz	r0, .L79
.L76:
	.loc 1 132 1 view .LVU311
	pop	{r3, pc}
.L79:
	.loc 1 129 9 is_stmt 1 view .LVU312
.LVL94:
.LBB56:
.LBI56:
	.loc 2 152 19 view .LVU313
.LBB57:
	.loc 2 159 5 view .LVU314
	.loc 2 160 5 view .LVU315
	.loc 2 162 5 view .LVU316
	.loc 2 162 18 is_stmt 0 view .LVU317
	sub	r0, r0, #8960
.LVL95:
	.loc 2 162 18 view .LVU318
.LBE57:
.LBE56:
	.loc 1 129 17 view .LVU319
	b	.L76
	.cfi_endproc
.LFE30:
	.size	mbedtls_x509_get_alg, .-mbedtls_x509_get_alg
	.section	.text.mbedtls_x509_get_name,"ax",%progbits
	.align	1
	.global	mbedtls_x509_get_name
	.syntax unified
	.thumb
	.thumb_func
	.fpu fpv4-sp-d16
	.type	mbedtls_x509_get_name, %function
mbedtls_x509_get_name:
.LVL96:
.LFB32:
	.loc 1 430 1 is_stmt 1 view -0
	.cfi_startproc
	@ args = 0, pretend = 0, frame = 8
	@ frame_needed = 0, uses_anonymous_args = 0
	.loc 1 430 1 is_stmt 0 view .LVU321
	push	{r4, r5, r6, r7, lr}
	.cfi_def_cfa_offset 20
	.cfi_offset 4, -20
	.cfi_offset 5, -16
	.cfi_offset 6, -12
	.cfi_offset 7, -8
	.cfi_offset 14, -4
	sub	sp, sp, #12
	.cfi_def_cfa_offset 32
	mov	r5, r0
	mov	r7, r1
	mov	r4, r2
	.loc 1 431 5 is_stmt 1 view .LVU322
.LVL97:
.L85:
	.loc 1 432 5 view .LVU323
	.loc 1 433 5 view .LVU324
	.loc 1 436 5 view .LVU325
	.loc 1 441 9 view .LVU326
	.loc 1 441 21 is_stmt 0 view .LVU327
	movs	r3, #49
	add	r2, sp, #4
	mov	r1, r7
	mov	r0, r5
	bl	mbedtls_asn1_get_tag
.LVL98:
	.loc 1 441 11 view .LVU328
	cbnz	r0, .L89
	.loc 1 445 9 is_stmt 1 view .LVU329
	.loc 1 445 19 is_stmt 0 view .LVU330
	ldr	r6, [r5]
	.loc 1 445 22 view .LVU331
	ldr	r3, [sp, #4]
	.loc 1 445 17 view .LVU332
	add	r6, r6, r3
.LVL99:
.L84:
	.loc 1 447 9 is_stmt 1 view .LVU333
	.loc 1 449 13 view .LVU334
	.loc 1 449 25 is_stmt 0 view .LVU335
	mov	r2, r4
	mov	r1, r6
	mov	r0, r5
	bl	x509_get_attr_type_value
.LVL100:
	.loc 1 449 15 view .LVU336
	mov	r2, r0
	cbnz	r0, .L80
	.loc 1 452 13 is_stmt 1 view .LVU337
	.loc 1 452 17 is_stmt 0 view .LVU338
	ldr	r3, [r5]
	.loc 1 452 15 view .LVU339
	cmp	r3, r6
	beq	.L83
	.loc 1 456 13 is_stmt 1 view .LVU340
	.loc 1 456 30 is_stmt 0 view .LVU341
	movs	r0, #1
.LVL101:
	.loc 1 456 30 view .LVU342
	strb	r0, [r4, #28]
	.loc 1 458 13 is_stmt 1 view .LVU343
	.loc 1 458 25 is_stmt 0 view .LVU344
	movs	r1, #32
	bl	mbedtls_calloc
.LVL102:
	.loc 1 458 23 view .LVU345
	str	r0, [r4, #24]
	.loc 1 460 13 is_stmt 1 view .LVU346
	.loc 1 460 15 is_stmt 0 view .LVU347
	cbz	r0, .L86
	.loc 1 463 17 view .LVU348
	mov	r4, r0
.LVL103:
	.loc 1 463 17 view .LVU349
	b	.L84
.LVL104:
.L89:
	.loc 1 443 13 is_stmt 1 view .LVU350
.LBB58:
.LBI58:
	.loc 2 152 19 view .LVU351
.LBB59:
	.loc 2 159 5 view .LVU352
	.loc 2 160 5 view .LVU353
	.loc 2 162 5 view .LVU354
	.loc 2 162 18 is_stmt 0 view .LVU355
	sub	r2, r0, #9088
.LVL105:
	.loc 2 162 18 view .LVU356
.LBE59:
.LBE58:
	.loc 1 443 21 view .LVU357
	b	.L80
.LVL106:
.L83:
	.loc 1 469 9 is_stmt 1 view .LVU358
	.loc 1 469 11 is_stmt 0 view .LVU359
	cmp	r3, r7
	beq	.L80
	.loc 1 472 9 is_stmt 1 view .LVU360
	.loc 1 472 21 is_stmt 0 view .LVU361
	movs	r1, #32
	movs	r0, #1
.LVL107:
	.loc 1 472 21 view .LVU362
	bl	mbedtls_calloc
.LVL108:
	.loc 1 472 19 view .LVU363
	str	r0, [r4, #24]
	.loc 1 474 9 is_stmt 1 view .LVU364
	.loc 1 474 11 is_stmt 0 view .LVU365
	cbz	r0, .L90
	.loc 1 477 13 view .LVU366
	mov	r4, r0
.LVL109:
	.loc 1 477 13 view .LVU367
	b	.L85
.LVL110:
.L90:
	.loc 1 475 19 view .LVU368
	ldr	r2, .L91
	b	.L80
.L86:
	.loc 1 461 23 view .LVU369
	ldr	r2, .L91
.LVL111:
.L80:
	.loc 1 479 1 view .LVU370
	mov	r0, r2
	add	sp, sp, #12
	.cfi_def_cfa_offset 20
	@ sp needed
	pop	{r4, r5, r6, r7, pc}
.LVL112:
.L92:
	.loc 1 479 1 view .LVU371
	.align	2
.L91:
	.word	-10368
	.cfi_endproc
.LFE32:
	.size	mbedtls_x509_get_name, .-mbedtls_x509_get_name
	.section	.text.mbedtls_x509_get_time,"ax",%progbits
	.align	1
	.global	mbedtls_x509_get_time
	.syntax unified
	.thumb
	.thumb_func
	.fpu fpv4-sp-d16
	.type	mbedtls_x509_get_time, %function
mbedtls_x509_get_time:
.LVL113:
.LFB36:
	.loc 1 601 1 is_stmt 1 view -0
	.cfi_startproc
	@ args = 0, pretend = 0, frame = 8
	@ frame_needed = 0, uses_anonymous_args = 0
	.loc 1 601 1 is_stmt 0 view .LVU373
	push	{r4, r5, r6, lr}
	.cfi_def_cfa_offset 16
	.cfi_offset 4, -16
	.cfi_offset 5, -12
	.cfi_offset 6, -8
	.cfi_offset 14, -4
	sub	sp, sp, #8
	.cfi_def_cfa_offset 24
	mov	r5, r2
	.loc 1 602 5 is_stmt 1 view .LVU374
.LVL114:
	.loc 1 603 5 view .LVU375
	.loc 1 604 5 view .LVU376
	.loc 1 606 5 view .LVU377
	.loc 1 606 17 is_stmt 0 view .LVU378
	ldr	r3, [r0]
	.loc 1 606 15 view .LVU379
	subs	r2, r1, r3
.LVL115:
	.loc 1 606 7 view .LVU380
	cmp	r2, #0
	ble	.L97
	mov	r4, r0
	.loc 1 610 5 is_stmt 1 view .LVU381
	.loc 1 610 9 is_stmt 0 view .LVU382
	ldrb	r2, [r3]	@ zero_extendqisi2
.LVL116:
	.loc 1 612 5 is_stmt 1 view .LVU383
	.loc 1 612 7 is_stmt 0 view .LVU384
	cmp	r2, #23
	beq	.L98
	.loc 1 614 10 is_stmt 1 view .LVU385
	.loc 1 614 12 is_stmt 0 view .LVU386
	cmp	r2, #24
	bne	.L99
	.loc 1 615 18 view .LVU387
	movs	r6, #4
.L95:
.LVL117:
	.loc 1 620 5 is_stmt 1 view .LVU388
	.loc 1 620 9 is_stmt 0 view .LVU389
	adds	r3, r3, #1
	str	r3, [r4]
	.loc 1 621 5 is_stmt 1 view .LVU390
	.loc 1 621 11 is_stmt 0 view .LVU391
	add	r2, sp, #4
.LVL118:
	.loc 1 621 11 view .LVU392
	mov	r0, r4
.LVL119:
	.loc 1 621 11 view .LVU393
	bl	mbedtls_asn1_get_len
.LVL120:
	.loc 1 623 5 is_stmt 1 view .LVU394
	.loc 1 623 7 is_stmt 0 view .LVU395
	cbz	r0, .L96
	.loc 1 624 9 is_stmt 1 view .LVU396
.LVL121:
.LBB60:
.LBI60:
	.loc 2 152 19 view .LVU397
.LBB61:
	.loc 2 159 5 view .LVU398
	.loc 2 160 5 view .LVU399
	.loc 2 162 5 view .LVU400
	.loc 2 162 18 is_stmt 0 view .LVU401
	sub	r0, r0, #9216
.LVL122:
.L93:
	.loc 2 162 18 view .LVU402
.LBE61:
.LBE60:
	.loc 1 627 1 view .LVU403
	add	sp, sp, #8
	.cfi_remember_state
	.cfi_def_cfa_offset 16
	@ sp needed
	pop	{r4, r5, r6, pc}
.LVL123:
.L98:
	.cfi_restore_state
	.loc 1 613 18 view .LVU404
	movs	r6, #2
	b	.L95
.LVL124:
.L96:
	.loc 1 626 5 is_stmt 1 view .LVU405
	.loc 1 626 12 is_stmt 0 view .LVU406
	mov	r3, r5
	mov	r2, r6
	ldr	r1, [sp, #4]
	mov	r0, r4
.LVL125:
	.loc 1 626 12 view .LVU407
	bl	x509_parse_time
.LVL126:
	b	.L93
.LVL127:
.L97:
	.loc 1 607 17 view .LVU408
	ldr	r0, .L101
.LVL128:
	.loc 1 607 17 view .LVU409
	b	.L93
.LVL129:
.L99:
	.loc 1 617 17 view .LVU410
	ldr	r0, .L101+4
.LVL130:
	.loc 1 617 17 view .LVU411
	b	.L93
.L102:
	.align	2
.L101:
	.word	-9312
	.word	-9314
	.cfi_endproc
.LFE36:
	.size	mbedtls_x509_get_time, .-mbedtls_x509_get_time
	.section	.text.mbedtls_x509_get_sig,"ax",%progbits
	.align	1
	.global	mbedtls_x509_get_sig
	.syntax unified
	.thumb
	.thumb_func
	.fpu fpv4-sp-d16
	.type	mbedtls_x509_get_sig, %function
mbedtls_x509_get_sig:
.LVL131:
.LFB37:
	.loc 1 630 1 is_stmt 1 view -0
	.cfi_startproc
	@ args = 0, pretend = 0, frame = 8
	@ frame_needed = 0, uses_anonymous_args = 0
	.loc 1 630 1 is_stmt 0 view .LVU413
	push	{r4, r5, r6, lr}
	.cfi_def_cfa_offset 16
	.cfi_offset 4, -16
	.cfi_offset 5, -12
	.cfi_offset 6, -8
	.cfi_offset 14, -4
	sub	sp, sp, #8
	.cfi_def_cfa_offset 24
	mov	r5, r2
	.loc 1 631 5 is_stmt 1 view .LVU414
.LVL132:
	.loc 1 632 5 view .LVU415
	.loc 1 633 5 view .LVU416
	.loc 1 635 5 view .LVU417
	.loc 1 635 17 is_stmt 0 view .LVU418
	ldr	r3, [r0]
	.loc 1 635 15 view .LVU419
	subs	r2, r1, r3
.LVL133:
	.loc 1 635 7 view .LVU420
	cmp	r2, #0
	ble	.L106
	mov	r4, r0
	.loc 1 639 5 is_stmt 1 view .LVU421
	.loc 1 639 16 is_stmt 0 view .LVU422
	ldrb	r6, [r3]	@ zero_extendqisi2
.LVL134:
	.loc 1 641 5 is_stmt 1 view .LVU423
	.loc 1 641 17 is_stmt 0 view .LVU424
	add	r2, sp, #4
	bl	mbedtls_asn1_get_bitstring_null
.LVL135:
	.loc 1 641 7 view .LVU425
	cbnz	r0, .L108
	.loc 1 644 5 is_stmt 1 view .LVU426
	.loc 1 644 14 is_stmt 0 view .LVU427
	str	r6, [r5]
	.loc 1 645 5 is_stmt 1 view .LVU428
	.loc 1 645 14 is_stmt 0 view .LVU429
	ldr	r2, [sp, #4]
	str	r2, [r5, #4]
	.loc 1 646 5 is_stmt 1 view .LVU430
	.loc 1 646 14 is_stmt 0 view .LVU431
	ldr	r3, [r4]
	.loc 1 646 12 view .LVU432
	str	r3, [r5, #8]
	.loc 1 648 5 is_stmt 1 view .LVU433
	.loc 1 648 8 is_stmt 0 view .LVU434
	add	r3, r3, r2
	str	r3, [r4]
	.loc 1 650 5 is_stmt 1 view .LVU435
.LVL136:
.L103:
	.loc 1 651 1 is_stmt 0 view .LVU436
	add	sp, sp, #8
	.cfi_remember_state
	.cfi_def_cfa_offset 16
	@ sp needed
	pop	{r4, r5, r6, pc}
.LVL137:
.L108:
	.cfi_restore_state
	.loc 1 642 9 is_stmt 1 view .LVU437
.LBB62:
.LBI62:
	.loc 2 152 19 view .LVU438
.LBB63:
	.loc 2 159 5 view .LVU439
	.loc 2 160 5 view .LVU440
	.loc 2 162 5 view .LVU441
	.loc 2 162 18 is_stmt 0 view .LVU442
	sub	r0, r0, #9344
.LVL138:
	.loc 2 162 18 view .LVU443
.LBE63:
.LBE62:
	.loc 1 642 17 view .LVU444
	b	.L103
.LVL139:
.L106:
	.loc 1 636 17 view .LVU445
	ldr	r0, .L109
.LVL140:
	.loc 1 636 17 view .LVU446
	b	.L103
.L110:
	.align	2
.L109:
	.word	-9440
	.cfi_endproc
.LFE37:
	.size	mbedtls_x509_get_sig, .-mbedtls_x509_get_sig
	.section	.text.mbedtls_x509_get_sig_alg,"ax",%progbits
	.align	1
	.global	mbedtls_x509_get_sig_alg
	.syntax unified
	.thumb
	.thumb_func
	.fpu fpv4-sp-d16
	.type	mbedtls_x509_get_sig_alg, %function
mbedtls_x509_get_sig_alg:
.LVL141:
.LFB38:
	.loc 1 659 1 is_stmt 1 view -0
	.cfi_startproc
	@ args = 4, pretend = 0, frame = 0
	@ frame_needed = 0, uses_anonymous_args = 0
	.loc 1 659 1 is_stmt 0 view .LVU448
	push	{r4, lr}
	.cfi_def_cfa_offset 8
	.cfi_offset 4, -8
	.cfi_offset 14, -4
	mov	r4, r1
	mov	r1, r2
.LVL142:
	.loc 1 659 1 view .LVU449
	mov	r2, r3
.LVL143:
	.loc 1 660 5 is_stmt 1 view .LVU450
	.loc 1 662 5 view .LVU451
	.loc 1 662 9 is_stmt 0 view .LVU452
	ldr	r3, [sp, #8]
.LVL144:
	.loc 1 662 9 view .LVU453
	ldr	r3, [r3]
	.loc 1 662 7 view .LVU454
	cbnz	r3, .L115
	.loc 1 665 5 is_stmt 1 view .LVU455
	.loc 1 665 17 is_stmt 0 view .LVU456
	bl	mbedtls_oid_get_sig_alg
.LVL145:
	.loc 1 665 7 view .LVU457
	cbnz	r0, .L119
	.loc 1 693 9 is_stmt 1 view .LVU458
	.loc 1 693 25 is_stmt 0 view .LVU459
	ldr	r3, [r4]
	.loc 1 693 11 view .LVU460
	cmp	r3, #5
	beq	.L114
	.loc 1 693 39 discriminator 1 view .LVU461
	cbnz	r3, .L116
.L114:
	.loc 1 694 25 discriminator 3 view .LVU462
	ldr	r3, [r4, #4]
	.loc 1 693 65 discriminator 3 view .LVU463
	cbnz	r3, .L120
.LVL146:
.L111:
	.loc 1 699 1 view .LVU464
	pop	{r4, pc}
.LVL147:
.L119:
	.loc 1 666 9 is_stmt 1 view .LVU465
.LBB64:
.LBI64:
	.loc 2 152 19 view .LVU466
.LBB65:
	.loc 2 159 5 view .LVU467
	.loc 2 160 5 view .LVU468
	.loc 2 162 5 view .LVU469
	.loc 2 162 18 is_stmt 0 view .LVU470
	sub	r0, r0, #9728
.LVL148:
	.loc 2 162 18 view .LVU471
.LBE65:
.LBE64:
	.loc 1 666 17 view .LVU472
	b	.L111
.LVL149:
.L115:
	.loc 1 663 15 view .LVU473
	ldr	r0, .L121
.LVL150:
	.loc 1 663 15 view .LVU474
	b	.L111
.LVL151:
.L116:
	.loc 1 695 15 view .LVU475
	ldr	r0, .L121+4
.LVL152:
	.loc 1 695 15 view .LVU476
	b	.L111
.LVL153:
.L120:
	.loc 1 695 15 view .LVU477
	ldr	r0, .L121+4
.LVL154:
	.loc 1 695 15 view .LVU478
	b	.L111
.L122:
	.align	2
.L121:
	.word	-10240
	.word	-8960
	.cfi_endproc
.LFE38:
	.size	mbedtls_x509_get_sig_alg, .-mbedtls_x509_get_sig_alg
	.section	.text.mbedtls_x509_get_ext,"ax",%progbits
	.align	1
	.global	mbedtls_x509_get_ext
	.syntax unified
	.thumb
	.thumb_func
	.fpu fpv4-sp-d16
	.type	mbedtls_x509_get_ext, %function
mbedtls_x509_get_ext:
.LVL155:
.LFB39:
	.loc 1 707 1 is_stmt 1 view -0
	.cfi_startproc
	@ args = 0, pretend = 0, frame = 8
	@ frame_needed = 0, uses_anonymous_args = 0
	.loc 1 707 1 is_stmt 0 view .LVU480
	push	{r4, r5, r6, lr}
	.cfi_def_cfa_offset 16
	.cfi_offset 4, -16
	.cfi_offset 5, -12
	.cfi_offset 6, -8
	.cfi_offset 14, -4
	sub	sp, sp, #8
	.cfi_def_cfa_offset 24
	mov	r6, r0
	mov	r4, r2
	.loc 1 708 5 is_stmt 1 view .LVU481
.LVL156:
	.loc 1 709 5 view .LVU482
	.loc 1 714 5 view .LVU483
	.loc 1 714 11 is_stmt 0 view .LVU484
	orr	r5, r3, #160
	mov	r3, r5
.LVL157:
	.loc 1 714 11 view .LVU485
	adds	r2, r2, #4
.LVL158:
	.loc 1 714 11 view .LVU486
	bl	mbedtls_asn1_get_tag
.LVL159:
	.loc 1 716 5 is_stmt 1 view .LVU487
	.loc 1 716 7 is_stmt 0 view .LVU488
	cbz	r0, .L124
	.loc 1 717 9 is_stmt 1 view .LVU489
.LVL160:
.LBB66:
.LBI66:
	.loc 2 152 19 view .LVU490
.LBB67:
	.loc 2 159 5 view .LVU491
	.loc 2 160 5 view .LVU492
	.loc 2 162 5 view .LVU493
	.loc 2 162 18 is_stmt 0 view .LVU494
	sub	r0, r0, #9472
.LVL161:
.L123:
	.loc 2 162 18 view .LVU495
.LBE67:
.LBE66:
	.loc 1 735 1 view .LVU496
	add	sp, sp, #8
	.cfi_remember_state
	.cfi_def_cfa_offset 16
	@ sp needed
	pop	{r4, r5, r6, pc}
.LVL162:
.L124:
	.cfi_restore_state
	.loc 1 719 5 is_stmt 1 view .LVU497
	.loc 1 719 14 is_stmt 0 view .LVU498
	str	r5, [r4]
	.loc 1 720 5 is_stmt 1 view .LVU499
	.loc 1 720 14 is_stmt 0 view .LVU500
	ldr	r3, [r6]
	.loc 1 720 12 view .LVU501
	str	r3, [r4, #8]
	.loc 1 721 5 is_stmt 1 view .LVU502
	.loc 1 721 19 is_stmt 0 view .LVU503
	ldr	r4, [r4, #4]
.LVL163:
	.loc 1 721 9 view .LVU504
	add	r4, r4, r3
.LVL164:
	.loc 1 726 5 is_stmt 1 view .LVU505
	.loc 1 726 17 is_stmt 0 view .LVU506
	movs	r3, #48
	add	r2, sp, #4
	mov	r1, r4
	mov	r0, r6
.LVL165:
	.loc 1 726 17 view .LVU507
	bl	mbedtls_asn1_get_tag
.LVL166:
	.loc 1 726 7 view .LVU508
	cbnz	r0, .L129
	.loc 1 730 5 is_stmt 1 view .LVU509
	.loc 1 730 16 is_stmt 0 view .LVU510
	ldr	r3, [r6]
	.loc 1 730 19 view .LVU511
	ldr	r2, [sp, #4]
	add	r3, r3, r2
	.loc 1 730 7 view .LVU512
	cmp	r3, r4
	beq	.L123
	.loc 1 731 17 view .LVU513
	ldr	r0, .L130
.LVL167:
	.loc 1 731 17 view .LVU514
	b	.L123
.LVL168:
.L129:
	.loc 1 728 9 is_stmt 1 view .LVU515
.LBB68:
.LBI68:
	.loc 2 152 19 view .LVU516
.LBB69:
	.loc 2 159 5 view .LVU517
	.loc 2 160 5 view .LVU518
	.loc 2 162 5 view .LVU519
	.loc 2 162 18 is_stmt 0 view .LVU520
	sub	r0, r0, #9472
.LVL169:
	.loc 2 162 18 view .LVU521
.LBE69:
.LBE68:
	.loc 1 728 17 view .LVU522
	b	.L123
.L131:
	.align	2
.L130:
	.word	-9574
	.cfi_endproc
.LFE39:
	.size	mbedtls_x509_get_ext, .-mbedtls_x509_get_ext
	.section	.rodata.mbedtls_x509_dn_gets.str1.4,"aMS",%progbits,1
	.align	2
.LC0:
	.ascii	", \000"
	.align	2
.LC1:
	.ascii	" + \000"
	.align	2
.LC2:
	.ascii	"%s=\000"
	.align	2
.LC3:
	.ascii	"??=\000"
	.align	2
.LC4:
	.ascii	"%s\000"
	.section	.text.mbedtls_x509_dn_gets,"ax",%progbits
	.align	1
	.global	mbedtls_x509_dn_gets
	.syntax unified
	.thumb
	.thumb_func
	.fpu fpv4-sp-d16
	.type	mbedtls_x509_dn_gets, %function
mbedtls_x509_dn_gets:
.LVL170:
.LFB40:
	.loc 1 742 1 is_stmt 1 view -0
	.cfi_startproc
	@ args = 0, pretend = 0, frame = 264
	@ frame_needed = 0, uses_anonymous_args = 0
	.loc 1 742 1 is_stmt 0 view .LVU524
	push	{r4, r5, r6, r7, r8, r9, lr}
	.cfi_def_cfa_offset 28
	.cfi_offset 4, -28
	.cfi_offset 5, -24
	.cfi_offset 6, -20
	.cfi_offset 7, -16
	.cfi_offset 8, -12
	.cfi_offset 9, -8
	.cfi_offset 14, -4
	sub	sp, sp, #268
	.cfi_def_cfa_offset 296
	mov	r4, r0
	mov	r9, r1
	mov	r8, r2
	.loc 1 743 5 is_stmt 1 view .LVU525
.LVL171:
	.loc 1 744 5 view .LVU526
	.loc 1 745 5 view .LVU527
	.loc 1 746 5 view .LVU528
	.loc 1 747 5 view .LVU529
	.loc 1 747 17 is_stmt 0 view .LVU530
	movs	r7, #0
	str	r7, [sp, #260]
	.loc 1 748 5 is_stmt 1 view .LVU531
	.loc 1 750 4 view .LVU532
	.loc 1 750 26 is_stmt 0 view .LVU533
	mov	r2, #256
.LVL172:
	.loc 1 750 26 view .LVU534
	mov	r1, r7
.LVL173:
	.loc 1 750 26 view .LVU535
	add	r0, sp, #4
.LVL174:
	.loc 1 750 26 view .LVU536
	bl	memset
.LVL175:
	.loc 1 752 5 is_stmt 1 view .LVU537
	.loc 1 753 5 view .LVU538
	.loc 1 754 5 view .LVU539
	.loc 1 756 5 view .LVU540
	.loc 1 752 10 is_stmt 0 view .LVU541
	mov	r5, r8
	.loc 1 754 7 view .LVU542
	mov	r6, r9
	.loc 1 756 10 view .LVU543
	b	.L133
.LVL176:
.L156:
	.loc 1 760 13 is_stmt 1 view .LVU544
	.loc 1 760 18 is_stmt 0 view .LVU545
	ldr	r5, [r5, #24]
.LVL177:
	.loc 1 761 13 is_stmt 1 view .LVU546
	b	.L133
.L147:
	.loc 1 766 18 is_stmt 0 view .LVU547
	ldr	r2, .L157
	b	.L137
.LVL178:
.L139:
	.loc 1 775 13 is_stmt 1 view .LVU548
	.loc 1 775 18 is_stmt 0 view .LVU549
	ldr	r2, .L157+4
	mov	r1, r6
	mov	r0, r4
.LVL179:
	.loc 1 775 18 view .LVU550
	bl	snprintf
.LVL180:
	.loc 1 775 18 view .LVU551
	b	.L140
.LVL181:
.L143:
	.loc 1 786 18 is_stmt 1 view .LVU552
	.loc 1 786 23 is_stmt 0 view .LVU553
	add	r3, sp, #4
	strb	r2, [r3, r4]
.LVL182:
.L144:
	.loc 1 778 40 is_stmt 1 discriminator 2 view .LVU554
	.loc 1 778 41 is_stmt 0 discriminator 2 view .LVU555
	adds	r4, r4, #1
.LVL183:
.L141:
	.loc 1 778 21 is_stmt 1 discriminator 1 view .LVU556
	.loc 1 778 34 is_stmt 0 discriminator 1 view .LVU557
	ldr	r3, [r5, #16]
	.loc 1 778 9 discriminator 1 view .LVU558
	cmp	r3, r4
	bls	.L142
	.loc 1 780 13 is_stmt 1 view .LVU559
	.loc 1 780 15 is_stmt 0 view .LVU560
	cmp	r4, #254
	bhi	.L142
	.loc 1 783 13 is_stmt 1 view .LVU561
	.loc 1 783 26 is_stmt 0 view .LVU562
	ldr	r3, [r5, #20]
	.loc 1 783 15 view .LVU563
	ldrb	r2, [r3, r4]	@ zero_extendqisi2
.LVL184:
	.loc 1 784 13 is_stmt 1 view .LVU564
	.loc 1 784 24 is_stmt 0 view .LVU565
	sub	r3, r2, #32
	uxtb	r3, r3
	.loc 1 784 15 view .LVU566
	cmp	r3, #94
	bls	.L143
	.loc 1 785 18 is_stmt 1 view .LVU567
	.loc 1 785 23 is_stmt 0 view .LVU568
	add	r3, sp, #4
	movs	r2, #63
.LVL185:
	.loc 1 785 23 view .LVU569
	strb	r2, [r3, r4]
.LVL186:
	.loc 1 785 23 view .LVU570
	b	.L144
.L142:
	.loc 1 788 9 is_stmt 1 view .LVU571
	.loc 1 788 14 is_stmt 0 view .LVU572
	add	r3, sp, #4
	movs	r2, #0
	strb	r2, [r3, r4]
	.loc 1 789 9 is_stmt 1 view .LVU573
	.loc 1 789 14 is_stmt 0 view .LVU574
	ldr	r2, .L157+8
	mov	r1, r6
	mov	r0, r7
.LVL187:
	.loc 1 789 14 view .LVU575
	bl	snprintf
.LVL188:
	.loc 1 790 9 is_stmt 1 view .LVU576
	.loc 1 790 14 view .LVU577
	.loc 1 790 16 is_stmt 0 view .LVU578
	subs	r4, r0, #0
.LVL189:
	.loc 1 790 16 view .LVU579
	blt	.L152
	.loc 1 790 26 discriminator 2 view .LVU580
	cmp	r4, r6
	bcs	.L153
	.loc 1 790 68 is_stmt 1 discriminator 4 view .LVU581
	.loc 1 790 70 is_stmt 0 discriminator 4 view .LVU582
	subs	r6, r6, r4
.LVL190:
	.loc 1 790 87 is_stmt 1 discriminator 4 view .LVU583
	.loc 1 790 89 is_stmt 0 discriminator 4 view .LVU584
	add	r4, r4, r7
.LVL191:
	.loc 1 790 113 is_stmt 1 discriminator 4 view .LVU585
	.loc 1 792 9 discriminator 4 view .LVU586
	.loc 1 792 15 is_stmt 0 discriminator 4 view .LVU587
	ldrb	r7, [r5, #28]	@ zero_extendqisi2
.LVL192:
	.loc 1 793 9 is_stmt 1 discriminator 4 view .LVU588
	.loc 1 793 14 is_stmt 0 discriminator 4 view .LVU589
	ldr	r5, [r5, #24]
.LVL193:
.L133:
	.loc 1 756 10 is_stmt 1 view .LVU590
	cbz	r5, .L155
	.loc 1 758 9 view .LVU591
	.loc 1 758 23 is_stmt 0 view .LVU592
	ldr	r3, [r5, #8]
	.loc 1 758 11 view .LVU593
	cmp	r3, #0
	beq	.L156
	.loc 1 764 9 is_stmt 1 view .LVU594
	.loc 1 764 11 is_stmt 0 view .LVU595
	cmp	r5, r8
	beq	.L136
	.loc 1 766 13 is_stmt 1 view .LVU596
	.loc 1 766 18 is_stmt 0 view .LVU597
	cmp	r7, #0
	beq	.L147
	ldr	r2, .L157+12
.L137:
	.loc 1 766 18 discriminator 4 view .LVU598
	mov	r1, r6
	mov	r0, r4
	bl	snprintf
.LVL194:
	.loc 1 767 13 is_stmt 1 discriminator 4 view .LVU599
	.loc 1 767 18 discriminator 4 view .LVU600
	.loc 1 767 20 is_stmt 0 discriminator 4 view .LVU601
	cmp	r0, #0
	.loc 1 767 20 discriminator 4 view .LVU602
	blt	.L148
	.loc 1 767 30 discriminator 2 view .LVU603
	cmp	r0, r6
	bcs	.L149
	.loc 1 767 72 is_stmt 1 discriminator 4 view .LVU604
	.loc 1 767 74 is_stmt 0 discriminator 4 view .LVU605
	subs	r6, r6, r0
.LVL195:
	.loc 1 767 91 is_stmt 1 discriminator 4 view .LVU606
	.loc 1 767 93 is_stmt 0 discriminator 4 view .LVU607
	add	r4, r4, r0
.LVL196:
.L136:
	.loc 1 767 117 is_stmt 1 discriminator 5 view .LVU608
	.loc 1 770 9 discriminator 5 view .LVU609
	.loc 1 770 15 is_stmt 0 discriminator 5 view .LVU610
	add	r1, sp, #260
	mov	r0, r5
	bl	mbedtls_oid_get_attr_short_name
.LVL197:
	.loc 1 772 9 is_stmt 1 discriminator 5 view .LVU611
	.loc 1 772 11 is_stmt 0 discriminator 5 view .LVU612
	cmp	r0, #0
	bne	.L139
	.loc 1 773 13 is_stmt 1 view .LVU613
	.loc 1 773 18 is_stmt 0 view .LVU614
	ldr	r3, [sp, #260]
	ldr	r2, .L157+16
	mov	r1, r6
	mov	r0, r4
.LVL198:
	.loc 1 773 18 view .LVU615
	bl	snprintf
.LVL199:
.L140:
	.loc 1 776 9 is_stmt 1 view .LVU616
	.loc 1 776 14 view .LVU617
	.loc 1 776 16 is_stmt 0 view .LVU618
	cmp	r0, #0
	blt	.L150
	.loc 1 776 26 discriminator 2 view .LVU619
	cmp	r0, r6
	bcs	.L151
	.loc 1 776 68 is_stmt 1 discriminator 4 view .LVU620
	.loc 1 776 70 is_stmt 0 discriminator 4 view .LVU621
	subs	r6, r6, r0
.LVL200:
	.loc 1 776 87 is_stmt 1 discriminator 4 view .LVU622
	.loc 1 776 89 is_stmt 0 discriminator 4 view .LVU623
	adds	r7, r4, r0
.LVL201:
	.loc 1 776 113 is_stmt 1 discriminator 4 view .LVU624
	.loc 1 778 9 discriminator 4 view .LVU625
	.loc 1 778 16 is_stmt 0 discriminator 4 view .LVU626
	movs	r4, #0
	.loc 1 778 9 discriminator 4 view .LVU627
	b	.L141
.LVL202:
.L155:
	.loc 1 796 5 is_stmt 1 view .LVU628
	.loc 1 796 26 is_stmt 0 view .LVU629
	sub	r0, r9, r6
.LVL203:
.L132:
	.loc 1 797 1 view .LVU630
	add	sp, sp, #268
	.cfi_remember_state
	.cfi_def_cfa_offset 28
	@ sp needed
	pop	{r4, r5, r6, r7, r8, r9, pc}
.LVL204:
.L148:
	.cfi_restore_state
	.loc 1 767 59 view .LVU631
	ldr	r0, .L157+20
.LVL205:
	.loc 1 767 59 view .LVU632
	b	.L132
.LVL206:
.L149:
	.loc 1 767 59 view .LVU633
	ldr	r0, .L157+20
.LVL207:
	.loc 1 767 59 view .LVU634
	b	.L132
.LVL208:
.L150:
	.loc 1 776 55 view .LVU635
	ldr	r0, .L157+20
.LVL209:
	.loc 1 776 55 view .LVU636
	b	.L132
.LVL210:
.L151:
	.loc 1 776 55 view .LVU637
	ldr	r0, .L157+20
.LVL211:
	.loc 1 776 55 view .LVU638
	b	.L132
.LVL212:
.L152:
	.loc 1 790 55 view .LVU639
	ldr	r0, .L157+20
.LVL213:
	.loc 1 790 55 view .LVU640
	b	.L132
.LVL214:
.L153:
	.loc 1 790 55 view .LVU641
	ldr	r0, .L157+20
.LVL215:
	.loc 1 790 55 view .LVU642
	b	.L132
.L158:
	.align	2
.L157:
	.word	.LC0
	.word	.LC3
	.word	.LC4
	.word	.LC1
	.word	.LC2
	.word	-10624
	.cfi_endproc
.LFE40:
	.size	mbedtls_x509_dn_gets, .-mbedtls_x509_dn_gets
	.section	.rodata.mbedtls_x509_serial_gets.str1.4,"aMS",%progbits,1
	.align	2
.LC5:
	.ascii	"\000"
	.align	2
.LC6:
	.ascii	":\000"
	.align	2
.LC7:
	.ascii	"%02X%s\000"
	.align	2
.LC8:
	.ascii	"....\000"
	.section	.text.mbedtls_x509_serial_gets,"ax",%progbits
	.align	1
	.global	mbedtls_x509_serial_gets
	.syntax unified
	.thumb
	.thumb_func
	.fpu fpv4-sp-d16
	.type	mbedtls_x509_serial_gets, %function
mbedtls_x509_serial_gets:
.LVL216:
.LFB41:
	.loc 1 804 1 is_stmt 1 view -0
	.cfi_startproc
	@ args = 0, pretend = 0, frame = 0
	@ frame_needed = 0, uses_anonymous_args = 0
	.loc 1 804 1 is_stmt 0 view .LVU644
	push	{r4, r5, r6, r7, r8, r9, lr}
	.cfi_def_cfa_offset 28
	.cfi_offset 4, -28
	.cfi_offset 5, -24
	.cfi_offset 6, -20
	.cfi_offset 7, -16
	.cfi_offset 8, -12
	.cfi_offset 9, -8
	.cfi_offset 14, -4
	sub	sp, sp, #12
	.cfi_def_cfa_offset 40
	mov	r6, r0
	mov	r9, r1
	mov	r8, r2
	.loc 1 805 5 is_stmt 1 view .LVU645
.LVL217:
	.loc 1 806 5 view .LVU646
	.loc 1 807 5 view .LVU647
	.loc 1 809 5 view .LVU648
	.loc 1 810 5 view .LVU649
	.loc 1 812 5 view .LVU650
	.loc 1 812 18 is_stmt 0 view .LVU651
	ldr	r7, [r2, #4]
	.loc 1 813 23 view .LVU652
	cmp	r7, #32
	bls	.L160
	movs	r7, #28
.L160:
.LVL218:
	.loc 1 815 5 is_stmt 1 view .LVU653
	.loc 1 810 7 is_stmt 0 view .LVU654
	mov	r5, r9
	.loc 1 815 12 view .LVU655
	movs	r4, #0
	.loc 1 815 5 view .LVU656
	b	.L161
.LVL219:
.L175:
	.loc 1 817 20 discriminator 1 view .LVU657
	cmp	r7, #1
	bls	.L162
	.loc 1 817 39 discriminator 2 view .LVU658
	ldr	r3, [r8, #8]
	.loc 1 817 42 discriminator 2 view .LVU659
	ldrb	r3, [r3, r4]	@ zero_extendqisi2
	.loc 1 817 30 discriminator 2 view .LVU660
	cbnz	r3, .L162
	.loc 1 817 30 discriminator 2 view .LVU661
	b	.L163
.L168:
	.loc 1 820 14 view .LVU662
	ldr	r2, .L177
.L164:
	.loc 1 820 14 discriminator 4 view .LVU663
	str	r2, [sp]
	ldr	r2, .L177+4
	mov	r1, r5
	mov	r0, r6
	bl	snprintf
.LVL220:
	.loc 1 822 9 is_stmt 1 discriminator 4 view .LVU664
	.loc 1 822 14 discriminator 4 view .LVU665
	.loc 1 822 16 is_stmt 0 discriminator 4 view .LVU666
	cmp	r0, #0
	.loc 1 822 16 discriminator 4 view .LVU667
	blt	.L169
	.loc 1 822 26 discriminator 2 view .LVU668
	cmp	r0, r5
	bcs	.L170
	.loc 1 822 68 is_stmt 1 discriminator 4 view .LVU669
	.loc 1 822 70 is_stmt 0 discriminator 4 view .LVU670
	subs	r5, r5, r0
.LVL221:
	.loc 1 822 87 is_stmt 1 discriminator 4 view .LVU671
	.loc 1 822 89 is_stmt 0 discriminator 4 view .LVU672
	add	r6, r6, r0
.LVL222:
.L163:
	.loc 1 822 113 is_stmt 1 discriminator 5 view .LVU673
	.loc 1 815 25 discriminator 5 view .LVU674
	.loc 1 815 26 is_stmt 0 discriminator 5 view .LVU675
	adds	r4, r4, #1
.LVL223:
.L161:
	.loc 1 815 17 is_stmt 1 discriminator 2 view .LVU676
	.loc 1 815 5 is_stmt 0 discriminator 2 view .LVU677
	cmp	r4, r7
	bcs	.L174
	.loc 1 817 9 is_stmt 1 view .LVU678
	.loc 1 817 11 is_stmt 0 view .LVU679
	cmp	r4, #0
	beq	.L175
.L162:
	.loc 1 820 9 is_stmt 1 view .LVU680
	.loc 1 820 30 is_stmt 0 view .LVU681
	ldr	r3, [r8, #8]
	.loc 1 820 33 view .LVU682
	ldrb	r3, [r3, r4]	@ zero_extendqisi2
	.loc 1 820 47 view .LVU683
	subs	r2, r7, #1
	.loc 1 820 14 view .LVU684
	cmp	r2, r4
	bls	.L168
	ldr	r2, .L177+8
	b	.L164
.L174:
	.loc 1 825 5 is_stmt 1 view .LVU685
	.loc 1 825 21 is_stmt 0 view .LVU686
	ldr	r3, [r8, #4]
	.loc 1 825 7 view .LVU687
	cmp	r3, r7
	bne	.L176
.LVL224:
.L167:
	.loc 1 828 113 is_stmt 1 discriminator 5 view .LVU688
	.loc 1 831 5 discriminator 5 view .LVU689
	.loc 1 831 26 is_stmt 0 discriminator 5 view .LVU690
	sub	r0, r9, r5
.L159:
	.loc 1 832 1 view .LVU691
	add	sp, sp, #12
	.cfi_remember_state
	.cfi_def_cfa_offset 28
	@ sp needed
	pop	{r4, r5, r6, r7, r8, r9, pc}
.LVL225:
.L176:
	.cfi_restore_state
	.loc 1 827 9 is_stmt 1 view .LVU692
	.loc 1 827 14 is_stmt 0 view .LVU693
	ldr	r2, .L177+12
	mov	r1, r5
	mov	r0, r6
	bl	snprintf
.LVL226:
	.loc 1 828 9 is_stmt 1 view .LVU694
	.loc 1 828 14 view .LVU695
	.loc 1 828 16 is_stmt 0 view .LVU696
	cmp	r0, #0
	.loc 1 828 16 view .LVU697
	blt	.L171
	.loc 1 828 26 discriminator 2 view .LVU698
	cmp	r0, r5
	bcs	.L172
	.loc 1 828 68 is_stmt 1 discriminator 4 view .LVU699
	.loc 1 828 70 is_stmt 0 discriminator 4 view .LVU700
	subs	r5, r5, r0
.LVL227:
	.loc 1 828 87 is_stmt 1 discriminator 4 view .LVU701
	.loc 1 828 87 is_stmt 0 discriminator 4 view .LVU702
	b	.L167
.LVL228:
.L169:
	.loc 1 822 55 view .LVU703
	ldr	r0, .L177+16
.LVL229:
	.loc 1 822 55 view .LVU704
	b	.L159
.LVL230:
.L170:
	.loc 1 822 55 view .LVU705
	ldr	r0, .L177+16
.LVL231:
	.loc 1 822 55 view .LVU706
	b	.L159
.LVL232:
.L171:
	.loc 1 828 55 view .LVU707
	ldr	r0, .L177+16
.LVL233:
	.loc 1 828 55 view .LVU708
	b	.L159
.LVL234:
.L172:
	.loc 1 828 55 view .LVU709
	ldr	r0, .L177+16
.LVL235:
	.loc 1 828 55 view .LVU710
	b	.L159
.L178:
	.align	2
.L177:
	.word	.LC5
	.word	.LC7
	.word	.LC6
	.word	.LC8
	.word	-10624
	.cfi_endproc
.LFE41:
	.size	mbedtls_x509_serial_gets, .-mbedtls_x509_serial_gets
	.section	.rodata.mbedtls_x509_sig_alg_gets.str1.4,"aMS",%progbits,1
	.align	2
.LC9:
	.ascii	"???\000"
	.section	.text.mbedtls_x509_sig_alg_gets,"ax",%progbits
	.align	1
	.global	mbedtls_x509_sig_alg_gets
	.syntax unified
	.thumb
	.thumb_func
	.fpu fpv4-sp-d16
	.type	mbedtls_x509_sig_alg_gets, %function
mbedtls_x509_sig_alg_gets:
.LVL236:
.LFB42:
	.loc 1 841 1 is_stmt 1 view -0
	.cfi_startproc
	@ args = 8, pretend = 0, frame = 8
	@ frame_needed = 0, uses_anonymous_args = 0
	.loc 1 841 1 is_stmt 0 view .LVU712
	push	{r4, r5, lr}
	.cfi_def_cfa_offset 12
	.cfi_offset 4, -12
	.cfi_offset 5, -8
	.cfi_offset 14, -4
	sub	sp, sp, #12
	.cfi_def_cfa_offset 24
	mov	r5, r0
	mov	r4, r1
	.loc 1 842 5 is_stmt 1 view .LVU713
.LVL237:
	.loc 1 843 5 view .LVU714
	.loc 1 844 5 view .LVU715
	.loc 1 845 5 view .LVU716
	.loc 1 845 17 is_stmt 0 view .LVU717
	movs	r3, #0
.LVL238:
	.loc 1 845 17 view .LVU718
	str	r3, [sp, #4]
	.loc 1 847 5 is_stmt 1 view .LVU719
	.loc 1 847 11 is_stmt 0 view .LVU720
	add	r1, sp, #4
.LVL239:
	.loc 1 847 11 view .LVU721
	mov	r0, r2
.LVL240:
	.loc 1 847 11 view .LVU722
	bl	mbedtls_oid_get_sig_alg_desc
.LVL241:
	.loc 1 848 5 is_stmt 1 view .LVU723
	.loc 1 848 7 is_stmt 0 view .LVU724
	cbz	r0, .L180
	.loc 1 849 9 is_stmt 1 view .LVU725
	.loc 1 849 14 is_stmt 0 view .LVU726
	ldr	r2, .L187
	mov	r1, r4
	mov	r0, r5
.LVL242:
	.loc 1 849 14 view .LVU727
	bl	snprintf
.LVL243:
.L181:
	.loc 1 852 5 is_stmt 1 view .LVU728
	.loc 1 852 10 view .LVU729
	.loc 1 852 12 is_stmt 0 view .LVU730
	cmp	r0, #0
	blt	.L183
	.loc 1 852 22 discriminator 2 view .LVU731
	cmp	r0, r4
	bcs	.L186
.LVL244:
.L179:
	.loc 1 878 1 view .LVU732
	add	sp, sp, #12
	.cfi_remember_state
	.cfi_def_cfa_offset 12
	@ sp needed
	pop	{r4, r5, pc}
.LVL245:
.L180:
	.cfi_restore_state
	.loc 1 851 9 is_stmt 1 view .LVU733
	.loc 1 851 14 is_stmt 0 view .LVU734
	ldr	r3, [sp, #4]
	ldr	r2, .L187+4
	mov	r1, r4
	mov	r0, r5
.LVL246:
	.loc 1 851 14 view .LVU735
	bl	snprintf
.LVL247:
	.loc 1 851 14 view .LVU736
	b	.L181
.L183:
	.loc 1 852 51 view .LVU737
	ldr	r0, .L187+8
.LVL248:
	.loc 1 852 51 view .LVU738
	b	.L179
.LVL249:
.L186:
	.loc 1 852 51 view .LVU739
	ldr	r0, .L187+8
.LVL250:
	.loc 1 852 51 view .LVU740
	b	.L179
.L188:
	.align	2
.L187:
	.word	.LC9
	.word	.LC4
	.word	-10624
	.cfi_endproc
.LFE42:
	.size	mbedtls_x509_sig_alg_gets, .-mbedtls_x509_sig_alg_gets
	.section	.rodata.mbedtls_x509_key_size_helper.str1.4,"aMS",%progbits,1
	.align	2
.LC10:
	.ascii	"%s key size\000"
	.section	.text.mbedtls_x509_key_size_helper,"ax",%progbits
	.align	1
	.global	mbedtls_x509_key_size_helper
	.syntax unified
	.thumb
	.thumb_func
	.fpu fpv4-sp-d16
	.type	mbedtls_x509_key_size_helper, %function
mbedtls_x509_key_size_helper:
.LVL251:
.LFB43:
	.loc 1 885 1 is_stmt 1 view -0
	.cfi_startproc
	@ args = 0, pretend = 0, frame = 0
	@ frame_needed = 0, uses_anonymous_args = 0
	.loc 1 885 1 is_stmt 0 view .LVU742
	push	{r4, lr}
	.cfi_def_cfa_offset 8
	.cfi_offset 4, -8
	.cfi_offset 14, -4
	mov	r4, r1
	mov	r3, r2
	.loc 1 886 5 is_stmt 1 view .LVU743
.LVL252:
	.loc 1 887 5 view .LVU744
	.loc 1 888 5 view .LVU745
	.loc 1 890 5 view .LVU746
	.loc 1 890 10 is_stmt 0 view .LVU747
	ldr	r2, .L194
.LVL253:
	.loc 1 890 10 view .LVU748
	bl	snprintf
.LVL254:
	.loc 1 891 5 is_stmt 1 view .LVU749
	.loc 1 891 10 view .LVU750
	.loc 1 891 12 is_stmt 0 view .LVU751
	cmp	r0, #0
	.loc 1 891 12 view .LVU752
	blt	.L191
	.loc 1 891 22 discriminator 2 view .LVU753
	cmp	r0, r4
	bcs	.L192
	.loc 1 893 11 view .LVU754
	movs	r0, #0
.LVL255:
.L189:
	.loc 1 894 1 view .LVU755
	pop	{r4, pc}
.LVL256:
.L191:
	.loc 1 891 51 view .LVU756
	ldr	r0, .L194+4
.LVL257:
	.loc 1 891 51 view .LVU757
	b	.L189
.LVL258:
.L192:
	.loc 1 891 51 view .LVU758
	ldr	r0, .L194+4
.LVL259:
	.loc 1 891 51 view .LVU759
	b	.L189
.L195:
	.align	2
.L194:
	.word	.LC10
	.word	-10624
	.cfi_endproc
.LFE43:
	.size	mbedtls_x509_key_size_helper, .-mbedtls_x509_key_size_helper
	.section	.text.mbedtls_x509_time_is_past,"ax",%progbits
	.align	1
	.global	mbedtls_x509_time_is_past
	.syntax unified
	.thumb
	.thumb_func
	.fpu fpv4-sp-d16
	.type	mbedtls_x509_time_is_past, %function
mbedtls_x509_time_is_past:
.LVL260:
.LFB44:
	.loc 1 989 1 is_stmt 1 view -0
	.cfi_startproc
	@ args = 0, pretend = 0, frame = 0
	@ frame_needed = 0, uses_anonymous_args = 0
	@ link register save eliminated.
	.loc 1 990 5 view .LVU761
	.loc 1 991 5 view .LVU762
	.loc 1 992 1 is_stmt 0 view .LVU763
	movs	r0, #0
.LVL261:
	.loc 1 992 1 view .LVU764
	bx	lr
	.cfi_endproc
.LFE44:
	.size	mbedtls_x509_time_is_past, .-mbedtls_x509_time_is_past
	.section	.text.mbedtls_x509_time_is_future,"ax",%progbits
	.align	1
	.global	mbedtls_x509_time_is_future
	.syntax unified
	.thumb
	.thumb_func
	.fpu fpv4-sp-d16
	.type	mbedtls_x509_time_is_future, %function
mbedtls_x509_time_is_future:
.LVL262:
.LFB45:
	.loc 1 995 1 is_stmt 1 view -0
	.cfi_startproc
	@ args = 0, pretend = 0, frame = 0
	@ frame_needed = 0, uses_anonymous_args = 0
	@ link register save eliminated.
	.loc 1 996 5 view .LVU766
	.loc 1 997 5 view .LVU767
	.loc 1 998 1 is_stmt 0 view .LVU768
	movs	r0, #0
.LVL263:
	.loc 1 998 1 view .LVU769
	bx	lr
	.cfi_endproc
.LFE45:
	.size	mbedtls_x509_time_is_future, .-mbedtls_x509_time_is_future
	.text
.Letext0:
	.file 3 "/home/sebin/thesis/zephyrproject/modules/crypto/mbedtls/include/mbedtls/asn1.h"
	.file 4 "/home/sebin/LIOT/gcc-arm-none-eabi-9-2019-q4-major/lib/gcc/arm-none-eabi/9.2.1/include/stddef.h"
	.file 5 "/home/sebin/thesis/zephyrproject/modules/crypto/mbedtls/include/mbedtls/md.h"
	.file 6 "/home/sebin/thesis/zephyrproject/modules/crypto/mbedtls/include/mbedtls/pk.h"
	.file 7 "/home/sebin/thesis/zephyrproject/modules/crypto/mbedtls/include/mbedtls/x509.h"
	.file 8 "/home/sebin/LIOT/gcc-arm-none-eabi-9-2019-q4-major/arm-none-eabi/include/sys/lock.h"
	.file 9 "/home/sebin/LIOT/gcc-arm-none-eabi-9-2019-q4-major/arm-none-eabi/include/sys/_types.h"
	.file 10 "/home/sebin/LIOT/gcc-arm-none-eabi-9-2019-q4-major/arm-none-eabi/include/sys/reent.h"
	.file 11 "/home/sebin/thesis/zephyrproject/modules/crypto/mbedtls/include/mbedtls/platform.h"
	.file 12 "<built-in>"
	.file 13 "/home/sebin/thesis/zephyrproject/modules/crypto/mbedtls/include/mbedtls/oid.h"