	.cpu cortex-m4
	.eabi_attribute 27, 1
	.eabi_attribute 28, 1
	.eabi_attribute 20, 1
	.eabi_attribute 21, 1
	.eabi_attribute 23, 3
	.eabi_attribute 24, 1
	.eabi_attribute 25, 1
	.eabi_attribute 26, 1
	.eabi_attribute 30, 1
	.eabi_attribute 34, 1
	.eabi_attribute 38, 1
	.eabi_attribute 18, 4
	.file	"SEGGER_RTT.c"
	.text
.Ltext0:
	.cfi_sections	.debug_frame
	.section	.text._GetAvailWriteSpace,"ax",%progbits
	.align	1
	.arch armv7e-m
	.syntax unified
	.thumb
	.thumb_func
	.fpu fpv4-sp-d16
	.type	_GetAvailWriteSpace, %function
_GetAvailWriteSpace:
.LVL0:
.LFB508:
	.file 1 "/home/sebin/thesis/zephyrproject/modules/debug/segger/SEGGER/SEGGER_RTT.c"
	.loc 1 511 66 view -0
	.cfi_startproc
	@ args = 0, pretend = 0, frame = 0
	@ frame_needed = 0, uses_anonymous_args = 0
	@ link register save eliminated.
	.loc 1 512 3 view .LVU1
	.loc 1 513 3 view .LVU2
	.loc 1 514 3 view .LVU3
	.loc 1 519 3 view .LVU4
	.loc 1 519 9 is_stmt 0 view .LVU5
	ldr	r3, [r0, #16]
.LVL1:
	.loc 1 520 3 is_stmt 1 view .LVU6
	.loc 1 520 9 is_stmt 0 view .LVU7
	ldr	r2, [r0, #12]
.LVL2:
	.loc 1 521 3 is_stmt 1 view .LVU8
	.loc 1 521 6 is_stmt 0 view .LVU9
	cmp	r3, r2
	bhi	.L2
	.loc 1 522 5 is_stmt 1 view .LVU10
	.loc 1 522 14 is_stmt 0 view .LVU11
	ldr	r0, [r0, #8]
.LVL3:
	.loc 1 522 34 view .LVU12
	subs	r0, r0, r2
	.loc 1 522 42 view .LVU13
	add	r3, r3, r0
.LVL4:
	.loc 1 522 7 view .LVU14
	subs	r0, r3, #1
.LVL5:
	.loc 1 522 7 view .LVU15
	bx	lr
.LVL6:
.L2:
	.loc 1 524 5 is_stmt 1 view .LVU16
	.loc 1 524 15 is_stmt 0 view .LVU17
	subs	r3, r3, r2
.LVL7:
	.loc 1 524 7 view .LVU18
	subs	r0, r3, #1
.LVL8:
	.loc 1 526 3 is_stmt 1 view .LVU19
	.loc 1 527 1 is_stmt 0 view .LVU20
	bx	lr
	.cfi_endproc
.LFE508:
	.size	_GetAvailWriteSpace, .-_GetAvailWriteSpace
	.section	.text._WriteNoCheck,"ax",%progbits
	.align	1
	.syntax unified
	.thumb
	.thumb_func
	.fpu fpv4-sp-d16
	.type	_WriteNoCheck, %function
_WriteNoCheck:
.LVL9:
.LFB506:
	.loc 1 421 94 is_stmt 1 view -0
	.cfi_startproc
	@ args = 0, pretend = 0, frame = 0
	@ frame_needed = 0, uses_anonymous_args = 0
	.loc 1 421 94 is_stmt 0 view .LVU22
	push	{r3, r4, r5, r6, r7, r8, r9, lr}
	.cfi_def_cfa_offset 32
	.cfi_offset 3, -32
	.cfi_offset 4, -28
	.cfi_offset 5, -24
	.cfi_offset 6, -20
	.cfi_offset 7, -16
	.cfi_offset 8, -12
	.cfi_offset 9, -8
	.cfi_offset 14, -4
	mov	r4, r0
	mov	r8, r1
	mov	r6, r2
	.loc 1 422 3 is_stmt 1 view .LVU23
	.loc 1 423 3 view .LVU24
	.loc 1 424 3 view .LVU25
	.loc 1 425 3 view .LVU26
	.loc 1 427 3 view .LVU27
	.loc 1 427 9 is_stmt 0 view .LVU28
	ldr	r5, [r0, #12]
.LVL10:
	.loc 1 428 3 is_stmt 1 view .LVU29
	.loc 1 428 14 is_stmt 0 view .LVU30
	ldr	r7, [r0, #8]
	.loc 1 428 7 view .LVU31
	sub	r9, r7, r5
.LVL11:
	.loc 1 429 3 is_stmt 1 view .LVU32
	.loc 1 429 6 is_stmt 0 view .LVU33
	cmp	r9, r2
	bls	.L5
	.loc 1 433 5 is_stmt 1 view .LVU34
	.loc 1 433 18 is_stmt 0 view .LVU35
	ldr	r0, [r0, #4]
.LVL12:
	.loc 1 442 4 is_stmt 1 view .LVU36
.LBB120:
.LBI120:
	.file 2 "/home/sebin/LIOT/gcc-arm-none-eabi-9-2019-q4-major/arm-none-eabi/include/ssp/string.h"
	.loc 2 83 216 view .LVU37
.LBB121:
	.loc 2 83 292 view .LVU38
	.loc 2 83 299 is_stmt 0 view .LVU39
	add	r0, r0, r5
.LVL13:
	.loc 2 83 299 view .LVU40
	bl	memcpy
.LVL14:
	.loc 2 83 299 view .LVU41
.LBE121:
.LBE120:
	.loc 1 443 5 is_stmt 1 view .LVU42
	.loc 1 444 5 view .LVU43
	.loc 1 444 26 is_stmt 0 view .LVU44
	add	r5, r5, r6
.LVL15:
	.loc 1 444 18 view .LVU45
	str	r5, [r4, #12]
.L4:
	.loc 1 474 1 view .LVU46
	pop	{r3, r4, r5, r6, r7, r8, r9, pc}
.LVL16:
.L5:
	.loc 1 464 5 is_stmt 1 view .LVU47
	.loc 1 465 5 view .LVU48
	.loc 1 465 18 is_stmt 0 view .LVU49
	ldr	r0, [r0, #4]
.LVL17:
	.loc 1 466 4 is_stmt 1 view .LVU50
.LBB122:
.LBI122:
	.loc 2 83 216 view .LVU51
.LBB123:
	.loc 2 83 292 view .LVU52
	.loc 2 83 299 is_stmt 0 view .LVU53
	mov	r2, r9
.LVL18:
	.loc 2 83 299 view .LVU54
	add	r0, r0, r5
.LVL19:
	.loc 2 83 299 view .LVU55
	bl	memcpy
.LVL20:
	.loc 2 83 299 view .LVU56
.LBE123:
.LBE122:
	.loc 1 467 5 is_stmt 1 view .LVU57
	.loc 1 467 20 is_stmt 0 view .LVU58
	subs	r5, r5, r7
.LVL21:
	.loc 1 467 20 view .LVU59
	add	r5, r5, r6
.LVL22:
	.loc 1 468 5 is_stmt 1 view .LVU60
	.loc 1 469 4 view .LVU61
.LBB124:
.LBI124:
	.loc 2 83 216 view .LVU62
.LBB125:
	.loc 2 83 292 view .LVU63
	.loc 2 83 299 is_stmt 0 view .LVU64
	mov	r2, r5
	add	r1, r8, r9
.LVL23:
	.loc 2 83 299 view .LVU65
	ldr	r0, [r4, #4]
	bl	memcpy
.LVL24:
	.loc 2 83 299 view .LVU66
.LBE125:
.LBE124:
	.loc 1 470 5 is_stmt 1 view .LVU67
	.loc 1 471 5 view .LVU68
	.loc 1 471 18 is_stmt 0 view .LVU69
	str	r5, [r4, #12]
	.loc 1 474 1 view .LVU70
	b	.L4
	.cfi_endproc
.LFE506:
	.size	_WriteNoCheck, .-_WriteNoCheck
	.section	.text._WriteBlocking,"ax",%progbits
	.align	1
	.syntax unified
	.thumb
	.thumb_func
	.fpu fpv4-sp-d16
	.type	_WriteBlocking, %function
_WriteBlocking:
.LVL25:
.LFB505:
	.loc 1 359 101 is_stmt 1 view -0
	.cfi_startproc
	@ args = 0, pretend = 0, frame = 0
	@ frame_needed = 0, uses_anonymous_args = 0
	.loc 1 359 101 is_stmt 0 view .LVU72
	push	{r3, r4, r5, r6, r7, r8, r9, lr}
	.cfi_def_cfa_offset 32
	.cfi_offset 3, -32
	.cfi_offset 4, -28
	.cfi_offset 5, -24
	.cfi_offset 6, -20
	.cfi_offset 7, -16
	.cfi_offset 8, -12
	.cfi_offset 9, -8
	.cfi_offset 14, -4
	mov	r6, r0
	mov	r8, r1
	mov	r7, r2
	.loc 1 360 3 is_stmt 1 view .LVU73
	.loc 1 361 3 view .LVU74
	.loc 1 362 3 view .LVU75
	.loc 1 363 3 view .LVU76
	.loc 1 364 3 view .LVU77
	.loc 1 368 3 view .LVU78
.LVL26:
	.loc 1 369 3 view .LVU79
	.loc 1 369 9 is_stmt 0 view .LVU80
	ldr	r5, [r0, #12]
.LVL27:
	.loc 1 368 19 view .LVU81
	mov	r9, #0
	b	.L12
.LVL28:
.L17:
	.loc 1 373 7 is_stmt 1 view .LVU82
	.loc 1 373 31 is_stmt 0 view .LVU83
	subs	r4, r4, r5
.LVL29:
	.loc 1 373 23 view .LVU84
	subs	r2, r4, #1
.LVL30:
.L10:
	.loc 1 377 5 is_stmt 1 view .LVU85
	.loc 1 377 52 is_stmt 0 view .LVU86
	ldr	r3, [r6, #8]
	.loc 1 377 67 view .LVU87
	subs	r4, r3, r5
	.loc 1 377 21 view .LVU88
	cmp	r4, r2
	it	cs
	movcs	r4, r2
.LVL31:
	.loc 1 378 5 is_stmt 1 view .LVU89
	.loc 1 378 21 is_stmt 0 view .LVU90
	cmp	r4, r7
	it	cs
	movcs	r4, r7
.LVL32:
	.loc 1 379 5 is_stmt 1 view .LVU91
	.loc 1 379 18 is_stmt 0 view .LVU92
	ldr	r0, [r6, #4]
.LVL33:
	.loc 1 388 4 is_stmt 1 view .LVU93
.LBB126:
.LBI126:
	.loc 2 83 216 view .LVU94
.LBB127:
	.loc 2 83 292 view .LVU95
	.loc 2 83 299 is_stmt 0 view .LVU96
	mov	r2, r4
	mov	r1, r8
	add	r0, r0, r5
.LVL34:
	.loc 2 83 299 view .LVU97
	bl	memcpy
.LVL35:
	.loc 2 83 299 view .LVU98
.LBE127:
.LBE126:
	.loc 1 389 5 is_stmt 1 view .LVU99
	.loc 1 389 21 is_stmt 0 view .LVU100
	add	r9, r9, r4
.LVL36:
	.loc 1 390 5 is_stmt 1 view .LVU101
	.loc 1 390 13 is_stmt 0 view .LVU102
	add	r8, r8, r4
.LVL37:
	.loc 1 391 5 is_stmt 1 view .LVU103
	.loc 1 391 14 is_stmt 0 view .LVU104
	subs	r7, r7, r4
.LVL38:
	.loc 1 392 5 is_stmt 1 view .LVU105
	.loc 1 392 11 is_stmt 0 view .LVU106
	add	r5, r5, r4
.LVL39:
	.loc 1 394 5 is_stmt 1 view .LVU107
	.loc 1 394 23 is_stmt 0 view .LVU108
	ldr	r3, [r6, #8]
	.loc 1 394 8 view .LVU109
	cmp	r3, r5
	beq	.L15
.LVL40:
.L11:
	.loc 1 397 5 is_stmt 1 view .LVU110
	.loc 1 398 5 view .LVU111
	.loc 1 398 18 is_stmt 0 view .LVU112
	str	r5, [r6, #12]
	.loc 1 399 11 is_stmt 1 view .LVU113
	.loc 1 399 3 is_stmt 0 view .LVU114
	cbz	r7, .L16
.LVL41:
.L12:
	.loc 1 370 3 is_stmt 1 view .LVU115
	.loc 1 371 5 view .LVU116
	.loc 1 371 11 is_stmt 0 view .LVU117
	ldr	r4, [r6, #16]
.LVL42:
	.loc 1 372 5 is_stmt 1 view .LVU118
	.loc 1 372 8 is_stmt 0 view .LVU119
	cmp	r5, r4
	bcc	.L17
	.loc 1 375 7 is_stmt 1 view .LVU120
	.loc 1 375 30 is_stmt 0 view .LVU121
	ldr	r2, [r6, #8]
	.loc 1 375 62 view .LVU122
	subs	r4, r4, r5
.LVL43:
	.loc 1 375 45 view .LVU123
	add	r4, r4, r2
	.loc 1 375 23 view .LVU124
	subs	r2, r4, #1
.LVL44:
	.loc 1 375 23 view .LVU125
	b	.L10
.LVL45:
.L15:
	.loc 1 395 13 view .LVU126
	movs	r5, #0
.LVL46:
	.loc 1 395 13 view .LVU127
	b	.L11
.LVL47:
.L16:
	.loc 1 400 3 is_stmt 1 view .LVU128
	.loc 1 401 1 is_stmt 0 view .LVU129
	mov	r0, r9
	pop	{r3, r4, r5, r6, r7, r8, r9, pc}
	.loc 1 401 1 view .LVU130
	.cfi_endproc
.LFE505:
	.size	_WriteBlocking, .-_WriteBlocking
	.section	.text._PostTerminalSwitch,"ax",%progbits
	.align	1
	.syntax unified
	.thumb
	.thumb_func
	.fpu fpv4-sp-d16
	.type	_PostTerminalSwitch, %function
_PostTerminalSwitch:
.LVL48:
.LFB507:
	.loc 1 489 88 is_stmt 1 view -0
	.cfi_startproc
	@ args = 0, pretend = 0, frame = 8
	@ frame_needed = 0, uses_anonymous_args = 0
	.loc 1 489 88 is_stmt 0 view .LVU132
	push	{lr}
	.cfi_def_cfa_offset 4
	.cfi_offset 14, -4
	sub	sp, sp, #12
	.cfi_def_cfa_offset 16
	.loc 1 490 3 is_stmt 1 view .LVU133
	.loc 1 492 3 view .LVU134
	.loc 1 492 9 is_stmt 0 view .LVU135
	movs	r3, #255
	strb	r3, [sp, #4]
	.loc 1 493 3 is_stmt 1 view .LVU136
	.loc 1 493 23 is_stmt 0 view .LVU137
	ldr	r3, .L20
	ldrb	r3, [r3, r1]	@ zero_extendqisi2
	.loc 1 493 9 view .LVU138
	strb	r3, [sp, #5]
	.loc 1 494 3 is_stmt 1 view .LVU139
	movs	r2, #2
	add	r1, sp, #4
.LVL49:
	.loc 1 494 3 is_stmt 0 view .LVU140
	bl	_WriteBlocking
.LVL50:
	.loc 1 495 1 view .LVU141
	add	sp, sp, #12
	.cfi_def_cfa_offset 4
	@ sp needed
	ldr	pc, [sp], #4
.L21:
	.align	2
.L20:
	.word	.LANCHOR0
	.cfi_endproc
.LFE507:
	.size	_PostTerminalSwitch, .-_PostTerminalSwitch
	.section	.rodata._DoInit.str1.4,"aMS",%progbits,1
	.align	2
.LC0:
	.ascii	"Terminal\000"
	.align	2
.LC1:
	.ascii	"RTT\000"
	.align	2
.LC2:
	.ascii	"SEGGER\000"
	.section	.text._DoInit,"ax",%progbits
	.align	1
	.syntax unified
	.thumb
	.thumb_func
	.fpu fpv4-sp-d16
	.type	_DoInit, %function
_DoInit:
.LFB504:
	.loc 1 301 27 is_stmt 1 view -0
	.cfi_startproc
	@ args = 0, pretend = 0, frame = 0
	@ frame_needed = 0, uses_anonymous_args = 0
	@ link register save eliminated.
	.loc 1 302 3 view .LVU143
	.loc 1 306 3 view .LVU144
.LVL51:
	.loc 1 307 3 view .LVU145
	.loc 1 307 22 is_stmt 0 view .LVU146
	ldr	r3, .L23
	movs	r2, #3
	str	r2, [r3, #16]
	.loc 1 308 3 is_stmt 1 view .LVU147
	.loc 1 308 24 is_stmt 0 view .LVU148
	str	r2, [r3, #20]
	.loc 1 312 3 is_stmt 1 view .LVU149
	.loc 1 312 19 is_stmt 0 view .LVU150
	ldr	r1, .L23+4
	str	r1, [r3, #24]
	.loc 1 313 3 is_stmt 1 view .LVU151
	.loc 1 313 21 is_stmt 0 view .LVU152
	ldr	r2, .L23+8
	str	r2, [r3, #28]
	.loc 1 314 3 is_stmt 1 view .LVU153
	.loc 1 314 26 is_stmt 0 view .LVU154
	mov	r2, #1024
	str	r2, [r3, #32]
	.loc 1 315 3 is_stmt 1 view .LVU155
	.loc 1 315 19 is_stmt 0 view .LVU156
	movs	r2, #0
	str	r2, [r3, #40]
	.loc 1 316 3 is_stmt 1 view .LVU157
	.loc 1 316 19 is_stmt 0 view .LVU158
	str	r2, [r3, #36]
	.loc 1 317 3 is_stmt 1 view .LVU159
	.loc 1 317 19 is_stmt 0 view .LVU160
	str	r2, [r3, #44]
	.loc 1 321 3 is_stmt 1 view .LVU161
	.loc 1 321 21 is_stmt 0 view .LVU162
	str	r1, [r3, #96]
	.loc 1 322 3 is_stmt 1 view .LVU163
	.loc 1 322 23 is_stmt 0 view .LVU164
	ldr	r1, .L23+12
	str	r1, [r3, #100]
	.loc 1 323 3 is_stmt 1 view .LVU165
	.loc 1 323 28 is_stmt 0 view .LVU166
	movs	r1, #16
	str	r1, [r3, #104]
	.loc 1 324 3 is_stmt 1 view .LVU167
	.loc 1 324 21 is_stmt 0 view .LVU168
	str	r2, [r3, #112]
	.loc 1 325 3 is_stmt 1 view .LVU169
	.loc 1 325 21 is_stmt 0 view .LVU170
	str	r2, [r3, #108]
	.loc 1 326 3 is_stmt 1 view .LVU171
	.loc 1 326 21 is_stmt 0 view .LVU172
	str	r2, [r3, #116]
	.loc 1 332 2 is_stmt 1 view .LVU173
	.loc 1 332 24 is_stmt 0 view .LVU174
	ldr	r2, .L23+16
	ldr	r0, [r2]
	str	r0, [r3, #7]	@ unaligned
	.loc 1 333 3 is_stmt 1 view .LVU175
	.loc 1 334 2 view .LVU176
	.loc 1 334 24 is_stmt 0 view .LVU177
	ldr	r2, .L23+20
	ldm	r2, {r0, r1}
	str	r0, [r3]
	strh	r1, [r3, #4]	@ movhi
	.loc 1 335 3 is_stmt 1 view .LVU178
	.loc 1 336 3 view .LVU179
	.loc 1 336 14 is_stmt 0 view .LVU180
	movs	r2, #32
	strb	r2, [r3, #6]
	.loc 1 337 3 is_stmt 1 view .LVU181
	.loc 1 338 1 is_stmt 0 view .LVU182
	bx	lr
.L24:
	.align	2
.L23:
	.word	.LANCHOR1
	.word	.LC0
	.word	.LANCHOR2
	.word	.LANCHOR3
	.word	.LC1
	.word	.LC2
	.cfi_endproc
.LFE504:
	.size	_DoInit, .-_DoInit
	.section	.text.SEGGER_RTT_ReadUpBufferNoLock,"ax",%progbits
	.align	1
	.global	SEGGER_RTT_ReadUpBufferNoLock
	.syntax unified
	.thumb
	.thumb_func
	.fpu fpv4-sp-d16
	.type	SEGGER_RTT_ReadUpBufferNoLock, %function
SEGGER_RTT_ReadUpBufferNoLock:
.LVL52:
.LFB509:
	.loc 1 558 96 is_stmt 1 view -0
	.cfi_startproc
	@ args = 0, pretend = 0, frame = 0
	@ frame_needed = 0, uses_anonymous_args = 0
	.loc 1 558 96 is_stmt 0 view .LVU184
	push	{r4, r5, r6, r7, r8, r9, r10, lr}
	.cfi_def_cfa_offset 32
	.cfi_offset 4, -32
	.cfi_offset 5, -28
	.cfi_offset 6, -24
	.cfi_offset 7, -20
	.cfi_offset 8, -16
	.cfi_offset 9, -12
	.cfi_offset 10, -8
	.cfi_offset 14, -4
	mov	r4, r0
	mov	r10, r1
	mov	r9, r2
	.loc 1 559 3 is_stmt 1 view .LVU185
	.loc 1 560 3 view .LVU186
	.loc 1 561 3 view .LVU187
	.loc 1 562 3 view .LVU188
	.loc 1 563 3 view .LVU189
	.loc 1 564 3 view .LVU190
	.loc 1 565 3 view .LVU191
.LBB128:
	.loc 1 567 5 view .LVU192
	.loc 1 567 41 view .LVU193
.LVL53:
	.loc 1 567 108 view .LVU194
	.loc 1 567 113 view .LVU195
	.loc 1 567 133 is_stmt 0 view .LVU196
	ldr	r3, .L34
	ldrb	r3, [r3]	@ zero_extendqisi2
	.loc 1 567 116 view .LVU197
	cbz	r3, .L33
.LVL54:
.L26:
	.loc 1 567 169 is_stmt 1 discriminator 3 view .LVU198
.LBE128:
	.loc 1 567 175 discriminator 3 view .LVU199
	.loc 1 568 3 discriminator 3 view .LVU200
	.loc 1 569 3 discriminator 3 view .LVU201
	.loc 1 570 3 discriminator 3 view .LVU202
	.loc 1 570 9 is_stmt 0 discriminator 3 view .LVU203
	add	r3, r4, r4, lsl #1
	ldr	r2, .L34
	add	r3, r2, r3, lsl #3
	ldr	r8, [r3, #40]
.LVL55:
	.loc 1 571 3 is_stmt 1 discriminator 3 view .LVU204
	.loc 1 571 9 is_stmt 0 discriminator 3 view .LVU205
	ldr	r6, [r3, #36]
.LVL56:
	.loc 1 572 3 is_stmt 1 discriminator 3 view .LVU206
	.loc 1 576 3 discriminator 3 view .LVU207
	.loc 1 576 6 is_stmt 0 discriminator 3 view .LVU208
	cmp	r8, r6
	bls	.L30
	.loc 1 577 5 is_stmt 1 view .LVU209
	.loc 1 577 24 is_stmt 0 view .LVU210
	mov	r3, r2
	add	r5, r4, r4, lsl #1
	add	r5, r2, r5, lsl #3
	ldr	r7, [r5, #32]
	.loc 1 577 17 view .LVU211
	sub	r7, r7, r8
.LVL57:
	.loc 1 578 5 is_stmt 1 view .LVU212
	.loc 1 578 17 is_stmt 0 view .LVU213
	cmp	r7, r9
	it	cs
	movcs	r7, r9
.LVL58:
	.loc 1 579 5 is_stmt 1 view .LVU214
	.loc 1 579 18 is_stmt 0 view .LVU215
	adds	r2, r4, #1
	add	r2, r2, r2, lsl #1
	add	r3, r3, r2, lsl #3
	ldr	r1, [r3, #4]
.LVL59:
	.loc 1 588 4 is_stmt 1 view .LVU216
.LBB129:
.LBI129:
	.loc 2 83 216 view .LVU217
.LBB130:
	.loc 2 83 292 view .LVU218
	.loc 2 83 299 is_stmt 0 view .LVU219
	mov	r2, r7
	add	r1, r1, r8
.LVL60:
	.loc 2 83 299 view .LVU220
	mov	r0, r10
	bl	memcpy
.LVL61:
	.loc 2 83 299 view .LVU221
.LBE130:
.LBE129:
	.loc 1 589 5 is_stmt 1 view .LVU222
	.loc 1 590 5 view .LVU223
	.loc 1 590 13 is_stmt 0 view .LVU224
	add	r10, r10, r7
.LVL62:
	.loc 1 591 5 is_stmt 1 view .LVU225
	.loc 1 591 16 is_stmt 0 view .LVU226
	sub	r9, r9, r7
.LVL63:
	.loc 1 592 5 is_stmt 1 view .LVU227
	.loc 1 592 11 is_stmt 0 view .LVU228
	add	r8, r8, r7
.LVL64:
	.loc 1 597 5 is_stmt 1 view .LVU229
	.loc 1 597 23 is_stmt 0 view .LVU230
	ldr	r3, [r5, #32]
	.loc 1 597 8 view .LVU231
	cmp	r3, r8
	bne	.L27
	.loc 1 598 13 view .LVU232
	mov	r8, #0
.LVL65:
	.loc 1 598 13 view .LVU233
	b	.L27
.LVL66:
.L33:
.LBB131:
	.loc 1 567 148 is_stmt 1 discriminator 1 view .LVU234
	bl	_DoInit
.LVL67:
	.loc 1 567 148 is_stmt 0 discriminator 1 view .LVU235
	b	.L26
.LVL68:
.L30:
	.loc 1 567 148 discriminator 1 view .LVU236
.LBE131:
	.loc 1 572 16 view .LVU237
	movs	r7, #0
.LVL69:
.L27:
	.loc 1 604 3 is_stmt 1 view .LVU238
	.loc 1 604 15 is_stmt 0 view .LVU239
	sub	r5, r6, r8
.LVL70:
	.loc 1 605 3 is_stmt 1 view .LVU240
	.loc 1 605 15 is_stmt 0 view .LVU241
	cmp	r5, r9
	it	cs
	movcs	r5, r9
.LVL71:
	.loc 1 606 3 is_stmt 1 view .LVU242
	.loc 1 606 6 is_stmt 0 view .LVU243
	cbz	r5, .L28
	.loc 1 607 5 is_stmt 1 view .LVU244
	.loc 1 607 18 is_stmt 0 view .LVU245
	adds	r3, r4, #1
	add	r3, r3, r3, lsl #1
	ldr	r2, .L34
	add	r3, r2, r3, lsl #3
	ldr	r1, [r3, #4]
.LVL72:
	.loc 1 616 4 is_stmt 1 view .LVU246
.LBB132:
.LBI132:
	.loc 2 83 216 view .LVU247
.LBB133:
	.loc 2 83 292 view .LVU248
	.loc 2 83 299 is_stmt 0 view .LVU249
	mov	r2, r5
	add	r1, r1, r8
.LVL73:
	.loc 2 83 299 view .LVU250
	mov	r0, r10
	bl	memcpy
.LVL74:
	.loc 2 83 299 view .LVU251
.LBE133:
.LBE132:
	.loc 1 617 5 is_stmt 1 view .LVU252
	.loc 1 617 18 is_stmt 0 view .LVU253
	add	r7, r7, r5
.LVL75:
	.loc 1 618 5 is_stmt 1 view .LVU254
	.loc 1 619 5 view .LVU255
	.loc 1 620 5 view .LVU256
	.loc 1 620 11 is_stmt 0 view .LVU257
	add	r8, r8, r5
.LVL76:
.L28:
	.loc 1 626 3 is_stmt 1 view .LVU258
	.loc 1 626 6 is_stmt 0 view .LVU259
	cbz	r7, .L25
	.loc 1 627 5 is_stmt 1 view .LVU260
	.loc 1 627 18 is_stmt 0 view .LVU261
	add	r4, r4, r4, lsl #1
.LVL77:
	.loc 1 627 18 view .LVU262
	ldr	r0, .L34
	add	r4, r0, r4, lsl #3
	str	r8, [r4, #40]
	.loc 1 630 3 is_stmt 1 view .LVU263
.L25:
	.loc 1 631 1 is_stmt 0 view .LVU264
	mov	r0, r7
	pop	{r4, r5, r6, r7, r8, r9, r10, pc}
.LVL78:
.L35:
	.loc 1 631 1 view .LVU265
	.align	2
.L34:
	.word	.LANCHOR1
	.cfi_endproc
.LFE509:
	.size	SEGGER_RTT_ReadUpBufferNoLock, .-SEGGER_RTT_ReadUpBufferNoLock
	.section	.text.SEGGER_RTT_ReadNoLock,"ax",%progbits
	.align	1
	.global	SEGGER_RTT_ReadNoLock
	.syntax unified
	.thumb
	.thumb_func
	.fpu fpv4-sp-d16
	.type	SEGGER_RTT_ReadNoLock, %function
SEGGER_RTT_ReadNoLock:
.LVL79:
.LFB510:
	.loc 1 650 88 is_stmt 1 view -0
	.cfi_startproc
	@ args = 0, pretend = 0, frame = 0
	@ frame_needed = 0, uses_anonymous_args = 0
	.loc 1 650 88 is_stmt 0 view .LVU267
	push	{r4, r5, r6, r7, r8, r9, r10, lr}
	.cfi_def_cfa_offset 32
	.cfi_offset 4, -32
	.cfi_offset 5, -28
	.cfi_offset 6, -24
	.cfi_offset 7, -20
	.cfi_offset 8, -16
	.cfi_offset 9, -12
	.cfi_offset 10, -8
	.cfi_offset 14, -4
	mov	r4, r0
	mov	r10, r1
	mov	r9, r2
	.loc 1 651 3 is_stmt 1 view .LVU268
	.loc 1 652 3 view .LVU269
	.loc 1 653 3 view .LVU270
	.loc 1 654 3 view .LVU271
	.loc 1 655 3 view .LVU272
	.loc 1 656 3 view .LVU273
	.loc 1 657 3 view .LVU274
.LBB134:
	.loc 1 659 5 view .LVU275
	.loc 1 659 41 view .LVU276
.LVL80:
	.loc 1 659 108 view .LVU277
	.loc 1 659 113 view .LVU278
	.loc 1 659 133 is_stmt 0 view .LVU279
	ldr	r3, .L45
	ldrb	r3, [r3]	@ zero_extendqisi2
	.loc 1 659 116 view .LVU280
	cbz	r3, .L44
.LVL81:
.L37:
	.loc 1 659 169 is_stmt 1 discriminator 3 view .LVU281
.LBE134:
	.loc 1 659 175 discriminator 3 view .LVU282
	.loc 1 660 3 discriminator 3 view .LVU283
	.loc 1 661 3 discriminator 3 view .LVU284
	.loc 1 662 3 discriminator 3 view .LVU285
	.loc 1 662 9 is_stmt 0 discriminator 3 view .LVU286
	add	r3, r4, r4, lsl #1
	ldr	r2, .L45
	add	r3, r2, r3, lsl #3
	ldr	r8, [r3, #112]
.LVL82:
	.loc 1 663 3 is_stmt 1 discriminator 3 view .LVU287
	.loc 1 663 9 is_stmt 0 discriminator 3 view .LVU288
	ldr	r6, [r3, #108]
.LVL83:
	.loc 1 664 3 is_stmt 1 discriminator 3 view .LVU289
	.loc 1 668 3 discriminator 3 view .LVU290
	.loc 1 668 6 is_stmt 0 discriminator 3 view .LVU291
	cmp	r8, r6
	bls	.L41
	.loc 1 669 5 is_stmt 1 view .LVU292
	.loc 1 669 24 is_stmt 0 view .LVU293
	add	r5, r4, r4, lsl #1
	add	r5, r2, r5, lsl #3
	ldr	r7, [r5, #104]
	.loc 1 669 17 view .LVU294
	sub	r7, r7, r8
.LVL84:
	.loc 1 670 5 is_stmt 1 view .LVU295
	.loc 1 670 17 is_stmt 0 view .LVU296
	cmp	r7, r9
	it	cs
	movcs	r7, r9
.LVL85:
	.loc 1 671 5 is_stmt 1 view .LVU297
	.loc 1 671 18 is_stmt 0 view .LVU298
	ldr	r1, [r5, #100]
.LVL86:
	.loc 1 680 4 is_stmt 1 view .LVU299
.LBB135:
.LBI135:
	.loc 2 83 216 view .LVU300
.LBB136:
	.loc 2 83 292 view .LVU301
	.loc 2 83 299 is_stmt 0 view .LVU302
	mov	r2, r7
	add	r1, r1, r8
.LVL87:
	.loc 2 83 299 view .LVU303
	mov	r0, r10
	bl	memcpy
.LVL88:
	.loc 2 83 299 view .LVU304
.LBE136:
.LBE135:
	.loc 1 681 5 is_stmt 1 view .LVU305
	.loc 1 682 5 view .LVU306
	.loc 1 682 13 is_stmt 0 view .LVU307
	add	r10, r10, r7
.LVL89:
	.loc 1 683 5 is_stmt 1 view .LVU308
	.loc 1 683 16 is_stmt 0 view .LVU309
	sub	r9, r9, r7
.LVL90:
	.loc 1 684 5 is_stmt 1 view .LVU310
	.loc 1 684 11 is_stmt 0 view .LVU311
	add	r8, r8, r7
.LVL91:
	.loc 1 689 5 is_stmt 1 view .LVU312
	.loc 1 689 23 is_stmt 0 view .LVU313
	ldr	r3, [r5, #104]
	.loc 1 689 8 view .LVU314
	cmp	r3, r8
	bne	.L38
	.loc 1 690 13 view .LVU315
	mov	r8, #0
.LVL92:
	.loc 1 690 13 view .LVU316
	b	.L38
.LVL93:
.L44:
.LBB137:
	.loc 1 659 148 is_stmt 1 discriminator 1 view .LVU317
	bl	_DoInit
.LVL94:
	.loc 1 659 148 is_stmt 0 discriminator 1 view .LVU318
	b	.L37
.LVL95:
.L41:
	.loc 1 659 148 discriminator 1 view .LVU319
.LBE137:
	.loc 1 664 16 view .LVU320
	movs	r7, #0
.LVL96:
.L38:
	.loc 1 696 3 is_stmt 1 view .LVU321
	.loc 1 696 15 is_stmt 0 view .LVU322
	sub	r5, r6, r8
.LVL97:
	.loc 1 697 3 is_stmt 1 view .LVU323
	.loc 1 697 15 is_stmt 0 view .LVU324
	cmp	r5, r9
	it	cs
	movcs	r5, r9
.LVL98:
	.loc 1 698 3 is_stmt 1 view .LVU325
	.loc 1 698 6 is_stmt 0 view .LVU326
	cbz	r5, .L39
	.loc 1 699 5 is_stmt 1 view .LVU327
	.loc 1 699 18 is_stmt 0 view .LVU328
	add	r3, r4, r4, lsl #1
	ldr	r2, .L45
	add	r3, r2, r3, lsl #3
	ldr	r1, [r3, #100]
.LVL99:
	.loc 1 708 4 is_stmt 1 view .LVU329
.LBB138:
.LBI138:
	.loc 2 83 216 view .LVU330
.LBB139:
	.loc 2 83 292 view .LVU331
	.loc 2 83 299 is_stmt 0 view .LVU332
	mov	r2, r5
	add	r1, r1, r8
.LVL100:
	.loc 2 83 299 view .LVU333
	mov	r0, r10
	bl	memcpy
.LVL101:
	.loc 2 83 299 view .LVU334
.LBE139:
.LBE138:
	.loc 1 709 5 is_stmt 1 view .LVU335
	.loc 1 709 18 is_stmt 0 view .LVU336
	add	r7, r7, r5
.LVL102:
	.loc 1 710 5 is_stmt 1 view .LVU337
	.loc 1 711 5 view .LVU338
	.loc 1 712 5 view .LVU339
	.loc 1 712 11 is_stmt 0 view .LVU340
	add	r8, r8, r5
.LVL103:
.L39:
	.loc 1 715 3 is_stmt 1 view .LVU341
	.loc 1 715 6 is_stmt 0 view .LVU342
	cbz	r7, .L36
	.loc 1 716 5 is_stmt 1 view .LVU343
	.loc 1 716 18 is_stmt 0 view .LVU344
	add	r4, r4, r4, lsl #1
.LVL104:
	.loc 1 716 18 view .LVU345
	ldr	r0, .L45
	add	r4, r0, r4, lsl #3
	str	r8, [r4, #112]
	.loc 1 719 3 is_stmt 1 view .LVU346
.L36:
	.loc 1 720 1 is_stmt 0 view .LVU347
	mov	r0, r7
	pop	{r4, r5, r6, r7, r8, r9, r10, pc}
.LVL105:
.L46:
	.loc 1 720 1 view .LVU348
	.align	2
.L45:
	.word	.LANCHOR1
	.cfi_endproc
.LFE510:
	.size	SEGGER_RTT_ReadNoLock, .-SEGGER_RTT_ReadNoLock
	.section	.text.SEGGER_RTT_ReadUpBuffer,"ax",%progbits
	.align	1
	.global	SEGGER_RTT_ReadUpBuffer
	.syntax unified
	.thumb
	.thumb_func
	.fpu fpv4-sp-d16
	.type	SEGGER_RTT_ReadUpBuffer, %function
SEGGER_RTT_ReadUpBuffer:
.LVL106:
.LFB511:
	.loc 1 747 92 is_stmt 1 view -0
	.cfi_startproc
	@ args = 0, pretend = 0, frame = 0
	@ frame_needed = 0, uses_anonymous_args = 0
	.loc 1 747 92 is_stmt 0 view .LVU350
	push	{r3, r4, r5, r6, r7, lr}
	.cfi_def_cfa_offset 24
	.cfi_offset 3, -24
	.cfi_offset 4, -20
	.cfi_offset 5, -16
	.cfi_offset 6, -12
	.cfi_offset 7, -8
	.cfi_offset 14, -4
	mov	r4, r0
	mov	r5, r1
	mov	r6, r2
	.loc 1 748 3 is_stmt 1 view .LVU351
	.loc 1 750 3 view .LVU352
.LVL107:
.LBB140:
.LBI140:
	.file 3 "/home/sebin/thesis/dmz/zephyr_xmc_template/build/zephyr/include/generated/syscalls/kernel.h"
	.loc 3 899 19 view .LVU353
.LBB141:
	.loc 3 909 2 view .LVU354
	.loc 3 909 7 view .LVU355
	.loc 3 909 55 view .LVU356
	.loc 3 910 2 view .LVU357
	.loc 3 910 9 is_stmt 0 view .LVU358
	ldr	r7, .L49
	mov	r2, #-1
.LVL108:
	.loc 3 910 9 view .LVU359
	mov	r3, #-1
	mov	r0, r7
.LVL109:
	.loc 3 910 9 view .LVU360
	bl	z_impl_k_mutex_lock
.LVL110:
	.loc 3 910 9 view .LVU361
.LBE141:
.LBE140:
	.loc 1 750 82 is_stmt 1 view .LVU362
	.loc 1 754 3 view .LVU363
	.loc 1 754 18 is_stmt 0 view .LVU364
	mov	r2, r6
	mov	r1, r5
	mov	r0, r4
	bl	SEGGER_RTT_ReadUpBufferNoLock
.LVL111:
	mov	r4, r0
.LVL112:
	.loc 1 758 3 is_stmt 1 view .LVU365
.LBB142:
.LBI142:
	.loc 3 917 19 view .LVU366
.LBB143:
	.loc 3 925 2 view .LVU367
	.loc 3 925 7 view .LVU368
	.loc 3 925 55 view .LVU369
	.loc 3 926 2 view .LVU370
	.loc 3 926 9 is_stmt 0 view .LVU371
	mov	r0, r7
.LVL113:
	.loc 3 926 9 view .LVU372
	bl	z_impl_k_mutex_unlock
.LVL114:
	.loc 3 926 9 view .LVU373
.LBE143:
.LBE142:
	.loc 1 758 35 is_stmt 1 view .LVU374
	.loc 1 760 3 view .LVU375
	.loc 1 761 1 is_stmt 0 view .LVU376
	mov	r0, r4
	pop	{r3, r4, r5, r6, r7, pc}
.LVL115:
.L50:
	.loc 1 761 1 view .LVU377
	.align	2
.L49:
	.word	rtt_term_mutex
	.cfi_endproc
.LFE511:
	.size	SEGGER_RTT_ReadUpBuffer, .-SEGGER_RTT_ReadUpBuffer
	.section	.text.SEGGER_RTT_Read,"ax",%progbits
	.align	1
	.global	SEGGER_RTT_Read
	.syntax unified
	.thumb
	.thumb_func
	.fpu fpv4-sp-d16
	.type	SEGGER_RTT_Read, %function
SEGGER_RTT_Read:
.LVL116:
.LFB512:
	.loc 1 779 84 is_stmt 1 view -0
	.cfi_startproc
	@ args = 0, pretend = 0, frame = 0
	@ frame_needed = 0, uses_anonymous_args = 0
	.loc 1 779 84 is_stmt 0 view .LVU379
	push	{r3, r4, r5, r6, r7, lr}
	.cfi_def_cfa_offset 24
	.cfi_offset 3, -24
	.cfi_offset 4, -20
	.cfi_offset 5, -16
	.cfi_offset 6, -12
	.cfi_offset 7, -8
	.cfi_offset 14, -4
	mov	r4, r0
	mov	r5, r1
	mov	r6, r2
	.loc 1 780 3 is_stmt 1 view .LVU380
	.loc 1 782 3 view .LVU381
.LVL117:
.LBB144:
.LBI144:
	.loc 3 899 19 view .LVU382
.LBB145:
	.loc 3 909 2 view .LVU383
	.loc 3 909 7 view .LVU384
	.loc 3 909 55 view .LVU385
	.loc 3 910 2 view .LVU386
	.loc 3 910 9 is_stmt 0 view .LVU387
	ldr	r7, .L53
	mov	r2, #-1
.LVL118:
	.loc 3 910 9 view .LVU388
	mov	r3, #-1
	mov	r0, r7
.LVL119:
	.loc 3 910 9 view .LVU389
	bl	z_impl_k_mutex_lock
.LVL120:
	.loc 3 910 9 view .LVU390
.LBE145:
.LBE144:
	.loc 1 782 82 is_stmt 1 view .LVU391
	.loc 1 786 3 view .LVU392
	.loc 1 786 18 is_stmt 0 view .LVU393
	mov	r2, r6
	mov	r1, r5
	mov	r0, r4
	bl	SEGGER_RTT_ReadNoLock
.LVL121:
	mov	r4, r0
.LVL122:
	.loc 1 790 3 is_stmt 1 view .LVU394
.LBB146:
.LBI146:
	.loc 3 917 19 view .LVU395
.LBB147:
	.loc 3 925 2 view .LVU396
	.loc 3 925 7 view .LVU397
	.loc 3 925 55 view .LVU398
	.loc 3 926 2 view .LVU399
	.loc 3 926 9 is_stmt 0 view .LVU400
	mov	r0, r7
.LVL123:
	.loc 3 926 9 view .LVU401
	bl	z_impl_k_mutex_unlock
.LVL124:
	.loc 3 926 9 view .LVU402
.LBE147:
.LBE146:
	.loc 1 790 35 is_stmt 1 view .LVU403
	.loc 1 792 3 view .LVU404
	.loc 1 793 1 is_stmt 0 view .LVU405
	mov	r0, r4
	pop	{r3, r4, r5, r6, r7, pc}
.LVL125:
.L54:
	.loc 1 793 1 view .LVU406
	.align	2
.L53:
	.word	rtt_term_mutex
	.cfi_endproc
.LFE512:
	.size	SEGGER_RTT_Read, .-SEGGER_RTT_Read
	.section	.text.SEGGER_RTT_WriteWithOverwriteNoLock,"ax",%progbits
	.align	1
	.global	SEGGER_RTT_WriteWithOverwriteNoLock
	.syntax unified
	.thumb
	.thumb_func
	.fpu fpv4-sp-d16
	.type	SEGGER_RTT_WriteWithOverwriteNoLock, %function
SEGGER_RTT_WriteWithOverwriteNoLock:
.LVL126:
.LFB513:
	.loc 1 818 104 is_stmt 1 view -0
	.cfi_startproc
	@ args = 0, pretend = 0, frame = 0
	@ frame_needed = 0, uses_anonymous_args = 0
	.loc 1 818 104 is_stmt 0 view .LVU408
	push	{r3, r4, r5, r6, r7, r8, r9, lr}
	.cfi_def_cfa_offset 32
	.cfi_offset 3, -32
	.cfi_offset 4, -28
	.cfi_offset 5, -24
	.cfi_offset 6, -20
	.cfi_offset 7, -16
	.cfi_offset 8, -12
	.cfi_offset 9, -8
	.cfi_offset 14, -4
	mov	r6, r0
	mov	r8, r1
	mov	r7, r2
	.loc 1 819 3 is_stmt 1 view .LVU409
	.loc 1 820 3 view .LVU410
	.loc 1 821 3 view .LVU411
	.loc 1 822 3 view .LVU412
	.loc 1 826 3 view .LVU413
.LVL127:
	.loc 1 827 3 view .LVU414
	.loc 1 831 3 view .LVU415
	.loc 1 831 12 is_stmt 0 view .LVU416
	add	r2, r0, r0, lsl #1
.LVL128:
	.loc 1 831 12 view .LVU417
	ldr	r3, .L68
	add	r3, r3, r2, lsl #3
	ldr	r1, [r3, #36]
.LVL129:
	.loc 1 831 28 view .LVU418
	ldr	r3, [r3, #40]
	.loc 1 831 6 view .LVU419
	cmp	r1, r3
	beq	.L66
	.loc 1 833 10 is_stmt 1 view .LVU420
	.loc 1 833 35 is_stmt 0 view .LVU421
	add	r3, r0, r0, lsl #1
	ldr	r2, .L68
	add	r3, r2, r3, lsl #3
	ldr	r3, [r3, #40]
	.loc 1 833 13 view .LVU422
	cmp	r1, r3
	bcs	.L58
	.loc 1 834 5 is_stmt 1 view .LVU423
	.loc 1 834 18 is_stmt 0 view .LVU424
	add	r3, r0, r0, lsl #1
	add	r3, r2, r3, lsl #3
	ldr	r3, [r3, #40]
	.loc 1 834 26 view .LVU425
	subs	r3, r3, r1
	.loc 1 834 11 view .LVU426
	subs	r3, r3, #1
.LVL130:
	.loc 1 834 11 view .LVU427
	b	.L57
.LVL131:
.L66:
	.loc 1 832 5 is_stmt 1 view .LVU428
	.loc 1 832 18 is_stmt 0 view .LVU429
	mov	r3, r2
	ldr	r2, .L68
	add	r3, r2, r3, lsl #3
	ldr	r3, [r3, #32]
	.loc 1 832 11 view .LVU430
	subs	r3, r3, #1
.LVL132:
.L57:
	.loc 1 838 3 is_stmt 1 view .LVU431
	.loc 1 838 6 is_stmt 0 view .LVU432
	cmp	r3, r7
	bcs	.L59
	.loc 1 839 5 is_stmt 1 view .LVU433
	.loc 1 839 18 is_stmt 0 view .LVU434
	add	r2, r6, r6, lsl #1
	ldr	r0, .L68
.LVL133:
	.loc 1 839 18 view .LVU435
	add	r2, r0, r2, lsl #3
	ldr	r0, [r2, #40]
	.loc 1 839 31 view .LVU436
	subs	r3, r7, r3
.LVL134:
	.loc 1 839 18 view .LVU437
	add	r3, r3, r0
	str	r3, [r2, #40]
	.loc 1 840 5 is_stmt 1 view .LVU438
	.loc 1 840 11 is_stmt 0 view .LVU439
	b	.L60
.LVL135:
.L58:
	.loc 1 836 5 is_stmt 1 view .LVU440
	.loc 1 836 18 is_stmt 0 view .LVU441
	add	r2, r0, r0, lsl #1
	ldr	r3, .L68
	add	r2, r3, r2, lsl #3
	ldr	r3, [r2, #40]
	.loc 1 836 26 view .LVU442
	subs	r3, r3, r1
	.loc 1 836 53 view .LVU443
	ldr	r2, [r2, #32]
	.loc 1 836 46 view .LVU444
	add	r3, r3, r2
	.loc 1 836 11 view .LVU445
	subs	r3, r3, #1
.LVL136:
	.loc 1 836 11 view .LVU446
	b	.L57
.LVL137:
.L61:
	.loc 1 841 7 is_stmt 1 view .LVU447
	.loc 1 841 20 is_stmt 0 view .LVU448
	add	r3, r6, r6, lsl #1
	ldr	r2, .L68
	add	r3, r2, r3, lsl #3
	ldr	r2, [r3, #40]
	subs	r2, r2, r0
	str	r2, [r3, #40]
.L60:
	.loc 1 840 11 is_stmt 1 view .LVU449
	.loc 1 840 17 is_stmt 0 view .LVU450
	add	r3, r6, r6, lsl #1
	ldr	r2, .L68
	add	r3, r2, r3, lsl #3
	ldr	r2, [r3, #40]
	.loc 1 840 33 view .LVU451
	ldr	r0, [r3, #32]
	.loc 1 840 11 view .LVU452
	cmp	r2, r0
	bcs	.L61
.L59:
	.loc 1 847 3 is_stmt 1 view .LVU453
	.loc 1 847 16 is_stmt 0 view .LVU454
	add	r3, r6, r6, lsl #1
	ldr	r2, .L68
	add	r3, r2, r3, lsl #3
	ldr	r4, [r3, #32]
	.loc 1 847 9 view .LVU455
	subs	r4, r4, r1
.LVL138:
.L64:
	.loc 1 848 3 is_stmt 1 view .LVU456
	.loc 1 849 5 view .LVU457
	.loc 1 849 8 is_stmt 0 view .LVU458
	cmp	r7, r4
	bcc	.L67
	.loc 1 871 7 is_stmt 1 view .LVU459
	.loc 1 871 20 is_stmt 0 view .LVU460
	ldr	r5, .L68
	adds	r3, r6, #1
	add	r3, r3, r3, lsl #1
	add	r3, r5, r3, lsl #3
	ldr	r0, [r3, #4]
	.loc 1 871 37 view .LVU461
	add	r3, r6, r6, lsl #1
	add	r5, r5, r3, lsl #3
	ldr	r3, [r5, #36]
.LVL139:
	.loc 1 880 6 is_stmt 1 view .LVU462
.LBB148:
.LBI148:
	.loc 2 83 216 view .LVU463
.LBB149:
	.loc 2 83 292 view .LVU464
	.loc 2 83 299 is_stmt 0 view .LVU465
	mov	r2, r4
	mov	r1, r8
	add	r0, r0, r3
.LVL140:
	.loc 2 83 299 view .LVU466
	bl	memcpy
.LVL141:
	.loc 2 83 299 view .LVU467
.LBE149:
.LBE148:
	.loc 1 881 7 is_stmt 1 view .LVU468
	.loc 1 881 13 is_stmt 0 view .LVU469
	add	r8, r8, r4
.LVL142:
	.loc 1 882 7 is_stmt 1 view .LVU470
	.loc 1 883 7 view .LVU471
	.loc 1 883 20 is_stmt 0 view .LVU472
	movs	r3, #0
	str	r3, [r5, #36]
	.loc 1 884 7 is_stmt 1 view .LVU473
	.loc 1 884 16 is_stmt 0 view .LVU474
	subs	r7, r7, r4
.LVL143:
	.loc 1 886 7 is_stmt 1 view .LVU475
	.loc 1 886 21 is_stmt 0 view .LVU476
	ldr	r4, [r5, #32]
.LVL144:
	.loc 1 886 13 view .LVU477
	subs	r4, r4, #1
.LVL145:
	.loc 1 888 11 is_stmt 1 view .LVU478
	.loc 1 888 3 is_stmt 0 view .LVU479
	cmp	r7, #0
	bne	.L64
	b	.L55
.L67:
	.loc 1 853 7 is_stmt 1 view .LVU480
	.loc 1 853 20 is_stmt 0 view .LVU481
	ldr	r4, .L68
.LVL146:
	.loc 1 853 20 view .LVU482
	adds	r3, r6, #1
	add	r3, r3, r3, lsl #1
	add	r3, r4, r3, lsl #3
	ldr	r0, [r3, #4]
	.loc 1 853 37 view .LVU483
	add	r5, r6, r6, lsl #1
	add	r5, r4, r5, lsl #3
	ldr	r3, [r5, #36]
.LVL147:
	.loc 1 862 6 is_stmt 1 view .LVU484
.LBB150:
.LBI150:
	.loc 2 83 216 view .LVU485
.LBB151:
	.loc 2 83 292 view .LVU486
	.loc 2 83 299 is_stmt 0 view .LVU487
	mov	r2, r7
	mov	r1, r8
	add	r0, r0, r3
.LVL148:
	.loc 2 83 299 view .LVU488
	bl	memcpy
.LVL149:
	.loc 2 83 299 view .LVU489
.LBE151:
.LBE150:
	.loc 1 863 7 is_stmt 1 view .LVU490
	.loc 1 864 7 view .LVU491
	.loc 1 864 20 is_stmt 0 view .LVU492
	ldr	r3, [r5, #36]
	add	r7, r7, r3
.LVL150:
	.loc 1 864 20 view .LVU493
	str	r7, [r5, #36]
	.loc 1 866 7 is_stmt 1 view .LVU494
.L55:
	.loc 1 889 1 is_stmt 0 view .LVU495
	pop	{r3, r4, r5, r6, r7, r8, r9, pc}
.LVL151:
.L69:
	.loc 1 889 1 view .LVU496
	.align	2
.L68:
	.word	.LANCHOR1
	.cfi_endproc
.LFE513:
	.size	SEGGER_RTT_WriteWithOverwriteNoLock, .-SEGGER_RTT_WriteWithOverwriteNoLock
	.section	.text.SEGGER_RTT_WriteSkipNoLock,"ax",%progbits
	.align	1
	.global	SEGGER_RTT_WriteSkipNoLock
	.syntax unified
	.thumb
	.thumb_func
	.fpu fpv4-sp-d16
	.type	SEGGER_RTT_WriteSkipNoLock, %function
SEGGER_RTT_WriteSkipNoLock:
.LVL152:
.LFB514:
	.loc 1 919 99 is_stmt 1 view -0
	.cfi_startproc
	@ args = 0, pretend = 0, frame = 0
	@ frame_needed = 0, uses_anonymous_args = 0
	.loc 1 919 99 is_stmt 0 view .LVU498
	push	{r3, r4, r5, r6, r7, r8, r9, lr}
	.cfi_def_cfa_offset 32
	.cfi_offset 3, -32
	.cfi_offset 4, -28
	.cfi_offset 5, -24
	.cfi_offset 6, -20
	.cfi_offset 7, -16
	.cfi_offset 8, -12
	.cfi_offset 9, -8
	.cfi_offset 14, -4
	mov	r4, r0
	mov	r6, r1
	mov	r5, r2
	.loc 1 920 3 is_stmt 1 view .LVU499
	.loc 1 921 3 view .LVU500
	.loc 1 922 3 view .LVU501
	.loc 1 923 3 view .LVU502
	.loc 1 924 3 view .LVU503
	.loc 1 925 3 view .LVU504
	.loc 1 926 3 view .LVU505
	.loc 1 937 3 view .LVU506
.LVL153:
	.loc 1 938 3 view .LVU507
	.loc 1 939 3 view .LVU508
	.loc 1 939 9 is_stmt 0 view .LVU509
	add	r3, r0, r0, lsl #1
	ldr	r2, .L79
.LVL154:
	.loc 1 939 9 view .LVU510
	add	r2, r2, r3, lsl #3
	ldr	r3, [r2, #40]
.LVL155:
	.loc 1 940 3 is_stmt 1 view .LVU511
	.loc 1 940 9 is_stmt 0 view .LVU512
	ldr	r7, [r2, #36]
.LVL156:
	.loc 1 941 3 is_stmt 1 view .LVU513
	.loc 1 941 6 is_stmt 0 view .LVU514
	cmp	r3, r7
	bhi	.L71
	.loc 1 942 5 is_stmt 1 view .LVU515
	.loc 1 942 18 is_stmt 0 view .LVU516
	add	r2, r0, r0, lsl #1
	ldr	r1, .L79
.LVL157:
	.loc 1 942 18 view .LVU517
	add	r2, r1, r2, lsl #3
	ldr	r8, [r2, #32]
	.loc 1 942 33 view .LVU518
	sub	r9, r8, r7
	.loc 1 942 11 view .LVU519
	add	r2, r9, #-1
.LVL158:
	.loc 1 943 5 is_stmt 1 view .LVU520
	.loc 1 943 8 is_stmt 0 view .LVU521
	cmp	r5, r2
	bls	.L73
	.loc 1 951 5 is_stmt 1 view .LVU522
	.loc 1 951 11 is_stmt 0 view .LVU523
	add	r3, r3, r2
.LVL159:
	.loc 1 952 5 is_stmt 1 view .LVU524
	.loc 1 952 8 is_stmt 0 view .LVU525
	cmp	r5, r3
	bls	.L78
	.loc 1 977 10 view .LVU526
	movs	r0, #0
.LVL160:
	.loc 1 977 10 view .LVU527
	b	.L70
.LVL161:
.L73:
	.loc 1 945 7 is_stmt 1 view .LVU528
	.loc 1 945 20 is_stmt 0 view .LVU529
	ldr	r8, .L79
	adds	r3, r4, #1
	add	r3, r3, r3, lsl #1
	add	r3, r8, r3, lsl #3
	ldr	r0, [r3, #4]
.LVL162:
	.loc 1 946 6 is_stmt 1 view .LVU530
.LBB152:
.LBI152:
	.loc 2 83 216 view .LVU531
.LBB153:
	.loc 2 83 292 view .LVU532
	.loc 2 83 299 is_stmt 0 view .LVU533
	mov	r2, r5
	mov	r1, r6
	add	r0, r0, r7
.LVL163:
	.loc 2 83 299 view .LVU534
	bl	memcpy
.LVL164:
	.loc 2 83 299 view .LVU535
.LBE153:
.LBE152:
	.loc 1 947 7 is_stmt 1 view .LVU536
	.loc 1 948 7 view .LVU537
	.loc 1 948 28 is_stmt 0 view .LVU538
	add	r5, r5, r7
.LVL165:
	.loc 1 948 20 view .LVU539
	add	r4, r4, r4, lsl #1
.LVL166:
	.loc 1 948 20 view .LVU540
	add	r8, r8, r4, lsl #3
	str	r5, [r8, #36]
	.loc 1 949 7 is_stmt 1 view .LVU541
	.loc 1 949 14 is_stmt 0 view .LVU542
	movs	r0, #1
	b	.L70
.LVL167:
.L78:
	.loc 1 953 7 is_stmt 1 view .LVU543
	.loc 1 954 7 view .LVU544
	.loc 1 954 20 is_stmt 0 view .LVU545
	adds	r3, r0, #1
.LVL168:
	.loc 1 954 20 view .LVU546
	add	r3, r3, r3, lsl #1
	ldr	r2, .L79
	add	r3, r2, r3, lsl #3
	ldr	r0, [r3, #4]
.LVL169:
	.loc 1 955 6 is_stmt 1 view .LVU547
.LBB154:
.LBI154:
	.loc 2 83 216 view .LVU548
.LBB155:
	.loc 2 83 292 view .LVU549
	.loc 2 83 299 is_stmt 0 view .LVU550
	mov	r2, r9
	mov	r1, r6
	add	r0, r0, r7
.LVL170:
	.loc 2 83 299 view .LVU551
	bl	memcpy
.LVL171:
	.loc 2 83 299 view .LVU552
.LBE155:
.LBE154:
	.loc 1 956 7 is_stmt 1 view .LVU553
	.loc 1 956 16 is_stmt 0 view .LVU554
	sub	r7, r7, r8
.LVL172:
	.loc 1 963 7 is_stmt 1 view .LVU555
	.loc 1 963 10 is_stmt 0 view .LVU556
	adds	r7, r7, r5
.LVL173:
	.loc 1 963 10 view .LVU557
	beq	.L75
	.loc 1 964 9 is_stmt 1 view .LVU558
	.loc 1 964 14 is_stmt 0 view .LVU559
	adds	r3, r4, #1
	add	r3, r3, r3, lsl #1
	ldr	r2, .L79
	add	r3, r2, r3, lsl #3
.LVL174:
	.loc 1 965 8 is_stmt 1 view .LVU560
.LBB156:
.LBI156:
	.loc 2 83 216 view .LVU561
.LBB157:
	.loc 2 83 292 view .LVU562
	.loc 2 83 299 is_stmt 0 view .LVU563
	mov	r2, r7
	add	r1, r6, r9
.LVL175:
	.loc 2 83 299 view .LVU564
	ldr	r0, [r3, #4]
	bl	memcpy
.LVL176:
.L75:
	.loc 2 83 299 view .LVU565
.LBE157:
.LBE156:
	.loc 1 967 7 is_stmt 1 view .LVU566
	.loc 1 968 7 view .LVU567
	.loc 1 968 20 is_stmt 0 view .LVU568
	add	r4, r4, r4, lsl #1
.LVL177:
	.loc 1 968 20 view .LVU569
	ldr	r3, .L79
	add	r4, r3, r4, lsl #3
	str	r7, [r4, #36]
	.loc 1 969 7 is_stmt 1 view .LVU570
	.loc 1 969 14 is_stmt 0 view .LVU571
	movs	r0, #1
	b	.L70
.LVL178:
.L71:
	.loc 1 972 5 is_stmt 1 view .LVU572
	.loc 1 972 19 is_stmt 0 view .LVU573
	subs	r3, r3, r7
.LVL179:
	.loc 1 972 11 view .LVU574
	subs	r3, r3, #1
.LVL180:
	.loc 1 973 5 is_stmt 1 view .LVU575
	.loc 1 973 8 is_stmt 0 view .LVU576
	cmp	r3, r5
	bcs	.L73
	.loc 1 977 10 view .LVU577
	movs	r0, #0
.LVL181:
.L70:
	.loc 1 978 1 view .LVU578
	pop	{r3, r4, r5, r6, r7, r8, r9, pc}
.LVL182:
.L80:
	.loc 1 978 1 view .LVU579
	.align	2
.L79:
	.word	.LANCHOR1
	.cfi_endproc
.LFE514:
	.size	SEGGER_RTT_WriteSkipNoLock, .-SEGGER_RTT_WriteSkipNoLock
	.section	.text.SEGGER_RTT_WriteDownBufferNoLock,"ax",%progbits
	.align	1
	.global	SEGGER_RTT_WriteDownBufferNoLock
	.syntax unified
	.thumb
	.thumb_func
	.fpu fpv4-sp-d16
	.type	SEGGER_RTT_WriteDownBufferNoLock, %function
SEGGER_RTT_WriteDownBufferNoLock:
.LVL183:
.LFB515:
	.loc 1 1009 105 is_stmt 1 view -0
	.cfi_startproc
	@ args = 0, pretend = 0, frame = 0
	@ frame_needed = 0, uses_anonymous_args = 0
	.loc 1 1009 105 is_stmt 0 view .LVU581
	push	{r3, r4, r5, r6, r7, lr}
	.cfi_def_cfa_offset 24
	.cfi_offset 3, -24
	.cfi_offset 4, -20
	.cfi_offset 5, -16
	.cfi_offset 6, -12
	.cfi_offset 7, -8
	.cfi_offset 14, -4
	mov	r6, r1
	mov	r5, r2
	.loc 1 1010 3 is_stmt 1 view .LVU582
	.loc 1 1011 3 view .LVU583
	.loc 1 1012 3 view .LVU584
	.loc 1 1013 3 view .LVU585
	.loc 1 1018 3 view .LVU586
.LVL184:
	.loc 1 1019 3 view .LVU587
	.loc 1 1019 9 is_stmt 0 view .LVU588
	add	r0, r0, r0, lsl #1
.LVL185:
	.loc 1 1019 9 view .LVU589
	lsls	r0, r0, #3
	adds	r0, r0, #96
	ldr	r7, .L88
	add	r7, r7, r0
.LVL186:
	.loc 1 1023 3 is_stmt 1 view .LVU590
	.loc 1 1023 16 is_stmt 0 view .LVU591
	ldr	r4, [r7, #20]
	.loc 1 1023 3 view .LVU592
	cmp	r4, #1
	beq	.L82
	cmp	r4, #2
	beq	.L83
	cbz	r4, .L87
	movs	r4, #0
.LVL187:
	.loc 1 1058 3 is_stmt 1 view .LVU593
.L81:
	.loc 1 1059 1 is_stmt 0 view .LVU594
	mov	r0, r4
	pop	{r3, r4, r5, r6, r7, pc}
.LVL188:
.L87:
	.loc 1 1029 5 is_stmt 1 view .LVU595
	.loc 1 1029 13 is_stmt 0 view .LVU596
	mov	r0, r7
	bl	_GetAvailWriteSpace
.LVL189:
	.loc 1 1030 5 is_stmt 1 view .LVU597
	.loc 1 1030 8 is_stmt 0 view .LVU598
	cmp	r5, r0
	bhi	.L81
	.loc 1 1033 7 is_stmt 1 view .LVU599
.LVL190:
	.loc 1 1034 7 view .LVU600
	mov	r2, r5
	mov	r1, r6
	mov	r0, r7
.LVL191:
	.loc 1 1034 7 is_stmt 0 view .LVU601
	bl	_WriteNoCheck
.LVL192:
	.loc 1 1033 14 view .LVU602
	mov	r4, r5
	b	.L81
.LVL193:
.L82:
	.loc 1 1041 5 is_stmt 1 view .LVU603
	.loc 1 1041 13 is_stmt 0 view .LVU604
	mov	r0, r7
	bl	_GetAvailWriteSpace
.LVL194:
	.loc 1 1042 5 is_stmt 1 view .LVU605
	.loc 1 1042 12 is_stmt 0 view .LVU606
	mov	r4, r5
	cmp	r5, r0
	it	cs
	movcs	r4, r0
.LVL195:
	.loc 1 1043 5 is_stmt 1 view .LVU607
	mov	r2, r4
	mov	r1, r6
	mov	r0, r7
.LVL196:
	.loc 1 1043 5 is_stmt 0 view .LVU608
	bl	_WriteNoCheck
.LVL197:
	.loc 1 1044 5 is_stmt 1 view .LVU609
	b	.L81
.LVL198:
.L83:
	.loc 1 1049 5 view .LVU610
	.loc 1 1049 14 is_stmt 0 view .LVU611
	mov	r0, r7
	bl	_WriteBlocking
.LVL199:
	.loc 1 1049 14 view .LVU612
	mov	r4, r0
.LVL200:
	.loc 1 1050 5 is_stmt 1 view .LVU613
	b	.L81
.L89:
	.align	2
.L88:
	.word	.LANCHOR1
	.cfi_endproc
.LFE515:
	.size	SEGGER_RTT_WriteDownBufferNoLock, .-SEGGER_RTT_WriteDownBufferNoLock
	.section	.text.SEGGER_RTT_WriteNoLock,"ax",%progbits
	.align	1
	.global	SEGGER_RTT_WriteNoLock
	.syntax unified
	.thumb
	.thumb_func
	.fpu fpv4-sp-d16
	.type	SEGGER_RTT_WriteNoLock, %function
SEGGER_RTT_WriteNoLock:
.LVL201:
.LFB516:
	.loc 1 1084 95 view -0
	.cfi_startproc
	@ args = 0, pretend = 0, frame = 0
	@ frame_needed = 0, uses_anonymous_args = 0
	.loc 1 1084 95 is_stmt 0 view .LVU615
	push	{r3, r4, r5, r6, r7, lr}
	.cfi_def_cfa_offset 24
	.cfi_offset 3, -24
	.cfi_offset 4, -20
	.cfi_offset 5, -16
	.cfi_offset 6, -12
	.cfi_offset 7, -8
	.cfi_offset 14, -4
	mov	r7, r1
	mov	r6, r2
	.loc 1 1085 3 is_stmt 1 view .LVU616
	.loc 1 1086 3 view .LVU617
	.loc 1 1087 3 view .LVU618
	.loc 1 1088 3 view .LVU619
	.loc 1 1092 3 view .LVU620
.LVL202:
	.loc 1 1093 3 view .LVU621
	.loc 1 1093 9 is_stmt 0 view .LVU622
	ldr	r3, .L97
	adds	r5, r0, #1
	add	r5, r5, r5, lsl #1
	add	r5, r3, r5, lsl #3
.LVL203:
	.loc 1 1097 3 is_stmt 1 view .LVU623
	.loc 1 1097 16 is_stmt 0 view .LVU624
	add	r0, r0, r0, lsl #1
.LVL204:
	.loc 1 1097 16 view .LVU625
	add	r0, r3, r0, lsl #3
	ldr	r4, [r0, #44]
	.loc 1 1097 3 view .LVU626
	cmp	r4, #1
	beq	.L91
	cmp	r4, #2
	beq	.L92
	cbz	r4, .L96
	movs	r4, #0
.LVL205:
	.loc 1 1132 3 is_stmt 1 view .LVU627
.L90:
	.loc 1 1133 1 is_stmt 0 view .LVU628
	mov	r0, r4
	pop	{r3, r4, r5, r6, r7, pc}
.LVL206:
.L96:
	.loc 1 1103 5 is_stmt 1 view .LVU629
	.loc 1 1103 13 is_stmt 0 view .LVU630
	mov	r0, r5
	bl	_GetAvailWriteSpace
.LVL207:
	.loc 1 1104 5 is_stmt 1 view .LVU631
	.loc 1 1104 8 is_stmt 0 view .LVU632
	cmp	r6, r0
	bhi	.L90
	.loc 1 1107 7 is_stmt 1 view .LVU633
.LVL208:
	.loc 1 1108 7 view .LVU634
	mov	r2, r6
	mov	r1, r7
	mov	r0, r5
.LVL209:
	.loc 1 1108 7 is_stmt 0 view .LVU635
	bl	_WriteNoCheck
.LVL210:
	.loc 1 1107 14 view .LVU636
	mov	r4, r6
	b	.L90
.LVL211:
.L91:
	.loc 1 1115 5 is_stmt 1 view .LVU637
	.loc 1 1115 13 is_stmt 0 view .LVU638
	mov	r0, r5
	bl	_GetAvailWriteSpace
.LVL212:
	.loc 1 1116 5 is_stmt 1 view .LVU639
	.loc 1 1116 12 is_stmt 0 view .LVU640
	mov	r4, r6
	cmp	r6, r0
	it	cs
	movcs	r4, r0
.LVL213:
	.loc 1 1117 5 is_stmt 1 view .LVU641
	mov	r2, r4
	mov	r1, r7
	mov	r0, r5
.LVL214:
	.loc 1 1117 5 is_stmt 0 view .LVU642
	bl	_WriteNoCheck
.LVL215:
	.loc 1 1118 5 is_stmt 1 view .LVU643
	b	.L90
.LVL216:
.L92:
	.loc 1 1123 5 view .LVU644
	.loc 1 1123 14 is_stmt 0 view .LVU645
	mov	r0, r5
	bl	_WriteBlocking
.LVL217:
	.loc 1 1123 14 view .LVU646
	mov	r4, r0
.LVL218:
	.loc 1 1124 5 is_stmt 1 view .LVU647
	b	.L90
.L98:
	.align	2
.L97:
	.word	.LANCHOR1
	.cfi_endproc
.LFE516:
	.size	SEGGER_RTT_WriteNoLock, .-SEGGER_RTT_WriteNoLock
	.section	.text.SEGGER_RTT_WriteDownBuffer,"ax",%progbits
	.align	1
	.global	SEGGER_RTT_WriteDownBuffer
	.syntax unified
	.thumb
	.thumb_func
	.fpu fpv4-sp-d16
	.type	SEGGER_RTT_WriteDownBuffer, %function
SEGGER_RTT_WriteDownBuffer:
.LVL219:
.LFB517:
	.loc 1 1160 99 view -0
	.cfi_startproc
	@ args = 0, pretend = 0, frame = 0
	@ frame_needed = 0, uses_anonymous_args = 0
	.loc 1 1160 99 is_stmt 0 view .LVU649
	push	{r3, r4, r5, r6, r7, lr}
	.cfi_def_cfa_offset 24
	.cfi_offset 3, -24
	.cfi_offset 4, -20
	.cfi_offset 5, -16
	.cfi_offset 6, -12
	.cfi_offset 7, -8
	.cfi_offset 14, -4
	mov	r4, r0
	mov	r5, r1
	mov	r6, r2
	.loc 1 1161 3 is_stmt 1 view .LVU650
.LBB158:
	.loc 1 1163 5 view .LVU651
	.loc 1 1163 41 view .LVU652
.LVL220:
	.loc 1 1163 108 view .LVU653
	.loc 1 1163 113 view .LVU654
	.loc 1 1163 133 is_stmt 0 view .LVU655
	ldr	r3, .L103
	ldrb	r3, [r3]	@ zero_extendqisi2
	.loc 1 1163 116 view .LVU656
	cbz	r3, .L102
.LVL221:
.L100:
	.loc 1 1163 169 is_stmt 1 discriminator 3 view .LVU657
.LBE158:
	.loc 1 1163 175 discriminator 3 view .LVU658
	.loc 1 1164 3 discriminator 3 view .LVU659
.LBB159:
.LBI159:
	.loc 3 899 19 discriminator 3 view .LVU660
.LBB160:
	.loc 3 909 2 discriminator 3 view .LVU661
	.loc 3 909 7 discriminator 3 view .LVU662
	.loc 3 909 55 discriminator 3 view .LVU663
	.loc 3 910 2 discriminator 3 view .LVU664
	.loc 3 910 9 is_stmt 0 discriminator 3 view .LVU665
	ldr	r7, .L103+4
	mov	r2, #-1
	mov	r3, #-1
	mov	r0, r7
	bl	z_impl_k_mutex_lock
.LVL222:
	.loc 3 910 9 discriminator 3 view .LVU666
.LBE160:
.LBE159:
	.loc 1 1164 82 is_stmt 1 discriminator 3 view .LVU667
	.loc 1 1165 3 discriminator 3 view .LVU668
	.loc 1 1165 12 is_stmt 0 discriminator 3 view .LVU669
	mov	r2, r6
	mov	r1, r5
	mov	r0, r4
	bl	SEGGER_RTT_WriteDownBufferNoLock
.LVL223:
	mov	r4, r0
.LVL224:
	.loc 1 1166 3 is_stmt 1 discriminator 3 view .LVU670
.LBB161:
.LBI161:
	.loc 3 917 19 discriminator 3 view .LVU671
.LBB162:
	.loc 3 925 2 discriminator 3 view .LVU672
	.loc 3 925 7 discriminator 3 view .LVU673
	.loc 3 925 55 discriminator 3 view .LVU674
	.loc 3 926 2 discriminator 3 view .LVU675
	.loc 3 926 9 is_stmt 0 discriminator 3 view .LVU676
	mov	r0, r7
.LVL225:
	.loc 3 926 9 discriminator 3 view .LVU677
	bl	z_impl_k_mutex_unlock
.LVL226:
	.loc 3 926 9 discriminator 3 view .LVU678
.LBE162:
.LBE161:
	.loc 1 1166 35 is_stmt 1 discriminator 3 view .LVU679
	.loc 1 1167 3 discriminator 3 view .LVU680
	.loc 1 1168 1 is_stmt 0 discriminator 3 view .LVU681
	mov	r0, r4
	pop	{r3, r4, r5, r6, r7, pc}
.LVL227:
.L102:
.LBB163:
	.loc 1 1163 148 is_stmt 1 discriminator 1 view .LVU682
	bl	_DoInit
.LVL228:
	.loc 1 1163 148 is_stmt 0 discriminator 1 view .LVU683
	b	.L100
.L104:
	.align	2
.L103:
	.word	.LANCHOR1
	.word	rtt_term_mutex
.LBE163:
	.cfi_endproc
.LFE517:
	.size	SEGGER_RTT_WriteDownBuffer, .-SEGGER_RTT_WriteDownBuffer
	.section	.text.SEGGER_RTT_Write,"ax",%progbits
	.align	1
	.global	SEGGER_RTT_Write
	.syntax unified
	.thumb
	.thumb_func
	.fpu fpv4-sp-d16
	.type	SEGGER_RTT_Write, %function
SEGGER_RTT_Write:
.LVL229:
.LFB518:
	.loc 1 1189 89 is_stmt 1 view -0
	.cfi_startproc
	@ args = 0, pretend = 0, frame = 0
	@ frame_needed = 0, uses_anonymous_args = 0
	.loc 1 1189 89 is_stmt 0 view .LVU685
	push	{r3, r4, r5, r6, r7, lr}
	.cfi_def_cfa_offset 24
	.cfi_offset 3, -24
	.cfi_offset 4, -20
	.cfi_offset 5, -16
	.cfi_offset 6, -12
	.cfi_offset 7, -8
	.cfi_offset 14, -4
	mov	r4, r0
	mov	r5, r1
	mov	r6, r2
	.loc 1 1190 3 is_stmt 1 view .LVU686
.LBB164:
	.loc 1 1192 5 view .LVU687
	.loc 1 1192 41 view .LVU688
.LVL230:
	.loc 1 1192 108 view .LVU689
	.loc 1 1192 113 view .LVU690
	.loc 1 1192 133 is_stmt 0 view .LVU691
	ldr	r3, .L109
	ldrb	r3, [r3]	@ zero_extendqisi2
	.loc 1 1192 116 view .LVU692
	cbz	r3, .L108
.LVL231:
.L106:
	.loc 1 1192 169 is_stmt 1 discriminator 3 view .LVU693
.LBE164:
	.loc 1 1192 175 discriminator 3 view .LVU694
	.loc 1 1193 3 discriminator 3 view .LVU695
.LBB165:
.LBI165:
	.loc 3 899 19 discriminator 3 view .LVU696
.LBB166:
	.loc 3 909 2 discriminator 3 view .LVU697
	.loc 3 909 7 discriminator 3 view .LVU698
	.loc 3 909 55 discriminator 3 view .LVU699
	.loc 3 910 2 discriminator 3 view .LVU700
	.loc 3 910 9 is_stmt 0 discriminator 3 view .LVU701
	ldr	r7, .L109+4
	mov	r2, #-1
	mov	r3, #-1
	mov	r0, r7
	bl	z_impl_k_mutex_lock
.LVL232:
	.loc 3 910 9 discriminator 3 view .LVU702
.LBE166:
.LBE165:
	.loc 1 1193 82 is_stmt 1 discriminator 3 view .LVU703
	.loc 1 1194 3 discriminator 3 view .LVU704
	.loc 1 1194 12 is_stmt 0 discriminator 3 view .LVU705
	mov	r2, r6
	mov	r1, r5
	mov	r0, r4
	bl	SEGGER_RTT_WriteNoLock
.LVL233:
	mov	r4, r0
.LVL234:
	.loc 1 1195 3 is_stmt 1 discriminator 3 view .LVU706
.LBB167:
.LBI167:
	.loc 3 917 19 discriminator 3 view .LVU707
.LBB168:
	.loc 3 925 2 discriminator 3 view .LVU708
	.loc 3 925 7 discriminator 3 view .LVU709
	.loc 3 925 55 discriminator 3 view .LVU710
	.loc 3 926 2 discriminator 3 view .LVU711
	.loc 3 926 9 is_stmt 0 discriminator 3 view .LVU712
	mov	r0, r7
.LVL235:
	.loc 3 926 9 discriminator 3 view .LVU713
	bl	z_impl_k_mutex_unlock
.LVL236:
	.loc 3 926 9 discriminator 3 view .LVU714
.LBE168:
.LBE167:
	.loc 1 1195 35 is_stmt 1 discriminator 3 view .LVU715
	.loc 1 1196 3 discriminator 3 view .LVU716
	.loc 1 1197 1 is_stmt 0 discriminator 3 view .LVU717
	mov	r0, r4
	pop	{r3, r4, r5, r6, r7, pc}
.LVL237:
.L108:
.LBB169:
	.loc 1 1192 148 is_stmt 1 discriminator 1 view .LVU718
	bl	_DoInit
.LVL238:
	.loc 1 1192 148 is_stmt 0 discriminator 1 view .LVU719
	b	.L106
.L110:
	.align	2
.L109:
	.word	.LANCHOR1
	.word	rtt_term_mutex
.LBE169:
	.cfi_endproc
.LFE518:
	.size	SEGGER_RTT_Write, .-SEGGER_RTT_Write
	.section	.text.SEGGER_RTT_WriteString,"ax",%progbits
	.align	1
	.global	SEGGER_RTT_WriteString
	.syntax unified
	.thumb
	.thumb_func
	.fpu fpv4-sp-d16
	.type	SEGGER_RTT_WriteString, %function
SEGGER_RTT_WriteString:
.LVL239:
.LFB519:
	.loc 1 1219 70 is_stmt 1 view -0
	.cfi_startproc
	@ args = 0, pretend = 0, frame = 0
	@ frame_needed = 0, uses_anonymous_args = 0
	.loc 1 1219 70 is_stmt 0 view .LVU721
	push	{r3, r4, r5, lr}
	.cfi_def_cfa_offset 16
	.cfi_offset 3, -16
	.cfi_offset 4, -12
	.cfi_offset 5, -8
	.cfi_offset 14, -4
	mov	r5, r0
	mov	r4, r1
	.loc 1 1220 3 is_stmt 1 view .LVU722
	.loc 1 1222 3 view .LVU723
	.loc 1 1222 9 is_stmt 0 view .LVU724
	mov	r0, r1
.LVL240:
	.loc 1 1222 9 view .LVU725
	bl	strlen
.LVL241:
	.loc 1 1222 9 view .LVU726
	mov	r2, r0
.LVL242:
	.loc 1 1223 3 is_stmt 1 view .LVU727
	.loc 1 1223 10 is_stmt 0 view .LVU728
	mov	r1, r4
	mov	r0, r5
.LVL243:
	.loc 1 1223 10 view .LVU729
	bl	SEGGER_RTT_Write
.LVL244:
	.loc 1 1224 1 view .LVU730
	pop	{r3, r4, r5, pc}
	.loc 1 1224 1 view .LVU731
	.cfi_endproc
.LFE519:
	.size	SEGGER_RTT_WriteString, .-SEGGER_RTT_WriteString
	.section	.text.SEGGER_RTT_PutCharSkipNoLock,"ax",%progbits
	.align	1
	.global	SEGGER_RTT_PutCharSkipNoLock
	.syntax unified
	.thumb
	.thumb_func
	.fpu fpv4-sp-d16
	.type	SEGGER_RTT_PutCharSkipNoLock, %function
SEGGER_RTT_PutCharSkipNoLock:
.LVL245:
.LFB520:
	.loc 1 1249 69 is_stmt 1 view -0
	.cfi_startproc
	@ args = 0, pretend = 0, frame = 0
	@ frame_needed = 0, uses_anonymous_args = 0
	@ link register save eliminated.
	.loc 1 1249 69 is_stmt 0 view .LVU733
	push	{r4, r5}
	.cfi_def_cfa_offset 8
	.cfi_offset 4, -8
	.cfi_offset 5, -4
	.loc 1 1250 3 is_stmt 1 view .LVU734
	.loc 1 1251 3 view .LVU735
	.loc 1 1252 3 view .LVU736
	.loc 1 1253 3 view .LVU737
	.loc 1 1257 3 view .LVU738
.LVL246:
	.loc 1 1261 3 view .LVU739
	.loc 1 1261 16 is_stmt 0 view .LVU740
	add	r2, r0, r0, lsl #1
	ldr	r3, .L120
	add	r3, r3, r2, lsl #3
	ldr	r5, [r3, #36]
	.loc 1 1261 9 view .LVU741
	adds	r2, r5, #1
.LVL247:
	.loc 1 1262 3 is_stmt 1 view .LVU742
	.loc 1 1262 21 is_stmt 0 view .LVU743
	ldr	r3, [r3, #32]
	.loc 1 1262 6 view .LVU744
	cmp	r3, r2
	beq	.L119
.LVL248:
.L114:
	.loc 1 1268 3 is_stmt 1 view .LVU745
	.loc 1 1268 21 is_stmt 0 view .LVU746
	add	r3, r0, r0, lsl #1
	ldr	r4, .L120
	add	r3, r4, r3, lsl #3
	ldr	r3, [r3, #40]
	.loc 1 1268 6 view .LVU747
	cmp	r3, r2
	beq	.L117
	.loc 1 1269 5 is_stmt 1 view .LVU748
	.loc 1 1269 18 is_stmt 0 view .LVU749
	adds	r3, r0, #1
	add	r3, r3, r3, lsl #1
	add	r3, r4, r3, lsl #3
	ldr	r3, [r3, #4]
.LVL249:
	.loc 1 1270 5 is_stmt 1 view .LVU750
	.loc 1 1270 11 is_stmt 0 view .LVU751
	strb	r1, [r3, r5]
	.loc 1 1271 5 is_stmt 1 view .LVU752
	.loc 1 1272 5 view .LVU753
	.loc 1 1272 18 is_stmt 0 view .LVU754
	add	r0, r0, r0, lsl #1
.LVL250:
	.loc 1 1272 18 view .LVU755
	add	r0, r4, r0, lsl #3
	str	r2, [r0, #36]
	.loc 1 1273 5 is_stmt 1 view .LVU756
.LVL251:
	.loc 1 1273 12 is_stmt 0 view .LVU757
	movs	r0, #1
.LVL252:
.L113:
	.loc 1 1279 1 view .LVU758
	pop	{r4, r5}
	.cfi_remember_state
	.cfi_restore 5
	.cfi_restore 4
	.cfi_def_cfa_offset 0
	bx	lr
.LVL253:
.L119:
	.cfi_restore_state
	.loc 1 1263 11 view .LVU759
	movs	r2, #0
.LVL254:
	.loc 1 1263 11 view .LVU760
	b	.L114
.LVL255:
.L117:
	.loc 1 1275 12 view .LVU761
	movs	r0, #0
.LVL256:
	.loc 1 1278 3 is_stmt 1 view .LVU762
	.loc 1 1278 10 is_stmt 0 view .LVU763
	b	.L113
.L121:
	.align	2
.L120:
	.word	.LANCHOR1
	.cfi_endproc
.LFE520:
	.size	SEGGER_RTT_PutCharSkipNoLock, .-SEGGER_RTT_PutCharSkipNoLock
	.section	.text.SEGGER_RTT_PutCharSkip,"ax",%progbits
	.align	1
	.global	SEGGER_RTT_PutCharSkip
	.syntax unified
	.thumb
	.thumb_func
	.fpu fpv4-sp-d16
	.type	SEGGER_RTT_PutCharSkip, %function
SEGGER_RTT_PutCharSkip:
.LVL257:
.LFB521:
	.loc 1 1299 63 is_stmt 1 view -0
	.cfi_startproc
	@ args = 0, pretend = 0, frame = 0
	@ frame_needed = 0, uses_anonymous_args = 0
	.loc 1 1299 63 is_stmt 0 view .LVU765
	push	{r4, r5, r6, lr}
	.cfi_def_cfa_offset 16
	.cfi_offset 4, -16
	.cfi_offset 5, -12
	.cfi_offset 6, -8
	.cfi_offset 14, -4
	mov	r4, r0
	mov	r5, r1
	.loc 1 1300 3 is_stmt 1 view .LVU766
	.loc 1 1301 3 view .LVU767
	.loc 1 1302 3 view .LVU768
	.loc 1 1303 3 view .LVU769
.LBB170:
	.loc 1 1307 5 view .LVU770
	.loc 1 1307 41 view .LVU771
.LVL258:
	.loc 1 1307 108 view .LVU772
	.loc 1 1307 113 view .LVU773
	.loc 1 1307 133 is_stmt 0 view .LVU774
	ldr	r3, .L131
	ldrb	r3, [r3]	@ zero_extendqisi2
	.loc 1 1307 116 view .LVU775
	cbz	r3, .L129
.LVL259:
.L123:
	.loc 1 1307 169 is_stmt 1 discriminator 3 view .LVU776
.LBE170:
	.loc 1 1307 175 discriminator 3 view .LVU777
	.loc 1 1308 3 discriminator 3 view .LVU778
.LBB171:
.LBI171:
	.loc 3 899 19 discriminator 3 view .LVU779
.LBB172:
	.loc 3 909 2 discriminator 3 view .LVU780
	.loc 3 909 7 discriminator 3 view .LVU781
	.loc 3 909 55 discriminator 3 view .LVU782
	.loc 3 910 2 discriminator 3 view .LVU783
	.loc 3 910 9 is_stmt 0 discriminator 3 view .LVU784
	mov	r2, #-1
	mov	r3, #-1
	ldr	r0, .L131+4
	bl	z_impl_k_mutex_lock
.LVL260:
	.loc 3 910 9 discriminator 3 view .LVU785
.LBE172:
.LBE171:
	.loc 1 1308 82 is_stmt 1 discriminator 3 view .LVU786
	.loc 1 1312 3 discriminator 3 view .LVU787
	.loc 1 1316 3 discriminator 3 view .LVU788
	.loc 1 1316 16 is_stmt 0 discriminator 3 view .LVU789
	add	r3, r4, r4, lsl #1
	ldr	r2, .L131
	add	r3, r2, r3, lsl #3
	ldr	r6, [r3, #36]
	.loc 1 1316 9 discriminator 3 view .LVU790
	adds	r2, r6, #1
.LVL261:
	.loc 1 1317 3 is_stmt 1 discriminator 3 view .LVU791
	.loc 1 1317 21 is_stmt 0 discriminator 3 view .LVU792
	ldr	r3, [r3, #32]
	.loc 1 1317 6 discriminator 3 view .LVU793
	cmp	r3, r2
	beq	.L130
.LVL262:
.L124:
	.loc 1 1323 3 is_stmt 1 view .LVU794
	.loc 1 1323 21 is_stmt 0 view .LVU795
	add	r3, r4, r4, lsl #1
	ldr	r1, .L131
	add	r3, r1, r3, lsl #3
	ldr	r3, [r3, #40]
	.loc 1 1323 6 view .LVU796
	cmp	r3, r2
	beq	.L127
	.loc 1 1324 5 is_stmt 1 view .LVU797
	.loc 1 1324 18 is_stmt 0 view .LVU798
	adds	r3, r4, #1
	add	r3, r3, r3, lsl #1
	add	r3, r1, r3, lsl #3
	ldr	r3, [r3, #4]
.LVL263:
	.loc 1 1325 5 is_stmt 1 view .LVU799
	.loc 1 1325 11 is_stmt 0 view .LVU800
	strb	r5, [r3, r6]
	.loc 1 1326 5 is_stmt 1 view .LVU801
	.loc 1 1327 5 view .LVU802
	.loc 1 1327 18 is_stmt 0 view .LVU803
	add	r4, r4, r4, lsl #1
.LVL264:
	.loc 1 1327 18 view .LVU804
	add	r4, r1, r4, lsl #3
	str	r2, [r4, #36]
	.loc 1 1328 5 is_stmt 1 view .LVU805
.LVL265:
	.loc 1 1328 12 is_stmt 0 view .LVU806
	movs	r4, #1
.LVL266:
.L125:
	.loc 1 1335 3 is_stmt 1 view .LVU807
.LBB173:
.LBI173:
	.loc 3 917 19 view .LVU808
.LBB174:
	.loc 3 925 2 view .LVU809
	.loc 3 925 7 view .LVU810
	.loc 3 925 55 view .LVU811
	.loc 3 926 2 view .LVU812
	.loc 3 926 9 is_stmt 0 view .LVU813
	ldr	r0, .L131+4
	bl	z_impl_k_mutex_unlock
.LVL267:
	.loc 3 926 9 view .LVU814
.LBE174:
.LBE173:
	.loc 1 1335 35 is_stmt 1 view .LVU815
	.loc 1 1337 3 view .LVU816
	.loc 1 1338 1 is_stmt 0 view .LVU817
	mov	r0, r4
	pop	{r4, r5, r6, pc}
.LVL268:
.L129:
.LBB175:
	.loc 1 1307 148 is_stmt 1 discriminator 1 view .LVU818
	bl	_DoInit
.LVL269:
	.loc 1 1307 148 is_stmt 0 discriminator 1 view .LVU819
	b	.L123
.LVL270:
.L130:
	.loc 1 1307 148 discriminator 1 view .LVU820
.LBE175:
	.loc 1 1318 11 view .LVU821
	movs	r2, #0
.LVL271:
	.loc 1 1318 11 view .LVU822
	b	.L124
.LVL272:
.L127:
	.loc 1 1330 12 view .LVU823
	movs	r4, #0
.LVL273:
	.loc 1 1330 12 view .LVU824
	b	.L125
.L132:
	.align	2
.L131:
	.word	.LANCHOR1
	.word	rtt_term_mutex
	.cfi_endproc
.LFE521:
	.size	SEGGER_RTT_PutCharSkip, .-SEGGER_RTT_PutCharSkip
	.section	.text.SEGGER_RTT_PutChar,"ax",%progbits
	.align	1
	.global	SEGGER_RTT_PutChar
	.syntax unified
	.thumb
	.thumb_func
	.fpu fpv4-sp-d16
	.type	SEGGER_RTT_PutChar, %function
SEGGER_RTT_PutChar:
.LVL274:
.LFB522:
	.loc 1 1358 59 is_stmt 1 view -0
	.cfi_startproc
	@ args = 0, pretend = 0, frame = 0
	@ frame_needed = 0, uses_anonymous_args = 0
	.loc 1 1358 59 is_stmt 0 view .LVU826
	push	{r3, r4, r5, lr}
	.cfi_def_cfa_offset 16
	.cfi_offset 3, -16
	.cfi_offset 4, -12
	.cfi_offset 5, -8
	.cfi_offset 14, -4
	mov	r4, r0
	mov	r5, r1
	.loc 1 1359 3 is_stmt 1 view .LVU827
	.loc 1 1360 3 view .LVU828
	.loc 1 1361 3 view .LVU829
	.loc 1 1362 3 view .LVU830
.LBB176:
	.loc 1 1366 5 view .LVU831
	.loc 1 1366 41 view .LVU832
.LVL275:
	.loc 1 1366 108 view .LVU833
	.loc 1 1366 113 view .LVU834
	.loc 1 1366 133 is_stmt 0 view .LVU835
	ldr	r3, .L144
	ldrb	r3, [r3]	@ zero_extendqisi2
	.loc 1 1366 116 view .LVU836
	cbz	r3, .L142
.LVL276:
.L134:
	.loc 1 1366 169 is_stmt 1 discriminator 3 view .LVU837
.LBE176:
	.loc 1 1366 175 discriminator 3 view .LVU838
	.loc 1 1367 3 discriminator 3 view .LVU839
.LBB177:
.LBI177:
	.loc 3 899 19 discriminator 3 view .LVU840
.LBB178:
	.loc 3 909 2 discriminator 3 view .LVU841
	.loc 3 909 7 discriminator 3 view .LVU842
	.loc 3 909 55 discriminator 3 view .LVU843
	.loc 3 910 2 discriminator 3 view .LVU844
	.loc 3 910 9 is_stmt 0 discriminator 3 view .LVU845
	mov	r2, #-1
	mov	r3, #-1
	ldr	r0, .L144+4
	bl	z_impl_k_mutex_lock
.LVL277:
	.loc 3 910 9 discriminator 3 view .LVU846
.LBE178:
.LBE177:
	.loc 1 1367 82 is_stmt 1 discriminator 3 view .LVU847
	.loc 1 1371 3 discriminator 3 view .LVU848
	.loc 1 1375 3 discriminator 3 view .LVU849
	.loc 1 1375 16 is_stmt 0 discriminator 3 view .LVU850
	add	r3, r4, r4, lsl #1
	ldr	r2, .L144
	add	r3, r2, r3, lsl #3
	ldr	r1, [r3, #36]
	.loc 1 1375 9 discriminator 3 view .LVU851
	adds	r0, r1, #1
.LVL278:
	.loc 1 1376 3 is_stmt 1 discriminator 3 view .LVU852
	.loc 1 1376 21 is_stmt 0 discriminator 3 view .LVU853
	ldr	r3, [r3, #32]
	.loc 1 1376 6 discriminator 3 view .LVU854
	cmp	r3, r0
	beq	.L143
.LVL279:
.L135:
	.loc 1 1382 3 is_stmt 1 view .LVU855
	.loc 1 1382 12 is_stmt 0 view .LVU856
	add	r3, r4, r4, lsl #1
	ldr	r2, .L144
	add	r3, r2, r3, lsl #3
	ldr	r3, [r3, #44]
	.loc 1 1382 6 view .LVU857
	cmp	r3, #2
	beq	.L137
.L136:
	.loc 1 1390 3 is_stmt 1 view .LVU858
	.loc 1 1390 21 is_stmt 0 view .LVU859
	add	r3, r4, r4, lsl #1
	ldr	r2, .L144
	add	r3, r2, r3, lsl #3
	ldr	r3, [r3, #40]
	.loc 1 1390 6 view .LVU860
	cmp	r3, r0
	beq	.L140
	.loc 1 1391 5 is_stmt 1 view .LVU861
	.loc 1 1391 18 is_stmt 0 view .LVU862
	adds	r3, r4, #1
	add	r3, r3, r3, lsl #1
	add	r3, r2, r3, lsl #3
	ldr	r3, [r3, #4]
.LVL280:
	.loc 1 1392 5 is_stmt 1 view .LVU863
	.loc 1 1392 11 is_stmt 0 view .LVU864
	strb	r5, [r3, r1]
	.loc 1 1393 5 is_stmt 1 view .LVU865
	.loc 1 1394 5 view .LVU866
	.loc 1 1394 18 is_stmt 0 view .LVU867
	add	r4, r4, r4, lsl #1
.LVL281:
	.loc 1 1394 18 view .LVU868
	add	r4, r2, r4, lsl #3
	str	r0, [r4, #36]
	.loc 1 1395 5 is_stmt 1 view .LVU869
.LVL282:
	.loc 1 1395 12 is_stmt 0 view .LVU870
	movs	r4, #1
.LVL283:
.L138:
	.loc 1 1402 3 is_stmt 1 view .LVU871
.LBB179:
.LBI179:
	.loc 3 917 19 view .LVU872
.LBB180:
	.loc 3 925 2 view .LVU873
	.loc 3 925 7 view .LVU874
	.loc 3 925 55 view .LVU875
	.loc 3 926 2 view .LVU876
	.loc 3 926 9 is_stmt 0 view .LVU877
	ldr	r0, .L144+4
.LVL284:
	.loc 3 926 9 view .LVU878
	bl	z_impl_k_mutex_unlock
.LVL285:
	.loc 3 926 9 view .LVU879
.LBE180:
.LBE179:
	.loc 1 1402 35 is_stmt 1 view .LVU880
	.loc 1 1403 3 view .LVU881
	.loc 1 1404 1 is_stmt 0 view .LVU882
	mov	r0, r4
	pop	{r3, r4, r5, pc}
.LVL286:
.L142:
.LBB181:
	.loc 1 1366 148 is_stmt 1 discriminator 1 view .LVU883
	bl	_DoInit
.LVL287:
	.loc 1 1366 148 is_stmt 0 discriminator 1 view .LVU884
	b	.L134
.LVL288:
.L143:
	.loc 1 1366 148 discriminator 1 view .LVU885
.LBE181:
	.loc 1 1377 11 view .LVU886
	movs	r0, #0
.LVL289:
	.loc 1 1377 11 view .LVU887
	b	.L135
.LVL290:
.L137:
	.loc 1 1384 7 is_stmt 1 discriminator 1 view .LVU888
	.loc 1 1383 11 discriminator 1 view .LVU889
	.loc 1 1383 26 is_stmt 0 discriminator 1 view .LVU890
	add	r3, r4, r4, lsl #1
	ldr	r2, .L144
	add	r3, r2, r3, lsl #3
	ldr	r3, [r3, #40]
	.loc 1 1383 11 discriminator 1 view .LVU891
	cmp	r3, r0
	beq	.L137
	b	.L136
.L140:
	.loc 1 1397 12 view .LVU892
	movs	r4, #0
.LVL291:
	.loc 1 1397 12 view .LVU893
	b	.L138
.L145:
	.align	2
.L144:
	.word	.LANCHOR1
	.word	rtt_term_mutex
	.cfi_endproc
.LFE522:
	.size	SEGGER_RTT_PutChar, .-SEGGER_RTT_PutChar
	.section	.text.SEGGER_RTT_GetKey,"ax",%progbits
	.align	1
	.global	SEGGER_RTT_GetKey
	.syntax unified
	.thumb
	.thumb_func
	.fpu fpv4-sp-d16
	.type	SEGGER_RTT_GetKey, %function
SEGGER_RTT_GetKey:
.LFB523:
	.loc 1 1421 29 is_stmt 1 view -0
	.cfi_startproc
	@ args = 0, pretend = 0, frame = 8
	@ frame_needed = 0, uses_anonymous_args = 0
	push	{lr}
	.cfi_def_cfa_offset 4
	.cfi_offset 14, -4
	sub	sp, sp, #12
	.cfi_def_cfa_offset 16
	.loc 1 1422 3 view .LVU895
	.loc 1 1423 3 view .LVU896
	.loc 1 1425 3 view .LVU897
	.loc 1 1425 12 is_stmt 0 view .LVU898
	movs	r2, #1
	add	r1, sp, #7
	movs	r0, #0
	bl	SEGGER_RTT_Read
.LVL292:
	.loc 1 1426 3 is_stmt 1 view .LVU899
	.loc 1 1426 6 is_stmt 0 view .LVU900
	cmp	r0, #1
	bne	.L148
	.loc 1 1427 5 is_stmt 1 view .LVU901
	.loc 1 1427 9 is_stmt 0 view .LVU902
	ldrb	r0, [sp, #7]	@ zero_extendqisi2
.LVL293:
.L146:
	.loc 1 1432 1 view .LVU903
	add	sp, sp, #12
	.cfi_remember_state
	.cfi_def_cfa_offset 4
	@ sp needed
	ldr	pc, [sp], #4
.LVL294:
.L148:
	.cfi_restore_state
	.loc 1 1429 7 view .LVU904
	mov	r0, #-1
.LVL295:
	.loc 1 1431 3 is_stmt 1 view .LVU905
	.loc 1 1431 10 is_stmt 0 view .LVU906
	b	.L146
	.cfi_endproc
.LFE523:
	.size	SEGGER_RTT_GetKey, .-SEGGER_RTT_GetKey
	.section	.text.SEGGER_RTT_WaitKey,"ax",%progbits
	.align	1
	.global	SEGGER_RTT_WaitKey
	.syntax unified
	.thumb
	.thumb_func
	.fpu fpv4-sp-d16
	.type	SEGGER_RTT_WaitKey, %function
SEGGER_RTT_WaitKey:
.LFB524:
	.loc 1 1449 30 is_stmt 1 view -0
	.cfi_startproc
	@ args = 0, pretend = 0, frame = 0
	@ frame_needed = 0, uses_anonymous_args = 0
	push	{r3, lr}
	.cfi_def_cfa_offset 8
	.cfi_offset 3, -8
	.cfi_offset 14, -4
.L151:
	.loc 1 1450 3 discriminator 1 view .LVU908
	.loc 1 1452 3 discriminator 1 view .LVU909
	.loc 1 1453 5 discriminator 1 view .LVU910
	.loc 1 1453 9 is_stmt 0 discriminator 1 view .LVU911
	bl	SEGGER_RTT_GetKey
.LVL296:
	.loc 1 1454 11 is_stmt 1 discriminator 1 view .LVU912
	.loc 1 1454 3 is_stmt 0 discriminator 1 view .LVU913
	cmp	r0, #0
	.loc 1 1454 3 discriminator 1 view .LVU914
	blt	.L151
	.loc 1 1456 1 view .LVU915
	pop	{r3, pc}
	.cfi_endproc
.LFE524:
	.size	SEGGER_RTT_WaitKey, .-SEGGER_RTT_WaitKey
	.section	.text.SEGGER_RTT_HasKey,"ax",%progbits
	.align	1
	.global	SEGGER_RTT_HasKey
	.syntax unified
	.thumb
	.thumb_func
	.fpu fpv4-sp-d16
	.type	SEGGER_RTT_HasKey, %function
SEGGER_RTT_HasKey:
.LFB525:
	.loc 1 1472 29 is_stmt 1 view -0
	.cfi_startproc
	@ args = 0, pretend = 0, frame = 0
	@ frame_needed = 0, uses_anonymous_args = 0
	push	{r3, lr}
	.cfi_def_cfa_offset 8
	.cfi_offset 3, -8
	.cfi_offset 14, -4
	.loc 1 1473 3 view .LVU917
	.loc 1 1474 3 view .LVU918
	.loc 1 1475 3 view .LVU919
.LBB182:
	.loc 1 1477 5 view .LVU920
	.loc 1 1477 41 view .LVU921
.LVL297:
	.loc 1 1477 108 view .LVU922
	.loc 1 1477 113 view .LVU923
	.loc 1 1477 133 is_stmt 0 view .LVU924
	ldr	r3, .L159
	ldrb	r3, [r3]	@ zero_extendqisi2
	.loc 1 1477 116 view .LVU925
	cbz	r3, .L158
.L154:
	.loc 1 1477 169 is_stmt 1 discriminator 3 view .LVU926
.LBE182:
	.loc 1 1477 175 discriminator 3 view .LVU927
	.loc 1 1478 3 discriminator 3 view .LVU928
.LVL298:
	.loc 1 1479 3 discriminator 3 view .LVU929
	.loc 1 1479 9 is_stmt 0 discriminator 3 view .LVU930
	ldr	r3, .L159
	ldr	r2, [r3, #112]
.LVL299:
	.loc 1 1480 3 is_stmt 1 discriminator 3 view .LVU931
	.loc 1 1480 21 is_stmt 0 discriminator 3 view .LVU932
	ldr	r3, [r3, #108]
	.loc 1 1480 6 discriminator 3 view .LVU933
	cmp	r3, r2
	beq	.L156
	.loc 1 1481 7 view .LVU934
	movs	r0, #1
.L153:
	.loc 1 1486 1 view .LVU935
	pop	{r3, pc}
.LVL300:
.L158:
.LBB183:
	.loc 1 1477 148 is_stmt 1 discriminator 1 view .LVU936
	bl	_DoInit
.LVL301:
	b	.L154
.LVL302:
.L156:
	.loc 1 1477 148 is_stmt 0 discriminator 1 view .LVU937
.LBE183:
	.loc 1 1483 7 view .LVU938
	movs	r0, #0
.LVL303:
	.loc 1 1485 3 is_stmt 1 view .LVU939
	.loc 1 1485 10 is_stmt 0 view .LVU940
	b	.L153
.L160:
	.align	2
.L159:
	.word	.LANCHOR1
	.cfi_endproc
.LFE525:
	.size	SEGGER_RTT_HasKey, .-SEGGER_RTT_HasKey
	.section	.text.SEGGER_RTT_HasData,"ax",%progbits
	.align	1
	.global	SEGGER_RTT_HasData
	.syntax unified
	.thumb
	.thumb_func
	.fpu fpv4-sp-d16
	.type	SEGGER_RTT_HasData, %function
SEGGER_RTT_HasData:
.LVL304:
.LFB526:
	.loc 1 1500 51 is_stmt 1 view -0
	.cfi_startproc
	@ args = 0, pretend = 0, frame = 0
	@ frame_needed = 0, uses_anonymous_args = 0
	@ link register save eliminated.
	.loc 1 1501 3 view .LVU942
	.loc 1 1502 3 view .LVU943
	.loc 1 1504 3 view .LVU944
	.loc 1 1505 3 view .LVU945
	.loc 1 1505 5 is_stmt 0 view .LVU946
	ldr	r3, .L162
	add	r2, r0, r0, lsl #1
	add	r2, r3, r2, lsl #3
	ldr	r2, [r2, #108]
.LVL305:
	.loc 1 1506 3 is_stmt 1 view .LVU947
	.loc 1 1506 19 is_stmt 0 view .LVU948
	add	r0, r0, r0, lsl #1
.LVL306:
	.loc 1 1506 19 view .LVU949
	add	r0, r3, r0, lsl #3
	ldr	r0, [r0, #112]
	.loc 1 1507 1 view .LVU950
	subs	r0, r2, r0
	bx	lr
.L163:
	.align	2
.L162:
	.word	.LANCHOR1
	.cfi_endproc
.LFE526:
	.size	SEGGER_RTT_HasData, .-SEGGER_RTT_HasData
	.section	.text.SEGGER_RTT_HasDataUp,"ax",%progbits
	.align	1
	.global	SEGGER_RTT_HasDataUp
	.syntax unified
	.thumb
	.thumb_func
	.fpu fpv4-sp-d16
	.type	SEGGER_RTT_HasDataUp, %function
SEGGER_RTT_HasDataUp:
.LVL307:
.LFB527:
	.loc 1 1521 53 is_stmt 1 view -0
	.cfi_startproc
	@ args = 0, pretend = 0, frame = 0
	@ frame_needed = 0, uses_anonymous_args = 0
	@ link register save eliminated.
	.loc 1 1522 3 view .LVU952
	.loc 1 1523 3 view .LVU953
	.loc 1 1525 3 view .LVU954
	.loc 1 1526 3 view .LVU955
	.loc 1 1526 5 is_stmt 0 view .LVU956
	ldr	r3, .L165
	add	r2, r0, r0, lsl #1
	add	r2, r3, r2, lsl #3
	ldr	r2, [r2, #40]
.LVL308:
	.loc 1 1527 3 is_stmt 1 view .LVU957
	.loc 1 1527 15 is_stmt 0 view .LVU958
	add	r0, r0, r0, lsl #1
.LVL309:
	.loc 1 1527 15 view .LVU959
	add	r0, r3, r0, lsl #3
	ldr	r0, [r0, #36]
	.loc 1 1528 1 view .LVU960
	subs	r0, r0, r2
	bx	lr
.L166:
	.align	2
.L165:
	.word	.LANCHOR1
	.cfi_endproc
.LFE527:
	.size	SEGGER_RTT_HasDataUp, .-SEGGER_RTT_HasDataUp
	.section	.text.SEGGER_RTT_AllocDownBuffer,"ax",%progbits
	.align	1
	.global	SEGGER_RTT_AllocDownBuffer
	.syntax unified
	.thumb
	.thumb_func
	.fpu fpv4-sp-d16
	.type	SEGGER_RTT_AllocDownBuffer, %function
SEGGER_RTT_AllocDownBuffer:
.LVL310:
.LFB528:
	.loc 1 1549 103 is_stmt 1 view -0
	.cfi_startproc
	@ args = 0, pretend = 0, frame = 0
	@ frame_needed = 0, uses_anonymous_args = 0
	.loc 1 1549 103 is_stmt 0 view .LVU962
	push	{r4, r5, r6, r7, r8, r9, r10, lr}
	.cfi_def_cfa_offset 32
	.cfi_offset 4, -32
	.cfi_offset 5, -28
	.cfi_offset 6, -24
	.cfi_offset 7, -20
	.cfi_offset 8, -16
	.cfi_offset 9, -12
	.cfi_offset 10, -8
	.cfi_offset 14, -4
	mov	r10, r0
	mov	r9, r1
	mov	r8, r2
	mov	r7, r3
	.loc 1 1550 3 is_stmt 1 view .LVU963
	.loc 1 1551 3 view .LVU964
.LBB184:
	.loc 1 1553 5 view .LVU965
	.loc 1 1553 41 view .LVU966
.LVL311:
	.loc 1 1553 108 view .LVU967
	.loc 1 1553 113 view .LVU968
	.loc 1 1553 133 is_stmt 0 view .LVU969
	ldr	r3, .L175
.LVL312:
	.loc 1 1553 133 view .LVU970
	ldrb	r3, [r3]	@ zero_extendqisi2
	.loc 1 1553 116 view .LVU971
	cbz	r3, .L174
.LVL313:
.L168:
	.loc 1 1553 169 is_stmt 1 discriminator 3 view .LVU972
.LBE184:
	.loc 1 1553 175 discriminator 3 view .LVU973
	.loc 1 1554 3 discriminator 3 view .LVU974
.LBB185:
.LBI185:
	.loc 3 899 19 discriminator 3 view .LVU975
.LBB186:
	.loc 3 909 2 discriminator 3 view .LVU976
	.loc 3 909 7 discriminator 3 view .LVU977
	.loc 3 909 55 discriminator 3 view .LVU978
	.loc 3 910 2 discriminator 3 view .LVU979
	.loc 3 910 9 is_stmt 0 discriminator 3 view .LVU980
	mov	r2, #-1
	mov	r3, #-1
	ldr	r0, .L175+4
	bl	z_impl_k_mutex_lock
.LVL314:
	.loc 3 910 9 discriminator 3 view .LVU981
.LBE186:
.LBE185:
	.loc 1 1554 82 is_stmt 1 discriminator 3 view .LVU982
	.loc 1 1555 3 discriminator 3 view .LVU983
	.loc 1 1556 3 discriminator 3 view .LVU984
	.loc 1 1556 15 is_stmt 0 discriminator 3 view .LVU985
	movs	r4, #0
.LVL315:
.L170:
	.loc 1 1557 3 is_stmt 1 view .LVU986
	.loc 1 1558 5 view .LVU987
	.loc 1 1558 35 is_stmt 0 view .LVU988
	add	r5, r4, r4, lsl #1
	ldr	r6, .L175
	add	r5, r6, r5, lsl #3
	ldr	r3, [r5, #100]
	.loc 1 1558 8 view .LVU989
	cbz	r3, .L169
	.loc 1 1561 5 is_stmt 1 view .LVU990
	.loc 1 1561 16 is_stmt 0 view .LVU991
	adds	r4, r4, #1
.LVL316:
	.loc 1 1562 11 is_stmt 1 view .LVU992
	.loc 1 1562 32 is_stmt 0 view .LVU993
	ldr	r3, [r6, #20]
	.loc 1 1562 3 view .LVU994
	cmp	r3, r4
	bgt	.L170
.L169:
	.loc 1 1563 3 is_stmt 1 view .LVU995
	.loc 1 1563 27 is_stmt 0 view .LVU996
	ldr	r3, .L175
	ldr	r3, [r3, #20]
	.loc 1 1563 6 view .LVU997
	cmp	r3, r4
	ble	.L172
	.loc 1 1564 5 is_stmt 1 view .LVU998
	.loc 1 1564 38 is_stmt 0 view .LVU999
	add	r3, r4, r4, lsl #1
	ldr	r2, .L175
	add	r3, r2, r3, lsl #3
	str	r10, [r3, #96]
	.loc 1 1565 5 is_stmt 1 view .LVU1000
	.loc 1 1565 40 is_stmt 0 view .LVU1001
	str	r9, [r3, #100]
	.loc 1 1566 5 is_stmt 1 view .LVU1002
	.loc 1 1566 45 is_stmt 0 view .LVU1003
	str	r8, [r3, #104]
	.loc 1 1567 5 is_stmt 1 view .LVU1004
	.loc 1 1567 38 is_stmt 0 view .LVU1005
	movs	r2, #0
	str	r2, [r3, #112]
	.loc 1 1568 5 is_stmt 1 view .LVU1006
	.loc 1 1568 38 is_stmt 0 view .LVU1007
	str	r2, [r3, #108]
	.loc 1 1569 5 is_stmt 1 view .LVU1008
	.loc 1 1569 38 is_stmt 0 view .LVU1009
	str	r7, [r3, #116]
	.loc 1 1570 5 is_stmt 1 view .LVU1010
.LVL317:
.L171:
	.loc 1 1574 3 view .LVU1011
.LBB187:
.LBI187:
	.loc 3 917 19 view .LVU1012
.LBB188:
	.loc 3 925 2 view .LVU1013
	.loc 3 925 7 view .LVU1014
	.loc 3 925 55 view .LVU1015
	.loc 3 926 2 view .LVU1016
	.loc 3 926 9 is_stmt 0 view .LVU1017
	ldr	r0, .L175+4
	bl	z_impl_k_mutex_unlock
.LVL318:
	.loc 3 926 9 view .LVU1018
.LBE188:
.LBE187:
	.loc 1 1574 35 is_stmt 1 view .LVU1019
	.loc 1 1575 3 view .LVU1020
	.loc 1 1576 1 is_stmt 0 view .LVU1021
	mov	r0, r4
	pop	{r4, r5, r6, r7, r8, r9, r10, pc}
.LVL319:
.L174:
.LBB189:
	.loc 1 1553 148 is_stmt 1 discriminator 1 view .LVU1022
	bl	_DoInit
.LVL320:
	.loc 1 1553 148 is_stmt 0 discriminator 1 view .LVU1023
	b	.L168
.LVL321:
.L172:
	.loc 1 1553 148 discriminator 1 view .LVU1024
.LBE189:
	.loc 1 1572 17 view .LVU1025
	mov	r4, #-1
.LVL322:
	.loc 1 1572 17 view .LVU1026
	b	.L171
.L176:
	.align	2
.L175:
	.word	.LANCHOR1
	.word	rtt_term_mutex
	.cfi_endproc
.LFE528:
	.size	SEGGER_RTT_AllocDownBuffer, .-SEGGER_RTT_AllocDownBuffer
	.section	.text.SEGGER_RTT_AllocUpBuffer,"ax",%progbits
	.align	1
	.global	SEGGER_RTT_AllocUpBuffer
	.syntax unified
	.thumb
	.thumb_func
	.fpu fpv4-sp-d16
	.type	SEGGER_RTT_AllocUpBuffer, %function
SEGGER_RTT_AllocUpBuffer:
.LVL323:
.LFB529:
	.loc 1 1597 101 is_stmt 1 view -0
	.cfi_startproc
	@ args = 0, pretend = 0, frame = 0
	@ frame_needed = 0, uses_anonymous_args = 0
	.loc 1 1597 101 is_stmt 0 view .LVU1028
	push	{r3, r4, r5, r6, r7, r8, r9, lr}
	.cfi_def_cfa_offset 32
	.cfi_offset 3, -32
	.cfi_offset 4, -28
	.cfi_offset 5, -24
	.cfi_offset 6, -20
	.cfi_offset 7, -16
	.cfi_offset 8, -12
	.cfi_offset 9, -8
	.cfi_offset 14, -4
	mov	r9, r0
	mov	r8, r1
	mov	r7, r2
	mov	r6, r3
	.loc 1 1598 3 is_stmt 1 view .LVU1029
	.loc 1 1599 3 view .LVU1030
.LBB190:
	.loc 1 1601 5 view .LVU1031
	.loc 1 1601 41 view .LVU1032
.LVL324:
	.loc 1 1601 108 view .LVU1033
	.loc 1 1601 113 view .LVU1034
	.loc 1 1601 133 is_stmt 0 view .LVU1035
	ldr	r3, .L185
.LVL325:
	.loc 1 1601 133 view .LVU1036
	ldrb	r3, [r3]	@ zero_extendqisi2
	.loc 1 1601 116 view .LVU1037
	cmp	r3, #0
	beq	.L184
.LVL326:
.L178:
	.loc 1 1601 169 is_stmt 1 discriminator 3 view .LVU1038
.LBE190:
	.loc 1 1601 175 discriminator 3 view .LVU1039
	.loc 1 1602 3 discriminator 3 view .LVU1040
.LBB191:
.LBI191:
	.loc 3 899 19 discriminator 3 view .LVU1041
.LBB192:
	.loc 3 909 2 discriminator 3 view .LVU1042
	.loc 3 909 7 discriminator 3 view .LVU1043
	.loc 3 909 55 discriminator 3 view .LVU1044
	.loc 3 910 2 discriminator 3 view .LVU1045
	.loc 3 910 9 is_stmt 0 discriminator 3 view .LVU1046
	mov	r2, #-1
	mov	r3, #-1
	ldr	r0, .L185+4
	bl	z_impl_k_mutex_lock
.LVL327:
	.loc 3 910 9 discriminator 3 view .LVU1047
.LBE192:
.LBE191:
	.loc 1 1602 82 is_stmt 1 discriminator 3 view .LVU1048
	.loc 1 1603 3 discriminator 3 view .LVU1049
	.loc 1 1604 3 discriminator 3 view .LVU1050
	.loc 1 1604 15 is_stmt 0 discriminator 3 view .LVU1051
	movs	r5, #0
.LVL328:
.L180:
	.loc 1 1605 3 is_stmt 1 view .LVU1052
	.loc 1 1606 5 view .LVU1053
	.loc 1 1606 33 is_stmt 0 view .LVU1054
	adds	r4, r5, #1
	add	r4, r4, r4, lsl #1
	ldr	r3, .L185
	add	r4, r3, r4, lsl #3
	ldr	r3, [r4, #4]
	.loc 1 1606 8 view .LVU1055
	cbz	r3, .L179
	.loc 1 1609 5 is_stmt 1 view .LVU1056
	.loc 1 1609 16 is_stmt 0 view .LVU1057
	adds	r5, r5, #1
.LVL329:
	.loc 1 1610 11 is_stmt 1 view .LVU1058
	.loc 1 1610 32 is_stmt 0 view .LVU1059
	ldr	r3, .L185
	ldr	r3, [r3, #16]
	.loc 1 1610 3 view .LVU1060
	cmp	r3, r5
	bgt	.L180
.L179:
	.loc 1 1611 3 is_stmt 1 view .LVU1061
	.loc 1 1611 27 is_stmt 0 view .LVU1062
	ldr	r3, .L185
	ldr	r3, [r3, #16]
	.loc 1 1611 6 view .LVU1063
	cmp	r3, r5
	ble	.L182
	.loc 1 1612 5 is_stmt 1 view .LVU1064
	.loc 1 1612 36 is_stmt 0 view .LVU1065
	ldr	r3, .L185
	adds	r2, r5, #1
	add	r1, r2, r2, lsl #1
	lsls	r1, r1, #3
	str	r9, [r3, r1]
	.loc 1 1613 5 is_stmt 1 view .LVU1066
	.loc 1 1613 38 is_stmt 0 view .LVU1067
	add	r2, r2, r2, lsl #1
	add	r2, r3, r2, lsl #3
	str	r8, [r2, #4]
	.loc 1 1614 5 is_stmt 1 view .LVU1068
	.loc 1 1614 43 is_stmt 0 view .LVU1069
	add	r2, r5, r5, lsl #1
	add	r3, r3, r2, lsl #3
	str	r7, [r3, #32]
	.loc 1 1615 5 is_stmt 1 view .LVU1070
	.loc 1 1615 36 is_stmt 0 view .LVU1071
	movs	r2, #0
	str	r2, [r3, #40]
	.loc 1 1616 5 is_stmt 1 view .LVU1072
	.loc 1 1616 36 is_stmt 0 view .LVU1073
	str	r2, [r3, #36]
	.loc 1 1617 5 is_stmt 1 view .LVU1074
	.loc 1 1617 36 is_stmt 0 view .LVU1075
	str	r6, [r3, #44]
	.loc 1 1618 5 is_stmt 1 view .LVU1076
.LVL330:
.L181:
	.loc 1 1622 3 view .LVU1077
.LBB193:
.LBI193:
	.loc 3 917 19 view .LVU1078
.LBB194:
	.loc 3 925 2 view .LVU1079
	.loc 3 925 7 view .LVU1080
	.loc 3 925 55 view .LVU1081
	.loc 3 926 2 view .LVU1082
	.loc 3 926 9 is_stmt 0 view .LVU1083
	ldr	r0, .L185+4
	bl	z_impl_k_mutex_unlock
.LVL331:
	.loc 3 926 9 view .LVU1084
.LBE194:
.LBE193:
	.loc 1 1622 35 is_stmt 1 view .LVU1085
	.loc 1 1623 3 view .LVU1086
	.loc 1 1624 1 is_stmt 0 view .LVU1087
	mov	r0, r5
	pop	{r3, r4, r5, r6, r7, r8, r9, pc}
.LVL332:
.L184:
.LBB195:
	.loc 1 1601 148 is_stmt 1 discriminator 1 view .LVU1088
	bl	_DoInit
.LVL333:
	.loc 1 1601 148 is_stmt 0 discriminator 1 view .LVU1089
	b	.L178
.LVL334:
.L182:
	.loc 1 1601 148 discriminator 1 view .LVU1090
.LBE195:
	.loc 1 1620 17 view .LVU1091
	mov	r5, #-1
.LVL335:
	.loc 1 1620 17 view .LVU1092
	b	.L181
.L186:
	.align	2
.L185:
	.word	.LANCHOR1
	.word	rtt_term_mutex
	.cfi_endproc
.LFE529:
	.size	SEGGER_RTT_AllocUpBuffer, .-SEGGER_RTT_AllocUpBuffer
	.section	.text.SEGGER_RTT_ConfigUpBuffer,"ax",%progbits
	.align	1
	.global	SEGGER_RTT_ConfigUpBuffer
	.syntax unified
	.thumb
	.thumb_func
	.fpu fpv4-sp-d16
	.type	SEGGER_RTT_ConfigUpBuffer, %function
SEGGER_RTT_ConfigUpBuffer:
.LVL336:
.LFB530:
	.loc 1 1651 124 is_stmt 1 view -0
	.cfi_startproc
	@ args = 4, pretend = 0, frame = 0
	@ frame_needed = 0, uses_anonymous_args = 0
	.loc 1 1651 124 is_stmt 0 view .LVU1094
	push	{r4, r5, r6, r7, r8, lr}
	.cfi_def_cfa_offset 24
	.cfi_offset 4, -24
	.cfi_offset 5, -20
	.cfi_offset 6, -16
	.cfi_offset 7, -12
	.cfi_offset 8, -8
	.cfi_offset 14, -4
	mov	r4, r0
	mov	r8, r1
	mov	r7, r2
	mov	r6, r3
	.loc 1 1652 3 is_stmt 1 view .LVU1095
	.loc 1 1653 3 view .LVU1096
	.loc 1 1654 3 view .LVU1097
.LBB196:
	.loc 1 1656 5 view .LVU1098
	.loc 1 1656 41 view .LVU1099
.LVL337:
	.loc 1 1656 108 view .LVU1100
	.loc 1 1656 113 view .LVU1101
	.loc 1 1656 133 is_stmt 0 view .LVU1102
	ldr	r3, .L194
.LVL338:
	.loc 1 1656 133 view .LVU1103
	ldrb	r3, [r3]	@ zero_extendqisi2
	.loc 1 1656 116 view .LVU1104
	cbz	r3, .L193
.LVL339:
.L188:
	.loc 1 1656 169 is_stmt 1 discriminator 3 view .LVU1105
.LBE196:
	.loc 1 1656 175 discriminator 3 view .LVU1106
	.loc 1 1657 3 discriminator 3 view .LVU1107
	.loc 1 1658 3 discriminator 3 view .LVU1108
	.loc 1 1658 6 is_stmt 0 discriminator 3 view .LVU1109
	cmp	r4, #2
	bhi	.L191
.LBB197:
	.loc 1 1659 5 is_stmt 1 view .LVU1110
.LVL340:
.LBB198:
.LBI198:
	.loc 3 899 19 view .LVU1111
.LBB199:
	.loc 3 909 2 view .LVU1112
	.loc 3 909 7 view .LVU1113
	.loc 3 909 55 view .LVU1114
	.loc 3 910 2 view .LVU1115
	.loc 3 910 9 is_stmt 0 view .LVU1116
	mov	r2, #-1
	mov	r3, #-1
	ldr	r0, .L194+4
	bl	z_impl_k_mutex_lock
.LVL341:
	.loc 3 910 9 view .LVU1117
.LBE199:
.LBE198:
	.loc 1 1659 84 is_stmt 1 view .LVU1118
	.loc 1 1660 5 view .LVU1119
	.loc 1 1661 5 view .LVU1120
	.loc 1 1661 8 is_stmt 0 view .LVU1121
	cbz	r4, .L190
	.loc 1 1662 7 is_stmt 1 view .LVU1122
	.loc 1 1662 18 is_stmt 0 view .LVU1123
	ldr	r5, .L194
	adds	r0, r4, #1
	add	r3, r0, r0, lsl #1
	lsls	r3, r3, #3
	str	r8, [r5, r3]
	.loc 1 1663 7 is_stmt 1 view .LVU1124
	.loc 1 1663 20 is_stmt 0 view .LVU1125
	add	r0, r0, r0, lsl #1
	add	r0, r5, r0, lsl #3
	str	r7, [r0, #4]
	.loc 1 1664 7 is_stmt 1 view .LVU1126
	.loc 1 1664 25 is_stmt 0 view .LVU1127
	add	r2, r4, r4, lsl #1
	add	r2, r5, r2, lsl #3
	str	r6, [r2, #32]
	.loc 1 1665 7 is_stmt 1 view .LVU1128
	.loc 1 1665 18 is_stmt 0 view .LVU1129
	movs	r3, #0
	str	r3, [r2, #40]
	.loc 1 1666 7 is_stmt 1 view .LVU1130
	.loc 1 1666 18 is_stmt 0 view .LVU1131
	str	r3, [r2, #36]
.L190:
	.loc 1 1668 5 is_stmt 1 view .LVU1132
	.loc 1 1668 16 is_stmt 0 view .LVU1133
	add	r4, r4, r4, lsl #1
.LVL342:
	.loc 1 1668 16 view .LVU1134
	ldr	r0, .L194
	add	r4, r0, r4, lsl #3
	ldr	r3, [sp, #24]
	str	r3, [r4, #44]
	.loc 1 1669 5 is_stmt 1 view .LVU1135
.LVL343:
.LBB200:
.LBI200:
	.loc 3 917 19 view .LVU1136
.LBB201:
	.loc 3 925 2 view .LVU1137
	.loc 3 925 7 view .LVU1138
	.loc 3 925 55 view .LVU1139
	.loc 3 926 2 view .LVU1140
	.loc 3 926 9 is_stmt 0 view .LVU1141
	ldr	r0, .L194+4
	bl	z_impl_k_mutex_unlock
.LVL344:
	.loc 3 926 9 view .LVU1142
.LBE201:
.LBE200:
	.loc 1 1669 37 is_stmt 1 view .LVU1143
	.loc 1 1670 5 view .LVU1144
	.loc 1 1670 7 is_stmt 0 view .LVU1145
	movs	r0, #0
.LVL345:
.L187:
	.loc 1 1670 7 view .LVU1146
.LBE197:
	.loc 1 1675 1 view .LVU1147
	pop	{r4, r5, r6, r7, r8, pc}
.LVL346:
.L193:
.LBB202:
	.loc 1 1656 148 is_stmt 1 discriminator 1 view .LVU1148
	bl	_DoInit
.LVL347:
	.loc 1 1656 148 is_stmt 0 discriminator 1 view .LVU1149
	b	.L188
.LVL348:
.L191:
	.loc 1 1656 148 discriminator 1 view .LVU1150
.LBE202:
	.loc 1 1672 7 view .LVU1151
	mov	r0, #-1
.LVL349:
	.loc 1 1674 3 is_stmt 1 view .LVU1152
	.loc 1 1674 10 is_stmt 0 view .LVU1153
	b	.L187
.L195:
	.align	2
.L194:
	.word	.LANCHOR1
	.word	rtt_term_mutex
	.cfi_endproc
.LFE530:
	.size	SEGGER_RTT_ConfigUpBuffer, .-SEGGER_RTT_ConfigUpBuffer
	.section	.text.SEGGER_RTT_ConfigDownBuffer,"ax",%progbits
	.align	1
	.global	SEGGER_RTT_ConfigDownBuffer
	.syntax unified
	.thumb
	.thumb_func
	.fpu fpv4-sp-d16
	.type	SEGGER_RTT_ConfigDownBuffer, %function
SEGGER_RTT_ConfigDownBuffer:
.LVL350:
.LFB531:
	.loc 1 1702 126 is_stmt 1 view -0
	.cfi_startproc
	@ args = 4, pretend = 0, frame = 0
	@ frame_needed = 0, uses_anonymous_args = 0
	.loc 1 1702 126 is_stmt 0 view .LVU1155
	push	{r4, r5, r6, r7, r8, lr}
	.cfi_def_cfa_offset 24
	.cfi_offset 4, -24
	.cfi_offset 5, -20
	.cfi_offset 6, -16
	.cfi_offset 7, -12
	.cfi_offset 8, -8
	.cfi_offset 14, -4
	mov	r4, r0
	mov	r7, r1
	mov	r6, r2
	mov	r8, r3
	.loc 1 1703 3 is_stmt 1 view .LVU1156
	.loc 1 1704 3 view .LVU1157
	.loc 1 1705 3 view .LVU1158
.LBB203:
	.loc 1 1707 5 view .LVU1159
	.loc 1 1707 41 view .LVU1160
.LVL351:
	.loc 1 1707 108 view .LVU1161
	.loc 1 1707 113 view .LVU1162
	.loc 1 1707 133 is_stmt 0 view .LVU1163
	ldr	r0, .L203
.LVL352:
	.loc 1 1707 133 view .LVU1164
	ldrb	r0, [r0]	@ zero_extendqisi2
	.loc 1 1707 116 view .LVU1165
	cbz	r0, .L202
.LVL353:
.L197:
	.loc 1 1707 169 is_stmt 1 discriminator 3 view .LVU1166
.LBE203:
	.loc 1 1707 175 discriminator 3 view .LVU1167
	.loc 1 1708 3 discriminator 3 view .LVU1168
	.loc 1 1709 3 discriminator 3 view .LVU1169
	.loc 1 1709 6 is_stmt 0 discriminator 3 view .LVU1170
	cmp	r4, #2
	bhi	.L200
.LBB204:
	.loc 1 1710 5 is_stmt 1 view .LVU1171
.LVL354:
.LBB205:
.LBI205:
	.loc 3 899 19 view .LVU1172
.LBB206:
	.loc 3 909 2 view .LVU1173
	.loc 3 909 7 view .LVU1174
	.loc 3 909 55 view .LVU1175
	.loc 3 910 2 view .LVU1176
	.loc 3 910 9 is_stmt 0 view .LVU1177
	mov	r2, #-1
	mov	r3, #-1
	ldr	r0, .L203+4
	bl	z_impl_k_mutex_lock
.LVL355:
	.loc 3 910 9 view .LVU1178
.LBE206:
.LBE205:
	.loc 1 1710 84 is_stmt 1 view .LVU1179
	.loc 1 1711 5 view .LVU1180
	.loc 1 1712 5 view .LVU1181
	.loc 1 1712 8 is_stmt 0 view .LVU1182
	cbz	r4, .L199
	.loc 1 1713 7 is_stmt 1 view .LVU1183
	.loc 1 1713 20 is_stmt 0 view .LVU1184
	add	r0, r4, r4, lsl #1
	ldr	r5, .L203
	add	r0, r5, r0, lsl #3
	str	r7, [r0, #96]
	.loc 1 1714 7 is_stmt 1 view .LVU1185
	.loc 1 1714 22 is_stmt 0 view .LVU1186
	str	r6, [r0, #100]
	.loc 1 1715 7 is_stmt 1 view .LVU1187
	.loc 1 1715 27 is_stmt 0 view .LVU1188
	str	r8, [r0, #104]
	.loc 1 1716 7 is_stmt 1 view .LVU1189
	.loc 1 1716 20 is_stmt 0 view .LVU1190
	movs	r3, #0
	str	r3, [r0, #112]
	.loc 1 1717 7 is_stmt 1 view .LVU1191
	.loc 1 1717 20 is_stmt 0 view .LVU1192
	str	r3, [r0, #108]
.L199:
	.loc 1 1719 5 is_stmt 1 view .LVU1193
	.loc 1 1719 18 is_stmt 0 view .LVU1194
	add	r4, r4, r4, lsl #1
.LVL356:
	.loc 1 1719 18 view .LVU1195
	ldr	r0, .L203
	add	r4, r0, r4, lsl #3
	ldr	r3, [sp, #24]
	str	r3, [r4, #116]
	.loc 1 1720 5 is_stmt 1 view .LVU1196
	.loc 1 1721 5 view .LVU1197
.LVL357:
.LBB207:
.LBI207:
	.loc 3 917 19 view .LVU1198
.LBB208:
	.loc 3 925 2 view .LVU1199
	.loc 3 925 7 view .LVU1200
	.loc 3 925 55 view .LVU1201
	.loc 3 926 2 view .LVU1202
	.loc 3 926 9 is_stmt 0 view .LVU1203
	ldr	r0, .L203+4
	bl	z_impl_k_mutex_unlock
.LVL358:
	.loc 3 926 9 view .LVU1204
.LBE208:
.LBE207:
	.loc 1 1721 37 is_stmt 1 view .LVU1205
	.loc 1 1722 5 view .LVU1206
	.loc 1 1722 7 is_stmt 0 view .LVU1207
	movs	r0, #0
.LVL359:
.L196:
	.loc 1 1722 7 view .LVU1208
.LBE204:
	.loc 1 1727 1 view .LVU1209
	pop	{r4, r5, r6, r7, r8, pc}
.LVL360:
.L202:
.LBB209:
	.loc 1 1707 148 is_stmt 1 discriminator 1 view .LVU1210
	bl	_DoInit
.LVL361:
	.loc 1 1707 148 is_stmt 0 discriminator 1 view .LVU1211
	b	.L197
.LVL362:
.L200:
	.loc 1 1707 148 discriminator 1 view .LVU1212
.LBE209:
	.loc 1 1724 7 view .LVU1213
	mov	r0, #-1
.LVL363:
	.loc 1 1726 3 is_stmt 1 view .LVU1214
	.loc 1 1726 10 is_stmt 0 view .LVU1215
	b	.L196
.L204:
	.align	2
.L203:
	.word	.LANCHOR1
	.word	rtt_term_mutex
	.cfi_endproc
.LFE531:
	.size	SEGGER_RTT_ConfigDownBuffer, .-SEGGER_RTT_ConfigDownBuffer
	.section	.text.SEGGER_RTT_SetNameUpBuffer,"ax",%progbits
	.align	1
	.global	SEGGER_RTT_SetNameUpBuffer
	.syntax unified
	.thumb
	.thumb_func
	.fpu fpv4-sp-d16
	.type	SEGGER_RTT_SetNameUpBuffer, %function
SEGGER_RTT_SetNameUpBuffer:
.LVL364:
.LFB532:
	.loc 1 1745 73 is_stmt 1 view -0
	.cfi_startproc
	@ args = 0, pretend = 0, frame = 0
	@ frame_needed = 0, uses_anonymous_args = 0
	.loc 1 1745 73 is_stmt 0 view .LVU1217
	push	{r4, r5, r6, lr}
	.cfi_def_cfa_offset 16
	.cfi_offset 4, -16
	.cfi_offset 5, -12
	.cfi_offset 6, -8
	.cfi_offset 14, -4
	mov	r4, r0
	mov	r6, r1
	.loc 1 1746 3 is_stmt 1 view .LVU1218
	.loc 1 1747 3 view .LVU1219
	.loc 1 1748 3 view .LVU1220
.LBB210:
	.loc 1 1750 5 view .LVU1221
	.loc 1 1750 41 view .LVU1222
.LVL365:
	.loc 1 1750 108 view .LVU1223
	.loc 1 1750 113 view .LVU1224
	.loc 1 1750 133 is_stmt 0 view .LVU1225
	ldr	r3, .L211
	ldrb	r3, [r3]	@ zero_extendqisi2
	.loc 1 1750 116 view .LVU1226
	cbz	r3, .L210
.LVL366:
.L206:
	.loc 1 1750 169 is_stmt 1 discriminator 3 view .LVU1227
.LBE210:
	.loc 1 1750 175 discriminator 3 view .LVU1228
	.loc 1 1751 3 discriminator 3 view .LVU1229
	.loc 1 1752 3 discriminator 3 view .LVU1230
	.loc 1 1752 6 is_stmt 0 discriminator 3 view .LVU1231
	cmp	r4, #2
	bhi	.L208
.LBB211:
	.loc 1 1753 5 is_stmt 1 view .LVU1232
.LVL367:
.LBB212:
.LBI212:
	.loc 3 899 19 view .LVU1233
.LBB213:
	.loc 3 909 2 view .LVU1234
	.loc 3 909 7 view .LVU1235
	.loc 3 909 55 view .LVU1236
	.loc 3 910 2 view .LVU1237
	.loc 3 910 9 is_stmt 0 view .LVU1238
	ldr	r5, .L211+4
	mov	r2, #-1
	mov	r3, #-1
	mov	r0, r5
	bl	z_impl_k_mutex_lock
.LVL368:
	.loc 3 910 9 view .LVU1239
.LBE213:
.LBE212:
	.loc 1 1753 84 is_stmt 1 view .LVU1240
	.loc 1 1754 5 view .LVU1241
	.loc 1 1755 5 view .LVU1242
	.loc 1 1755 16 is_stmt 0 view .LVU1243
	adds	r4, r4, #1
.LVL369:
	.loc 1 1755 16 view .LVU1244
	add	r4, r4, r4, lsl #1
.LVL370:
	.loc 1 1755 16 view .LVU1245
	lsls	r4, r4, #3
	ldr	r3, .L211
	str	r6, [r3, r4]
	.loc 1 1756 5 is_stmt 1 view .LVU1246
.LVL371:
.LBB214:
.LBI214:
	.loc 3 917 19 view .LVU1247
.LBB215:
	.loc 3 925 2 view .LVU1248
	.loc 3 925 7 view .LVU1249
	.loc 3 925 55 view .LVU1250
	.loc 3 926 2 view .LVU1251
	.loc 3 926 9 is_stmt 0 view .LVU1252
	mov	r0, r5
	bl	z_impl_k_mutex_unlock
.LVL372:
	.loc 3 926 9 view .LVU1253
.LBE215:
.LBE214:
	.loc 1 1756 37 is_stmt 1 view .LVU1254
	.loc 1 1757 5 view .LVU1255
	.loc 1 1757 7 is_stmt 0 view .LVU1256
	movs	r0, #0
.LVL373:
.L205:
	.loc 1 1757 7 view .LVU1257
.LBE211:
	.loc 1 1762 1 view .LVU1258
	pop	{r4, r5, r6, pc}
.LVL374:
.L210:
.LBB216:
	.loc 1 1750 148 is_stmt 1 discriminator 1 view .LVU1259
	bl	_DoInit
.LVL375:
	.loc 1 1750 148 is_stmt 0 discriminator 1 view .LVU1260
	b	.L206
.LVL376:
.L208:
	.loc 1 1750 148 discriminator 1 view .LVU1261
.LBE216:
	.loc 1 1759 7 view .LVU1262
	mov	r0, #-1
.LVL377:
	.loc 1 1761 3 is_stmt 1 view .LVU1263
	.loc 1 1761 10 is_stmt 0 view .LVU1264
	b	.L205
.L212:
	.align	2
.L211:
	.word	.LANCHOR1
	.word	rtt_term_mutex
	.cfi_endproc
.LFE532:
	.size	SEGGER_RTT_SetNameUpBuffer, .-SEGGER_RTT_SetNameUpBuffer
	.section	.text.SEGGER_RTT_SetNameDownBuffer,"ax",%progbits
	.align	1
	.global	SEGGER_RTT_SetNameDownBuffer
	.syntax unified
	.thumb
	.thumb_func
	.fpu fpv4-sp-d16
	.type	SEGGER_RTT_SetNameDownBuffer, %function
SEGGER_RTT_SetNameDownBuffer:
.LVL378:
.LFB533:
	.loc 1 1780 75 is_stmt 1 view -0
	.cfi_startproc
	@ args = 0, pretend = 0, frame = 0
	@ frame_needed = 0, uses_anonymous_args = 0
	.loc 1 1780 75 is_stmt 0 view .LVU1266
	push	{r4, r5, r6, lr}
	.cfi_def_cfa_offset 16
	.cfi_offset 4, -16
	.cfi_offset 5, -12
	.cfi_offset 6, -8
	.cfi_offset 14, -4
	mov	r4, r0
	mov	r5, r1
	.loc 1 1781 3 is_stmt 1 view .LVU1267
	.loc 1 1782 3 view .LVU1268
	.loc 1 1783 3 view .LVU1269
.LBB217:
	.loc 1 1785 5 view .LVU1270
	.loc 1 1785 41 view .LVU1271
.LVL379:
	.loc 1 1785 108 view .LVU1272
	.loc 1 1785 113 view .LVU1273
	.loc 1 1785 133 is_stmt 0 view .LVU1274
	ldr	r3, .L219
	ldrb	r3, [r3]	@ zero_extendqisi2
	.loc 1 1785 116 view .LVU1275
	cbz	r3, .L218
.LVL380:
.L214:
	.loc 1 1785 169 is_stmt 1 discriminator 3 view .LVU1276
.LBE217:
	.loc 1 1785 175 discriminator 3 view .LVU1277
	.loc 1 1786 3 discriminator 3 view .LVU1278
	.loc 1 1787 3 discriminator 3 view .LVU1279
	.loc 1 1787 6 is_stmt 0 discriminator 3 view .LVU1280
	cmp	r4, #2
	bhi	.L216
.LBB218:
	.loc 1 1788 5 is_stmt 1 view .LVU1281
.LVL381:
.LBB219:
.LBI219:
	.loc 3 899 19 view .LVU1282
.LBB220:
	.loc 3 909 2 view .LVU1283
	.loc 3 909 7 view .LVU1284
	.loc 3 909 55 view .LVU1285
	.loc 3 910 2 view .LVU1286
	.loc 3 910 9 is_stmt 0 view .LVU1287
	ldr	r6, .L219+4
	mov	r2, #-1
	mov	r3, #-1
	mov	r0, r6
	bl	z_impl_k_mutex_lock
.LVL382:
	.loc 3 910 9 view .LVU1288
.LBE220:
.LBE219:
	.loc 1 1788 84 is_stmt 1 view .LVU1289
	.loc 1 1789 5 view .LVU1290
	.loc 1 1790 5 view .LVU1291
	.loc 1 1790 18 is_stmt 0 view .LVU1292
	add	r4, r4, r4, lsl #1
.LVL383:
	.loc 1 1790 18 view .LVU1293
	ldr	r0, .L219
	add	r4, r0, r4, lsl #3
	str	r5, [r4, #96]
	.loc 1 1791 5 is_stmt 1 view .LVU1294
.LVL384:
.LBB221:
.LBI221:
	.loc 3 917 19 view .LVU1295
.LBB222:
	.loc 3 925 2 view .LVU1296
	.loc 3 925 7 view .LVU1297
	.loc 3 925 55 view .LVU1298
	.loc 3 926 2 view .LVU1299
	.loc 3 926 9 is_stmt 0 view .LVU1300
	mov	r0, r6
	bl	z_impl_k_mutex_unlock
.LVL385:
	.loc 3 926 9 view .LVU1301
.LBE222:
.LBE221:
	.loc 1 1791 37 is_stmt 1 view .LVU1302
	.loc 1 1792 5 view .LVU1303
	.loc 1 1792 7 is_stmt 0 view .LVU1304
	movs	r0, #0
.LVL386:
.L213:
	.loc 1 1792 7 view .LVU1305
.LBE218:
	.loc 1 1797 1 view .LVU1306
	pop	{r4, r5, r6, pc}
.LVL387:
.L218:
.LBB223:
	.loc 1 1785 148 is_stmt 1 discriminator 1 view .LVU1307
	bl	_DoInit
.LVL388:
	.loc 1 1785 148 is_stmt 0 discriminator 1 view .LVU1308
	b	.L214
.LVL389:
.L216:
	.loc 1 1785 148 discriminator 1 view .LVU1309
.LBE223:
	.loc 1 1794 7 view .LVU1310
	mov	r0, #-1
.LVL390:
	.loc 1 1796 3 is_stmt 1 view .LVU1311
	.loc 1 1796 10 is_stmt 0 view .LVU1312
	b	.L213
.L220:
	.align	2
.L219:
	.word	.LANCHOR1
	.word	rtt_term_mutex
	.cfi_endproc
.LFE533:
	.size	SEGGER_RTT_SetNameDownBuffer, .-SEGGER_RTT_SetNameDownBuffer
	.section	.text.SEGGER_RTT_SetFlagsUpBuffer,"ax",%progbits
	.align	1
	.global	SEGGER_RTT_SetFlagsUpBuffer
	.syntax unified
	.thumb
	.thumb_func
	.fpu fpv4-sp-d16
	.type	SEGGER_RTT_SetFlagsUpBuffer, %function
SEGGER_RTT_SetFlagsUpBuffer:
.LVL391:
.LFB534:
	.loc 1 1815 71 is_stmt 1 view -0
	.cfi_startproc
	@ args = 0, pretend = 0, frame = 0
	@ frame_needed = 0, uses_anonymous_args = 0
	.loc 1 1815 71 is_stmt 0 view .LVU1314
	push	{r4, r5, r6, lr}
	.cfi_def_cfa_offset 16
	.cfi_offset 4, -16
	.cfi_offset 5, -12
	.cfi_offset 6, -8
	.cfi_offset 14, -4
	mov	r4, r0
	mov	r5, r1
	.loc 1 1816 3 is_stmt 1 view .LVU1315
	.loc 1 1817 3 view .LVU1316
	.loc 1 1818 3 view .LVU1317
.LBB224:
	.loc 1 1820 5 view .LVU1318
	.loc 1 1820 41 view .LVU1319
.LVL392:
	.loc 1 1820 108 view .LVU1320
	.loc 1 1820 113 view .LVU1321
	.loc 1 1820 133 is_stmt 0 view .LVU1322
	ldr	r3, .L227
	ldrb	r3, [r3]	@ zero_extendqisi2
	.loc 1 1820 116 view .LVU1323
	cbz	r3, .L226
.LVL393:
.L222:
	.loc 1 1820 169 is_stmt 1 discriminator 3 view .LVU1324
.LBE224:
	.loc 1 1820 175 discriminator 3 view .LVU1325
	.loc 1 1821 3 discriminator 3 view .LVU1326
	.loc 1 1822 3 discriminator 3 view .LVU1327
	.loc 1 1822 6 is_stmt 0 discriminator 3 view .LVU1328
	cmp	r4, #2
	bhi	.L224
.LBB225:
	.loc 1 1823 5 is_stmt 1 view .LVU1329
.LVL394:
.LBB226:
.LBI226:
	.loc 3 899 19 view .LVU1330
.LBB227:
	.loc 3 909 2 view .LVU1331
	.loc 3 909 7 view .LVU1332
	.loc 3 909 55 view .LVU1333
	.loc 3 910 2 view .LVU1334
	.loc 3 910 9 is_stmt 0 view .LVU1335
	ldr	r6, .L227+4
	mov	r2, #-1
	mov	r3, #-1
	mov	r0, r6
	bl	z_impl_k_mutex_lock
.LVL395:
	.loc 3 910 9 view .LVU1336
.LBE227:
.LBE226:
	.loc 1 1823 84 is_stmt 1 view .LVU1337
	.loc 1 1824 5 view .LVU1338
	.loc 1 1825 5 view .LVU1339
	.loc 1 1825 16 is_stmt 0 view .LVU1340
	add	r4, r4, r4, lsl #1
.LVL396:
	.loc 1 1825 16 view .LVU1341
	ldr	r0, .L227
	add	r4, r0, r4, lsl #3
	str	r5, [r4, #44]
	.loc 1 1826 5 is_stmt 1 view .LVU1342
.LVL397:
.LBB228:
.LBI228:
	.loc 3 917 19 view .LVU1343
.LBB229:
	.loc 3 925 2 view .LVU1344
	.loc 3 925 7 view .LVU1345
	.loc 3 925 55 view .LVU1346
	.loc 3 926 2 view .LVU1347
	.loc 3 926 9 is_stmt 0 view .LVU1348
	mov	r0, r6
	bl	z_impl_k_mutex_unlock
.LVL398:
	.loc 3 926 9 view .LVU1349
.LBE229:
.LBE228:
	.loc 1 1826 37 is_stmt 1 view .LVU1350
	.loc 1 1827 5 view .LVU1351
	.loc 1 1827 7 is_stmt 0 view .LVU1352
	movs	r0, #0
.LVL399:
.L221:
	.loc 1 1827 7 view .LVU1353
.LBE225:
	.loc 1 1832 1 view .LVU1354
	pop	{r4, r5, r6, pc}
.LVL400:
.L226:
.LBB230:
	.loc 1 1820 148 is_stmt 1 discriminator 1 view .LVU1355
	bl	_DoInit
.LVL401:
	.loc 1 1820 148 is_stmt 0 discriminator 1 view .LVU1356
	b	.L222
.LVL402:
.L224:
	.loc 1 1820 148 discriminator 1 view .LVU1357
.LBE230:
	.loc 1 1829 7 view .LVU1358
	mov	r0, #-1
.LVL403:
	.loc 1 1831 3 is_stmt 1 view .LVU1359
	.loc 1 1831 10 is_stmt 0 view .LVU1360
	b	.L221
.L228:
	.align	2
.L227:
	.word	.LANCHOR1
	.word	rtt_term_mutex
	.cfi_endproc
.LFE534:
	.size	SEGGER_RTT_SetFlagsUpBuffer, .-SEGGER_RTT_SetFlagsUpBuffer
	.section	.text.SEGGER_RTT_SetFlagsDownBuffer,"ax",%progbits
	.align	1
	.global	SEGGER_RTT_SetFlagsDownBuffer
	.syntax unified
	.thumb
	.thumb_func
	.fpu fpv4-sp-d16
	.type	SEGGER_RTT_SetFlagsDownBuffer, %function
SEGGER_RTT_SetFlagsDownBuffer:
.LVL404:
.LFB535:
	.loc 1 1850 73 is_stmt 1 view -0
	.cfi_startproc
	@ args = 0, pretend = 0, frame = 0
	@ frame_needed = 0, uses_anonymous_args = 0
	.loc 1 1850 73 is_stmt 0 view .LVU1362
	push	{r4, r5, r6, lr}
	.cfi_def_cfa_offset 16
	.cfi_offset 4, -16
	.cfi_offset 5, -12
	.cfi_offset 6, -8
	.cfi_offset 14, -4
	mov	r4, r0
	mov	r5, r1
	.loc 1 1851 3 is_stmt 1 view .LVU1363
	.loc 1 1852 3 view .LVU1364
	.loc 1 1853 3 view .LVU1365
.LBB231:
	.loc 1 1855 5 view .LVU1366
	.loc 1 1855 41 view .LVU1367
.LVL405:
	.loc 1 1855 108 view .LVU1368
	.loc 1 1855 113 view .LVU1369
	.loc 1 1855 133 is_stmt 0 view .LVU1370
	ldr	r3, .L235
	ldrb	r3, [r3]	@ zero_extendqisi2
	.loc 1 1855 116 view .LVU1371
	cbz	r3, .L234
.LVL406:
.L230:
	.loc 1 1855 169 is_stmt 1 discriminator 3 view .LVU1372
.LBE231:
	.loc 1 1855 175 discriminator 3 view .LVU1373
	.loc 1 1856 3 discriminator 3 view .LVU1374
	.loc 1 1857 3 discriminator 3 view .LVU1375
	.loc 1 1857 6 is_stmt 0 discriminator 3 view .LVU1376
	cmp	r4, #2
	bhi	.L232
.LBB232:
	.loc 1 1858 5 is_stmt 1 view .LVU1377
.LVL407:
.LBB233:
.LBI233:
	.loc 3 899 19 view .LVU1378
.LBB234:
	.loc 3 909 2 view .LVU1379
	.loc 3 909 7 view .LVU1380
	.loc 3 909 55 view .LVU1381
	.loc 3 910 2 view .LVU1382
	.loc 3 910 9 is_stmt 0 view .LVU1383
	ldr	r6, .L235+4
	mov	r2, #-1
	mov	r3, #-1
	mov	r0, r6
	bl	z_impl_k_mutex_lock
.LVL408:
	.loc 3 910 9 view .LVU1384
.LBE234:
.LBE233:
	.loc 1 1858 84 is_stmt 1 view .LVU1385
	.loc 1 1859 5 view .LVU1386
	.loc 1 1860 5 view .LVU1387
	.loc 1 1860 18 is_stmt 0 view .LVU1388
	add	r4, r4, r4, lsl #1
.LVL409:
	.loc 1 1860 18 view .LVU1389
	ldr	r0, .L235
	add	r4, r0, r4, lsl #3
	str	r5, [r4, #116]
	.loc 1 1861 5 is_stmt 1 view .LVU1390
.LVL410:
.LBB235:
.LBI235:
	.loc 3 917 19 view .LVU1391
.LBB236:
	.loc 3 925 2 view .LVU1392
	.loc 3 925 7 view .LVU1393
	.loc 3 925 55 view .LVU1394
	.loc 3 926 2 view .LVU1395
	.loc 3 926 9 is_stmt 0 view .LVU1396
	mov	r0, r6
	bl	z_impl_k_mutex_unlock
.LVL411:
	.loc 3 926 9 view .LVU1397
.LBE236:
.LBE235:
	.loc 1 1861 37 is_stmt 1 view .LVU1398
	.loc 1 1862 5 view .LVU1399
	.loc 1 1862 7 is_stmt 0 view .LVU1400
	movs	r0, #0
.LVL412:
.L229:
	.loc 1 1862 7 view .LVU1401
.LBE232:
	.loc 1 1867 1 view .LVU1402
	pop	{r4, r5, r6, pc}
.LVL413:
.L234:
.LBB237:
	.loc 1 1855 148 is_stmt 1 discriminator 1 view .LVU1403
	bl	_DoInit
.LVL414:
	.loc 1 1855 148 is_stmt 0 discriminator 1 view .LVU1404
	b	.L230
.LVL415:
.L232:
	.loc 1 1855 148 discriminator 1 view .LVU1405
.LBE237:
	.loc 1 1864 7 view .LVU1406
	mov	r0, #-1
.LVL416:
	.loc 1 1866 3 is_stmt 1 view .LVU1407
	.loc 1 1866 10 is_stmt 0 view .LVU1408
	b	.L229
.L236:
	.align	2
.L235:
	.word	.LANCHOR1
	.word	rtt_term_mutex
	.cfi_endproc
.LFE535:
	.size	SEGGER_RTT_SetFlagsDownBuffer, .-SEGGER_RTT_SetFlagsDownBuffer
	.section	.text.SEGGER_RTT_Init,"ax",%progbits
	.align	1
	.global	SEGGER_RTT_Init
	.syntax unified
	.thumb
	.thumb_func
	.fpu fpv4-sp-d16
	.type	SEGGER_RTT_Init, %function
SEGGER_RTT_Init:
.LFB536:
	.loc 1 1878 29 is_stmt 1 view -0
	.cfi_startproc
	@ args = 0, pretend = 0, frame = 0
	@ frame_needed = 0, uses_anonymous_args = 0
	push	{r3, lr}
	.cfi_def_cfa_offset 8
	.cfi_offset 3, -8
	.cfi_offset 14, -4
	.loc 1 1879 3 view .LVU1410
	bl	_DoInit
.LVL417:
	.loc 1 1880 1 is_stmt 0 view .LVU1411
	pop	{r3, pc}
	.cfi_endproc
.LFE536:
	.size	SEGGER_RTT_Init, .-SEGGER_RTT_Init
	.section	.text.SEGGER_RTT_SetTerminal,"ax",%progbits
	.align	1
	.global	SEGGER_RTT_SetTerminal
	.syntax unified
	.thumb
	.thumb_func
	.fpu fpv4-sp-d16
	.type	SEGGER_RTT_SetTerminal, %function
SEGGER_RTT_SetTerminal:
.LVL418:
.LFB537:
	.loc 1 1899 55 is_stmt 1 view -0
	.cfi_startproc
	@ args = 0, pretend = 0, frame = 8
	@ frame_needed = 0, uses_anonymous_args = 0
	.loc 1 1899 55 is_stmt 0 view .LVU1413
	push	{r4, lr}
	.cfi_def_cfa_offset 8
	.cfi_offset 4, -8
	.cfi_offset 14, -4
	sub	sp, sp, #8
	.cfi_def_cfa_offset 16
	mov	r4, r0
	.loc 1 1900 3 is_stmt 1 view .LVU1414
	.loc 1 1901 3 view .LVU1415
	.loc 1 1902 3 view .LVU1416
	.loc 1 1903 3 view .LVU1417
.LBB238:
	.loc 1 1905 5 view .LVU1418
	.loc 1 1905 41 view .LVU1419
.LVL419:
	.loc 1 1905 108 view .LVU1420
	.loc 1 1905 113 view .LVU1421
	.loc 1 1905 133 is_stmt 0 view .LVU1422
	ldr	r3, .L250
	ldrb	r3, [r3]	@ zero_extendqisi2
	.loc 1 1905 116 view .LVU1423
	cbz	r3, .L247
.LVL420:
.L240:
	.loc 1 1905 169 is_stmt 1 discriminator 3 view .LVU1424
.LBE238:
	.loc 1 1905 175 discriminator 3 view .LVU1425
	.loc 1 1906 3 discriminator 3 view .LVU1426
	.loc 1 1907 3 discriminator 3 view .LVU1427
	.loc 1 1907 9 is_stmt 0 discriminator 3 view .LVU1428
	movs	r3, #255
	strb	r3, [sp, #4]
	.loc 1 1908 3 is_stmt 1 discriminator 3 view .LVU1429
	.loc 1 1908 6 is_stmt 0 discriminator 3 view .LVU1430
	cmp	r4, #15
	bhi	.L244
.LBB239:
	.loc 1 1909 5 is_stmt 1 view .LVU1431
	.loc 1 1909 25 is_stmt 0 view .LVU1432
	ldr	r3, .L250+4
	ldrb	r3, [r3, r4]	@ zero_extendqisi2
	.loc 1 1909 11 view .LVU1433
	strb	r3, [sp, #5]
	.loc 1 1910 5 is_stmt 1 view .LVU1434
.LVL421:
	.loc 1 1911 5 view .LVU1435
.LBB240:
.LBI240:
	.loc 3 899 19 view .LVU1436
.LBB241:
	.loc 3 909 2 view .LVU1437
	.loc 3 909 7 view .LVU1438
	.loc 3 909 55 view .LVU1439
	.loc 3 910 2 view .LVU1440
	.loc 3 910 9 is_stmt 0 view .LVU1441
	mov	r2, #-1
	mov	r3, #-1
	ldr	r0, .L250+8
	bl	z_impl_k_mutex_lock
.LVL422:
	.loc 3 910 9 view .LVU1442
.LBE241:
.LBE240:
	.loc 1 1911 84 is_stmt 1 view .LVU1443
	.loc 1 1912 5 view .LVU1444
	.loc 1 1912 15 is_stmt 0 view .LVU1445
	ldr	r3, .L250
	ldr	r3, [r3, #44]
	.loc 1 1912 23 view .LVU1446
	and	r3, r3, #3
	.loc 1 1912 8 view .LVU1447
	cmp	r3, #2
	beq	.L248
	.loc 1 1916 7 is_stmt 1 view .LVU1448
	.loc 1 1916 15 is_stmt 0 view .LVU1449
	ldr	r0, .L250+12
	bl	_GetAvailWriteSpace
.LVL423:
	.loc 1 1917 7 is_stmt 1 view .LVU1450
	.loc 1 1917 10 is_stmt 0 view .LVU1451
	cmp	r0, #1
	bhi	.L249
	.loc 1 1921 11 view .LVU1452
	mov	r4, #-1
.LVL424:
.L243:
	.loc 1 1924 5 is_stmt 1 view .LVU1453
.LBB242:
.LBI242:
	.loc 3 917 19 view .LVU1454
.LBB243:
	.loc 3 925 2 view .LVU1455
	.loc 3 925 7 view .LVU1456
	.loc 3 925 55 view .LVU1457
	.loc 3 926 2 view .LVU1458
	.loc 3 926 9 is_stmt 0 view .LVU1459
	ldr	r0, .L250+8
	bl	z_impl_k_mutex_unlock
.LVL425:
	.loc 3 926 9 view .LVU1460
.LBE243:
.LBE242:
	.loc 1 1924 37 is_stmt 1 view .LVU1461
.L239:
	.loc 1 1924 37 is_stmt 0 view .LVU1462
.LBE239:
	.loc 1 1929 1 view .LVU1463
	mov	r0, r4
	add	sp, sp, #8
	.cfi_remember_state
	.cfi_def_cfa_offset 8
	@ sp needed
	pop	{r4, pc}
.LVL426:
.L247:
	.cfi_restore_state
.LBB244:
	.loc 1 1905 148 is_stmt 1 discriminator 1 view .LVU1464
	bl	_DoInit
.LVL427:
	.loc 1 1905 148 is_stmt 0 discriminator 1 view .LVU1465
	b	.L240
.LVL428:
.L248:
	.loc 1 1905 148 discriminator 1 view .LVU1466
.LBE244:
.LBB245:
	.loc 1 1913 7 is_stmt 1 view .LVU1467
	.loc 1 1913 23 is_stmt 0 view .LVU1468
	ldr	r3, .L250+16
	strb	r4, [r3]
	.loc 1 1914 7 is_stmt 1 view .LVU1469
	movs	r2, #2
	add	r1, sp, #4
	ldr	r0, .L250+12
	bl	_WriteBlocking
.LVL429:
.LBE245:
	.loc 1 1906 5 is_stmt 0 view .LVU1470
	movs	r4, #0
.LBB246:
	b	.L243
.LVL430:
.L249:
	.loc 1 1918 9 is_stmt 1 view .LVU1471
	.loc 1 1918 25 is_stmt 0 view .LVU1472
	ldr	r3, .L250+16
	strb	r4, [r3]
	.loc 1 1919 9 is_stmt 1 view .LVU1473
	movs	r2, #2
	add	r1, sp, #4
	ldr	r0, .L250+12
.LVL431:
	.loc 1 1919 9 is_stmt 0 view .LVU1474
	bl	_WriteNoCheck
.LVL432:
.LBE246:
	.loc 1 1906 5 view .LVU1475
	movs	r4, #0
.LBB247:
	b	.L243
.LVL433:
.L244:
	.loc 1 1906 5 view .LVU1476
.LBE247:
	.loc 1 1926 7 view .LVU1477
	mov	r4, #-1
.LVL434:
	.loc 1 1928 3 is_stmt 1 view .LVU1478
	.loc 1 1928 10 is_stmt 0 view .LVU1479
	b	.L239
.L251:
	.align	2
.L250:
	.word	.LANCHOR1
	.word	.LANCHOR0
	.word	rtt_term_mutex
	.word	.LANCHOR1+24
	.word	.LANCHOR4
	.cfi_endproc
.LFE537:
	.size	SEGGER_RTT_SetTerminal, .-SEGGER_RTT_SetTerminal
	.section	.text.SEGGER_RTT_TerminalOut,"ax",%progbits
	.align	1
	.global	SEGGER_RTT_TerminalOut
	.syntax unified
	.thumb
	.thumb_func
	.fpu fpv4-sp-d16
	.type	SEGGER_RTT_TerminalOut, %function
SEGGER_RTT_TerminalOut:
.LVL435:
.LFB538:
	.loc 1 1948 70 is_stmt 1 view -0
	.cfi_startproc
	@ args = 0, pretend = 0, frame = 0
	@ frame_needed = 0, uses_anonymous_args = 0
	.loc 1 1948 70 is_stmt 0 view .LVU1481
	push	{r4, r5, r6, r7, r8, lr}
	.cfi_def_cfa_offset 24
	.cfi_offset 4, -24
	.cfi_offset 5, -20
	.cfi_offset 6, -16
	.cfi_offset 7, -12
	.cfi_offset 8, -8
	.cfi_offset 14, -4
	mov	r4, r0
	mov	r5, r1
	.loc 1 1949 3 is_stmt 1 view .LVU1482
	.loc 1 1950 3 view .LVU1483
	.loc 1 1951 3 view .LVU1484
	.loc 1 1952 3 view .LVU1485
.LBB248:
	.loc 1 1954 5 view .LVU1486
	.loc 1 1954 41 view .LVU1487
.LVL436:
	.loc 1 1954 108 view .LVU1488
	.loc 1 1954 113 view .LVU1489
	.loc 1 1954 133 is_stmt 0 view .LVU1490
	ldr	r3, .L267
	ldrb	r3, [r3]	@ zero_extendqisi2
	.loc 1 1954 116 view .LVU1491
	cbz	r3, .L263
.LVL437:
.L253:
	.loc 1 1954 169 is_stmt 1 discriminator 3 view .LVU1492
.LBE248:
	.loc 1 1954 175 discriminator 3 view .LVU1493
	.loc 1 1958 3 discriminator 3 view .LVU1494
	.loc 1 1958 6 is_stmt 0 discriminator 3 view .LVU1495
	cmp	r4, #15
	bhi	.L258
.LBB249:
	.loc 1 1962 5 is_stmt 1 view .LVU1496
.LVL438:
	.loc 1 1967 5 view .LVU1497
	.loc 1 1967 15 is_stmt 0 view .LVU1498
	mov	r0, r5
	bl	strlen
.LVL439:
	mov	r8, r0
.LVL440:
	.loc 1 1971 5 is_stmt 1 view .LVU1499
.LBB250:
.LBI250:
	.loc 3 899 19 view .LVU1500
.LBB251:
	.loc 3 909 2 view .LVU1501
	.loc 3 909 7 view .LVU1502
	.loc 3 909 55 view .LVU1503
	.loc 3 910 2 view .LVU1504
	.loc 3 910 9 is_stmt 0 view .LVU1505
	mov	r2, #-1
	mov	r3, #-1
	ldr	r0, .L267+4
.LVL441:
	.loc 3 910 9 view .LVU1506
	bl	z_impl_k_mutex_lock
.LVL442:
	.loc 3 910 9 view .LVU1507
.LBE251:
.LBE250:
	.loc 1 1971 84 is_stmt 1 view .LVU1508
	.loc 1 1972 5 view .LVU1509
	.loc 1 1972 13 is_stmt 0 view .LVU1510
	ldr	r6, .L267
	add	r0, r6, #24
	bl	_GetAvailWriteSpace
.LVL443:
	mov	r7, r0
.LVL444:
	.loc 1 1973 5 is_stmt 1 view .LVU1511
	.loc 1 1973 18 is_stmt 0 view .LVU1512
	ldr	r3, [r6, #44]
	.loc 1 1973 26 view .LVU1513
	and	r3, r3, #3
	.loc 1 1973 5 view .LVU1514
	cmp	r3, #1
	beq	.L255
	cmp	r3, #2
	beq	.L256
	cbz	r3, .L264
	mov	r4, #-1
.LVL445:
.L257:
	.loc 1 2016 5 is_stmt 1 discriminator 1 view .LVU1515
.LBB252:
.LBI252:
	.loc 3 917 19 discriminator 1 view .LVU1516
.LBB253:
	.loc 3 925 2 discriminator 1 view .LVU1517
	.loc 3 925 7 discriminator 1 view .LVU1518
	.loc 3 925 55 discriminator 1 view .LVU1519
	.loc 3 926 2 discriminator 1 view .LVU1520
	.loc 3 926 9 is_stmt 0 discriminator 1 view .LVU1521
	ldr	r0, .L267+4
	bl	z_impl_k_mutex_unlock
.LVL446:
	.loc 3 926 9 discriminator 1 view .LVU1522
.LBE253:
.LBE252:
	.loc 1 2016 37 is_stmt 1 discriminator 1 view .LVU1523
.L252:
	.loc 1 2016 37 is_stmt 0 discriminator 1 view .LVU1524
.LBE249:
	.loc 1 2021 1 view .LVU1525
	mov	r0, r4
	pop	{r4, r5, r6, r7, r8, pc}
.LVL447:
.L263:
.LBB254:
	.loc 1 1954 148 is_stmt 1 discriminator 1 view .LVU1526
	bl	_DoInit
.LVL448:
	.loc 1 1954 148 is_stmt 0 discriminator 1 view .LVU1527
	b	.L253
.LVL449:
.L264:
	.loc 1 1954 148 discriminator 1 view .LVU1528
.LBE254:
.LBB255:
	.loc 1 1979 7 is_stmt 1 view .LVU1529
	.loc 1 1979 28 is_stmt 0 view .LVU1530
	add	r3, r8, #4
	.loc 1 1979 10 view .LVU1531
	cmp	r3, r0
	bls	.L265
	.loc 1 1980 16 view .LVU1532
	movs	r4, #0
	b	.L257
.L265:
	.loc 1 1982 9 is_stmt 1 view .LVU1533
	adds	r6, r6, #24
	mov	r1, r4
	mov	r0, r6
.LVL450:
	.loc 1 1982 9 is_stmt 0 view .LVU1534
	bl	_PostTerminalSwitch
.LVL451:
	.loc 1 1983 9 is_stmt 1 view .LVU1535
	.loc 1 1983 23 is_stmt 0 view .LVU1536
	mov	r2, r8
	mov	r1, r5
	mov	r0, r6
	bl	_WriteBlocking
.LVL452:
	mov	r4, r0
.LVL453:
	.loc 1 1984 9 is_stmt 1 view .LVU1537
	ldr	r3, .L267+8
	ldrb	r1, [r3]	@ zero_extendqisi2
	mov	r0, r6
.LVL454:
	.loc 1 1984 9 is_stmt 0 view .LVU1538
	bl	_PostTerminalSwitch
.LVL455:
	b	.L257
.LVL456:
.L255:
	.loc 1 1993 7 is_stmt 1 view .LVU1539
	.loc 1 1993 10 is_stmt 0 view .LVU1540
	cmp	r0, #3
	bhi	.L266
	.loc 1 1994 16 view .LVU1541
	mov	r4, #-1
	b	.L257
.L266:
	.loc 1 1996 9 is_stmt 1 view .LVU1542
	ldr	r6, .L267+12
	mov	r1, r4
	mov	r0, r6
.LVL457:
	.loc 1 1996 9 is_stmt 0 view .LVU1543
	bl	_PostTerminalSwitch
.LVL458:
	.loc 1 1997 9 is_stmt 1 view .LVU1544
	.loc 1 1997 66 is_stmt 0 view .LVU1545
	subs	r2, r7, #4
	.loc 1 1997 23 view .LVU1546
	cmp	r2, r8
	it	cs
	movcs	r2, r8
	mov	r1, r5
	mov	r0, r6
	bl	_WriteBlocking
.LVL459:
	mov	r4, r0
.LVL460:
	.loc 1 1998 9 is_stmt 1 view .LVU1547
	ldr	r3, .L267+8
	ldrb	r1, [r3]	@ zero_extendqisi2
	mov	r0, r6
.LVL461:
	.loc 1 1998 9 is_stmt 0 view .LVU1548
	bl	_PostTerminalSwitch
.LVL462:
	b	.L257
.LVL463:
.L256:
	.loc 1 2005 7 is_stmt 1 view .LVU1549
	ldr	r6, .L267+12
	mov	r1, r4
	mov	r0, r6
.LVL464:
	.loc 1 2005 7 is_stmt 0 view .LVU1550
	bl	_PostTerminalSwitch
.LVL465:
	.loc 1 2006 7 is_stmt 1 view .LVU1551
	.loc 1 2006 21 is_stmt 0 view .LVU1552
	mov	r2, r8
	mov	r1, r5
	mov	r0, r6
	bl	_WriteBlocking
.LVL466:
	mov	r4, r0
.LVL467:
	.loc 1 2007 7 is_stmt 1 view .LVU1553
	ldr	r3, .L267+8
	ldrb	r1, [r3]	@ zero_extendqisi2
	mov	r0, r6
.LVL468:
	.loc 1 2007 7 is_stmt 0 view .LVU1554
	bl	_PostTerminalSwitch
.LVL469:
	.loc 1 2008 7 is_stmt 1 view .LVU1555
	b	.L257
.LVL470:
.L258:
	.loc 1 2008 7 is_stmt 0 view .LVU1556
.LBE255:
	.loc 1 2018 12 view .LVU1557
	mov	r4, #-1
.LVL471:
	.loc 1 2020 3 is_stmt 1 view .LVU1558
	.loc 1 2020 10 is_stmt 0 view .LVU1559
	b	.L252
.L268:
	.align	2
.L267:
	.word	.LANCHOR1
	.word	rtt_term_mutex
	.word	.LANCHOR4
	.word	.LANCHOR1+24
	.cfi_endproc
.LFE538:
	.size	SEGGER_RTT_TerminalOut, .-SEGGER_RTT_TerminalOut
	.section	.text.SEGGER_RTT_GetAvailWriteSpace,"ax",%progbits
	.align	1
	.global	SEGGER_RTT_GetAvailWriteSpace
	.syntax unified
	.thumb
	.thumb_func
	.fpu fpv4-sp-d16
	.type	SEGGER_RTT_GetAvailWriteSpace, %function
SEGGER_RTT_GetAvailWriteSpace:
.LVL472:
.LFB539:
	.loc 1 2036 63 is_stmt 1 view -0
	.cfi_startproc
	@ args = 0, pretend = 0, frame = 0
	@ frame_needed = 0, uses_anonymous_args = 0
	.loc 1 2036 63 is_stmt 0 view .LVU1561
	push	{r3, lr}
	.cfi_def_cfa_offset 8
	.cfi_offset 3, -8
	.cfi_offset 14, -4
	.loc 1 2037 3 is_stmt 1 view .LVU1562
	.loc 1 2039 3 view .LVU1563
	.loc 1 2039 9 is_stmt 0 view .LVU1564
	adds	r0, r0, #1
.LVL473:
	.loc 1 2039 9 view .LVU1565
	add	r0, r0, r0, lsl #1
.LVL474:
	.loc 1 2040 3 is_stmt 1 view .LVU1566
	.loc 1 2040 10 is_stmt 0 view .LVU1567
	ldr	r3, .L271
	add	r0, r3, r0, lsl #3
.LVL475:
	.loc 1 2040 10 view .LVU1568
	bl	_GetAvailWriteSpace
.LVL476:
	.loc 1 2041 1 view .LVU1569
	pop	{r3, pc}
.L272:
	.align	2
.L271:
	.word	.LANCHOR1
	.cfi_endproc
.LFE539:
	.size	SEGGER_RTT_GetAvailWriteSpace, .-SEGGER_RTT_GetAvailWriteSpace
	.section	.text.SEGGER_RTT_GetBytesInBuffer,"ax",%progbits
	.align	1
	.global	SEGGER_RTT_GetBytesInBuffer
	.syntax unified
	.thumb
	.thumb_func
	.fpu fpv4-sp-d16
	.type	SEGGER_RTT_GetBytesInBuffer, %function
SEGGER_RTT_GetBytesInBuffer:
.LVL477:
.LFB540:
	.loc 1 2057 60 is_stmt 1 view -0
	.cfi_startproc
	@ args = 0, pretend = 0, frame = 0
	@ frame_needed = 0, uses_anonymous_args = 0
	@ link register save eliminated.
	.loc 1 2058 3 view .LVU1571
	.loc 1 2059 3 view .LVU1572
	.loc 1 2060 3 view .LVU1573
	.loc 1 2061 3 view .LVU1574
	.loc 1 2066 3 view .LVU1575
	.loc 1 2067 3 view .LVU1576
	.loc 1 2067 9 is_stmt 0 view .LVU1577
	add	r2, r0, r0, lsl #1
	ldr	r3, .L276
	add	r3, r3, r2, lsl #3
	ldr	r2, [r3, #40]
.LVL478:
	.loc 1 2068 3 is_stmt 1 view .LVU1578
	.loc 1 2068 9 is_stmt 0 view .LVU1579
	ldr	r3, [r3, #36]
.LVL479:
	.loc 1 2069 3 is_stmt 1 view .LVU1580
	.loc 1 2069 6 is_stmt 0 view .LVU1581
	cmp	r2, r3
	bhi	.L274
	.loc 1 2070 5 is_stmt 1 view .LVU1582
	.loc 1 2070 7 is_stmt 0 view .LVU1583
	subs	r0, r3, r2
.LVL480:
	.loc 1 2070 7 view .LVU1584
	bx	lr
.LVL481:
.L274:
	.loc 1 2072 5 is_stmt 1 view .LVU1585
	.loc 1 2072 33 is_stmt 0 view .LVU1586
	add	r0, r0, r0, lsl #1
.LVL482:
	.loc 1 2072 33 view .LVU1587
	ldr	r1, .L276
	add	r0, r1, r0, lsl #3
	ldr	r0, [r0, #32]
	.loc 1 2072 47 view .LVU1588
	subs	r2, r2, r3
.LVL483:
	.loc 1 2072 7 view .LVU1589
	add	r0, r0, r2
.LVL484:
	.loc 1 2074 3 is_stmt 1 view .LVU1590
	.loc 1 2075 1 is_stmt 0 view .LVU1591
	bx	lr
.L277:
	.align	2
.L276:
	.word	.LANCHOR1
	.cfi_endproc
.LFE540:
	.size	SEGGER_RTT_GetBytesInBuffer, .-SEGGER_RTT_GetBytesInBuffer
	.global	_SEGGER_RTT
	.section	.bss._ActiveTerminal,"aw",%nobits
	.set	.LANCHOR4,. + 0
	.type	_ActiveTerminal, %object
	.size	_ActiveTerminal, 1
_ActiveTerminal:
	.space	1
	.section	.bss._SEGGER_RTT,"aw",%nobits
	.align	2
	.set	.LANCHOR1,. + 0
	.type	_SEGGER_RTT, %object
	.size	_SEGGER_RTT, 168
_SEGGER_RTT:
	.space	168
	.section	.bss._acDownBuffer,"aw",%nobits
	.align	2
	.set	.LANCHOR3,. + 0
	.type	_acDownBuffer, %object
	.size	_acDownBuffer, 16
_acDownBuffer:
	.space	16
	.section	.bss._acUpBuffer,"aw",%nobits
	.align	2
	.set	.LANCHOR2,. + 0
	.type	_acUpBuffer, %object
	.size	_acUpBuffer, 1024
_acUpBuffer:
	.space	1024
	.section	.rodata._aTerminalId,"a"
	.align	2
	.set	.LANCHOR0,. + 0
	.type	_aTerminalId, %object
	.size	_aTerminalId, 16
_aTerminalId:
	.ascii	"0123456789ABCDEF"
	.text
.Letext0:
	.file 4 "/home/sebin/LIOT/gcc-arm-none-eabi-9-2019-q4-major/lib/gcc/arm-none-eabi/9.2.1/include/stddef.h"
	.file 5 "/home/sebin/LIOT/gcc-arm-none-eabi-9-2019-q4-major/arm-none-eabi/include/machine/_default_types.h"
	.file 6 "/home/sebin/LIOT/gcc-arm-none-eabi-9-2019-q4-major/arm-none-eabi/include/sys/_stdint.h"
	.file 7 "/home/sebin/thesis/zephyrproject/zephyr/include/sys/dlist.h"
	.file 8 "/home/sebin/thesis/zephyrproject/zephyr/include/sys/rb.h"
	.file 9 "/home/sebin/thesis/zephyrproject/zephyr/include/sys/slist.h"
	.file 10 "/home/sebin/thesis/zephyrproject/zephyr/include/sys/sys_heap.h"
	.file 11 "/home/sebin/thesis/zephyrproject/zephyr/include/kernel_structs.h"
	.file 12 "/home/sebin/thesis/zephyrproject/zephyr/include/kernel/thread.h"
	.file 13 "/home/sebin/thesis/zephyrproject/zephyr/include/kernel.h"
	.file 14 "/home/sebin/thesis/zephyrproject/zephyr/include/arch/arm/aarch32/thread.h"
	.file 15 "/home/sebin/thesis/zephyrproject/zephyr/include/arch/arm/aarch32/exc.h"
	.file 16 "/home/sebin/thesis/zephyrproject/zephyr/include/sw_isr_table.h"
	.file 17 "/home/sebin/thesis/zephyrproject/modules/hal/infineon/XMCLib/devices/XMC4500/Include/system_XMC4500.h"
	.file 18 "/home/sebin/thesis/zephyrproject/modules/hal/cmsis/CMSIS/Core/Include/core_cm4.h"
	.file 19 "/home/sebin/thesis/zephyrproject/zephyr/include/arch/arm/aarch32/mpu/arm_mpu_v7m.h"
	.file 20 "/home/sebin/thesis/zephyrproject/zephyr/include/arch/arm/aarch32/mpu/arm_mpu.h"
	.file 21 "/home/sebin/thesis/zephyrproject/zephyr/include/sys_clock.h"
	.file 22 "/home/sebin/thesis/zephyrproject/zephyr/include/spinlock.h"
	.file 23 "/home/sebin/LIOT/gcc-arm-none-eabi-9-2019-q4-major/arm-none-eabi/include/sys/lock.h"
	.file 24 "/home/sebin/LIOT/gcc-arm-none-eabi-9-2019-q4-major/arm-none-eabi/include/sys/_types.h"
	.file 25 "/home/sebin/LIOT/gcc-arm-none-eabi-9-2019-q4-major/arm-none-eabi/include/sys/reent.h"
	.file 26 "/home/sebin/LIOT/gcc-arm-none-eabi-9-2019-q4-major/arm-none-eabi/include/sys/errno.h"
	.file 27 "/home/sebin/thesis/zephyrproject/modules/debug/segger/Config/SEGGER_RTT_Conf.h"
	.file 28 "/home/sebin/thesis/zephyrproject/modules/debug/segger/SEGGER/SEGGER_RTT.h"
	.file 29 "/home/sebin/LIOT/gcc-arm-none-eabi-9-2019-q4-major/arm-none-eabi/include/string.h"
	.file 30 "/home/sebin/thesis/zephyrproject/zephyr/include/arch/structs.h"
	.file 31 "<built-in>"