	.cpu cortex-m4
	.eabi_attribute 27, 1
	.eabi_attribute 28, 1
	.eabi_attribute 20, 1
	.eabi_attribute 21, 1
	.eabi_attribute 23, 3
	.eabi_attribute 24, 1
	.eabi_attribute 25, 1
	.eabi_attribute 26, 1
	.eabi_attribute 30, 1
	.eabi_attribute 34, 1
	.eabi_attribute 38, 1
	.eabi_attribute 18, 4
	.file	"log_mgmt.c"
	.text
.Ltext0:
	.cfi_sections	.debug_frame
	.section	.text.z_log_runtime_filters_init,"ax",%progbits
	.align	1
	.global	z_log_runtime_filters_init
	.arch armv7e-m
	.syntax unified
	.thumb
	.thumb_func
	.fpu fpv4-sp-d16
	.type	z_log_runtime_filters_init, %function
z_log_runtime_filters_init:
.LFB554:
	.file 1 "/home/sebin/thesis/zephyrproject/zephyr/subsys/logging/log_mgmt.c"
	.loc 1 26 1 view -0
	.cfi_startproc
	@ args = 0, pretend = 0, frame = 0
	@ frame_needed = 0, uses_anonymous_args = 0
	@ link register save eliminated.
	.loc 1 36 2 view .LVU1
.LBB34:
	.loc 1 36 7 view .LVU2
.LVL0:
	.loc 1 36 11 is_stmt 0 view .LVU3
	movs	r3, #0
.LVL1:
.L2:
	.loc 1 36 18 is_stmt 1 discriminator 1 view .LVU4
.LBB35:
.LBI35:
	.file 2 "/home/sebin/thesis/zephyrproject/zephyr/include/logging/log_internal.h"
	.loc 2 67 24 discriminator 1 view .LVU5
.LBB36:
	.loc 2 69 2 discriminator 1 view .LVU6
.LBB37:
.LBI37:
	.file 3 "/home/sebin/thesis/zephyrproject/zephyr/include/logging/log_core.h"
	.loc 3 549 24 discriminator 1 view .LVU7
.LBB38:
	.loc 3 552 2 discriminator 1 view .LVU8
	.loc 3 552 2 is_stmt 0 discriminator 1 view .LVU9
.LBE38:
.LBE37:
.LBE36:
.LBE35:
	.loc 1 36 2 discriminator 1 view .LVU10
	ldr	r2, .L5
	ldr	r1, .L5+4
	subs	r2, r2, r1
	cmp	r3, r2, lsr #3
	bcs	.L4
.LBB39:
	.loc 1 37 3 is_stmt 1 discriminator 3 view .LVU11
.LVL2:
.LBB40:
.LBI40:
	.loc 2 61 25 discriminator 3 view .LVU12
.LBE40:
.LBE39:
.LBE34:
	.loc 2 63 2 discriminator 3 view .LVU13
.LBB44:
.LBB43:
	.loc 1 38 3 discriminator 3 view .LVU14
.LBB41:
.LBI41:
	.loc 1 20 23 discriminator 3 view .LVU15
.LBB42:
	.loc 1 22 2 discriminator 3 view .LVU16
	.loc 1 22 37 is_stmt 0 discriminator 3 view .LVU17
	ldr	r2, .L5+4
	add	r2, r2, r3, lsl #3
	ldrb	r1, [r2, #4]	@ zero_extendqisi2
.LVL3:
	.loc 1 22 37 discriminator 3 view .LVU18
.LBE42:
.LBE41:
	.loc 1 40 3 is_stmt 1 discriminator 3 view .LVU19
	.loc 1 40 8 discriminator 3 view .LVU20
	.loc 1 40 19 is_stmt 0 discriminator 3 view .LVU21
	ldr	r0, .L5+8
	ldr	r2, [r0, r3, lsl #2]
	bic	r2, r2, #7
	.loc 1 40 61 is_stmt 1 discriminator 3 view .LVU22
	.loc 1 40 108 is_stmt 0 discriminator 3 view .LVU23
	and	r1, r1, #7
.LVL4:
	.loc 1 40 72 discriminator 3 view .LVU24
	orrs	r2, r2, r1
	str	r2, [r0, r3, lsl #2]
	.loc 1 40 131 is_stmt 1 discriminator 3 view .LVU25
.LBE43:
	.loc 1 36 45 discriminator 3 view .LVU26
	.loc 1 36 46 is_stmt 0 discriminator 3 view .LVU27
	adds	r3, r3, #1
.LVL5:
	.loc 1 36 46 discriminator 3 view .LVU28
	b	.L2
.LVL6:
.L4:
	.loc 1 36 46 discriminator 3 view .LVU29
.LBE44:
	.loc 1 44 1 view .LVU30
	bx	lr
.L6:
	.align	2
.L5:
	.word	__log_const_end
	.word	__log_const_start
	.word	__log_dynamic_start
	.cfi_endproc
.LFE554:
	.size	z_log_runtime_filters_init, .-z_log_runtime_filters_init
	.section	.text.log_src_cnt_get,"ax",%progbits
	.align	1
	.global	log_src_cnt_get
	.syntax unified
	.thumb
	.thumb_func
	.fpu fpv4-sp-d16
	.type	log_src_cnt_get, %function
log_src_cnt_get:
.LVL7:
.LFB555:
	.loc 1 47 1 is_stmt 1 view -0
	.cfi_startproc
	@ args = 0, pretend = 0, frame = 0
	@ frame_needed = 0, uses_anonymous_args = 0
	@ link register save eliminated.
	.loc 1 48 2 view .LVU32
.LBB45:
.LBI45:
	.loc 2 67 24 view .LVU33
.LBB46:
	.loc 2 69 2 view .LVU34
.LBB47:
.LBI47:
	.loc 3 549 24 view .LVU35
.LBB48:
	.loc 3 552 2 view .LVU36
	.loc 3 552 2 is_stmt 0 view .LVU37
.LBE48:
.LBE47:
.LBE46:
.LBE45:
	.loc 1 49 1 view .LVU38
	ldr	r0, .L8
.LVL8:
	.loc 1 49 1 view .LVU39
	ldr	r3, .L8+4
	subs	r0, r0, r3
	lsrs	r0, r0, #3
	bx	lr
.L9:
	.align	2
.L8:
	.word	__log_const_end
	.word	__log_const_start
	.cfi_endproc
.LFE555:
	.size	log_src_cnt_get, .-log_src_cnt_get
	.section	.text.log_source_name_get,"ax",%progbits
	.align	1
	.global	log_source_name_get
	.syntax unified
	.thumb
	.thumb_func
	.fpu fpv4-sp-d16
	.type	log_source_name_get, %function
log_source_name_get:
.LVL9:
.LFB557:
	.loc 1 62 1 is_stmt 1 view -0
	.cfi_startproc
	@ args = 0, pretend = 0, frame = 0
	@ frame_needed = 0, uses_anonymous_args = 0
	@ link register save eliminated.
	.loc 1 63 2 view .LVU41
.LBB49:
.LBI49:
	.loc 2 67 24 view .LVU42
.LBB50:
	.loc 2 69 2 view .LVU43
.LBB51:
.LBI51:
	.loc 3 549 24 view .LVU44
.LBB52:
	.loc 3 552 2 view .LVU45
	.loc 3 552 2 is_stmt 0 view .LVU46
.LBE52:
.LBE51:
.LBE50:
.LBE49:
	.loc 1 63 63 view .LVU47
	ldr	r3, .L13
	ldr	r2, .L13+4
	subs	r3, r3, r2
	cmp	r1, r3, lsr #3
	bcs	.L12
.LVL10:
.LBB53:
.LBI53:
	.loc 1 56 27 is_stmt 1 view .LVU48
.LBB54:
	.loc 1 58 2 view .LVU49
	.loc 1 58 37 is_stmt 0 view .LVU50
	ldr	r0, [r2, r1, lsl #3]
.LVL11:
	.loc 1 58 37 view .LVU51
.LBE54:
.LBE53:
	bx	lr
.LVL12:
.L12:
	.loc 1 63 63 view .LVU52
	movs	r0, #0
.LVL13:
	.loc 1 64 1 view .LVU53
	bx	lr
.L14:
	.align	2
.L13:
	.word	__log_const_end
	.word	__log_const_start
	.cfi_endproc
.LFE557:
	.size	log_source_name_get, .-log_source_name_get
	.section	.text.z_impl_log_filter_set,"ax",%progbits
	.align	1
	.global	z_impl_log_filter_set
	.syntax unified
	.thumb
	.thumb_func
	.fpu fpv4-sp-d16
	.type	z_impl_log_filter_set, %function
z_impl_log_filter_set:
.LVL14:
.LFB559:
	.loc 1 86 1 is_stmt 1 view -0
	.cfi_startproc
	@ args = 0, pretend = 0, frame = 0
	@ frame_needed = 0, uses_anonymous_args = 0
	@ link register save eliminated.
	.loc 1 87 4 view .LVU55
	.loc 1 87 5 view .LVU56
	.loc 1 89 2 view .LVU57
	.loc 1 123 142 view .LVU58
	.loc 1 129 2 view .LVU59
	.loc 1 130 1 is_stmt 0 view .LVU60
	mov	r0, r3
.LVL15:
	.loc 1 130 1 view .LVU61
	bx	lr
	.cfi_endproc
.LFE559:
	.size	z_impl_log_filter_set, .-z_impl_log_filter_set
	.section	.text.log_backend_enable,"ax",%progbits
	.align	1
	.global	log_backend_enable
	.syntax unified
	.thumb
	.thumb_func
	.fpu fpv4-sp-d16
	.type	log_backend_enable, %function
log_backend_enable:
.LVL16:
.LFB561:
	.loc 1 166 1 is_stmt 1 view -0
	.cfi_startproc
	@ args = 0, pretend = 0, frame = 0
	@ frame_needed = 0, uses_anonymous_args = 0
	.loc 1 166 1 is_stmt 0 view .LVU63
	push	{r3, lr}
	.cfi_def_cfa_offset 8
	.cfi_offset 3, -8
	.cfi_offset 14, -4
	.loc 1 168 2 is_stmt 1 view .LVU64
.LVL17:
	.loc 1 170 2 view .LVU65
.LBB55:
.LBI55:
	.file 4 "/home/sebin/thesis/zephyrproject/zephyr/include/logging/log_backend.h"
	.loc 4 252 41 view .LVU66
.LBE55:
	.loc 4 254 2 view .LVU67
	.loc 1 170 16 is_stmt 0 view .LVU68
	ldr	r3, .L18
	subs	r3, r0, r3
	asrs	r3, r3, #4
	.loc 1 170 5 view .LVU69
	adds	r3, r3, #1
.LVL18:
	.loc 1 172 2 is_stmt 1 view .LVU70
	.loc 1 173 5 view .LVU71
	.loc 1 173 6 view .LVU72
	.loc 1 176 2 view .LVU73
.LBB56:
.LBI56:
	.loc 4 224 20 view .LVU74
.LBB57:
	.loc 4 227 4 view .LVU75
	.loc 4 227 5 view .LVU76
	.loc 4 228 2 view .LVU77
	.loc 4 228 9 is_stmt 0 view .LVU78
	ldr	r2, [r0, #4]
.LVL19:
	.loc 4 228 18 view .LVU79
	strb	r3, [r2, #4]
.LVL20:
	.loc 4 228 18 view .LVU80
.LBE57:
.LBE56:
	.loc 1 177 2 is_stmt 1 view .LVU81
	.loc 1 178 2 view .LVU82
.LBB58:
.LBI58:
	.loc 4 273 20 view .LVU83
.LBB59:
	.loc 4 276 4 view .LVU84
	.loc 4 276 5 view .LVU85
	.loc 4 277 2 view .LVU86
	.loc 4 277 9 is_stmt 0 view .LVU87
	ldr	r3, [r0, #4]
.LVL21:
	.loc 4 277 19 view .LVU88
	str	r1, [r3]
	.loc 4 278 2 is_stmt 1 view .LVU89
	.loc 4 278 9 is_stmt 0 view .LVU90
	ldr	r3, [r0, #4]
	.loc 4 278 22 view .LVU91
	movs	r2, #1
	strb	r2, [r3, #5]
.LVL22:
	.loc 4 278 22 view .LVU92
.LBE59:
.LBE58:
	.loc 1 180 2 is_stmt 1 view .LVU93
	bl	z_log_notify_backend_enabled
.LVL23:
	.loc 1 181 1 is_stmt 0 view .LVU94
	pop	{r3, pc}
.L19:
	.align	2
.L18:
	.word	__log_backends_start
	.cfi_endproc
.LFE561:
	.size	log_backend_enable, .-log_backend_enable
	.section	.text.log_backend_disable,"ax",%progbits
	.align	1
	.global	log_backend_disable
	.syntax unified
	.thumb
	.thumb_func
	.fpu fpv4-sp-d16
	.type	log_backend_disable, %function
log_backend_disable:
.LVL24:
.LFB562:
	.loc 1 184 1 is_stmt 1 view -0
	.cfi_startproc
	@ args = 0, pretend = 0, frame = 0
	@ frame_needed = 0, uses_anonymous_args = 0
	@ link register save eliminated.
	.loc 1 185 2 view .LVU96
.LBB60:
.LBI60:
	.loc 4 286 20 view .LVU97
.LBB61:
	.loc 4 289 4 view .LVU98
	.loc 4 289 5 view .LVU99
	.loc 4 290 2 view .LVU100
	.loc 4 290 9 is_stmt 0 view .LVU101
	ldr	r3, [r0, #4]
	.loc 4 290 22 view .LVU102
	movs	r2, #0
	strb	r2, [r3, #5]
.LVL25:
	.loc 4 290 22 view .LVU103
.LBE61:
.LBE60:
	.loc 1 186 2 is_stmt 1 view .LVU104
	.loc 1 187 1 is_stmt 0 view .LVU105
	bx	lr
	.cfi_endproc
.LFE562:
	.size	log_backend_disable, .-log_backend_disable
	.section	.text.log_filter_get,"ax",%progbits
	.align	1
	.global	log_filter_get
	.syntax unified
	.thumb
	.thumb_func
	.fpu fpv4-sp-d16
	.type	log_filter_get, %function
log_filter_get:
.LVL26:
.LFB563:
	.loc 1 191 1 is_stmt 1 view -0
	.cfi_startproc
	@ args = 0, pretend = 0, frame = 0
	@ frame_needed = 0, uses_anonymous_args = 0
	@ link register save eliminated.
	.loc 1 192 4 view .LVU107
	.loc 1 192 5 view .LVU108
	.loc 1 194 2 view .LVU109
	.loc 1 205 2 view .LVU110
.LBB62:
.LBI62:
	.loc 1 20 23 view .LVU111
.LBB63:
	.loc 1 22 2 view .LVU112
	.loc 1 22 37 is_stmt 0 view .LVU113
	ldr	r3, .L22
.LVL27:
	.loc 1 22 37 view .LVU114
	add	r3, r3, r2, lsl #3
.LVL28:
	.loc 1 22 37 view .LVU115
.LBE63:
.LBE62:
	.loc 1 206 1 view .LVU116
	ldrb	r0, [r3, #4]	@ zero_extendqisi2
.LVL29:
	.loc 1 206 1 view .LVU117
	bx	lr
.L23:
	.align	2
.L22:
	.word	__log_const_start
	.cfi_endproc
.LFE563:
	.size	log_filter_get, .-log_filter_get
	.text
.Letext0:
	.file 5 "/home/sebin/LIOT/gcc-arm-none-eabi-9-2019-q4-major/lib/gcc/arm-none-eabi/9.2.1/include/stddef.h"
	.file 6 "/home/sebin/LIOT/gcc-arm-none-eabi-9-2019-q4-major/arm-none-eabi/include/machine/_default_types.h"
	.file 7 "/home/sebin/LIOT/gcc-arm-none-eabi-9-2019-q4-major/arm-none-eabi/include/sys/_stdint.h"
	.file 8 "/home/sebin/LIOT/gcc-arm-none-eabi-9-2019-q4-major/lib/gcc/arm-none-eabi/9.2.1/include/stdarg.h"
	.file 9 "/home/sebin/thesis/zephyrproject/zephyr/include/sys/atomic.h"
	.file 10 "/home/sebin/LIOT/gcc-arm-none-eabi-9-2019-q4-major/arm-none-eabi/include/sys/lock.h"
	.file 11 "/home/sebin/LIOT/gcc-arm-none-eabi-9-2019-q4-major/arm-none-eabi/include/sys/_types.h"
	.file 12 "/home/sebin/LIOT/gcc-arm-none-eabi-9-2019-q4-major/arm-none-eabi/include/sys/reent.h"
	.file 13 "/home/sebin/thesis/zephyrproject/zephyr/include/logging/log_instance.h"
	.file 14 "/home/sebin/thesis/zephyrproject/zephyr/include/sys/mpsc_packet.h"
	.file 15 "/home/sebin/LIOT/gcc-arm-none-eabi-9-2019-q4-major/arm-none-eabi/include/sys/errno.h"
	.file 16 "/home/sebin/thesis/zephyrproject/zephyr/include/logging/log_msg2.h"
	.file 17 "/home/sebin/thesis/zephyrproject/zephyr/include/logging/log_msg.h"
	.file 18 "/home/sebin/thesis/zephyrproject/zephyr/include/sys/dlist.h"
	.file 19 "/home/sebin/thesis/zephyrproject/zephyr/include/sys/rb.h"
	.file 20 "/home/sebin/thesis/zephyrproject/zephyr/include/sys/slist.h"
	.file 21 "/home/sebin/thesis/zephyrproject/zephyr/include/sys/sys_heap.h"
	.file 22 "/home/sebin/thesis/zephyrproject/zephyr/include/kernel_structs.h"
	.file 23 "/home/sebin/thesis/zephyrproject/zephyr/include/kernel/thread.h"
	.file 24 "/home/sebin/thesis/zephyrproject/zephyr/include/kernel.h"
	.file 25 "/home/sebin/thesis/zephyrproject/zephyr/include/arch/arm/aarch32/thread.h"
	.file 26 "/home/sebin/thesis/zephyrproject/zephyr/include/arch/arm/aarch32/exc.h"
	.file 27 "/home/sebin/thesis/zephyrproject/zephyr/include/sw_isr_table.h"
	.file 28 "/home/sebin/thesis/zephyrproject/modules/hal/infineon/XMCLib/devices/XMC4500/Include/system_XMC4500.h"
	.file 29 "/home/sebin/thesis/zephyrproject/modules/hal/cmsis/CMSIS/Core/Include/core_cm4.h"
	.file 30 "/home/sebin/thesis/zephyrproject/zephyr/include/arch/arm/aarch32/mpu/arm_mpu_v7m.h"
	.file 31 "/home/sebin/thesis/zephyrproject/zephyr/include/arch/arm/aarch32/mpu/arm_mpu.h"
	.file 32 "/home/sebin/thesis/zephyrproject/zephyr/include/spinlock.h"
	.file 33 "<built-in>"
	.file 34 "/home/sebin/thesis/zephyrproject/zephyr/include/arch/structs.h"