	.cpu cortex-m4
	.eabi_attribute 27, 1
	.eabi_attribute 28, 1
	.eabi_attribute 20, 1
	.eabi_attribute 21, 1
	.eabi_attribute 23, 3
	.eabi_attribute 24, 1
	.eabi_attribute 25, 1
	.eabi_attribute 26, 1
	.eabi_attribute 30, 1
	.eabi_attribute 34, 1
	.eabi_attribute 38, 1
	.eabi_attribute 18, 4
	.file	"log_backend_rtt.c"
	.text
.Ltext0:
	.cfi_sections	.debug_frame
	.section	.text.log_backend_rtt_init,"ax",%progbits
	.align	1
	.arch armv7e-m
	.syntax unified
	.thumb
	.thumb_func
	.fpu fpv4-sp-d16
	.type	log_backend_rtt_init, %function
log_backend_rtt_init:
.LVL0:
.LFB568:
	.file 1 "/home/sebin/thesis/zephyrproject/zephyr/subsys/logging/log_backend_rtt.c"
	.loc 1 274 1 view -0
	.cfi_startproc
	@ args = 0, pretend = 0, frame = 0
	@ frame_needed = 0, uses_anonymous_args = 0
	@ link register save eliminated.
	.loc 1 275 2 view .LVU1
	.loc 1 279 2 view .LVU2
	.loc 1 279 15 is_stmt 0 view .LVU3
	ldr	r3, .L2
	movs	r2, #1
	strb	r2, [r3]
	.loc 1 280 2 is_stmt 1 view .LVU4
	.loc 1 281 1 is_stmt 0 view .LVU5
	bx	lr
.L3:
	.align	2
.L2:
	.word	.LANCHOR0
	.cfi_endproc
.LFE568:
	.size	log_backend_rtt_init, .-log_backend_rtt_init
	.section	.text.on_failed_write,"ax",%progbits
	.align	1
	.syntax unified
	.thumb
	.thumb_func
	.fpu fpv4-sp-d16
	.type	on_failed_write, %function
on_failed_write:
.LVL1:
.LFB562:
	.loc 1 175 1 is_stmt 1 view -0
	.cfi_startproc
	@ args = 0, pretend = 0, frame = 0
	@ frame_needed = 0, uses_anonymous_args = 0
	.loc 1 175 1 is_stmt 0 view .LVU7
	push	{r3, lr}
	.cfi_def_cfa_offset 8
	.cfi_offset 3, -8
	.cfi_offset 14, -4
	.loc 1 176 2 is_stmt 1 view .LVU8
	.loc 1 176 5 is_stmt 0 view .LVU9
	cbnz	r0, .L5
	.loc 1 177 3 is_stmt 1 view .LVU10
	.loc 1 177 16 is_stmt 0 view .LVU11
	ldr	r3, .L8
	movs	r2, #0
	strb	r2, [r3]
.LVL2:
.L4:
	.loc 1 184 1 view .LVU12
	pop	{r3, pc}
.LVL3:
.L5:
	.loc 1 178 9 is_stmt 1 view .LVU13
	.loc 1 78 2 view .LVU14
	.loc 1 179 3 view .LVU15
.LBB28:
.LBI28:
	.file 2 "/home/sebin/thesis/dmz/zephyr_xmc_template/build/zephyr/include/generated/syscalls/kernel.h"
	.loc 2 129 20 view .LVU16
.LBB29:
	.loc 2 138 2 view .LVU17
	.loc 2 138 7 view .LVU18
	.loc 2 138 55 view .LVU19
	.loc 2 139 2 view .LVU20
	movw	r0, #5000
.LVL4:
	.loc 2 139 2 is_stmt 0 view .LVU21
	bl	z_impl_k_busy_wait
.LVL5:
	.loc 2 139 2 view .LVU22
.LBE29:
.LBE28:
	.loc 1 184 1 view .LVU23
	b	.L4
.L9:
	.align	2
.L8:
	.word	.LANCHOR0
	.cfi_endproc
.LFE562:
	.size	on_failed_write, .-on_failed_write
	.section	.text.on_write,"ax",%progbits
	.align	1
	.syntax unified
	.thumb
	.thumb_func
	.fpu fpv4-sp-d16
	.type	on_write, %function
on_write:
.LVL6:
.LFB563:
	.loc 1 187 1 is_stmt 1 view -0
	.cfi_startproc
	@ args = 0, pretend = 0, frame = 0
	@ frame_needed = 0, uses_anonymous_args = 0
	.loc 1 187 1 is_stmt 0 view .LVU25
	push	{r3, r4, r5, lr}
	.cfi_def_cfa_offset 16
	.cfi_offset 3, -16
	.cfi_offset 4, -12
	.cfi_offset 5, -8
	.cfi_offset 14, -4
	mov	r4, r0
	.loc 1 188 2 is_stmt 1 view .LVU26
	.loc 1 188 15 is_stmt 0 view .LVU27
	ldr	r3, .L15
	movs	r2, #1
	strb	r2, [r3]
	.loc 1 189 2 is_stmt 1 view .LVU28
.LBB30:
.LBI30:
	.loc 1 81 19 view .LVU29
.LBB31:
	.loc 1 83 2 view .LVU30
	.loc 1 83 9 is_stmt 0 view .LVU31
	ldr	r3, .L15+4
	ldrb	r3, [r3]	@ zero_extendqisi2
.LBE31:
.LBE30:
	.loc 1 189 5 view .LVU32
	cbnz	r3, .L11
.LVL7:
.L10:
	.loc 1 201 1 view .LVU33
	pop	{r3, r4, r5, pc}
.LVL8:
.L11:
	.loc 1 195 9 is_stmt 1 view .LVU34
	.loc 1 195 10 is_stmt 0 view .LVU35
	movs	r0, #0
	bl	SEGGER_RTT_HasDataUp
.LVL9:
	.loc 1 195 9 view .LVU36
	cmp	r0, #0
	beq	.L10
	.loc 1 195 34 discriminator 1 view .LVU37
	ldr	r3, .L15
	ldrb	r3, [r3]	@ zero_extendqisi2
	cmp	r3, #0
	beq	.L10
	.loc 1 197 4 is_stmt 1 view .LVU38
	subs	r5, r4, #1
.LVL10:
	.loc 1 197 4 is_stmt 0 view .LVU39
	mov	r0, r4
	bl	on_failed_write
.LVL11:
	mov	r4, r5
	b	.L11
.L16:
	.align	2
.L15:
	.word	.LANCHOR0
	.word	.LANCHOR1
	.cfi_endproc
.LFE563:
	.size	on_write, .-on_write
	.section	.text.data_out_block_mode,"ax",%progbits
	.align	1
	.syntax unified
	.thumb
	.thumb_func
	.fpu fpv4-sp-d16
	.type	data_out_block_mode, %function
data_out_block_mode:
.LVL12:
.LFB564:
	.loc 1 204 1 is_stmt 1 view -0
	.cfi_startproc
	@ args = 0, pretend = 0, frame = 0
	@ frame_needed = 0, uses_anonymous_args = 0
	.loc 1 204 1 is_stmt 0 view .LVU41
	push	{r3, r4, r5, r6, r7, lr}
	.cfi_def_cfa_offset 24
	.cfi_offset 3, -24
	.cfi_offset 4, -20
	.cfi_offset 5, -16
	.cfi_offset 6, -12
	.cfi_offset 7, -8
	.cfi_offset 14, -4
	mov	r6, r0
	mov	r5, r1
	.loc 1 205 2 is_stmt 1 view .LVU42
.LVL13:
	.loc 1 208 2 view .LVU43
	.loc 1 208 6 is_stmt 0 view .LVU44
	movs	r7, #4
	b	.L21
.LVL14:
.L25:
	.loc 1 223 4 is_stmt 1 view .LVU45
	mov	r0, r7
.LVL15:
	.loc 1 223 4 is_stmt 0 view .LVU46
	bl	on_write
.LVL16:
.L19:
	.loc 1 228 3 is_stmt 1 view .LVU47
	.loc 1 229 10 view .LVU48
	.loc 1 229 2 is_stmt 0 view .LVU49
	cbnz	r4, .L20
	.loc 1 229 22 discriminator 1 view .LVU50
	ldr	r3, .L26
	ldrb	r3, [r3]	@ zero_extendqisi2
	cbz	r3, .L20
.LVL17:
.L21:
	.loc 1 211 2 is_stmt 1 view .LVU51
	.loc 1 212 3 view .LVU52
	.loc 1 78 2 view .LVU53
	.loc 1 218 4 view .LVU54
	.loc 1 218 10 is_stmt 0 view .LVU55
	mov	r2, r5
	mov	r1, r6
	movs	r0, #0
	bl	SEGGER_RTT_WriteSkipNoLock
.LVL18:
	.loc 1 222 3 is_stmt 1 view .LVU56
	.loc 1 222 6 is_stmt 0 view .LVU57
	mov	r4, r0
	cmp	r0, #0
	bne	.L25
	.loc 1 224 10 is_stmt 1 view .LVU58
	.loc 1 224 14 is_stmt 0 view .LVU59
	ldr	r3, .L26
	ldrb	r3, [r3]	@ zero_extendqisi2
	.loc 1 224 13 view .LVU60
	cmp	r3, #0
	beq	.L19
	.loc 1 225 4 is_stmt 1 view .LVU61
	.loc 1 225 13 is_stmt 0 view .LVU62
	subs	r7, r7, #1
.LVL19:
	.loc 1 226 4 is_stmt 1 view .LVU63
	mov	r0, r7
.LVL20:
	.loc 1 226 4 is_stmt 0 view .LVU64
	bl	on_failed_write
.LVL21:
	b	.L19
.L20:
	.loc 1 231 2 is_stmt 1 view .LVU65
	.loc 1 231 42 is_stmt 0 view .LVU66
	cbnz	r4, .L22
	.loc 1 231 21 discriminator 2 view .LVU67
	ldr	r3, .L26
	ldrb	r3, [r3]	@ zero_extendqisi2
	cbnz	r3, .L17
.L22:
	.loc 1 231 42 discriminator 3 view .LVU68
	mov	r4, r5
.LVL22:
.L17:
	.loc 1 232 1 view .LVU69
	mov	r0, r4
	pop	{r3, r4, r5, r6, r7, pc}
.LVL23:
.L27:
	.loc 1 232 1 view .LVU70
	.align	2
.L26:
	.word	.LANCHOR0
	.cfi_endproc
.LFE564:
	.size	data_out_block_mode, .-data_out_block_mode
	.section	.text.panic,"ax",%progbits
	.align	1
	.syntax unified
	.thumb
	.thumb_func
	.fpu fpv4-sp-d16
	.type	panic, %function
panic:
.LVL24:
.LFB569:
	.loc 1 284 1 is_stmt 1 view -0
	.cfi_startproc
	@ args = 0, pretend = 0, frame = 0
	@ frame_needed = 0, uses_anonymous_args = 0
	.loc 1 284 1 is_stmt 0 view .LVU72
	push	{r3, lr}
	.cfi_def_cfa_offset 8
	.cfi_offset 3, -8
	.cfi_offset 14, -4
	.loc 1 285 2 is_stmt 1 view .LVU73
	.loc 1 285 13 is_stmt 0 view .LVU74
	ldr	r3, .L30
	movs	r2, #1
	strb	r2, [r3]
	.loc 1 286 2 is_stmt 1 view .LVU75
.LVL25:
.LBB32:
.LBI32:
	.file 3 "/home/sebin/thesis/zephyrproject/zephyr/include/logging/log_backend_std.h"
	.loc 3 63 1 view .LVU76
.LBB33:
	.loc 3 65 2 view .LVU77
	ldr	r0, .L30+4
.LVL26:
	.loc 3 65 2 is_stmt 0 view .LVU78
	bl	log_output_flush
.LVL27:
	.loc 3 65 2 view .LVU79
.LBE33:
.LBE32:
	.loc 1 287 1 view .LVU80
	pop	{r3, pc}
.L31:
	.align	2
.L30:
	.word	.LANCHOR1
	.word	.LANCHOR2
	.cfi_endproc
.LFE569:
	.size	panic, .-panic
	.section	.text.process,"ax",%progbits
	.align	1
	.syntax unified
	.thumb
	.thumb_func
	.fpu fpv4-sp-d16
	.type	process, %function
process:
.LVL28:
.LFB573:
	.loc 1 320 1 is_stmt 1 view -0
	.cfi_startproc
	@ args = 0, pretend = 0, frame = 0
	@ frame_needed = 0, uses_anonymous_args = 0
	.loc 1 320 1 is_stmt 0 view .LVU82
	push	{r3, lr}
	.cfi_def_cfa_offset 8
	.cfi_offset 3, -8
	.cfi_offset 14, -4
	.loc 1 321 2 is_stmt 1 view .LVU83
	.loc 3 26 2 view .LVU84
.LVL29:
	.loc 3 28 2 view .LVU85
	.loc 3 29 3 view .LVU86
	.loc 3 32 2 view .LVU87
	.loc 3 33 3 view .LVU88
	.loc 3 36 2 view .LVU89
	.loc 1 323 2 view .LVU90
	.loc 1 325 2 view .LVU91
	movs	r2, #15
	ldr	r0, .L34
.LVL30:
	.loc 1 325 2 is_stmt 0 view .LVU92
	bl	log_output_msg2_process
.LVL31:
	.loc 1 326 1 view .LVU93
	pop	{r3, pc}
.L35:
	.align	2
.L34:
	.word	.LANCHOR2
	.cfi_endproc
.LFE573:
	.size	process, .-process
	.section	.rodata.str1.4,"aMS",%progbits,1
	.align	2
.LC0:
	.ascii	"log_backend_rtt\000"
	.global	log_backend_rtt_api
	.section	._log_backend.static.log_backend_rtt,"a"
	.align	2
	.type	log_backend_rtt, %object
	.size	log_backend_rtt, 16
log_backend_rtt:
	.word	log_backend_rtt_api
	.word	backend_cb_log_backend_rtt
	.word	.LC0
	.byte	1
	.space	3
	.section	.bss.backend_cb_log_backend_rtt,"aw",%nobits
	.align	2
	.type	backend_cb_log_backend_rtt, %object
	.size	backend_cb_log_backend_rtt, 8
backend_cb_log_backend_rtt:
	.space	8
	.section	.bss.char_buf,"aw",%nobits
	.align	2
	.type	char_buf, %object
	.size	char_buf, 1
char_buf:
	.space	1
	.section	.bss.host_present,"aw",%nobits
	.set	.LANCHOR0,. + 0
	.type	host_present, %object
	.size	host_present, 1
host_present:
	.space	1
	.section	.bss.log_output_rtt_control_block,"aw",%nobits
	.align	2
	.type	log_output_rtt_control_block, %object
	.size	log_output_rtt_control_block, 12
log_output_rtt_control_block:
	.space	12
	.section	.bss.panic_mode,"aw",%nobits
	.set	.LANCHOR1,. + 0
	.type	panic_mode, %object
	.size	panic_mode, 1
panic_mode:
	.space	1
	.section	.rodata.log_backend_rtt_api,"a"
	.align	2
	.type	log_backend_rtt_api, %object
	.size	log_backend_rtt_api, 28
log_backend_rtt_api:
	.word	process
	.word	0
	.word	0
	.word	0
	.word	0
	.word	panic
	.word	log_backend_rtt_init
	.section	.rodata.log_output_rtt,"a"
	.align	2
	.set	.LANCHOR2,. + 0
	.type	log_output_rtt, %object
	.size	log_output_rtt, 16
log_output_rtt:
	.word	data_out_block_mode
	.word	log_output_rtt_control_block
	.word	char_buf
	.word	1
	.text
.Letext0:
	.file 4 "/home/sebin/LIOT/gcc-arm-none-eabi-9-2019-q4-major/lib/gcc/arm-none-eabi/9.2.1/include/stddef.h"
	.file 5 "/home/sebin/LIOT/gcc-arm-none-eabi-9-2019-q4-major/arm-none-eabi/include/machine/_default_types.h"
	.file 6 "/home/sebin/LIOT/gcc-arm-none-eabi-9-2019-q4-major/arm-none-eabi/include/sys/_stdint.h"
	.file 7 "/home/sebin/thesis/zephyrproject/zephyr/include/sys/atomic.h"
	.file 8 "/home/sebin/LIOT/gcc-arm-none-eabi-9-2019-q4-major/arm-none-eabi/include/sys/lock.h"
	.file 9 "/home/sebin/LIOT/gcc-arm-none-eabi-9-2019-q4-major/arm-none-eabi/include/sys/_types.h"
	.file 10 "/home/sebin/LIOT/gcc-arm-none-eabi-9-2019-q4-major/arm-none-eabi/include/sys/reent.h"
	.file 11 "/home/sebin/thesis/zephyrproject/zephyr/include/logging/log_instance.h"
	.file 12 "/home/sebin/thesis/zephyrproject/zephyr/include/sys/mpsc_packet.h"
	.file 13 "/home/sebin/LIOT/gcc-arm-none-eabi-9-2019-q4-major/lib/gcc/arm-none-eabi/9.2.1/include/stdarg.h"
	.file 14 "/home/sebin/LIOT/gcc-arm-none-eabi-9-2019-q4-major/arm-none-eabi/include/sys/errno.h"
	.file 15 "/home/sebin/thesis/zephyrproject/zephyr/include/logging/log_msg2.h"
	.file 16 "/home/sebin/thesis/zephyrproject/zephyr/include/logging/log_msg.h"
	.file 17 "/home/sebin/thesis/zephyrproject/zephyr/include/logging/log_backend.h"
	.file 18 "/home/sebin/thesis/zephyrproject/zephyr/include/logging/log_core.h"
	.file 19 "/home/sebin/thesis/zephyrproject/zephyr/include/logging/log_output.h"
	.file 20 "/home/sebin/thesis/zephyrproject/zephyr/include/sys/dlist.h"
	.file 21 "/home/sebin/thesis/zephyrproject/zephyr/include/sys/rb.h"
	.file 22 "/home/sebin/thesis/zephyrproject/zephyr/include/sys/slist.h"
	.file 23 "/home/sebin/thesis/zephyrproject/zephyr/include/sys/sys_heap.h"
	.file 24 "/home/sebin/thesis/zephyrproject/zephyr/include/kernel_structs.h"
	.file 25 "/home/sebin/thesis/zephyrproject/zephyr/include/kernel/thread.h"
	.file 26 "/home/sebin/thesis/zephyrproject/zephyr/include/kernel.h"
	.file 27 "/home/sebin/thesis/zephyrproject/zephyr/include/arch/arm/aarch32/thread.h"
	.file 28 "/home/sebin/thesis/zephyrproject/zephyr/include/arch/arm/aarch32/exc.h"
	.file 29 "/home/sebin/thesis/zephyrproject/zephyr/include/sw_isr_table.h"
	.file 30 "/home/sebin/thesis/zephyrproject/modules/hal/infineon/XMCLib/devices/XMC4500/Include/system_XMC4500.h"
	.file 31 "/home/sebin/thesis/zephyrproject/modules/hal/cmsis/CMSIS/Core/Include/core_cm4.h"
	.file 32 "/home/sebin/thesis/zephyrproject/zephyr/include/arch/arm/aarch32/mpu/arm_mpu_v7m.h"
	.file 33 "/home/sebin/thesis/zephyrproject/zephyr/include/arch/arm/aarch32/mpu/arm_mpu.h"
	.file 34 "/home/sebin/thesis/zephyrproject/zephyr/include/sys_clock.h"
	.file 35 "/home/sebin/thesis/zephyrproject/zephyr/include/spinlock.h"
	.file 36 "/home/sebin/thesis/zephyrproject/modules/debug/segger/Config/SEGGER_RTT_Conf.h"
	.file 37 "/home/sebin/thesis/zephyrproject/modules/debug/segger/SEGGER/SEGGER_RTT.h"
	.file 38 "/home/sebin/thesis/zephyrproject/zephyr/include/sys/time_units.h"
	.file 39 "<built-in>"
	.file 40 "/home/sebin/thesis/zephyrproject/zephyr/include/arch/structs.h"