	.cpu cortex-m4
	.eabi_attribute 27, 1
	.eabi_attribute 28, 1
	.eabi_attribute 20, 1
	.eabi_attribute 21, 1
	.eabi_attribute 23, 3
	.eabi_attribute 24, 1
	.eabi_attribute 25, 1
	.eabi_attribute 26, 1
	.eabi_attribute 30, 1
	.eabi_attribute 34, 1
	.eabi_attribute 38, 1
	.eabi_attribute 18, 4
	.file	"log_core.c"
	.text
.Ltext0:
	.cfi_sections	.debug_frame
	.section	.text.log_msg2_generic_get_wlen,"ax",%progbits
	.align	1
	.arch armv7e-m
	.syntax unified
	.thumb
	.thumb_func
	.fpu fpv4-sp-d16
	.type	log_msg2_generic_get_wlen, %function
log_msg2_generic_get_wlen:
.LVL0:
.LFB43:
	.file 1 "/home/sebin/thesis/zephyrproject/zephyr/include/logging/log_msg2.h"
	.loc 1 522 1 view -0
	.cfi_startproc
	@ args = 0, pretend = 0, frame = 0
	@ frame_needed = 0, uses_anonymous_args = 0
	@ link register save eliminated.
	.loc 1 523 2 view .LVU1
	.loc 1 525 2 view .LVU2
.LBB178:
.LBI178:
	.loc 1 499 19 view .LVU3
.LBB179:
	.loc 1 501 2 view .LVU4
	.loc 1 501 27 is_stmt 0 view .LVU5
	ldrb	r3, [r0]	@ zero_extendqisi2
.LVL1:
	.loc 1 501 27 view .LVU6
.LBE179:
.LBE178:
	.loc 1 525 5 view .LVU7
	tst	r3, #4
	beq	.L4
	.loc 1 531 9 view .LVU8
	movs	r0, #0
.LVL2:
	.loc 1 532 1 view .LVU9
	bx	lr
.LVL3:
.L4:
.LBB180:
	.loc 1 526 3 is_stmt 1 view .LVU10
	.loc 1 528 3 view .LVU11
	ldr	r3, [r0]
.LVL4:
.LBB181:
.LBI181:
	.loc 1 510 24 view .LVU12
.LBB182:
	.loc 1 512 2 view .LVU13
	.loc 1 512 65 is_stmt 0 view .LVU14
	ubfx	r0, r3, #9, #10
.LVL5:
	.loc 1 512 85 view .LVU15
	ubfx	r3, r3, #19, #12
.LVL6:
	.loc 1 512 78 view .LVU16
	add	r0, r0, r3
	.loc 1 512 98 view .LVU17
	adds	r0, r0, #19
	.loc 1 512 236 view .LVU18
	bic	r0, r0, #7
	.loc 1 512 404 view .LVU19
	lsrs	r0, r0, #2
.LBE182:
.LBE181:
	.loc 1 528 10 view .LVU20
	bx	lr
.LBE180:
	.cfi_endproc
.LFE43:
	.size	log_msg2_generic_get_wlen, .-log_msg2_generic_get_wlen
	.section	.text.dummy_timestamp,"ax",%progbits
	.align	1
	.syntax unified
	.thumb
	.thumb_func
	.fpu fpv4-sp-d16
	.type	dummy_timestamp, %function
dummy_timestamp:
.LFB556:
	.file 2 "/home/sebin/thesis/zephyrproject/zephyr/subsys/logging/log_core.c"
	.loc 2 124 1 is_stmt 1 view -0
	.cfi_startproc
	@ args = 0, pretend = 0, frame = 0
	@ frame_needed = 0, uses_anonymous_args = 0
	@ link register save eliminated.
	.loc 2 125 2 view .LVU22
	.loc 2 126 1 is_stmt 0 view .LVU23
	movs	r0, #0
	bx	lr
	.cfi_endproc
.LFE556:
	.size	dummy_timestamp, .-dummy_timestamp
	.section	.text.thread_set,"ax",%progbits
	.align	1
	.syntax unified
	.thumb
	.thumb_func
	.fpu fpv4-sp-d16
	.type	thread_set, %function
thread_set:
.LVL7:
.LFB577:
	.loc 2 621 1 is_stmt 1 view -0
	.cfi_startproc
	@ args = 0, pretend = 0, frame = 0
	@ frame_needed = 0, uses_anonymous_args = 0
	@ link register save eliminated.
	.loc 2 622 2 view .LVU25
	.loc 2 622 11 is_stmt 0 view .LVU26
	ldr	r3, .L7
	str	r0, [r3]
	.loc 2 624 2 is_stmt 1 view .LVU27
	.loc 2 625 3 view .LVU28
	.loc 2 633 1 is_stmt 0 view .LVU29
	bx	lr
.L8:
	.align	2
.L7:
	.word	.LANCHOR0
	.cfi_endproc
.LFE577:
	.size	thread_set, .-thread_set
	.section	.text.msg_filter_check,"ax",%progbits
	.align	1
	.syntax unified
	.thumb
	.thumb_func
	.fpu fpv4-sp-d16
	.type	msg_filter_check, %function
msg_filter_check:
.LVL8:
.LFB581:
	.loc 2 696 1 is_stmt 1 view -0
	.cfi_startproc
	@ args = 0, pretend = 0, frame = 0
	@ frame_needed = 0, uses_anonymous_args = 0
	@ link register save eliminated.
	.loc 2 697 2 view .LVU31
	.loc 1 501 2 view .LVU32
	.loc 2 729 1 is_stmt 0 view .LVU33
	movs	r0, #1
.LVL9:
	.loc 2 729 1 view .LVU34
	bx	lr
	.cfi_endproc
.LFE581:
	.size	msg_filter_check, .-msg_filter_check
	.section	.text.msg_process,"ax",%progbits
	.align	1
	.syntax unified
	.thumb
	.thumb_func
	.fpu fpv4-sp-d16
	.type	msg_process, %function
msg_process:
.LVL10:
.LFB582:
	.loc 2 732 1 is_stmt 1 view -0
	.cfi_startproc
	@ args = 0, pretend = 0, frame = 0
	@ frame_needed = 0, uses_anonymous_args = 0
	.loc 2 733 2 view .LVU36
	.loc 2 735 2 view .LVU37
	.loc 2 735 5 is_stmt 0 view .LVU38
	cbnz	r1, .L16
	.loc 2 732 1 view .LVU39
	push	{r3, r4, r5, r6, r7, lr}
	.cfi_def_cfa_offset 24
	.cfi_offset 3, -24
	.cfi_offset 4, -20
	.cfi_offset 5, -16
	.cfi_offset 6, -12
	.cfi_offset 7, -8
	.cfi_offset 14, -4
	mov	r6, r0
.LVL11:
.LBB183:
	.loc 2 742 12 view .LVU40
	movs	r4, #0
	b	.L12
.LVL12:
.L13:
	.loc 2 742 48 is_stmt 1 discriminator 2 view .LVU41
	.loc 2 742 49 is_stmt 0 discriminator 2 view .LVU42
	adds	r4, r4, #1
.LVL13:
.L12:
	.loc 2 742 19 is_stmt 1 discriminator 1 view .LVU43
.LBB184:
.LBI184:
	.file 3 "/home/sebin/thesis/zephyrproject/zephyr/include/logging/log_backend.h"
	.loc 3 262 19 discriminator 1 view .LVU44
.LBB185:
	.loc 3 264 2 discriminator 1 view .LVU45
.LBE185:
.LBE184:
	.loc 2 742 3 is_stmt 0 discriminator 1 view .LVU46
	ldr	r3, .L20
	ldr	r2, .L20+4
	subs	r3, r3, r2
	cmp	r4, r3, asr #4
	bge	.L19
	.loc 2 743 4 is_stmt 1 view .LVU47
.LVL14:
.LBB186:
.LBI186:
	.loc 3 252 41 view .LVU48
.LBB187:
	.loc 3 254 2 view .LVU49
	.loc 3 254 9 is_stmt 0 view .LVU50
	ldr	r5, .L20+4
	add	r5, r5, r4, lsl #4
.LVL15:
	.loc 3 254 9 view .LVU51
.LBE187:
.LBE186:
	.loc 2 744 4 is_stmt 1 view .LVU52
.LBB188:
.LBI188:
	.loc 3 300 19 view .LVU53
.LBB189:
	.loc 3 303 4 view .LVU54
	.loc 3 303 5 view .LVU55
	.loc 3 304 2 view .LVU56
	.loc 3 304 16 is_stmt 0 view .LVU57
	ldr	r3, [r5, #4]
	.loc 3 304 20 view .LVU58
	ldrb	r3, [r3, #5]	@ zero_extendqisi2
.LVL16:
	.loc 3 304 20 view .LVU59
.LBE189:
.LBE188:
	.loc 2 744 7 view .LVU60
	cmp	r3, #0
	beq	.L13
	.loc 2 745 8 discriminator 1 view .LVU61
	mov	r1, r6
	mov	r0, r5
	bl	msg_filter_check
.LVL17:
	.loc 2 744 39 discriminator 1 view .LVU62
	cmp	r0, #0
	beq	.L13
	.loc 2 746 5 is_stmt 1 view .LVU63
	.loc 2 747 6 view .LVU64
.LVL18:
.LBB190:
.LBI190:
	.loc 3 126 20 view .LVU65
.LBB191:
	.loc 3 130 4 view .LVU66
	.loc 3 130 5 view .LVU67
	.loc 3 131 4 view .LVU68
	.loc 3 131 5 view .LVU69
	.loc 3 132 2 view .LVU70
	.loc 3 132 9 is_stmt 0 view .LVU71
	lsls	r7, r4, #4
	ldr	r3, .L20+4
	ldr	r3, [r3, r7]
	.loc 3 132 14 view .LVU72
	ldr	r3, [r3]
	.loc 3 132 2 view .LVU73
	mov	r1, r6
	mov	r0, r5
	blx	r3
.LVL19:
	.loc 3 133 1 view .LVU74
	b	.L13
.LVL20:
.L19:
	.loc 3 133 1 view .LVU75
.LBE191:
.LBE190:
.LBE183:
	.loc 2 761 1 view .LVU76
	pop	{r3, r4, r5, r6, r7, pc}
.LVL21:
.L16:
	.cfi_def_cfa_offset 0
	.cfi_restore 3
	.cfi_restore 4
	.cfi_restore 5
	.cfi_restore 6
	.cfi_restore 7
	.cfi_restore 14
	.loc 2 761 1 view .LVU77
	bx	lr
.L21:
	.align	2
.L20:
	.word	__log_backends_end
	.word	__log_backends_start
	.cfi_endproc
.LFE582:
	.size	msg_process, .-msg_process
	.global	__aeabi_uldivmod
	.section	.text.default_lf_get_timestamp,"ax",%progbits
	.align	1
	.syntax unified
	.thumb
	.thumb_func
	.fpu fpv4-sp-d16
	.type	default_lf_get_timestamp, %function
default_lf_get_timestamp:
.LFB574:
	.loc 2 551 1 is_stmt 1 view -0
	.cfi_startproc
	@ args = 0, pretend = 0, frame = 0
	@ frame_needed = 0, uses_anonymous_args = 0
	push	{r3, lr}
	.cfi_def_cfa_offset 8
	.cfi_offset 3, -8
	.cfi_offset 14, -4
	.loc 2 552 2 view .LVU79
.LBB192:
.LBI192:
	.file 4 "/home/sebin/thesis/zephyrproject/zephyr/include/kernel.h"
	.loc 4 1563 24 view .LVU80
.LBB193:
	.loc 4 1565 2 view .LVU81
.LBB194:
.LBI194:
	.loc 4 1539 23 view .LVU82
.LBB195:
	.loc 4 1541 2 view .LVU83
.LBB196:
.LBI196:
	.file 5 "/home/sebin/thesis/dmz/zephyr_xmc_template/build/zephyr/include/generated/syscalls/kernel.h"
	.loc 5 562 23 view .LVU84
.LBB197:
	.loc 5 572 2 view .LVU85
	.loc 5 572 7 view .LVU86
	.loc 5 572 55 view .LVU87
	.loc 5 573 2 view .LVU88
	.loc 5 573 9 is_stmt 0 view .LVU89
	bl	z_impl_k_uptime_ticks
.LVL22:
	.loc 5 573 9 view .LVU90
.LBE197:
.LBE196:
.LBB198:
.LBI198:
	.file 6 "/home/sebin/thesis/zephyrproject/zephyr/include/sys/time_units.h"
	.loc 6 1102 24 is_stmt 1 view .LVU91
.LBE198:
.LBE195:
.LBE194:
.LBE193:
.LBE192:
	.loc 6 1105 2 view .LVU92
.LBB211:
.LBB209:
.LBB207:
.LBB205:
.LBB203:
.LBB199:
.LBI199:
	.loc 6 101 55 view .LVU93
.LBB200:
	.loc 6 106 1 view .LVU94
	.loc 6 108 1 view .LVU95
	.loc 6 111 2 view .LVU96
	.loc 6 115 2 view .LVU97
	.loc 6 117 2 view .LVU98
.LBE200:
.LBE199:
.LBE203:
.LBE205:
.LBE207:
.LBE209:
.LBE211:
	.loc 6 118 3 view .LVU99
	.loc 6 120 3 view .LVU100
	.loc 6 123 3 view .LVU101
.LBB212:
.LBB210:
.LBB208:
.LBB206:
.LBB204:
.LBB202:
.LBB201:
	.loc 6 133 2 view .LVU102
	.loc 6 134 3 view .LVU103
	.loc 6 135 3 view .LVU104
	.loc 6 138 4 view .LVU105
	.loc 6 138 13 is_stmt 0 view .LVU106
	movs	r2, #10
	movs	r3, #0
	bl	__aeabi_uldivmod
.LVL23:
	.loc 6 138 13 view .LVU107
.LBE201:
.LBE202:
.LBE204:
.LBE206:
.LBE208:
.LBE210:
.LBE212:
	.loc 2 554 1 view .LVU108
	pop	{r3, pc}
	.cfi_endproc
.LFE574:
	.size	default_lf_get_timestamp, .-default_lf_get_timestamp
	.section	.text.z_log_get_s_mask,"ax",%progbits
	.align	1
	.global	z_log_get_s_mask
	.syntax unified
	.thumb
	.thumb_func
	.fpu fpv4-sp-d16
	.type	z_log_get_s_mask, %function
z_log_get_s_mask:
.LVL24:
.LFB557:
	.loc 2 129 1 is_stmt 1 view -0
	.cfi_startproc
	@ args = 0, pretend = 0, frame = 0
	@ frame_needed = 0, uses_anonymous_args = 0
	@ link register save eliminated.
	.loc 2 129 1 is_stmt 0 view .LVU110
	push	{r4, r5, r6}
	.cfi_def_cfa_offset 12
	.cfi_offset 4, -12
	.cfi_offset 5, -8
	.cfi_offset 6, -4
	mov	r3, r0
	.loc 2 130 2 is_stmt 1 view .LVU111
	.loc 2 131 1 view .LVU112
.LVL25:
	.loc 2 132 2 view .LVU113
	.loc 2 133 2 view .LVU114
	.loc 2 135 4 view .LVU115
	.loc 2 135 5 view .LVU116
	.loc 2 137 2 view .LVU117
	.loc 2 133 11 is_stmt 0 view .LVU118
	movs	r0, #0
.LVL26:
	.loc 2 132 11 view .LVU119
	mov	r5, r0
	.loc 2 131 6 view .LVU120
	mov	r4, r0
	.loc 2 137 8 view .LVU121
	b	.L25
.LVL27:
.L32:
	.loc 2 139 4 is_stmt 1 view .LVU122
	eor	r4, r4, #1
.LVL28:
.L25:
	.loc 2 147 4 view .LVU123
	.loc 2 137 8 view .LVU124
	.loc 2 137 15 is_stmt 0 view .LVU125
	ldrb	r2, [r3], #1	@ zero_extendqisi2
.LVL29:
	.loc 2 137 8 view .LVU126
	cbz	r2, .L24
	.loc 2 137 25 discriminator 1 view .LVU127
	cmp	r5, r1
	bcs	.L24
	.loc 2 138 3 is_stmt 1 view .LVU128
	.loc 2 138 6 is_stmt 0 view .LVU129
	cmp	r2, #37
	beq	.L32
	.loc 2 140 10 is_stmt 1 view .LVU130
	.loc 2 140 13 is_stmt 0 view .LVU131
	cmp	r4, #0
	beq	.L25
	.loc 2 140 23 discriminator 1 view .LVU132
	ldr	r6, .L34
	ldrb	r6, [r2, r6]	@ zero_extendqisi2
	.loc 2 140 18 discriminator 1 view .LVU133
	tst	r6, #3
	beq	.L25
	.loc 2 141 4 is_stmt 1 view .LVU134
	.loc 2 141 7 is_stmt 0 view .LVU135
	cmp	r2, #115
	beq	.L33
.LVL30:
.L28:
	.loc 2 144 4 is_stmt 1 view .LVU136
	.loc 2 145 4 view .LVU137
	.loc 2 145 7 is_stmt 0 view .LVU138
	adds	r5, r5, #1
.LVL31:
	.loc 2 144 8 view .LVU139
	movs	r4, #0
	b	.L25
.LVL32:
.L33:
	.loc 2 142 5 is_stmt 1 view .LVU140
	.loc 2 142 18 is_stmt 0 view .LVU141
	movs	r2, #1
.LVL33:
	.loc 2 142 18 view .LVU142
	lsls	r2, r2, r5
	.loc 2 142 10 view .LVU143
	orrs	r0, r0, r2
.LVL34:
	.loc 2 142 10 view .LVU144
	b	.L28
.LVL35:
.L24:
	.loc 2 152 1 view .LVU145
	pop	{r4, r5, r6}
	.cfi_restore 6
	.cfi_restore 5
	.cfi_restore 4
	.cfi_def_cfa_offset 0
.LVL36:
	.loc 2 152 1 view .LVU146
	bx	lr
.L35:
	.align	2
.L34:
	.word	_ctype_+1
	.cfi_endproc
.LFE557:
	.size	z_log_get_s_mask, .-z_log_get_s_mask
	.section	.text.z_log_vprintk,"ax",%progbits
	.align	1
	.global	z_log_vprintk
	.syntax unified
	.thumb
	.thumb_func
	.fpu fpv4-sp-d16
	.type	z_log_vprintk, %function
z_log_vprintk:
.LVL37:
.LFB568:
	.loc 2 374 1 is_stmt 1 view -0
	.cfi_startproc
	@ args = 0, pretend = 0, frame = 0
	@ frame_needed = 0, uses_anonymous_args = 0
	.loc 2 374 1 is_stmt 0 view .LVU148
	push	{lr}
	.cfi_def_cfa_offset 4
	.cfi_offset 14, -4
	sub	sp, sp, #20
	.cfi_def_cfa_offset 24
	.loc 2 375 2 is_stmt 1 view .LVU149
	.loc 2 379 2 view .LVU150
	.loc 2 380 3 view .LVU151
.LVL38:
.LBB213:
.LBI213:
	.file 7 "/home/sebin/thesis/dmz/zephyr_xmc_template/build/zephyr/include/generated/syscalls/log_msg2.h"
	.loc 7 59 20 view .LVU152
.LBB214:
	.loc 7 72 2 view .LVU153
	.loc 7 72 7 view .LVU154
	.loc 7 72 55 view .LVU155
	.loc 7 73 2 view .LVU156
	str	r1, [sp, #8]
	str	r0, [sp, #4]
	movs	r0, #0
.LVL39:
	.loc 7 73 2 is_stmt 0 view .LVU157
	str	r0, [sp]
	mov	r3, r0
	mov	r2, r0
	mov	r1, r0
.LVL40:
	.loc 7 73 2 view .LVU158
	bl	z_impl_z_log_msg2_runtime_vcreate
.LVL41:
	.loc 7 73 2 view .LVU159
.LBE214:
.LBE213:
	.loc 2 383 3 is_stmt 1 view .LVU160
	.loc 2 419 1 is_stmt 0 view .LVU161
	add	sp, sp, #20
	.cfi_def_cfa_offset 4
	@ sp needed
	ldr	pc, [sp], #4
	.cfi_endproc
.LFE568:
	.size	z_log_vprintk, .-z_log_vprintk
	.section	.text.log_count_args,"ax",%progbits
	.align	1
	.global	log_count_args
	.syntax unified
	.thumb
	.thumb_func
	.fpu fpv4-sp-d16
	.type	log_count_args, %function
log_count_args:
.LVL42:
.LFB569:
	.loc 2 426 1 is_stmt 1 view -0
	.cfi_startproc
	@ args = 0, pretend = 0, frame = 0
	@ frame_needed = 0, uses_anonymous_args = 0
	@ link register save eliminated.
	.loc 2 426 1 is_stmt 0 view .LVU163
	mov	r3, r0
	.loc 2 427 2 is_stmt 1 view .LVU164
.LVL43:
	.loc 2 428 1 view .LVU165
	.loc 2 430 2 view .LVU166
	.loc 2 428 6 is_stmt 0 view .LVU167
	movs	r1, #0
	.loc 2 427 11 view .LVU168
	mov	r0, r1
.LVL44:
	.loc 2 430 8 view .LVU169
	b	.L39
.LVL45:
.L44:
	.loc 2 432 4 is_stmt 1 view .LVU170
	eor	r1, r1, #1
.LVL46:
.L41:
	.loc 2 437 4 view .LVU171
	.loc 2 439 3 view .LVU172
	.loc 2 439 6 is_stmt 0 view .LVU173
	adds	r3, r3, #1
.LVL47:
.L39:
	.loc 2 430 8 is_stmt 1 view .LVU174
	.loc 2 430 9 is_stmt 0 view .LVU175
	ldrb	r2, [r3]	@ zero_extendqisi2
	.loc 2 430 8 view .LVU176
	cbz	r2, .L43
	.loc 2 431 3 is_stmt 1 view .LVU177
	.loc 2 431 6 is_stmt 0 view .LVU178
	cmp	r2, #37
	beq	.L44
	.loc 2 433 10 is_stmt 1 view .LVU179
	.loc 2 433 13 is_stmt 0 view .LVU180
	cmp	r1, #0
	beq	.L41
	.loc 2 434 4 is_stmt 1 view .LVU181
	.loc 2 434 8 is_stmt 0 view .LVU182
	adds	r0, r0, #1
.LVL48:
	.loc 2 435 4 is_stmt 1 view .LVU183
	.loc 2 435 9 is_stmt 0 view .LVU184
	movs	r1, #0
	b	.L41
.LVL49:
.L43:
	.loc 2 443 1 view .LVU185
	bx	lr
	.cfi_endproc
.LFE569:
	.size	log_count_args, .-log_count_args
	.section	.text.log_generic,"ax",%progbits
	.align	1
	.global	log_generic
	.syntax unified
	.thumb
	.thumb_func
	.fpu fpv4-sp-d16
	.type	log_generic, %function
log_generic:
.LVL50:
.LFB570:
	.loc 2 447 1 is_stmt 1 view -0
	.cfi_startproc
	@ args = 0, pretend = 0, frame = 8
	@ frame_needed = 0, uses_anonymous_args = 0
	.loc 2 447 1 is_stmt 0 view .LVU187
	push	{r4, r5, r6, r7, r8, r9, lr}
	.cfi_def_cfa_offset 28
	.cfi_offset 4, -28
	.cfi_offset 5, -24
	.cfi_offset 6, -20
	.cfi_offset 7, -16
	.cfi_offset 8, -12
	.cfi_offset 9, -8
	.cfi_offset 14, -4
	sub	sp, sp, #20
	.cfi_def_cfa_offset 48
	mov	r8, r0	@ movhi
.LVL51:
	.loc 2 447 1 view .LVU188
	mov	r7, r1
	mov	r5, r2
.LVL52:
	.loc 2 448 2 is_stmt 1 view .LVU189
	.file 8 "/home/sebin/thesis/zephyrproject/zephyr/include/syscall.h"
	.loc 8 120 2 view .LVU190
	.loc 2 450 9 view .LVU191
.LBB215:
	.loc 2 452 3 view .LVU192
	.loc 2 453 3 view .LVU193
	.loc 2 453 24 is_stmt 0 view .LVU194
	ldr	r3, .L52
.LVL53:
	.loc 2 453 24 view .LVU195
	ldr	r3, [r3]
	blx	r3
.LVL54:
	.loc 2 453 24 view .LVU196
	mov	r6, r0
.LVL55:
	.loc 2 455 3 is_stmt 1 view .LVU197
.LBB216:
	.loc 2 455 8 view .LVU198
	.loc 2 455 12 is_stmt 0 view .LVU199
	movs	r4, #0
	.loc 2 455 3 view .LVU200
	b	.L46
.LVL56:
.L47:
	.loc 2 455 48 is_stmt 1 discriminator 2 view .LVU201
	.loc 2 455 49 is_stmt 0 discriminator 2 view .LVU202
	adds	r4, r4, #1
.LVL57:
.L46:
	.loc 2 455 19 is_stmt 1 discriminator 1 view .LVU203
.LBB217:
.LBI217:
	.loc 3 262 19 discriminator 1 view .LVU204
.LBB218:
	.loc 3 264 2 discriminator 1 view .LVU205
.LBE218:
.LBE217:
	.loc 2 455 3 is_stmt 0 discriminator 1 view .LVU206
	ldr	r3, .L52+4
	ldr	r2, .L52+8
	subs	r3, r3, r2
	cmp	r4, r3, asr #4
	bge	.L51
.LBB219:
	.loc 2 456 4 is_stmt 1 view .LVU207
.LVL58:
.LBB220:
.LBI220:
	.loc 3 252 41 view .LVU208
.LBB221:
	.loc 3 254 2 view .LVU209
	.loc 3 254 9 is_stmt 0 view .LVU210
	ldr	r0, .L52+8
	add	r0, r0, r4, lsl #4
.LVL59:
	.loc 3 254 9 view .LVU211
.LBE221:
.LBE220:
	.loc 2 457 3 is_stmt 1 view .LVU212
	.loc 2 464 4 view .LVU213
.LBB222:
.LBI222:
	.loc 3 300 19 view .LVU214
.LBB223:
	.loc 3 303 4 view .LVU215
	.loc 3 303 5 view .LVU216
	.loc 3 304 2 view .LVU217
	.loc 3 304 16 is_stmt 0 view .LVU218
	ldr	r3, [r0, #4]
	.loc 3 304 20 view .LVU219
	ldrb	r3, [r3, #5]	@ zero_extendqisi2
.LVL60:
	.loc 3 304 20 view .LVU220
.LBE223:
.LBE222:
	.loc 2 464 7 view .LVU221
	cmp	r3, #0
	beq	.L47
.LBB224:
	.loc 2 465 5 is_stmt 1 view .LVU222
	.loc 2 467 4 view .LVU223
	str	r5, [sp, #12]
	.loc 2 468 5 view .LVU224
.LVL61:
.LBB225:
.LBI225:
	.loc 3 147 20 view .LVU225
.LBB226:
	.loc 3 153 4 view .LVU226
	.loc 3 153 5 view .LVU227
	.loc 3 155 2 view .LVU228
	.loc 3 155 13 is_stmt 0 view .LVU229
	lsls	r3, r4, #4
	ldr	r2, .L52+8
	ldr	r3, [r2, r3]
	.loc 3 155 18 view .LVU230
	ldr	r9, [r3, #8]
	.loc 3 155 5 view .LVU231
	cmp	r9, #0
	beq	.L47
	.loc 3 156 3 is_stmt 1 view .LVU232
	str	r5, [sp]
	mov	r3, r7
	mov	r2, r6
	mov	r1, r8	@ movhi
	blx	r9
.LVL62:
	.loc 3 156 3 is_stmt 0 view .LVU233
.LBE226:
.LBE225:
	.loc 2 470 4 is_stmt 1 view .LVU234
	b	.L47
.LVL63:
.L51:
	.loc 2 470 4 is_stmt 0 view .LVU235
.LBE224:
.LBE219:
.LBE216:
.LBE215:
	.loc 2 503 1 view .LVU236
	add	sp, sp, #20
	.cfi_def_cfa_offset 28
	@ sp needed
	pop	{r4, r5, r6, r7, r8, r9, pc}
.LVL64:
.L53:
	.loc 2 503 1 view .LVU237
	.align	2
.L52:
	.word	.LANCHOR1
	.word	__log_backends_end
	.word	__log_backends_start
	.cfi_endproc
.LFE570:
	.size	log_generic, .-log_generic
	.section	.text.log_string_sync,"ax",%progbits
	.align	1
	.global	log_string_sync
	.syntax unified
	.thumb
	.thumb_func
	.fpu fpv4-sp-d16
	.type	log_string_sync, %function
log_string_sync:
.LVL65:
.LFB571:
	.loc 2 506 1 is_stmt 1 view -0
	.cfi_startproc
	@ args = 4, pretend = 12, frame = 8
	@ frame_needed = 0, uses_anonymous_args = 1
	.loc 2 506 1 is_stmt 0 view .LVU239
	push	{r1, r2, r3}
	.cfi_def_cfa_offset 12
	.cfi_offset 1, -12
	.cfi_offset 2, -8
	.cfi_offset 3, -4
	push	{lr}
	.cfi_def_cfa_offset 16
	.cfi_offset 14, -16
	sub	sp, sp, #8
	.cfi_def_cfa_offset 24
	add	r2, sp, #12
	ldr	r1, [r2], #4
	.loc 2 507 2 is_stmt 1 view .LVU240
	.loc 2 509 1 view .LVU241
	str	r2, [sp, #4]
	.loc 2 511 2 view .LVU242
	movs	r3, #0
	bl	log_generic
.LVL66:
	.loc 2 513 1 view .LVU243
	.loc 2 514 1 is_stmt 0 view .LVU244
	add	sp, sp, #8
	.cfi_def_cfa_offset 16
	@ sp needed
	ldr	lr, [sp], #4
	.cfi_restore 14
	.cfi_def_cfa_offset 12
	add	sp, sp, #12
	.cfi_restore 3
	.cfi_restore 2
	.cfi_restore 1
	.cfi_def_cfa_offset 0
	bx	lr
	.cfi_endproc
.LFE571:
	.size	log_string_sync, .-log_string_sync
	.section	.text.log_hexdump_sync,"ax",%progbits
	.align	1
	.global	log_hexdump_sync
	.syntax unified
	.thumb
	.thumb_func
	.fpu fpv4-sp-d16
	.type	log_hexdump_sync, %function
log_hexdump_sync:
.LVL67:
.LFB572:
	.loc 2 518 1 is_stmt 1 view -0
	.cfi_startproc
	@ args = 0, pretend = 0, frame = 0
	@ frame_needed = 0, uses_anonymous_args = 0
	.loc 2 518 1 is_stmt 0 view .LVU246
	push	{r4, r5, r6, r7, r8, r9, r10, lr}
	.cfi_def_cfa_offset 32
	.cfi_offset 4, -32
	.cfi_offset 5, -28
	.cfi_offset 6, -24
	.cfi_offset 7, -20
	.cfi_offset 8, -16
	.cfi_offset 9, -12
	.cfi_offset 10, -8
	.cfi_offset 14, -4
	sub	sp, sp, #8
	.cfi_def_cfa_offset 40
	mov	r10, r0	@ movhi
.LVL68:
	.loc 2 518 1 view .LVU247
	mov	r9, r1
	mov	r8, r2
	mov	r7, r3
	.loc 2 519 2 is_stmt 1 view .LVU248
.LBB227:
	.loc 2 523 3 view .LVU249
	.loc 2 524 3 view .LVU250
	.loc 2 524 31 is_stmt 0 view .LVU251
	ldr	r3, .L63
.LVL69:
	.loc 2 524 31 view .LVU252
	ldr	r3, [r3]
	blx	r3
.LVL70:
	.loc 2 524 31 view .LVU253
	mov	r6, r0
.LVL71:
	.loc 2 526 3 is_stmt 1 view .LVU254
.LBB228:
	.loc 2 526 8 view .LVU255
	.loc 2 526 12 is_stmt 0 view .LVU256
	movs	r4, #0
	.loc 2 526 3 view .LVU257
	b	.L57
.LVL72:
.L58:
	.loc 2 526 48 is_stmt 1 discriminator 2 view .LVU258
	.loc 2 526 49 is_stmt 0 discriminator 2 view .LVU259
	adds	r4, r4, #1
.LVL73:
.L57:
	.loc 2 526 19 is_stmt 1 discriminator 1 view .LVU260
.LBB229:
.LBI229:
	.loc 3 262 19 discriminator 1 view .LVU261
.LBB230:
	.loc 3 264 2 discriminator 1 view .LVU262
.LBE230:
.LBE229:
	.loc 2 526 3 is_stmt 0 discriminator 1 view .LVU263
	ldr	r5, .L63+4
	ldr	r3, .L63+8
	subs	r5, r5, r3
	cmp	r4, r5, asr #4
	bge	.L62
.LBB231:
	.loc 2 527 4 is_stmt 1 view .LVU264
.LVL74:
.LBB232:
.LBI232:
	.loc 3 252 41 view .LVU265
.LBB233:
	.loc 3 254 2 view .LVU266
	.loc 3 254 9 is_stmt 0 view .LVU267
	ldr	r0, .L63+8
	add	r0, r0, r4, lsl #4
.LVL75:
	.loc 3 254 9 view .LVU268
.LBE233:
.LBE232:
	.loc 2 528 3 is_stmt 1 view .LVU269
	.loc 2 535 4 view .LVU270
.LBB234:
.LBI234:
	.loc 3 300 19 view .LVU271
.LBB235:
	.loc 3 303 4 view .LVU272
	.loc 3 303 5 view .LVU273
	.loc 3 304 2 view .LVU274
	.loc 3 304 16 is_stmt 0 view .LVU275
	ldr	r3, [r0, #4]
	.loc 3 304 20 view .LVU276
	ldrb	r3, [r3, #5]	@ zero_extendqisi2
.LVL76:
	.loc 3 304 20 view .LVU277
.LBE235:
.LBE234:
	.loc 2 535 7 view .LVU278
	cmp	r3, #0
	beq	.L58
	.loc 2 536 5 is_stmt 1 view .LVU279
.LVL77:
.LBB236:
.LBI236:
	.loc 3 173 20 view .LVU280
.LBB237:
	.loc 3 179 4 view .LVU281
	.loc 3 179 5 view .LVU282
	.loc 3 181 2 view .LVU283
	.loc 3 181 13 is_stmt 0 view .LVU284
	lsls	r3, r4, #4
	ldr	r2, .L63+8
	ldr	r3, [r2, r3]
	.loc 3 181 18 view .LVU285
	ldr	r5, [r3, #12]
	.loc 3 181 5 view .LVU286
	cmp	r5, #0
	beq	.L58
	.loc 3 182 3 is_stmt 1 view .LVU287
	str	r7, [sp, #4]
	str	r8, [sp]
	mov	r3, r9
	mov	r2, r6
	mov	r1, r10	@ movhi
	blx	r5
.LVL78:
	.loc 3 182 3 is_stmt 0 view .LVU288
	b	.L58
.LVL79:
.L62:
	.loc 3 182 3 view .LVU289
.LBE237:
.LBE236:
.LBE231:
.LBE228:
.LBE227:
	.loc 2 542 1 view .LVU290
	add	sp, sp, #8
	.cfi_def_cfa_offset 32
	@ sp needed
	pop	{r4, r5, r6, r7, r8, r9, r10, pc}
.LVL80:
.L64:
	.loc 2 542 1 view .LVU291
	.align	2
.L63:
	.word	.LANCHOR1
	.word	__log_backends_end
	.word	__log_backends_start
	.cfi_endproc
.LFE572:
	.size	log_hexdump_sync, .-log_hexdump_sync
	.section	.text.log_init,"ax",%progbits
	.align	1
	.global	log_init
	.syntax unified
	.thumb
	.thumb_func
	.fpu fpv4-sp-d16
	.type	log_init, %function
log_init:
.LFB576:
	.loc 2 592 1 is_stmt 1 view -0
	.cfi_startproc
	@ args = 0, pretend = 0, frame = 0
	@ frame_needed = 0, uses_anonymous_args = 0
	.loc 2 593 4 view .LVU293
	.loc 2 593 5 view .LVU294
	.loc 2 594 2 view .LVU295
	.loc 2 596 2 view .LVU296
	.loc 2 600 2 view .LVU297
.LVL81:
.LBB238:
.LBI238:
	.file 9 "/home/sebin/thesis/zephyrproject/zephyr/include/sys/atomic_builtin.h"
	.loc 9 108 28 view .LVU298
.LBE238:
	.loc 9 110 2 view .LVU299
.LBB241:
.LBB239:
.LBI239:
	.loc 9 77 28 view .LVU300
.LBB240:
	.loc 9 79 2 view .LVU301
	.loc 9 79 9 is_stmt 0 view .LVU302
	ldr	r3, .L77
	dmb	ish
.L71:
	ldrex	r2, [r3]
	adds	r1, r2, #1
	strex	r0, r1, [r3]
	cmp	r0, #0
	bne	.L71
	dmb	ish
.LVL82:
	.loc 9 79 9 view .LVU303
.LBE240:
.LBE239:
.LBE241:
	.loc 2 600 5 view .LVU304
	cbnz	r2, .L73
	.loc 2 592 1 view .LVU305
	push	{r4, r5, r6, lr}
	.cfi_def_cfa_offset 16
	.cfi_offset 4, -16
	.cfi_offset 5, -12
	.cfi_offset 6, -8
	.cfi_offset 14, -4
	.loc 2 605 9 view .LVU306
	movs	r4, #0
	b	.L67
.LVL83:
.L69:
.LBB242:
	.loc 2 613 4 is_stmt 1 view .LVU307
	.loc 2 614 16 is_stmt 0 view .LVU308
	ldr	r3, .L77+4
	add	r3, r3, r6, lsl #4
	ldr	r3, [r3, #4]
	.loc 2 613 4 view .LVU309
	movs	r2, #4
	ldr	r1, [r3]
	mov	r0, r5
	bl	log_backend_enable
.LVL84:
.L68:
	.loc 2 613 4 view .LVU310
.LBE242:
	.loc 2 605 43 is_stmt 1 discriminator 2 view .LVU311
	.loc 2 605 44 is_stmt 0 discriminator 2 view .LVU312
	adds	r4, r4, #1
.LVL85:
.L67:
	.loc 2 605 14 is_stmt 1 discriminator 1 view .LVU313
.LBB245:
.LBI245:
	.loc 3 262 19 discriminator 1 view .LVU314
.LBB246:
	.loc 3 264 2 discriminator 1 view .LVU315
.LBE246:
.LBE245:
	.loc 2 605 2 is_stmt 0 discriminator 1 view .LVU316
	ldr	r3, .L77+8
	ldr	r2, .L77+4
	subs	r3, r3, r2
	cmp	r4, r3, asr #4
	bge	.L76
.LBB247:
	.loc 2 606 3 is_stmt 1 view .LVU317
	.loc 2 606 39 is_stmt 0 view .LVU318
	mov	r6, r4
.LVL86:
.LBB243:
.LBI243:
	.loc 3 252 41 is_stmt 1 view .LVU319
.LBB244:
	.loc 3 254 2 view .LVU320
	.loc 3 254 9 is_stmt 0 view .LVU321
	ldr	r5, .L77+4
	add	r5, r5, r4, lsl #4
.LVL87:
	.loc 3 254 9 view .LVU322
.LBE244:
.LBE243:
	.loc 2 608 3 is_stmt 1 view .LVU323
	.loc 2 608 14 is_stmt 0 view .LVU324
	ldrb	r3, [r5, #12]	@ zero_extendqisi2
	.loc 2 608 6 view .LVU325
	cmp	r3, #0
	beq	.L68
	.loc 2 609 4 is_stmt 1 view .LVU326
	.loc 2 609 15 is_stmt 0 view .LVU327
	lsls	r3, r4, #4
	ldr	r2, .L77+4
	ldr	r3, [r2, r3]
	.loc 2 609 20 view .LVU328
	ldr	r3, [r3, #24]
	.loc 2 609 7 view .LVU329
	cmp	r3, #0
	beq	.L69
	.loc 2 610 5 is_stmt 1 view .LVU330
	mov	r0, r5
	blx	r3
.LVL88:
	b	.L69
.LVL89:
.L76:
	.loc 2 610 5 is_stmt 0 view .LVU331
.LBE247:
	.loc 2 618 1 view .LVU332
	pop	{r4, r5, r6, pc}
.LVL90:
.L73:
	.cfi_def_cfa_offset 0
	.cfi_restore 4
	.cfi_restore 5
	.cfi_restore 6
	.cfi_restore 14
	.loc 2 618 1 view .LVU333
	bx	lr
.L78:
	.align	2
.L77:
	.word	.LANCHOR2
	.word	__log_backends_start
	.word	__log_backends_end
	.cfi_endproc
.LFE576:
	.size	log_init, .-log_init
	.section	.text.enable_logger,"ax",%progbits
	.align	1
	.syntax unified
	.thumb
	.thumb_func
	.fpu fpv4-sp-d16
	.type	enable_logger, %function
enable_logger:
.LVL91:
.LFB614:
	.loc 2 1285 1 is_stmt 1 view -0
	.cfi_startproc
	@ args = 0, pretend = 0, frame = 0
	@ frame_needed = 0, uses_anonymous_args = 0
	.loc 2 1285 1 is_stmt 0 view .LVU335
	push	{r3, lr}
	.cfi_def_cfa_offset 8
	.cfi_offset 3, -8
	.cfi_offset 14, -4
	.loc 2 1286 2 is_stmt 1 view .LVU336
	.loc 2 1288 2 view .LVU337
	.loc 2 1301 3 view .LVU338
	bl	log_init
.LVL92:
	.loc 2 1304 2 view .LVU339
	.loc 2 1305 1 is_stmt 0 view .LVU340
	movs	r0, #0
	pop	{r3, pc}
	.cfi_endproc
.LFE614:
	.size	enable_logger, .-enable_logger
	.section	.text.log_thread_set,"ax",%progbits
	.align	1
	.global	log_thread_set
	.syntax unified
	.thumb
	.thumb_func
	.fpu fpv4-sp-d16
	.type	log_thread_set, %function
log_thread_set:
.LVL93:
.LFB578:
	.loc 2 636 1 is_stmt 1 view -0
	.cfi_startproc
	@ args = 0, pretend = 0, frame = 0
	@ frame_needed = 0, uses_anonymous_args = 0
	.loc 2 636 1 is_stmt 0 view .LVU342
	push	{r3, lr}
	.cfi_def_cfa_offset 8
	.cfi_offset 3, -8
	.cfi_offset 14, -4
	.loc 2 637 2 is_stmt 1 view .LVU343
	.loc 2 640 3 view .LVU344
	bl	thread_set
.LVL94:
	.loc 2 642 1 is_stmt 0 view .LVU345
	pop	{r3, pc}
	.cfi_endproc
.LFE578:
	.size	log_thread_set, .-log_thread_set
	.section	.text.log_set_timestamp_func,"ax",%progbits
	.align	1
	.global	log_set_timestamp_func
	.syntax unified
	.thumb
	.thumb_func
	.fpu fpv4-sp-d16
	.type	log_set_timestamp_func, %function
log_set_timestamp_func:
.LVL95:
.LFB579:
	.loc 2 645 1 is_stmt 1 view -0
	.cfi_startproc
	@ args = 0, pretend = 0, frame = 0
	@ frame_needed = 0, uses_anonymous_args = 0
	.loc 2 646 2 view .LVU347
	.loc 2 646 5 is_stmt 0 view .LVU348
	cbz	r0, .L85
	.loc 2 645 1 view .LVU349
	push	{r3, lr}
	.cfi_def_cfa_offset 8
	.cfi_offset 3, -8
	.cfi_offset 14, -4
	.loc 2 650 2 is_stmt 1 view .LVU350
	.loc 2 650 17 is_stmt 0 view .LVU351
	ldr	r2, .L90
	str	r0, [r2]
	.loc 2 651 2 is_stmt 1 view .LVU352
	mov	r0, r1
.LVL96:
	.loc 2 651 2 is_stmt 0 view .LVU353
	bl	log_output_timestamp_freq_set
.LVL97:
	.loc 2 653 2 is_stmt 1 view .LVU354
	.loc 2 653 9 is_stmt 0 view .LVU355
	movs	r0, #0
	.loc 2 654 1 view .LVU356
	pop	{r3, pc}
.LVL98:
.L85:
	.cfi_def_cfa_offset 0
	.cfi_restore 3
	.cfi_restore 14
	.loc 2 647 10 view .LVU357
	mvn	r0, #21
.LVL99:
	.loc 2 654 1 view .LVU358
	bx	lr
.L91:
	.align	2
.L90:
	.word	.LANCHOR1
	.cfi_endproc
.LFE579:
	.size	log_set_timestamp_func, .-log_set_timestamp_func
	.section	.text.log_core_init,"ax",%progbits
	.align	1
	.global	log_core_init
	.syntax unified
	.thumb
	.thumb_func
	.fpu fpv4-sp-d16
	.type	log_core_init, %function
log_core_init:
.LFB575:
	.loc 2 557 1 is_stmt 1 view -0
	.cfi_startproc
	@ args = 0, pretend = 0, frame = 0
	@ frame_needed = 0, uses_anonymous_args = 0
	push	{r3, lr}
	.cfi_def_cfa_offset 8
	.cfi_offset 3, -8
	.cfi_offset 14, -4
	.loc 2 558 2 view .LVU360
	.loc 2 559 2 view .LVU361
	.loc 2 561 2 view .LVU362
	.loc 2 561 13 is_stmt 0 view .LVU363
	movs	r3, #0
	ldr	r2, .L94
	strb	r3, [r2]
	.loc 2 562 2 is_stmt 1 view .LVU364
	.loc 2 562 14 is_stmt 0 view .LVU365
	ldr	r2, .L94+4
	str	r3, [r2]
	.loc 2 565 2 is_stmt 1 view .LVU366
	.loc 6 63 2 view .LVU367
	.loc 2 566 3 view .LVU368
	.loc 2 567 3 view .LVU369
.LVL100:
	.loc 2 573 2 view .LVU370
	mov	r1, #1000
	ldr	r0, .L94+8
	bl	log_set_timestamp_func
.LVL101:
	.loc 2 575 2 view .LVU371
	.loc 2 577 9 view .LVU372
	.loc 2 586 2 view .LVU373
	.loc 2 589 1 is_stmt 0 view .LVU374
	pop	{r3, pc}
.L95:
	.align	2
.L94:
	.word	.LANCHOR3
	.word	.LANCHOR4
	.word	default_lf_get_timestamp
	.cfi_endproc
.LFE575:
	.size	log_core_init, .-log_core_init
	.section	.text.z_impl_log_panic,"ax",%progbits
	.align	1
	.global	z_impl_log_panic
	.syntax unified
	.thumb
	.thumb_func
	.fpu fpv4-sp-d16
	.type	z_impl_log_panic, %function
z_impl_log_panic:
.LFB580:
	.loc 2 657 1 is_stmt 1 view -0
	.cfi_startproc
	@ args = 0, pretend = 0, frame = 0
	@ frame_needed = 0, uses_anonymous_args = 0
	.loc 2 658 2 view .LVU376
	.loc 2 660 2 view .LVU377
	.loc 2 660 6 is_stmt 0 view .LVU378
	ldr	r3, .L107
	ldrb	r3, [r3]	@ zero_extendqisi2
	.loc 2 660 5 view .LVU379
	cbz	r3, .L105
	bx	lr
.L105:
	.loc 2 657 1 view .LVU380
	push	{r4, lr}
	.cfi_def_cfa_offset 8
	.cfi_offset 4, -8
	.cfi_offset 14, -4
	.loc 2 667 2 is_stmt 1 view .LVU381
	bl	log_init
.LVL102:
	.loc 2 669 2 view .LVU382
.LBB248:
	.loc 2 669 7 view .LVU383
	.loc 2 669 11 is_stmt 0 view .LVU384
	movs	r4, #0
	.loc 2 669 2 view .LVU385
	b	.L98
.LVL103:
.L99:
	.loc 2 669 47 is_stmt 1 discriminator 2 view .LVU386
	.loc 2 669 48 is_stmt 0 discriminator 2 view .LVU387
	adds	r4, r4, #1
.LVL104:
.L98:
	.loc 2 669 18 is_stmt 1 discriminator 1 view .LVU388
.LBB249:
.LBI249:
	.loc 3 262 19 discriminator 1 view .LVU389
.LBB250:
	.loc 3 264 2 discriminator 1 view .LVU390
.LBE250:
.LBE249:
	.loc 2 669 2 is_stmt 0 discriminator 1 view .LVU391
	ldr	r3, .L107+4
	ldr	r2, .L107+8
	subs	r3, r3, r2
	cmp	r4, r3, asr #4
	bge	.L106
	.loc 2 670 3 is_stmt 1 view .LVU392
.LVL105:
.LBB251:
.LBI251:
	.loc 3 252 41 view .LVU393
.LBB252:
	.loc 3 254 2 view .LVU394
	.loc 3 254 9 is_stmt 0 view .LVU395
	ldr	r0, .L107+8
	add	r0, r0, r4, lsl #4
.LVL106:
	.loc 3 254 9 view .LVU396
.LBE252:
.LBE251:
	.loc 2 672 3 is_stmt 1 view .LVU397
.LBB253:
.LBI253:
	.loc 3 300 19 view .LVU398
.LBB254:
	.loc 3 303 4 view .LVU399
	.loc 3 303 5 view .LVU400
	.loc 3 304 2 view .LVU401
	.loc 3 304 16 is_stmt 0 view .LVU402
	ldr	r3, [r0, #4]
	.loc 3 304 20 view .LVU403
	ldrb	r3, [r3, #5]	@ zero_extendqisi2
.LVL107:
	.loc 3 304 20 view .LVU404
.LBE254:
.LBE253:
	.loc 2 672 6 view .LVU405
	cmp	r3, #0
	beq	.L99
	.loc 2 673 4 is_stmt 1 view .LVU406
.LVL108:
.LBB255:
.LBI255:
	.loc 3 210 20 view .LVU407
.LBB256:
	.loc 3 212 4 view .LVU408
	.loc 3 212 5 view .LVU409
	.loc 3 213 2 view .LVU410
	.loc 3 213 9 is_stmt 0 view .LVU411
	lsls	r3, r4, #4
	ldr	r2, .L107+8
	ldr	r3, [r2, r3]
	.loc 3 213 14 view .LVU412
	ldr	r3, [r3, #20]
	.loc 3 213 2 view .LVU413
	blx	r3
.LVL109:
	.loc 3 214 1 view .LVU414
	b	.L99
.LVL110:
.L106:
	.loc 3 214 1 view .LVU415
.LBE256:
.LBE255:
.LBE248:
	.loc 2 677 2 is_stmt 1 view .LVU416
	.loc 2 683 2 view .LVU417
	.loc 2 683 13 is_stmt 0 view .LVU418
	ldr	r3, .L107
	movs	r2, #1
	strb	r2, [r3]
	.loc 2 684 1 view .LVU419
	pop	{r4, pc}
.LVL111:
.L108:
	.loc 2 684 1 view .LVU420
	.align	2
.L107:
	.word	.LANCHOR3
	.word	__log_backends_end
	.word	__log_backends_start
	.cfi_endproc
.LFE580:
	.size	z_impl_log_panic, .-z_impl_log_panic
	.section	.text.z_log_notify_backend_enabled,"ax",%progbits
	.align	1
	.global	z_log_notify_backend_enabled
	.syntax unified
	.thumb
	.thumb_func
	.fpu fpv4-sp-d16
	.type	z_log_notify_backend_enabled, %function
z_log_notify_backend_enabled:
.LFB586:
	.loc 2 804 1 is_stmt 1 view -0
	.cfi_startproc
	@ args = 0, pretend = 0, frame = 0
	@ frame_needed = 0, uses_anonymous_args = 0
	@ link register save eliminated.
	.loc 2 808 2 view .LVU422
	.loc 2 812 2 view .LVU423
	.loc 2 812 19 is_stmt 0 view .LVU424
	ldr	r3, .L110
	movs	r2, #1
	strb	r2, [r3]
	.loc 2 813 1 view .LVU425
	bx	lr
.L111:
	.align	2
.L110:
	.word	.LANCHOR5
	.cfi_endproc
.LFE586:
	.size	z_log_notify_backend_enabled, .-z_log_notify_backend_enabled
	.section	.text.z_impl_log_buffered_cnt,"ax",%progbits
	.align	1
	.global	z_impl_log_buffered_cnt
	.syntax unified
	.thumb
	.thumb_func
	.fpu fpv4-sp-d16
	.type	z_impl_log_buffered_cnt, %function
z_impl_log_buffered_cnt:
.LFB588:
	.loc 2 847 1 is_stmt 1 view -0
	.cfi_startproc
	@ args = 0, pretend = 0, frame = 0
	@ frame_needed = 0, uses_anonymous_args = 0
	@ link register save eliminated.
	.loc 2 848 2 view .LVU427
	.loc 2 849 1 is_stmt 0 view .LVU428
	ldr	r3, .L113
	ldr	r0, [r3]
	bx	lr
.L114:
	.align	2
.L113:
	.word	.LANCHOR6
	.cfi_endproc
.LFE588:
	.size	z_impl_log_buffered_cnt, .-z_impl_log_buffered_cnt
	.section	.text.z_log_dropped,"ax",%progbits
	.align	1
	.global	z_log_dropped
	.syntax unified
	.thumb
	.thumb_func
	.fpu fpv4-sp-d16
	.type	z_log_dropped, %function
z_log_dropped:
.LVL112:
.LFB589:
	.loc 2 860 1 is_stmt 1 view -0
	.cfi_startproc
	@ args = 0, pretend = 0, frame = 0
	@ frame_needed = 0, uses_anonymous_args = 0
	@ link register save eliminated.
	.loc 2 861 2 view .LVU430
.LBB257:
.LBI257:
	.loc 9 108 28 view .LVU431
.LBE257:
	.loc 9 110 2 view .LVU432
.LBB260:
.LBB258:
.LBI258:
	.loc 9 77 28 view .LVU433
.LBB259:
	.loc 9 79 2 view .LVU434
	.loc 9 79 9 is_stmt 0 view .LVU435
	ldr	r3, .L120
	dmb	ish
.L118:
	ldrex	r2, [r3]
	adds	r2, r2, #1
	strex	r1, r2, [r3]
	cmp	r1, #0
	bne	.L118
	dmb	ish
.LVL113:
	.loc 9 79 9 view .LVU436
.LBE259:
.LBE258:
.LBE260:
	.loc 2 862 2 is_stmt 1 view .LVU437
	.loc 2 862 5 is_stmt 0 view .LVU438
	cbnz	r0, .L119
.L115:
	.loc 2 865 1 view .LVU439
	bx	lr
.L119:
	.loc 2 863 3 is_stmt 1 view .LVU440
.LVL114:
.LBB261:
.LBI261:
	.loc 9 123 28 view .LVU441
.LBB262:
	.loc 9 125 2 view .LVU442
.LBB263:
.LBI263:
	.loc 9 93 28 view .LVU443
.LBB264:
	.loc 9 95 2 view .LVU444
	.loc 9 95 9 is_stmt 0 view .LVU445
	ldr	r3, .L120+4
	dmb	ish
.L117:
	ldrex	r2, [r3]
	subs	r2, r2, #1
	strex	r1, r2, [r3]
	cmp	r1, #0
	bne	.L117
	dmb	ish
.LVL115:
	.loc 9 95 9 view .LVU446
.LBE264:
.LBE263:
.LBE262:
.LBE261:
	.loc 2 865 1 view .LVU447
	b	.L115
.L121:
	.align	2
.L120:
	.word	.LANCHOR4
	.word	.LANCHOR6
	.cfi_endproc
.LFE589:
	.size	z_log_dropped, .-z_log_dropped
	.section	.text.notify_drop,"ax",%progbits
	.align	1
	.syntax unified
	.thumb
	.thumb_func
	.fpu fpv4-sp-d16
	.type	notify_drop, %function
notify_drop:
.LVL116:
.LFB592:
	.loc 2 879 1 is_stmt 1 view -0
	.cfi_startproc
	@ args = 0, pretend = 0, frame = 0
	@ frame_needed = 0, uses_anonymous_args = 0
	.loc 2 879 1 is_stmt 0 view .LVU449
	push	{r3, lr}
	.cfi_def_cfa_offset 8
	.cfi_offset 3, -8
	.cfi_offset 14, -4
	.loc 2 880 2 is_stmt 1 view .LVU450
	.loc 2 881 2 view .LVU451
	.loc 2 883 2 view .LVU452
	movs	r0, #1
.LVL117:
	.loc 2 883 2 is_stmt 0 view .LVU453
	bl	z_log_dropped
.LVL118:
	.loc 2 884 1 view .LVU454
	pop	{r3, pc}
	.cfi_endproc
.LFE592:
	.size	notify_drop, .-notify_drop
	.section	.text.z_log_dropped_read_and_clear,"ax",%progbits
	.align	1
	.global	z_log_dropped_read_and_clear
	.syntax unified
	.thumb
	.thumb_func
	.fpu fpv4-sp-d16
	.type	z_log_dropped_read_and_clear, %function
z_log_dropped_read_and_clear:
.LFB590:
	.loc 2 868 1 is_stmt 1 view -0
	.cfi_startproc
	@ args = 0, pretend = 0, frame = 0
	@ frame_needed = 0, uses_anonymous_args = 0
	@ link register save eliminated.
	.loc 2 869 2 view .LVU456
.LVL119:
.LBB265:
.LBI265:
	.loc 9 170 28 view .LVU457
.LBB266:
	.loc 9 176 2 view .LVU458
	.loc 9 176 9 is_stmt 0 view .LVU459
	ldr	r3, .L126
.LVL120:
	.loc 9 176 9 view .LVU460
.LBE266:
.LBE265:
	.loc 2 870 1 view .LVU461
	movs	r0, #0
	mov	r2, r0
	dmb	ish
.L125:
	ldrex	r0, [r3]
	strex	r1, r2, [r3]
	cmp	r1, #0
	bne	.L125
	dmb	ish
	bx	lr
.L127:
	.align	2
.L126:
	.word	.LANCHOR4
	.cfi_endproc
.LFE590:
	.size	z_log_dropped_read_and_clear, .-z_log_dropped_read_and_clear
	.section	.text.dropped_notify,"ax",%progbits
	.align	1
	.global	dropped_notify
	.syntax unified
	.thumb
	.thumb_func
	.fpu fpv4-sp-d16
	.type	dropped_notify, %function
dropped_notify:
.LFB583:
	.loc 2 764 1 is_stmt 1 view -0
	.cfi_startproc
	@ args = 0, pretend = 0, frame = 0
	@ frame_needed = 0, uses_anonymous_args = 0
	push	{r3, r4, r5, lr}
	.cfi_def_cfa_offset 16
	.cfi_offset 3, -16
	.cfi_offset 4, -12
	.cfi_offset 5, -8
	.cfi_offset 14, -4
	.loc 2 765 2 view .LVU463
	.loc 2 765 21 is_stmt 0 view .LVU464
	bl	z_log_dropped_read_and_clear
.LVL121:
	mov	r5, r0
.LVL122:
	.loc 2 767 2 is_stmt 1 view .LVU465
.LBB267:
	.loc 2 767 7 view .LVU466
	.loc 2 767 11 is_stmt 0 view .LVU467
	movs	r4, #0
	.loc 2 767 2 view .LVU468
	b	.L129
.LVL123:
.L130:
	.loc 2 767 47 is_stmt 1 discriminator 2 view .LVU469
	.loc 2 767 48 is_stmt 0 discriminator 2 view .LVU470
	adds	r4, r4, #1
.LVL124:
.L129:
	.loc 2 767 18 is_stmt 1 discriminator 1 view .LVU471
.LBB268:
.LBI268:
	.loc 3 262 19 discriminator 1 view .LVU472
.LBB269:
	.loc 3 264 2 discriminator 1 view .LVU473
.LBE269:
.LBE268:
	.loc 2 767 2 is_stmt 0 discriminator 1 view .LVU474
	ldr	r3, .L134
	ldr	r2, .L134+4
	subs	r3, r3, r2
	cmp	r4, r3, asr #4
	bge	.L133
.LBB270:
	.loc 2 768 3 is_stmt 1 view .LVU475
.LVL125:
.LBB271:
.LBI271:
	.loc 3 252 41 view .LVU476
.LBB272:
	.loc 3 254 2 view .LVU477
	.loc 3 254 9 is_stmt 0 view .LVU478
	ldr	r0, .L134+4
	add	r0, r0, r4, lsl #4
.LVL126:
	.loc 3 254 9 view .LVU479
.LBE272:
.LBE271:
	.loc 2 770 3 is_stmt 1 view .LVU480
.LBB273:
.LBI273:
	.loc 3 300 19 view .LVU481
.LBB274:
	.loc 3 303 4 view .LVU482
	.loc 3 303 5 view .LVU483
	.loc 3 304 2 view .LVU484
	.loc 3 304 16 is_stmt 0 view .LVU485
	ldr	r3, [r0, #4]
	.loc 3 304 20 view .LVU486
	ldrb	r3, [r3, #5]	@ zero_extendqisi2
.LVL127:
	.loc 3 304 20 view .LVU487
.LBE274:
.LBE273:
	.loc 2 770 6 view .LVU488
	cmp	r3, #0
	beq	.L130
	.loc 2 771 4 is_stmt 1 view .LVU489
.LVL128:
.LBB275:
.LBI275:
	.loc 3 195 20 view .LVU490
.LBB276:
	.loc 3 198 4 view .LVU491
	.loc 3 198 5 view .LVU492
	.loc 3 200 2 view .LVU493
	.loc 3 200 13 is_stmt 0 view .LVU494
	lsls	r3, r4, #4
	ldr	r2, .L134+4
	ldr	r3, [r2, r3]
	.loc 3 200 18 view .LVU495
	ldr	r3, [r3, #16]
	.loc 3 200 5 view .LVU496
	cmp	r3, #0
	beq	.L130
	.loc 3 201 3 is_stmt 1 view .LVU497
	mov	r1, r5
	blx	r3
.LVL129:
	.loc 3 201 3 is_stmt 0 view .LVU498
	b	.L130
.LVL130:
.L133:
	.loc 3 201 3 view .LVU499
.LBE276:
.LBE275:
.LBE270:
.LBE267:
	.loc 2 774 1 view .LVU500
	pop	{r3, r4, r5, pc}
.LVL131:
.L135:
	.loc 2 774 1 view .LVU501
	.align	2
.L134:
	.word	__log_backends_end
	.word	__log_backends_start
	.cfi_endproc
.LFE583:
	.size	dropped_notify, .-dropped_notify
	.section	.text.z_log_dropped_pending,"ax",%progbits
	.align	1
	.global	z_log_dropped_pending
	.syntax unified
	.thumb
	.thumb_func
	.fpu fpv4-sp-d16
	.type	z_log_dropped_pending, %function
z_log_dropped_pending:
.LFB591:
	.loc 2 873 1 is_stmt 1 view -0
	.cfi_startproc
	@ args = 0, pretend = 0, frame = 0
	@ frame_needed = 0, uses_anonymous_args = 0
	@ link register save eliminated.
	.loc 2 874 2 view .LVU503
	.loc 2 874 21 is_stmt 0 view .LVU504
	ldr	r3, .L137
	ldr	r0, [r3]
	.loc 2 875 1 view .LVU505
	cmp	r0, #0
	ite	le
	movle	r0, #0
	movgt	r0, #1
	bx	lr
.L138:
	.align	2
.L137:
	.word	.LANCHOR4
	.cfi_endproc
.LFE591:
	.size	z_log_dropped_pending, .-z_log_dropped_pending
	.section	.text.z_log_strdup,"ax",%progbits
	.align	1
	.global	z_log_strdup
	.syntax unified
	.thumb
	.thumb_func
	.fpu fpv4-sp-d16
	.type	z_log_strdup, %function
z_log_strdup:
.LVL132:
.LFB593:
	.loc 2 888 1 is_stmt 1 view -0
	.cfi_startproc
	@ args = 0, pretend = 0, frame = 0
	@ frame_needed = 0, uses_anonymous_args = 0
	@ link register save eliminated.
	.loc 2 889 2 view .LVU507
	.loc 2 890 2 view .LVU508
	.loc 2 892 2 view .LVU509
	.loc 2 894 3 view .LVU510
	.loc 2 923 1 is_stmt 0 view .LVU511
	bx	lr
	.cfi_endproc
.LFE593:
	.size	z_log_strdup, .-z_log_strdup
	.section	.text.log_get_strdup_pool_current_utilization,"ax",%progbits
	.align	1
	.global	log_get_strdup_pool_current_utilization
	.syntax unified
	.thumb
	.thumb_func
	.fpu fpv4-sp-d16
	.type	log_get_strdup_pool_current_utilization, %function
log_get_strdup_pool_current_utilization:
.LFB594:
	.loc 2 926 1 is_stmt 1 view -0
	.cfi_startproc
	@ args = 0, pretend = 0, frame = 0
	@ frame_needed = 0, uses_anonymous_args = 0
	@ link register save eliminated.
	.loc 2 927 2 view .LVU513
	.loc 2 930 1 is_stmt 0 view .LVU514
	movs	r0, #0
	bx	lr
	.cfi_endproc
.LFE594:
	.size	log_get_strdup_pool_current_utilization, .-log_get_strdup_pool_current_utilization
	.section	.text.log_get_strdup_pool_utilization,"ax",%progbits
	.align	1
	.global	log_get_strdup_pool_utilization
	.syntax unified
	.thumb
	.thumb_func
	.fpu fpv4-sp-d16
	.type	log_get_strdup_pool_utilization, %function
log_get_strdup_pool_utilization:
.LFB595:
	.loc 2 933 1 is_stmt 1 view -0
	.cfi_startproc
	@ args = 0, pretend = 0, frame = 0
	@ frame_needed = 0, uses_anonymous_args = 0
	@ link register save eliminated.
	.loc 2 934 2 view .LVU516
	.loc 2 936 1 is_stmt 0 view .LVU517
	movs	r0, #0
	bx	lr
	.cfi_endproc
.LFE595:
	.size	log_get_strdup_pool_utilization, .-log_get_strdup_pool_utilization
	.section	.text.log_get_strdup_longest_string,"ax",%progbits
	.align	1
	.global	log_get_strdup_longest_string
	.syntax unified
	.thumb
	.thumb_func
	.fpu fpv4-sp-d16
	.type	log_get_strdup_longest_string, %function
log_get_strdup_longest_string:
.LFB596:
	.loc 2 939 1 is_stmt 1 view -0
	.cfi_startproc
	@ args = 0, pretend = 0, frame = 0
	@ frame_needed = 0, uses_anonymous_args = 0
	@ link register save eliminated.
	.loc 2 940 2 view .LVU519
	.loc 2 942 1 is_stmt 0 view .LVU520
	movs	r0, #0
	bx	lr
	.cfi_endproc
.LFE596:
	.size	log_get_strdup_longest_string, .-log_get_strdup_longest_string
	.section	.text.log_is_strdup,"ax",%progbits
	.align	1
	.global	log_is_strdup
	.syntax unified
	.thumb
	.thumb_func
	.fpu fpv4-sp-d16
	.type	log_is_strdup, %function
log_is_strdup:
.LVL133:
.LFB597:
	.loc 2 945 1 is_stmt 1 view -0
	.cfi_startproc
	@ args = 0, pretend = 0, frame = 0
	@ frame_needed = 0, uses_anonymous_args = 0
	@ link register save eliminated.
	.loc 2 946 2 view .LVU522
	.loc 2 948 1 is_stmt 0 view .LVU523
	movs	r0, #0
.LVL134:
	.loc 2 948 1 view .LVU524
	bx	lr
	.cfi_endproc
.LFE597:
	.size	log_is_strdup, .-log_is_strdup
	.section	.text.z_log_free,"ax",%progbits
	.align	1
	.global	z_log_free
	.syntax unified
	.thumb
	.thumb_func
	.fpu fpv4-sp-d16
	.type	z_log_free, %function
z_log_free:
.LVL135:
.LFB598:
	.loc 2 951 1 is_stmt 1 view -0
	.cfi_startproc
	@ args = 0, pretend = 0, frame = 8
	@ frame_needed = 0, uses_anonymous_args = 0
	.loc 2 951 1 is_stmt 0 view .LVU526
	push	{lr}
	.cfi_def_cfa_offset 4
	.cfi_offset 14, -4
	sub	sp, sp, #12
	.cfi_def_cfa_offset 16
	.loc 2 952 2 is_stmt 1 view .LVU527
	.loc 2 952 32 is_stmt 0 view .LVU528
	subs	r0, r0, #4
.LVL136:
	.loc 2 952 25 view .LVU529
	str	r0, [sp, #4]
	.loc 2 955 2 is_stmt 1 view .LVU530
.LVL137:
.LBB277:
.LBI277:
	.loc 9 123 28 view .LVU531
.LBE277:
	.loc 9 125 2 view .LVU532
.LBB280:
.LBB278:
.LBI278:
	.loc 9 93 28 view .LVU533
.LBB279:
	.loc 9 95 2 view .LVU534
	.loc 9 95 9 is_stmt 0 view .LVU535
	dmb	ish
.L146:
	ldrex	r3, [r0]
	subs	r2, r3, #1
	strex	r1, r2, [r0]
	cmp	r1, #0
	bne	.L146
	dmb	ish
.LVL138:
	.loc 9 95 9 view .LVU536
.LBE279:
.LBE278:
.LBE280:
	.loc 2 955 5 view .LVU537
	cmp	r3, #1
	beq	.L148
.LVL139:
.L144:
	.loc 2 961 1 view .LVU538
	add	sp, sp, #12
	.cfi_remember_state
	.cfi_def_cfa_offset 4
	@ sp needed
	ldr	pc, [sp], #4
.L148:
	.cfi_restore_state
	.loc 2 956 3 is_stmt 1 view .LVU539
	add	r1, sp, #4
	ldr	r0, .L149
	bl	k_mem_slab_free
.LVL140:
	.loc 2 957 3 view .LVU540
	.loc 2 961 1 is_stmt 0 view .LVU541
	b	.L144
.L150:
	.align	2
.L149:
	.word	.LANCHOR7
	.cfi_endproc
.LFE598:
	.size	z_log_free, .-z_log_free
	.section	.text.z_impl_z_log_string_from_user,"ax",%progbits
	.align	1
	.global	z_impl_z_log_string_from_user
	.syntax unified
	.thumb
	.thumb_func
	.fpu fpv4-sp-d16
	.type	z_impl_z_log_string_from_user, %function
z_impl_z_log_string_from_user:
.LVL141:
.LFB599:
	.loc 2 1139 1 is_stmt 1 view -0
	.cfi_startproc
	@ args = 0, pretend = 0, frame = 0
	@ frame_needed = 0, uses_anonymous_args = 0
	@ link register save eliminated.
	.loc 2 1140 2 view .LVU543
	.loc 2 1141 2 view .LVU544
	.loc 2 1143 4 view .LVU545
	.loc 2 1143 5 view .LVU546
	.loc 2 1144 1 is_stmt 0 view .LVU547
	bx	lr
	.cfi_endproc
.LFE599:
	.size	z_impl_z_log_string_from_user, .-z_impl_z_log_string_from_user
	.section	.text.z_vrfy_z_log_hexdump_from_user,"ax",%progbits
	.align	1
	.global	z_vrfy_z_log_hexdump_from_user
	.syntax unified
	.thumb
	.thumb_func
	.fpu fpv4-sp-d16
	.type	z_vrfy_z_log_hexdump_from_user, %function
z_vrfy_z_log_hexdump_from_user:
.LVL142:
.LFB600:
	.loc 2 1148 1 is_stmt 1 view -0
	.cfi_startproc
	@ args = 0, pretend = 0, frame = 0
	@ frame_needed = 0, uses_anonymous_args = 0
	@ link register save eliminated.
	.loc 2 1149 2 view .LVU549
	.loc 2 1150 2 view .LVU550
	.loc 2 1151 2 view .LVU551
	.loc 2 1152 2 view .LVU552
	.loc 2 1154 4 view .LVU553
	.loc 2 1154 5 view .LVU554
	.loc 2 1155 1 is_stmt 0 view .LVU555
	bx	lr
	.cfi_endproc
.LFE600:
	.size	z_vrfy_z_log_hexdump_from_user, .-z_vrfy_z_log_hexdump_from_user
	.section	.text.log_from_user,"ax",%progbits
	.align	1
	.global	log_from_user
	.syntax unified
	.thumb
	.thumb_func
	.fpu fpv4-sp-d16
	.type	log_from_user, %function
log_from_user:
.LVL143:
.LFB601:
	.loc 2 1158 1 is_stmt 1 view -0
	.cfi_startproc
	@ args = 4, pretend = 12, frame = 0
	@ frame_needed = 0, uses_anonymous_args = 1
	@ link register save eliminated.
	.loc 2 1158 1 is_stmt 0 view .LVU557
	push	{r1, r2, r3}
	.cfi_def_cfa_offset 12
	.cfi_offset 1, -12
	.cfi_offset 2, -8
	.cfi_offset 3, -4
	.loc 2 1159 2 is_stmt 1 view .LVU558
	.loc 2 1160 2 view .LVU559
	.loc 2 1162 4 view .LVU560
	.loc 2 1162 5 view .LVU561
	.loc 2 1163 1 is_stmt 0 view .LVU562
	add	sp, sp, #12
	.cfi_restore 3
	.cfi_restore 2
	.cfi_restore 1
	.cfi_def_cfa_offset 0
	bx	lr
	.cfi_endproc
.LFE601:
	.size	log_from_user, .-log_from_user
	.section	.text.log_generic_from_user,"ax",%progbits
	.align	1
	.global	log_generic_from_user
	.syntax unified
	.thumb
	.thumb_func
	.fpu fpv4-sp-d16
	.type	log_generic_from_user, %function
log_generic_from_user:
.LVL144:
.LFB602:
	.loc 2 1167 1 is_stmt 1 view -0
	.cfi_startproc
	@ args = 0, pretend = 0, frame = 0
	@ frame_needed = 0, uses_anonymous_args = 0
	@ link register save eliminated.
	.loc 2 1168 2 view .LVU564
	.loc 2 1169 2 view .LVU565
	.loc 2 1170 2 view .LVU566
	.loc 2 1172 4 view .LVU567
	.loc 2 1172 5 view .LVU568
	.loc 2 1173 1 is_stmt 0 view .LVU569
	bx	lr
	.cfi_endproc
.LFE602:
	.size	log_generic_from_user, .-log_generic_from_user
	.section	.text.log_hexdump_from_user,"ax",%progbits
	.align	1
	.global	log_hexdump_from_user
	.syntax unified
	.thumb
	.thumb_func
	.fpu fpv4-sp-d16
	.type	log_hexdump_from_user, %function
log_hexdump_from_user:
.LVL145:
.LFB603:
	.loc 2 1177 1 is_stmt 1 view -0
	.cfi_startproc
	@ args = 0, pretend = 0, frame = 0
	@ frame_needed = 0, uses_anonymous_args = 0
	@ link register save eliminated.
	.loc 2 1178 2 view .LVU571
	.loc 2 1179 2 view .LVU572
	.loc 2 1180 2 view .LVU573
	.loc 2 1181 2 view .LVU574
	.loc 2 1183 4 view .LVU575
	.loc 2 1183 5 view .LVU576
	.loc 2 1184 1 is_stmt 0 view .LVU577
	bx	lr
	.cfi_endproc
.LFE603:
	.size	log_hexdump_from_user, .-log_hexdump_from_user
	.section	.text.z_log_msg2_init,"ax",%progbits
	.align	1
	.global	z_log_msg2_init
	.syntax unified
	.thumb
	.thumb_func
	.fpu fpv4-sp-d16
	.type	z_log_msg2_init, %function
z_log_msg2_init:
.LFB604:
	.loc 2 1189 1 is_stmt 1 view -0
	.cfi_startproc
	@ args = 0, pretend = 0, frame = 0
	@ frame_needed = 0, uses_anonymous_args = 0
	push	{r3, lr}
	.cfi_def_cfa_offset 8
	.cfi_offset 3, -8
	.cfi_offset 14, -4
	.loc 2 1190 2 view .LVU579
	ldr	r1, .L159
	ldr	r0, .L159+4
	bl	mpsc_pbuf_init
.LVL146:
	.loc 2 1191 1 is_stmt 0 view .LVU580
	pop	{r3, pc}
.L160:
	.align	2
.L159:
	.word	.LANCHOR8
	.word	.LANCHOR9
	.cfi_endproc
.LFE604:
	.size	z_log_msg2_init, .-z_log_msg2_init
	.section	.text.z_log_msg2_alloc,"ax",%progbits
	.align	1
	.global	z_log_msg2_alloc
	.syntax unified
	.thumb
	.thumb_func
	.fpu fpv4-sp-d16
	.type	z_log_msg2_alloc, %function
z_log_msg2_alloc:
.LVL147:
.LFB605:
	.loc 2 1194 1 is_stmt 1 view -0
	.cfi_startproc
	@ args = 0, pretend = 0, frame = 0
	@ frame_needed = 0, uses_anonymous_args = 0
	.loc 2 1194 1 is_stmt 0 view .LVU582
	push	{r3, lr}
	.cfi_def_cfa_offset 8
	.cfi_offset 3, -8
	.cfi_offset 14, -4
	mov	r1, r0
	.loc 2 1195 2 is_stmt 1 view .LVU583
.LVL148:
	.loc 6 405 2 view .LVU584
	.loc 6 106 1 view .LVU585
	.loc 6 108 1 view .LVU586
	.loc 6 111 2 view .LVU587
	.loc 6 115 2 view .LVU588
	.loc 6 117 2 view .LVU589
	.loc 6 133 2 view .LVU590
	.loc 6 140 9 view .LVU591
	.loc 6 141 3 view .LVU592
	.loc 6 144 4 view .LVU593
	.loc 2 1195 28 is_stmt 0 view .LVU594
	movs	r2, #0
	movs	r3, #0
	ldr	r0, .L163
.LVL149:
	.loc 2 1195 28 view .LVU595
	bl	mpsc_pbuf_alloc
.LVL150:
	.loc 2 1197 1 view .LVU596
	pop	{r3, pc}
.L164:
	.align	2
.L163:
	.word	.LANCHOR9
	.cfi_endproc
.LFE605:
	.size	z_log_msg2_alloc, .-z_log_msg2_alloc
	.section	.text.z_log_msg2_commit,"ax",%progbits
	.align	1
	.global	z_log_msg2_commit
	.syntax unified
	.thumb
	.thumb_func
	.fpu fpv4-sp-d16
	.type	z_log_msg2_commit, %function
z_log_msg2_commit:
.LVL151:
.LFB606:
	.loc 2 1200 1 is_stmt 1 view -0
	.cfi_startproc
	@ args = 0, pretend = 0, frame = 0
	@ frame_needed = 0, uses_anonymous_args = 0
	.loc 2 1200 1 is_stmt 0 view .LVU598
	push	{r4, lr}
	.cfi_def_cfa_offset 8
	.cfi_offset 4, -8
	.cfi_offset 14, -4
	mov	r4, r0
	.loc 2 1201 2 is_stmt 1 view .LVU599
	.loc 2 1201 23 is_stmt 0 view .LVU600
	ldr	r3, .L167
	ldr	r3, [r3]
	blx	r3
.LVL152:
	.loc 2 1201 21 view .LVU601
	str	r0, [r4, #8]
	.loc 2 1203 2 is_stmt 1 view .LVU602
.LBB281:
	.loc 2 1204 3 view .LVU603
	.loc 2 1208 3 view .LVU604
	movs	r1, #0
	mov	r0, r4
	bl	msg_process
.LVL153:
	.loc 2 1210 3 view .LVU605
.LBE281:
	.loc 2 1215 1 is_stmt 0 view .LVU606
	pop	{r4, pc}
.LVL154:
.L168:
	.loc 2 1215 1 view .LVU607
	.align	2
.L167:
	.word	.LANCHOR1
	.cfi_endproc
.LFE606:
	.size	z_log_msg2_commit, .-z_log_msg2_commit
	.section	.text.z_log_msg2_claim,"ax",%progbits
	.align	1
	.global	z_log_msg2_claim
	.syntax unified
	.thumb
	.thumb_func
	.fpu fpv4-sp-d16
	.type	z_log_msg2_claim, %function
z_log_msg2_claim:
.LFB607:
	.loc 2 1218 1 is_stmt 1 view -0
	.cfi_startproc
	@ args = 0, pretend = 0, frame = 0
	@ frame_needed = 0, uses_anonymous_args = 0
	push	{r3, lr}
	.cfi_def_cfa_offset 8
	.cfi_offset 3, -8
	.cfi_offset 14, -4
	.loc 2 1219 2 view .LVU609
	.loc 2 1219 35 is_stmt 0 view .LVU610
	ldr	r0, .L171
	bl	mpsc_pbuf_claim
.LVL155:
	.loc 2 1220 1 view .LVU611
	pop	{r3, pc}
.L172:
	.align	2
.L171:
	.word	.LANCHOR9
	.cfi_endproc
.LFE607:
	.size	z_log_msg2_claim, .-z_log_msg2_claim
	.section	.text.get_msg,"ax",%progbits
	.align	1
	.global	get_msg
	.syntax unified
	.thumb
	.thumb_func
	.fpu fpv4-sp-d16
	.type	get_msg, %function
get_msg:
.LFB584:
	.loc 2 777 1 is_stmt 1 view -0
	.cfi_startproc
	@ args = 0, pretend = 0, frame = 0
	@ frame_needed = 0, uses_anonymous_args = 0
	push	{r3, lr}
	.cfi_def_cfa_offset 8
	.cfi_offset 3, -8
	.cfi_offset 14, -4
	.loc 2 778 2 view .LVU613
	.loc 2 780 2 view .LVU614
	.loc 2 781 3 view .LVU615
	.loc 2 781 14 is_stmt 0 view .LVU616
	bl	z_log_msg2_claim
.LVL156:
	.loc 2 783 3 is_stmt 1 view .LVU617
	.loc 2 792 1 is_stmt 0 view .LVU618
	pop	{r3, pc}
	.cfi_endproc
.LFE584:
	.size	get_msg, .-get_msg
	.section	.text.z_log_msg2_free,"ax",%progbits
	.align	1
	.global	z_log_msg2_free
	.syntax unified
	.thumb
	.thumb_func
	.fpu fpv4-sp-d16
	.type	z_log_msg2_free, %function
z_log_msg2_free:
.LVL157:
.LFB608:
	.loc 2 1223 1 is_stmt 1 view -0
	.cfi_startproc
	@ args = 0, pretend = 0, frame = 0
	@ frame_needed = 0, uses_anonymous_args = 0
	.loc 2 1223 1 is_stmt 0 view .LVU620
	push	{r3, lr}
	.cfi_def_cfa_offset 8
	.cfi_offset 3, -8
	.cfi_offset 14, -4
	mov	r1, r0
	.loc 2 1224 2 is_stmt 1 view .LVU621
	ldr	r0, .L177
.LVL158:
	.loc 2 1224 2 is_stmt 0 view .LVU622
	bl	mpsc_pbuf_free
.LVL159:
	.loc 2 1225 1 view .LVU623
	pop	{r3, pc}
.L178:
	.align	2
.L177:
	.word	.LANCHOR9
	.cfi_endproc
.LFE608:
	.size	z_log_msg2_free, .-z_log_msg2_free
	.section	.text.z_log_msg2_pending,"ax",%progbits
	.align	1
	.global	z_log_msg2_pending
	.syntax unified
	.thumb
	.thumb_func
	.fpu fpv4-sp-d16
	.type	z_log_msg2_pending, %function
z_log_msg2_pending:
.LFB609:
	.loc 2 1229 1 is_stmt 1 view -0
	.cfi_startproc
	@ args = 0, pretend = 0, frame = 0
	@ frame_needed = 0, uses_anonymous_args = 0
	push	{r3, lr}
	.cfi_def_cfa_offset 8
	.cfi_offset 3, -8
	.cfi_offset 14, -4
	.loc 2 1230 2 view .LVU625
	.loc 2 1230 9 is_stmt 0 view .LVU626
	ldr	r0, .L181
	bl	mpsc_pbuf_is_pending
.LVL160:
	.loc 2 1231 1 view .LVU627
	pop	{r3, pc}
.L182:
	.align	2
.L181:
	.word	.LANCHOR9
	.cfi_endproc
.LFE609:
	.size	z_log_msg2_pending, .-z_log_msg2_pending
	.section	.text.next_pending,"ax",%progbits
	.align	1
	.syntax unified
	.thumb
	.thumb_func
	.fpu fpv4-sp-d16
	.type	next_pending, %function
next_pending:
.LFB585:
	.loc 2 795 1 is_stmt 1 view -0
	.cfi_startproc
	@ args = 0, pretend = 0, frame = 0
	@ frame_needed = 0, uses_anonymous_args = 0
	push	{r3, lr}
	.cfi_def_cfa_offset 8
	.cfi_offset 3, -8
	.cfi_offset 14, -4
	.loc 2 796 2 view .LVU629
	.loc 2 797 3 view .LVU630
	.loc 2 797 10 is_stmt 0 view .LVU631
	bl	z_log_msg2_pending
.LVL161:
	.loc 2 801 1 view .LVU632
	pop	{r3, pc}
	.cfi_endproc
.LFE585:
	.size	next_pending, .-next_pending
	.section	.text.z_impl_log_process,"ax",%progbits
	.align	1
	.global	z_impl_log_process
	.syntax unified
	.thumb
	.thumb_func
	.fpu fpv4-sp-d16
	.type	z_impl_log_process, %function
z_impl_log_process:
.LVL162:
.LFB587:
	.loc 2 816 1 is_stmt 1 view -0
	.cfi_startproc
	@ args = 0, pretend = 0, frame = 0
	@ frame_needed = 0, uses_anonymous_args = 0
	.loc 2 816 1 is_stmt 0 view .LVU634
	push	{r4, lr}
	.cfi_def_cfa_offset 8
	.cfi_offset 4, -8
	.cfi_offset 14, -4
	mov	r4, r0
	.loc 2 817 2 is_stmt 1 view .LVU635
	.loc 2 819 2 view .LVU636
	.loc 2 819 6 is_stmt 0 view .LVU637
	ldr	r3, .L195
	ldrb	r3, [r3]	@ zero_extendqisi2
	.loc 2 819 5 view .LVU638
	cbnz	r3, .L186
	.loc 2 819 24 discriminator 1 view .LVU639
	cbz	r0, .L187
.L186:
	.loc 2 823 2 is_stmt 1 view .LVU640
	.loc 2 823 8 is_stmt 0 view .LVU641
	bl	get_msg
.LVL163:
	.loc 2 824 2 is_stmt 1 view .LVU642
	.loc 2 824 5 is_stmt 0 view .LVU643
	mov	r3, r0
.LVL164:
	.loc 2 824 5 view .LVU644
	cbz	r0, .L188
	.loc 2 825 3 is_stmt 1 view .LVU645
	.loc 2 825 6 is_stmt 0 view .LVU646
	cbnz	r4, .L189
	.loc 2 826 4 is_stmt 1 view .LVU647
.LVL165:
.LBB282:
.LBI282:
	.loc 9 123 28 view .LVU648
.LBB283:
	.loc 9 125 2 view .LVU649
.LBB284:
.LBI284:
	.loc 9 93 28 view .LVU650
.LBB285:
	.loc 9 95 2 view .LVU651
	.loc 9 95 9 is_stmt 0 view .LVU652
	ldr	r2, .L195+4
	dmb	ish
.L192:
	ldrex	r1, [r2]
	subs	r1, r1, #1
	strex	r0, r1, [r2]
	cmp	r0, #0
	bne	.L192
	dmb	ish
.LVL166:
.L189:
	.loc 9 95 9 view .LVU653
.LBE285:
.LBE284:
.LBE283:
.LBE282:
	.loc 2 828 3 is_stmt 1 view .LVU654
	mov	r1, r4
.LVL167:
	.loc 2 828 3 is_stmt 0 view .LVU655
	mov	r0, r3
	bl	msg_process
.LVL168:
.L188:
	.loc 2 831 2 is_stmt 1 view .LVU656
	.loc 2 831 5 is_stmt 0 view .LVU657
	cbnz	r4, .L190
	.loc 2 831 17 discriminator 1 view .LVU658
	bl	z_log_dropped_pending
.LVL169:
	.loc 2 831 14 discriminator 1 view .LVU659
	cbnz	r0, .L194
.L190:
	.loc 2 835 2 is_stmt 1 view .LVU660
	.loc 2 835 9 is_stmt 0 view .LVU661
	bl	next_pending
.LVL170:
.L187:
	.loc 2 836 1 view .LVU662
	pop	{r4, pc}
.L194:
	.loc 2 832 3 is_stmt 1 view .LVU663
	bl	dropped_notify
.LVL171:
	b	.L190
.L196:
	.align	2
.L195:
	.word	.LANCHOR5
	.word	.LANCHOR6
	.cfi_endproc
.LFE587:
	.size	z_impl_log_process, .-z_impl_log_process
	.section	.text.z_log_msg_post_finalize,"ax",%progbits
	.align	1
	.syntax unified
	.thumb
	.thumb_func
	.fpu fpv4-sp-d16
	.type	z_log_msg_post_finalize, %function
z_log_msg_post_finalize:
.LFB560:
	.loc 2 228 1 view -0
	.cfi_startproc
	@ args = 0, pretend = 0, frame = 0
	@ frame_needed = 0, uses_anonymous_args = 0
	push	{r4, lr}
	.cfi_def_cfa_offset 8
	.cfi_offset 4, -8
	.cfi_offset 14, -4
	sub	sp, sp, #8
	.cfi_def_cfa_offset 16
	.loc 2 229 2 view .LVU665
.LVL172:
.LBB286:
.LBI286:
	.loc 9 108 28 view .LVU666
.LBE286:
	.loc 9 110 2 view .LVU667
.LBB289:
.LBB287:
.LBI287:
	.loc 9 77 28 view .LVU668
.LBB288:
	.loc 9 79 2 view .LVU669
	.loc 9 79 9 is_stmt 0 view .LVU670
	ldr	r3, .L203
	dmb	ish
.L200:
	ldrex	r2, [r3]
	adds	r1, r2, #1
	strex	r0, r1, [r3]
	cmp	r0, #0
	bne	.L200
	dmb	ish
.LVL173:
	.loc 9 79 9 view .LVU671
.LBE288:
.LBE287:
.LBE289:
	.loc 2 231 2 is_stmt 1 view .LVU672
	.loc 2 231 6 is_stmt 0 view .LVU673
	ldr	r3, .L203+4
	ldrb	r3, [r3]	@ zero_extendqisi2
	.loc 2 231 5 view .LVU674
	cbnz	r3, .L202
	.loc 2 235 9 is_stmt 1 view .LVU675
	.loc 2 235 22 is_stmt 0 view .LVU676
	ldr	r3, .L203+8
	ldr	r3, [r3]
	.loc 2 235 12 view .LVU677
	cbz	r3, .L197
	.loc 2 235 29 discriminator 1 view .LVU678
	cbnz	r2, .L197
.LBB290:
	.loc 2 236 3 is_stmt 1 view .LVU679
.LVL174:
	.loc 2 236 3 is_stmt 0 view .LVU680
.LBE290:
	.loc 6 405 2 is_stmt 1 view .LVU681
	.loc 6 106 1 view .LVU682
	.loc 6 108 1 view .LVU683
	.loc 6 111 2 view .LVU684
	.loc 6 115 2 view .LVU685
	.loc 6 117 2 view .LVU686
	.loc 6 133 2 view .LVU687
	.loc 6 140 9 view .LVU688
	.loc 6 141 3 view .LVU689
	.loc 6 144 4 view .LVU690
.LBB293:
	.loc 2 237 19 is_stmt 0 view .LVU691
	movs	r2, #0
.LVL175:
	.loc 2 237 19 view .LVU692
	movs	r3, #0
.LVL176:
.LBB291:
.LBI291:
	.loc 5 427 20 is_stmt 1 view .LVU693
.LBB292:
	.loc 5 440 2 view .LVU694
	.loc 5 440 7 view .LVU695
	.loc 5 440 55 view .LVU696
	.loc 5 441 2 view .LVU697
	strd	r2, [sp]
	ldr	r0, .L203+12
	bl	z_impl_k_timer_start
.LVL177:
	.loc 5 441 2 is_stmt 0 view .LVU698
.LBE292:
.LBE291:
.LBE293:
	.loc 2 249 3 is_stmt 1 view .LVU699
	.loc 2 251 1 is_stmt 0 view .LVU700
	b	.L197
.LVL178:
.L202:
.LBB294:
	.loc 2 232 3 is_stmt 1 view .LVU701
.LBB295:
.LBI295:
	.file 10 "/home/sebin/thesis/zephyrproject/zephyr/include/arch/arm/aarch32/asm_inline_gcc.h"
	.loc 10 43 59 view .LVU702
.LBB296:
	.loc 10 45 2 view .LVU703
	.loc 10 54 2 view .LVU704
	.loc 10 56 2 view .LVU705
	.syntax unified
@ 56 "/home/sebin/thesis/zephyrproject/zephyr/include/arch/arm/aarch32/asm_inline_gcc.h" 1
	mov r3, #4;mrs r4, BASEPRI;msr BASEPRI_MAX, r3;isb;
@ 0 "" 2
.LVL179:
	.loc 10 76 2 view .LVU706
	.loc 10 76 2 is_stmt 0 view .LVU707
	.thumb
	.syntax unified
.LBE296:
.LBE295:
	.loc 2 233 3 is_stmt 1 view .LVU708
.LBB297:
.LBI297:
	.file 11 "/home/sebin/thesis/dmz/zephyr_xmc_template/build/zephyr/include/generated/syscalls/log_ctrl.h"
	.loc 11 59 19 view .LVU709
.LBB298:
	.loc 11 67 2 view .LVU710
	.loc 11 67 7 view .LVU711
	.loc 11 67 55 view .LVU712
	.loc 11 68 2 view .LVU713
	.loc 11 68 9 is_stmt 0 view .LVU714
	movs	r0, #0
	bl	z_impl_log_process
.LVL180:
	.loc 11 68 9 view .LVU715
.LBE298:
.LBE297:
	.loc 2 234 3 is_stmt 1 view .LVU716
.LBB299:
.LBI299:
	.loc 10 84 51 view .LVU717
.LBB300:
	.loc 10 95 2 view .LVU718
	.syntax unified
@ 95 "/home/sebin/thesis/zephyrproject/zephyr/include/arch/arm/aarch32/asm_inline_gcc.h" 1
	msr BASEPRI, r4;isb;
@ 0 "" 2
.LVL181:
	.thumb
	.syntax unified
.L197:
	.loc 10 95 2 is_stmt 0 view .LVU719
.LBE300:
.LBE299:
.LBE294:
	.loc 2 251 1 view .LVU720
	add	sp, sp, #8
	.cfi_def_cfa_offset 8
	@ sp needed
	pop	{r4, pc}
.L204:
	.align	2
.L203:
	.word	.LANCHOR6
	.word	.LANCHOR3
	.word	.LANCHOR0
	.word	.LANCHOR10
	.cfi_endproc
.LFE560:
	.size	z_log_msg_post_finalize, .-z_log_msg_post_finalize
	.section	.text.log_0,"ax",%progbits
	.align	1
	.global	log_0
	.syntax unified
	.thumb
	.thumb_func
	.fpu fpv4-sp-d16
	.type	log_0, %function
log_0:
.LVL182:
.LFB562:
	.loc 2 271 1 is_stmt 1 view -0
	.cfi_startproc
	@ args = 0, pretend = 0, frame = 0
	@ frame_needed = 0, uses_anonymous_args = 0
	.loc 2 271 1 is_stmt 0 view .LVU722
	push	{r4, r5, r6, lr}
	.cfi_def_cfa_offset 16
	.cfi_offset 4, -16
	.cfi_offset 5, -12
	.cfi_offset 6, -8
	.cfi_offset 14, -4
	mov	r5, r0
	mov	r6, r1	@ movhi
.LVL183:
	.loc 2 272 2 is_stmt 1 view .LVU723
.LBB312:
	.loc 2 275 3 view .LVU724
.LBB313:
.LBI313:
	.file 12 "/home/sebin/thesis/zephyrproject/zephyr/include/logging/log_msg.h"
	.loc 12 351 31 view .LVU725
.LBB314:
	.loc 12 353 2 view .LVU726
.LBB315:
.LBI315:
	.loc 12 322 31 view .LVU727
.LBB316:
	.loc 12 324 2 view .LVU728
	.loc 12 324 42 is_stmt 0 view .LVU729
	bl	log_msg_chunk_alloc
.LVL184:
	.loc 12 326 2 is_stmt 1 view .LVU730
	.loc 12 326 5 is_stmt 0 view .LVU731
	mov	r4, r0
	cbz	r0, .L206
	.loc 12 328 3 is_stmt 1 view .LVU732
	.loc 12 328 20 is_stmt 0 view .LVU733
	movs	r3, #1
	str	r3, [r0, #4]
	.loc 12 329 3 is_stmt 1 view .LVU734
	.loc 12 329 23 is_stmt 0 view .LVU735
	movs	r2, #0
	strh	r2, [r0, #8]	@ movhi
	.loc 12 330 3 is_stmt 1 view .LVU736
	.loc 12 330 28 is_stmt 0 view .LVU737
	mov	r3, #0
	bfi	r3, r2, #0, #1
	strb	r3, [r0, #8]
	.loc 12 332 3 is_stmt 1 view .LVU738
.L206:
	.loc 12 340 2 view .LVU739
.LVL185:
	.loc 12 340 2 is_stmt 0 view .LVU740
.LBE316:
.LBE315:
	.loc 12 355 2 is_stmt 1 view .LVU741
	.loc 12 355 5 is_stmt 0 view .LVU742
	cbz	r4, .L207
	.loc 12 356 3 is_stmt 1 view .LVU743
	.loc 12 356 12 is_stmt 0 view .LVU744
	str	r5, [r4, #16]
.L207:
	.loc 12 359 2 is_stmt 1 view .LVU745
.LVL186:
	.loc 12 359 2 is_stmt 0 view .LVU746
.LBE314:
.LBE313:
	.loc 2 277 3 is_stmt 1 view .LVU747
	.loc 2 277 6 is_stmt 0 view .LVU748
	cbz	r4, .L205
	.loc 2 280 3 is_stmt 1 view .LVU749
.LVL187:
.LBB317:
.LBI317:
	.loc 2 253 20 view .LVU750
.LBB318:
	.loc 2 256 2 view .LVU751
	.loc 2 258 2 view .LVU752
	.loc 2 258 15 is_stmt 0 view .LVU753
	strh	r6, [r4, #10]	@ movhi
	.loc 2 259 2 is_stmt 1 view .LVU754
	.loc 2 259 23 is_stmt 0 view .LVU755
	ldr	r3, .L210
	ldr	r3, [r3]
	blx	r3
.LVL188:
	.loc 2 259 21 view .LVU756
	str	r0, [r4, #12]
	.loc 2 261 2 is_stmt 1 view .LVU757
.LBB319:
.LBI319:
	.loc 10 43 59 view .LVU758
.LBB320:
	.loc 10 45 2 view .LVU759
	.loc 10 54 2 view .LVU760
	.loc 10 56 2 view .LVU761
	.syntax unified
@ 56 "/home/sebin/thesis/zephyrproject/zephyr/include/arch/arm/aarch32/asm_inline_gcc.h" 1
	mov r3, #4;mrs r5, BASEPRI;msr BASEPRI_MAX, r3;isb;
@ 0 "" 2
.LVL189:
	.loc 10 76 2 view .LVU762
	.loc 10 76 2 is_stmt 0 view .LVU763
	.thumb
	.syntax unified
.LBE320:
.LBE319:
	.loc 2 263 2 is_stmt 1 view .LVU764
	mov	r1, r4
	ldr	r0, .L210+4
	bl	log_list_add_tail
.LVL190:
	.loc 2 265 2 view .LVU765
.LBB321:
.LBI321:
	.loc 10 84 51 view .LVU766
.LBB322:
	.loc 10 95 2 view .LVU767
	.syntax unified
@ 95 "/home/sebin/thesis/zephyrproject/zephyr/include/arch/arm/aarch32/asm_inline_gcc.h" 1
	msr BASEPRI, r5;isb;
@ 0 "" 2
.LVL191:
	.loc 10 95 2 is_stmt 0 view .LVU768
	.thumb
	.syntax unified
.LBE322:
.LBE321:
	.loc 2 267 2 is_stmt 1 view .LVU769
	bl	z_log_msg_post_finalize
.LVL192:
.L205:
	.loc 2 267 2 is_stmt 0 view .LVU770
.LBE318:
.LBE317:
.LBE312:
	.loc 2 282 1 view .LVU771
	pop	{r4, r5, r6, pc}
.LVL193:
.L211:
	.loc 2 282 1 view .LVU772
	.align	2
.L210:
	.word	.LANCHOR1
	.word	.LANCHOR11
	.cfi_endproc
.LFE562:
	.size	log_0, .-log_0
	.section	.text.log_1,"ax",%progbits
	.align	1
	.global	log_1
	.syntax unified
	.thumb
	.thumb_func
	.fpu fpv4-sp-d16
	.type	log_1, %function
log_1:
.LVL194:
.LFB563:
	.loc 2 287 1 is_stmt 1 view -0
	.cfi_startproc
	@ args = 0, pretend = 0, frame = 0
	@ frame_needed = 0, uses_anonymous_args = 0
	.loc 2 287 1 is_stmt 0 view .LVU774
	push	{r3, r4, r5, r6, r7, lr}
	.cfi_def_cfa_offset 24
	.cfi_offset 3, -24
	.cfi_offset 4, -20
	.cfi_offset 5, -16
	.cfi_offset 6, -12
	.cfi_offset 7, -8
	.cfi_offset 14, -4
	mov	r6, r0
	mov	r5, r1
	mov	r7, r2	@ movhi
.LVL195:
	.loc 2 288 2 is_stmt 1 view .LVU775
.LBB334:
	.loc 2 291 3 view .LVU776
.LBB335:
.LBI335:
	.loc 12 375 31 view .LVU777
.LBB336:
	.loc 12 378 2 view .LVU778
.LBB337:
.LBI337:
	.loc 12 322 31 view .LVU779
.LBB338:
	.loc 12 324 2 view .LVU780
	.loc 12 324 42 is_stmt 0 view .LVU781
	bl	log_msg_chunk_alloc
.LVL196:
	.loc 12 326 2 is_stmt 1 view .LVU782
	.loc 12 326 5 is_stmt 0 view .LVU783
	mov	r4, r0
	cbz	r0, .L213
	.loc 12 328 3 is_stmt 1 view .LVU784
	.loc 12 328 20 is_stmt 0 view .LVU785
	movs	r3, #1
	str	r3, [r0, #4]
	.loc 12 329 3 is_stmt 1 view .LVU786
	.loc 12 329 23 is_stmt 0 view .LVU787
	movs	r1, #0
	strh	r1, [r0, #8]	@ movhi
	.loc 12 330 3 is_stmt 1 view .LVU788
	.loc 12 330 28 is_stmt 0 view .LVU789
	mov	r3, #0
	bfi	r3, r1, #0, #1
	strb	r3, [r0, #8]
	.loc 12 332 3 is_stmt 1 view .LVU790
.L213:
	.loc 12 340 2 view .LVU791
.LVL197:
	.loc 12 340 2 is_stmt 0 view .LVU792
.LBE338:
.LBE337:
	.loc 12 380 2 is_stmt 1 view .LVU793
	.loc 12 380 5 is_stmt 0 view .LVU794
	cbz	r4, .L214
	.loc 12 381 3 is_stmt 1 view .LVU795
	.loc 12 381 12 is_stmt 0 view .LVU796
	str	r6, [r4, #16]
	.loc 12 382 3 is_stmt 1 view .LVU797
	.loc 12 382 29 is_stmt 0 view .LVU798
	ldrb	r3, [r4, #9]	@ zero_extendqisi2
	movs	r2, #1
	bfi	r3, r2, #4, #4
	strb	r3, [r4, #9]
	.loc 12 383 3 is_stmt 1 view .LVU799
	.loc 12 383 31 is_stmt 0 view .LVU800
	str	r5, [r4, #20]
.L214:
	.loc 12 386 2 is_stmt 1 view .LVU801
.LVL198:
	.loc 12 386 2 is_stmt 0 view .LVU802
.LBE336:
.LBE335:
	.loc 2 293 3 is_stmt 1 view .LVU803
	.loc 2 293 6 is_stmt 0 view .LVU804
	cbz	r4, .L212
	.loc 2 296 3 is_stmt 1 view .LVU805
.LVL199:
.LBB339:
.LBI339:
	.loc 2 253 20 view .LVU806
.LBB340:
	.loc 2 256 2 view .LVU807
	.loc 2 258 2 view .LVU808
	.loc 2 258 15 is_stmt 0 view .LVU809
	strh	r7, [r4, #10]	@ movhi
	.loc 2 259 2 is_stmt 1 view .LVU810
	.loc 2 259 23 is_stmt 0 view .LVU811
	ldr	r3, .L217
	ldr	r3, [r3]
	blx	r3
.LVL200:
	.loc 2 259 21 view .LVU812
	str	r0, [r4, #12]
	.loc 2 261 2 is_stmt 1 view .LVU813
.LBB341:
.LBI341:
	.loc 10 43 59 view .LVU814
.LBB342:
	.loc 10 45 2 view .LVU815
	.loc 10 54 2 view .LVU816
	.loc 10 56 2 view .LVU817
	.syntax unified
@ 56 "/home/sebin/thesis/zephyrproject/zephyr/include/arch/arm/aarch32/asm_inline_gcc.h" 1
	mov r3, #4;mrs r5, BASEPRI;msr BASEPRI_MAX, r3;isb;
@ 0 "" 2
.LVL201:
	.loc 10 76 2 view .LVU818
	.loc 10 76 2 is_stmt 0 view .LVU819
	.thumb
	.syntax unified
.LBE342:
.LBE341:
	.loc 2 263 2 is_stmt 1 view .LVU820
	mov	r1, r4
	ldr	r0, .L217+4
	bl	log_list_add_tail
.LVL202:
	.loc 2 265 2 view .LVU821
.LBB343:
.LBI343:
	.loc 10 84 51 view .LVU822
.LBB344:
	.loc 10 95 2 view .LVU823
	.syntax unified
@ 95 "/home/sebin/thesis/zephyrproject/zephyr/include/arch/arm/aarch32/asm_inline_gcc.h" 1
	msr BASEPRI, r5;isb;
@ 0 "" 2
.LVL203:
	.loc 10 95 2 is_stmt 0 view .LVU824
	.thumb
	.syntax unified
.LBE344:
.LBE343:
	.loc 2 267 2 is_stmt 1 view .LVU825
	bl	z_log_msg_post_finalize
.LVL204:
.L212:
	.loc 2 267 2 is_stmt 0 view .LVU826
.LBE340:
.LBE339:
.LBE334:
	.loc 2 298 1 view .LVU827
	pop	{r3, r4, r5, r6, r7, pc}
.LVL205:
.L218:
	.loc 2 298 1 view .LVU828
	.align	2
.L217:
	.word	.LANCHOR1
	.word	.LANCHOR11
	.cfi_endproc
.LFE563:
	.size	log_1, .-log_1
	.section	.text.log_2,"ax",%progbits
	.align	1
	.global	log_2
	.syntax unified
	.thumb
	.thumb_func
	.fpu fpv4-sp-d16
	.type	log_2, %function
log_2:
.LVL206:
.LFB564:
	.loc 2 304 1 is_stmt 1 view -0
	.cfi_startproc
	@ args = 0, pretend = 0, frame = 0
	@ frame_needed = 0, uses_anonymous_args = 0
	.loc 2 304 1 is_stmt 0 view .LVU830
	push	{r4, r5, r6, r7, r8, lr}
	.cfi_def_cfa_offset 24
	.cfi_offset 4, -24
	.cfi_offset 5, -20
	.cfi_offset 6, -16
	.cfi_offset 7, -12
	.cfi_offset 8, -8
	.cfi_offset 14, -4
	mov	r7, r0
	mov	r6, r1
	mov	r5, r2
	mov	r8, r3	@ movhi
.LVL207:
	.loc 2 305 2 is_stmt 1 view .LVU831
.LBB356:
	.loc 2 308 3 view .LVU832
.LBB357:
.LBI357:
	.loc 12 403 31 view .LVU833
.LBB358:
	.loc 12 407 2 view .LVU834
.LBB359:
.LBI359:
	.loc 12 322 31 view .LVU835
.LBB360:
	.loc 12 324 2 view .LVU836
	.loc 12 324 42 is_stmt 0 view .LVU837
	bl	log_msg_chunk_alloc
.LVL208:
	.loc 12 326 2 is_stmt 1 view .LVU838
	.loc 12 326 5 is_stmt 0 view .LVU839
	mov	r4, r0
	cbz	r0, .L220
	.loc 12 328 3 is_stmt 1 view .LVU840
	.loc 12 328 20 is_stmt 0 view .LVU841
	movs	r3, #1
	str	r3, [r0, #4]
	.loc 12 329 3 is_stmt 1 view .LVU842
	.loc 12 329 23 is_stmt 0 view .LVU843
	movs	r2, #0
	strh	r2, [r0, #8]	@ movhi
	.loc 12 330 3 is_stmt 1 view .LVU844
	.loc 12 330 28 is_stmt 0 view .LVU845
	mov	r3, #0
	bfi	r3, r2, #0, #1
	strb	r3, [r0, #8]
	.loc 12 332 3 is_stmt 1 view .LVU846
.L220:
	.loc 12 340 2 view .LVU847
.LVL209:
	.loc 12 340 2 is_stmt 0 view .LVU848
.LBE360:
.LBE359:
	.loc 12 409 2 is_stmt 1 view .LVU849
	.loc 12 409 5 is_stmt 0 view .LVU850
	cbz	r4, .L221
	.loc 12 410 3 is_stmt 1 view .LVU851
	.loc 12 410 12 is_stmt 0 view .LVU852
	str	r7, [r4, #16]
	.loc 12 411 3 is_stmt 1 view .LVU853
	.loc 12 411 29 is_stmt 0 view .LVU854
	ldrb	r3, [r4, #9]	@ zero_extendqisi2
	movs	r2, #2
	bfi	r3, r2, #4, #4
	strb	r3, [r4, #9]
	.loc 12 412 3 is_stmt 1 view .LVU855
	.loc 12 412 31 is_stmt 0 view .LVU856
	str	r6, [r4, #20]
	.loc 12 413 3 is_stmt 1 view .LVU857
	.loc 12 413 31 is_stmt 0 view .LVU858
	str	r5, [r4, #24]
.L221:
	.loc 12 416 2 is_stmt 1 view .LVU859
.LVL210:
	.loc 12 416 2 is_stmt 0 view .LVU860
.LBE358:
.LBE357:
	.loc 2 310 3 is_stmt 1 view .LVU861
	.loc 2 310 6 is_stmt 0 view .LVU862
	cbz	r4, .L219
	.loc 2 314 3 is_stmt 1 view .LVU863
.LVL211:
.LBB361:
.LBI361:
	.loc 2 253 20 view .LVU864
.LBB362:
	.loc 2 256 2 view .LVU865
	.loc 2 258 2 view .LVU866
	.loc 2 258 15 is_stmt 0 view .LVU867
	strh	r8, [r4, #10]	@ movhi
	.loc 2 259 2 is_stmt 1 view .LVU868
	.loc 2 259 23 is_stmt 0 view .LVU869
	ldr	r3, .L224
	ldr	r3, [r3]
	blx	r3
.LVL212:
	.loc 2 259 21 view .LVU870
	str	r0, [r4, #12]
	.loc 2 261 2 is_stmt 1 view .LVU871
.LBB363:
.LBI363:
	.loc 10 43 59 view .LVU872
.LBB364:
	.loc 10 45 2 view .LVU873
	.loc 10 54 2 view .LVU874
	.loc 10 56 2 view .LVU875
	.syntax unified
@ 56 "/home/sebin/thesis/zephyrproject/zephyr/include/arch/arm/aarch32/asm_inline_gcc.h" 1
	mov r3, #4;mrs r5, BASEPRI;msr BASEPRI_MAX, r3;isb;
@ 0 "" 2
.LVL213:
	.loc 10 76 2 view .LVU876
	.loc 10 76 2 is_stmt 0 view .LVU877
	.thumb
	.syntax unified
.LBE364:
.LBE363:
	.loc 2 263 2 is_stmt 1 view .LVU878
	mov	r1, r4
	ldr	r0, .L224+4
	bl	log_list_add_tail
.LVL214:
	.loc 2 265 2 view .LVU879
.LBB365:
.LBI365:
	.loc 10 84 51 view .LVU880
.LBB366:
	.loc 10 95 2 view .LVU881
	.syntax unified
@ 95 "/home/sebin/thesis/zephyrproject/zephyr/include/arch/arm/aarch32/asm_inline_gcc.h" 1
	msr BASEPRI, r5;isb;
@ 0 "" 2
.LVL215:
	.loc 10 95 2 is_stmt 0 view .LVU882
	.thumb
	.syntax unified
.LBE366:
.LBE365:
	.loc 2 267 2 is_stmt 1 view .LVU883
	bl	z_log_msg_post_finalize
.LVL216:
.L219:
	.loc 2 267 2 is_stmt 0 view .LVU884
.LBE362:
.LBE361:
.LBE356:
	.loc 2 316 1 view .LVU885
	pop	{r4, r5, r6, r7, r8, pc}
.LVL217:
.L225:
	.loc 2 316 1 view .LVU886
	.align	2
.L224:
	.word	.LANCHOR1
	.word	.LANCHOR11
	.cfi_endproc
.LFE564:
	.size	log_2, .-log_2
	.section	.text.log_n,"ax",%progbits
	.align	1
	.global	log_n
	.syntax unified
	.thumb
	.thumb_func
	.fpu fpv4-sp-d16
	.type	log_n, %function
log_n:
.LVL218:
.LFB566:
	.loc 2 341 1 is_stmt 1 view -0
	.cfi_startproc
	@ args = 0, pretend = 0, frame = 0
	@ frame_needed = 0, uses_anonymous_args = 0
	.loc 2 341 1 is_stmt 0 view .LVU888
	push	{r3, r4, r5, lr}
	.cfi_def_cfa_offset 16
	.cfi_offset 3, -16
	.cfi_offset 4, -12
	.cfi_offset 5, -8
	.cfi_offset 14, -4
	mov	r4, r3	@ movhi
.LVL219:
	.loc 2 342 2 is_stmt 1 view .LVU889
.LBB374:
	.loc 2 345 3 view .LVU890
	.loc 2 345 25 is_stmt 0 view .LVU891
	bl	log_msg_create_n
.LVL220:
	.loc 2 347 3 is_stmt 1 view .LVU892
	.loc 2 347 6 is_stmt 0 view .LVU893
	cbz	r0, .L226
	mov	r5, r0
	.loc 2 351 3 is_stmt 1 view .LVU894
.LVL221:
.LBB375:
.LBI375:
	.loc 2 253 20 view .LVU895
.LBB376:
	.loc 2 256 2 view .LVU896
	.loc 2 258 2 view .LVU897
	.loc 2 258 15 is_stmt 0 view .LVU898
	strh	r4, [r0, #10]	@ movhi
	.loc 2 259 2 is_stmt 1 view .LVU899
	.loc 2 259 23 is_stmt 0 view .LVU900
	ldr	r3, .L229
	ldr	r3, [r3]
	blx	r3
.LVL222:
	.loc 2 259 21 view .LVU901
	str	r0, [r5, #12]
	.loc 2 261 2 is_stmt 1 view .LVU902
.LBB377:
.LBI377:
	.loc 10 43 59 view .LVU903
.LBB378:
	.loc 10 45 2 view .LVU904
	.loc 10 54 2 view .LVU905
	.loc 10 56 2 view .LVU906
	.syntax unified
@ 56 "/home/sebin/thesis/zephyrproject/zephyr/include/arch/arm/aarch32/asm_inline_gcc.h" 1
	mov r3, #4;mrs r4, BASEPRI;msr BASEPRI_MAX, r3;isb;
@ 0 "" 2
.LVL223:
	.loc 10 76 2 view .LVU907
	.loc 10 76 2 is_stmt 0 view .LVU908
	.thumb
	.syntax unified
.LBE378:
.LBE377:
	.loc 2 263 2 is_stmt 1 view .LVU909
	mov	r1, r5
	ldr	r0, .L229+4
	bl	log_list_add_tail
.LVL224:
	.loc 2 265 2 view .LVU910
.LBB379:
.LBI379:
	.loc 10 84 51 view .LVU911
.LBB380:
	.loc 10 95 2 view .LVU912
	.syntax unified
@ 95 "/home/sebin/thesis/zephyrproject/zephyr/include/arch/arm/aarch32/asm_inline_gcc.h" 1
	msr BASEPRI, r4;isb;
@ 0 "" 2
.LVL225:
	.loc 10 95 2 is_stmt 0 view .LVU913
	.thumb
	.syntax unified
.LBE380:
.LBE379:
	.loc 2 267 2 is_stmt 1 view .LVU914
	bl	z_log_msg_post_finalize
.LVL226:
.L226:
	.loc 2 267 2 is_stmt 0 view .LVU915
.LBE376:
.LBE375:
.LBE374:
	.loc 2 353 1 view .LVU916
	pop	{r3, r4, r5, pc}
.LVL227:
.L230:
	.loc 2 353 1 view .LVU917
	.align	2
.L229:
	.word	.LANCHOR1
	.word	.LANCHOR11
	.cfi_endproc
.LFE566:
	.size	log_n, .-log_n
	.section	.text.log_hexdump,"ax",%progbits
	.align	1
	.global	log_hexdump
	.syntax unified
	.thumb
	.thumb_func
	.fpu fpv4-sp-d16
	.type	log_hexdump, %function
log_hexdump:
.LVL228:
.LFB567:
	.loc 2 357 1 is_stmt 1 view -0
	.cfi_startproc
	@ args = 0, pretend = 0, frame = 0
	@ frame_needed = 0, uses_anonymous_args = 0
	.loc 2 357 1 is_stmt 0 view .LVU919
	push	{r3, r4, r5, lr}
	.cfi_def_cfa_offset 16
	.cfi_offset 3, -16
	.cfi_offset 4, -12
	.cfi_offset 5, -8
	.cfi_offset 14, -4
	mov	r4, r3	@ movhi
.LVL229:
	.loc 2 358 2 is_stmt 1 view .LVU920
.LBB388:
	.loc 2 362 3 view .LVU921
	.loc 2 363 4 is_stmt 0 view .LVU922
	bl	log_msg_hexdump_create
.LVL230:
	.loc 2 365 3 is_stmt 1 view .LVU923
	.loc 2 365 6 is_stmt 0 view .LVU924
	cbz	r0, .L231
	mov	r5, r0
	.loc 2 369 3 is_stmt 1 view .LVU925
.LVL231:
.LBB389:
.LBI389:
	.loc 2 253 20 view .LVU926
.LBB390:
	.loc 2 256 2 view .LVU927
	.loc 2 258 2 view .LVU928
	.loc 2 258 15 is_stmt 0 view .LVU929
	strh	r4, [r0, #10]	@ movhi
	.loc 2 259 2 is_stmt 1 view .LVU930
	.loc 2 259 23 is_stmt 0 view .LVU931
	ldr	r3, .L234
	ldr	r3, [r3]
	blx	r3
.LVL232:
	.loc 2 259 21 view .LVU932
	str	r0, [r5, #12]
	.loc 2 261 2 is_stmt 1 view .LVU933
.LBB391:
.LBI391:
	.loc 10 43 59 view .LVU934
.LBB392:
	.loc 10 45 2 view .LVU935
	.loc 10 54 2 view .LVU936
	.loc 10 56 2 view .LVU937
	.syntax unified
@ 56 "/home/sebin/thesis/zephyrproject/zephyr/include/arch/arm/aarch32/asm_inline_gcc.h" 1
	mov r3, #4;mrs r4, BASEPRI;msr BASEPRI_MAX, r3;isb;
@ 0 "" 2
.LVL233:
	.loc 10 76 2 view .LVU938
	.loc 10 76 2 is_stmt 0 view .LVU939
	.thumb
	.syntax unified
.LBE392:
.LBE391:
	.loc 2 263 2 is_stmt 1 view .LVU940
	mov	r1, r5
	ldr	r0, .L234+4
	bl	log_list_add_tail
.LVL234:
	.loc 2 265 2 view .LVU941
.LBB393:
.LBI393:
	.loc 10 84 51 view .LVU942
.LBB394:
	.loc 10 95 2 view .LVU943
	.syntax unified
@ 95 "/home/sebin/thesis/zephyrproject/zephyr/include/arch/arm/aarch32/asm_inline_gcc.h" 1
	msr BASEPRI, r4;isb;
@ 0 "" 2
.LVL235:
	.loc 10 95 2 is_stmt 0 view .LVU944
	.thumb
	.syntax unified
.LBE394:
.LBE393:
	.loc 2 267 2 is_stmt 1 view .LVU945
	bl	z_log_msg_post_finalize
.LVL236:
.L231:
	.loc 2 267 2 is_stmt 0 view .LVU946
.LBE390:
.LBE389:
.LBE388:
	.loc 2 371 1 view .LVU947
	pop	{r3, r4, r5, pc}
.LVL237:
.L235:
	.loc 2 371 1 view .LVU948
	.align	2
.L234:
	.word	.LANCHOR1
	.word	.LANCHOR11
	.cfi_endproc
.LFE567:
	.size	log_hexdump, .-log_hexdump
	.section	.text.log_3,"ax",%progbits
	.align	1
	.global	log_3
	.syntax unified
	.thumb
	.thumb_func
	.fpu fpv4-sp-d16
	.type	log_3, %function
log_3:
.LVL238:
.LFB565:
	.loc 2 323 1 is_stmt 1 view -0
	.cfi_startproc
	@ args = 4, pretend = 0, frame = 0
	@ frame_needed = 0, uses_anonymous_args = 0
	.loc 2 323 1 is_stmt 0 view .LVU950
	push	{r4, r5, r6, r7, r8, lr}
	.cfi_def_cfa_offset 24
	.cfi_offset 4, -24
	.cfi_offset 5, -20
	.cfi_offset 6, -16
	.cfi_offset 7, -12
	.cfi_offset 8, -8
	.cfi_offset 14, -4
	mov	r8, r0
	mov	r7, r1
	mov	r6, r2
	mov	r5, r3
	.loc 2 324 2 is_stmt 1 view .LVU951
.LBB406:
	.loc 2 327 3 view .LVU952
.LVL239:
.LBB407:
.LBI407:
	.loc 12 434 31 view .LVU953
.LBB408:
	.loc 12 439 2 view .LVU954
.LBB409:
.LBI409:
	.loc 12 322 31 view .LVU955
.LBB410:
	.loc 12 324 2 view .LVU956
	.loc 12 324 42 is_stmt 0 view .LVU957
	bl	log_msg_chunk_alloc
.LVL240:
	.loc 12 326 2 is_stmt 1 view .LVU958
	.loc 12 326 5 is_stmt 0 view .LVU959
	mov	r4, r0
	cbz	r0, .L237
	.loc 12 328 3 is_stmt 1 view .LVU960
	.loc 12 328 20 is_stmt 0 view .LVU961
	movs	r3, #1
	str	r3, [r0, #4]
	.loc 12 329 3 is_stmt 1 view .LVU962
	.loc 12 329 23 is_stmt 0 view .LVU963
	movs	r2, #0
	strh	r2, [r0, #8]	@ movhi
	.loc 12 330 3 is_stmt 1 view .LVU964
	.loc 12 330 28 is_stmt 0 view .LVU965
	mov	r3, #0
	bfi	r3, r2, #0, #1
	strb	r3, [r0, #8]
	.loc 12 332 3 is_stmt 1 view .LVU966
.L237:
	.loc 12 340 2 view .LVU967
.LVL241:
	.loc 12 340 2 is_stmt 0 view .LVU968
.LBE410:
.LBE409:
	.loc 12 441 2 is_stmt 1 view .LVU969
	.loc 12 441 5 is_stmt 0 view .LVU970
	cbz	r4, .L238
	.loc 12 442 3 is_stmt 1 view .LVU971
	.loc 12 442 12 is_stmt 0 view .LVU972
	str	r8, [r4, #16]
	.loc 12 443 3 is_stmt 1 view .LVU973
	.loc 12 443 29 is_stmt 0 view .LVU974
	ldrb	r3, [r4, #9]	@ zero_extendqisi2
	movs	r2, #3
	bfi	r3, r2, #4, #4
	strb	r3, [r4, #9]
	.loc 12 444 3 is_stmt 1 view .LVU975
	.loc 12 444 31 is_stmt 0 view .LVU976
	str	r7, [r4, #20]
	.loc 12 445 3 is_stmt 1 view .LVU977
	.loc 12 445 31 is_stmt 0 view .LVU978
	str	r6, [r4, #24]
	.loc 12 446 3 is_stmt 1 view .LVU979
	.loc 12 446 31 is_stmt 0 view .LVU980
	str	r5, [r4, #28]
.L238:
	.loc 12 449 2 is_stmt 1 view .LVU981
.LVL242:
	.loc 12 449 2 is_stmt 0 view .LVU982
.LBE408:
.LBE407:
	.loc 2 329 3 is_stmt 1 view .LVU983
	.loc 2 329 6 is_stmt 0 view .LVU984
	cbz	r4, .L236
	.loc 2 333 3 is_stmt 1 view .LVU985
.LVL243:
.LBB411:
.LBI411:
	.loc 2 253 20 view .LVU986
.LBB412:
	.loc 2 256 2 view .LVU987
	.loc 2 258 2 view .LVU988
	.loc 2 258 15 is_stmt 0 view .LVU989
	ldrh	r3, [sp, #24]
	strh	r3, [r4, #10]	@ movhi
	.loc 2 259 2 is_stmt 1 view .LVU990
	.loc 2 259 23 is_stmt 0 view .LVU991
	ldr	r3, .L241
	ldr	r3, [r3]
	blx	r3
.LVL244:
	.loc 2 259 21 view .LVU992
	str	r0, [r4, #12]
	.loc 2 261 2 is_stmt 1 view .LVU993
.LBB413:
.LBI413:
	.loc 10 43 59 view .LVU994
.LBB414:
	.loc 10 45 2 view .LVU995
	.loc 10 54 2 view .LVU996
	.loc 10 56 2 view .LVU997
	.syntax unified
@ 56 "/home/sebin/thesis/zephyrproject/zephyr/include/arch/arm/aarch32/asm_inline_gcc.h" 1
	mov r3, #4;mrs r5, BASEPRI;msr BASEPRI_MAX, r3;isb;
@ 0 "" 2
.LVL245:
	.loc 10 76 2 view .LVU998
	.loc 10 76 2 is_stmt 0 view .LVU999
	.thumb
	.syntax unified
.LBE414:
.LBE413:
	.loc 2 263 2 is_stmt 1 view .LVU1000
	mov	r1, r4
	ldr	r0, .L241+4
	bl	log_list_add_tail
.LVL246:
	.loc 2 265 2 view .LVU1001
.LBB415:
.LBI415:
	.loc 10 84 51 view .LVU1002
.LBB416:
	.loc 10 95 2 view .LVU1003
	.syntax unified
@ 95 "/home/sebin/thesis/zephyrproject/zephyr/include/arch/arm/aarch32/asm_inline_gcc.h" 1
	msr BASEPRI, r5;isb;
@ 0 "" 2
.LVL247:
	.loc 10 95 2 is_stmt 0 view .LVU1004
	.thumb
	.syntax unified
.LBE416:
.LBE415:
	.loc 2 267 2 is_stmt 1 view .LVU1005
	bl	z_log_msg_post_finalize
.LVL248:
.L236:
	.loc 2 267 2 is_stmt 0 view .LVU1006
.LBE412:
.LBE411:
.LBE406:
	.loc 2 335 1 view .LVU1007
	pop	{r4, r5, r6, r7, r8, pc}
.LVL249:
.L242:
	.loc 2 335 1 view .LVU1008
	.align	2
.L241:
	.word	.LANCHOR1
	.word	.LANCHOR11
	.cfi_endproc
.LFE565:
	.size	log_3, .-log_3
	.section	.text.z_log_get_tag,"ax",%progbits
	.align	1
	.global	z_log_get_tag
	.syntax unified
	.thumb
	.thumb_func
	.fpu fpv4-sp-d16
	.type	z_log_get_tag, %function
z_log_get_tag:
.LFB610:
	.loc 2 1234 1 is_stmt 1 view -0
	.cfi_startproc
	@ args = 0, pretend = 0, frame = 0
	@ frame_needed = 0, uses_anonymous_args = 0
	@ link register save eliminated.
	.loc 2 1235 2 view .LVU1010
	.loc 2 1236 1 is_stmt 0 view .LVU1011
	movs	r0, #0
	bx	lr
	.cfi_endproc
.LFE610:
	.size	z_log_get_tag, .-z_log_get_tag
	.section	.text.log_set_tag,"ax",%progbits
	.align	1
	.global	log_set_tag
	.syntax unified
	.thumb
	.thumb_func
	.fpu fpv4-sp-d16
	.type	log_set_tag, %function
log_set_tag:
.LVL250:
.LFB611:
	.loc 2 1239 1 is_stmt 1 view -0
	.cfi_startproc
	@ args = 0, pretend = 0, frame = 0
	@ frame_needed = 0, uses_anonymous_args = 0
	@ link register save eliminated.
	.loc 2 1240 2 view .LVU1013
	.loc 2 1241 3 view .LVU1014
	.loc 2 1260 1 is_stmt 0 view .LVU1015
	mvn	r0, #133
.LVL251:
	.loc 2 1260 1 view .LVU1016
	bx	lr
	.cfi_endproc
.LFE611:
	.size	log_set_tag, .-log_set_tag
	.global	logging_thread
	.global	logging_stack
	.global	log_buffer
	.global	log_strdup_pool
	.global	log_process_thread_sem
	.global	log_const_log
	.section	.rodata.str1.4,"aMS",%progbits,1
	.align	2
.LC0:
	.ascii	"log\000"
	.section	._k_sem.static.log_process_thread_sem,"aw"
	.align	2
	.type	log_process_thread_sem, %object
	.size	log_process_thread_sem, 24
log_process_thread_sem:
	.word	log_process_thread_sem
	.word	log_process_thread_sem
	.word	0
	.word	1
	.word	log_process_thread_sem+16
	.word	log_process_thread_sem+16
	.section	.bss.backend_attached,"aw",%nobits
	.set	.LANCHOR5,. + 0
	.type	backend_attached, %object
	.size	backend_attached, 1
backend_attached:
	.space	1
	.section	.bss.buf32,"aw",%nobits
	.align	3
	.type	buf32, %object
	.size	buf32, 4
buf32:
	.space	4
	.section	.bss.buffered_cnt,"aw",%nobits
	.align	2
	.set	.LANCHOR6,. + 0
	.type	buffered_cnt, %object
	.size	buffered_cnt, 4
buffered_cnt:
	.space	4
	.section	.bss.dropped_cnt,"aw",%nobits
	.align	2
	.set	.LANCHOR4,. + 0
	.type	dropped_cnt, %object
	.size	dropped_cnt, 4
dropped_cnt:
	.space	4
	.section	.bss.initialized,"aw",%nobits
	.align	2
	.set	.LANCHOR2,. + 0
	.type	initialized, %object
	.size	initialized, 4
initialized:
	.space	4
	.section	.bss.list,"aw",%nobits
	.align	2
	.set	.LANCHOR11,. + 0
	.type	list, %object
	.size	list, 8
list:
	.space	8
	.section	.bss.log_buffer,"aw",%nobits
	.align	2
	.set	.LANCHOR9,. + 0
	.type	log_buffer, %object
	.size	log_buffer, 64
log_buffer:
	.space	64
	.section	.bss.log_process_thread_timer,"aw",%nobits
	.align	3
	.set	.LANCHOR10,. + 0
	.type	log_process_thread_timer, %object
	.size	log_process_thread_timer, 56
log_process_thread_timer:
	.space	56
	.section	.bss.log_strdup_pool,"aw",%nobits
	.align	2
	.set	.LANCHOR7,. + 0
	.type	log_strdup_pool, %object
	.size	log_strdup_pool, 32
log_strdup_pool:
	.space	32
	.section	.bss.logging_thread,"aw",%nobits
	.align	3
	.type	logging_thread, %object
	.size	logging_thread, 232
logging_thread:
	.space	232
	.section	.bss.panic_mode,"aw",%nobits
	.set	.LANCHOR3,. + 0
	.type	panic_mode, %object
	.size	panic_mode, 1
panic_mode:
	.space	1
	.section	.bss.proc_tid,"aw",%nobits
	.align	2
	.set	.LANCHOR0,. + 0
	.type	proc_tid, %object
	.size	proc_tid, 4
proc_tid:
	.space	4
	.section	.data.timestamp_func,"aw"
	.align	2
	.set	.LANCHOR1,. + 0
	.type	timestamp_func, %object
	.size	timestamp_func, 4
timestamp_func:
	.word	dummy_timestamp
	.section	.log_const_log,"a"
	.align	2
	.type	log_const_log, %object
	.size	log_const_log, 8
log_const_log:
	.word	.LC0
	.byte	3
	.space	3
	.section	.noinit."WEST_TOPDIR/zephyr/subsys/logging/log_core.c".1,"aw"
	.align	7
	.type	logging_stack, %object
	.size	logging_stack, 40
logging_stack:
	.space	40
	.section	.rodata.mpsc_config,"a"
	.align	2
	.set	.LANCHOR8,. + 0
	.type	mpsc_config, %object
	.size	mpsc_config, 20
mpsc_config:
	.word	buf32
	.word	1
	.word	notify_drop
	.word	log_msg2_generic_get_wlen
	.word	0
	.section	.z_init_POST_KERNEL0_,"a"
	.align	2
	.type	__init_sys_init_enable_logger2, %object
	.size	__init_sys_init_enable_logger2, 8
__init_sys_init_enable_logger2:
	.word	enable_logger
	.word	0
	.text
.Letext0:
	.file 13 "/home/sebin/LIOT/gcc-arm-none-eabi-9-2019-q4-major/lib/gcc/arm-none-eabi/9.2.1/include/stddef.h"
	.file 14 "/home/sebin/LIOT/gcc-arm-none-eabi-9-2019-q4-major/arm-none-eabi/include/machine/_default_types.h"
	.file 15 "/home/sebin/LIOT/gcc-arm-none-eabi-9-2019-q4-major/arm-none-eabi/include/sys/_stdint.h"
	.file 16 "/home/sebin/thesis/zephyrproject/zephyr/include/sys/atomic.h"
	.file 17 "/home/sebin/LIOT/gcc-arm-none-eabi-9-2019-q4-major/arm-none-eabi/include/sys/lock.h"
	.file 18 "/home/sebin/LIOT/gcc-arm-none-eabi-9-2019-q4-major/arm-none-eabi/include/sys/_types.h"
	.file 19 "/home/sebin/LIOT/gcc-arm-none-eabi-9-2019-q4-major/arm-none-eabi/include/sys/reent.h"
	.file 20 "/home/sebin/thesis/zephyrproject/zephyr/include/logging/log_instance.h"
	.file 21 "/home/sebin/thesis/zephyrproject/zephyr/include/sys/mpsc_packet.h"
	.file 22 "/home/sebin/LIOT/gcc-arm-none-eabi-9-2019-q4-major/lib/gcc/arm-none-eabi/9.2.1/include/stdarg.h"
	.file 23 "/home/sebin/LIOT/gcc-arm-none-eabi-9-2019-q4-major/arm-none-eabi/include/sys/errno.h"
	.file 24 "/home/sebin/thesis/zephyrproject/zephyr/subsys/logging/log_list.h"
	.file 25 "/home/sebin/thesis/zephyrproject/zephyr/include/logging/log_core.h"
	.file 26 "/home/sebin/thesis/zephyrproject/zephyr/include/sys/dlist.h"
	.file 27 "/home/sebin/thesis/zephyrproject/zephyr/include/sys/rb.h"
	.file 28 "/home/sebin/thesis/zephyrproject/zephyr/include/sys/slist.h"
	.file 29 "/home/sebin/thesis/zephyrproject/zephyr/include/sys/sys_heap.h"
	.file 30 "/home/sebin/thesis/zephyrproject/zephyr/include/kernel_structs.h"
	.file 31 "/home/sebin/thesis/zephyrproject/zephyr/include/kernel/thread.h"
	.file 32 "/home/sebin/thesis/zephyrproject/zephyr/include/kernel/thread_stack.h"
	.file 33 "/home/sebin/thesis/zephyrproject/zephyr/include/arch/arm/aarch32/thread.h"
	.file 34 "/home/sebin/thesis/zephyrproject/zephyr/include/arch/arm/aarch32/exc.h"
	.file 35 "/home/sebin/thesis/zephyrproject/zephyr/include/sw_isr_table.h"
	.file 36 "/home/sebin/thesis/zephyrproject/modules/hal/infineon/XMCLib/devices/XMC4500/Include/system_XMC4500.h"
	.file 37 "/home/sebin/thesis/zephyrproject/modules/hal/cmsis/CMSIS/Core/Include/core_cm4.h"
	.file 38 "/home/sebin/thesis/zephyrproject/zephyr/include/arch/arm/aarch32/mpu/arm_mpu_v7m.h"
	.file 39 "/home/sebin/thesis/zephyrproject/zephyr/include/arch/arm/aarch32/mpu/arm_mpu.h"
	.file 40 "/home/sebin/thesis/zephyrproject/zephyr/include/sys_clock.h"
	.file 41 "/home/sebin/thesis/zephyrproject/zephyr/include/spinlock.h"
	.file 42 "/home/sebin/thesis/zephyrproject/zephyr/include/logging/log_ctrl.h"
	.file 43 "/home/sebin/thesis/zephyrproject/zephyr/include/sys/mpsc_pbuf.h"
	.file 44 "/home/sebin/thesis/zephyrproject/zephyr/include/init.h"
	.file 45 "/home/sebin/LIOT/gcc-arm-none-eabi-9-2019-q4-major/arm-none-eabi/include/ctype.h"
	.file 46 "/home/sebin/thesis/zephyrproject/zephyr/include/arch/arm/aarch32/misc.h"
	.file 47 "/home/sebin/thesis/zephyrproject/zephyr/include/logging/log_output.h"
	.file 48 "<built-in>"
	.file 49 "/home/sebin/thesis/zephyrproject/zephyr/include/arch/structs.h"