	.cpu cortex-m4
	.eabi_attribute 27, 1
	.eabi_attribute 28, 1
	.eabi_attribute 20, 1
	.eabi_attribute 21, 1
	.eabi_attribute 23, 3
	.eabi_attribute 24, 1
	.eabi_attribute 25, 1
	.eabi_attribute 26, 1
	.eabi_attribute 30, 1
	.eabi_attribute 34, 1
	.eabi_attribute 38, 1
	.eabi_attribute 18, 4
	.file	"log_msg.c"
	.text
.Ltext0:
	.cfi_sections	.debug_frame
	.section	.text.block_on_alloc,"ax",%progbits
	.align	1
	.arch armv7e-m
	.syntax unified
	.thumb
	.thumb_func
	.fpu fpv4-sp-d16
	.type	block_on_alloc, %function
block_on_alloc:
.LFB556:
	.file 1 "/home/sebin/thesis/zephyrproject/zephyr/subsys/logging/log_msg.c"
	.loc 1 66 1 view -0
	.cfi_startproc
	@ args = 0, pretend = 0, frame = 0
	@ frame_needed = 0, uses_anonymous_args = 0
	@ link register save eliminated.
	.loc 1 67 2 view .LVU1
	.loc 1 68 3 view .LVU2
	.loc 1 72 1 is_stmt 0 view .LVU3
	movs	r0, #0
	bx	lr
	.cfi_endproc
.LFE556:
	.size	block_on_alloc, .-block_on_alloc
	.section	.text.cont_arg_get,"ax",%progbits
	.align	1
	.syntax unified
	.thumb
	.thumb_func
	.fpu fpv4-sp-d16
	.type	cont_arg_get, %function
cont_arg_get:
.LVL0:
.LFB564:
	.loc 1 201 1 is_stmt 1 view -0
	.cfi_startproc
	@ args = 0, pretend = 0, frame = 0
	@ frame_needed = 0, uses_anonymous_args = 0
	@ link register save eliminated.
	.loc 1 202 2 view .LVU5
	.loc 1 204 2 view .LVU6
	.loc 1 204 5 is_stmt 0 view .LVU7
	cmp	r1, #1
	bls	.L7
	.loc 1 209 2 is_stmt 1 view .LVU8
	.loc 1 209 7 is_stmt 0 view .LVU9
	ldr	r3, [r0, #20]
.LVL1:
	.loc 1 210 2 is_stmt 1 view .LVU10
	.loc 1 210 10 is_stmt 0 view .LVU11
	subs	r1, r1, #2
.LVL2:
	.loc 1 212 2 is_stmt 1 view .LVU12
.L5:
	.loc 1 212 8 view .LVU13
	cmp	r1, #6
	bls	.L8
	.loc 1 213 3 view .LVU14
	.loc 1 213 11 is_stmt 0 view .LVU15
	subs	r1, r1, #7
.LVL3:
	.loc 1 214 3 is_stmt 1 view .LVU16
	.loc 1 214 8 is_stmt 0 view .LVU17
	ldr	r3, [r3]
.LVL4:
	.loc 1 214 8 view .LVU18
	b	.L5
.LVL5:
.L7:
	.loc 1 205 3 is_stmt 1 view .LVU19
	.loc 1 205 36 is_stmt 0 view .LVU20
	adds	r1, r1, #4
.LVL6:
	.loc 1 205 36 view .LVU21
	add	r1, r0, r1, lsl #2
.LVL7:
	.loc 1 205 36 view .LVU22
	ldr	r0, [r1, #8]
.LVL8:
	.loc 1 205 36 view .LVU23
	bx	lr
.LVL9:
.L8:
	.loc 1 217 2 is_stmt 1 view .LVU24
	.loc 1 217 27 is_stmt 0 view .LVU25
	add	r1, r3, r1, lsl #2
.LVL10:
	.loc 1 217 27 view .LVU26
	ldr	r0, [r1, #4]
.LVL11:
	.loc 1 218 1 view .LVU27
	bx	lr
	.cfi_endproc
.LFE564:
	.size	cont_arg_get, .-cont_arg_get
	.section	.text.cont_free,"ax",%progbits
	.align	1
	.syntax unified
	.thumb
	.thumb_func
	.fpu fpv4-sp-d16
	.type	cont_free, %function
cont_free:
.LVL12:
.LFB559:
	.loc 1 95 1 is_stmt 1 view -0
	.cfi_startproc
	@ args = 0, pretend = 0, frame = 8
	@ frame_needed = 0, uses_anonymous_args = 0
	.loc 1 95 1 is_stmt 0 view .LVU29
	push	{r4, lr}
	.cfi_def_cfa_offset 8
	.cfi_offset 4, -8
	.cfi_offset 14, -4
	sub	sp, sp, #8
	.cfi_def_cfa_offset 16
	str	r0, [sp, #4]
	.loc 1 96 2 is_stmt 1 view .LVU30
	.loc 1 98 2 view .LVU31
.LVL13:
.L10:
	.loc 1 98 8 view .LVU32
	.loc 1 98 14 is_stmt 0 view .LVU33
	ldr	r3, [sp, #4]
	.loc 1 98 8 view .LVU34
	cbz	r3, .L13
	.loc 1 99 3 is_stmt 1 view .LVU35
	.loc 1 99 8 is_stmt 0 view .LVU36
	ldr	r4, [r3]
.LVL14:
	.loc 1 100 3 is_stmt 1 view .LVU37
	add	r1, sp, #4
	ldr	r0, .L14
	bl	k_mem_slab_free
.LVL15:
	.loc 1 101 3 view .LVU38
	.loc 1 101 8 is_stmt 0 view .LVU39
	str	r4, [sp, #4]
	b	.L10
.LVL16:
.L13:
	.loc 1 103 1 view .LVU40
	add	sp, sp, #8
	.cfi_def_cfa_offset 8
	@ sp needed
	pop	{r4, pc}
.L15:
	.align	2
.L14:
	.word	.LANCHOR0
	.cfi_endproc
.LFE559:
	.size	cont_free, .-cont_free
	.section	.text.copy_args_to_msg,"ax",%progbits
	.align	1
	.syntax unified
	.thumb
	.thumb_func
	.fpu fpv4-sp-d16
	.type	copy_args_to_msg, %function
copy_args_to_msg:
.LVL17:
.LFB568:
	.loc 1 288 1 is_stmt 1 view -0
	.cfi_startproc
	@ args = 0, pretend = 0, frame = 0
	@ frame_needed = 0, uses_anonymous_args = 0
	.loc 1 288 1 is_stmt 0 view .LVU42
	push	{r4, r5, r6, r7, r8, lr}
	.cfi_def_cfa_offset 24
	.cfi_offset 4, -24
	.cfi_offset 5, -20
	.cfi_offset 6, -16
	.cfi_offset 7, -12
	.cfi_offset 8, -8
	.cfi_offset 14, -4
	mov	r5, r1
	.loc 1 289 2 is_stmt 1 view .LVU43
	.loc 1 289 23 is_stmt 0 view .LVU44
	ldr	r6, [r0, #20]
.LVL18:
	.loc 1 291 2 is_stmt 1 view .LVU45
	.loc 1 291 5 is_stmt 0 view .LVU46
	cmp	r2, #3
	bls	.L17
	.loc 1 292 3 is_stmt 1 view .LVU47
.LVL19:
.LBB54:
.LBI54:
	.file 2 "/home/sebin/LIOT/gcc-arm-none-eabi-9-2019-q4-major/arm-none-eabi/include/ssp/string.h"
	.loc 2 83 216 view .LVU48
.LBB55:
	.loc 2 83 292 view .LVU49
	.loc 2 83 299 is_stmt 0 view .LVU50
	ldr	r1, [r1]	@ unaligned
.LVL20:
	.loc 2 83 299 view .LVU51
	ldr	r3, [r5, #4]	@ unaligned
	str	r1, [r0, #24]	@ unaligned
	str	r3, [r0, #28]	@ unaligned
.LVL21:
	.loc 2 83 299 view .LVU52
.LBE55:
.LBE54:
	.loc 1 294 3 is_stmt 1 view .LVU53
	.loc 1 294 9 is_stmt 0 view .LVU54
	subs	r4, r2, #2
.LVL22:
	.loc 1 295 3 is_stmt 1 view .LVU55
	.loc 1 295 8 is_stmt 0 view .LVU56
	adds	r5, r5, #8
.LVL23:
.L19:
	.loc 1 302 8 is_stmt 1 view .LVU57
	cbz	r4, .L22
.LBB56:
	.loc 1 303 3 view .LVU58
	.loc 1 303 12 is_stmt 0 view .LVU59
	mov	r8, r4
	cmp	r4, #7
	it	cs
	movcs	r8, #7
.LVL24:
	.loc 1 305 3 is_stmt 1 view .LVU60
	.loc 1 305 16 is_stmt 0 view .LVU61
	lsl	r7, r8, #2
.LVL25:
.LBB57:
.LBI57:
	.loc 2 83 216 is_stmt 1 view .LVU62
.LBB58:
	.loc 2 83 292 view .LVU63
	.loc 2 83 299 is_stmt 0 view .LVU64
	mov	r2, r7
	mov	r1, r5
	adds	r0, r6, #4
.LVL26:
	.loc 2 83 299 view .LVU65
	bl	memcpy
.LVL27:
	.loc 2 83 299 view .LVU66
.LBE58:
.LBE57:
	.loc 1 307 3 is_stmt 1 view .LVU67
	.loc 1 307 9 is_stmt 0 view .LVU68
	sub	r4, r4, r8
.LVL28:
	.loc 1 308 3 is_stmt 1 view .LVU69
	.loc 1 308 8 is_stmt 0 view .LVU70
	add	r5, r5, r7
.LVL29:
	.loc 1 309 3 is_stmt 1 view .LVU71
	.loc 1 309 8 is_stmt 0 view .LVU72
	ldr	r6, [r6]
.LVL30:
	.loc 1 309 8 view .LVU73
	b	.L19
.LVL31:
.L17:
	.loc 1 309 8 view .LVU74
.LBE56:
	.loc 1 297 3 is_stmt 1 view .LVU75
.LBB59:
.LBI59:
	.loc 2 83 216 view .LVU76
.LBB60:
	.loc 2 83 292 view .LVU77
	.loc 2 83 299 is_stmt 0 view .LVU78
	lsls	r2, r2, #2
.LVL32:
	.loc 2 83 299 view .LVU79
	adds	r0, r0, #20
.LVL33:
	.loc 2 83 299 view .LVU80
	bl	memcpy
.LVL34:
	.loc 2 83 299 view .LVU81
.LBE60:
.LBE59:
	.loc 1 299 9 view .LVU82
	movs	r4, #0
	b	.L19
.LVL35:
.L22:
	.loc 1 311 1 view .LVU83
	pop	{r4, r5, r6, r7, r8, pc}
	.loc 1 311 1 view .LVU84
	.cfi_endproc
.LFE568:
	.size	copy_args_to_msg, .-copy_args_to_msg
	.section	.text.log_msg_hexdump_data_op,"ax",%progbits
	.align	1
	.syntax unified
	.thumb
	.thumb_func
	.fpu fpv4-sp-d16
	.type	log_msg_hexdump_data_op, %function
log_msg_hexdump_data_op:
.LVL36:
.LFB571:
	.loc 1 399 1 is_stmt 1 view -0
	.cfi_startproc
	@ args = 4, pretend = 0, frame = 0
	@ frame_needed = 0, uses_anonymous_args = 0
	.loc 1 399 1 is_stmt 0 view .LVU86
	push	{r3, r4, r5, r6, r7, r8, r9, lr}
	.cfi_def_cfa_offset 32
	.cfi_offset 3, -32
	.cfi_offset 4, -28
	.cfi_offset 5, -24
	.cfi_offset 6, -20
	.cfi_offset 7, -16
	.cfi_offset 8, -12
	.cfi_offset 9, -8
	.cfi_offset 14, -4
	mov	r4, r3
	ldrb	r9, [sp, #32]	@ zero_extendqisi2
	.loc 1 400 2 is_stmt 1 view .LVU87
	.loc 1 400 50 is_stmt 0 view .LVU88
	ldrh	r3, [r0, #8]
.LVL37:
	.loc 1 400 50 view .LVU89
	ubfx	r3, r3, #2, #14
.LVL38:
	.loc 1 401 2 is_stmt 1 view .LVU90
	.loc 1 402 2 view .LVU91
	.loc 1 403 2 view .LVU92
	.loc 1 404 2 view .LVU93
	.loc 1 405 2 view .LVU94
	.loc 1 407 2 view .LVU95
	.loc 1 407 5 is_stmt 0 view .LVU96
	cmp	r3, r4
	bls	.L41
	mov	r8, r1
	.loc 1 412 2 is_stmt 1 view .LVU97
	.loc 1 412 16 is_stmt 0 view .LVU98
	ldr	r1, [r2]
.LVL39:
	.loc 1 412 14 view .LVU99
	add	r1, r1, r4
	.loc 1 412 5 view .LVU100
	cmp	r1, r3
	bls	.L26
	.loc 1 413 3 is_stmt 1 view .LVU101
	.loc 1 413 27 is_stmt 0 view .LVU102
	subs	r1, r3, r4
	.loc 1 413 11 view .LVU103
	str	r1, [r2]
.L26:
	.loc 1 416 2 is_stmt 1 view .LVU104
	.loc 1 416 10 is_stmt 0 view .LVU105
	ldr	r7, [r2]
.LVL40:
	.loc 1 418 2 is_stmt 1 view .LVU106
	.loc 1 418 5 is_stmt 0 view .LVU107
	cmp	r3, #12
	bls	.L27
	.loc 1 419 3 is_stmt 1 view .LVU108
.LVL41:
	.loc 1 420 3 view .LVU109
	.loc 1 420 13 is_stmt 0 view .LVU110
	add	ip, r0, #24
.LVL42:
	.loc 1 421 3 is_stmt 1 view .LVU111
	.loc 1 421 8 is_stmt 0 view .LVU112
	ldr	r6, [r0, #20]
.LVL43:
	.loc 1 419 13 view .LVU113
	movs	r3, #8
.LVL44:
.L28:
	.loc 1 428 2 is_stmt 1 view .LVU114
	.loc 1 428 5 is_stmt 0 view .LVU115
	cmp	r3, r4
	bls	.L29
	.loc 1 429 3 is_stmt 1 view .LVU116
	.loc 1 429 11 is_stmt 0 view .LVU117
	cmp	r3, r7
	it	cs
	movcs	r3, r7
.LVL45:
	.loc 1 429 11 view .LVU118
	mov	r5, r3
.LVL46:
	.loc 1 431 3 is_stmt 1 view .LVU119
	.loc 1 431 6 is_stmt 0 view .LVU120
	cmp	r9, #0
	beq	.L30
	.loc 1 432 4 is_stmt 1 view .LVU121
.LVL47:
.LBB61:
.LBI61:
	.loc 2 83 216 view .LVU122
.LBB62:
	.loc 2 83 292 view .LVU123
	.loc 2 83 299 is_stmt 0 view .LVU124
	mov	r2, r3
.LVL48:
	.loc 2 83 299 view .LVU125
	mov	r1, r8
	add	r0, ip, r4
.LVL49:
	.loc 2 83 299 view .LVU126
	bl	memcpy
.LVL50:
.L31:
	.loc 2 83 299 view .LVU127
.LBE62:
.LBE61:
	.loc 1 437 3 is_stmt 1 view .LVU128
	.loc 1 437 11 is_stmt 0 view .LVU129
	subs	r7, r7, r5
.LVL51:
	.loc 1 438 3 is_stmt 1 view .LVU130
	.loc 1 438 8 is_stmt 0 view .LVU131
	add	r8, r8, r5
.LVL52:
	.loc 1 438 8 view .LVU132
	b	.L38
.LVL53:
.L41:
	.loc 1 408 3 is_stmt 1 view .LVU133
	.loc 1 408 11 is_stmt 0 view .LVU134
	movs	r3, #0
.LVL54:
	.loc 1 408 11 view .LVU135
	str	r3, [r2]
.LVL55:
	.loc 1 409 3 is_stmt 1 view .LVU136
.L23:
	.loc 1 469 1 is_stmt 0 view .LVU137
	pop	{r3, r4, r5, r6, r7, r8, r9, pc}
.LVL56:
.L27:
	.loc 1 423 3 is_stmt 1 view .LVU138
	.loc 1 423 13 is_stmt 0 view .LVU139
	add	ip, r0, #20
.LVL57:
	.loc 1 424 3 is_stmt 1 view .LVU140
	.loc 1 401 23 is_stmt 0 view .LVU141
	movs	r6, #0
	b	.L28
.LVL58:
.L30:
	.loc 1 434 4 is_stmt 1 view .LVU142
.LBB63:
.LBI63:
	.loc 2 83 216 view .LVU143
.LBB64:
	.loc 2 83 292 view .LVU144
	.loc 2 83 299 is_stmt 0 view .LVU145
	mov	r2, r3
.LVL59:
	.loc 2 83 299 view .LVU146
	add	r1, ip, r4
.LVL60:
	.loc 2 83 299 view .LVU147
	mov	r0, r8
.LVL61:
	.loc 2 83 299 view .LVU148
	bl	memcpy
.LVL62:
	.loc 2 83 299 view .LVU149
	b	.L31
.LVL63:
.L29:
	.loc 2 83 299 view .LVU150
.LBE64:
.LBE63:
	.loc 1 440 3 is_stmt 1 view .LVU151
	.loc 1 440 10 is_stmt 0 view .LVU152
	subs	r4, r4, r3
.LVL64:
	.loc 1 441 3 is_stmt 1 view .LVU153
	.loc 1 442 3 view .LVU154
	.loc 1 442 6 is_stmt 0 view .LVU155
	cbnz	r6, .L34
	.loc 1 443 4 is_stmt 1 view .LVU156
	.loc 1 443 9 is_stmt 0 view .LVU157
	ldr	r6, [r0, #20]
.LVL65:
	.loc 1 443 9 view .LVU158
	b	.L34
.L35:
	.loc 1 447 4 is_stmt 1 view .LVU159
	.loc 1 447 9 is_stmt 0 view .LVU160
	ldr	r6, [r6]
.LVL66:
	.loc 1 448 4 is_stmt 1 view .LVU161
	.loc 1 448 11 is_stmt 0 view .LVU162
	subs	r4, r4, #28
.LVL67:
.L34:
	.loc 1 446 9 is_stmt 1 view .LVU163
	cmp	r4, #27
	bhi	.L35
	.loc 1 446 9 is_stmt 0 view .LVU164
	b	.L38
.LVL68:
.L36:
	.loc 1 460 4 is_stmt 1 view .LVU165
	.loc 1 460 9 is_stmt 0 view .LVU166
	adds	r1, r6, r4
.LVL69:
.LBB65:
.LBI65:
	.loc 2 83 216 is_stmt 1 view .LVU167
.LBB66:
	.loc 2 83 292 view .LVU168
	.loc 2 83 299 is_stmt 0 view .LVU169
	mov	r2, r5
	adds	r1, r1, #4
.LVL70:
	.loc 2 83 299 view .LVU170
	mov	r0, r8
	bl	memcpy
.LVL71:
.L37:
	.loc 2 83 299 view .LVU171
.LBE66:
.LBE65:
	.loc 1 464 3 is_stmt 1 view .LVU172
	.loc 1 465 3 view .LVU173
	.loc 1 465 8 is_stmt 0 view .LVU174
	ldr	r6, [r6]
.LVL72:
	.loc 1 466 3 is_stmt 1 view .LVU175
	.loc 1 466 11 is_stmt 0 view .LVU176
	subs	r7, r7, r5
.LVL73:
	.loc 1 467 3 is_stmt 1 view .LVU177
	.loc 1 467 8 is_stmt 0 view .LVU178
	add	r8, r8, r5
.LVL74:
	.loc 1 464 10 view .LVU179
	movs	r4, #0
.LVL75:
.L38:
	.loc 1 452 8 is_stmt 1 view .LVU180
	cmp	r7, #0
	beq	.L23
	.loc 1 452 23 is_stmt 0 discriminator 1 view .LVU181
	cmp	r6, #0
	beq	.L23
	.loc 1 453 3 is_stmt 1 view .LVU182
	.loc 1 453 13 is_stmt 0 view .LVU183
	rsb	r5, r4, #28
.LVL76:
	.loc 1 454 3 is_stmt 1 view .LVU184
	.loc 1 454 11 is_stmt 0 view .LVU185
	cmp	r5, r7
	it	cs
	movcs	r5, r7
.LVL77:
	.loc 1 456 3 is_stmt 1 view .LVU186
	.loc 1 456 6 is_stmt 0 view .LVU187
	cmp	r9, #0
	beq	.L36
	.loc 1 457 4 is_stmt 1 view .LVU188
	.loc 1 457 9 is_stmt 0 view .LVU189
	adds	r0, r6, r4
.LVL78:
.LBB67:
.LBI67:
	.loc 2 83 216 is_stmt 1 view .LVU190
.LBB68:
	.loc 2 83 292 view .LVU191
	.loc 2 83 299 is_stmt 0 view .LVU192
	mov	r2, r5
	mov	r1, r8
	adds	r0, r0, #4
.LVL79:
	.loc 2 83 299 view .LVU193
	bl	memcpy
.LVL80:
	.loc 2 83 299 view .LVU194
	b	.L37
.LBE68:
.LBE67:
	.cfi_endproc
.LFE571:
	.size	log_msg_hexdump_data_op, .-log_msg_hexdump_data_op
	.section	.text.log_msg_pool_init,"ax",%progbits
	.align	1
	.global	log_msg_pool_init
	.syntax unified
	.thumb
	.thumb_func
	.fpu fpv4-sp-d16
	.type	log_msg_pool_init, %function
log_msg_pool_init:
.LFB554:
	.loc 1 48 1 is_stmt 1 view -0
	.cfi_startproc
	@ args = 0, pretend = 0, frame = 0
	@ frame_needed = 0, uses_anonymous_args = 0
	push	{r3, lr}
	.cfi_def_cfa_offset 8
	.cfi_offset 3, -8
	.cfi_offset 14, -4
	.loc 1 49 2 view .LVU196
	movs	r3, #0
	movs	r2, #32
	ldr	r1, .L44
	ldr	r0, .L44+4
	bl	k_mem_slab_init
.LVL81:
	.loc 1 50 1 is_stmt 0 view .LVU197
	pop	{r3, pc}
.L45:
	.align	2
.L44:
	.word	.LANCHOR1
	.word	.LANCHOR0
	.cfi_endproc
.LFE554:
	.size	log_msg_pool_init, .-log_msg_pool_init
	.section	.text.log_msg_get,"ax",%progbits
	.align	1
	.global	log_msg_get
	.syntax unified
	.thumb
	.thumb_func
	.fpu fpv4-sp-d16
	.type	log_msg_get, %function
log_msg_get:
.LVL82:
.LFB558:
	.loc 1 90 1 is_stmt 1 view -0
	.cfi_startproc
	@ args = 0, pretend = 0, frame = 0
	@ frame_needed = 0, uses_anonymous_args = 0
	@ link register save eliminated.
	.loc 1 91 2 view .LVU199
	adds	r0, r0, #4
.LVL83:
.LBB69:
.LBI69:
	.file 3 "/home/sebin/thesis/zephyrproject/zephyr/include/sys/atomic_builtin.h"
	.loc 3 108 28 view .LVU200
.LBE69:
	.loc 3 110 2 view .LVU201
.LBB72:
.LBB70:
.LBI70:
	.loc 3 77 28 view .LVU202
.LBB71:
	.loc 3 79 2 view .LVU203
	.loc 3 79 9 is_stmt 0 view .LVU204
	dmb	ish
.L47:
	ldrex	r3, [r0]
	adds	r3, r3, #1
	strex	r2, r3, [r0]
	cmp	r2, #0
	bne	.L47
	dmb	ish
.LVL84:
	.loc 3 79 9 view .LVU205
.LBE71:
.LBE70:
.LBE72:
	.loc 1 92 1 view .LVU206
	bx	lr
	.cfi_endproc
.LFE558:
	.size	log_msg_get, .-log_msg_get
	.section	.text.log_msg_no_space_handle,"ax",%progbits
	.align	1
	.global	log_msg_no_space_handle
	.syntax unified
	.thumb
	.thumb_func
	.fpu fpv4-sp-d16
	.type	log_msg_no_space_handle, %function
log_msg_no_space_handle:
.LFB561:
	.loc 1 167 1 is_stmt 1 view -0
	.cfi_startproc
	@ args = 0, pretend = 0, frame = 0
	@ frame_needed = 0, uses_anonymous_args = 0
	push	{r3, lr}
	.cfi_def_cfa_offset 8
	.cfi_offset 3, -8
	.cfi_offset 14, -4
	.loc 1 168 2 view .LVU208
.LVL85:
	.loc 1 169 1 view .LVU209
	.loc 1 170 2 view .LVU210
	.loc 1 172 2 view .LVU211
	.loc 1 181 3 view .LVU212
	movs	r0, #0
	bl	z_log_dropped
.LVL86:
	.loc 1 183 2 view .LVU213
	.loc 1 185 1 is_stmt 0 view .LVU214
	movs	r0, #0
	pop	{r3, pc}
	.cfi_endproc
.LFE561:
	.size	log_msg_no_space_handle, .-log_msg_no_space_handle
	.section	.text.log_msg_chunk_alloc,"ax",%progbits
	.align	1
	.global	log_msg_chunk_alloc
	.syntax unified
	.thumb
	.thumb_func
	.fpu fpv4-sp-d16
	.type	log_msg_chunk_alloc, %function
log_msg_chunk_alloc:
.LFB557:
	.loc 1 75 1 is_stmt 1 view -0
	.cfi_startproc
	@ args = 0, pretend = 0, frame = 8
	@ frame_needed = 0, uses_anonymous_args = 0
	push	{lr}
	.cfi_def_cfa_offset 4
	.cfi_offset 14, -4
	sub	sp, sp, #12
	.cfi_def_cfa_offset 16
	.loc 1 76 2 view .LVU216
	.loc 1 76 23 is_stmt 0 view .LVU217
	movs	r3, #0
	str	r3, [sp, #4]
	.loc 1 77 2 is_stmt 1 view .LVU218
	.loc 1 78 6 is_stmt 0 view .LVU219
	bl	block_on_alloc
.LVL87:
	.loc 1 77 12 view .LVU220
	cbz	r0, .L51
.LVL88:
	.file 4 "/home/sebin/thesis/zephyrproject/zephyr/include/sys/time_units.h"
	.loc 4 405 2 is_stmt 1 view .LVU221
	.loc 4 106 1 view .LVU222
	.loc 4 108 1 view .LVU223
	.loc 4 111 2 view .LVU224
	.loc 4 115 2 view .LVU225
	.loc 4 117 2 view .LVU226
	.loc 4 133 2 view .LVU227
	.loc 4 140 9 view .LVU228
	.loc 4 141 3 view .LVU229
	.loc 4 144 4 view .LVU230
	.loc 1 77 12 is_stmt 0 view .LVU231
	movs	r2, #0
	movs	r3, #0
.L52:
	.loc 1 77 12 discriminator 4 view .LVU232
	add	r1, sp, #4
	ldr	r0, .L56
	bl	k_mem_slab_alloc
.LVL89:
	.loc 1 82 2 is_stmt 1 discriminator 4 view .LVU233
	.loc 1 82 5 is_stmt 0 discriminator 4 view .LVU234
	cbnz	r0, .L55
.LVL90:
.L53:
	.loc 1 86 2 is_stmt 1 view .LVU235
	.loc 1 87 1 is_stmt 0 view .LVU236
	ldr	r0, [sp, #4]
	add	sp, sp, #12
	.cfi_remember_state
	.cfi_def_cfa_offset 4
	@ sp needed
	ldr	pc, [sp], #4
.L51:
	.cfi_restore_state
	.loc 1 77 12 discriminator 2 view .LVU237
	movs	r2, #0
	movs	r3, #0
	b	.L52
.LVL91:
.L55:
	.loc 1 83 3 is_stmt 1 view .LVU238
	.loc 1 83 9 is_stmt 0 view .LVU239
	bl	log_msg_no_space_handle
.LVL92:
	.loc 1 83 7 view .LVU240
	str	r0, [sp, #4]
	b	.L53
.L57:
	.align	2
.L56:
	.word	.LANCHOR0
	.cfi_endproc
.LFE557:
	.size	log_msg_chunk_alloc, .-log_msg_chunk_alloc
	.section	.text.log_msg_nargs_get,"ax",%progbits
	.align	1
	.global	log_msg_nargs_get
	.syntax unified
	.thumb
	.thumb_func
	.fpu fpv4-sp-d16
	.type	log_msg_nargs_get, %function
log_msg_nargs_get:
.LVL93:
.LFB563:
	.loc 1 196 1 is_stmt 1 view -0
	.cfi_startproc
	@ args = 0, pretend = 0, frame = 0
	@ frame_needed = 0, uses_anonymous_args = 0
	@ link register save eliminated.
	.loc 1 197 2 view .LVU242
	.loc 1 197 28 is_stmt 0 view .LVU243
	ldrb	r0, [r0, #9]	@ zero_extendqisi2
.LVL94:
	.loc 1 198 1 view .LVU244
	lsrs	r0, r0, #4
	bx	lr
	.cfi_endproc
.LFE563:
	.size	log_msg_nargs_get, .-log_msg_nargs_get
	.section	.text.log_msg_arg_get,"ax",%progbits
	.align	1
	.global	log_msg_arg_get
	.syntax unified
	.thumb
	.thumb_func
	.fpu fpv4-sp-d16
	.type	log_msg_arg_get, %function
log_msg_arg_get:
.LVL95:
.LFB565:
	.loc 1 221 1 is_stmt 1 view -0
	.cfi_startproc
	@ args = 0, pretend = 0, frame = 0
	@ frame_needed = 0, uses_anonymous_args = 0
	.loc 1 221 1 is_stmt 0 view .LVU246
	push	{r3, lr}
	.cfi_def_cfa_offset 8
	.cfi_offset 3, -8
	.cfi_offset 14, -4
	.loc 1 222 2 is_stmt 1 view .LVU247
	.loc 1 225 2 view .LVU248
	.loc 1 225 36 is_stmt 0 view .LVU249
	ldrb	r3, [r0, #9]	@ zero_extendqisi2
	.loc 1 225 5 view .LVU250
	cmp	r1, r3, lsr #4
	bcs	.L62
	lsrs	r2, r3, #4
	.loc 1 229 2 is_stmt 1 view .LVU251
	.loc 1 229 5 is_stmt 0 view .LVU252
	cmp	r2, #3
	bhi	.L61
	.loc 1 230 3 is_stmt 1 view .LVU253
	.loc 1 230 7 is_stmt 0 view .LVU254
	adds	r1, r1, #4
.LVL96:
	.loc 1 230 7 view .LVU255
	add	r0, r0, r1, lsl #2
.LVL97:
	.loc 1 230 7 view .LVU256
	ldr	r0, [r0, #4]
.LVL98:
	.loc 1 230 7 view .LVU257
	b	.L59
.LVL99:
.L61:
	.loc 1 232 3 is_stmt 1 view .LVU258
	.loc 1 232 9 is_stmt 0 view .LVU259
	bl	cont_arg_get
.LVL100:
	.loc 1 232 9 view .LVU260
	b	.L59
.LVL101:
.L62:
	.loc 1 226 10 view .LVU261
	movs	r0, #0
.LVL102:
.L59:
	.loc 1 236 1 view .LVU262
	pop	{r3, pc}
	.cfi_endproc
.LFE565:
	.size	log_msg_arg_get, .-log_msg_arg_get
	.section	.text.log_msg_str_get,"ax",%progbits
	.align	1
	.global	log_msg_str_get
	.syntax unified
	.thumb
	.thumb_func
	.fpu fpv4-sp-d16
	.type	log_msg_str_get, %function
log_msg_str_get:
.LVL103:
.LFB566:
	.loc 1 239 1 is_stmt 1 view -0
	.cfi_startproc
	@ args = 0, pretend = 0, frame = 0
	@ frame_needed = 0, uses_anonymous_args = 0
	@ link register save eliminated.
	.loc 1 240 2 view .LVU264
	.loc 1 241 1 is_stmt 0 view .LVU265
	ldr	r0, [r0, #16]
.LVL104:
	.loc 1 241 1 view .LVU266
	bx	lr
	.cfi_endproc
.LFE566:
	.size	log_msg_str_get, .-log_msg_str_get
	.section	.text.msg_free,"ax",%progbits
	.align	1
	.syntax unified
	.thumb
	.thumb_func
	.fpu fpv4-sp-d16
	.type	msg_free, %function
msg_free:
.LVL105:
.LFB560:
	.loc 1 106 1 is_stmt 1 view -0
	.cfi_startproc
	@ args = 0, pretend = 0, frame = 8
	@ frame_needed = 0, uses_anonymous_args = 0
	.loc 1 106 1 is_stmt 0 view .LVU268
	push	{r4, r5, r6, r7, lr}
	.cfi_def_cfa_offset 20
	.cfi_offset 4, -20
	.cfi_offset 5, -16
	.cfi_offset 6, -12
	.cfi_offset 7, -8
	.cfi_offset 14, -4
	sub	sp, sp, #12
	.cfi_def_cfa_offset 32
	str	r0, [sp, #4]
	.loc 1 107 2 is_stmt 1 view .LVU269
	.loc 1 107 19 is_stmt 0 view .LVU270
	mov	r4, r0
	bl	log_msg_nargs_get
.LVL106:
	.loc 1 110 2 is_stmt 1 view .LVU271
.LBB73:
.LBI73:
	.file 5 "/home/sebin/thesis/zephyrproject/zephyr/include/logging/log_msg.h"
	.loc 5 236 19 view .LVU272
.LBB74:
	.loc 5 238 2 view .LVU273
	.loc 5 238 39 is_stmt 0 view .LVU274
	ldrb	r3, [r4, #8]	@ zero_extendqisi2
.LVL107:
	.loc 5 238 39 view .LVU275
.LBE74:
.LBE73:
	.loc 1 110 5 view .LVU276
	tst	r3, #1
	bne	.L66
	mov	r6, r0
	.loc 1 110 26 discriminator 1 view .LVU277
	cbnz	r0, .L72
.LVL108:
.L66:
	.loc 1 156 3 is_stmt 1 view .LVU278
	.loc 1 159 2 view .LVU279
	.loc 1 159 9 is_stmt 0 view .LVU280
	ldr	r3, [sp, #4]
	.loc 1 159 34 view .LVU281
	ldrb	r2, [r3, #8]	@ zero_extendqisi2
	.loc 1 159 5 view .LVU282
	tst	r2, #2
	bne	.L74
.L71:
	.loc 1 163 2 is_stmt 1 view .LVU283
	add	r1, sp, #4
	ldr	r0, .L77
	bl	k_mem_slab_free
.LVL109:
	.loc 1 164 1 is_stmt 0 view .LVU284
	add	sp, sp, #12
	.cfi_remember_state
	.cfi_def_cfa_offset 20
	@ sp needed
	pop	{r4, r5, r6, r7, pc}
.LVL110:
.L75:
	.cfi_restore_state
.LBB75:
.LBB76:
	.loc 1 125 6 is_stmt 1 view .LVU285
	.loc 1 125 14 is_stmt 0 view .LVU286
	ldr	r0, [sp, #4]
	bl	log_msg_str_get
.LVL111:
	mov	r1, r6
	bl	z_log_get_s_mask
.LVL112:
	.loc 1 128 6 is_stmt 1 view .LVU287
	.loc 1 128 9 is_stmt 0 view .LVU288
	mov	r7, r0
	cbnz	r0, .L69
.LBE76:
	b	.L66
.LVL113:
.L76:
.LBB77:
	.loc 1 137 6 is_stmt 1 view .LVU289
	mov	r0, r5
	bl	z_log_free
.LVL114:
.L68:
	.loc 1 137 6 is_stmt 0 view .LVU290
.LBE77:
	.loc 1 114 27 is_stmt 1 discriminator 2 view .LVU291
	.loc 1 114 28 is_stmt 0 discriminator 2 view .LVU292
	adds	r4, r4, #1
.LVL115:
.L67:
	.loc 1 114 16 is_stmt 1 discriminator 1 view .LVU293
	.loc 1 114 3 is_stmt 0 discriminator 1 view .LVU294
	cmp	r4, r6
	bcs	.L66
.LBB78:
	.loc 1 115 4 is_stmt 1 view .LVU295
	.loc 1 115 24 is_stmt 0 view .LVU296
	mov	r1, r4
	ldr	r0, [sp, #4]
	bl	log_msg_arg_get
.LVL116:
	mov	r5, r0
.LVL117:
	.loc 1 117 4 is_stmt 1 view .LVU297
	.loc 1 117 8 is_stmt 0 view .LVU298
	bl	log_is_strdup
.LVL118:
	.loc 1 117 7 view .LVU299
	cmp	r0, #0
	beq	.L68
	.loc 1 118 5 is_stmt 1 view .LVU300
	.loc 1 118 8 is_stmt 0 view .LVU301
	cmp	r7, #0
	beq	.L75
.L69:
	.loc 1 136 5 is_stmt 1 view .LVU302
	.loc 1 136 9 is_stmt 0 view .LVU303
	lsr	r3, r7, r4
	.loc 1 136 8 view .LVU304
	tst	r3, #1
	beq	.L68
	.loc 1 136 8 view .LVU305
	b	.L76
.LVL119:
.L72:
	.loc 1 136 8 view .LVU306
.LBE78:
	.loc 1 112 12 view .LVU307
	movs	r7, #0
	.loc 1 114 10 view .LVU308
	mov	r4, r7
	b	.L67
.LVL120:
.L74:
	.loc 1 114 10 view .LVU309
.LBE75:
	.loc 1 160 3 is_stmt 1 view .LVU310
	ldr	r0, [r3, #20]
	bl	cont_free
.LVL121:
	b	.L71
.L78:
	.align	2
.L77:
	.word	.LANCHOR0
	.cfi_endproc
.LFE560:
	.size	msg_free, .-msg_free
	.section	.text.log_msg_put,"ax",%progbits
	.align	1
	.global	log_msg_put
	.syntax unified
	.thumb
	.thumb_func
	.fpu fpv4-sp-d16
	.type	log_msg_put, %function
log_msg_put:
.LVL122:
.LFB562:
	.loc 1 187 1 view -0
	.cfi_startproc
	@ args = 0, pretend = 0, frame = 0
	@ frame_needed = 0, uses_anonymous_args = 0
	.loc 1 187 1 is_stmt 0 view .LVU312
	push	{r3, lr}
	.cfi_def_cfa_offset 8
	.cfi_offset 3, -8
	.cfi_offset 14, -4
	.loc 1 188 2 is_stmt 1 view .LVU313
	adds	r3, r0, #4
.LVL123:
.LBB79:
.LBI79:
	.loc 3 123 28 view .LVU314
.LBE79:
	.loc 3 125 2 view .LVU315
.LBB82:
.LBB80:
.LBI80:
	.loc 3 93 28 view .LVU316
.LBB81:
	.loc 3 95 2 view .LVU317
	.loc 3 95 9 is_stmt 0 view .LVU318
	dmb	ish
.L81:
	ldrex	r2, [r3]
	subs	r2, r2, #1
	strex	r1, r2, [r3]
	cmp	r1, #0
	bne	.L81
	dmb	ish
.LVL124:
	.loc 3 95 9 view .LVU319
.LBE81:
.LBE80:
.LBE82:
	.loc 1 190 2 is_stmt 1 view .LVU320
	.loc 1 190 14 is_stmt 0 view .LVU321
	ldr	r3, [r0, #4]
	.loc 1 190 5 view .LVU322
	cbz	r3, .L83
.LVL125:
.L79:
	.loc 1 193 1 view .LVU323
	pop	{r3, pc}
.LVL126:
.L83:
	.loc 1 191 3 is_stmt 1 view .LVU324
	bl	msg_free
.LVL127:
	.loc 1 193 1 is_stmt 0 view .LVU325
	b	.L79
	.cfi_endproc
.LFE562:
	.size	log_msg_put, .-log_msg_put
	.section	.text.msg_alloc,"ax",%progbits
	.align	1
	.syntax unified
	.thumb
	.thumb_func
	.fpu fpv4-sp-d16
	.type	msg_alloc, %function
msg_alloc:
.LVL128:
.LFB567:
	.loc 1 254 1 is_stmt 1 view -0
	.cfi_startproc
	@ args = 0, pretend = 0, frame = 0
	@ frame_needed = 0, uses_anonymous_args = 0
	.loc 1 254 1 is_stmt 0 view .LVU327
	push	{r3, r4, r5, r6, r7, lr}
	.cfi_def_cfa_offset 24
	.cfi_offset 3, -24
	.cfi_offset 4, -20
	.cfi_offset 5, -16
	.cfi_offset 6, -12
	.cfi_offset 7, -8
	.cfi_offset 14, -4
	mov	r5, r0
	.loc 1 255 2 is_stmt 1 view .LVU328
	.loc 1 256 2 view .LVU329
	.loc 1 257 2 view .LVU330
.LBB83:
.LBI83:
	.loc 5 322 31 view .LVU331
.LBB84:
	.loc 5 324 2 view .LVU332
	.loc 5 324 42 is_stmt 0 view .LVU333
	bl	log_msg_chunk_alloc
.LVL129:
	.loc 5 326 2 is_stmt 1 view .LVU334
	.loc 5 326 5 is_stmt 0 view .LVU335
	mov	r7, r0
	cbz	r0, .L85
	.loc 5 328 3 is_stmt 1 view .LVU336
	.loc 5 328 20 is_stmt 0 view .LVU337
	movs	r3, #1
	str	r3, [r0, #4]
	.loc 5 329 3 is_stmt 1 view .LVU338
	.loc 5 329 23 is_stmt 0 view .LVU339
	movs	r2, #0
	strh	r2, [r0, #8]	@ movhi
	.loc 5 330 3 is_stmt 1 view .LVU340
	.loc 5 330 28 is_stmt 0 view .LVU341
	mov	r3, #0
	bfi	r3, r2, #0, #1
	strb	r3, [r0, #8]
	.loc 5 332 3 is_stmt 1 view .LVU342
.L85:
	.loc 5 340 2 view .LVU343
.LVL130:
	.loc 5 340 2 is_stmt 0 view .LVU344
.LBE84:
.LBE83:
	.loc 1 258 2 is_stmt 1 view .LVU345
	.loc 1 260 2 view .LVU346
	.loc 1 260 5 is_stmt 0 view .LVU347
	cbz	r7, .L84
	.loc 1 260 19 discriminator 1 view .LVU348
	cmp	r5, #3
	bls	.L84
	.loc 1 264 2 is_stmt 1 view .LVU349
	.loc 1 264 28 is_stmt 0 view .LVU350
	ldrb	r3, [r7, #9]	@ zero_extendqisi2
	bfc	r3, #4, #4
	strb	r3, [r7, #9]
	.loc 1 265 2 is_stmt 1 view .LVU351
	.loc 1 265 30 is_stmt 0 view .LVU352
	ldrb	r3, [r7, #8]	@ zero_extendqisi2
	orr	r3, r3, #2
	strb	r3, [r7, #8]
	.loc 1 266 2 is_stmt 1 view .LVU353
	.loc 1 266 4 is_stmt 0 view .LVU354
	subs	r5, r5, #2
.LVL131:
	.loc 1 267 2 is_stmt 1 view .LVU355
	.loc 1 267 7 is_stmt 0 view .LVU356
	add	r6, r7, #20
.LVL132:
	.loc 1 268 2 is_stmt 1 view .LVU357
	.loc 1 268 8 is_stmt 0 view .LVU358
	movs	r3, #0
	str	r3, [r7, #20]
	.loc 1 270 2 is_stmt 1 view .LVU359
.LVL133:
.L87:
	.loc 1 270 8 view .LVU360
	cmp	r5, #0
	ble	.L84
	.loc 1 271 3 view .LVU361
	.loc 1 271 33 is_stmt 0 view .LVU362
	bl	log_msg_chunk_alloc
.LVL134:
	.loc 1 273 3 is_stmt 1 view .LVU363
	.loc 1 273 6 is_stmt 0 view .LVU364
	mov	r4, r0
	cbz	r0, .L91
	.loc 1 278 3 is_stmt 1 view .LVU365
	.loc 1 278 9 is_stmt 0 view .LVU366
	str	r0, [r6]
	.loc 1 279 3 is_stmt 1 view .LVU367
	.loc 1 279 14 is_stmt 0 view .LVU368
	movs	r3, #0
	str	r3, [r0]
	.loc 1 280 3 is_stmt 1 view .LVU369
	.loc 1 280 8 is_stmt 0 view .LVU370
	mov	r6, r0
.LVL135:
	.loc 1 281 3 is_stmt 1 view .LVU371
	.loc 1 281 5 is_stmt 0 view .LVU372
	subs	r5, r5, #7
.LVL136:
	.loc 1 281 5 view .LVU373
	b	.L87
.LVL137:
.L91:
	.loc 1 274 4 is_stmt 1 view .LVU374
	mov	r0, r7
.LVL138:
	.loc 1 274 4 is_stmt 0 view .LVU375
	bl	msg_free
.LVL139:
	.loc 1 275 4 is_stmt 1 view .LVU376
	.loc 1 275 10 is_stmt 0 view .LVU377
	mov	r7, r4
.LVL140:
.L84:
	.loc 1 285 1 view .LVU378
	mov	r0, r7
	pop	{r3, r4, r5, r6, r7, pc}
	.loc 1 285 1 view .LVU379
	.cfi_endproc
.LFE567:
	.size	msg_alloc, .-msg_alloc
	.section	.text.log_msg_create_n,"ax",%progbits
	.align	1
	.global	log_msg_create_n
	.syntax unified
	.thumb
	.thumb_func
	.fpu fpv4-sp-d16
	.type	log_msg_create_n, %function
log_msg_create_n:
.LVL141:
.LFB569:
	.loc 1 314 1 is_stmt 1 view -0
	.cfi_startproc
	@ args = 0, pretend = 0, frame = 0
	@ frame_needed = 0, uses_anonymous_args = 0
	.loc 1 314 1 is_stmt 0 view .LVU381
	push	{r3, r4, r5, r6, r7, lr}
	.cfi_def_cfa_offset 24
	.cfi_offset 3, -24
	.cfi_offset 4, -20
	.cfi_offset 5, -16
	.cfi_offset 6, -12
	.cfi_offset 7, -8
	.cfi_offset 14, -4
	mov	r7, r0
	mov	r6, r1
	mov	r4, r2
	.loc 1 315 4 is_stmt 1 view .LVU382
	.loc 1 315 5 view .LVU383
	.loc 1 317 2 view .LVU384
.LVL142:
	.loc 1 319 2 view .LVU385
	.loc 1 319 8 is_stmt 0 view .LVU386
	mov	r0, r2
.LVL143:
	.loc 1 319 8 view .LVU387
	bl	msg_alloc
.LVL144:
	.loc 1 321 2 is_stmt 1 view .LVU388
	.loc 1 321 5 is_stmt 0 view .LVU389
	mov	r5, r0
	cbz	r0, .L92
	.loc 1 322 3 is_stmt 1 view .LVU390
	.loc 1 322 12 is_stmt 0 view .LVU391
	str	r7, [r0, #16]
	.loc 1 323 3 is_stmt 1 view .LVU392
	.loc 1 323 29 is_stmt 0 view .LVU393
	ldrb	r3, [r0, #9]	@ zero_extendqisi2
	bfi	r3, r4, #4, #4
.LVL145:
	.loc 1 323 29 view .LVU394
	strb	r3, [r0, #9]
	.loc 1 324 3 is_stmt 1 view .LVU395
	mov	r2, r4
	mov	r1, r6
	bl	copy_args_to_msg
.LVL146:
	.loc 1 327 2 view .LVU396
.L92:
	.loc 1 328 1 is_stmt 0 view .LVU397
	mov	r0, r5
	pop	{r3, r4, r5, r6, r7, pc}
	.loc 1 328 1 view .LVU398
	.cfi_endproc
.LFE569:
	.size	log_msg_create_n, .-log_msg_create_n
	.section	.text.log_msg_hexdump_create,"ax",%progbits
	.align	1
	.global	log_msg_hexdump_create
	.syntax unified
	.thumb
	.thumb_func
	.fpu fpv4-sp-d16
	.type	log_msg_hexdump_create, %function
log_msg_hexdump_create:
.LVL147:
.LFB570:
	.loc 1 333 1 is_stmt 1 view -0
	.cfi_startproc
	@ args = 0, pretend = 0, frame = 0
	@ frame_needed = 0, uses_anonymous_args = 0
	.loc 1 333 1 is_stmt 0 view .LVU400
	push	{r3, r4, r5, r6, r7, r8, r9, lr}
	.cfi_def_cfa_offset 32
	.cfi_offset 3, -32
	.cfi_offset 4, -28
	.cfi_offset 5, -24
	.cfi_offset 6, -20
	.cfi_offset 7, -16
	.cfi_offset 8, -12
	.cfi_offset 9, -8
	.cfi_offset 14, -4
	mov	r6, r0
	mov	r7, r1
	mov	r4, r2
	.loc 1 334 2 is_stmt 1 view .LVU401
	.loc 1 335 2 view .LVU402
	.loc 1 336 2 view .LVU403
	.loc 1 337 2 view .LVU404
	.loc 1 340 2 view .LVU405
	.loc 1 340 9 is_stmt 0 view .LVU406
	movw	r5, #16383
	cmp	r5, r2
	it	cs
	movcs	r5, r2
.LVL148:
	.loc 1 343 2 is_stmt 1 view .LVU407
	.loc 1 343 26 is_stmt 0 view .LVU408
	bl	log_msg_chunk_alloc
.LVL149:
	.loc 1 344 2 is_stmt 1 view .LVU409
	.loc 1 344 5 is_stmt 0 view .LVU410
	mov	r9, r0
	cmp	r0, #0
	beq	.L95
	.loc 1 349 2 is_stmt 1 view .LVU411
	.loc 1 349 19 is_stmt 0 view .LVU412
	movs	r3, #1
	str	r3, [r0, #4]
	.loc 1 350 2 is_stmt 1 view .LVU413
	.loc 1 350 31 is_stmt 0 view .LVU414
	ldrb	r3, [r0, #8]	@ zero_extendqisi2
	orr	r3, r3, #1
	strb	r3, [r0, #8]
	.loc 1 351 2 is_stmt 1 view .LVU415
	.loc 1 351 33 is_stmt 0 view .LVU416
	ldrh	r3, [r0, #8]
	bfi	r3, r5, #2, #14
	strh	r3, [r0, #8]	@ movhi
	.loc 1 352 2 is_stmt 1 view .LVU417
	.loc 1 352 11 is_stmt 0 view .LVU418
	str	r6, [r0, #16]
	.loc 1 355 2 is_stmt 1 view .LVU419
	.loc 1 355 5 is_stmt 0 view .LVU420
	cmp	r4, #12
	bls	.L97
	.loc 1 356 3 is_stmt 1 view .LVU421
.LVL150:
.LBB85:
.LBI85:
	.loc 2 83 216 view .LVU422
.LBB86:
	.loc 2 83 292 view .LVU423
	.loc 2 83 299 is_stmt 0 view .LVU424
	ldr	r2, [r7]	@ unaligned
	ldr	r3, [r7, #4]	@ unaligned
	str	r2, [r0, #24]	@ unaligned
	str	r3, [r0, #28]	@ unaligned
.LVL151:
	.loc 2 83 299 view .LVU425
.LBE86:
.LBE85:
	.loc 1 359 3 is_stmt 1 view .LVU426
	.loc 1 359 25 is_stmt 0 view .LVU427
	movs	r3, #0
	str	r3, [r0, #20]
	.loc 1 360 3 is_stmt 1 view .LVU428
	.loc 1 360 31 is_stmt 0 view .LVU429
	ldrb	r3, [r0, #8]	@ zero_extendqisi2
	orr	r3, r3, #2
	strb	r3, [r0, #8]
	.loc 1 362 3 is_stmt 1 view .LVU430
	.loc 1 362 8 is_stmt 0 view .LVU431
	adds	r7, r7, #8
.LVL152:
	.loc 1 363 3 is_stmt 1 view .LVU432
	.loc 1 363 10 is_stmt 0 view .LVU433
	subs	r5, r5, #8
.LVL153:
.L98:
	.loc 1 370 2 is_stmt 1 view .LVU434
	.loc 1 370 12 is_stmt 0 view .LVU435
	add	r8, r9, #20
.LVL154:
	.loc 1 372 2 is_stmt 1 view .LVU436
.L99:
	.loc 1 372 8 view .LVU437
	cbz	r5, .L95
	.loc 1 373 3 view .LVU438
	.loc 1 373 33 is_stmt 0 view .LVU439
	bl	log_msg_chunk_alloc
.LVL155:
	.loc 1 374 3 is_stmt 1 view .LVU440
	.loc 1 374 6 is_stmt 0 view .LVU441
	mov	r4, r0
	cbz	r0, .L103
	.loc 1 379 3 is_stmt 1 view .LVU442
	.loc 1 379 14 is_stmt 0 view .LVU443
	str	r0, [r8]
	.loc 1 380 3 is_stmt 1 view .LVU444
	.loc 1 380 14 is_stmt 0 view .LVU445
	movs	r3, #0
	str	r3, [r0]
	.loc 1 381 3 is_stmt 1 view .LVU446
	.loc 1 381 13 is_stmt 0 view .LVU447
	mov	r8, r0
.LVL156:
	.loc 1 383 3 is_stmt 1 view .LVU448
	.loc 1 383 16 is_stmt 0 view .LVU449
	mov	r6, r5
	cmp	r5, #28
	it	cs
	movcs	r6, #28
.LVL157:
	.loc 1 386 3 is_stmt 1 view .LVU450
.LBB87:
.LBI87:
	.loc 2 83 216 view .LVU451
.LBB88:
	.loc 2 83 292 view .LVU452
	.loc 2 83 299 is_stmt 0 view .LVU453
	mov	r2, r6
	mov	r1, r7
	adds	r0, r0, #4
.LVL158:
	.loc 2 83 299 view .LVU454
	bl	memcpy
.LVL159:
	.loc 2 83 299 view .LVU455
.LBE88:
.LBE87:
	.loc 1 387 3 is_stmt 1 view .LVU456
	.loc 1 387 8 is_stmt 0 view .LVU457
	add	r7, r7, r6
.LVL160:
	.loc 1 388 3 is_stmt 1 view .LVU458
	.loc 1 388 10 is_stmt 0 view .LVU459
	subs	r5, r5, r6
.LVL161:
	.loc 1 388 10 view .LVU460
	b	.L99
.LVL162:
.L97:
	.loc 1 365 3 is_stmt 1 view .LVU461
.LBB89:
.LBI89:
	.loc 2 83 216 view .LVU462
.LBB90:
	.loc 2 83 292 view .LVU463
	.loc 2 83 299 is_stmt 0 view .LVU464
	mov	r2, r5
	mov	r1, r7
	adds	r0, r0, #20
.LVL163:
	.loc 2 83 299 view .LVU465
	bl	memcpy
.LVL164:
	.loc 2 83 299 view .LVU466
.LBE90:
.LBE89:
	.loc 1 366 3 is_stmt 1 view .LVU467
	.loc 1 366 31 is_stmt 0 view .LVU468
	ldrb	r3, [r9, #8]	@ zero_extendqisi2
	bfc	r3, #1, #1
	strb	r3, [r9, #8]
	.loc 1 367 3 is_stmt 1 view .LVU469
.LVL165:
	.loc 1 367 10 is_stmt 0 view .LVU470
	movs	r5, #0
	b	.L98
.LVL166:
.L103:
	.loc 1 375 4 is_stmt 1 view .LVU471
	mov	r0, r9
.LVL167:
	.loc 1 375 4 is_stmt 0 view .LVU472
	bl	msg_free
.LVL168:
	.loc 1 376 4 is_stmt 1 view .LVU473
	.loc 1 376 10 is_stmt 0 view .LVU474
	mov	r9, r4
.LVL169:
.L95:
	.loc 1 392 1 view .LVU475
	mov	r0, r9
	pop	{r3, r4, r5, r6, r7, r8, r9, pc}
	.loc 1 392 1 view .LVU476
	.cfi_endproc
.LFE570:
	.size	log_msg_hexdump_create, .-log_msg_hexdump_create
	.section	.text.log_msg_hexdump_data_put,"ax",%progbits
	.align	1
	.global	log_msg_hexdump_data_put
	.syntax unified
	.thumb
	.thumb_func
	.fpu fpv4-sp-d16
	.type	log_msg_hexdump_data_put, %function
log_msg_hexdump_data_put:
.LVL170:
.LFB572:
	.loc 1 475 1 is_stmt 1 view -0
	.cfi_startproc
	@ args = 0, pretend = 0, frame = 0
	@ frame_needed = 0, uses_anonymous_args = 0
	.loc 1 475 1 is_stmt 0 view .LVU478
	push	{r4, lr}
	.cfi_def_cfa_offset 8
	.cfi_offset 4, -8
	.cfi_offset 14, -4
	sub	sp, sp, #8
	.cfi_def_cfa_offset 16
	.loc 1 476 2 is_stmt 1 view .LVU479
	movs	r4, #1
	str	r4, [sp]
	bl	log_msg_hexdump_data_op
.LVL171:
	.loc 1 477 1 is_stmt 0 view .LVU480
	add	sp, sp, #8
	.cfi_def_cfa_offset 8
	@ sp needed
	pop	{r4, pc}
	.cfi_endproc
.LFE572:
	.size	log_msg_hexdump_data_put, .-log_msg_hexdump_data_put
	.section	.text.log_msg_hexdump_data_get,"ax",%progbits
	.align	1
	.global	log_msg_hexdump_data_get
	.syntax unified
	.thumb
	.thumb_func
	.fpu fpv4-sp-d16
	.type	log_msg_hexdump_data_get, %function
log_msg_hexdump_data_get:
.LVL172:
.LFB573:
	.loc 1 483 1 is_stmt 1 view -0
	.cfi_startproc
	@ args = 0, pretend = 0, frame = 0
	@ frame_needed = 0, uses_anonymous_args = 0
	.loc 1 483 1 is_stmt 0 view .LVU482
	push	{r4, lr}
	.cfi_def_cfa_offset 8
	.cfi_offset 4, -8
	.cfi_offset 14, -4
	sub	sp, sp, #8
	.cfi_def_cfa_offset 16
	.loc 1 484 2 is_stmt 1 view .LVU483
	movs	r4, #0
	str	r4, [sp]
	bl	log_msg_hexdump_data_op
.LVL173:
	.loc 1 485 1 is_stmt 0 view .LVU484
	add	sp, sp, #8
	.cfi_def_cfa_offset 8
	@ sp needed
	pop	{r4, pc}
	.cfi_endproc
.LFE573:
	.size	log_msg_hexdump_data_get, .-log_msg_hexdump_data_get
	.section	.text.log_msg_mem_get_free,"ax",%progbits
	.align	1
	.global	log_msg_mem_get_free
	.syntax unified
	.thumb
	.thumb_func
	.fpu fpv4-sp-d16
	.type	log_msg_mem_get_free, %function
log_msg_mem_get_free:
.LFB574:
	.loc 1 488 1 is_stmt 1 view -0
	.cfi_startproc
	@ args = 0, pretend = 0, frame = 0
	@ frame_needed = 0, uses_anonymous_args = 0
	@ link register save eliminated.
	.loc 1 489 2 view .LVU486
.LVL174:
.LBB91:
.LBI91:
	.file 6 "/home/sebin/thesis/zephyrproject/zephyr/include/kernel.h"
	.loc 6 5064 24 view .LVU487
.LBB92:
	.loc 6 5066 2 view .LVU488
	.loc 6 5066 13 is_stmt 0 view .LVU489
	ldr	r3, .L109
	ldr	r0, [r3, #12]
	.loc 6 5066 32 view .LVU490
	ldr	r3, [r3, #28]
.LVL175:
	.loc 6 5066 32 view .LVU491
.LBE92:
.LBE91:
	.loc 1 490 1 view .LVU492
	subs	r0, r0, r3
	bx	lr
.L110:
	.align	2
.L109:
	.word	.LANCHOR0
	.cfi_endproc
.LFE574:
	.size	log_msg_mem_get_free, .-log_msg_mem_get_free
	.section	.text.log_msg_mem_get_used,"ax",%progbits
	.align	1
	.global	log_msg_mem_get_used
	.syntax unified
	.thumb
	.thumb_func
	.fpu fpv4-sp-d16
	.type	log_msg_mem_get_used, %function
log_msg_mem_get_used:
.LFB575:
	.loc 1 493 1 is_stmt 1 view -0
	.cfi_startproc
	@ args = 0, pretend = 0, frame = 0
	@ frame_needed = 0, uses_anonymous_args = 0
	@ link register save eliminated.
	.loc 1 494 2 view .LVU494
.LVL176:
.LBB93:
.LBI93:
	.loc 6 5029 24 view .LVU495
.LBB94:
	.loc 6 5031 2 view .LVU496
	.loc 6 5031 2 is_stmt 0 view .LVU497
.LBE94:
.LBE93:
	.loc 1 495 1 view .LVU498
	ldr	r3, .L112
	ldr	r0, [r3, #28]
	bx	lr
.L113:
	.align	2
.L112:
	.word	.LANCHOR0
	.cfi_endproc
.LFE575:
	.size	log_msg_mem_get_used, .-log_msg_mem_get_used
	.section	.text.log_msg_mem_get_max_used,"ax",%progbits
	.align	1
	.global	log_msg_mem_get_max_used
	.syntax unified
	.thumb
	.thumb_func
	.fpu fpv4-sp-d16
	.type	log_msg_mem_get_max_used, %function
log_msg_mem_get_max_used:
.LFB576:
	.loc 1 498 1 is_stmt 1 view -0
	.cfi_startproc
	@ args = 0, pretend = 0, frame = 0
	@ frame_needed = 0, uses_anonymous_args = 0
	@ link register save eliminated.
	.loc 1 499 2 view .LVU500
.LVL177:
	.loc 6 5049 2 view .LVU501
	.loc 6 5050 2 view .LVU502
	.loc 1 500 1 is_stmt 0 view .LVU503
	movs	r0, #0
	bx	lr
	.cfi_endproc
.LFE576:
	.size	log_msg_mem_get_max_used, .-log_msg_mem_get_max_used
	.global	log_msg_pool
	.section	.bss.log_msg_pool,"aw",%nobits
	.align	2
	.set	.LANCHOR0,. + 0
	.type	log_msg_pool, %object
	.size	log_msg_pool, 32
log_msg_pool:
	.space	32
	.section	.noinit."WEST_TOPDIR/zephyr/subsys/logging/log_msg.c".0,"aw"
	.align	2
	.set	.LANCHOR1,. + 0
	.type	log_msg_pool_buf, %object
	.size	log_msg_pool_buf, 0
log_msg_pool_buf:
	.text
.Letext0:
	.file 7 "/home/sebin/LIOT/gcc-arm-none-eabi-9-2019-q4-major/lib/gcc/arm-none-eabi/9.2.1/include/stddef.h"
	.file 8 "/home/sebin/LIOT/gcc-arm-none-eabi-9-2019-q4-major/arm-none-eabi/include/machine/_default_types.h"
	.file 9 "/home/sebin/LIOT/gcc-arm-none-eabi-9-2019-q4-major/arm-none-eabi/include/sys/_stdint.h"
	.file 10 "/home/sebin/thesis/zephyrproject/zephyr/include/sys/atomic.h"
	.file 11 "/home/sebin/LIOT/gcc-arm-none-eabi-9-2019-q4-major/lib/gcc/arm-none-eabi/9.2.1/include/stdarg.h"
	.file 12 "/home/sebin/thesis/zephyrproject/zephyr/include/sys/dlist.h"
	.file 13 "/home/sebin/thesis/zephyrproject/zephyr/include/sys/rb.h"
	.file 14 "/home/sebin/thesis/zephyrproject/zephyr/include/sys/slist.h"
	.file 15 "/home/sebin/thesis/zephyrproject/zephyr/include/sys/sys_heap.h"
	.file 16 "/home/sebin/thesis/zephyrproject/zephyr/include/kernel_structs.h"
	.file 17 "/home/sebin/thesis/zephyrproject/zephyr/include/kernel/thread.h"
	.file 18 "/home/sebin/thesis/zephyrproject/zephyr/include/arch/arm/aarch32/thread.h"
	.file 19 "/home/sebin/thesis/zephyrproject/zephyr/include/arch/arm/aarch32/exc.h"
	.file 20 "/home/sebin/thesis/zephyrproject/zephyr/include/sw_isr_table.h"
	.file 21 "/home/sebin/thesis/zephyrproject/modules/hal/infineon/XMCLib/devices/XMC4500/Include/system_XMC4500.h"
	.file 22 "/home/sebin/thesis/zephyrproject/modules/hal/cmsis/CMSIS/Core/Include/core_cm4.h"
	.file 23 "/home/sebin/thesis/zephyrproject/zephyr/include/arch/arm/aarch32/mpu/arm_mpu_v7m.h"
	.file 24 "/home/sebin/thesis/zephyrproject/zephyr/include/arch/arm/aarch32/mpu/arm_mpu.h"
	.file 25 "/home/sebin/thesis/zephyrproject/zephyr/include/sys_clock.h"
	.file 26 "/home/sebin/thesis/zephyrproject/zephyr/include/spinlock.h"
	.file 27 "/home/sebin/LIOT/gcc-arm-none-eabi-9-2019-q4-major/arm-none-eabi/include/sys/lock.h"
	.file 28 "/home/sebin/LIOT/gcc-arm-none-eabi-9-2019-q4-major/arm-none-eabi/include/sys/_types.h"
	.file 29 "/home/sebin/LIOT/gcc-arm-none-eabi-9-2019-q4-major/arm-none-eabi/include/sys/reent.h"
	.file 30 "/home/sebin/LIOT/gcc-arm-none-eabi-9-2019-q4-major/arm-none-eabi/include/sys/errno.h"
	.file 31 "/home/sebin/thesis/zephyrproject/zephyr/include/logging/log_instance.h"
	.file 32 "/home/sebin/thesis/zephyrproject/zephyr/include/sys/mpsc_packet.h"
	.file 33 "/home/sebin/thesis/zephyrproject/zephyr/include/logging/log_msg2.h"
	.file 34 "/home/sebin/thesis/zephyrproject/zephyr/include/logging/log_core.h"
	.file 35 "/home/sebin/thesis/zephyrproject/zephyr/include/logging/log_backend.h"
	.file 36 "/home/sebin/thesis/zephyrproject/zephyr/include/logging/log_internal.h"
	.file 37 "<built-in>"
	.file 38 "/home/sebin/thesis/zephyrproject/zephyr/include/arch/structs.h"