	.cpu cortex-m4
	.eabi_attribute 27, 1
	.eabi_attribute 28, 1
	.eabi_attribute 20, 1
	.eabi_attribute 21, 1
	.eabi_attribute 23, 3
	.eabi_attribute 24, 1
	.eabi_attribute 25, 1
	.eabi_attribute 26, 1
	.eabi_attribute 30, 1
	.eabi_attribute 34, 1
	.eabi_attribute 38, 1
	.eabi_attribute 18, 4
	.file	"cbprintf_packaged.c"
	.text
.Ltext0:
	.cfi_sections	.debug_frame
	.section	.text.cbprintf_via_va_list,"ax",%progbits
	.align	1
	.arch armv7e-m
	.syntax unified
	.thumb
	.thumb_func
	.fpu fpv4-sp-d16
	.type	cbprintf_via_va_list, %function
cbprintf_via_va_list:
.LVL0:
.LFB19:
	.file 1 "/home/sebin/thesis/zephyrproject/zephyr/lib/os/cbprintf_packaged.c"
	.loc 1 183 1 view -0
	.cfi_startproc
	@ args = 4, pretend = 0, frame = 0
	@ frame_needed = 0, uses_anonymous_args = 0
	.loc 1 183 1 is_stmt 0 view .LVU1
	push	{r4, lr}
	.cfi_def_cfa_offset 8
	.cfi_offset 4, -8
	.cfi_offset 14, -4
	mov	r4, r1
	mov	r1, r2
.LVL1:
	.loc 1 183 1 view .LVU2
	mov	r2, r3
.LVL2:
	.loc 1 184 2 is_stmt 1 view .LVU3
	.loc 1 189 2 view .LVU4
	.loc 1 191 2 view .LVU5
	.loc 1 191 9 is_stmt 0 view .LVU6
	ldr	r3, [sp, #8]
.LVL3:
	.loc 1 191 9 view .LVU7
	blx	r4
.LVL4:
	.loc 1 192 1 view .LVU8
	pop	{r4, pc}
	.loc 1 192 1 view .LVU9
	.cfi_endproc
.LFE19:
	.size	cbprintf_via_va_list, .-cbprintf_via_va_list
	.section	.text.cbvprintf_package,"ax",%progbits
	.align	1
	.global	cbvprintf_package
	.syntax unified
	.thumb
	.thumb_func
	.fpu fpv4-sp-d16
	.type	cbvprintf_package, %function
cbvprintf_package:
.LVL5:
.LFB20:
	.loc 1 198 1 is_stmt 1 view -0
	.cfi_startproc
	@ args = 4, pretend = 0, frame = 40
	@ frame_needed = 0, uses_anonymous_args = 0
	.loc 1 198 1 is_stmt 0 view .LVU11
	push	{r4, r5, r6, r7, r8, r9, r10, fp, lr}
	.cfi_def_cfa_offset 36
	.cfi_offset 4, -36
	.cfi_offset 5, -32
	.cfi_offset 6, -28
	.cfi_offset 7, -24
	.cfi_offset 8, -20
	.cfi_offset 9, -16
	.cfi_offset 10, -12
	.cfi_offset 11, -8
	.cfi_offset 14, -4
	sub	sp, sp, #44
	.cfi_def_cfa_offset 80
	str	r2, [sp, #12]
	.loc 1 210 2 is_stmt 1 view .LVU12
.LVL6:
	.loc 1 211 2 view .LVU13
	.loc 1 212 2 view .LVU14
	.loc 1 213 2 view .LVU15
	.loc 1 214 2 view .LVU16
	.loc 1 215 2 view .LVU17
	.loc 1 216 2 view .LVU18
	.loc 1 217 2 view .LVU19
	.loc 1 218 2 view .LVU20
	.loc 1 219 2 view .LVU21
	.loc 1 220 1 view .LVU22
	.loc 1 223 2 view .LVU23
	.loc 1 223 6 is_stmt 0 view .LVU24
	str	r0, [sp, #4]
	.loc 1 223 5 view .LVU25
	ands	r10, r0, #3
	bne	.L50
	mov	r9, r0
	mov	fp, r1
	.loc 1 242 2 is_stmt 1 view .LVU26
	.loc 1 242 6 is_stmt 0 view .LVU27
	adds	r4, r0, #4
.LVL7:
	.loc 1 250 2 is_stmt 1 view .LVU28
	.loc 1 250 5 is_stmt 0 view .LVU29
	cbz	r0, .L67
.LVL8:
.L5:
	.loc 1 272 2 is_stmt 1 view .LVU30
	.loc 1 272 5 is_stmt 0 view .LVU31
	cmp	r9, #0
	beq	.L6
	.loc 1 272 37 discriminator 1 view .LVU32
	sub	r2, r4, r9
.LVL9:
	.loc 1 272 56 discriminator 1 view .LVU33
	adds	r2, r2, #4
	.loc 1 272 18 discriminator 1 view .LVU34
	cmp	r2, fp
	bhi	.L51
.L6:
	.loc 1 283 2 is_stmt 1 view .LVU35
	.loc 1 283 9 is_stmt 0 view .LVU36
	subs	r7, r3, #1
.LVL10:
	.loc 1 284 2 is_stmt 1 view .LVU37
	.loc 1 285 2 view .LVU38
	.loc 1 286 2 view .LVU39
	.loc 1 217 15 is_stmt 0 view .LVU40
	str	r10, [sp]
	.loc 1 216 15 view .LVU41
	str	r10, [sp, #16]
	.loc 1 215 15 view .LVU42
	str	r10, [sp, #8]
	.loc 1 220 6 view .LVU43
	movs	r5, #0
	.loc 1 284 8 view .LVU44
	movs	r6, #4
	.loc 1 285 7 view .LVU45
	mov	r8, r6
	str	r10, [sp, #20]
	ldr	r10, [sp, #4]
.LVL11:
.L7:
.LBB30:
	.loc 1 428 4 is_stmt 1 view .LVU46
	.loc 1 428 7 is_stmt 0 view .LVU47
	cmp	r9, #0
	beq	.L27
	.loc 1 429 5 is_stmt 1 view .LVU48
	.loc 1 429 25 is_stmt 0 view .LVU49
	str	r3, [r4]
.L27:
	.loc 1 432 3 is_stmt 1 view .LVU50
.LVL12:
.LBB31:
.LBI31:
	.loc 1 24 19 view .LVU51
.LBB32:
	.loc 1 35 2 view .LVU52
	.loc 1 36 2 view .LVU53
	.loc 1 49 2 view .LVU54
	.loc 1 49 56 is_stmt 0 view .LVU55
	ldr	r2, .L81
	cmp	r3, r2
	bcc	.L57
	ldr	r2, .L81+4
	cmp	r3, r2
	bcc	.L58
	movs	r2, #0
	b	.L28
.LVL13:
.L67:
	.loc 1 49 56 view .LVU56
.LBE32:
.LBE31:
.LBE30:
	.loc 1 251 3 is_stmt 1 view .LVU57
	.loc 1 251 14 is_stmt 0 view .LVU58
	and	fp, r1, #7
	.loc 1 251 7 view .LVU59
	add	r4, r4, fp
.LVL14:
	.loc 1 265 3 is_stmt 1 view .LVU60
	.loc 1 265 7 is_stmt 0 view .LVU61
	rsb	fp, fp, #8
.LVL15:
	.loc 1 265 7 view .LVU62
	b	.L5
.LVL16:
.L70:
	.loc 1 291 4 is_stmt 1 view .LVU63
	.loc 1 291 7 is_stmt 0 view .LVU64
	cmp	r3, #37
	beq	.L68
.LVL17:
.L10:
	.loc 1 290 6 view .LVU65
	mov	r7, ip
.LVL18:
.L36:
	.loc 1 289 8 is_stmt 1 view .LVU66
	add	ip, r7, #1
.LVL19:
	.loc 1 289 9 is_stmt 0 view .LVU67
	ldrb	r3, [r7, #1]	@ zero_extendqisi2
	.loc 1 289 8 view .LVU68
	cmp	r3, #0
	beq	.L69
	.loc 1 290 3 is_stmt 1 view .LVU69
	.loc 1 290 6 is_stmt 0 view .LVU70
	cmp	r5, #0
	beq	.L70
	.loc 1 298 3 is_stmt 1 view .LVU71
	sub	r2, r3, #32
	cmp	r2, #90
	bhi	.L11
	adr	r1, .L13
	ldr	pc, [r1, r2, lsl #2]
	.p2align 2
.L13:
	.word	.L10+1
	.word	.L11+1
	.word	.L11+1
	.word	.L10+1
	.word	.L11+1
	.word	.L11+1
	.word	.L11+1
	.word	.L11+1
	.word	.L11+1
	.word	.L11+1
	.word	.L16+1
	.word	.L10+1
	.word	.L11+1
	.word	.L10+1
	.word	.L10+1
	.word	.L11+1
	.word	.L10+1
	.word	.L10+1
	.word	.L10+1
	.word	.L10+1
	.word	.L10+1
	.word	.L10+1
	.word	.L10+1
	.word	.L10+1
	.word	.L10+1
	.word	.L10+1
	.word	.L11+1
	.word	.L11+1
	.word	.L11+1
	.word	.L11+1
	.word	.L11+1
	.word	.L11+1
	.word	.L11+1
	.word	.L18+1
	.word	.L11+1
	.word	.L11+1
	.word	.L11+1
	.word	.L18+1
	.word	.L18+1
	.word	.L18+1
	.word	.L11+1
	.word	.L11+1
	.word	.L11+1
	.word	.L11+1
	.word	.L10+1
	.word	.L11+1
	.word	.L11+1
	.word	.L11+1
	.word	.L11+1
	.word	.L11+1
	.word	.L11+1
	.word	.L11+1
	.word	.L11+1
	.word	.L11+1
	.word	.L11+1
	.word	.L11+1
	.word	.L14+1
	.word	.L11+1
	.word	.L11+1
	.word	.L11+1
	.word	.L11+1
	.word	.L11+1
	.word	.L11+1
	.word	.L11+1
	.word	.L11+1
	.word	.L18+1
	.word	.L11+1
	.word	.L14+1
	.word	.L14+1
	.word	.L18+1
	.word	.L18+1
	.word	.L18+1
	.word	.L10+1
	.word	.L14+1
	.word	.L17+1
	.word	.L11+1
	.word	.L10+1
	.word	.L11+1
	.word	.L53+1
	.word	.L14+1
	.word	.L53+1
	.word	.L11+1
	.word	.L11+1
	.word	.L53+1
	.word	.L15+1
	.word	.L14+1
	.word	.L11+1
	.word	.L11+1
	.word	.L14+1
	.word	.L11+1
	.word	.L12+1
	.p2align 1
.L68:
	.loc 1 292 13 is_stmt 0 view .LVU72
	movs	r5, #1
.LVL20:
	.loc 1 293 11 view .LVU73
	movs	r6, #4
.LVL21:
	.loc 1 294 10 view .LVU74
	mov	r8, r6
.LVL22:
	.loc 1 296 4 is_stmt 1 view .LVU75
	b	.L10
.LVL23:
.L11:
	.loc 1 290 6 is_stmt 0 view .LVU76
	movs	r5, #0
.LVL24:
	.loc 1 290 6 view .LVU77
	b	.L10
.LVL25:
.L17:
	.loc 1 327 4 is_stmt 1 view .LVU78
	.loc 1 328 4 view .LVU79
	.loc 1 329 4 view .LVU80
	.loc 1 327 10 is_stmt 0 view .LVU81
	movs	r6, #8
	.loc 1 328 9 view .LVU82
	mov	r8, r6
	.loc 1 329 4 view .LVU83
	b	.L10
.LVL26:
.L12:
	.loc 1 332 4 is_stmt 1 view .LVU84
	.loc 1 333 4 view .LVU85
	.loc 1 334 4 view .LVU86
	.loc 1 332 10 is_stmt 0 view .LVU87
	movs	r6, #4
	.loc 1 333 9 view .LVU88
	mov	r8, r6
	.loc 1 334 4 view .LVU89
	b	.L10
.LVL27:
.L15:
	.loc 1 337 4 is_stmt 1 view .LVU90
	.loc 1 338 4 view .LVU91
	.loc 1 339 4 view .LVU92
	.loc 1 337 10 is_stmt 0 view .LVU93
	movs	r6, #4
	.loc 1 338 9 view .LVU94
	mov	r8, r6
	.loc 1 339 4 view .LVU95
	b	.L10
.LVL28:
.L14:
	.loc 1 348 4 is_stmt 1 view .LVU96
	.loc 1 348 11 is_stmt 0 view .LVU97
	ldrb	r2, [r7]	@ zero_extendqisi2
	.loc 1 348 7 view .LVU98
	cmp	r2, #108
	beq	.L71
	.loc 1 357 12 view .LVU99
	movs	r5, #0
.LVL29:
.L16:
	.loc 1 417 3 is_stmt 1 view .LVU100
	.loc 1 417 41 is_stmt 0 view .LVU101
	add	r2, lr, r6
	subs	r2, r2, #1
	.loc 1 417 75 view .LVU102
	rsbs	r1, r6, #0
	.loc 1 417 73 view .LVU103
	ands	r2, r2, r1
	.loc 1 417 7 view .LVU104
	mov	r0, r2
.LVL30:
	.loc 1 420 3 is_stmt 1 view .LVU105
	.loc 1 420 6 is_stmt 0 view .LVU106
	cbz	r4, .L25
	.loc 1 420 38 discriminator 1 view .LVU107
	sub	r1, r2, r10
	.loc 1 420 57 discriminator 1 view .LVU108
	add	r1, r1, r8
	.loc 1 420 19 discriminator 1 view .LVU109
	cmp	fp, r1
	bcc	.L56
.L25:
	.loc 1 425 3 is_stmt 1 view .LVU110
	.loc 1 425 6 is_stmt 0 view .LVU111
	cmp	r3, #115
	beq	.L72
	.loc 1 486 10 is_stmt 1 view .LVU112
	.loc 1 486 13 is_stmt 0 view .LVU113
	cmp	r8, #4
	beq	.L73
	.loc 1 493 10 is_stmt 1 view .LVU114
	.loc 1 500 10 view .LVU115
	.loc 1 500 13 is_stmt 0 view .LVU116
	cmp	r8, #8
	bne	.L61
.LBB40:
	.loc 1 501 4 is_stmt 1 view .LVU117
	.loc 1 501 17 is_stmt 0 view .LVU118
	ldr	r3, [sp, #80]
	adds	r3, r3, #7
	bic	r3, r3, #7
	add	r1, r3, #8
	str	r1, [sp, #80]
	ldrd	r0, [r3]
.LVL31:
	.loc 1 503 4 is_stmt 1 view .LVU119
	.loc 1 503 7 is_stmt 0 view .LVU120
	cbz	r4, .L39
	.loc 1 504 5 is_stmt 1 view .LVU121
	.loc 1 507 6 view .LVU122
	.loc 1 507 24 is_stmt 0 view .LVU123
	strd	r0, [r2]
.L39:
	.loc 1 510 4 is_stmt 1 discriminator 1 view .LVU124
	.loc 1 510 8 is_stmt 0 discriminator 1 view .LVU125
	add	lr, r2, #8
.LVL32:
	.loc 1 510 8 discriminator 1 view .LVU126
.LBE40:
	b	.L10
.L71:
	.loc 1 349 5 is_stmt 1 view .LVU127
	.loc 1 349 12 is_stmt 0 view .LVU128
	ldrb	r2, [ip, #-2]	@ zero_extendqisi2
	.loc 1 349 8 view .LVU129
	cmp	r2, #108
	beq	.L74
	.loc 1 357 12 view .LVU130
	movs	r5, #0
.LVL33:
	.loc 1 353 12 view .LVU131
	movs	r6, #4
.LVL34:
	.loc 1 354 11 view .LVU132
	mov	r8, r6
.LVL35:
	.loc 1 354 11 view .LVU133
	b	.L16
.LVL36:
.L74:
	.loc 1 357 12 view .LVU134
	movs	r5, #0
.LVL37:
	.loc 1 350 12 view .LVU135
	movs	r6, #8
.LVL38:
	.loc 1 351 11 view .LVU136
	mov	r8, r6
.LVL39:
	.loc 1 351 11 view .LVU137
	b	.L16
.LVL40:
.L18:
.LBB41:
	.loc 1 380 4 is_stmt 1 view .LVU138
	.loc 1 382 4 view .LVU139
	.loc 1 382 11 is_stmt 0 view .LVU140
	ldrb	r3, [r7]	@ zero_extendqisi2
	.loc 1 382 7 view .LVU141
	cmp	r3, #76
	beq	.L75
	.loc 1 387 5 is_stmt 1 view .LVU142
	.loc 1 387 10 is_stmt 0 view .LVU143
	ldr	r3, [sp, #80]
	adds	r3, r3, #7
	bic	r3, r3, #7
	add	r2, r3, #8
	str	r2, [sp, #80]
	.loc 1 387 9 view .LVU144
	ldrd	r0, [r3]
.LVL41:
	.loc 1 388 5 is_stmt 1 view .LVU145
	.loc 1 389 5 view .LVU146
.L21:
	.loc 1 392 4 view .LVU147
	.loc 1 392 42 is_stmt 0 view .LVU148
	add	r2, lr, #7
	.loc 1 392 74 view .LVU149
	bic	r2, r2, #7
.LVL42:
	.loc 1 393 4 is_stmt 1 view .LVU150
	.loc 1 393 7 is_stmt 0 view .LVU151
	cbz	r4, .L22
	.loc 1 395 5 is_stmt 1 view .LVU152
	.loc 1 395 25 is_stmt 0 view .LVU153
	sub	r3, r2, r10
	.loc 1 395 44 view .LVU154
	adds	r3, r3, #8
	.loc 1 395 8 view .LVU155
	cmp	r3, fp
	bhi	.L76
	.loc 1 398 5 is_stmt 1 view .LVU156
	.loc 1 400 12 view .LVU157
	.loc 1 400 19 is_stmt 0 view .LVU158
	ldrb	r3, [r7]	@ zero_extendqisi2
	.loc 1 400 15 view .LVU159
	cmp	r3, #76
	beq	.L77
	.loc 1 403 6 is_stmt 1 view .LVU160
	.loc 1 403 21 is_stmt 0 view .LVU161
	strd	r0, [r2]
.L22:
	.loc 1 406 4 is_stmt 1 view .LVU162
	.loc 1 406 8 is_stmt 0 view .LVU163
	add	lr, r2, #8
.LVL43:
	.loc 1 407 4 is_stmt 1 view .LVU164
	.loc 1 408 4 view .LVU165
	.loc 1 407 12 is_stmt 0 view .LVU166
	movs	r5, #0
	.loc 1 408 4 view .LVU167
	movs	r6, #8
	mov	r8, r6
	b	.L10
.LVL44:
.L75:
	.loc 1 383 5 is_stmt 1 view .LVU168
	.loc 1 383 11 is_stmt 0 view .LVU169
	ldr	r3, [sp, #80]
	adds	r3, r3, #7
	bic	r3, r3, #7
	add	r2, r3, #8
	str	r2, [sp, #80]
	.loc 1 383 10 view .LVU170
	ldrd	r0, [r3]
	.loc 1 384 5 is_stmt 1 view .LVU171
.LVL45:
	.loc 1 385 5 view .LVU172
	.loc 1 385 5 is_stmt 0 view .LVU173
	b	.L21
.LVL46:
.L76:
	.loc 1 396 6 is_stmt 1 view .LVU174
	.loc 1 396 13 is_stmt 0 view .LVU175
	mvn	r0, #27
	b	.L3
.L77:
	.loc 1 401 6 is_stmt 1 view .LVU176
	.loc 1 401 26 is_stmt 0 view .LVU177
	strd	r0, [r2]
	b	.L22
.LVL47:
.L53:
	.loc 1 401 26 view .LVU178
.LBE41:
	.loc 1 365 12 view .LVU179
	movs	r5, #0
.LVL48:
	.loc 1 363 10 view .LVU180
	movs	r6, #4
.LVL49:
	.loc 1 364 9 view .LVU181
	mov	r8, r6
.LVL50:
	.loc 1 364 9 view .LVU182
	b	.L16
.LVL51:
.L72:
	.loc 1 364 9 view .LVU183
	mov	r9, r4
	mov	r4, r0
.LVL52:
.LBB42:
	.loc 1 426 4 is_stmt 1 view .LVU184
	.loc 1 426 6 is_stmt 0 view .LVU185
	ldr	r3, [sp, #80]
	adds	r2, r3, #4
	str	r2, [sp, #80]
	ldr	r3, [r3]
	.loc 1 426 6 view .LVU186
.LBE42:
	.loc 1 289 8 view .LVU187
	mov	r7, ip
	b	.L7
.LVL53:
.L57:
.LBB43:
.LBB35:
.LBB33:
	.loc 1 49 56 view .LVU188
	movs	r2, #0
.L28:
.LVL54:
	.loc 1 49 56 view .LVU189
.LBE33:
.LBE35:
	.loc 1 433 3 is_stmt 1 view .LVU190
	.loc 1 433 26 is_stmt 0 view .LVU191
	ldr	r1, [sp, #12]
	and	r1, r1, #1
.LVL55:
	.loc 1 435 4 is_stmt 1 view .LVU192
	.loc 1 435 7 is_stmt 0 view .LVU193
	mov	r0, r2
	cbz	r2, .L29
	.loc 1 435 14 discriminator 1 view .LVU194
	cbz	r1, .L30
.L29:
.LBB36:
	.loc 1 438 5 is_stmt 1 view .LVU195
	.loc 1 438 42 is_stmt 0 view .LVU196
	sub	ip, r4, r10
	.loc 1 438 14 view .LVU197
	lsr	r2, ip, #2
.LVL56:
	.loc 1 446 5 is_stmt 1 view .LVU198
	.loc 1 446 8 is_stmt 0 view .LVU199
	cbz	r1, .L31
	.loc 1 446 16 discriminator 1 view .LVU200
	cmp	ip, #512
	bcs	.L59
.L31:
	.loc 1 451 5 is_stmt 1 view .LVU201
	.loc 1 451 8 is_stmt 0 view .LVU202
	ldr	r1, [sp, #8]
.LVL57:
	.loc 1 451 8 view .LVU203
	cmp	r1, #15
	bhi	.L60
	.loc 1 456 5 is_stmt 1 view .LVU204
	.loc 1 456 8 is_stmt 0 view .LVU205
	cmp	r9, #0
	beq	.L32
	.loc 1 461 6 is_stmt 1 view .LVU206
	.loc 1 461 25 is_stmt 0 view .LVU207
	uxtb	r2, r2
.LVL58:
	.loc 1 461 25 view .LVU208
	add	r3, sp, #40
.LVL59:
	.loc 1 461 25 view .LVU209
	add	r3, r3, r1
	strb	r2, [r3, #-16]
	.loc 1 462 6 is_stmt 1 view .LVU210
	.loc 1 462 9 is_stmt 0 view .LVU211
	cbz	r0, .L33
	.loc 1 464 7 is_stmt 1 view .LVU212
	.loc 1 464 26 is_stmt 0 view .LVU213
	orn	r2, r2, #127
	add	r3, sp, #40
	add	r3, r3, r1
	strb	r2, [r3, #-16]
	.loc 1 465 7 is_stmt 1 view .LVU214
	.loc 1 465 15 is_stmt 0 view .LVU215
	ldr	r3, [sp]
	adds	r3, r3, #1
	str	r3, [sp]
.LVL60:
.L34:
	.loc 1 483 5 is_stmt 1 view .LVU216
	.loc 1 483 10 is_stmt 0 view .LVU217
	ldr	r3, [sp, #8]
	adds	r3, r3, #1
	str	r3, [sp, #8]
.LVL61:
.L30:
	.loc 1 483 10 view .LVU218
.LBE36:
	.loc 1 485 4 is_stmt 1 view .LVU219
	.loc 1 485 8 is_stmt 0 view .LVU220
	adds	r4, r4, #4
.LVL62:
	.loc 1 485 8 view .LVU221
	mov	lr, r4
	mov	r4, r9
.LVL63:
	.loc 1 485 8 view .LVU222
.LBE43:
	b	.L36
.LVL64:
.L58:
.LBB44:
.LBB37:
.LBB34:
	.loc 1 49 56 view .LVU223
	movs	r2, #1
	b	.L28
.LVL65:
.L33:
	.loc 1 49 56 view .LVU224
.LBE34:
.LBE37:
.LBB38:
	.loc 1 467 7 is_stmt 1 view .LVU225
	.loc 1 467 15 is_stmt 0 view .LVU226
	ldr	r3, [sp, #16]
	adds	r3, r3, #1
	str	r3, [sp, #16]
.LVL66:
	.loc 1 467 15 view .LVU227
	b	.L34
.LVL67:
.L32:
	.loc 1 469 12 is_stmt 1 view .LVU228
	.loc 1 469 15 is_stmt 0 view .LVU229
	cbz	r0, .L35
	.loc 1 474 6 is_stmt 1 view .LVU230
	.loc 1 474 10 is_stmt 0 view .LVU231
	add	fp, fp, #1
.LVL68:
	.loc 1 474 10 view .LVU232
	b	.L34
.L35:
	.loc 1 480 6 is_stmt 1 view .LVU233
	.loc 1 480 13 is_stmt 0 view .LVU234
	mov	r0, r3
	bl	strlen
.LVL69:
	.loc 1 480 27 view .LVU235
	adds	r3, r0, #2
	.loc 1 480 10 view .LVU236
	add	fp, fp, r3
.LVL70:
	.loc 1 480 10 view .LVU237
	b	.L34
.L82:
	.align	2
.L81:
	.word	__rodata_region_start
	.word	__rodata_region_end
.LVL71:
.L73:
	.loc 1 480 10 view .LVU238
.LBE38:
.LBE44:
.LBB45:
	.loc 1 487 4 is_stmt 1 view .LVU239
	.loc 1 487 8 is_stmt 0 view .LVU240
	ldr	r3, [sp, #80]
	adds	r1, r3, #4
	str	r1, [sp, #80]
	ldr	r3, [r3]
	.loc 1 489 4 is_stmt 1 view .LVU241
	.loc 1 489 7 is_stmt 0 view .LVU242
	cbz	r4, .L38
	.loc 1 490 5 is_stmt 1 view .LVU243
	.loc 1 490 17 is_stmt 0 view .LVU244
	str	r3, [r2]
.L38:
	.loc 1 492 4 is_stmt 1 view .LVU245
	.loc 1 492 8 is_stmt 0 view .LVU246
	add	lr, r2, #4
.LVL72:
	.loc 1 492 8 view .LVU247
.LBE45:
	b	.L10
.L69:
	.loc 1 492 8 view .LVU248
	ldr	r10, [sp, #20]
	mov	r9, r4
	mov	r4, lr
.LVL73:
	.loc 1 523 2 is_stmt 1 view .LVU249
	.loc 1 523 22 is_stmt 0 view .LVU250
	sub	r3, lr, r9
	.loc 1 523 5 view .LVU251
	cmp	r3, #1024
	bcs	.L62
.LVL74:
	.loc 1 532 2 is_stmt 1 view .LVU252
	.loc 1 532 5 is_stmt 0 view .LVU253
	cmp	r9, #0
	beq	.L78
	.loc 1 537 2 is_stmt 1 view .LVU254
	.loc 1 537 17 is_stmt 0 view .LVU255
	movs	r2, #0
	str	r2, [r9]
	.loc 1 540 2 is_stmt 1 view .LVU256
	.loc 1 540 47 is_stmt 0 view .LVU257
	lsrs	r3, r3, #2
	.loc 1 540 10 view .LVU258
	strb	r3, [r9]
	.loc 1 541 2 is_stmt 1 view .LVU259
	.loc 1 541 10 is_stmt 0 view .LVU260
	ldr	r3, [sp, #16]
	strb	r3, [r9, #1]
	.loc 1 542 2 is_stmt 1 view .LVU261
	.loc 1 542 10 is_stmt 0 view .LVU262
	ldr	r3, [sp]
	strb	r3, [r9, #2]
	.loc 1 545 2 is_stmt 1 view .LVU263
	.loc 1 545 5 is_stmt 0 view .LVU264
	cbnz	r3, .L63
	ldr	r8, [sp, #8]
.LVL75:
	.loc 1 545 5 view .LVU265
	b	.L48
.LVL76:
.L78:
	.loc 1 533 3 is_stmt 1 view .LVU266
	.loc 1 533 45 is_stmt 0 view .LVU267
	add	r3, r3, fp
	.loc 1 533 51 view .LVU268
	sub	r0, r3, #8
	b	.L3
.LVL77:
.L44:
	.loc 1 546 26 is_stmt 1 discriminator 2 view .LVU269
	.loc 1 546 27 is_stmt 0 discriminator 2 view .LVU270
	adds	r3, r3, #1
.LVL78:
.L42:
	.loc 1 546 15 is_stmt 1 discriminator 1 view .LVU271
	.loc 1 546 3 is_stmt 0 discriminator 1 view .LVU272
	cmp	r0, r3
	bls	.L79
.LBB46:
	.loc 1 547 4 is_stmt 1 view .LVU273
	.loc 1 547 21 is_stmt 0 view .LVU274
	add	r2, sp, #40
	add	r2, r2, r3
	ldrb	r1, [r2, #-16]	@ zero_extendqisi2
	.loc 1 547 8 view .LVU275
	ldrsb	r2, [r2, #-16]
	.loc 1 547 7 view .LVU276
	cmp	r2, #0
	bge	.L44
	.loc 1 551 4 is_stmt 1 view .LVU277
	.loc 1 551 12 is_stmt 0 view .LVU278
	and	r1, r1, #127
.LVL79:
	.loc 1 554 4 is_stmt 1 view .LVU279
	.loc 1 554 24 is_stmt 0 view .LVU280
	subs	r2, r4, r5
	.loc 1 554 43 view .LVU281
	adds	r2, r2, #1
	.loc 1 554 7 view .LVU282
	cmp	fp, r2
	bcc	.L64
	.loc 1 558 4 is_stmt 1 view .LVU283
.LVL80:
	.loc 1 558 11 is_stmt 0 view .LVU284
	strb	r1, [r4], #1
.LVL81:
	.loc 1 558 11 view .LVU285
	b	.L44
.LVL82:
.L63:
	.loc 1 558 11 view .LVU286
.LBE46:
	.loc 1 546 10 view .LVU287
	mov	r3, r10
	ldr	r5, [sp, #4]
.LVL83:
	.loc 1 546 10 view .LVU288
	ldr	r0, [sp, #8]
	b	.L42
.LVL84:
.L79:
	.loc 1 546 10 view .LVU289
	ldr	r8, [sp, #8]
.LVL85:
	.loc 1 546 10 view .LVU290
	b	.L48
.LVL86:
.L46:
	.loc 1 570 3 is_stmt 1 view .LVU291
	.loc 1 570 36 is_stmt 0 view .LVU292
	add	r3, sp, #40
	add	r3, r3, r10
	ldrb	r6, [r3, #-16]	@ zero_extendqisi2
	.loc 1 570 5 view .LVU293
	ldr	r7, [r9, r6, lsl #2]
.LVL87:
	.loc 1 572 3 is_stmt 1 view .LVU294
	.loc 1 572 51 is_stmt 0 view .LVU295
	movs	r3, #0
	str	r3, [r9, r6, lsl #2]
	.loc 1 574 3 is_stmt 1 view .LVU296
	.loc 1 574 10 is_stmt 0 view .LVU297
	mov	r0, r7
	bl	strlen
.LVL88:
	.loc 1 574 8 view .LVU298
	adds	r5, r0, #1
.LVL89:
	.loc 1 576 3 is_stmt 1 view .LVU299
	.loc 1 576 23 is_stmt 0 view .LVU300
	ldr	r3, [sp, #4]
	subs	r3, r4, r3
	.loc 1 576 46 view .LVU301
	add	r3, r3, r5
	adds	r3, r3, #1
	.loc 1 576 6 view .LVU302
	cmp	fp, r3
	bcc	.L65
	.loc 1 580 3 is_stmt 1 view .LVU303
.LVL90:
	.loc 1 580 10 is_stmt 0 view .LVU304
	strb	r6, [r4], #1
.LVL91:
	.loc 1 582 2 is_stmt 1 view .LVU305
.LBB47:
.LBI47:
	.file 2 "/home/sebin/LIOT/gcc-arm-none-eabi-9-2019-q4-major/arm-none-eabi/include/ssp/string.h"
	.loc 2 83 216 view .LVU306
.LBB48:
	.loc 2 83 292 view .LVU307
	.loc 2 83 299 is_stmt 0 view .LVU308
	mov	r2, r5
	mov	r1, r7
	mov	r0, r4
	bl	memcpy
.LVL92:
	.loc 2 83 299 view .LVU309
.LBE48:
.LBE47:
	.loc 1 583 3 is_stmt 1 view .LVU310
	.loc 1 583 7 is_stmt 0 view .LVU311
	add	r4, r4, r5
.LVL93:
.L47:
	.loc 1 563 25 is_stmt 1 discriminator 2 view .LVU312
	.loc 1 563 26 is_stmt 0 discriminator 2 view .LVU313
	add	r10, r10, #1
.LVL94:
.L48:
	.loc 1 563 14 is_stmt 1 discriminator 1 view .LVU314
	.loc 1 563 2 is_stmt 0 discriminator 1 view .LVU315
	cmp	r8, r10
	bls	.L80
	.loc 1 565 3 is_stmt 1 view .LVU316
	.loc 1 565 6 is_stmt 0 view .LVU317
	ldr	r3, [sp]
	cmp	r3, #0
	beq	.L46
	.loc 1 565 30 discriminator 1 view .LVU318
	add	r3, sp, #40
	add	r3, r3, r10
	.loc 1 565 16 discriminator 1 view .LVU319
	ldrsb	r3, [r3, #-16]
	cmp	r3, #0
	bge	.L46
	b	.L47
.L80:
	.loc 1 591 2 is_stmt 1 view .LVU320
	.loc 1 591 25 is_stmt 0 view .LVU321
	sub	r0, r4, r9
.LVL95:
.L3:
	.loc 1 596 1 view .LVU322
	add	sp, sp, #44
	.cfi_remember_state
	.cfi_def_cfa_offset 36
	@ sp needed
	pop	{r4, r5, r6, r7, r8, r9, r10, fp, pc}
.LVL96:
.L50:
	.cfi_restore_state
	.loc 1 224 10 view .LVU323
	mvn	r0, #13
.LVL97:
	.loc 1 224 10 view .LVU324
	b	.L3
.LVL98:
.L51:
	.loc 1 273 10 view .LVU325
	mvn	r0, #27
.LVL99:
	.loc 1 273 10 view .LVU326
	b	.L3
.LVL100:
.L56:
	.loc 1 421 11 view .LVU327
	mvn	r0, #27
.LVL101:
	.loc 1 421 11 view .LVU328
	b	.L3
.LVL102:
.L59:
.LBB49:
.LBB39:
	.loc 1 448 13 view .LVU329
	mvn	r0, #21
	b	.L3
.LVL103:
.L60:
	.loc 1 453 13 view .LVU330
	mvn	r0, #21
	b	.L3
.LVL104:
.L61:
	.loc 1 453 13 view .LVU331
.LBE39:
.LBE49:
	.loc 1 513 11 view .LVU332
	mvn	r0, #21
.LVL105:
	.loc 1 513 11 view .LVU333
	b	.L3
.LVL106:
.L62:
	.loc 1 525 10 view .LVU334
	mvn	r0, #21
	b	.L3
.LVL107:
.L64:
.LBB50:
	.loc 1 555 12 view .LVU335
	mvn	r0, #27
	b	.L3
.LVL108:
.L65:
	.loc 1 555 12 view .LVU336
.LBE50:
	.loc 1 577 11 view .LVU337
	mvn	r0, #27
	b	.L3
	.cfi_endproc
.LFE20:
	.size	cbvprintf_package, .-cbvprintf_package
	.section	.text.cbprintf_package,"ax",%progbits
	.align	1
	.global	cbprintf_package
	.syntax unified
	.thumb
	.thumb_func
	.fpu fpv4-sp-d16
	.type	cbprintf_package, %function
cbprintf_package:
.LVL109:
.LFB21:
	.loc 1 600 1 is_stmt 1 view -0
	.cfi_startproc
	@ args = 4, pretend = 4, frame = 8
	@ frame_needed = 0, uses_anonymous_args = 1
	.loc 1 600 1 is_stmt 0 view .LVU339
	push	{r3}
	.cfi_def_cfa_offset 4
	.cfi_offset 3, -4
	push	{r4, lr}
	.cfi_def_cfa_offset 12
	.cfi_offset 4, -12
	.cfi_offset 14, -8
	sub	sp, sp, #20
	.cfi_def_cfa_offset 32
	add	r4, sp, #28
	ldr	r3, [r4], #4
	.loc 1 601 2 is_stmt 1 view .LVU340
	.loc 1 602 2 view .LVU341
	.loc 1 604 1 view .LVU342
	str	r4, [sp, #12]
	.loc 1 605 2 view .LVU343
	.loc 1 605 8 is_stmt 0 view .LVU344
	str	r4, [sp]
	bl	cbvprintf_package
.LVL110:
	.loc 1 606 1 is_stmt 1 view .LVU345
	.loc 1 607 2 view .LVU346
	.loc 1 608 1 is_stmt 0 view .LVU347
	add	sp, sp, #20
	.cfi_def_cfa_offset 12
	@ sp needed
	pop	{r4, lr}
	.cfi_restore 14
	.cfi_restore 4
	.cfi_def_cfa_offset 4
	add	sp, sp, #4
	.cfi_restore 3
	.cfi_def_cfa_offset 0
	bx	lr
	.cfi_endproc
.LFE21:
	.size	cbprintf_package, .-cbprintf_package
	.section	.text.cbpprintf_external,"ax",%progbits
	.align	1
	.global	cbpprintf_external
	.syntax unified
	.thumb
	.thumb_func
	.fpu fpv4-sp-d16
	.type	cbpprintf_external, %function
cbpprintf_external:
.LVL111:
.LFB22:
	.loc 1 613 1 is_stmt 1 view -0
	.cfi_startproc
	@ args = 0, pretend = 0, frame = 0
	@ frame_needed = 0, uses_anonymous_args = 0
	.loc 1 614 2 view .LVU349
	.loc 1 615 2 view .LVU350
	.loc 1 616 2 view .LVU351
	.loc 1 618 2 view .LVU352
	.loc 1 618 5 is_stmt 0 view .LVU353
	cbz	r3, .L89
	.loc 1 613 1 view .LVU354
	push	{r4, r5, r6, r7, r8, r9, r10, lr}
	.cfi_def_cfa_offset 32
	.cfi_offset 4, -32
	.cfi_offset 5, -28
	.cfi_offset 6, -24
	.cfi_offset 7, -20
	.cfi_offset 8, -16
	.cfi_offset 9, -12
	.cfi_offset 10, -8
	.cfi_offset 14, -4
	sub	sp, sp, #8
	.cfi_def_cfa_offset 40
	mov	r7, r0
	mov	r8, r1
	mov	r9, r2
	mov	r5, r3
	.loc 1 623 2 is_stmt 1 view .LVU355
	.loc 1 623 17 is_stmt 0 view .LVU356
	ldrb	r3, [r3]	@ zero_extendqisi2
.LVL112:
	.loc 1 624 2 is_stmt 1 view .LVU357
	.loc 1 624 13 is_stmt 0 view .LVU358
	ldrb	r6, [r5, #1]	@ zero_extendqisi2
.LVL113:
	.loc 1 625 2 is_stmt 1 view .LVU359
	.loc 1 625 15 is_stmt 0 view .LVU360
	ldrb	r4, [r5, #2]	@ zero_extendqisi2
.LVL114:
	.loc 1 628 2 is_stmt 1 view .LVU361
	.loc 1 628 31 is_stmt 0 view .LVU362
	add	r4, r4, r3, lsl #2
.LVL115:
	.loc 1 628 4 view .LVU363
	add	r4, r4, r5
.LVL116:
	.loc 1 633 2 is_stmt 1 view .LVU364
	.loc 1 633 9 is_stmt 0 view .LVU365
	mov	r10, #0
.LVL117:
.L87:
	.loc 1 633 14 is_stmt 1 discriminator 1 view .LVU366
	.loc 1 633 2 is_stmt 0 discriminator 1 view .LVU367
	cmp	r10, r6
	bcs	.L94
	.loc 1 635 3 is_stmt 1 discriminator 3 view .LVU368
.LVL118:
	.loc 1 635 11 is_stmt 0 discriminator 3 view .LVU369
	ldrb	r3, [r4], #1	@ zero_extendqisi2
.LVL119:
	.loc 1 636 3 is_stmt 1 discriminator 3 view .LVU370
	.loc 1 638 3 discriminator 3 view .LVU371
	.loc 1 638 7 is_stmt 0 discriminator 3 view .LVU372
	str	r4, [r5, r3, lsl #2]
	.loc 1 640 3 is_stmt 1 discriminator 3 view .LVU373
	.loc 1 640 8 is_stmt 0 discriminator 3 view .LVU374
	mov	r0, r4
	bl	strlen
.LVL120:
	.loc 1 640 18 discriminator 3 view .LVU375
	adds	r0, r0, #1
	.loc 1 640 5 discriminator 3 view .LVU376
	add	r4, r4, r0
.LVL121:
	.loc 1 633 25 is_stmt 1 discriminator 3 view .LVU377
	.loc 1 633 26 is_stmt 0 discriminator 3 view .LVU378
	add	r10, r10, #1
.LVL122:
	.loc 1 633 26 discriminator 3 view .LVU379
	b	.L87
.L94:
	.loc 1 644 2 is_stmt 1 view .LVU380
.LVL123:
	.loc 1 647 2 view .LVU381
	.loc 1 647 6 is_stmt 0 view .LVU382
	add	r3, r5, #8
.LVL124:
	.loc 1 650 2 is_stmt 1 view .LVU383
	.loc 1 650 9 is_stmt 0 view .LVU384
	str	r3, [sp]
.LVL125:
	.loc 1 650 9 view .LVU385
	ldr	r3, [r5, #4]
.LVL126:
	.loc 1 650 9 view .LVU386
	mov	r2, r9
	mov	r1, r8
	mov	r0, r7
	bl	cbprintf_via_va_list
.LVL127:
	.loc 1 651 1 view .LVU387
	add	sp, sp, #8
	.cfi_def_cfa_offset 32
	@ sp needed
	pop	{r4, r5, r6, r7, r8, r9, r10, pc}
.LVL128:
.L89:
	.cfi_def_cfa_offset 0
	.cfi_restore 4
	.cfi_restore 5
	.cfi_restore 6
	.cfi_restore 7
	.cfi_restore 8
	.cfi_restore 9
	.cfi_restore 10
	.cfi_restore 14
	.loc 1 619 10 view .LVU388
	mvn	r0, #21
.LVL129:
	.loc 1 651 1 view .LVU389
	bx	lr
	.cfi_endproc
.LFE22:
	.size	cbpprintf_external, .-cbpprintf_external
	.section	.text.cbprintf_fsc_package,"ax",%progbits
	.align	1
	.global	cbprintf_fsc_package
	.syntax unified
	.thumb
	.thumb_func
	.fpu fpv4-sp-d16
	.type	cbprintf_fsc_package, %function
cbprintf_fsc_package:
.LVL130:
.LFB23:
	.loc 1 657 1 is_stmt 1 view -0
	.cfi_startproc
	@ args = 0, pretend = 0, frame = 16
	@ frame_needed = 0, uses_anonymous_args = 0
	.loc 1 657 1 is_stmt 0 view .LVU391
	push	{r4, r5, r6, r7, r8, r9, r10, fp, lr}
	.cfi_def_cfa_offset 36
	.cfi_offset 4, -36
	.cfi_offset 5, -32
	.cfi_offset 6, -28
	.cfi_offset 7, -24
	.cfi_offset 8, -20
	.cfi_offset 9, -16
	.cfi_offset 10, -12
	.cfi_offset 11, -8
	.cfi_offset 14, -4
	sub	sp, sp, #20
	.cfi_def_cfa_offset 56
	str	r3, [sp, #8]
	.loc 1 658 2 is_stmt 1 view .LVU392
.LVL131:
	.loc 1 659 2 view .LVU393
	.loc 1 660 2 view .LVU394
	.loc 1 661 2 view .LVU395
	.loc 1 662 2 view .LVU396
	.loc 1 664 2 view .LVU397
	.loc 1 664 5 is_stmt 0 view .LVU398
	cmp	r0, #0
	beq	.L102
	mov	r7, r1
	mov	r10, r2
	mov	r9, r0
	.loc 1 668 2 is_stmt 1 view .LVU399
	.loc 1 668 5 is_stmt 0 view .LVU400
	cbz	r2, .L97
	.loc 1 668 15 discriminator 1 view .LVU401
	cmp	r3, r1
	bcc	.L103
.L97:
	.loc 1 673 2 is_stmt 1 view .LVU402
	.loc 1 673 17 is_stmt 0 view .LVU403
	ldrb	fp, [r9]	@ zero_extendqisi2
	.loc 1 673 12 view .LVU404
	lsl	fp, fp, #2
.LVL132:
	.loc 1 674 2 is_stmt 1 view .LVU405
	.loc 1 674 13 is_stmt 0 view .LVU406
	ldrb	r5, [r9, #1]	@ zero_extendqisi2
.LVL133:
	.loc 1 675 2 is_stmt 1 view .LVU407
	.loc 1 675 15 is_stmt 0 view .LVU408
	ldrb	r4, [r9, #2]	@ zero_extendqisi2
	.loc 1 675 10 view .LVU409
	str	r4, [sp, #12]
.LVL134:
	.loc 1 677 2 is_stmt 1 view .LVU410
	.loc 1 679 2 view .LVU411
	.loc 1 679 5 is_stmt 0 view .LVU412
	cmp	r10, #0
	beq	.L104
.LBB51:
	.loc 1 680 3 is_stmt 1 view .LVU413
	.loc 1 680 50 is_stmt 0 view .LVU414
	add	r6, fp, r4
	.loc 1 680 16 view .LVU415
	sub	r8, r7, r6
.LVL135:
	.loc 1 682 2 is_stmt 1 view .LVU416
.LBB52:
.LBI52:
	.loc 2 83 216 view .LVU417
.LBB53:
	.loc 2 83 292 view .LVU418
	.loc 2 83 299 is_stmt 0 view .LVU419
	mov	r2, fp
.LVL136:
	.loc 2 83 299 view .LVU420
	mov	r1, r9
.LVL137:
	.loc 2 83 299 view .LVU421
	mov	r0, r10
.LVL138:
	.loc 2 83 299 view .LVU422
	bl	memcpy
.LVL139:
	.loc 2 83 299 view .LVU423
.LBE53:
.LBE52:
	.loc 1 683 3 is_stmt 1 view .LVU424
	.loc 1 683 18 is_stmt 0 view .LVU425
	add	r4, r4, r5
.LVL140:
	.loc 1 683 10 view .LVU426
	strb	r4, [r10, #1]
	.loc 1 684 3 is_stmt 1 view .LVU427
	.loc 1 684 10 is_stmt 0 view .LVU428
	movs	r3, #0
	strb	r3, [r10, #2]
	.loc 1 685 3 is_stmt 1 view .LVU429
	.loc 1 685 7 is_stmt 0 view .LVU430
	add	r5, r10, fp
.LVL141:
	.loc 1 688 2 is_stmt 1 view .LVU431
.LBB54:
.LBI54:
	.loc 2 83 216 view .LVU432
.LBB55:
	.loc 2 83 292 view .LVU433
	.loc 2 83 299 is_stmt 0 view .LVU434
	mov	r2, r8
	add	r1, r9, r6
.LVL142:
	.loc 2 83 299 view .LVU435
	mov	r0, r5
	bl	memcpy
.LVL143:
	.loc 2 83 299 view .LVU436
.LBE55:
.LBE54:
	.loc 1 689 3 is_stmt 1 view .LVU437
	.loc 1 689 7 is_stmt 0 view .LVU438
	add	r5, r5, r8
.LVL144:
.L98:
	.loc 1 689 7 view .LVU439
.LBE51:
	.loc 1 658 31 discriminator 1 view .LVU440
	movs	r6, #0
	str	r10, [sp, #4]
	ldr	r10, [sp, #12]
.LVL145:
	.loc 1 658 31 discriminator 1 view .LVU441
	b	.L100
.LVL146:
.L108:
.LBB56:
	.loc 1 706 4 is_stmt 1 view .LVU442
	.loc 1 706 11 is_stmt 0 view .LVU443
	strb	r8, [r5], #1
.LVL147:
	.loc 1 707 3 is_stmt 1 view .LVU444
.LBB57:
.LBI57:
	.loc 2 83 216 view .LVU445
.LBB58:
	.loc 2 83 292 view .LVU446
	.loc 2 83 299 is_stmt 0 view .LVU447
	mov	r2, r4
	ldr	r1, [r9, r8, lsl #2]
	mov	r0, r5
	bl	memcpy
.LVL148:
	.loc 2 83 299 view .LVU448
.LBE58:
.LBE57:
	.loc 1 708 4 is_stmt 1 view .LVU449
	.loc 1 708 8 is_stmt 0 view .LVU450
	add	r5, r5, r4
.LVL149:
.L99:
	.loc 1 692 40 is_stmt 1 discriminator 2 view .LVU451
	.loc 1 692 41 is_stmt 0 discriminator 2 view .LVU452
	adds	r6, r6, #1
.LVL150:
.L100:
	.loc 1 692 27 is_stmt 1 discriminator 1 view .LVU453
	.loc 1 692 2 is_stmt 0 discriminator 1 view .LVU454
	cmp	r6, r10
	bcs	.L107
	.loc 1 694 3 is_stmt 1 view .LVU455
	.loc 1 694 25 is_stmt 0 view .LVU456
	add	r3, r6, fp
	.loc 1 694 14 view .LVU457
	ldrb	r8, [r9, r3]	@ zero_extendqisi2
.LVL151:
	.loc 1 695 3 is_stmt 1 view .LVU458
	.loc 1 698 3 view .LVU459
	.loc 1 698 10 is_stmt 0 view .LVU460
	ldr	r0, [r9, r8, lsl #2]
	bl	strlen
.LVL152:
	.loc 1 698 8 view .LVU461
	adds	r4, r0, #1
.LVL153:
	.loc 1 699 3 is_stmt 1 view .LVU462
	.loc 1 699 11 is_stmt 0 view .LVU463
	add	r7, r7, r4
.LVL154:
	.loc 1 702 3 is_stmt 1 view .LVU464
	.loc 1 702 6 is_stmt 0 view .LVU465
	ldr	r3, [sp, #4]
	cmp	r3, #0
	beq	.L99
	.loc 1 703 4 is_stmt 1 view .LVU466
	.loc 1 703 7 is_stmt 0 view .LVU467
	ldr	r3, [sp, #8]
	cmp	r3, r7
	bcs	.L108
	.loc 1 704 12 view .LVU468
	mvn	r0, #27
	b	.L95
.LVL155:
.L104:
	.loc 1 704 12 view .LVU469
.LBE56:
	.loc 1 658 31 view .LVU470
	mov	r5, r10
.LVL156:
	.loc 1 658 31 view .LVU471
	b	.L98
.LVL157:
.L107:
	.loc 1 712 2 is_stmt 1 view .LVU472
	.loc 1 712 9 is_stmt 0 view .LVU473
	mov	r0, r7
.LVL158:
.L95:
	.loc 1 713 1 view .LVU474
	add	sp, sp, #20
	.cfi_remember_state
	.cfi_def_cfa_offset 36
	@ sp needed
	pop	{r4, r5, r6, r7, r8, r9, r10, fp, pc}
.LVL159:
.L102:
	.cfi_restore_state
	.loc 1 665 10 view .LVU475
	mvn	r0, #21
.LVL160:
	.loc 1 665 10 view .LVU476
	b	.L95
.LVL161:
.L103:
	.loc 1 669 10 view .LVU477
	mvn	r0, #27
.LVL162:
	.loc 1 669 10 view .LVU478
	b	.L95
	.cfi_endproc
.LFE23:
	.size	cbprintf_fsc_package, .-cbprintf_fsc_package
	.text
.Letext0:
	.file 3 "/home/sebin/LIOT/gcc-arm-none-eabi-9-2019-q4-major/lib/gcc/arm-none-eabi/9.2.1/include/stddef.h"
	.file 4 "/home/sebin/LIOT/gcc-arm-none-eabi-9-2019-q4-major/arm-none-eabi/include/machine/_default_types.h"
	.file 5 "/home/sebin/LIOT/gcc-arm-none-eabi-9-2019-q4-major/arm-none-eabi/include/sys/lock.h"
	.file 6 "/home/sebin/LIOT/gcc-arm-none-eabi-9-2019-q4-major/arm-none-eabi/include/sys/_types.h"
	.file 7 "/home/sebin/LIOT/gcc-arm-none-eabi-9-2019-q4-major/arm-none-eabi/include/sys/reent.h"
	.file 8 "/home/sebin/LIOT/gcc-arm-none-eabi-9-2019-q4-major/arm-none-eabi/include/sys/errno.h"
	.file 9 "/home/sebin/LIOT/gcc-arm-none-eabi-9-2019-q4-major/lib/gcc/arm-none-eabi/9.2.1/include/stdarg.h"
	.file 10 "/home/sebin/LIOT/gcc-arm-none-eabi-9-2019-q4-major/arm-none-eabi/include/sys/_stdint.h"
	.file 11 "/home/sebin/thesis/zephyrproject/zephyr/include/sys/cbprintf.h"
	.file 12 "<built-in>"
	.file 13 "/home/sebin/LIOT/gcc-arm-none-eabi-9-2019-q4-major/arm-none-eabi/include/string.h"