	.cpu cortex-m4
	.eabi_attribute 27, 1
	.eabi_attribute 28, 1
	.eabi_attribute 20, 1
	.eabi_attribute 21, 1
	.eabi_attribute 23, 3
	.eabi_attribute 24, 1
	.eabi_attribute 25, 1
	.eabi_attribute 26, 1
	.eabi_attribute 30, 1
	.eabi_attribute 34, 1
	.eabi_attribute 38, 1
	.eabi_attribute 18, 4
	.file	"crc8_sw.c"
	.text
.Ltext0:
	.cfi_sections	.debug_frame
	.section	.text.crc8_ccitt,"ax",%progbits
	.align	1
	.global	crc8_ccitt
	.arch armv7e-m
	.syntax unified
	.thumb
	.thumb_func
	.fpu fpv4-sp-d16
	.type	crc8_ccitt, %function
crc8_ccitt:
.LVL0:
.LFB1:
	.file 1 "/home/sebin/thesis/zephyrproject/zephyr/lib/os/crc8_sw.c"
	.loc 1 17 1 view -0
	.cfi_startproc
	@ args = 0, pretend = 0, frame = 0
	@ frame_needed = 0, uses_anonymous_args = 0
	@ link register save eliminated.
	.loc 1 17 1 is_stmt 0 view .LVU1
	push	{r4, r5}
	.cfi_def_cfa_offset 8
	.cfi_offset 4, -8
	.cfi_offset 5, -4
	.loc 1 18 2 is_stmt 1 view .LVU2
	.loc 1 19 2 view .LVU3
.LVL1:
	.loc 1 21 2 view .LVU4
	.loc 1 21 9 is_stmt 0 view .LVU5
	movs	r4, #0
.LVL2:
.L2:
	.loc 1 21 14 is_stmt 1 discriminator 1 view .LVU6
	.loc 1 21 2 is_stmt 0 discriminator 1 view .LVU7
	cmp	r4, r2
	bcs	.L5
	.loc 1 22 3 is_stmt 1 discriminator 3 view .LVU8
	.loc 1 22 11 is_stmt 0 discriminator 3 view .LVU9
	ldrb	r3, [r1, r4]	@ zero_extendqisi2
	.loc 1 22 7 discriminator 3 view .LVU10
	eors	r3, r3, r0
.LVL3:
	.loc 1 23 3 is_stmt 1 discriminator 3 view .LVU11
	.loc 1 23 49 is_stmt 0 discriminator 3 view .LVU12
	lsrs	r0, r3, #4
	.loc 1 23 44 discriminator 3 view .LVU13
	ldr	r5, .L6
	ldrsb	r0, [r5, r0]
	.loc 1 23 20 discriminator 3 view .LVU14
	eor	r0, r0, r3, lsl #4
	.loc 1 23 7 discriminator 3 view .LVU15
	uxtb	r3, r0
.LVL4:
	.loc 1 24 3 is_stmt 1 discriminator 3 view .LVU16
	.loc 1 24 49 is_stmt 0 discriminator 3 view .LVU17
	ubfx	r0, r0, #4, #4
	.loc 1 24 44 discriminator 3 view .LVU18
	ldrsb	r0, [r5, r0]
	.loc 1 24 20 discriminator 3 view .LVU19
	eor	r0, r0, r3, lsl #4
	.loc 1 24 7 discriminator 3 view .LVU20
	uxtb	r0, r0
.LVL5:
	.loc 1 21 23 is_stmt 1 discriminator 3 view .LVU21
	.loc 1 21 24 is_stmt 0 discriminator 3 view .LVU22
	adds	r4, r4, #1
.LVL6:
	.loc 1 21 24 discriminator 3 view .LVU23
	b	.L2
.L5:
	.loc 1 27 1 view .LVU24
	pop	{r4, r5}
	.cfi_restore 5
	.cfi_restore 4
	.cfi_def_cfa_offset 0
.LVL7:
	.loc 1 27 1 view .LVU25
	bx	lr
.L7:
	.align	2
.L6:
	.word	.LANCHOR0
	.cfi_endproc
.LFE1:
	.size	crc8_ccitt, .-crc8_ccitt
	.section	.text.crc8,"ax",%progbits
	.align	1
	.global	crc8
	.syntax unified
	.thumb
	.thumb_func
	.fpu fpv4-sp-d16
	.type	crc8, %function
crc8:
.LVL8:
.LFB2:
	.loc 1 31 1 is_stmt 1 view -0
	.cfi_startproc
	@ args = 4, pretend = 0, frame = 0
	@ frame_needed = 0, uses_anonymous_args = 0
	@ link register save eliminated.
	.loc 1 31 1 is_stmt 0 view .LVU27
	push	{r4, r5, r6}
	.cfi_def_cfa_offset 12
	.cfi_offset 4, -12
	.cfi_offset 5, -8
	.cfi_offset 6, -4
	mov	r6, r0
	mov	r0, r3
.LVL9:
	.loc 1 31 1 view .LVU28
	ldrb	r4, [sp, #12]	@ zero_extendqisi2
	.loc 1 32 2 is_stmt 1 view .LVU29
.LVL10:
	.loc 1 33 2 view .LVU30
	.loc 1 35 2 view .LVU31
	.loc 1 35 9 is_stmt 0 view .LVU32
	movs	r5, #0
	.loc 1 35 2 view .LVU33
	b	.L9
.LVL11:
.L12:
	.loc 1 43 6 is_stmt 1 view .LVU34
	.loc 1 43 10 is_stmt 0 view .LVU35
	lsrs	r0, r0, #1
.LVL12:
	.loc 1 43 10 view .LVU36
	b	.L13
.L11:
	.loc 1 46 5 is_stmt 1 view .LVU37
	.loc 1 46 8 is_stmt 0 view .LVU38
	tst	r0, #128
	bne	.L18
	.loc 1 49 6 is_stmt 1 view .LVU39
	.loc 1 49 10 is_stmt 0 view .LVU40
	lsls	r0, r0, #1
.LVL13:
	.loc 1 49 10 view .LVU41
	uxtb	r0, r0
.LVL14:
.L13:
	.loc 1 38 22 is_stmt 1 discriminator 2 view .LVU42
	.loc 1 38 23 is_stmt 0 discriminator 2 view .LVU43
	adds	r3, r3, #1
.LVL15:
.L10:
	.loc 1 38 15 is_stmt 1 discriminator 1 view .LVU44
	.loc 1 38 3 is_stmt 0 discriminator 1 view .LVU45
	cmp	r3, #7
	bhi	.L19
	.loc 1 39 4 is_stmt 1 view .LVU46
	.loc 1 39 7 is_stmt 0 view .LVU47
	cmp	r4, #0
	beq	.L11
	.loc 1 40 5 is_stmt 1 view .LVU48
	.loc 1 40 8 is_stmt 0 view .LVU49
	tst	r0, #1
	beq	.L12
	.loc 1 41 6 is_stmt 1 view .LVU50
	.loc 1 41 10 is_stmt 0 view .LVU51
	eor	r0, r2, r0, lsr #1
.LVL16:
	.loc 1 41 10 view .LVU52
	b	.L13
.L18:
	.loc 1 47 6 is_stmt 1 view .LVU53
	.loc 1 47 23 is_stmt 0 view .LVU54
	eor	r0, r2, r0, lsl #1
.LVL17:
	.loc 1 47 10 view .LVU55
	uxtb	r0, r0
.LVL18:
	.loc 1 47 10 view .LVU56
	b	.L13
.L19:
	.loc 1 35 23 is_stmt 1 discriminator 2 view .LVU57
	.loc 1 35 24 is_stmt 0 discriminator 2 view .LVU58
	adds	r5, r5, #1
.LVL19:
.L9:
	.loc 1 35 14 is_stmt 1 discriminator 1 view .LVU59
	.loc 1 35 2 is_stmt 0 discriminator 1 view .LVU60
	cmp	r5, r1
	bcs	.L20
	.loc 1 36 3 is_stmt 1 view .LVU61
	.loc 1 36 13 is_stmt 0 view .LVU62
	ldrb	r3, [r6, r5]	@ zero_extendqisi2
	.loc 1 36 7 view .LVU63
	eors	r0, r0, r3
.LVL20:
	.loc 1 38 3 is_stmt 1 view .LVU64
	.loc 1 38 10 is_stmt 0 view .LVU65
	movs	r3, #0
	.loc 1 38 3 view .LVU66
	b	.L10
.LVL21:
.L20:
	.loc 1 56 1 view .LVU67
	pop	{r4, r5, r6}
	.cfi_restore 6
	.cfi_restore 5
	.cfi_restore 4
	.cfi_def_cfa_offset 0
.LVL22:
	.loc 1 56 1 view .LVU68
	bx	lr
	.cfi_endproc
.LFE2:
	.size	crc8, .-crc8
	.section	.rodata.crc8_ccitt_small_table,"a"
	.align	2
	.set	.LANCHOR0,. + 0
	.type	crc8_ccitt_small_table, %object
	.size	crc8_ccitt_small_table, 16
crc8_ccitt_small_table:
	.ascii	"\000\007\016\011\034\033\022\0258?61$#*-"
	.text
.Letext0:
	.file 2 "/home/sebin/LIOT/gcc-arm-none-eabi-9-2019-q4-major/lib/gcc/arm-none-eabi/9.2.1/include/stddef.h"
	.file 3 "/home/sebin/LIOT/gcc-arm-none-eabi-9-2019-q4-major/arm-none-eabi/include/machine/_default_types.h"
	.file 4 "/home/sebin/LIOT/gcc-arm-none-eabi-9-2019-q4-major/arm-none-eabi/include/sys/_stdint.h"