	.cpu cortex-m4
	.eabi_attribute 27, 1
	.eabi_attribute 28, 1
	.eabi_attribute 20, 1
	.eabi_attribute 21, 1
	.eabi_attribute 23, 3
	.eabi_attribute 24, 1
	.eabi_attribute 25, 1
	.eabi_attribute 26, 1
	.eabi_attribute 30, 1
	.eabi_attribute 34, 1
	.eabi_attribute 38, 1
	.eabi_attribute 18, 4
	.file	"dec.c"
	.text
.Ltext0:
	.cfi_sections	.debug_frame
	.section	.text.u8_to_dec,"ax",%progbits
	.align	1
	.global	u8_to_dec
	.arch armv7e-m
	.syntax unified
	.thumb
	.thumb_func
	.fpu fpv4-sp-d16
	.type	u8_to_dec, %function
u8_to_dec:
.LVL0:
.LFB6:
	.file 1 "/home/sebin/thesis/zephyrproject/zephyr/lib/os/dec.c"
	.loc 1 10 1 view -0
	.cfi_startproc
	@ args = 0, pretend = 0, frame = 0
	@ frame_needed = 0, uses_anonymous_args = 0
	@ link register save eliminated.
	.loc 1 10 1 is_stmt 0 view .LVU1
	push	{r4, r5}
	.cfi_def_cfa_offset 8
	.cfi_offset 4, -8
	.cfi_offset 5, -4
	mov	r5, r0
	.loc 1 11 2 is_stmt 1 view .LVU2
.LVL1:
	.loc 1 12 2 view .LVU3
	.loc 1 13 2 view .LVU4
	.loc 1 15 2 view .LVU5
	.loc 1 12 10 is_stmt 0 view .LVU6
	movs	r0, #0
.LVL2:
	.loc 1 11 10 view .LVU7
	movs	r3, #100
	.loc 1 15 8 view .LVU8
	b	.L2
.LVL3:
.L3:
	.loc 1 18 4 is_stmt 1 view .LVU9
	.loc 1 18 23 is_stmt 0 view .LVU10
	adds	r4, r4, #48
.LVL4:
	.loc 1 18 9 view .LVU11
	strb	r4, [r5], #1
.LVL5:
	.loc 1 19 4 is_stmt 1 view .LVU12
	.loc 1 20 4 view .LVU13
	.loc 1 20 10 is_stmt 0 view .LVU14
	subs	r1, r1, #1
.LVL6:
	.loc 1 20 10 view .LVU15
	uxtb	r1, r1
.LVL7:
	.loc 1 21 4 is_stmt 1 view .LVU16
	.loc 1 21 14 is_stmt 0 view .LVU17
	adds	r0, r0, #1
.LVL8:
	.loc 1 21 14 view .LVU18
	uxtb	r0, r0
.LVL9:
.L4:
	.loc 1 24 3 is_stmt 1 view .LVU19
	udiv	r4, r2, r3
	mls	r2, r3, r4, r2
.LVL10:
	.loc 1 24 3 is_stmt 0 view .LVU20
	uxtb	r2, r2
.LVL11:
	.loc 1 25 3 is_stmt 1 view .LVU21
	.loc 1 25 11 is_stmt 0 view .LVU22
	ldr	r4, .L9
	umull	r4, r3, r4, r3
.LVL12:
	.loc 1 25 11 view .LVU23
	lsrs	r3, r3, #3
.LVL13:
.L2:
	.loc 1 15 8 is_stmt 1 view .LVU24
	cbz	r1, .L5
	.loc 1 15 20 is_stmt 0 discriminator 1 view .LVU25
	cbz	r3, .L5
	.loc 1 16 3 is_stmt 1 view .LVU26
	.loc 1 16 9 is_stmt 0 view .LVU27
	udiv	r4, r2, r3
.LVL14:
	.loc 1 17 3 is_stmt 1 view .LVU28
	.loc 1 17 6 is_stmt 0 view .LVU29
	cmp	r2, r3
	bcs	.L3
	.loc 1 17 18 discriminator 1 view .LVU30
	cmp	r3, #1
	beq	.L3
	.loc 1 17 34 discriminator 2 view .LVU31
	cmp	r0, #0
	beq	.L4
	b	.L3
.LVL15:
.L5:
	.loc 1 28 2 is_stmt 1 view .LVU32
	.loc 1 28 5 is_stmt 0 view .LVU33
	cbz	r1, .L7
	.loc 1 29 3 is_stmt 1 view .LVU34
	.loc 1 29 8 is_stmt 0 view .LVU35
	movs	r3, #0
.LVL16:
	.loc 1 29 8 view .LVU36
	strb	r3, [r5]
.L7:
	.loc 1 32 2 is_stmt 1 view .LVU37
	.loc 1 33 1 is_stmt 0 view .LVU38
	pop	{r4, r5}
	.cfi_restore 5
	.cfi_restore 4
	.cfi_def_cfa_offset 0
.LVL17:
	.loc 1 33 1 view .LVU39
	bx	lr
.L10:
	.align	2
.L9:
	.word	-858993459
	.cfi_endproc
.LFE6:
	.size	u8_to_dec, .-u8_to_dec
	.text
.Letext0:
	.file 2 "/home/sebin/LIOT/gcc-arm-none-eabi-9-2019-q4-major/arm-none-eabi/include/machine/_default_types.h"
	.file 3 "/home/sebin/LIOT/gcc-arm-none-eabi-9-2019-q4-major/arm-none-eabi/include/sys/_stdint.h"