	.cpu cortex-m4
	.eabi_attribute 27, 1
	.eabi_attribute 28, 1
	.eabi_attribute 20, 1
	.eabi_attribute 21, 1
	.eabi_attribute 23, 3
	.eabi_attribute 24, 1
	.eabi_attribute 25, 1
	.eabi_attribute 26, 1
	.eabi_attribute 30, 1
	.eabi_attribute 34, 1
	.eabi_attribute 38, 1
	.eabi_attribute 18, 4
	.file	"heap-validate.c"
	.text
.Ltext0:
	.cfi_sections	.debug_frame
	.section	.text.in_bounds,"ax",%progbits
	.align	1
	.arch armv7e-m
	.syntax unified
	.thumb
	.thumb_func
	.fpu fpv4-sp-d16
	.type	in_bounds, %function
in_bounds:
.LVL0:
.LFB517:
	.file 1 "/home/sebin/thesis/zephyrproject/zephyr/lib/os/heap-validate.c"
	.loc 1 24 1 view -0
	.cfi_startproc
	@ args = 0, pretend = 0, frame = 0
	@ frame_needed = 0, uses_anonymous_args = 0
	@ link register save eliminated.
	.loc 1 25 2 view .LVU1
	.loc 1 25 7 view .LVU2
.LBB281:
.LBI281:
	.file 2 "/home/sebin/thesis/zephyrproject/zephyr/lib/os/heap.h"
	.loc 2 203 25 view .LVU3
.LBE281:
	.loc 2 205 2 view .LVU4
.LBB294:
.LBB282:
.LBI282:
	.loc 2 141 25 view .LVU5
.LBB283:
	.loc 2 143 2 view .LVU6
.LBB284:
.LBI284:
	.loc 2 106 25 view .LVU7
.LBB285:
	.loc 2 109 2 view .LVU8
	.loc 2 109 2 is_stmt 0 view .LVU9
.LBE285:
.LBE284:
.LBE283:
.LBE282:
.LBE294:
	.loc 2 103 2 is_stmt 1 view .LVU10
.LBB295:
.LBB292:
.LBB290:
.LBB288:
.LBB286:
	.loc 2 110 2 view .LVU11
	.loc 2 112 2 view .LVU12
	.loc 2 112 2 is_stmt 0 view .LVU13
.LBE286:
.LBE288:
.LBE290:
.LBE292:
.LBE295:
	.loc 2 97 2 is_stmt 1 view .LVU14
	.loc 2 81 2 view .LVU15
	.loc 2 82 3 view .LVU16
.LBB296:
.LBB293:
.LBB291:
.LBB289:
.LBB287:
	.loc 2 115 3 view .LVU17
	.loc 2 115 28 is_stmt 0 view .LVU18
	ldrh	r3, [r0, #2]
.LVL1:
	.loc 2 115 28 view .LVU19
.LBE287:
.LBE289:
.LBE291:
.LBE293:
.LBE296:
	.loc 1 25 10 view .LVU20
	cmp	r1, r3, lsr #1
	bcc	.L3
	.loc 1 25 13 is_stmt 1 discriminator 2 view .LVU21
	.loc 1 26 2 discriminator 2 view .LVU22
	.loc 1 26 7 discriminator 2 view .LVU23
	.loc 1 26 18 is_stmt 0 discriminator 2 view .LVU24
	ldr	r3, [r0, #8]
	.loc 1 26 10 discriminator 2 view .LVU25
	cmp	r3, r1
	bls	.L4
	.loc 1 26 13 is_stmt 1 view .LVU26
	.loc 1 27 2 view .LVU27
	.loc 1 27 7 view .LVU28
.LVL2:
.LBB297:
.LBI297:
	.loc 2 141 25 view .LVU29
.LBB298:
	.loc 2 143 2 view .LVU30
.LBB299:
.LBI299:
	.loc 2 106 25 view .LVU31
.LBB300:
	.loc 2 109 2 view .LVU32
	.loc 2 109 2 is_stmt 0 view .LVU33
.LBE300:
.LBE299:
.LBE298:
.LBE297:
	.loc 2 103 2 is_stmt 1 view .LVU34
.LBB307:
.LBB305:
.LBB303:
.LBB301:
	.loc 2 110 2 view .LVU35
	.loc 2 112 2 view .LVU36
	.loc 2 112 2 is_stmt 0 view .LVU37
.LBE301:
.LBE303:
.LBE305:
.LBE307:
	.loc 2 97 2 is_stmt 1 view .LVU38
	.loc 2 81 2 view .LVU39
	.loc 2 82 3 view .LVU40
.LBB308:
.LBB306:
.LBB304:
.LBB302:
	.loc 2 115 3 view .LVU41
	.loc 2 115 28 is_stmt 0 view .LVU42
	add	r0, r0, r1, lsl #3
.LVL3:
	.loc 2 115 28 view .LVU43
	ldrh	r2, [r0, #2]
.LVL4:
	.loc 2 115 28 view .LVU44
.LBE302:
.LBE304:
.LBE306:
.LBE308:
	.loc 1 27 10 view .LVU45
	cmp	r3, r2, lsr #1
	bls	.L5
	.loc 1 28 8 view .LVU46
	movs	r0, #1
.LVL5:
	.loc 1 28 8 view .LVU47
	bx	lr
.LVL6:
.L3:
	.loc 1 25 1 view .LVU48
	movs	r0, #0
.LVL7:
	.loc 1 25 1 view .LVU49
	bx	lr
.LVL8:
.L4:
	.loc 1 26 1 view .LVU50
	movs	r0, #0
.LVL9:
	.loc 1 26 1 view .LVU51
	bx	lr
.LVL10:
.L5:
	.loc 1 27 1 view .LVU52
	movs	r0, #0
.LVL11:
	.loc 1 29 1 view .LVU53
	bx	lr
	.cfi_endproc
.LFE517:
	.size	in_bounds, .-in_bounds
	.section	.text.valid_chunk,"ax",%progbits
	.align	1
	.syntax unified
	.thumb
	.thumb_func
	.fpu fpv4-sp-d16
	.type	valid_chunk, %function
valid_chunk:
.LVL12:
.LFB518:
	.loc 1 32 1 is_stmt 1 view -0
	.cfi_startproc
	@ args = 0, pretend = 0, frame = 0
	@ frame_needed = 0, uses_anonymous_args = 0
	.loc 1 32 1 is_stmt 0 view .LVU55
	push	{r4, r5, r6, r7, r8, lr}
	.cfi_def_cfa_offset 24
	.cfi_offset 4, -24
	.cfi_offset 5, -20
	.cfi_offset 6, -16
	.cfi_offset 7, -12
	.cfi_offset 8, -8
	.cfi_offset 14, -4
	.loc 1 33 2 is_stmt 1 view .LVU56
	.loc 1 33 7 view .LVU57
.LVL13:
.LBB309:
.LBI309:
	.loc 2 141 25 view .LVU58
.LBB310:
	.loc 2 143 2 view .LVU59
.LBB311:
.LBI311:
	.loc 2 106 25 view .LVU60
.LBB312:
	.loc 2 109 2 view .LVU61
	.loc 2 109 2 is_stmt 0 view .LVU62
.LBE312:
.LBE311:
.LBE310:
.LBE309:
	.loc 2 103 2 is_stmt 1 view .LVU63
.LBB319:
.LBB317:
.LBB315:
.LBB313:
	.loc 2 110 2 view .LVU64
	.loc 2 112 2 view .LVU65
	.loc 2 112 2 is_stmt 0 view .LVU66
.LBE313:
.LBE315:
.LBE317:
.LBE319:
	.loc 2 97 2 is_stmt 1 view .LVU67
	.loc 2 81 2 view .LVU68
	.loc 2 82 3 view .LVU69
.LBB320:
.LBB318:
.LBB316:
.LBB314:
	.loc 2 115 3 view .LVU70
	.loc 2 115 28 is_stmt 0 view .LVU71
	add	r3, r0, r1, lsl #3
	ldrh	r7, [r3, #2]
.LVL14:
	.loc 2 115 28 view .LVU72
.LBE314:
.LBE316:
.LBE318:
.LBE320:
	.loc 1 33 10 view .LVU73
	lsrs	r6, r7, #1
	beq	.L8
	mov	r5, r0
	mov	r4, r1
	lsl	r8, r1, #3
.LVL15:
	.loc 1 33 13 is_stmt 1 view .LVU74
	.loc 1 34 2 view .LVU75
	.loc 1 34 7 view .LVU76
	.loc 2 143 2 view .LVU77
	.loc 2 109 2 view .LVU78
	.loc 2 103 2 view .LVU79
	.loc 2 110 2 view .LVU80
	.loc 2 112 2 view .LVU81
	.loc 2 97 2 view .LVU82
	.loc 2 81 2 view .LVU83
	.loc 2 82 3 view .LVU84
	.loc 2 115 3 view .LVU85
	.loc 1 34 15 is_stmt 0 view .LVU86
	add	r6, r6, r1
	.loc 1 34 38 view .LVU87
	ldr	r3, [r0, #8]
.LVL16:
	.loc 1 34 10 view .LVU88
	cmp	r6, r3
	bhi	.L9
	.loc 1 34 13 is_stmt 1 discriminator 2 view .LVU89
	.loc 1 35 2 discriminator 2 view .LVU90
	.loc 1 35 7 discriminator 2 view .LVU91
	.loc 1 35 13 is_stmt 0 discriminator 2 view .LVU92
	bl	in_bounds
.LVL17:
	.loc 1 35 10 discriminator 2 view .LVU93
	cbz	r0, .L7
	.loc 1 35 13 is_stmt 1 view .LVU94
	.loc 1 36 2 view .LVU95
	.loc 1 36 7 view .LVU96
.LVL18:
.LBB321:
.LBI321:
	.loc 2 198 25 view .LVU97
.LBB322:
	.loc 2 200 2 view .LVU98
.LBB323:
.LBI323:
	.loc 2 106 25 view .LVU99
.LBB324:
	.loc 2 109 2 view .LVU100
	.loc 2 109 2 is_stmt 0 view .LVU101
.LBE324:
.LBE323:
.LBE322:
.LBE321:
	.loc 2 103 2 is_stmt 1 view .LVU102
.LBB331:
.LBB329:
.LBB327:
.LBB325:
	.loc 2 110 2 view .LVU103
	.loc 2 112 2 view .LVU104
	.loc 2 112 2 is_stmt 0 view .LVU105
.LBE325:
.LBE327:
.LBE329:
.LBE331:
	.loc 2 97 2 is_stmt 1 view .LVU106
	.loc 2 81 2 view .LVU107
	.loc 2 82 3 view .LVU108
.LBB332:
.LBB330:
.LBB328:
.LBB326:
	.loc 2 115 3 view .LVU109
	.loc 2 115 28 is_stmt 0 view .LVU110
	ldrh	r3, [r5, r4, lsl #3]
.LVL19:
	.loc 2 115 28 view .LVU111
.LBE326:
.LBE328:
	.loc 2 200 11 view .LVU112
	subs	r3, r4, r3
.LVL20:
	.loc 2 200 11 view .LVU113
.LBE330:
.LBE332:
.LBB333:
.LBI333:
	.loc 2 203 25 is_stmt 1 view .LVU114
.LBB334:
	.loc 2 205 2 view .LVU115
.LBB335:
.LBI335:
	.loc 2 141 25 view .LVU116
.LBB336:
	.loc 2 143 2 view .LVU117
.LBB337:
.LBI337:
	.loc 2 106 25 view .LVU118
.LBB338:
	.loc 2 109 2 view .LVU119
	.loc 2 109 2 is_stmt 0 view .LVU120
.LBE338:
.LBE337:
.LBE336:
.LBE335:
.LBE334:
.LBE333:
	.loc 2 103 2 is_stmt 1 view .LVU121
.LBB349:
.LBB347:
.LBB345:
.LBB343:
.LBB341:
.LBB339:
	.loc 2 110 2 view .LVU122
	.loc 2 112 2 view .LVU123
	.loc 2 112 2 is_stmt 0 view .LVU124
.LBE339:
.LBE341:
.LBE343:
.LBE345:
.LBE347:
.LBE349:
	.loc 2 97 2 is_stmt 1 view .LVU125
	.loc 2 81 2 view .LVU126
	.loc 2 82 3 view .LVU127
.LBB350:
.LBB348:
.LBB346:
.LBB344:
.LBB342:
.LBB340:
	.loc 2 115 3 view .LVU128
	.loc 2 115 28 is_stmt 0 view .LVU129
	add	r2, r5, r3, lsl #3
	ldrh	r2, [r2, #2]
.LVL21:
	.loc 2 115 28 view .LVU130
.LBE340:
.LBE342:
.LBE344:
.LBE346:
	.loc 2 205 11 view .LVU131
	add	r3, r3, r2, lsr #1
.LVL22:
	.loc 2 205 11 view .LVU132
.LBE348:
.LBE350:
	.loc 1 36 10 view .LVU133
	cmp	r4, r3
	bne	.L10
	.loc 1 36 13 is_stmt 1 view .LVU134
	.loc 1 37 2 view .LVU135
	.loc 1 37 7 view .LVU136
.LVL23:
	.loc 2 205 2 view .LVU137
	.loc 2 143 2 view .LVU138
	.loc 2 109 2 view .LVU139
	.loc 2 103 2 view .LVU140
	.loc 2 110 2 view .LVU141
	.loc 2 112 2 view .LVU142
	.loc 2 97 2 view .LVU143
	.loc 2 81 2 view .LVU144
	.loc 2 82 3 view .LVU145
	.loc 2 115 3 view .LVU146
.LBB351:
.LBI351:
	.loc 2 198 25 view .LVU147
.LBB352:
	.loc 2 200 2 view .LVU148
.LBB353:
.LBI353:
	.loc 2 106 25 view .LVU149
.LBB354:
	.loc 2 109 2 view .LVU150
	.loc 2 109 2 is_stmt 0 view .LVU151
.LBE354:
.LBE353:
.LBE352:
.LBE351:
	.loc 2 103 2 is_stmt 1 view .LVU152
.LBB361:
.LBB359:
.LBB357:
.LBB355:
	.loc 2 110 2 view .LVU153
	.loc 2 110 19 is_stmt 0 view .LVU154
	lsls	r1, r6, #3
.LVL24:
	.loc 2 112 2 is_stmt 1 view .LVU155
	.loc 2 112 2 is_stmt 0 view .LVU156
.LBE355:
.LBE357:
.LBE359:
.LBE361:
	.loc 2 97 2 is_stmt 1 view .LVU157
	.loc 2 81 2 view .LVU158
	.loc 2 82 3 view .LVU159
.LBB362:
.LBB360:
.LBB358:
.LBB356:
	.loc 2 115 3 view .LVU160
	.loc 2 115 28 is_stmt 0 view .LVU161
	ldrh	r3, [r5, r6, lsl #3]
.LVL25:
	.loc 2 115 28 view .LVU162
.LBE356:
.LBE358:
	.loc 2 200 11 view .LVU163
	subs	r6, r6, r3
.LVL26:
	.loc 2 200 11 view .LVU164
.LBE360:
.LBE362:
	.loc 1 37 10 view .LVU165
	cmp	r4, r6
	bne	.L11
	.loc 1 37 13 is_stmt 1 view .LVU166
	.loc 1 38 2 view .LVU167
.LVL27:
	.loc 2 138 2 view .LVU168
	.loc 2 109 2 view .LVU169
	.loc 2 103 2 view .LVU170
	.loc 2 110 2 view .LVU171
	.loc 2 112 2 view .LVU172
	.loc 2 97 2 view .LVU173
	.loc 2 81 2 view .LVU174
	.loc 2 82 3 view .LVU175
	.loc 2 115 3 view .LVU176
	.loc 1 38 5 is_stmt 0 view .LVU177
	tst	r7, #1
	bne	.L7
	.loc 1 41 3 is_stmt 1 view .LVU178
	.loc 1 41 8 view .LVU179
.LVL28:
	.loc 2 200 2 view .LVU180
	.loc 2 109 2 view .LVU181
	.loc 2 103 2 view .LVU182
	.loc 2 110 2 view .LVU183
	.loc 2 112 2 view .LVU184
	.loc 2 97 2 view .LVU185
	.loc 2 81 2 view .LVU186
	.loc 2 82 3 view .LVU187
	.loc 2 115 3 view .LVU188
	.loc 2 138 2 view .LVU189
	.loc 2 109 2 view .LVU190
	.loc 2 103 2 view .LVU191
	.loc 2 110 2 view .LVU192
	.loc 2 112 2 view .LVU193
	.loc 2 97 2 view .LVU194
	.loc 2 81 2 view .LVU195
	.loc 2 82 3 view .LVU196
	.loc 2 115 3 view .LVU197
	.loc 1 41 11 is_stmt 0 view .LVU198
	tst	r2, #1
	beq	.L12
	.loc 1 41 14 is_stmt 1 view .LVU199
	.loc 1 42 3 view .LVU200
	.loc 1 42 8 view .LVU201
.LVL29:
	.loc 2 205 2 view .LVU202
	.loc 2 143 2 view .LVU203
	.loc 2 109 2 view .LVU204
	.loc 2 103 2 view .LVU205
	.loc 2 110 2 view .LVU206
	.loc 2 112 2 view .LVU207
	.loc 2 97 2 view .LVU208
	.loc 2 81 2 view .LVU209
	.loc 2 82 3 view .LVU210
	.loc 2 115 3 view .LVU211
.LBB363:
.LBI363:
	.loc 2 136 19 view .LVU212
.LBE363:
	.loc 2 138 2 view .LVU213
.LBB370:
.LBB364:
.LBI364:
	.loc 2 106 25 view .LVU214
.LBB365:
	.loc 2 109 2 view .LVU215
	.loc 2 109 2 is_stmt 0 view .LVU216
.LBE365:
.LBE364:
.LBE370:
	.loc 2 103 2 is_stmt 1 view .LVU217
.LBB371:
.LBB368:
.LBB366:
	.loc 2 110 2 view .LVU218
	.loc 2 112 2 view .LVU219
	.loc 2 112 2 is_stmt 0 view .LVU220
.LBE366:
.LBE368:
.LBE371:
	.loc 2 97 2 is_stmt 1 view .LVU221
	.loc 2 81 2 view .LVU222
	.loc 2 82 3 view .LVU223
.LBB372:
.LBB369:
.LBB367:
	.loc 2 115 3 view .LVU224
	.loc 2 115 28 is_stmt 0 view .LVU225
	add	r1, r1, r5
.LVL30:
	.loc 2 115 28 view .LVU226
	ldrh	r3, [r1, #2]
.LVL31:
	.loc 2 115 28 view .LVU227
.LBE367:
.LBE369:
.LBE372:
	.loc 1 42 11 view .LVU228
	tst	r3, #1
	beq	.L13
	.loc 1 42 14 is_stmt 1 view .LVU229
	.loc 1 43 3 view .LVU230
.LVL32:
	.loc 2 216 2 view .LVU231
	.loc 2 97 2 view .LVU232
	.loc 2 81 2 view .LVU233
	.loc 2 82 3 view .LVU234
	.loc 1 44 4 view .LVU235
	.loc 1 44 9 view .LVU236
.LBB373:
.LBI373:
	.loc 2 176 25 view .LVU237
.LBE373:
	.loc 2 178 2 view .LVU238
.LBB380:
.LBB374:
.LBI374:
	.loc 2 106 25 view .LVU239
.LBB375:
	.loc 2 109 2 view .LVU240
	.loc 2 109 2 is_stmt 0 view .LVU241
.LBE375:
.LBE374:
.LBE380:
	.loc 2 103 2 is_stmt 1 view .LVU242
.LBB381:
.LBB378:
.LBB376:
	.loc 2 110 2 view .LVU243
	.loc 2 112 2 view .LVU244
	.loc 2 112 2 is_stmt 0 view .LVU245
.LBE376:
.LBE378:
.LBE381:
	.loc 2 97 2 is_stmt 1 view .LVU246
	.loc 2 81 2 view .LVU247
	.loc 2 82 3 view .LVU248
.LBB382:
.LBB379:
.LBB377:
	.loc 2 115 3 view .LVU249
	.loc 2 115 28 is_stmt 0 view .LVU250
	add	r3, r5, r8
.LVL33:
	.loc 2 115 28 view .LVU251
.LBE377:
.LBE379:
.LBE382:
	.loc 1 44 15 view .LVU252
	ldrh	r1, [r3, #4]
.LVL34:
	.loc 1 44 15 view .LVU253
	mov	r0, r5
	bl	in_bounds
.LVL35:
	.loc 1 44 12 view .LVU254
	cbz	r0, .L7
	.loc 1 44 15 is_stmt 1 view .LVU255
	.loc 1 45 4 view .LVU256
	.loc 1 45 9 view .LVU257
.LVL36:
.LBB383:
.LBI383:
	.loc 2 181 25 view .LVU258
.LBE383:
	.loc 2 183 2 view .LVU259
.LBB390:
.LBB384:
.LBI384:
	.loc 2 106 25 view .LVU260
.LBB385:
	.loc 2 109 2 view .LVU261
	.loc 2 109 2 is_stmt 0 view .LVU262
.LBE385:
.LBE384:
.LBE390:
	.loc 2 103 2 is_stmt 1 view .LVU263
.LBB391:
.LBB388:
.LBB386:
	.loc 2 110 2 view .LVU264
	.loc 2 112 2 view .LVU265
	.loc 2 112 2 is_stmt 0 view .LVU266
.LBE386:
.LBE388:
.LBE391:
	.loc 2 97 2 is_stmt 1 view .LVU267
	.loc 2 81 2 view .LVU268
	.loc 2 82 3 view .LVU269
.LBB392:
.LBB389:
.LBB387:
	.loc 2 115 3 view .LVU270
	.loc 2 115 28 is_stmt 0 view .LVU271
	add	r8, r8, r5
.LVL37:
	.loc 2 115 28 view .LVU272
.LBE387:
.LBE389:
.LBE392:
	.loc 1 45 15 view .LVU273
	ldrh	r1, [r8, #6]
	mov	r0, r5
	bl	in_bounds
.LVL38:
	b	.L7
.LVL39:
.L8:
	.loc 1 33 1 view .LVU274
	movs	r0, #0
.LVL40:
.L7:
	.loc 1 49 1 view .LVU275
	pop	{r4, r5, r6, r7, r8, pc}
.LVL41:
.L9:
	.loc 1 34 1 view .LVU276
	movs	r0, #0
.LVL42:
	.loc 1 34 1 view .LVU277
	b	.L7
.LVL43:
.L10:
	.loc 1 36 1 view .LVU278
	movs	r0, #0
	b	.L7
.LVL44:
.L11:
	.loc 1 37 1 view .LVU279
	movs	r0, #0
	b	.L7
.LVL45:
.L12:
	.loc 1 41 2 view .LVU280
	movs	r0, #0
	b	.L7
.LVL46:
.L13:
	.loc 1 42 2 view .LVU281
	movs	r0, #0
	b	.L7
	.cfi_endproc
.LFE518:
	.size	valid_chunk, .-valid_chunk
	.section	.text.get_alloc_info,"ax",%progbits
	.align	1
	.syntax unified
	.thumb
	.thumb_func
	.fpu fpv4-sp-d16
	.type	get_alloc_info, %function
get_alloc_info:
.LVL47:
.LFB520:
	.loc 1 73 1 is_stmt 1 view -0
	.cfi_startproc
	@ args = 0, pretend = 0, frame = 0
	@ frame_needed = 0, uses_anonymous_args = 0
	@ link register save eliminated.
	.loc 1 73 1 is_stmt 0 view .LVU283
	push	{r4, r5, r6}
	.cfi_def_cfa_offset 12
	.cfi_offset 4, -12
	.cfi_offset 5, -8
	.cfi_offset 6, -4
	.loc 1 74 2 is_stmt 1 view .LVU284
	.loc 1 76 2 view .LVU285
	.loc 1 76 15 is_stmt 0 view .LVU286
	movs	r3, #0
	str	r3, [r1]
	.loc 1 77 2 is_stmt 1 view .LVU287
	.loc 1 77 14 is_stmt 0 view .LVU288
	str	r3, [r2]
	.loc 1 79 2 is_stmt 1 view .LVU289
.LVL48:
.LBB393:
.LBI393:
	.loc 2 203 25 view .LVU290
.LBE393:
	.loc 2 205 2 view .LVU291
.LBB406:
.LBB394:
.LBI394:
	.loc 2 141 25 view .LVU292
.LBB395:
	.loc 2 143 2 view .LVU293
.LBB396:
.LBI396:
	.loc 2 106 25 view .LVU294
.LBB397:
	.loc 2 109 2 view .LVU295
	.loc 2 109 2 is_stmt 0 view .LVU296
.LBE397:
.LBE396:
.LBE395:
.LBE394:
.LBE406:
	.loc 2 103 2 is_stmt 1 view .LVU297
.LBB407:
.LBB404:
.LBB402:
.LBB400:
.LBB398:
	.loc 2 110 2 view .LVU298
	.loc 2 112 2 view .LVU299
	.loc 2 112 2 is_stmt 0 view .LVU300
.LBE398:
.LBE400:
.LBE402:
.LBE404:
.LBE407:
	.loc 2 97 2 is_stmt 1 view .LVU301
	.loc 2 81 2 view .LVU302
	.loc 2 82 3 view .LVU303
.LBB408:
.LBB405:
.LBB403:
.LBB401:
.LBB399:
	.loc 2 115 3 view .LVU304
	.loc 2 115 28 is_stmt 0 view .LVU305
	ldrh	r5, [r0, #2]
.LVL49:
	.loc 2 115 28 view .LVU306
.LBE399:
.LBE401:
	.loc 2 143 42 view .LVU307
	lsrs	r5, r5, #1
.LVL50:
	.loc 2 143 42 view .LVU308
.LBE403:
.LBE405:
.LBE408:
	.loc 1 79 2 view .LVU309
	b	.L16
.LVL51:
.L17:
	.loc 1 82 10 is_stmt 1 view .LVU310
	.loc 2 216 2 view .LVU311
	.loc 2 97 2 view .LVU312
	.loc 2 81 2 view .LVU313
	.loc 2 82 3 view .LVU314
	.loc 1 83 4 view .LVU315
.LBB409:
.LBI409:
	.loc 2 141 25 view .LVU316
.LBB410:
	.loc 2 143 2 view .LVU317
.LBB411:
.LBI411:
	.loc 2 106 25 view .LVU318
.LBB412:
	.loc 2 109 2 view .LVU319
	.loc 2 109 2 is_stmt 0 view .LVU320
.LBE412:
.LBE411:
.LBE410:
.LBE409:
	.loc 2 103 2 is_stmt 1 view .LVU321
.LBB419:
.LBB417:
.LBB415:
.LBB413:
	.loc 2 110 2 view .LVU322
	.loc 2 112 2 view .LVU323
	.loc 2 112 2 is_stmt 0 view .LVU324
.LBE413:
.LBE415:
.LBE417:
.LBE419:
	.loc 2 97 2 is_stmt 1 view .LVU325
	.loc 2 81 2 view .LVU326
	.loc 2 82 3 view .LVU327
.LBB420:
.LBB418:
.LBB416:
.LBB414:
	.loc 2 115 3 view .LVU328
	.loc 2 115 3 is_stmt 0 view .LVU329
.LBE414:
.LBE416:
	.loc 2 143 42 view .LVU330
	lsrs	r3, r3, #1
.LVL52:
	.loc 2 143 42 view .LVU331
.LBE418:
.LBE420:
.LBB421:
.LBI421:
	.loc 2 244 22 is_stmt 1 view .LVU332
.LBB422:
	.loc 2 246 2 view .LVU333
	.loc 2 246 20 is_stmt 0 view .LVU334
	lsls	r3, r3, #3
.LVL53:
	.loc 2 246 20 view .LVU335
.LBE422:
.LBE421:
	.loc 2 221 2 is_stmt 1 view .LVU336
	.loc 2 97 2 view .LVU337
	.loc 2 81 2 view .LVU338
	.loc 2 82 3 view .LVU339
.LBB424:
.LBB423:
	.loc 2 246 25 is_stmt 0 view .LVU340
	subs	r3, r3, #4
.LVL54:
	.loc 2 246 25 view .LVU341
.LBE423:
.LBE424:
	.loc 1 83 16 view .LVU342
	ldr	r6, [r2]
	add	r3, r3, r6
	str	r3, [r2]
.LVL55:
.L18:
	.loc 1 79 48 is_stmt 1 discriminator 2 view .LVU343
.LBB425:
.LBI425:
	.loc 2 203 25 discriminator 2 view .LVU344
.LBB426:
	.loc 2 205 2 discriminator 2 view .LVU345
.LBB427:
.LBI427:
	.loc 2 141 25 discriminator 2 view .LVU346
.LBB428:
	.loc 2 143 2 discriminator 2 view .LVU347
.LBB429:
.LBI429:
	.loc 2 106 25 discriminator 2 view .LVU348
.LBB430:
	.loc 2 109 2 discriminator 2 view .LVU349
	.loc 2 109 2 is_stmt 0 discriminator 2 view .LVU350
.LBE430:
.LBE429:
.LBE428:
.LBE427:
.LBE426:
.LBE425:
	.loc 2 103 2 is_stmt 1 discriminator 2 view .LVU351
.LBB441:
.LBB439:
.LBB437:
.LBB435:
.LBB433:
.LBB431:
	.loc 2 110 2 discriminator 2 view .LVU352
	.loc 2 112 2 discriminator 2 view .LVU353
	.loc 2 112 2 is_stmt 0 discriminator 2 view .LVU354
.LBE431:
.LBE433:
.LBE435:
.LBE437:
.LBE439:
.LBE441:
	.loc 2 97 2 is_stmt 1 discriminator 2 view .LVU355
	.loc 2 81 2 discriminator 2 view .LVU356
	.loc 2 82 3 discriminator 2 view .LVU357
.LBB442:
.LBB440:
.LBB438:
.LBB436:
.LBB434:
.LBB432:
	.loc 2 115 3 discriminator 2 view .LVU358
	.loc 2 115 28 is_stmt 0 discriminator 2 view .LVU359
	ldrh	r3, [r0, r4]
.LVL56:
	.loc 2 115 28 discriminator 2 view .LVU360
.LBE432:
.LBE434:
.LBE436:
.LBE438:
	.loc 2 205 11 discriminator 2 view .LVU361
	add	r5, r5, r3, lsr #1
.LVL57:
.L16:
	.loc 2 205 11 discriminator 2 view .LVU362
.LBE440:
.LBE442:
	.loc 1 79 30 is_stmt 1 discriminator 1 view .LVU363
	.loc 1 79 35 is_stmt 0 discriminator 1 view .LVU364
	ldr	r3, [r0, #8]
	.loc 1 79 2 discriminator 1 view .LVU365
	cmp	r3, r5
	bls	.L21
	.loc 1 80 3 is_stmt 1 view .LVU366
.LVL58:
.LBB443:
.LBI443:
	.loc 2 136 19 view .LVU367
.LBE443:
	.loc 2 138 2 view .LVU368
.LBB450:
.LBB444:
.LBI444:
	.loc 2 106 25 view .LVU369
.LBB445:
	.loc 2 109 2 view .LVU370
	.loc 2 109 2 is_stmt 0 view .LVU371
.LBE445:
.LBE444:
.LBE450:
	.loc 2 103 2 is_stmt 1 view .LVU372
.LBB451:
.LBB448:
.LBB446:
	.loc 2 110 2 view .LVU373
	.loc 2 110 19 is_stmt 0 view .LVU374
	lsls	r4, r5, #3
.LVL59:
	.loc 2 112 2 is_stmt 1 view .LVU375
	.loc 2 112 2 is_stmt 0 view .LVU376
.LBE446:
.LBE448:
.LBE451:
	.loc 2 97 2 is_stmt 1 view .LVU377
	.loc 2 81 2 view .LVU378
	.loc 2 82 3 view .LVU379
.LBB452:
.LBB449:
.LBB447:
	.loc 2 115 3 view .LVU380
	.loc 2 115 28 is_stmt 0 view .LVU381
	adds	r4, r4, #2
.LVL60:
	.loc 2 115 28 view .LVU382
	ldrh	r3, [r0, r4]
.LVL61:
	.loc 2 115 28 view .LVU383
.LBE447:
.LBE449:
.LBE452:
	.loc 1 80 6 view .LVU384
	tst	r3, #1
	beq	.L17
	.loc 1 81 4 is_stmt 1 view .LVU385
.LVL62:
.LBB453:
.LBI453:
	.loc 2 141 25 view .LVU386
.LBB454:
	.loc 2 143 2 view .LVU387
.LBB455:
.LBI455:
	.loc 2 106 25 view .LVU388
.LBB456:
	.loc 2 109 2 view .LVU389
	.loc 2 109 2 is_stmt 0 view .LVU390
.LBE456:
.LBE455:
.LBE454:
.LBE453:
	.loc 2 103 2 is_stmt 1 view .LVU391
.LBB463:
.LBB461:
.LBB459:
.LBB457:
	.loc 2 110 2 view .LVU392
	.loc 2 112 2 view .LVU393
	.loc 2 112 2 is_stmt 0 view .LVU394
.LBE457:
.LBE459:
.LBE461:
.LBE463:
	.loc 2 97 2 is_stmt 1 view .LVU395
	.loc 2 81 2 view .LVU396
	.loc 2 82 3 view .LVU397
.LBB464:
.LBB462:
.LBB460:
.LBB458:
	.loc 2 115 3 view .LVU398
	.loc 2 115 3 is_stmt 0 view .LVU399
.LBE458:
.LBE460:
	.loc 2 143 42 view .LVU400
	lsrs	r3, r3, #1
.LVL63:
	.loc 2 143 42 view .LVU401
.LBE462:
.LBE464:
.LBB465:
.LBI465:
	.loc 2 244 22 is_stmt 1 view .LVU402
.LBB466:
	.loc 2 246 2 view .LVU403
	.loc 2 246 20 is_stmt 0 view .LVU404
	lsls	r3, r3, #3
.LVL64:
	.loc 2 246 20 view .LVU405
.LBE466:
.LBE465:
	.loc 2 221 2 is_stmt 1 view .LVU406
	.loc 2 97 2 view .LVU407
	.loc 2 81 2 view .LVU408
	.loc 2 82 3 view .LVU409
.LBB468:
.LBB467:
	.loc 2 246 25 is_stmt 0 view .LVU410
	subs	r3, r3, #4
.LVL65:
	.loc 2 246 25 view .LVU411
.LBE467:
.LBE468:
	.loc 1 81 17 view .LVU412
	ldr	r6, [r1]
	add	r3, r3, r6
	str	r3, [r1]
	b	.L18
.LVL66:
.L21:
	.loc 1 86 1 view .LVU413
	pop	{r4, r5, r6}
	.cfi_restore 6
	.cfi_restore 5
	.cfi_restore 4
	.cfi_def_cfa_offset 0
.LVL67:
	.loc 1 86 1 view .LVU414
	bx	lr
	.cfi_endproc
.LFE520:
	.size	get_alloc_info, .-get_alloc_info
	.section	.text.rand32,"ax",%progbits
	.align	1
	.syntax unified
	.thumb
	.thumb_func
	.fpu fpv4-sp-d16
	.type	rand32, %function
rand32:
.LFB522:
	.loc 1 226 1 is_stmt 1 view -0
	.cfi_startproc
	@ args = 0, pretend = 0, frame = 0
	@ frame_needed = 0, uses_anonymous_args = 0
	@ link register save eliminated.
	push	{r4}
	.cfi_def_cfa_offset 4
	.cfi_offset 4, -4
	.loc 1 227 2 view .LVU416
	.loc 1 229 2 view .LVU417
	.loc 1 229 16 is_stmt 0 view .LVU418
	ldr	r1, .L24
	ldr	r3, [r1, #4]
	ldr	r4, .L24+4
	ldr	r2, [r1]
	ldr	r0, .L24+8
	mul	r0, r0, r2
	mla	r0, r4, r3, r0
	umull	r3, r4, r2, r4
	add	r4, r4, r0
	.loc 1 229 40 view .LVU419
	ldr	r0, .L24+12
	adds	r2, r3, r0
	mov	r0, #0
	adc	r0, r4, r0
	.loc 1 229 8 view .LVU420
	str	r2, [r1]
	str	r0, [r1, #4]
	.loc 1 231 2 is_stmt 1 view .LVU421
	.loc 1 232 1 is_stmt 0 view .LVU422
	ldr	r4, [sp], #4
	.cfi_restore 4
	.cfi_def_cfa_offset 0
	bx	lr
.L25:
	.align	2
.L24:
	.word	.LANCHOR0
	.word	-2018463491
	.word	666578662
	.word	-1257966803
	.cfi_endproc
.LFE522:
	.size	rand32, .-rand32
	.section	.text.rand_alloc_choice,"ax",%progbits
	.align	1
	.syntax unified
	.thumb
	.thumb_func
	.fpu fpv4-sp-d16
	.type	rand_alloc_choice, %function
rand_alloc_choice:
.LVL68:
.LFB523:
	.loc 1 235 1 is_stmt 1 view -0
	.cfi_startproc
	@ args = 0, pretend = 0, frame = 0
	@ frame_needed = 0, uses_anonymous_args = 0
	.loc 1 237 2 view .LVU424
	.loc 1 237 8 is_stmt 0 view .LVU425
	ldr	r3, [r0, #24]
	.loc 1 237 5 view .LVU426
	cbz	r3, .L30
	.loc 1 239 9 is_stmt 1 view .LVU427
	.loc 1 239 37 is_stmt 0 view .LVU428
	ldr	r2, [r0, #20]
	.loc 1 239 12 view .LVU429
	cmp	r3, r2
	bcs	.L31
	.loc 1 235 1 view .LVU430
	push	{r4, lr}
	.cfi_def_cfa_offset 8
	.cfi_offset 4, -8
	.cfi_offset 14, -4
.LBB469:
	.loc 1 258 5 is_stmt 1 view .LVU431
	.loc 1 258 6 view .LVU432
	.loc 1 259 3 view .LVU433
	.loc 1 259 32 is_stmt 0 view .LVU434
	ldr	r2, [r0, #28]
	.loc 1 259 28 view .LVU435
	movs	r3, #100
	mul	r3, r3, r2
	.loc 1 259 53 view .LVU436
	ldr	r2, [r0, #12]
	.loc 1 259 12 view .LVU437
	udiv	r3, r3, r2
.LVL69:
	.loc 1 260 3 is_stmt 1 view .LVU438
	.loc 1 260 23 is_stmt 0 view .LVU439
	ldr	r2, [r0, #32]
	.loc 1 260 61 view .LVU440
	cbnz	r2, .L32
	movs	r0, #1
.LVL70:
.L28:
	.loc 1 261 3 is_stmt 1 discriminator 4 view .LVU441
	.loc 1 263 3 discriminator 4 view .LVU442
	.loc 1 263 6 is_stmt 0 discriminator 4 view .LVU443
	cmp	r2, r3
	bls	.L33
	.loc 1 264 4 is_stmt 1 view .LVU444
	.loc 1 264 42 is_stmt 0 view .LVU445
	mov	r4, #-2147483648
	udiv	r4, r4, r0
	.loc 1 264 16 view .LVU446
	mul	r4, r3, r4
.LVL71:
.L29:
	.loc 1 267 3 is_stmt 1 view .LVU447
	.loc 1 267 10 is_stmt 0 view .LVU448
	bl	rand32
.LVL72:
	.loc 1 267 19 view .LVU449
	cmp	r0, r4
	ite	ls
	movls	r0, #0
	movhi	r0, #1
.LBE469:
	.loc 1 269 1 view .LVU450
	pop	{r4, pc}
.LVL73:
.L32:
.LBB470:
	.loc 1 260 61 view .LVU451
	mov	r0, r2
.LVL74:
	.loc 1 260 61 view .LVU452
	b	.L28
.LVL75:
.L33:
	.loc 1 261 12 view .LVU453
	mov	r4, #-1
	b	.L29
.LVL76:
.L30:
	.cfi_def_cfa_offset 0
	.cfi_restore 4
	.cfi_restore 14
	.loc 1 261 12 view .LVU454
.LBE470:
	.loc 1 238 9 view .LVU455
	movs	r0, #1
.LVL77:
	.loc 1 238 9 view .LVU456
	bx	lr
.LVL78:
.L31:
	.loc 1 240 9 view .LVU457
	movs	r0, #0
.LVL79:
	.loc 1 269 1 view .LVU458
	bx	lr
	.cfi_endproc
.LFE523:
	.size	rand_alloc_choice, .-rand_alloc_choice
	.section	.text.rand_free_choice,"ax",%progbits
	.align	1
	.syntax unified
	.thumb
	.thumb_func
	.fpu fpv4-sp-d16
	.type	rand_free_choice, %function
rand_free_choice:
.LVL80:
.LFB525:
	.loc 1 288 1 is_stmt 1 view -0
	.cfi_startproc
	@ args = 0, pretend = 0, frame = 0
	@ frame_needed = 0, uses_anonymous_args = 0
	.loc 1 288 1 is_stmt 0 view .LVU460
	push	{r4, lr}
	.cfi_def_cfa_offset 8
	.cfi_offset 4, -8
	.cfi_offset 14, -4
	mov	r4, r0
	.loc 1 289 2 is_stmt 1 view .LVU461
	.loc 1 289 9 is_stmt 0 view .LVU462
	bl	rand32
.LVL81:
	.loc 1 289 22 view .LVU463
	ldr	r3, [r4, #24]
	.loc 1 289 18 view .LVU464
	udiv	r2, r0, r3
	.loc 1 290 1 view .LVU465
	mls	r0, r3, r2, r0
	pop	{r4, pc}
	.loc 1 290 1 view .LVU466
	.cfi_endproc
.LFE525:
	.size	rand_free_choice, .-rand_free_choice
	.section	.text.rand_alloc_size,"ax",%progbits
	.align	1
	.syntax unified
	.thumb
	.thumb_func
	.fpu fpv4-sp-d16
	.type	rand_alloc_size, %function
rand_alloc_size:
.LVL82:
.LFB524:
	.loc 1 275 1 is_stmt 1 view -0
	.cfi_startproc
	@ args = 0, pretend = 0, frame = 0
	@ frame_needed = 0, uses_anonymous_args = 0
	.loc 1 275 1 is_stmt 0 view .LVU468
	push	{r4, lr}
	.cfi_def_cfa_offset 8
	.cfi_offset 4, -8
	.cfi_offset 14, -4
	.loc 1 276 2 is_stmt 1 view .LVU469
	.loc 1 281 2 view .LVU470
	.loc 1 281 18 is_stmt 0 view .LVU471
	bl	rand32
.LVL83:
	.loc 1 281 18 view .LVU472
	clz	r4, r0
	.loc 1 281 6 view .LVU473
	adds	r4, r4, #4
.LVL84:
	.loc 1 283 2 is_stmt 1 view .LVU474
	.loc 1 283 9 is_stmt 0 view .LVU475
	bl	rand32
.LVL85:
	.loc 1 283 18 view .LVU476
	mov	r3, #-1
	lsl	r4, r3, r4
.LVL86:
	.loc 1 284 1 view .LVU477
	bic	r0, r0, r4
	pop	{r4, pc}
	.cfi_endproc
.LFE524:
	.size	rand_alloc_size, .-rand_alloc_size
	.section	.text.sys_heap_validate,"ax",%progbits
	.align	1
	.global	sys_heap_validate
	.syntax unified
	.thumb
	.thumb_func
	.fpu fpv4-sp-d16
	.type	sys_heap_validate, %function
sys_heap_validate:
.LVL87:
.LFB521:
	.loc 1 89 1 is_stmt 1 view -0
	.cfi_startproc
	@ args = 0, pretend = 0, frame = 0
	@ frame_needed = 0, uses_anonymous_args = 0
	.loc 1 89 1 is_stmt 0 view .LVU479
	push	{r4, r5, r6, r7, r8, lr}
	.cfi_def_cfa_offset 24
	.cfi_offset 4, -24
	.cfi_offset 5, -20
	.cfi_offset 6, -16
	.cfi_offset 7, -12
	.cfi_offset 8, -8
	.cfi_offset 14, -4
	.loc 1 90 2 is_stmt 1 view .LVU480
	.loc 1 90 17 is_stmt 0 view .LVU481
	ldr	r5, [r0]
.LVL88:
	.loc 1 91 2 is_stmt 1 view .LVU482
	.loc 1 96 2 view .LVU483
.LBB471:
.LBI471:
	.loc 2 203 25 view .LVU484
.LBE471:
	.loc 2 205 2 view .LVU485
.LBB484:
.LBB472:
.LBI472:
	.loc 2 141 25 view .LVU486
.LBB473:
	.loc 2 143 2 view .LVU487
.LBB474:
.LBI474:
	.loc 2 106 25 view .LVU488
.LBB475:
	.loc 2 109 2 view .LVU489
	.loc 2 109 2 is_stmt 0 view .LVU490
.LBE475:
.LBE474:
.LBE473:
.LBE472:
.LBE484:
	.loc 2 103 2 is_stmt 1 view .LVU491
.LBB485:
.LBB482:
.LBB480:
.LBB478:
.LBB476:
	.loc 2 110 2 view .LVU492
	.loc 2 112 2 view .LVU493
	.loc 2 112 2 is_stmt 0 view .LVU494
.LBE476:
.LBE478:
.LBE480:
.LBE482:
.LBE485:
	.loc 2 97 2 is_stmt 1 view .LVU495
	.loc 2 81 2 view .LVU496
	.loc 2 82 3 view .LVU497
.LBB486:
.LBB483:
.LBB481:
.LBB479:
.LBB477:
	.loc 2 115 3 view .LVU498
	.loc 2 115 28 is_stmt 0 view .LVU499
	ldrh	r4, [r5, #2]
.LVL89:
	.loc 2 115 28 view .LVU500
.LBE477:
.LBE479:
	.loc 2 143 42 view .LVU501
	lsrs	r4, r4, #1
.LVL90:
.L43:
	.loc 2 143 42 view .LVU502
.LBE481:
.LBE483:
.LBE486:
	.loc 1 96 30 is_stmt 1 discriminator 1 view .LVU503
	.loc 1 96 35 is_stmt 0 discriminator 1 view .LVU504
	ldr	r3, [r5, #8]
	.loc 1 96 2 discriminator 1 view .LVU505
	cmp	r3, r4
	bls	.L71
	.loc 1 97 3 is_stmt 1 view .LVU506
	.loc 1 97 8 is_stmt 0 view .LVU507
	mov	r1, r4
	mov	r0, r5
	bl	valid_chunk
.LVL91:
	.loc 1 97 6 view .LVU508
	mov	r3, r0
	cmp	r0, #0
	beq	.L44
	.loc 1 96 48 is_stmt 1 view .LVU509
.LVL92:
.LBB487:
.LBI487:
	.loc 2 203 25 view .LVU510
.LBB488:
	.loc 2 205 2 view .LVU511
.LBB489:
.LBI489:
	.loc 2 141 25 view .LVU512
.LBB490:
	.loc 2 143 2 view .LVU513
.LBB491:
.LBI491:
	.loc 2 106 25 view .LVU514
.LBB492:
	.loc 2 109 2 view .LVU515
	.loc 2 109 2 is_stmt 0 view .LVU516
.LBE492:
.LBE491:
.LBE490:
.LBE489:
.LBE488:
.LBE487:
	.loc 2 103 2 is_stmt 1 view .LVU517
.LBB503:
.LBB501:
.LBB499:
.LBB497:
.LBB495:
.LBB493:
	.loc 2 110 2 view .LVU518
	.loc 2 112 2 view .LVU519
	.loc 2 112 2 is_stmt 0 view .LVU520
.LBE493:
.LBE495:
.LBE497:
.LBE499:
.LBE501:
.LBE503:
	.loc 2 97 2 is_stmt 1 view .LVU521
	.loc 2 81 2 view .LVU522
	.loc 2 82 3 view .LVU523
.LBB504:
.LBB502:
.LBB500:
.LBB498:
.LBB496:
.LBB494:
	.loc 2 115 3 view .LVU524
	.loc 2 115 28 is_stmt 0 view .LVU525
	add	r3, r5, r4, lsl #3
.LVL93:
	.loc 2 115 28 view .LVU526
	ldrh	r3, [r3, #2]
.LVL94:
	.loc 2 115 28 view .LVU527
.LBE494:
.LBE496:
.LBE498:
.LBE500:
	.loc 2 205 11 view .LVU528
	add	r4, r4, r3, lsr #1
.LVL95:
	.loc 2 205 11 view .LVU529
	b	.L43
.LVL96:
.L71:
	.loc 2 205 11 view .LVU530
.LBE502:
.LBE504:
	.loc 1 101 2 is_stmt 1 view .LVU531
	.loc 1 101 5 is_stmt 0 view .LVU532
	bne	.L63
.LBB505:
	.loc 1 127 11 view .LVU533
	movs	r7, #0
	b	.L46
.LVL97:
.L49:
.LBB506:
	.loc 1 135 4 is_stmt 1 view .LVU534
	.loc 1 135 9 is_stmt 0 view .LVU535
	mov	r1, r4
	mov	r0, r5
	bl	valid_chunk
.LVL98:
	.loc 1 135 7 view .LVU536
	mov	r3, r0
	cmp	r0, #0
	beq	.L44
	.loc 1 138 4 is_stmt 1 view .LVU537
.LVL99:
.LBB507:
.LBI507:
	.loc 2 146 20 view .LVU538
.LBB508:
	.loc 2 148 2 view .LVU539
	.loc 2 148 2 is_stmt 0 view .LVU540
.LBE508:
.LBE507:
.LBE506:
.LBE505:
	.loc 2 103 2 is_stmt 1 view .LVU541
.LBB535:
.LBB523:
.LBB511:
.LBB509:
	.loc 2 149 2 view .LVU542
	.loc 2 149 8 is_stmt 0 view .LVU543
	add	r4, r5, r4, lsl #3
.LVL100:
	.loc 2 151 2 is_stmt 1 view .LVU544
	.loc 2 151 2 is_stmt 0 view .LVU545
.LBE509:
.LBE511:
.LBE523:
.LBE535:
	.loc 2 97 2 is_stmt 1 view .LVU546
	.loc 2 81 2 view .LVU547
	.loc 2 82 3 view .LVU548
.LBB536:
.LBB524:
.LBB512:
.LBB510:
	.loc 2 158 3 view .LVU549
	.loc 2 159 4 view .LVU550
	.loc 2 159 38 is_stmt 0 view .LVU551
	ldrh	r3, [r4, #2]
	orr	r3, r3, #1
	strh	r3, [r4, #2]	@ movhi
.LVL101:
	.loc 2 159 38 view .LVU552
.LBE510:
.LBE512:
	.loc 1 134 8 is_stmt 1 view .LVU553
	.loc 1 134 9 is_stmt 0 view .LVU554
	adds	r6, r6, #1
.LVL102:
.LBB513:
.LBI513:
	.loc 2 181 25 is_stmt 1 view .LVU555
.LBE513:
.LBE524:
.LBE536:
	.loc 2 183 2 view .LVU556
.LBB537:
.LBB525:
.LBB520:
.LBB514:
.LBI514:
	.loc 2 106 25 view .LVU557
.LBB515:
	.loc 2 109 2 view .LVU558
	.loc 2 109 2 is_stmt 0 view .LVU559
.LBE515:
.LBE514:
.LBE520:
.LBE525:
.LBE537:
	.loc 2 103 2 is_stmt 1 view .LVU560
.LBB538:
.LBB526:
.LBB521:
.LBB518:
.LBB516:
	.loc 2 110 2 view .LVU561
	.loc 2 112 2 view .LVU562
	.loc 2 112 2 is_stmt 0 view .LVU563
.LBE516:
.LBE518:
.LBE521:
.LBE526:
.LBE538:
	.loc 2 97 2 is_stmt 1 view .LVU564
	.loc 2 81 2 view .LVU565
	.loc 2 82 3 view .LVU566
.LBB539:
.LBB527:
.LBB522:
.LBB519:
.LBB517:
	.loc 2 115 3 view .LVU567
	.loc 2 115 28 is_stmt 0 view .LVU568
	ldrh	r4, [r4, #6]
.LVL103:
.L47:
	.loc 2 115 28 view .LVU569
.LBE517:
.LBE519:
.LBE522:
	.loc 1 133 16 is_stmt 1 discriminator 1 view .LVU570
	.loc 1 133 3 is_stmt 0 discriminator 1 view .LVU571
	cbz	r4, .L48
	.loc 1 133 23 discriminator 2 view .LVU572
	cmp	r6, #0
	beq	.L49
	.loc 1 133 34 discriminator 3 view .LVU573
	cmp	r4, r8
	bne	.L49
.L48:
	.loc 1 141 2 is_stmt 1 view .LVU574
	.loc 1 141 17 is_stmt 0 view .LVU575
	ldr	r3, [r5, #12]
	.loc 1 141 49 view .LVU576
	lsrs	r3, r3, r7
	.loc 1 141 7 view .LVU577
	ands	r3, r3, #1
	ite	eq
	moveq	r2, #1
	movne	r2, #0
.LVL104:
	.loc 1 142 2 is_stmt 1 view .LVU578
	.loc 1 142 7 is_stmt 0 view .LVU579
	clz	r6, r6
.LVL105:
	.loc 1 142 7 view .LVU580
	lsrs	r6, r6, #5
.LVL106:
	.loc 1 144 3 is_stmt 1 view .LVU581
	.loc 1 144 6 is_stmt 0 view .LVU582
	cmp	r2, r6
	bne	.L64
	.loc 1 148 3 is_stmt 1 view .LVU583
	.loc 1 148 6 is_stmt 0 view .LVU584
	cbnz	r3, .L50
	.loc 1 148 29 discriminator 1 view .LVU585
	adds	r3, r7, #4
	ldr	r3, [r5, r3, lsl #2]
	.loc 1 148 13 discriminator 1 view .LVU586
	cmp	r3, #0
	bne	.L65
.L50:
	.loc 1 148 13 discriminator 1 view .LVU587
.LBE527:
	.loc 1 127 52 is_stmt 1 discriminator 2 view .LVU588
	.loc 1 127 53 is_stmt 0 discriminator 2 view .LVU589
	adds	r7, r7, #1
.LVL107:
.L46:
	.loc 1 127 18 is_stmt 1 discriminator 1 view .LVU590
	.loc 1 127 23 is_stmt 0 discriminator 1 view .LVU591
	ldr	r3, [r5, #8]
.LVL108:
.LBB528:
.LBI528:
	.loc 2 249 19 is_stmt 1 discriminator 1 view .LVU592
.LBB529:
	.loc 2 251 2 discriminator 1 view .LVU593
	.loc 2 251 2 is_stmt 0 discriminator 1 view .LVU594
.LBE529:
.LBE528:
.LBE539:
	.loc 2 241 2 is_stmt 1 discriminator 1 view .LVU595
	.loc 2 236 2 discriminator 1 view .LVU596
	.loc 2 221 2 discriminator 1 view .LVU597
	.loc 2 97 2 discriminator 1 view .LVU598
	.loc 2 81 2 discriminator 1 view .LVU599
	.loc 2 82 3 discriminator 1 view .LVU600
	.loc 2 231 2 discriminator 1 view .LVU601
.LBB540:
.LBB531:
.LBB530:
	.loc 2 252 2 discriminator 1 view .LVU602
	.loc 2 252 14 is_stmt 0 discriminator 1 view .LVU603
	clz	r3, r3
.LVL109:
	.loc 2 252 12 discriminator 1 view .LVU604
	rsb	r3, r3, #31
.LVL110:
	.loc 2 252 12 discriminator 1 view .LVU605
.LBE530:
.LBE531:
	.loc 1 127 2 discriminator 1 view .LVU606
	cmp	r7, r3
	bgt	.L72
.LBB532:
	.loc 1 128 3 is_stmt 1 view .LVU607
	.loc 1 128 13 is_stmt 0 view .LVU608
	adds	r3, r7, #4
	ldr	r8, [r5, r3, lsl #2]
.LVL111:
	.loc 1 129 3 is_stmt 1 view .LVU609
	.loc 1 131 3 view .LVU610
	.loc 1 131 3 is_stmt 0 view .LVU611
.LBE532:
.LBE540:
	.loc 1 57 2 is_stmt 1 view .LVU612
	.loc 1 59 1 view .LVU613
	.loc 1 60 1 view .LVU614
	.loc 1 61 1 view .LVU615
	.loc 1 63 2 view .LVU616
	.loc 1 64 2 view .LVU617
	.loc 1 66 2 view .LVU618
	.loc 1 67 3 view .LVU619
.LBB541:
.LBB533:
	.loc 1 133 3 view .LVU620
	.loc 1 133 10 is_stmt 0 view .LVU621
	mov	r4, r8
	.loc 1 129 12 view .LVU622
	movs	r6, #0
	.loc 1 133 3 view .LVU623
	b	.L47
.LVL112:
.L72:
	.loc 1 133 3 view .LVU624
.LBE533:
.LBE541:
	.loc 1 159 2 is_stmt 1 view .LVU625
	.loc 1 160 2 view .LVU626
.LBB542:
.LBI542:
	.loc 2 203 25 view .LVU627
.LBE542:
	.loc 2 205 2 view .LVU628
.LBB555:
.LBB543:
.LBI543:
	.loc 2 141 25 view .LVU629
.LBB544:
	.loc 2 143 2 view .LVU630
.LBB545:
.LBI545:
	.loc 2 106 25 view .LVU631
.LBB546:
	.loc 2 109 2 view .LVU632
	.loc 2 109 2 is_stmt 0 view .LVU633
.LBE546:
.LBE545:
.LBE544:
.LBE543:
.LBE555:
	.loc 2 103 2 is_stmt 1 view .LVU634
.LBB556:
.LBB553:
.LBB551:
.LBB549:
.LBB547:
	.loc 2 110 2 view .LVU635
	.loc 2 112 2 view .LVU636
	.loc 2 112 2 is_stmt 0 view .LVU637
.LBE547:
.LBE549:
.LBE551:
.LBE553:
.LBE556:
	.loc 2 97 2 is_stmt 1 view .LVU638
	.loc 2 81 2 view .LVU639
	.loc 2 82 3 view .LVU640
.LBB557:
.LBB554:
.LBB552:
.LBB550:
.LBB548:
	.loc 2 115 3 view .LVU641
	.loc 2 115 28 is_stmt 0 view .LVU642
	ldrh	r3, [r5, #2]
.LVL113:
	.loc 2 115 28 view .LVU643
.LBE548:
.LBE550:
	.loc 2 143 42 view .LVU644
	lsrs	r3, r3, #1
.LVL114:
	.loc 2 143 42 view .LVU645
.LBE552:
.LBE554:
.LBE557:
	.loc 1 159 12 view .LVU646
	movs	r4, #0
.LVL115:
.L52:
	.loc 1 160 30 is_stmt 1 discriminator 1 view .LVU647
	.loc 1 160 35 is_stmt 0 discriminator 1 view .LVU648
	ldr	r2, [r5, #8]
	.loc 1 160 2 discriminator 1 view .LVU649
	cmp	r2, r3
	bls	.L73
	.loc 1 161 3 is_stmt 1 view .LVU650
.LVL116:
.LBB558:
.LBI558:
	.loc 2 136 19 view .LVU651
.LBE558:
	.loc 2 138 2 view .LVU652
.LBB565:
.LBB559:
.LBI559:
	.loc 2 106 25 view .LVU653
.LBB560:
	.loc 2 109 2 view .LVU654
	.loc 2 109 2 is_stmt 0 view .LVU655
.LBE560:
.LBE559:
.LBE565:
	.loc 2 103 2 is_stmt 1 view .LVU656
.LBB566:
.LBB563:
.LBB561:
	.loc 2 110 2 view .LVU657
	.loc 2 110 19 is_stmt 0 view .LVU658
	lsls	r2, r3, #3
.LVL117:
	.loc 2 112 2 is_stmt 1 view .LVU659
	.loc 2 112 2 is_stmt 0 view .LVU660
.LBE561:
.LBE563:
.LBE566:
	.loc 2 97 2 is_stmt 1 view .LVU661
	.loc 2 81 2 view .LVU662
	.loc 2 82 3 view .LVU663
.LBB567:
.LBB564:
.LBB562:
	.loc 2 115 3 view .LVU664
	.loc 2 115 28 is_stmt 0 view .LVU665
	adds	r0, r2, #2
	ldrh	r1, [r5, r0]
.LVL118:
	.loc 2 115 28 view .LVU666
.LBE562:
.LBE564:
.LBE567:
	.loc 1 161 6 view .LVU667
	tst	r1, #1
	beq	.L66
	.loc 1 164 3 is_stmt 1 view .LVU668
.LVL119:
.LBB568:
.LBI568:
	.loc 2 198 25 view .LVU669
.LBB569:
	.loc 2 200 2 view .LVU670
.LBB570:
.LBI570:
	.loc 2 106 25 view .LVU671
.LBB571:
	.loc 2 109 2 view .LVU672
	.loc 2 109 2 is_stmt 0 view .LVU673
.LBE571:
.LBE570:
.LBE569:
.LBE568:
	.loc 2 103 2 is_stmt 1 view .LVU674
.LBB578:
.LBB576:
.LBB574:
.LBB572:
	.loc 2 110 2 view .LVU675
	.loc 2 112 2 view .LVU676
	.loc 2 112 2 is_stmt 0 view .LVU677
.LBE572:
.LBE574:
.LBE576:
.LBE578:
	.loc 2 97 2 is_stmt 1 view .LVU678
	.loc 2 81 2 view .LVU679
	.loc 2 82 3 view .LVU680
.LBB579:
.LBB577:
.LBB575:
.LBB573:
	.loc 2 115 3 view .LVU681
	.loc 2 115 28 is_stmt 0 view .LVU682
	add	r2, r2, r5
.LVL120:
	.loc 2 115 28 view .LVU683
	ldrh	r1, [r5, r3, lsl #3]
.LVL121:
	.loc 2 115 28 view .LVU684
.LBE573:
.LBE575:
	.loc 2 200 11 view .LVU685
	subs	r1, r3, r1
.LVL122:
	.loc 2 200 11 view .LVU686
.LBE577:
.LBE579:
	.loc 1 164 6 view .LVU687
	cmp	r4, r1
	bne	.L67
	.loc 1 167 3 is_stmt 1 discriminator 2 view .LVU688
.LVL123:
	.loc 1 169 3 discriminator 2 view .LVU689
	.loc 2 216 2 discriminator 2 view .LVU690
	.loc 2 97 2 discriminator 2 view .LVU691
	.loc 2 81 2 discriminator 2 view .LVU692
	.loc 2 82 3 discriminator 2 view .LVU693
.LBB580:
.LBI580:
	.loc 2 146 20 discriminator 2 view .LVU694
.LBB581:
	.loc 2 148 2 discriminator 2 view .LVU695
	.loc 2 148 2 is_stmt 0 discriminator 2 view .LVU696
.LBE581:
.LBE580:
	.loc 2 103 2 is_stmt 1 discriminator 2 view .LVU697
.LBB584:
.LBB582:
	.loc 2 149 2 discriminator 2 view .LVU698
	.loc 2 151 2 discriminator 2 view .LVU699
	.loc 2 151 2 is_stmt 0 discriminator 2 view .LVU700
.LBE582:
.LBE584:
	.loc 2 97 2 is_stmt 1 discriminator 2 view .LVU701
	.loc 2 81 2 discriminator 2 view .LVU702
	.loc 2 82 3 discriminator 2 view .LVU703
.LBB585:
.LBB583:
	.loc 2 158 3 discriminator 2 view .LVU704
	.loc 2 161 4 discriminator 2 view .LVU705
	.loc 2 161 38 is_stmt 0 discriminator 2 view .LVU706
	ldrh	r1, [r2, #2]
	bic	r1, r1, #1
	strh	r1, [r2, #2]	@ movhi
.LVL124:
	.loc 2 161 38 discriminator 2 view .LVU707
.LBE583:
.LBE585:
	.loc 1 160 48 is_stmt 1 discriminator 2 view .LVU708
.LBB586:
.LBI586:
	.loc 2 203 25 discriminator 2 view .LVU709
.LBB587:
	.loc 2 205 2 discriminator 2 view .LVU710
.LBB588:
.LBI588:
	.loc 2 141 25 discriminator 2 view .LVU711
.LBB589:
	.loc 2 143 2 discriminator 2 view .LVU712
.LBB590:
.LBI590:
	.loc 2 106 25 discriminator 2 view .LVU713
.LBB591:
	.loc 2 109 2 discriminator 2 view .LVU714
	.loc 2 109 2 is_stmt 0 discriminator 2 view .LVU715
.LBE591:
.LBE590:
.LBE589:
.LBE588:
.LBE587:
.LBE586:
	.loc 2 103 2 is_stmt 1 discriminator 2 view .LVU716
.LBB602:
.LBB600:
.LBB598:
.LBB596:
.LBB594:
.LBB592:
	.loc 2 110 2 discriminator 2 view .LVU717
	.loc 2 112 2 discriminator 2 view .LVU718
	.loc 2 112 2 is_stmt 0 discriminator 2 view .LVU719
.LBE592:
.LBE594:
.LBE596:
.LBE598:
.LBE600:
.LBE602:
	.loc 2 97 2 is_stmt 1 discriminator 2 view .LVU720
	.loc 2 81 2 discriminator 2 view .LVU721
	.loc 2 82 3 discriminator 2 view .LVU722
.LBB603:
.LBB601:
.LBB599:
.LBB597:
.LBB595:
.LBB593:
	.loc 2 115 3 discriminator 2 view .LVU723
	.loc 2 115 28 is_stmt 0 discriminator 2 view .LVU724
	ldrh	r2, [r5, r0]
.LVL125:
	.loc 2 115 28 discriminator 2 view .LVU725
.LBE593:
.LBE595:
.LBE597:
.LBE599:
.LBE601:
.LBE603:
	.loc 1 167 14 discriminator 2 view .LVU726
	mov	r4, r3
	.loc 1 160 52 discriminator 2 view .LVU727
	add	r3, r3, r2, lsr #1
.LVL126:
	.loc 1 160 52 discriminator 2 view .LVU728
	b	.L52
.LVL127:
.L73:
	.loc 1 171 2 is_stmt 1 view .LVU729
	.loc 1 171 5 is_stmt 0 view .LVU730
	bne	.L68
.LBB604:
	.loc 1 179 11 view .LVU731
	movs	r4, #0
.LVL128:
	.loc 1 179 11 view .LVU732
	b	.L54
.LVL129:
.L57:
.LBB605:
	.loc 1 188 4 is_stmt 1 view .LVU733
.LBB606:
.LBI606:
	.loc 2 136 19 view .LVU734
.LBE606:
.LBE605:
.LBE604:
	.loc 2 138 2 view .LVU735
.LBB646:
.LBB632:
.LBB613:
.LBB607:
.LBI607:
	.loc 2 106 25 view .LVU736
.LBB608:
	.loc 2 109 2 view .LVU737
	.loc 2 109 2 is_stmt 0 view .LVU738
.LBE608:
.LBE607:
.LBE613:
.LBE632:
.LBE646:
	.loc 2 103 2 is_stmt 1 view .LVU739
.LBB647:
.LBB633:
.LBB614:
.LBB611:
.LBB609:
	.loc 2 110 2 view .LVU740
	.loc 2 110 19 is_stmt 0 view .LVU741
	lsls	r2, r3, #3
.LVL130:
	.loc 2 112 2 is_stmt 1 view .LVU742
	.loc 2 112 2 is_stmt 0 view .LVU743
.LBE609:
.LBE611:
.LBE614:
.LBE633:
.LBE647:
	.loc 2 97 2 is_stmt 1 view .LVU744
	.loc 2 81 2 view .LVU745
	.loc 2 82 3 view .LVU746
.LBB648:
.LBB634:
.LBB615:
.LBB612:
.LBB610:
	.loc 2 115 3 view .LVU747
	.loc 2 115 28 is_stmt 0 view .LVU748
	add	r3, r5, r3, lsl #3
.LVL131:
	.loc 2 115 28 view .LVU749
	ldrh	r3, [r3, #2]
.LVL132:
	.loc 2 115 28 view .LVU750
.LBE610:
.LBE612:
.LBE615:
	.loc 1 188 7 view .LVU751
	tst	r3, #1
	bne	.L69
	.loc 1 191 4 is_stmt 1 view .LVU752
.LVL133:
.LBB616:
.LBI616:
	.loc 2 146 20 view .LVU753
.LBB617:
	.loc 2 148 2 view .LVU754
	.loc 2 148 2 is_stmt 0 view .LVU755
.LBE617:
.LBE616:
.LBE634:
.LBE648:
	.loc 2 103 2 is_stmt 1 view .LVU756
.LBB649:
.LBB635:
.LBB620:
.LBB618:
	.loc 2 149 2 view .LVU757
	.loc 2 149 8 is_stmt 0 view .LVU758
	adds	r3, r5, r2
.LVL134:
	.loc 2 151 2 is_stmt 1 view .LVU759
	.loc 2 151 2 is_stmt 0 view .LVU760
.LBE618:
.LBE620:
.LBE635:
.LBE649:
	.loc 2 97 2 is_stmt 1 view .LVU761
	.loc 2 81 2 view .LVU762
	.loc 2 82 3 view .LVU763
.LBB650:
.LBB636:
.LBB621:
.LBB619:
	.loc 2 158 3 view .LVU764
	.loc 2 159 4 view .LVU765
	.loc 2 159 38 is_stmt 0 view .LVU766
	ldrh	r2, [r3, #2]
	orr	r2, r2, #1
	strh	r2, [r3, #2]	@ movhi
.LVL135:
	.loc 2 159 38 view .LVU767
.LBE619:
.LBE621:
	.loc 1 187 35 is_stmt 1 view .LVU768
	.loc 1 187 36 is_stmt 0 view .LVU769
	adds	r1, r1, #1
.LVL136:
.LBB622:
.LBI622:
	.loc 2 181 25 is_stmt 1 view .LVU770
.LBE622:
.LBE636:
.LBE650:
	.loc 2 183 2 view .LVU771
.LBB651:
.LBB637:
.LBB629:
.LBB623:
.LBI623:
	.loc 2 106 25 view .LVU772
.LBB624:
	.loc 2 109 2 view .LVU773
	.loc 2 109 2 is_stmt 0 view .LVU774
.LBE624:
.LBE623:
.LBE629:
.LBE637:
.LBE651:
	.loc 2 103 2 is_stmt 1 view .LVU775
.LBB652:
.LBB638:
.LBB630:
.LBB627:
.LBB625:
	.loc 2 110 2 view .LVU776
	.loc 2 112 2 view .LVU777
	.loc 2 112 2 is_stmt 0 view .LVU778
.LBE625:
.LBE627:
.LBE630:
.LBE638:
.LBE652:
	.loc 2 97 2 is_stmt 1 view .LVU779
	.loc 2 81 2 view .LVU780
	.loc 2 82 3 view .LVU781
.LBB653:
.LBB639:
.LBB631:
.LBB628:
.LBB626:
	.loc 2 115 3 view .LVU782
	.loc 2 115 28 is_stmt 0 view .LVU783
	ldrh	r3, [r3, #6]
.LVL137:
.L56:
	.loc 2 115 28 view .LVU784
.LBE626:
.LBE628:
.LBE631:
	.loc 1 187 16 is_stmt 1 discriminator 1 view .LVU785
	.loc 1 187 3 is_stmt 0 discriminator 1 view .LVU786
	cmp	r1, #0
	beq	.L57
	.loc 1 187 23 discriminator 3 view .LVU787
	cmp	r3, r0
	bne	.L57
.LVL138:
.L55:
	.loc 1 187 23 discriminator 3 view .LVU788
.LBE639:
	.loc 1 179 52 is_stmt 1 discriminator 2 view .LVU789
	.loc 1 179 53 is_stmt 0 discriminator 2 view .LVU790
	adds	r4, r4, #1
.LVL139:
.L54:
	.loc 1 179 18 is_stmt 1 discriminator 1 view .LVU791
	.loc 1 179 23 is_stmt 0 discriminator 1 view .LVU792
	ldr	r3, [r5, #8]
.LVL140:
.LBB640:
.LBI640:
	.loc 2 249 19 is_stmt 1 discriminator 1 view .LVU793
.LBB641:
	.loc 2 251 2 discriminator 1 view .LVU794
	.loc 2 251 2 is_stmt 0 discriminator 1 view .LVU795
.LBE641:
.LBE640:
.LBE653:
	.loc 2 241 2 is_stmt 1 discriminator 1 view .LVU796
	.loc 2 236 2 discriminator 1 view .LVU797
	.loc 2 221 2 discriminator 1 view .LVU798
	.loc 2 97 2 discriminator 1 view .LVU799
	.loc 2 81 2 discriminator 1 view .LVU800
	.loc 2 82 3 discriminator 1 view .LVU801
	.loc 2 231 2 discriminator 1 view .LVU802
.LBB654:
.LBB643:
.LBB642:
	.loc 2 252 2 discriminator 1 view .LVU803
	.loc 2 252 14 is_stmt 0 discriminator 1 view .LVU804
	clz	r3, r3
.LVL141:
	.loc 2 252 12 discriminator 1 view .LVU805
	rsb	r3, r3, #31
.LVL142:
	.loc 2 252 12 discriminator 1 view .LVU806
.LBE642:
.LBE643:
	.loc 1 179 2 discriminator 1 view .LVU807
	cmp	r4, r3
	bgt	.L74
.LBB644:
	.loc 1 180 3 is_stmt 1 view .LVU808
	.loc 1 180 13 is_stmt 0 view .LVU809
	adds	r3, r4, #4
	ldr	r0, [r5, r3, lsl #2]
.LVL143:
	.loc 1 181 3 is_stmt 1 view .LVU810
	.loc 1 183 3 view .LVU811
	.loc 1 183 6 is_stmt 0 view .LVU812
	cmp	r0, #0
	beq	.L55
	.loc 1 187 10 view .LVU813
	mov	r3, r0
	.loc 1 181 7 view .LVU814
	movs	r1, #0
	b	.L56
.LVL144:
.L74:
	.loc 1 181 7 view .LVU815
.LBE644:
.LBE654:
	.loc 1 198 2 is_stmt 1 view .LVU816
.LBB655:
.LBI655:
	.loc 2 203 25 view .LVU817
.LBE655:
	.loc 2 205 2 view .LVU818
.LBB668:
.LBB656:
.LBI656:
	.loc 2 141 25 view .LVU819
.LBB657:
	.loc 2 143 2 view .LVU820
.LBB658:
.LBI658:
	.loc 2 106 25 view .LVU821
.LBB659:
	.loc 2 109 2 view .LVU822
	.loc 2 109 2 is_stmt 0 view .LVU823
.LBE659:
.LBE658:
.LBE657:
.LBE656:
.LBE668:
	.loc 2 103 2 is_stmt 1 view .LVU824
.LBB669:
.LBB666:
.LBB664:
.LBB662:
.LBB660:
	.loc 2 110 2 view .LVU825
	.loc 2 112 2 view .LVU826
	.loc 2 112 2 is_stmt 0 view .LVU827
.LBE660:
.LBE662:
.LBE664:
.LBE666:
.LBE669:
	.loc 2 97 2 is_stmt 1 view .LVU828
	.loc 2 81 2 view .LVU829
	.loc 2 82 3 view .LVU830
.LBB670:
.LBB667:
.LBB665:
.LBB663:
.LBB661:
	.loc 2 115 3 view .LVU831
	.loc 2 115 28 is_stmt 0 view .LVU832
	ldrh	r2, [r5, #2]
.LVL145:
	.loc 2 115 28 view .LVU833
.LBE661:
.LBE663:
	.loc 2 143 42 view .LVU834
	lsrs	r2, r2, #1
.LVL146:
	.loc 2 143 42 view .LVU835
.LBE665:
.LBE667:
.LBE670:
	.loc 1 198 2 view .LVU836
	b	.L59
.LVL147:
.L60:
.LBB671:
.LBB672:
	.loc 2 161 4 is_stmt 1 view .LVU837
	.loc 2 161 38 is_stmt 0 view .LVU838
	ldrh	r1, [r3, #2]
.LVL148:
	.loc 2 161 38 view .LVU839
	bic	r1, r1, #1
	strh	r1, [r3, #2]	@ movhi
.LVL149:
.L61:
	.loc 2 161 38 view .LVU840
.LBE672:
.LBE671:
	.loc 1 198 48 is_stmt 1 view .LVU841
.LBB676:
.LBI676:
	.loc 2 203 25 view .LVU842
.LBB677:
	.loc 2 205 2 view .LVU843
.LBB678:
.LBI678:
	.loc 2 141 25 view .LVU844
.LBB679:
	.loc 2 143 2 view .LVU845
.LBB680:
.LBI680:
	.loc 2 106 25 view .LVU846
.LBB681:
	.loc 2 109 2 view .LVU847
	.loc 2 109 2 is_stmt 0 view .LVU848
.LBE681:
.LBE680:
.LBE679:
.LBE678:
.LBE677:
.LBE676:
	.loc 2 103 2 is_stmt 1 view .LVU849
.LBB692:
.LBB690:
.LBB688:
.LBB686:
.LBB684:
.LBB682:
	.loc 2 110 2 view .LVU850
	.loc 2 112 2 view .LVU851
	.loc 2 112 2 is_stmt 0 view .LVU852
.LBE682:
.LBE684:
.LBE686:
.LBE688:
.LBE690:
.LBE692:
	.loc 2 97 2 is_stmt 1 view .LVU853
	.loc 2 81 2 view .LVU854
	.loc 2 82 3 view .LVU855
.LBB693:
.LBB691:
.LBB689:
.LBB687:
.LBB685:
.LBB683:
	.loc 2 115 3 view .LVU856
	.loc 2 115 28 is_stmt 0 view .LVU857
	ldrh	r3, [r5, r0]
.LVL150:
	.loc 2 115 28 view .LVU858
.LBE683:
.LBE685:
.LBE687:
.LBE689:
	.loc 2 205 11 view .LVU859
	add	r2, r2, r3, lsr #1
.LVL151:
.L59:
	.loc 2 205 11 view .LVU860
.LBE691:
.LBE693:
	.loc 1 198 30 is_stmt 1 discriminator 1 view .LVU861
	.loc 1 198 35 is_stmt 0 discriminator 1 view .LVU862
	ldr	r3, [r5, #8]
	.loc 1 198 2 discriminator 1 view .LVU863
	cmp	r3, r2
	bls	.L75
	.loc 1 199 3 is_stmt 1 view .LVU864
.LVL152:
.LBB694:
.LBI694:
	.loc 2 136 19 view .LVU865
.LBE694:
	.loc 2 138 2 view .LVU866
.LBB701:
.LBB695:
.LBI695:
	.loc 2 106 25 view .LVU867
.LBB696:
	.loc 2 109 2 view .LVU868
	.loc 2 109 2 is_stmt 0 view .LVU869
.LBE696:
.LBE695:
.LBE701:
	.loc 2 103 2 is_stmt 1 view .LVU870
.LBB702:
.LBB699:
.LBB697:
	.loc 2 110 2 view .LVU871
	.loc 2 110 19 is_stmt 0 view .LVU872
	lsls	r3, r2, #3
.LVL153:
	.loc 2 112 2 is_stmt 1 view .LVU873
	.loc 2 112 2 is_stmt 0 view .LVU874
.LBE697:
.LBE699:
.LBE702:
	.loc 2 97 2 is_stmt 1 view .LVU875
	.loc 2 81 2 view .LVU876
	.loc 2 82 3 view .LVU877
.LBB703:
.LBB700:
.LBB698:
	.loc 2 115 3 view .LVU878
	.loc 2 115 28 is_stmt 0 view .LVU879
	adds	r0, r3, #2
	ldrh	r1, [r5, r0]
.LVL154:
	.loc 2 115 28 view .LVU880
.LBE698:
.LBE700:
.LBE703:
.LBB704:
.LBI671:
	.loc 2 146 20 is_stmt 1 view .LVU881
.LBB673:
	.loc 2 148 2 view .LVU882
	.loc 2 148 2 is_stmt 0 view .LVU883
.LBE673:
.LBE704:
	.loc 2 103 2 is_stmt 1 view .LVU884
.LBB705:
.LBB674:
	.loc 2 149 2 view .LVU885
	.loc 2 149 8 is_stmt 0 view .LVU886
	add	r3, r3, r5
.LVL155:
	.loc 2 151 2 is_stmt 1 view .LVU887
	.loc 2 151 2 is_stmt 0 view .LVU888
.LBE674:
.LBE705:
	.loc 2 97 2 is_stmt 1 view .LVU889
	.loc 2 81 2 view .LVU890
	.loc 2 82 3 view .LVU891
.LBB706:
.LBB675:
	.loc 2 158 3 view .LVU892
	.loc 2 158 6 is_stmt 0 view .LVU893
	tst	r1, #1
	bne	.L60
	.loc 2 159 4 is_stmt 1 view .LVU894
	.loc 2 159 38 is_stmt 0 view .LVU895
	ldrh	r1, [r3, #2]
.LVL156:
	.loc 2 159 38 view .LVU896
	orr	r1, r1, #1
	strh	r1, [r3, #2]	@ movhi
.LVL157:
	.loc 2 159 38 view .LVU897
	b	.L61
.LVL158:
.L75:
	.loc 2 159 38 view .LVU898
.LBE675:
.LBE706:
	.loc 1 201 8 view .LVU899
	movs	r3, #1
	b	.L44
.LVL159:
.L63:
	.loc 1 102 9 view .LVU900
	movs	r3, #0
.LVL160:
.L44:
	.loc 1 202 1 view .LVU901
	mov	r0, r3
	pop	{r4, r5, r6, r7, r8, pc}
.LVL161:
.L64:
.LBB707:
.LBB534:
	.loc 1 145 10 view .LVU902
	movs	r3, #0
	b	.L44
.L65:
	.loc 1 149 10 view .LVU903
	movs	r3, #0
	b	.L44
.LVL162:
.L66:
	.loc 1 149 10 view .LVU904
.LBE534:
.LBE707:
	.loc 1 162 10 view .LVU905
	movs	r3, #0
.LVL163:
	.loc 1 162 10 view .LVU906
	b	.L44
.LVL164:
.L67:
	.loc 1 165 10 view .LVU907
	movs	r3, #0
.LVL165:
	.loc 1 165 10 view .LVU908
	b	.L44
.LVL166:
.L68:
	.loc 1 172 9 view .LVU909
	movs	r3, #0
.LVL167:
	.loc 1 172 9 view .LVU910
	b	.L44
.LVL168:
.L69:
.LBB708:
.LBB645:
	.loc 1 189 11 view .LVU911
	movs	r3, #0
	b	.L44
.LBE645:
.LBE708:
	.cfi_endproc
.LFE521:
	.size	sys_heap_validate, .-sys_heap_validate
	.section	.text.sys_heap_stress,"ax",%progbits
	.align	1
	.global	sys_heap_stress
	.syntax unified
	.thumb
	.thumb_func
	.fpu fpv4-sp-d16
	.type	sys_heap_stress, %function
sys_heap_stress:
.LVL169:
.LFB526:
	.loc 1 307 1 is_stmt 1 view -0
	.cfi_startproc
	@ args = 20, pretend = 0, frame = 40
	@ frame_needed = 0, uses_anonymous_args = 0
	.loc 1 307 1 is_stmt 0 view .LVU913
	push	{r4, r5, r6, r7, lr}
	.cfi_def_cfa_offset 20
	.cfi_offset 4, -20
	.cfi_offset 5, -16
	.cfi_offset 6, -12
	.cfi_offset 7, -8
	.cfi_offset 14, -4
	sub	sp, sp, #44
	.cfi_def_cfa_offset 64
	ldr	r6, [sp, #64]
	ldr	r4, [sp, #80]
	.loc 1 308 2 is_stmt 1 view .LVU914
	.loc 1 308 27 is_stmt 0 view .LVU915
	movs	r5, #0
	str	r5, [sp, #28]
	str	r5, [sp, #32]
	str	r0, [sp, #4]
	str	r1, [sp, #8]
	str	r2, [sp, #12]
	str	r3, [sp, #16]
	ldr	r3, [sp, #68]
.LVL170:
	.loc 1 308 27 view .LVU916
	str	r3, [sp, #20]
	.loc 1 314 34 view .LVU917
	ldr	r3, [sp, #72]
	lsrs	r3, r3, #3
	.loc 1 308 27 view .LVU918
	str	r3, [sp, #24]
	ldr	r3, [sp, #76]
	str	r3, [sp, #36]
	.loc 1 318 2 is_stmt 1 view .LVU919
	.loc 1 318 10 is_stmt 0 view .LVU920
	str	r5, [r4]
.LVL171:
	.loc 1 318 10 view .LVU921
	str	r5, [r4, #4]
	str	r5, [r4, #8]
	str	r5, [r4, #12]
	str	r5, [r4, #16]
	str	r5, [r4, #20]
	.loc 1 320 2 is_stmt 1 view .LVU922
.LBB709:
	.loc 1 320 7 view .LVU923
.LVL172:
	.loc 1 320 2 is_stmt 0 view .LVU924
	b	.L77
.LVL173:
.L78:
.LBB710:
	.loc 1 334 4 is_stmt 1 view .LVU925
	.loc 1 334 12 is_stmt 0 view .LVU926
	add	r0, sp, #4
	bl	rand_free_choice
.LVL174:
	.loc 1 335 4 is_stmt 1 view .LVU927
	.loc 1 335 16 is_stmt 0 view .LVU928
	ldr	r3, [sp, #20]
	.loc 1 335 23 view .LVU929
	add	lr, r3, r0, lsl #3
	.loc 1 335 10 view .LVU930
	ldr	r7, [r3, r0, lsl #3]
.LVL175:
	.loc 1 336 4 is_stmt 1 view .LVU931
	.loc 1 336 11 is_stmt 0 view .LVU932
	ldr	ip, [lr, #4]
.LVL176:
	.loc 1 338 4 is_stmt 1 view .LVU933
	.loc 1 338 10 is_stmt 0 view .LVU934
	ldr	r2, [r4, #8]
	.loc 1 338 23 view .LVU935
	adds	r2, r2, #1
	str	r2, [r4, #8]
	.loc 1 339 4 is_stmt 1 view .LVU936
	.loc 1 339 28 is_stmt 0 view .LVU937
	ldr	r2, [sp, #28]
	add	r2, r2, #536870912
	subs	r2, r2, #1
	add	r3, r3, r2, lsl #3
	.loc 1 339 17 view .LVU938
	ldm	r3, {r0, r1}
.LVL177:
	.loc 1 339 17 view .LVU939
	stm	lr, {r0, r1}
	.loc 1 340 4 is_stmt 1 view .LVU940
	.loc 1 340 6 is_stmt 0 view .LVU941
	ldr	r2, [sp, #28]
	.loc 1 340 21 view .LVU942
	subs	r2, r2, #1
	str	r2, [sp, #28]
	.loc 1 341 4 is_stmt 1 view .LVU943
	.loc 1 341 21 is_stmt 0 view .LVU944
	ldr	r3, [sp, #32]
	sub	r3, r3, ip
	str	r3, [sp, #32]
	.loc 1 342 4 is_stmt 1 view .LVU945
	mov	r1, r7
	ldr	r0, [sp, #12]
	ldr	r3, [sp, #8]
	blx	r3
.LVL178:
.L79:
	.loc 1 342 4 is_stmt 0 view .LVU946
.LBE710:
	.loc 1 344 3 is_stmt 1 discriminator 2 view .LVU947
	.loc 1 344 36 is_stmt 0 discriminator 2 view .LVU948
	ldrd	r2, [r4, #16]
	ldr	r1, [sp, #32]
	adds	r2, r2, r1
	adc	r3, r3, #0
	strd	r2, [r4, #16]
	.loc 1 320 37 is_stmt 1 discriminator 2 view .LVU949
	.loc 1 320 38 is_stmt 0 discriminator 2 view .LVU950
	adds	r5, r5, #1
.LVL179:
.L77:
	.loc 1 320 23 is_stmt 1 discriminator 1 view .LVU951
	.loc 1 320 2 is_stmt 0 discriminator 1 view .LVU952
	cmp	r5, r6
	bcs	.L82
	.loc 1 321 3 is_stmt 1 view .LVU953
	.loc 1 321 7 is_stmt 0 view .LVU954
	add	r0, sp, #4
	bl	rand_alloc_choice
.LVL180:
	.loc 1 321 6 view .LVU955
	cmp	r0, #0
	beq	.L78
.LBB711:
	.loc 1 322 4 is_stmt 1 view .LVU956
	.loc 1 322 16 is_stmt 0 view .LVU957
	add	r0, sp, #4
	bl	rand_alloc_size
.LVL181:
	mov	r7, r0
.LVL182:
	.loc 1 323 4 is_stmt 1 view .LVU958
	.loc 1 323 14 is_stmt 0 view .LVU959
	mov	r1, r0
	ldr	r0, [sp, #12]
.LVL183:
	.loc 1 323 14 view .LVU960
	ldr	r3, [sp, #4]
	blx	r3
.LVL184:
	.loc 1 325 4 is_stmt 1 view .LVU961
	.loc 1 325 10 is_stmt 0 view .LVU962
	ldr	r3, [r4]
	.loc 1 325 24 view .LVU963
	adds	r3, r3, #1
	str	r3, [r4]
	.loc 1 326 4 is_stmt 1 view .LVU964
	.loc 1 326 7 is_stmt 0 view .LVU965
	cmp	r0, #0
	beq	.L79
	.loc 1 327 5 is_stmt 1 view .LVU966
	.loc 1 327 11 is_stmt 0 view .LVU967
	ldr	r3, [r4, #4]
	.loc 1 327 30 view .LVU968
	adds	r3, r3, #1
	str	r3, [r4, #4]
	.loc 1 328 5 is_stmt 1 view .LVU969
	.loc 1 328 38 is_stmt 0 view .LVU970
	ldr	r3, [sp, #20]
	ldr	r1, [sp, #28]
	str	r0, [r3, r1, lsl #3]
	.loc 1 329 5 is_stmt 1 view .LVU971
	.loc 1 329 14 is_stmt 0 view .LVU972
	ldr	r3, [sp, #20]
	ldr	r2, [sp, #28]
	add	r3, r3, r2, lsl #3
	.loc 1 329 37 view .LVU973
	str	r7, [r3, #4]
	.loc 1 330 5 is_stmt 1 view .LVU974
	.loc 1 330 7 is_stmt 0 view .LVU975
	ldr	r3, [sp, #28]
	.loc 1 330 22 view .LVU976
	adds	r3, r3, #1
	str	r3, [sp, #28]
	.loc 1 331 5 is_stmt 1 view .LVU977
	.loc 1 331 22 is_stmt 0 view .LVU978
	ldr	r0, [sp, #32]
.LVL185:
	.loc 1 331 22 view .LVU979
	add	r0, r0, r7
	str	r0, [sp, #32]
	b	.L79
.LVL186:
.L82:
	.loc 1 331 22 view .LVU980
.LBE711:
.LBE709:
	.loc 1 346 1 view .LVU981
	add	sp, sp, #44
	.cfi_def_cfa_offset 20
	@ sp needed
	pop	{r4, r5, r6, r7, pc}
	.loc 1 346 1 view .LVU982
	.cfi_endproc
.LFE526:
	.size	sys_heap_stress, .-sys_heap_stress
	.section	.rodata.heap_print_info.str1.4,"aMS",%progbits,1
	.align	2
.LC0:
	.ascii	"Heap at %p contains %d units in %d buckets\012\012\000"
	.align	2
.LC1:
	.ascii	"  bucket#    min units        total      largest   "
	.ascii	"   largest\012             threshold       chunks  "
	.ascii	"    (units)      (bytes)\012  ---------------------"
	.ascii	"--------------------------------------\012\000"
	.align	2
.LC2:
	.ascii	"%9d %12d %12d %12d %12zd\012\000"
	.align	2
.LC3:
	.ascii	"\012Chunk dump:\012\000"
	.align	2
.LC4:
	.ascii	"chunk %4d: [%c] size=%-4d left=%-4d right=%d\012\000"
	.align	2
.LC5:
	.ascii	"\012%zd free bytes, %zd allocated bytes, overhead ="
	.ascii	" %zd bytes (%zd.%zd%%)\012\000"
	.section	.text.heap_print_info,"ax",%progbits
	.align	1
	.global	heap_print_info
	.syntax unified
	.thumb
	.thumb_func
	.fpu fpv4-sp-d16
	.type	heap_print_info, %function
heap_print_info:
.LVL187:
.LFB527:
	.loc 1 352 1 is_stmt 1 view -0
	.cfi_startproc
	@ args = 0, pretend = 0, frame = 8
	@ frame_needed = 0, uses_anonymous_args = 0
	.loc 1 352 1 is_stmt 0 view .LVU984
	push	{r4, r5, r6, r7, r8, lr}
	.cfi_def_cfa_offset 24
	.cfi_offset 4, -24
	.cfi_offset 5, -20
	.cfi_offset 6, -16
	.cfi_offset 7, -12
	.cfi_offset 8, -8
	.cfi_offset 14, -4
	sub	sp, sp, #16
	.cfi_def_cfa_offset 40
	mov	r5, r0
	mov	r8, r1
	.loc 1 353 2 is_stmt 1 view .LVU985
	.loc 1 353 22 is_stmt 0 view .LVU986
	ldr	r2, [r0, #8]
.LVL188:
.LBB712:
.LBI712:
	.loc 2 249 19 is_stmt 1 view .LVU987
.LBB713:
	.loc 2 251 2 view .LVU988
	.loc 2 251 2 is_stmt 0 view .LVU989
.LBE713:
.LBE712:
	.loc 2 241 2 is_stmt 1 view .LVU990
	.loc 2 236 2 view .LVU991
	.loc 2 221 2 view .LVU992
	.loc 2 97 2 view .LVU993
	.loc 2 81 2 view .LVU994
	.loc 2 82 3 view .LVU995
	.loc 2 231 2 view .LVU996
.LBB715:
.LBB714:
	.loc 2 252 2 view .LVU997
	.loc 2 252 14 is_stmt 0 view .LVU998
	clz	r7, r2
.LVL189:
	.loc 2 252 14 view .LVU999
.LBE714:
.LBE715:
	.loc 1 353 9 view .LVU1000
	rsb	r7, r7, #32
.LVL190:
	.loc 1 354 2 is_stmt 1 view .LVU1001
	.loc 1 356 2 view .LVU1002
	.loc 2 103 2 view .LVU1003
	.loc 1 356 2 is_stmt 0 view .LVU1004
	mov	r3, r7
	mov	r1, r0
.LVL191:
	.loc 1 356 2 view .LVU1005
	ldr	r0, .L99
.LVL192:
	.loc 1 356 2 view .LVU1006
	bl	printk
.LVL193:
	.loc 1 359 2 is_stmt 1 view .LVU1007
	ldr	r0, .L99+4
	bl	printk
.LVL194:
	.loc 1 362 2 view .LVU1008
	.loc 1 362 9 is_stmt 0 view .LVU1009
	movs	r6, #0
	.loc 1 362 2 view .LVU1010
	b	.L84
.LVL195:
.L86:
.LBB716:
.LBB717:
	.loc 1 372 5 is_stmt 1 discriminator 4 view .LVU1011
.LBB718:
.LBI718:
	.loc 2 181 25 discriminator 4 view .LVU1012
.LBE718:
.LBE717:
.LBE716:
	.loc 2 183 2 discriminator 4 view .LVU1013
.LBB750:
.LBB740:
.LBB725:
.LBB719:
.LBI719:
	.loc 2 106 25 discriminator 4 view .LVU1014
.LBB720:
	.loc 2 109 2 discriminator 4 view .LVU1015
	.loc 2 109 2 is_stmt 0 discriminator 4 view .LVU1016
.LBE720:
.LBE719:
.LBE725:
.LBE740:
.LBE750:
	.loc 2 103 2 is_stmt 1 discriminator 4 view .LVU1017
.LBB751:
.LBB741:
.LBB726:
.LBB723:
.LBB721:
	.loc 2 110 2 discriminator 4 view .LVU1018
	.loc 2 112 2 discriminator 4 view .LVU1019
	.loc 2 112 2 is_stmt 0 discriminator 4 view .LVU1020
.LBE721:
.LBE723:
.LBE726:
.LBE741:
.LBE751:
	.loc 2 97 2 is_stmt 1 discriminator 4 view .LVU1021
	.loc 2 81 2 discriminator 4 view .LVU1022
	.loc 2 82 3 discriminator 4 view .LVU1023
.LBB752:
.LBB742:
.LBB727:
.LBB724:
.LBB722:
	.loc 2 115 3 discriminator 4 view .LVU1024
	.loc 2 115 28 is_stmt 0 discriminator 4 view .LVU1025
	adds	r2, r5, r4
.LVL196:
	.loc 2 115 28 discriminator 4 view .LVU1026
	ldrh	r2, [r2, #6]
.LVL197:
	.loc 2 115 28 discriminator 4 view .LVU1027
.LBE722:
.LBE724:
.LBE727:
	.loc 1 373 12 is_stmt 1 discriminator 4 view .LVU1028
	.loc 1 373 4 is_stmt 0 discriminator 4 view .LVU1029
	cmp	r1, r2
	beq	.L95
.LVL198:
.L87:
	.loc 1 369 4 is_stmt 1 view .LVU1030
	.loc 1 370 5 view .LVU1031
	.loc 1 370 10 is_stmt 0 view .LVU1032
	adds	r3, r3, #1
.LVL199:
	.loc 1 371 5 is_stmt 1 view .LVU1033
.LBB728:
.LBI728:
	.loc 2 141 25 view .LVU1034
.LBB729:
	.loc 2 143 2 view .LVU1035
.LBB730:
.LBI730:
	.loc 2 106 25 view .LVU1036
.LBB731:
	.loc 2 109 2 view .LVU1037
	.loc 2 109 2 is_stmt 0 view .LVU1038
.LBE731:
.LBE730:
.LBE729:
.LBE728:
.LBE742:
.LBE752:
	.loc 2 103 2 is_stmt 1 view .LVU1039
.LBB753:
.LBB743:
.LBB738:
.LBB736:
.LBB734:
.LBB732:
	.loc 2 110 2 view .LVU1040
	.loc 2 110 19 is_stmt 0 view .LVU1041
	lsls	r4, r2, #3
.LVL200:
	.loc 2 112 2 is_stmt 1 view .LVU1042
	.loc 2 112 2 is_stmt 0 view .LVU1043
.LBE732:
.LBE734:
.LBE736:
.LBE738:
.LBE743:
.LBE753:
	.loc 2 97 2 is_stmt 1 view .LVU1044
	.loc 2 81 2 view .LVU1045
	.loc 2 82 3 view .LVU1046
.LBB754:
.LBB744:
.LBB739:
.LBB737:
.LBB735:
.LBB733:
	.loc 2 115 3 view .LVU1047
	.loc 2 115 28 is_stmt 0 view .LVU1048
	add	r2, r5, r2, lsl #3
.LVL201:
	.loc 2 115 28 view .LVU1049
	ldrh	r2, [r2, #2]
.LVL202:
	.loc 2 115 28 view .LVU1050
.LBE733:
.LBE735:
	.loc 2 143 42 view .LVU1051
	lsr	ip, r2, #1
.LVL203:
	.loc 2 143 42 view .LVU1052
.LBE737:
.LBE739:
	.loc 1 371 64 view .LVU1053
	cmp	r0, r2, lsr #1
	bhi	.L86
	.loc 1 371 67 view .LVU1054
	mov	r0, ip
.LVL204:
	.loc 1 371 67 view .LVU1055
	b	.L86
.LVL205:
.L95:
	.loc 1 371 67 view .LVU1056
.LBE744:
	.loc 1 375 3 is_stmt 1 view .LVU1057
	.loc 1 375 6 is_stmt 0 view .LVU1058
	cbnz	r3, .L96
.LVL206:
.L85:
	.loc 1 375 6 view .LVU1059
.LBE754:
	.loc 1 362 30 is_stmt 1 discriminator 2 view .LVU1060
	.loc 1 362 31 is_stmt 0 discriminator 2 view .LVU1061
	adds	r6, r6, #1
.LVL207:
.L84:
	.loc 1 362 14 is_stmt 1 discriminator 1 view .LVU1062
	.loc 1 362 2 is_stmt 0 discriminator 1 view .LVU1063
	cmp	r6, r7
	bge	.L97
.LBB755:
	.loc 1 363 3 is_stmt 1 view .LVU1064
	.loc 1 363 13 is_stmt 0 view .LVU1065
	adds	r3, r6, #4
	ldr	r1, [r5, r3, lsl #2]
.LVL208:
	.loc 1 364 3 is_stmt 1 view .LVU1066
	.loc 1 365 3 view .LVU1067
	.loc 1 367 3 view .LVU1068
	.loc 1 367 6 is_stmt 0 view .LVU1069
	cmp	r1, #0
	beq	.L85
.LBB745:
	.loc 1 368 14 view .LVU1070
	mov	r2, r1
.LBE745:
	.loc 1 365 7 view .LVU1071
	movs	r3, #0
	.loc 1 364 13 view .LVU1072
	mov	r0, r3
	b	.L87
.LVL209:
.L96:
	.loc 1 376 4 is_stmt 1 view .LVU1073
	.loc 1 376 4 is_stmt 0 view .LVU1074
.LBE755:
	.loc 2 241 2 is_stmt 1 view .LVU1075
	.loc 2 236 2 view .LVU1076
	.loc 2 221 2 view .LVU1077
	.loc 2 97 2 view .LVU1078
	.loc 2 81 2 view .LVU1079
	.loc 2 82 3 view .LVU1080
	.loc 2 231 2 view .LVU1081
.LBB756:
.LBB746:
.LBI746:
	.loc 2 244 22 view .LVU1082
.LBB747:
	.loc 2 246 2 view .LVU1083
	.loc 2 246 20 is_stmt 0 view .LVU1084
	lsls	r2, r0, #3
.LVL210:
	.loc 2 246 20 view .LVU1085
.LBE747:
.LBE746:
.LBE756:
	.loc 2 221 2 is_stmt 1 view .LVU1086
	.loc 2 97 2 view .LVU1087
	.loc 2 81 2 view .LVU1088
	.loc 2 82 3 view .LVU1089
.LBB757:
.LBB749:
.LBB748:
	.loc 2 246 25 is_stmt 0 view .LVU1090
	subs	r2, r2, #4
.LVL211:
	.loc 2 246 25 view .LVU1091
.LBE748:
.LBE749:
	.loc 1 376 4 view .LVU1092
	str	r2, [sp, #4]
.LVL212:
	.loc 1 376 4 view .LVU1093
	str	r0, [sp]
	movs	r2, #1
	lsls	r2, r2, r6
	mov	r1, r6
.LVL213:
	.loc 1 376 4 view .LVU1094
	ldr	r0, .L99+8
.LVL214:
	.loc 1 376 4 view .LVU1095
	bl	printk
.LVL215:
	.loc 1 376 4 view .LVU1096
	b	.L85
.LVL216:
.L97:
	.loc 1 376 4 view .LVU1097
.LBE757:
	.loc 1 382 2 is_stmt 1 view .LVU1098
	.loc 1 382 5 is_stmt 0 view .LVU1099
	cmp	r8, #0
	bne	.L98
.LVL217:
.L89:
	.loc 1 399 2 is_stmt 1 view .LVU1100
	add	r2, sp, #12
	add	r1, sp, #8
	mov	r0, r5
	bl	get_alloc_info
.LVL218:
	.loc 1 401 2 view .LVU1101
	.loc 1 401 11 is_stmt 0 view .LVU1102
	ldr	r0, [r5, #8]
	.loc 1 401 23 view .LVU1103
	lsls	r0, r0, #3
.LVL219:
	.loc 2 221 2 is_stmt 1 view .LVU1104
	.loc 2 97 2 view .LVU1105
	.loc 2 81 2 view .LVU1106
	.loc 2 82 3 view .LVU1107
	.loc 1 401 8 is_stmt 0 view .LVU1108
	adds	r4, r0, #4
.LVL220:
	.loc 1 402 2 is_stmt 1 view .LVU1109
	.loc 1 402 19 is_stmt 0 view .LVU1110
	ldr	r1, [sp, #12]
	subs	r3, r4, r1
	.loc 1 402 32 view .LVU1111
	ldr	r2, [sp, #8]
	.loc 1 402 11 view .LVU1112
	subs	r3, r3, r2
.LVL221:
	.loc 1 403 2 is_stmt 1 view .LVU1113
	.loc 1 405 33 is_stmt 0 view .LVU1114
	lsrs	r5, r4, #1
.LVL222:
	.loc 1 405 26 view .LVU1115
	mov	r0, #1000
	mla	r0, r0, r3, r5
	.loc 1 405 37 view .LVU1116
	udiv	r0, r0, r4
	.loc 1 403 2 view .LVU1117
	ldr	r4, .L99+12
.LVL223:
	.loc 1 403 2 view .LVU1118
	umull	r5, r4, r4, r0
	lsrs	r4, r4, #3
	add	r5, r4, r4, lsl #2
	sub	r0, r0, r5, lsl #1
	str	r0, [sp, #4]
.LVL224:
	.loc 1 403 2 view .LVU1119
	str	r4, [sp]
	ldr	r0, .L99+16
	bl	printk
.LVL225:
	.loc 1 407 1 view .LVU1120
	add	sp, sp, #16
	.cfi_remember_state
	.cfi_def_cfa_offset 24
	@ sp needed
	pop	{r4, r5, r6, r7, r8, pc}
.LVL226:
.L98:
	.cfi_restore_state
	.loc 1 383 3 is_stmt 1 view .LVU1121
	ldr	r0, .L99+20
	bl	printk
.LVL227:
	.loc 1 384 3 view .LVU1122
.LBB758:
	.loc 1 384 8 view .LVU1123
	.loc 1 384 18 is_stmt 0 view .LVU1124
	movs	r4, #0
	b	.L91
.LVL228:
.L93:
	.loc 1 385 4 view .LVU1125
	movs	r2, #42
.L90:
.LVL229:
.LBB759:
.LBI759:
	.loc 2 141 25 is_stmt 1 discriminator 3 view .LVU1126
.LBB760:
	.loc 2 143 2 discriminator 3 view .LVU1127
.LBB761:
.LBI761:
	.loc 2 106 25 discriminator 3 view .LVU1128
.LBB762:
	.loc 2 109 2 discriminator 3 view .LVU1129
	.loc 2 109 2 is_stmt 0 discriminator 3 view .LVU1130
.LBE762:
.LBE761:
.LBE760:
.LBE759:
.LBE758:
	.loc 2 103 2 is_stmt 1 discriminator 3 view .LVU1131
.LBB815:
.LBB769:
.LBB767:
.LBB765:
.LBB763:
	.loc 2 110 2 discriminator 3 view .LVU1132
	.loc 2 112 2 discriminator 3 view .LVU1133
	.loc 2 112 2 is_stmt 0 discriminator 3 view .LVU1134
.LBE763:
.LBE765:
.LBE767:
.LBE769:
.LBE815:
	.loc 2 97 2 is_stmt 1 discriminator 3 view .LVU1135
	.loc 2 81 2 discriminator 3 view .LVU1136
	.loc 2 82 3 discriminator 3 view .LVU1137
.LBB816:
.LBB770:
.LBB768:
.LBB766:
.LBB764:
	.loc 2 115 3 discriminator 3 view .LVU1138
	.loc 2 115 3 is_stmt 0 discriminator 3 view .LVU1139
.LBE764:
.LBE766:
.LBE768:
.LBE770:
.LBB771:
.LBI771:
	.loc 2 198 25 is_stmt 1 discriminator 3 view .LVU1140
.LBB772:
	.loc 2 200 2 discriminator 3 view .LVU1141
.LBB773:
.LBI773:
	.loc 2 106 25 discriminator 3 view .LVU1142
.LBB774:
	.loc 2 109 2 discriminator 3 view .LVU1143
	.loc 2 109 2 is_stmt 0 discriminator 3 view .LVU1144
.LBE774:
.LBE773:
.LBE772:
.LBE771:
.LBE816:
	.loc 2 103 2 is_stmt 1 discriminator 3 view .LVU1145
.LBB817:
.LBB781:
.LBB779:
.LBB777:
.LBB775:
	.loc 2 110 2 discriminator 3 view .LVU1146
	.loc 2 112 2 discriminator 3 view .LVU1147
	.loc 2 112 2 is_stmt 0 discriminator 3 view .LVU1148
.LBE775:
.LBE777:
.LBE779:
.LBE781:
.LBE817:
	.loc 2 97 2 is_stmt 1 discriminator 3 view .LVU1149
	.loc 2 81 2 discriminator 3 view .LVU1150
	.loc 2 82 3 discriminator 3 view .LVU1151
.LBB818:
.LBB782:
.LBB780:
.LBB778:
.LBB776:
	.loc 2 115 3 discriminator 3 view .LVU1152
	.loc 2 115 28 is_stmt 0 discriminator 3 view .LVU1153
	ldrh	r1, [r5, r1]
.LVL230:
	.loc 2 115 28 discriminator 3 view .LVU1154
.LBE776:
.LBE778:
	.loc 2 200 11 discriminator 3 view .LVU1155
	subs	r1, r4, r1
.LVL231:
	.loc 2 200 11 discriminator 3 view .LVU1156
.LBE780:
.LBE782:
.LBB783:
.LBI783:
	.loc 2 203 25 is_stmt 1 discriminator 3 view .LVU1157
.LBB784:
	.loc 2 205 2 discriminator 3 view .LVU1158
	.loc 2 205 2 is_stmt 0 discriminator 3 view .LVU1159
.LBE784:
.LBE783:
.LBE818:
	.loc 2 143 2 is_stmt 1 discriminator 3 view .LVU1160
	.loc 2 109 2 discriminator 3 view .LVU1161
	.loc 2 103 2 discriminator 3 view .LVU1162
	.loc 2 110 2 discriminator 3 view .LVU1163
	.loc 2 112 2 discriminator 3 view .LVU1164
	.loc 2 97 2 discriminator 3 view .LVU1165
	.loc 2 81 2 discriminator 3 view .LVU1166
	.loc 2 82 3 discriminator 3 view .LVU1167
	.loc 2 115 3 discriminator 3 view .LVU1168
.LBB819:
.LBB786:
.LBB785:
	.loc 2 205 11 is_stmt 0 discriminator 3 view .LVU1169
	add	r0, r4, r3, lsr #1
.LVL232:
	.loc 2 205 11 discriminator 3 view .LVU1170
.LBE785:
.LBE786:
	.loc 1 385 4 discriminator 3 view .LVU1171
	str	r0, [sp, #4]
	str	r1, [sp]
	lsrs	r3, r3, #1
	mov	r1, r4
	ldr	r0, .L99+24
	bl	printk
.LVL233:
	.loc 1 393 4 is_stmt 1 discriminator 3 view .LVU1172
	.loc 1 393 14 is_stmt 0 discriminator 3 view .LVU1173
	ldr	r3, [r5, #8]
	.loc 1 393 7 discriminator 3 view .LVU1174
	cmp	r3, r4
	beq	.L89
	.loc 1 384 27 is_stmt 1 view .LVU1175
.LVL234:
.LBB787:
.LBI787:
	.loc 2 203 25 view .LVU1176
.LBB788:
	.loc 2 205 2 view .LVU1177
.LBB789:
.LBI789:
	.loc 2 141 25 view .LVU1178
.LBB790:
	.loc 2 143 2 view .LVU1179
.LBB791:
.LBI791:
	.loc 2 106 25 view .LVU1180
.LBB792:
	.loc 2 109 2 view .LVU1181
	.loc 2 109 2 is_stmt 0 view .LVU1182
.LBE792:
.LBE791:
.LBE790:
.LBE789:
.LBE788:
.LBE787:
.LBE819:
	.loc 2 103 2 is_stmt 1 view .LVU1183
.LBB820:
.LBB803:
.LBB801:
.LBB799:
.LBB797:
.LBB795:
.LBB793:
	.loc 2 110 2 view .LVU1184
	.loc 2 112 2 view .LVU1185
	.loc 2 112 2 is_stmt 0 view .LVU1186
.LBE793:
.LBE795:
.LBE797:
.LBE799:
.LBE801:
.LBE803:
.LBE820:
	.loc 2 97 2 is_stmt 1 view .LVU1187
	.loc 2 81 2 view .LVU1188
	.loc 2 82 3 view .LVU1189
.LBB821:
.LBB804:
.LBB802:
.LBB800:
.LBB798:
.LBB796:
.LBB794:
	.loc 2 115 3 view .LVU1190
	.loc 2 115 28 is_stmt 0 view .LVU1191
	ldrh	r3, [r5, r6]
.LVL235:
	.loc 2 115 28 view .LVU1192
.LBE794:
.LBE796:
.LBE798:
.LBE800:
	.loc 2 205 11 view .LVU1193
	add	r4, r4, r3, lsr #1
.LVL236:
	.loc 2 205 11 view .LVU1194
.LBE802:
.LBE804:
	.loc 1 384 25 is_stmt 1 view .LVU1195
.L91:
	.loc 1 385 4 view .LVU1196
.LBB805:
.LBI805:
	.loc 2 136 19 view .LVU1197
.LBE805:
.LBE821:
	.loc 2 138 2 view .LVU1198
.LBB822:
.LBB812:
.LBB806:
.LBI806:
	.loc 2 106 25 view .LVU1199
.LBB807:
	.loc 2 109 2 view .LVU1200
	.loc 2 109 2 is_stmt 0 view .LVU1201
.LBE807:
.LBE806:
.LBE812:
.LBE822:
	.loc 2 103 2 is_stmt 1 view .LVU1202
.LBB823:
.LBB813:
.LBB810:
.LBB808:
	.loc 2 110 2 view .LVU1203
	.loc 2 110 19 is_stmt 0 view .LVU1204
	lsls	r1, r4, #3
.LVL237:
	.loc 2 112 2 is_stmt 1 view .LVU1205
	.loc 2 112 2 is_stmt 0 view .LVU1206
.LBE808:
.LBE810:
.LBE813:
.LBE823:
	.loc 2 97 2 is_stmt 1 view .LVU1207
	.loc 2 81 2 view .LVU1208
	.loc 2 82 3 view .LVU1209
.LBB824:
.LBB814:
.LBB811:
.LBB809:
	.loc 2 115 3 view .LVU1210
	.loc 2 115 28 is_stmt 0 view .LVU1211
	adds	r6, r1, #2
	ldrh	r3, [r5, r6]
.LVL238:
	.loc 2 115 28 view .LVU1212
.LBE809:
.LBE811:
.LBE814:
	.loc 1 385 4 view .LVU1213
	tst	r3, #1
	bne	.L93
	movs	r2, #45
	b	.L90
.L100:
	.align	2
.L99:
	.word	.LC0
	.word	.LC1
	.word	.LC2
	.word	-858993459
	.word	.LC5
	.word	.LC3
	.word	.LC4
.LBE824:
	.cfi_endproc
.LFE527:
	.size	heap_print_info, .-heap_print_info
	.section	.text.sys_heap_print_info,"ax",%progbits
	.align	1
	.global	sys_heap_print_info
	.syntax unified
	.thumb
	.thumb_func
	.fpu fpv4-sp-d16
	.type	sys_heap_print_info, %function
sys_heap_print_info:
.LVL239:
.LFB528:
	.loc 1 410 1 is_stmt 1 view -0
	.cfi_startproc
	@ args = 0, pretend = 0, frame = 0
	@ frame_needed = 0, uses_anonymous_args = 0
	.loc 1 410 1 is_stmt 0 view .LVU1215
	push	{r3, lr}
	.cfi_def_cfa_offset 8
	.cfi_offset 3, -8
	.cfi_offset 14, -4
	.loc 1 411 2 is_stmt 1 view .LVU1216
	ldr	r0, [r0]
.LVL240:
	.loc 1 411 2 is_stmt 0 view .LVU1217
	bl	heap_print_info
.LVL241:
	.loc 1 412 1 view .LVU1218
	pop	{r3, pc}
	.cfi_endproc
.LFE528:
	.size	sys_heap_print_info, .-sys_heap_print_info
	.section	.data.state.10838,"aw"
	.align	3
	.set	.LANCHOR0,. + 0
	.type	state.10838, %object
	.size	state.10838, 8
state.10838:
	.word	123456789
	.word	0
	.text
.Letext0:
	.file 3 "/home/sebin/LIOT/gcc-arm-none-eabi-9-2019-q4-major/lib/gcc/arm-none-eabi/9.2.1/include/stddef.h"
	.file 4 "/home/sebin/LIOT/gcc-arm-none-eabi-9-2019-q4-major/arm-none-eabi/include/machine/_default_types.h"
	.file 5 "/home/sebin/LIOT/gcc-arm-none-eabi-9-2019-q4-major/arm-none-eabi/include/sys/_stdint.h"
	.file 6 "/home/sebin/thesis/zephyrproject/zephyr/include/sys/sys_heap.h"
	.file 7 "/home/sebin/thesis/zephyrproject/zephyr/include/sys/dlist.h"
	.file 8 "/home/sebin/thesis/zephyrproject/zephyr/include/sys/rb.h"
	.file 9 "/home/sebin/thesis/zephyrproject/zephyr/include/sys/slist.h"
	.file 10 "/home/sebin/thesis/zephyrproject/zephyr/include/kernel_structs.h"
	.file 11 "/home/sebin/thesis/zephyrproject/zephyr/include/kernel/thread.h"
	.file 12 "/home/sebin/thesis/zephyrproject/zephyr/include/kernel.h"
	.file 13 "/home/sebin/thesis/zephyrproject/zephyr/include/arch/arm/aarch32/thread.h"
	.file 14 "/home/sebin/thesis/zephyrproject/zephyr/include/arch/arm/aarch32/exc.h"
	.file 15 "/home/sebin/thesis/zephyrproject/zephyr/include/sw_isr_table.h"
	.file 16 "/home/sebin/thesis/zephyrproject/modules/hal/infineon/XMCLib/devices/XMC4500/Include/system_XMC4500.h"
	.file 17 "/home/sebin/thesis/zephyrproject/modules/hal/cmsis/CMSIS/Core/Include/core_cm4.h"
	.file 18 "/home/sebin/thesis/zephyrproject/zephyr/include/arch/arm/aarch32/mpu/arm_mpu_v7m.h"
	.file 19 "/home/sebin/thesis/zephyrproject/zephyr/include/arch/arm/aarch32/mpu/arm_mpu.h"
	.file 20 "/home/sebin/thesis/zephyrproject/zephyr/include/spinlock.h"
	.file 21 "/home/sebin/LIOT/gcc-arm-none-eabi-9-2019-q4-major/arm-none-eabi/include/sys/lock.h"
	.file 22 "/home/sebin/LIOT/gcc-arm-none-eabi-9-2019-q4-major/arm-none-eabi/include/sys/_types.h"
	.file 23 "/home/sebin/LIOT/gcc-arm-none-eabi-9-2019-q4-major/arm-none-eabi/include/sys/reent.h"
	.file 24 "/home/sebin/LIOT/gcc-arm-none-eabi-9-2019-q4-major/arm-none-eabi/include/sys/errno.h"
	.file 25 "/home/sebin/thesis/zephyrproject/zephyr/include/arch/structs.h"
	.file 26 "/home/sebin/thesis/zephyrproject/zephyr/include/sys/printk.h"