	.cpu cortex-m4
	.eabi_attribute 27, 1
	.eabi_attribute 28, 1
	.eabi_attribute 20, 1
	.eabi_attribute 21, 1
	.eabi_attribute 23, 3
	.eabi_attribute 24, 1
	.eabi_attribute 25, 1
	.eabi_attribute 26, 1
	.eabi_attribute 30, 1
	.eabi_attribute 34, 1
	.eabi_attribute 38, 1
	.eabi_attribute 18, 4
	.file	"multi_heap.c"
	.text
.Ltext0:
	.cfi_sections	.debug_frame
	.section	.text.sys_multi_heap_init,"ax",%progbits
	.align	1
	.global	sys_multi_heap_init
	.arch armv7e-m
	.syntax unified
	.thumb
	.thumb_func
	.fpu fpv4-sp-d16
	.type	sys_multi_heap_init, %function
sys_multi_heap_init:
.LVL0:
.LFB6:
	.file 1 "/home/sebin/thesis/zephyrproject/zephyr/lib/os/multi_heap.c"
	.loc 1 10 1 view -0
	.cfi_startproc
	@ args = 0, pretend = 0, frame = 0
	@ frame_needed = 0, uses_anonymous_args = 0
	@ link register save eliminated.
	.loc 1 11 2 view .LVU1
	.loc 1 11 15 is_stmt 0 view .LVU2
	movs	r3, #0
	str	r3, [r0]
	.loc 1 12 2 is_stmt 1 view .LVU3
	.loc 1 12 15 is_stmt 0 view .LVU4
	str	r1, [r0, #4]
	.loc 1 13 1 view .LVU5
	bx	lr
	.cfi_endproc
.LFE6:
	.size	sys_multi_heap_init, .-sys_multi_heap_init
	.section	.text.sys_multi_heap_add_heap,"ax",%progbits
	.align	1
	.global	sys_multi_heap_add_heap
	.syntax unified
	.thumb
	.thumb_func
	.fpu fpv4-sp-d16
	.type	sys_multi_heap_add_heap, %function
sys_multi_heap_add_heap:
.LVL1:
.LFB7:
	.loc 1 16 1 is_stmt 1 view -0
	.cfi_startproc
	@ args = 0, pretend = 0, frame = 0
	@ frame_needed = 0, uses_anonymous_args = 0
	@ link register save eliminated.
	.loc 1 16 1 is_stmt 0 view .LVU7
	push	{r4, r5, r6}
	.cfi_def_cfa_offset 12
	.cfi_offset 4, -12
	.cfi_offset 5, -8
	.cfi_offset 6, -4
	.loc 1 17 4 is_stmt 1 view .LVU8
	.loc 1 17 5 view .LVU9
	.loc 1 19 2 view .LVU10
	.loc 1 19 20 is_stmt 0 view .LVU11
	ldr	r3, [r0]
	.loc 1 19 28 view .LVU12
	adds	r4, r3, #1
	str	r4, [r0]
	.loc 1 19 32 view .LVU13
	adds	r3, r3, #2
	str	r1, [r0, r3, lsl #2]
	.loc 1 22 2 is_stmt 1 view .LVU14
.LBB2:
	.loc 1 22 7 view .LVU15
.LVL2:
	.loc 1 22 11 is_stmt 0 view .LVU16
	movs	r6, #0
	.loc 1 22 2 view .LVU17
	b	.L3
.LVL3:
.L4:
.LBB3:
.LBB4:
	.loc 1 27 38 is_stmt 1 discriminator 2 view .LVU18
	.loc 1 27 39 is_stmt 0 discriminator 2 view .LVU19
	adds	r3, r3, #1
.LVL4:
.L6:
	.loc 1 27 19 is_stmt 1 discriminator 1 view .LVU20
	.loc 1 27 3 is_stmt 0 discriminator 1 view .LVU21
	cmp	r4, r3
	ble	.L10
.LBB5:
	.loc 1 28 4 is_stmt 1 view .LVU22
	.loc 1 28 45 is_stmt 0 view .LVU23
	adds	r2, r3, #2
	ldr	r2, [r0, r2, lsl #2]
	.loc 1 28 48 view .LVU24
	ldr	r2, [r2]
.LVL5:
	.loc 1 30 4 is_stmt 1 view .LVU25
	.loc 1 30 7 is_stmt 0 view .LVU26
	cmp	r1, r2
	bls	.L4
	.loc 1 32 17 view .LVU27
	mov	r1, r2
.LVL6:
	.loc 1 31 12 view .LVU28
	mov	r5, r3
.LVL7:
	.loc 1 31 12 view .LVU29
	b	.L4
.LVL8:
.L10:
	.loc 1 31 12 view .LVU30
.LBE5:
.LBE4:
	.loc 1 35 3 is_stmt 1 discriminator 2 view .LVU31
	.loc 1 35 8 is_stmt 0 discriminator 2 view .LVU32
	adds	r3, r6, #2
.LVL9:
	.loc 1 35 8 discriminator 2 view .LVU33
	ldr	r2, [r0, r3, lsl #2]
.LVL10:
	.loc 1 36 3 is_stmt 1 discriminator 2 view .LVU34
	.loc 1 36 33 is_stmt 0 discriminator 2 view .LVU35
	adds	r5, r5, #2
.LVL11:
	.loc 1 36 33 discriminator 2 view .LVU36
	ldr	r1, [r0, r5, lsl #2]
.LVL12:
	.loc 1 36 19 discriminator 2 view .LVU37
	str	r1, [r0, r3, lsl #2]
	.loc 1 37 3 is_stmt 1 discriminator 2 view .LVU38
	.loc 1 37 24 is_stmt 0 discriminator 2 view .LVU39
	str	r2, [r0, r5, lsl #2]
.LBE3:
	.loc 1 22 37 is_stmt 1 discriminator 2 view .LVU40
	.loc 1 22 38 is_stmt 0 discriminator 2 view .LVU41
	adds	r6, r6, #1
.LVL13:
.L3:
	.loc 1 22 18 is_stmt 1 discriminator 1 view .LVU42
	.loc 1 22 2 is_stmt 0 discriminator 1 view .LVU43
	cmp	r4, r6
	ble	.L11
.LBB7:
.LBB6:
	.loc 1 27 12 view .LVU44
	mov	r3, r6
.LBE6:
	.loc 1 25 13 view .LVU45
	mov	r1, #-1
	.loc 1 24 7 view .LVU46
	mov	r5, r1
	b	.L6
.L11:
	.loc 1 24 7 view .LVU47
.LBE7:
.LBE2:
	.loc 1 39 1 view .LVU48
	pop	{r4, r5, r6}
	.cfi_restore 6
	.cfi_restore 5
	.cfi_restore 4
	.cfi_def_cfa_offset 0
.LVL14:
	.loc 1 39 1 view .LVU49
	bx	lr
	.cfi_endproc
.LFE7:
	.size	sys_multi_heap_add_heap, .-sys_multi_heap_add_heap
	.section	.text.sys_multi_heap_alloc,"ax",%progbits
	.align	1
	.global	sys_multi_heap_alloc
	.syntax unified
	.thumb
	.thumb_func
	.fpu fpv4-sp-d16
	.type	sys_multi_heap_alloc, %function
sys_multi_heap_alloc:
.LVL15:
.LFB8:
	.loc 1 42 1 is_stmt 1 view -0
	.cfi_startproc
	@ args = 0, pretend = 0, frame = 0
	@ frame_needed = 0, uses_anonymous_args = 0
	.loc 1 42 1 is_stmt 0 view .LVU51
	push	{r4, lr}
	.cfi_def_cfa_offset 8
	.cfi_offset 4, -8
	.cfi_offset 14, -4
	mov	r3, r2
	.loc 1 43 2 is_stmt 1 view .LVU52
	.loc 1 43 14 is_stmt 0 view .LVU53
	ldr	r4, [r0, #4]
	.loc 1 43 9 view .LVU54
	movs	r2, #0
.LVL16:
	.loc 1 43 9 view .LVU55
	blx	r4
.LVL17:
	.loc 1 44 1 view .LVU56
	pop	{r4, pc}
	.cfi_endproc
.LFE8:
	.size	sys_multi_heap_alloc, .-sys_multi_heap_alloc
	.section	.text.sys_multi_heap_aligned_alloc,"ax",%progbits
	.align	1
	.global	sys_multi_heap_aligned_alloc
	.syntax unified
	.thumb
	.thumb_func
	.fpu fpv4-sp-d16
	.type	sys_multi_heap_aligned_alloc, %function
sys_multi_heap_aligned_alloc:
.LVL18:
.LFB9:
	.loc 1 48 1 is_stmt 1 view -0
	.cfi_startproc
	@ args = 0, pretend = 0, frame = 0
	@ frame_needed = 0, uses_anonymous_args = 0
	.loc 1 48 1 is_stmt 0 view .LVU58
	push	{r4, lr}
	.cfi_def_cfa_offset 8
	.cfi_offset 4, -8
	.cfi_offset 14, -4
	.loc 1 49 2 is_stmt 1 view .LVU59
	.loc 1 49 14 is_stmt 0 view .LVU60
	ldr	r4, [r0, #4]
	.loc 1 49 9 view .LVU61
	blx	r4
.LVL19:
	.loc 1 50 1 view .LVU62
	pop	{r4, pc}
	.cfi_endproc
.LFE9:
	.size	sys_multi_heap_aligned_alloc, .-sys_multi_heap_aligned_alloc
	.section	.text.sys_multi_heap_free,"ax",%progbits
	.align	1
	.global	sys_multi_heap_free
	.syntax unified
	.thumb
	.thumb_func
	.fpu fpv4-sp-d16
	.type	sys_multi_heap_free, %function
sys_multi_heap_free:
.LVL20:
.LFB10:
	.loc 1 53 1 is_stmt 1 view -0
	.cfi_startproc
	@ args = 0, pretend = 0, frame = 0
	@ frame_needed = 0, uses_anonymous_args = 0
	.loc 1 53 1 is_stmt 0 view .LVU64
	push	{r4, lr}
	.cfi_def_cfa_offset 8
	.cfi_offset 4, -8
	.cfi_offset 14, -4
	.loc 1 54 2 is_stmt 1 view .LVU65
	.loc 1 54 19 is_stmt 0 view .LVU66
	mov	r4, r1
.LVL21:
	.loc 1 55 2 is_stmt 1 view .LVU67
	.loc 1 65 2 view .LVU68
	.loc 1 65 9 is_stmt 0 view .LVU69
	movs	r3, #0
.LVL22:
.L17:
	.loc 1 65 14 is_stmt 1 discriminator 1 view .LVU70
	.loc 1 65 23 is_stmt 0 discriminator 1 view .LVU71
	ldr	r2, [r0]
	.loc 1 65 2 discriminator 1 view .LVU72
	cmp	r2, r3
	ble	.L18
	.loc 1 66 3 is_stmt 1 view .LVU73
	.loc 1 66 34 is_stmt 0 view .LVU74
	adds	r2, r3, #2
	ldr	r2, [r0, r2, lsl #2]
	.loc 1 66 37 view .LVU75
	ldr	r2, [r2]
.LVL23:
	.loc 1 67 3 is_stmt 1 view .LVU76
	.loc 1 67 6 is_stmt 0 view .LVU77
	cmp	r4, r2
	bcc	.L18
	.loc 1 65 33 is_stmt 1 discriminator 2 view .LVU78
	.loc 1 65 34 is_stmt 0 discriminator 2 view .LVU79
	adds	r3, r3, #1
.LVL24:
	.loc 1 65 34 discriminator 2 view .LVU80
	b	.L17
.LVL25:
.L18:
	.loc 1 75 2 is_stmt 1 view .LVU81
	adds	r3, r3, #1
.LVL26:
	.loc 1 75 2 is_stmt 0 view .LVU82
	ldr	r0, [r0, r3, lsl #2]
.LVL27:
	.loc 1 75 2 view .LVU83
	bl	sys_heap_free
.LVL28:
	.loc 1 76 1 view .LVU84
	pop	{r4, pc}
	.loc 1 76 1 view .LVU85
	.cfi_endproc
.LFE10:
	.size	sys_multi_heap_free, .-sys_multi_heap_free
	.text
.Letext0:
	.file 2 "/home/sebin/LIOT/gcc-arm-none-eabi-9-2019-q4-major/lib/gcc/arm-none-eabi/9.2.1/include/stddef.h"
	.file 3 "/home/sebin/LIOT/gcc-arm-none-eabi-9-2019-q4-major/arm-none-eabi/include/machine/_default_types.h"
	.file 4 "/home/sebin/LIOT/gcc-arm-none-eabi-9-2019-q4-major/arm-none-eabi/include/sys/_stdint.h"
	.file 5 "/home/sebin/thesis/zephyrproject/zephyr/include/sys/sys_heap.h"
	.file 6 "/home/sebin/thesis/zephyrproject/zephyr/include/sys/multi_heap.h"