	.cpu cortex-m4
	.eabi_attribute 27, 1
	.eabi_attribute 28, 1
	.eabi_attribute 20, 1
	.eabi_attribute 21, 1
	.eabi_attribute 23, 3
	.eabi_attribute 24, 1
	.eabi_attribute 25, 1
	.eabi_attribute 26, 1
	.eabi_attribute 30, 1
	.eabi_attribute 34, 1
	.eabi_attribute 38, 1
	.eabi_attribute 18, 4
	.file	"printk.c"
	.text
.Ltext0:
	.cfi_sections	.debug_frame
	.section	.text.arch_printk_char_out,"ax",%progbits
	.align	1
	.weak	arch_printk_char_out
	.arch armv7e-m
	.syntax unified
	.thumb
	.thumb_func
	.fpu fpv4-sp-d16
	.type	arch_printk_char_out, %function
arch_printk_char_out:
.LVL0:
.LFB534:
	.file 1 "/home/sebin/thesis/zephyrproject/zephyr/lib/os/printk.c"
	.loc 1 46 1 view -0
	.cfi_startproc
	@ args = 0, pretend = 0, frame = 0
	@ frame_needed = 0, uses_anonymous_args = 0
	@ link register save eliminated.
	.loc 1 47 2 view .LVU1
	.loc 1 50 2 view .LVU2
	.loc 1 51 1 is_stmt 0 view .LVU3
	movs	r0, #0
.LVL1:
	.loc 1 51 1 view .LVU4
	bx	lr
	.cfi_endproc
.LFE534:
	.size	arch_printk_char_out, .-arch_printk_char_out
	.section	.text.str_out,"ax",%progbits
	.align	1
	.syntax unified
	.thumb
	.thumb_func
	.fpu fpv4-sp-d16
	.type	str_out, %function
str_out:
.LVL2:
.LFB543:
	.loc 1 212 1 is_stmt 1 view -0
	.cfi_startproc
	@ args = 0, pretend = 0, frame = 0
	@ frame_needed = 0, uses_anonymous_args = 0
	@ link register save eliminated.
	.loc 1 212 1 is_stmt 0 view .LVU6
	push	{r4}
	.cfi_def_cfa_offset 4
	.cfi_offset 4, -4
	.loc 1 213 2 is_stmt 1 view .LVU7
	.loc 1 213 9 is_stmt 0 view .LVU8
	ldr	r4, [r1]
	.loc 1 213 5 view .LVU9
	cbz	r4, .L3
	.loc 1 213 28 discriminator 1 view .LVU10
	ldr	r2, [r1, #8]
	.loc 1 213 42 discriminator 1 view .LVU11
	ldr	r3, [r1, #4]
	.loc 1 213 22 discriminator 1 view .LVU12
	cmp	r2, r3
	bge	.L3
	.loc 1 218 2 is_stmt 1 view .LVU13
	.loc 1 218 29 is_stmt 0 view .LVU14
	subs	r3, r3, #1
	.loc 1 218 5 view .LVU15
	cmp	r2, r3
	beq	.L8
	.loc 1 221 3 is_stmt 1 view .LVU16
	.loc 1 221 22 is_stmt 0 view .LVU17
	adds	r3, r2, #1
	str	r3, [r1, #8]
	.loc 1 221 26 view .LVU18
	strb	r0, [r4, r2]
	b	.L5
.L3:
	.loc 1 214 3 is_stmt 1 view .LVU19
	.loc 1 214 6 is_stmt 0 view .LVU20
	ldr	r3, [r1, #8]
	.loc 1 214 13 view .LVU21
	adds	r3, r3, #1
	str	r3, [r1, #8]
	.loc 1 215 3 is_stmt 1 view .LVU22
.L5:
	.loc 1 225 1 is_stmt 0 view .LVU23
	ldr	r4, [sp], #4
	.cfi_remember_state
	.cfi_restore 4
	.cfi_def_cfa_offset 0
	bx	lr
.L8:
	.cfi_restore_state
	.loc 1 219 3 is_stmt 1 view .LVU24
	.loc 1 219 22 is_stmt 0 view .LVU25
	adds	r3, r2, #1
	str	r3, [r1, #8]
	.loc 1 219 26 view .LVU26
	movs	r3, #0
	strb	r3, [r4, r2]
	b	.L5
	.cfi_endproc
.LFE543:
	.size	str_out, .-str_out
	.section	.text.__printk_hook_install,"ax",%progbits
	.align	1
	.global	__printk_hook_install
	.syntax unified
	.thumb
	.thumb_func
	.fpu fpv4-sp-d16
	.type	__printk_hook_install, %function
__printk_hook_install:
.LVL3:
.LFB535:
	.loc 1 64 1 is_stmt 1 view -0
	.cfi_startproc
	@ args = 0, pretend = 0, frame = 0
	@ frame_needed = 0, uses_anonymous_args = 0
	@ link register save eliminated.
	.loc 1 65 2 view .LVU28
	.loc 1 65 12 is_stmt 0 view .LVU29
	ldr	r3, .L10
	str	r0, [r3]
	.loc 1 66 1 view .LVU30
	bx	lr
.L11:
	.align	2
.L10:
	.word	.LANCHOR0
	.cfi_endproc
.LFE535:
	.size	__printk_hook_install, .-__printk_hook_install
	.section	.text.__printk_get_hook,"ax",%progbits
	.align	1
	.global	__printk_get_hook
	.syntax unified
	.thumb
	.thumb_func
	.fpu fpv4-sp-d16
	.type	__printk_get_hook, %function
__printk_get_hook:
.LFB536:
	.loc 1 77 1 is_stmt 1 view -0
	.cfi_startproc
	@ args = 0, pretend = 0, frame = 0
	@ frame_needed = 0, uses_anonymous_args = 0
	@ link register save eliminated.
	.loc 1 78 2 view .LVU32
	.loc 1 79 1 is_stmt 0 view .LVU33
	ldr	r3, .L13
	ldr	r0, [r3]
	bx	lr
.L14:
	.align	2
.L13:
	.word	.LANCHOR0
	.cfi_endproc
.LFE536:
	.size	__printk_get_hook, .-__printk_get_hook
	.section	.text.vprintk,"ax",%progbits
	.align	1
	.global	vprintk
	.syntax unified
	.thumb
	.thumb_func
	.fpu fpv4-sp-d16
	.type	vprintk, %function
vprintk:
.LVL4:
.LFB540:
	.loc 1 119 1 is_stmt 1 view -0
	.cfi_startproc
	@ args = 0, pretend = 0, frame = 0
	@ frame_needed = 0, uses_anonymous_args = 0
	.loc 1 119 1 is_stmt 0 view .LVU35
	push	{r3, lr}
	.cfi_def_cfa_offset 8
	.cfi_offset 3, -8
	.cfi_offset 14, -4
	.loc 1 120 2 is_stmt 1 view .LVU36
	.loc 1 121 3 view .LVU37
	bl	z_log_vprintk
.LVL5:
	.loc 1 122 3 view .LVU38
	.loc 1 145 1 is_stmt 0 view .LVU39
	pop	{r3, pc}
	.cfi_endproc
.LFE540:
	.size	vprintk, .-vprintk
	.section	.text.z_impl_k_str_out,"ax",%progbits
	.align	1
	.global	z_impl_k_str_out
	.syntax unified
	.thumb
	.thumb_func
	.fpu fpv4-sp-d16
	.type	z_impl_k_str_out, %function
z_impl_k_str_out:
.LVL6:
.LFB541:
	.loc 1 148 1 is_stmt 1 view -0
	.cfi_startproc
	@ args = 0, pretend = 0, frame = 0
	@ frame_needed = 0, uses_anonymous_args = 0
	.loc 1 148 1 is_stmt 0 view .LVU41
	push	{r4, r5, r6, lr}
	.cfi_def_cfa_offset 16
	.cfi_offset 4, -16
	.cfi_offset 5, -12
	.cfi_offset 6, -8
	.cfi_offset 14, -4
	mov	r6, r0
	mov	r5, r1
	.loc 1 149 2 is_stmt 1 view .LVU42
	.loc 1 154 2 view .LVU43
.LVL7:
	.loc 1 154 9 is_stmt 0 view .LVU44
	movs	r4, #0
.LVL8:
.L18:
	.loc 1 154 14 is_stmt 1 discriminator 1 view .LVU45
	.loc 1 154 2 is_stmt 0 discriminator 1 view .LVU46
	cmp	r4, r5
	bcs	.L21
	.loc 1 155 3 is_stmt 1 discriminator 3 view .LVU47
	ldr	r3, .L22
	ldr	r3, [r3]
	ldrb	r0, [r6, r4]	@ zero_extendqisi2
	blx	r3
.LVL9:
	.loc 1 154 21 discriminator 3 view .LVU48
	.loc 1 154 22 is_stmt 0 discriminator 3 view .LVU49
	adds	r4, r4, #1
.LVL10:
	.loc 1 154 22 discriminator 3 view .LVU50
	b	.L18
.L21:
	.loc 1 161 1 view .LVU51
	pop	{r4, r5, r6, pc}
.LVL11:
.L23:
	.loc 1 161 1 view .LVU52
	.align	2
.L22:
	.word	.LANCHOR0
	.cfi_endproc
.LFE541:
	.size	z_impl_k_str_out, .-z_impl_k_str_out
	.section	.text.printk,"ax",%progbits
	.align	1
	.global	printk
	.syntax unified
	.thumb
	.thumb_func
	.fpu fpv4-sp-d16
	.type	printk, %function
printk:
.LVL12:
.LFB542:
	.loc 1 194 1 is_stmt 1 view -0
	.cfi_startproc
	@ args = 4, pretend = 16, frame = 8
	@ frame_needed = 0, uses_anonymous_args = 1
	.loc 1 194 1 is_stmt 0 view .LVU54
	push	{r0, r1, r2, r3}
	.cfi_def_cfa_offset 16
	.cfi_offset 0, -16
	.cfi_offset 1, -12
	.cfi_offset 2, -8
	.cfi_offset 3, -4
	push	{lr}
	.cfi_def_cfa_offset 20
	.cfi_offset 14, -20
	sub	sp, sp, #12
	.cfi_def_cfa_offset 32
	add	r1, sp, #16
	ldr	r0, [r1], #4
	.loc 1 195 2 is_stmt 1 view .LVU55
	.loc 1 197 1 view .LVU56
	str	r1, [sp, #4]
	.loc 1 199 2 view .LVU57
	bl	vprintk
.LVL13:
	.loc 1 201 1 view .LVU58
	.loc 1 202 1 is_stmt 0 view .LVU59
	add	sp, sp, #12
	.cfi_def_cfa_offset 20
	@ sp needed
	ldr	lr, [sp], #4
	.cfi_restore 14
	.cfi_def_cfa_offset 16
	add	sp, sp, #16
	.cfi_restore 3
	.cfi_restore 2
	.cfi_restore 1
	.cfi_restore 0
	.cfi_def_cfa_offset 0
	bx	lr
	.cfi_endproc
.LFE542:
	.size	printk, .-printk
	.section	.text.vsnprintk,"ax",%progbits
	.align	1
	.global	vsnprintk
	.syntax unified
	.thumb
	.thumb_func
	.fpu fpv4-sp-d16
	.type	vsnprintk, %function
vsnprintk:
.LVL14:
.LFB545:
	.loc 1 240 1 is_stmt 1 view -0
	.cfi_startproc
	@ args = 0, pretend = 0, frame = 16
	@ frame_needed = 0, uses_anonymous_args = 0
	.loc 1 240 1 is_stmt 0 view .LVU61
	push	{r4, lr}
	.cfi_def_cfa_offset 8
	.cfi_offset 4, -8
	.cfi_offset 14, -4
	sub	sp, sp, #16
	.cfi_def_cfa_offset 24
	mov	r4, r0
	.loc 1 241 2 is_stmt 1 view .LVU62
	.loc 1 241 21 is_stmt 0 view .LVU63
	str	r0, [sp, #4]
	str	r1, [sp, #8]
	movs	r1, #0
.LVL15:
	.loc 1 241 21 view .LVU64
	str	r1, [sp, #12]
	.loc 1 243 2 is_stmt 1 view .LVU65
	add	r1, sp, #4
	ldr	r0, .L29
.LVL16:
	.loc 1 243 2 is_stmt 0 view .LVU66
	bl	cbvprintf
.LVL17:
	.loc 1 245 2 is_stmt 1 view .LVU67
	.loc 1 245 9 is_stmt 0 view .LVU68
	ldr	r3, [sp, #12]
	.loc 1 245 21 view .LVU69
	ldr	r2, [sp, #8]
	.loc 1 245 5 view .LVU70
	cmp	r3, r2
	bge	.L27
	.loc 1 246 3 is_stmt 1 view .LVU71
	.loc 1 246 18 is_stmt 0 view .LVU72
	movs	r2, #0
	strb	r2, [r4, r3]
.L27:
	.loc 1 249 2 is_stmt 1 view .LVU73
	.loc 1 250 1 is_stmt 0 view .LVU74
	ldr	r0, [sp, #12]
	add	sp, sp, #16
	.cfi_def_cfa_offset 8
	@ sp needed
	pop	{r4, pc}
.LVL18:
.L30:
	.loc 1 250 1 view .LVU75
	.align	2
.L29:
	.word	str_out
	.cfi_endproc
.LFE545:
	.size	vsnprintk, .-vsnprintk
	.section	.text.snprintk,"ax",%progbits
	.align	1
	.global	snprintk
	.syntax unified
	.thumb
	.thumb_func
	.fpu fpv4-sp-d16
	.type	snprintk, %function
snprintk:
.LVL19:
.LFB544:
	.loc 1 228 1 is_stmt 1 view -0
	.cfi_startproc
	@ args = 4, pretend = 8, frame = 8
	@ frame_needed = 0, uses_anonymous_args = 1
	.loc 1 228 1 is_stmt 0 view .LVU77
	push	{r2, r3}
	.cfi_def_cfa_offset 8
	.cfi_offset 2, -8
	.cfi_offset 3, -4
	push	{lr}
	.cfi_def_cfa_offset 12
	.cfi_offset 14, -12
	sub	sp, sp, #12
	.cfi_def_cfa_offset 24
	add	r3, sp, #16
	ldr	r2, [r3], #4
	.loc 1 229 2 is_stmt 1 view .LVU78
	.loc 1 230 2 view .LVU79
	.loc 1 232 1 view .LVU80
	str	r3, [sp, #4]
	.loc 1 233 2 view .LVU81
	.loc 1 233 8 is_stmt 0 view .LVU82
	bl	vsnprintk
.LVL20:
	.loc 1 234 1 is_stmt 1 view .LVU83
	.loc 1 236 2 view .LVU84
	.loc 1 237 1 is_stmt 0 view .LVU85
	add	sp, sp, #12
	.cfi_def_cfa_offset 12
	@ sp needed
	ldr	lr, [sp], #4
	.cfi_restore 14
	.cfi_def_cfa_offset 8
	add	sp, sp, #8
	.cfi_restore 3
	.cfi_restore 2
	.cfi_def_cfa_offset 0
	bx	lr
	.cfi_endproc
.LFE544:
	.size	snprintk, .-snprintk
	.global	_char_out
	.section	.data._char_out,"aw"
	.align	2
	.set	.LANCHOR0,. + 0
	.type	_char_out, %object
	.size	_char_out, 4
_char_out:
	.word	arch_printk_char_out
	.text
.Letext0:
	.file 2 "/home/sebin/LIOT/gcc-arm-none-eabi-9-2019-q4-major/lib/gcc/arm-none-eabi/9.2.1/include/stddef.h"
	.file 3 "/home/sebin/LIOT/gcc-arm-none-eabi-9-2019-q4-major/arm-none-eabi/include/machine/_default_types.h"
	.file 4 "/home/sebin/LIOT/gcc-arm-none-eabi-9-2019-q4-major/arm-none-eabi/include/sys/_stdint.h"
	.file 5 "/home/sebin/LIOT/gcc-arm-none-eabi-9-2019-q4-major/lib/gcc/arm-none-eabi/9.2.1/include/stdarg.h"
	.file 6 "/home/sebin/thesis/zephyrproject/zephyr/include/sys/dlist.h"
	.file 7 "/home/sebin/thesis/zephyrproject/zephyr/include/sys/rb.h"
	.file 8 "/home/sebin/thesis/zephyrproject/zephyr/include/sys/slist.h"
	.file 9 "/home/sebin/thesis/zephyrproject/zephyr/include/sys/sys_heap.h"
	.file 10 "/home/sebin/thesis/zephyrproject/zephyr/include/kernel_structs.h"
	.file 11 "/home/sebin/thesis/zephyrproject/zephyr/include/kernel/thread.h"
	.file 12 "/home/sebin/thesis/zephyrproject/zephyr/include/kernel.h"
	.file 13 "/home/sebin/thesis/zephyrproject/zephyr/include/arch/arm/aarch32/thread.h"
	.file 14 "/home/sebin/thesis/zephyrproject/zephyr/include/arch/arm/aarch32/exc.h"
	.file 15 "/home/sebin/thesis/zephyrproject/zephyr/include/sw_isr_table.h"
	.file 16 "/home/sebin/thesis/zephyrproject/modules/hal/infineon/XMCLib/devices/XMC4500/Include/system_XMC4500.h"
	.file 17 "/home/sebin/thesis/zephyrproject/modules/hal/cmsis/CMSIS/Core/Include/core_cm4.h"
	.file 18 "/home/sebin/thesis/zephyrproject/zephyr/include/arch/arm/aarch32/mpu/arm_mpu_v7m.h"
	.file 19 "/home/sebin/thesis/zephyrproject/zephyr/include/arch/arm/aarch32/mpu/arm_mpu.h"
	.file 20 "/home/sebin/thesis/zephyrproject/zephyr/include/spinlock.h"
	.file 21 "/home/sebin/LIOT/gcc-arm-none-eabi-9-2019-q4-major/arm-none-eabi/include/sys/lock.h"
	.file 22 "/home/sebin/LIOT/gcc-arm-none-eabi-9-2019-q4-major/arm-none-eabi/include/sys/_types.h"
	.file 23 "/home/sebin/LIOT/gcc-arm-none-eabi-9-2019-q4-major/arm-none-eabi/include/sys/reent.h"
	.file 24 "/home/sebin/LIOT/gcc-arm-none-eabi-9-2019-q4-major/arm-none-eabi/include/sys/errno.h"
	.file 25 "/home/sebin/thesis/zephyrproject/zephyr/include/logging/log_instance.h"
	.file 26 "/home/sebin/thesis/zephyrproject/zephyr/include/logging/log_core.h"
	.file 27 "/home/sebin/thesis/zephyrproject/zephyr/include/sys/cbprintf.h"
	.file 28 "/home/sebin/thesis/zephyrproject/zephyr/include/logging/log.h"
	.file 29 "<built-in>"
	.file 30 "/home/sebin/thesis/zephyrproject/zephyr/include/arch/structs.h"