	.cpu cortex-m4
	.eabi_attribute 27, 1
	.eabi_attribute 28, 1
	.eabi_attribute 20, 1
	.eabi_attribute 21, 1
	.eabi_attribute 23, 3
	.eabi_attribute 24, 1
	.eabi_attribute 25, 1
	.eabi_attribute 26, 1
	.eabi_attribute 30, 1
	.eabi_attribute 34, 1
	.eabi_attribute 38, 1
	.eabi_attribute 18, 4
	.file	"timeutil.c"
	.text
.Ltext0:
	.cfi_sections	.debug_frame
	.global	__aeabi_ldivmod
	.section	.text.time_days_from_civil,"ax",%progbits
	.align	1
	.arch armv7e-m
	.syntax unified
	.thumb
	.thumb_func
	.fpu fpv4-sp-d16
	.type	time_days_from_civil, %function
time_days_from_civil:
.LVL0:
.LFB0:
	.file 1 "/home/sebin/thesis/zephyrproject/zephyr/lib/os/timeutil.c"
	.loc 1 33 1 view -0
	.cfi_startproc
	@ args = 0, pretend = 0, frame = 0
	@ frame_needed = 0, uses_anonymous_args = 0
	.loc 1 33 1 is_stmt 0 view .LVU1
	push	{r3, r4, r5, r6, r7, r8, r9, lr}
	.cfi_def_cfa_offset 32
	.cfi_offset 3, -32
	.cfi_offset 4, -28
	.cfi_offset 5, -24
	.cfi_offset 6, -20
	.cfi_offset 7, -16
	.cfi_offset 8, -12
	.cfi_offset 9, -8
	.cfi_offset 14, -4
	mov	r6, r2
	mov	r7, r3
	.loc 1 34 2 is_stmt 1 view .LVU2
.LVL1:
	.loc 1 34 9 is_stmt 0 view .LVU3
	cmp	r6, #2
	ite	hi
	movhi	r3, #0
	movls	r3, #1
	movs	r2, #0
.LVL2:
	.loc 1 34 4 view .LVU4
	subs	r8, r0, r3
	sbc	r9, r1, r2
.LVL3:
	.loc 1 36 2 is_stmt 1 view .LVU5
	.loc 1 36 39 is_stmt 0 view .LVU6
	cmp	r8, #0
	sbcs	r3, r9, #0
	blt	.L7
	.loc 1 36 39 discriminator 2 view .LVU7
	mov	r2, #400
	movs	r3, #0
	mov	r0, r8
	mov	r1, r9
	bl	__aeabi_ldivmod
.LVL4:
.L3:
	.loc 1 37 2 is_stmt 1 discriminator 4 view .LVU8
	.loc 1 37 15 is_stmt 0 discriminator 4 view .LVU9
	ldr	r3, .L8
	mla	r8, r3, r0, r8
.LVL5:
	.loc 1 38 2 is_stmt 1 discriminator 4 view .LVU10
	.loc 1 38 46 is_stmt 0 discriminator 4 view .LVU11
	cmp	r6, #2
	bls	.L5
	.loc 1 38 46 view .LVU12
	mvn	r2, #2
.L4:
	.loc 1 38 32 discriminator 4 view .LVU13
	add	r6, r6, r2
.LVL6:
	.loc 1 38 27 discriminator 4 view .LVU14
	add	r6, r6, r6, lsl #3
	add	r3, r6, r6, lsl #4
	.loc 1 38 52 discriminator 4 view .LVU15
	adds	r3, r3, #2
	.loc 1 38 58 discriminator 4 view .LVU16
	ldr	r6, .L8+4
	umull	r2, r3, r6, r3
	.loc 1 38 15 discriminator 4 view .LVU17
	add	r7, r7, r3, lsr #2
.LVL7:
	.loc 1 39 2 is_stmt 1 discriminator 4 view .LVU18
	.loc 1 39 38 is_stmt 0 discriminator 4 view .LVU19
	lsr	r3, r8, #2
	.loc 1 39 32 discriminator 4 view .LVU20
	movw	r2, #365
	mla	r2, r2, r8, r3
	.loc 1 39 49 discriminator 4 view .LVU21
	ldr	r3, .L8+8
	umull	r3, r8, r3, r8
.LVL8:
	.loc 1 39 43 discriminator 4 view .LVU22
	sub	r8, r2, r8, lsr #5
	.loc 1 39 15 discriminator 4 view .LVU23
	add	r7, r7, r8
.LVL9:
	.loc 1 41 2 is_stmt 1 discriminator 4 view .LVU24
	.loc 1 41 13 is_stmt 0 discriminator 4 view .LVU25
	lsls	r3, r1, #3
	lsls	r2, r0, #3
	orr	r6, r3, r0, lsr #29
	adds	r3, r2, r0
	adc	r2, r6, r1
	lsls	r6, r2, #4
	orr	r6, r6, r3, lsr #28
	lsl	ip, r3, #4
	mov	r2, r6
	adds	r3, ip, r0
	adc	r2, r1, r2
	lsls	r6, r2, #4
	orr	r6, r6, r3, lsr #28
	lsl	ip, r3, #4
	subs	r3, ip, r0
	sbc	r2, r6, r1
	lsls	r1, r2, #6
.LVL10:
	.loc 1 41 13 discriminator 4 view .LVU26
	orr	r1, r1, r3, lsr #26
	lsls	r0, r3, #6
	.loc 1 41 13 discriminator 4 view .LVU27
	subs	r4, r0, r3
	sbc	r5, r1, r2
	.loc 1 41 22 discriminator 4 view .LVU28
	adds	r4, r4, r7
	adc	r5, r5, #0
	.loc 1 41 36 discriminator 4 view .LVU29
	ldr	r0, .L8+12
	.loc 1 42 1 discriminator 4 view .LVU30
	adds	r0, r4, r0
	adc	r1, r5, #-1
	pop	{r3, r4, r5, r6, r7, r8, r9, pc}
.LVL11:
.L7:
	.loc 1 36 32 discriminator 1 view .LVU31
	mvn	r0, #398
	.loc 1 36 39 discriminator 1 view .LVU32
	mov	r2, #400
	movs	r3, #0
	adds	r0, r8, r0
	adc	r1, r9, #-1
	bl	__aeabi_ldivmod
.LVL12:
	b	.L3
.LVL13:
.L5:
	.loc 1 38 46 view .LVU33
	movs	r2, #9
	b	.L4
.L9:
	.align	2
.L8:
	.word	-400
	.word	-858993459
	.word	1374389535
	.word	-719468
	.cfi_endproc
.LFE0:
	.size	time_days_from_civil, .-time_days_from_civil
	.section	.text.timeutil_timegm64,"ax",%progbits
	.align	1
	.global	timeutil_timegm64
	.syntax unified
	.thumb
	.thumb_func
	.fpu fpv4-sp-d16
	.type	timeutil_timegm64, %function
timeutil_timegm64:
.LVL14:
.LFB1:
	.loc 1 45 1 is_stmt 1 view -0
	.cfi_startproc
	@ args = 0, pretend = 0, frame = 0
	@ frame_needed = 0, uses_anonymous_args = 0
	.loc 1 45 1 is_stmt 0 view .LVU35
	push	{r3, r4, r5, r6, r7, r8, r9, r10, fp, lr}
	.cfi_def_cfa_offset 40
	.cfi_offset 3, -40
	.cfi_offset 4, -36
	.cfi_offset 5, -32
	.cfi_offset 6, -28
	.cfi_offset 7, -24
	.cfi_offset 8, -20
	.cfi_offset 9, -16
	.cfi_offset 10, -12
	.cfi_offset 11, -8
	.cfi_offset 14, -4
	mov	r10, r0
	.loc 1 46 2 is_stmt 1 view .LVU36
.LVL15:
	.loc 1 47 2 view .LVU37
	.loc 1 47 21 is_stmt 0 view .LVU38
	ldr	r2, [r0, #16]
.LVL16:
	.loc 1 48 2 is_stmt 1 view .LVU39
	.loc 1 48 21 is_stmt 0 view .LVU40
	ldr	r3, [r0, #12]
.LVL17:
	.loc 1 49 2 is_stmt 1 view .LVU41
	.loc 1 49 18 is_stmt 0 view .LVU42
	subs	r3, r3, #1
.LVL18:
	.loc 1 49 18 view .LVU43
	adds	r2, r2, #1
.LVL19:
	.loc 1 49 18 view .LVU44
	movw	r0, #1900
.LVL20:
	.loc 1 49 18 view .LVU45
	movs	r1, #0
	mov	r9, r1
	ldr	r1, [r10, #20]
	adds	r8, r0, r1
	adc	r9, r9, r1, asr #31
	mov	r0, r8
	mov	r1, r9
	bl	time_days_from_civil
.LVL21:
	.loc 1 50 2 is_stmt 1 view .LVU46
	.loc 1 50 19 is_stmt 0 view .LVU47
	ldr	ip, [r10]
.LVL22:
	.loc 1 52 2 is_stmt 1 view .LVU48
	.loc 1 52 20 is_stmt 0 view .LVU49
	ldr	lr, [r10, #4]
	.loc 1 52 40 view .LVU50
	ldr	r9, [r10, #8]
	mov	r2, r9
	asrs	r3, r2, #31
	.loc 1 52 36 view .LVU51
	lsl	fp, r3, #4
	lsl	r8, r9, #4
	orr	r10, fp, r9, lsr #28
.LVL23:
	.loc 1 52 36 view .LVU52
	subs	r4, r8, r9
	sbc	r5, r10, r3
	lsls	r3, r5, #2
	orr	r3, r3, r4, lsr #30
	lsls	r2, r4, #2
	.loc 1 52 29 view .LVU53
	adds	r4, r2, lr
	adc	r5, r3, lr, asr #31
	.loc 1 52 15 view .LVU54
	lsl	lr, r5, #4
	lsls	r3, r4, #4
	orr	r2, lr, r4, lsr #28
	subs	r6, r3, r4
	sbc	r7, r2, r5
	lsls	r3, r7, #2
	orr	r3, r3, r6, lsr #30
	lsls	r2, r6, #2
	.loc 1 52 7 view .LVU55
	adds	r6, r2, ip
	adc	r7, r3, ip, asr #31
.LVL24:
	.loc 1 53 2 is_stmt 1 view .LVU56
	.loc 1 53 18 is_stmt 0 view .LVU57
	adds	r3, r0, r0
	adc	r2, r1, r1
	adds	r3, r3, r0
	adc	r1, r2, r1
.LVL25:
	.loc 1 53 18 view .LVU58
	lsls	r2, r1, #4
	orr	r2, r2, r3, lsr #28
	lsls	r0, r3, #4
	.loc 1 53 18 view .LVU59
	subs	r3, r0, r3
	sbc	r2, r2, r1
	lsls	r1, r2, #4
	orr	r1, r1, r3, lsr #28
	lsls	r0, r3, #4
	subs	r0, r0, r3
	sbc	r1, r1, r2
	lsls	r3, r1, #7
	orr	r3, r3, r0, lsr #25
	lsls	r2, r0, #7
	mov	r1, r3
.LVL26:
	.loc 1 55 2 is_stmt 1 view .LVU60
	.loc 1 56 1 is_stmt 0 view .LVU61
	adds	r0, r2, r6
	adc	r1, r7, r1
.LVL27:
	.loc 1 56 1 view .LVU62
	pop	{r3, r4, r5, r6, r7, r8, r9, r10, fp, pc}
	.loc 1 56 1 view .LVU63
	.cfi_endproc
.LFE1:
	.size	timeutil_timegm64, .-timeutil_timegm64
	.section	.text.timeutil_timegm,"ax",%progbits
	.align	1
	.global	timeutil_timegm
	.syntax unified
	.thumb
	.thumb_func
	.fpu fpv4-sp-d16
	.type	timeutil_timegm, %function
timeutil_timegm:
.LVL28:
.LFB2:
	.loc 1 59 1 is_stmt 1 view -0
	.cfi_startproc
	@ args = 0, pretend = 0, frame = 0
	@ frame_needed = 0, uses_anonymous_args = 0
	.loc 1 59 1 is_stmt 0 view .LVU65
	push	{r3, r4, r5, lr}
	.cfi_def_cfa_offset 16
	.cfi_offset 3, -16
	.cfi_offset 4, -12
	.cfi_offset 5, -8
	.cfi_offset 14, -4
	.loc 1 60 2 is_stmt 1 view .LVU66
	.loc 1 60 17 is_stmt 0 view .LVU67
	bl	timeutil_timegm64
.LVL29:
	.loc 1 60 17 view .LVU68
	mov	r5, r0
	mov	r4, r1
.LVL30:
	.loc 1 61 2 is_stmt 1 view .LVU69
	.loc 1 63 1 view .LVU70
	.loc 1 63 3 is_stmt 0 view .LVU71
	bl	__errno
.LVL31:
	.loc 1 63 7 view .LVU72
	movs	r3, #0
	str	r3, [r0]
	.loc 1 64 2 is_stmt 1 view .LVU73
	.loc 1 71 2 view .LVU74
	.loc 1 72 1 is_stmt 0 view .LVU75
	mov	r0, r5
	mov	r1, r4
	pop	{r3, r4, r5, pc}
	.loc 1 72 1 view .LVU76
	.cfi_endproc
.LFE2:
	.size	timeutil_timegm, .-timeutil_timegm
	.section	.text.timeutil_sync_state_update,"ax",%progbits
	.align	1
	.global	timeutil_sync_state_update
	.syntax unified
	.thumb
	.thumb_func
	.fpu fpv4-sp-d16
	.type	timeutil_sync_state_update, %function
timeutil_sync_state_update:
.LVL32:
.LFB3:
	.loc 1 76 1 is_stmt 1 view -0
	.cfi_startproc
	@ args = 0, pretend = 0, frame = 0
	@ frame_needed = 0, uses_anonymous_args = 0
	@ link register save eliminated.
	.loc 1 76 1 is_stmt 0 view .LVU78
	push	{r4, r5, r6, r7}
	.cfi_def_cfa_offset 16
	.cfi_offset 4, -16
	.cfi_offset 5, -12
	.cfi_offset 6, -8
	.cfi_offset 7, -4
	mov	r4, r0
	mov	r5, r1
	.loc 1 77 2 is_stmt 1 view .LVU79
.LVL33:
	.loc 1 79 2 view .LVU80
	.loc 1 79 17 is_stmt 0 view .LVU81
	ldrd	r6, [r0, #8]
	.loc 1 79 5 view .LVU82
	orrs	r3, r6, r7
	bne	.L15
	.loc 1 79 36 discriminator 1 view .LVU83
	ldrd	r2, [r1]
	.loc 1 79 28 discriminator 1 view .LVU84
	orrs	r3, r2, r3
	bne	.L16
.L15:
	.loc 1 80 15 view .LVU85
	ldrd	r2, [r5]
	.loc 1 80 6 view .LVU86
	cmp	r7, r3
	it	eq
	cmpeq	r6, r2
	bcs	.L19
	.loc 1 81 11 view .LVU87
	ldrd	r2, [r5, #8]
	.loc 1 81 30 view .LVU88
	ldrd	r0, [r4, #16]
.LVL34:
	.loc 1 81 3 view .LVU89
	cmp	r1, r3
	it	eq
	cmpeq	r0, r2
	bcs	.L20
.L16:
	.loc 1 82 3 is_stmt 1 view .LVU90
	.loc 1 82 6 is_stmt 0 view .LVU91
	orrs	r3, r6, r7
	bne	.L18
.LBB2:
	.loc 1 83 4 is_stmt 1 view .LVU92
	.loc 1 83 14 is_stmt 0 view .LVU93
	add	r6, r4, #8
	ldm	r5, {r0, r1, r2, r3}
.LVL35:
	.loc 1 83 14 view .LVU94
	stm	r6, {r0, r1, r2, r3}
	.loc 1 84 4 is_stmt 1 view .LVU95
	.loc 1 84 16 is_stmt 0 view .LVU96
	movs	r0, #0
	str	r0, [r4, #24]
	str	r0, [r4, #28]
	str	r0, [r4, #32]
	str	r0, [r4, #36]
	.loc 1 85 4 is_stmt 1 view .LVU97
	.loc 1 85 14 is_stmt 0 view .LVU98
	mov	r3, #1065353216
	str	r3, [r4, #40]	@ float
	.loc 1 86 4 is_stmt 1 view .LVU99
.LVL36:
.L14:
	.loc 1 86 4 is_stmt 0 view .LVU100
.LBE2:
	.loc 1 94 1 view .LVU101
	pop	{r4, r5, r6, r7}
	.cfi_remember_state
	.cfi_restore 7
	.cfi_restore 6
	.cfi_restore 5
	.cfi_restore 4
	.cfi_def_cfa_offset 0
.LVL37:
	.loc 1 94 1 view .LVU102
	bx	lr
.LVL38:
.L18:
	.cfi_restore_state
	.loc 1 88 4 is_stmt 1 view .LVU103
	.loc 1 88 16 is_stmt 0 view .LVU104
	adds	r4, r4, #24
.LVL39:
	.loc 1 88 16 view .LVU105
	ldm	r5, {r0, r1, r2, r3}
.LVL40:
	.loc 1 88 16 view .LVU106
	stm	r4, {r0, r1, r2, r3}
	.loc 1 89 4 is_stmt 1 view .LVU107
.LVL41:
	.loc 1 89 7 is_stmt 0 view .LVU108
	movs	r0, #1
	b	.L14
.LVL42:
.L19:
	.loc 1 77 6 view .LVU109
	mvn	r0, #21
.LVL43:
	.loc 1 77 6 view .LVU110
	b	.L14
.L20:
	.loc 1 77 6 view .LVU111
	mvn	r0, #21
	.loc 1 93 2 is_stmt 1 view .LVU112
	.loc 1 93 9 is_stmt 0 view .LVU113
	b	.L14
	.cfi_endproc
.LFE3:
	.size	timeutil_sync_state_update, .-timeutil_sync_state_update
	.section	.text.timeutil_sync_state_set_skew,"ax",%progbits
	.align	1
	.global	timeutil_sync_state_set_skew
	.syntax unified
	.thumb
	.thumb_func
	.fpu fpv4-sp-d16
	.type	timeutil_sync_state_set_skew, %function
timeutil_sync_state_set_skew:
.LVL44:
.LFB4:
	.loc 1 98 1 is_stmt 1 view -0
	.cfi_startproc
	@ args = 0, pretend = 0, frame = 0
	@ frame_needed = 0, uses_anonymous_args = 0
	@ link register save eliminated.
	.loc 1 99 2 view .LVU115
	.loc 1 101 2 view .LVU116
	.loc 1 101 5 is_stmt 0 view .LVU117
	vcmpe.f32	s0, #0
	vmrs	APSR_nzcv, FPSCR
	ble	.L28
	.loc 1 98 1 view .LVU118
	push	{r4, r5}
	.cfi_def_cfa_offset 8
	.cfi_offset 4, -8
	.cfi_offset 5, -4
	mov	r4, r0
	.loc 1 102 3 is_stmt 1 view .LVU119
	.loc 1 102 13 is_stmt 0 view .LVU120
	vstr.32	s0, [r0, #40]
	.loc 1 103 3 is_stmt 1 view .LVU121
	.loc 1 103 6 is_stmt 0 view .LVU122
	cbz	r1, .L26
.LBB3:
	.loc 1 104 4 is_stmt 1 view .LVU123
	.loc 1 104 14 is_stmt 0 view .LVU124
	add	r5, r0, #8
	ldm	r1, {r0, r1, r2, r3}
.LVL45:
	.loc 1 104 14 view .LVU125
	stm	r5, {r0, r1, r2, r3}
	.loc 1 105 4 is_stmt 1 view .LVU126
	.loc 1 105 16 is_stmt 0 view .LVU127
	movs	r0, #0
	str	r0, [r4, #24]
	str	r0, [r4, #28]
	str	r0, [r4, #32]
	str	r0, [r4, #36]
.LVL46:
.L22:
	.loc 1 105 16 view .LVU128
.LBE3:
	.loc 1 111 1 view .LVU129
	pop	{r4, r5}
	.cfi_restore 5
	.cfi_restore 4
	.cfi_def_cfa_offset 0
.LVL47:
	.loc 1 111 1 view .LVU130
	bx	lr
.LVL48:
.L28:
	.loc 1 99 6 view .LVU131
	mvn	r0, #21
.LVL49:
	.loc 1 111 1 view .LVU132
	bx	lr
.LVL50:
.L26:
	.cfi_def_cfa_offset 8
	.cfi_offset 4, -8
	.cfi_offset 5, -4
	.loc 1 107 6 view .LVU133
	movs	r0, #0
.LVL51:
	.loc 1 110 2 is_stmt 1 view .LVU134
	.loc 1 110 9 is_stmt 0 view .LVU135
	b	.L22
	.cfi_endproc
.LFE4:
	.size	timeutil_sync_state_set_skew, .-timeutil_sync_state_set_skew
	.global	__aeabi_ul2d
	.global	__aeabi_ui2d
	.global	__aeabi_dmul
	.global	__aeabi_ddiv
	.global	__aeabi_d2f
	.section	.text.timeutil_sync_estimate_skew,"ax",%progbits
	.align	1
	.global	timeutil_sync_estimate_skew
	.syntax unified
	.thumb
	.thumb_func
	.fpu fpv4-sp-d16
	.type	timeutil_sync_estimate_skew, %function
timeutil_sync_estimate_skew:
.LVL52:
.LFB5:
	.loc 1 114 1 is_stmt 1 view -0
	.cfi_startproc
	@ args = 0, pretend = 0, frame = 0
	@ frame_needed = 0, uses_anonymous_args = 0
	.loc 1 115 2 view .LVU137
	.loc 1 117 2 view .LVU138
	.loc 1 117 16 is_stmt 0 view .LVU139
	ldrd	r2, [r0, #8]
	.loc 1 117 5 view .LVU140
	orrs	r1, r2, r3
	beq	.L35
	.loc 1 114 1 discriminator 1 view .LVU141
	push	{r4, r5, r6, r7, r8, r9, r10, lr}
	.cfi_def_cfa_offset 32
	.cfi_offset 4, -32
	.cfi_offset 5, -28
	.cfi_offset 6, -24
	.cfi_offset 7, -20
	.cfi_offset 8, -16
	.cfi_offset 9, -12
	.cfi_offset 10, -8
	.cfi_offset 14, -4
	.loc 1 117 42 discriminator 1 view .LVU142
	ldrd	r8, [r0, #24]
	.loc 1 117 27 discriminator 1 view .LVU143
	orrs	r1, r8, r9
	beq	.L36
	.loc 1 118 21 view .LVU144
	ldrd	r6, [r0, #32]
	.loc 1 118 39 view .LVU145
	ldrd	r4, [r0, #16]
	.loc 1 118 6 view .LVU146
	cmp	r5, r7
	it	eq
	cmpeq	r4, r6
	bcs	.L37
.LBB4:
	.loc 1 119 3 is_stmt 1 view .LVU147
	.loc 1 119 38 is_stmt 0 view .LVU148
	ldr	r10, [r0]
.LVL53:
	.loc 1 120 3 is_stmt 1 view .LVU149
	.loc 1 120 10 is_stmt 0 view .LVU150
	subs	r0, r8, r2
.LVL54:
	.loc 1 120 10 view .LVU151
	sbc	r1, r9, r3
	bl	__aeabi_ul2d
.LVL55:
	mov	r8, r0
	mov	r9, r1
.LVL56:
	.loc 1 121 3 is_stmt 1 view .LVU152
	.loc 1 121 10 is_stmt 0 view .LVU153
	subs	r0, r6, r4
	sbc	r1, r7, r5
	bl	__aeabi_ul2d
.LVL57:
	mov	r4, r0
	mov	r5, r1
.LVL58:
	.loc 1 123 3 is_stmt 1 view .LVU154
	.loc 1 123 18 is_stmt 0 view .LVU155
	ldr	r0, [r10, #4]
	bl	__aeabi_ui2d
.LVL59:
	mov	r2, r8
	mov	r3, r9
	bl	__aeabi_dmul
.LVL60:
	.loc 1 123 34 view .LVU156
	mov	r2, r4
	mov	r3, r5
	bl	__aeabi_ddiv
.LVL61:
	mov	r4, r0
.LVL62:
	.loc 1 123 34 view .LVU157
	mov	r5, r1
	.loc 1 123 48 view .LVU158
	ldr	r0, [r10]
	bl	__aeabi_ui2d
.LVL63:
	mov	r2, r0
	mov	r3, r1
	mov	r0, r4
	mov	r1, r5
	bl	__aeabi_ddiv
.LVL64:
	.loc 1 123 6 view .LVU159
	bl	__aeabi_d2f
.LVL65:
	vmov	s0, r0
.LVL66:
	.loc 1 123 6 view .LVU160
	b	.L33
.LVL67:
.L35:
	.cfi_def_cfa_offset 0
	.cfi_restore 4
	.cfi_restore 5
	.cfi_restore 6
	.cfi_restore 7
	.cfi_restore 8
	.cfi_restore 9
	.cfi_restore 10
	.cfi_restore 14
	.loc 1 123 6 view .LVU161
.LBE4:
	.loc 1 115 8 view .LVU162
	vldr.32	s0, .L42
	.loc 1 127 1 view .LVU163
	bx	lr
.L36:
	.cfi_def_cfa_offset 32
	.cfi_offset 4, -32
	.cfi_offset 5, -28
	.cfi_offset 6, -24
	.cfi_offset 7, -20
	.cfi_offset 8, -16
	.cfi_offset 9, -12
	.cfi_offset 10, -8
	.cfi_offset 14, -4
	.loc 1 115 8 view .LVU164
	vldr.32	s0, .L42
.LVL68:
.L33:
	.loc 1 127 1 view .LVU165
	pop	{r4, r5, r6, r7, r8, r9, r10, pc}
.LVL69:
.L37:
	.loc 1 115 8 view .LVU166
	vldr.32	s0, .L42
	.loc 1 126 2 is_stmt 1 view .LVU167
	.loc 1 126 9 is_stmt 0 view .LVU168
	b	.L33
.L43:
	.align	2
.L42:
	.word	0
	.cfi_endproc
.LFE5:
	.size	timeutil_sync_estimate_skew, .-timeutil_sync_estimate_skew
	.global	__aeabi_f2d
	.global	__aeabi_l2d
	.global	__aeabi_d2lz
	.section	.text.timeutil_sync_ref_from_local,"ax",%progbits
	.align	1
	.global	timeutil_sync_ref_from_local
	.syntax unified
	.thumb
	.thumb_func
	.fpu fpv4-sp-d16
	.type	timeutil_sync_ref_from_local, %function
timeutil_sync_ref_from_local:
.LVL70:
.LFB6:
	.loc 1 131 1 is_stmt 1 view -0
	.cfi_startproc
	@ args = 4, pretend = 0, frame = 8
	@ frame_needed = 0, uses_anonymous_args = 0
	.loc 1 132 2 view .LVU170
	.loc 1 134 2 view .LVU171
	.loc 1 134 10 is_stmt 0 view .LVU172
	vldr.32	s15, [r0, #40]
	.loc 1 134 5 view .LVU173
	vcmpe.f32	s15, #0
	vmrs	APSR_nzcv, FPSCR
	ble	.L53
	.loc 1 131 1 discriminator 1 view .LVU174
	push	{r4, r5, r6, r7, r8, r9, r10, fp, lr}
	.cfi_def_cfa_offset 36
	.cfi_offset 4, -36
	.cfi_offset 5, -32
	.cfi_offset 6, -28
	.cfi_offset 7, -24
	.cfi_offset 8, -20
	.cfi_offset 9, -16
	.cfi_offset 10, -12
	.cfi_offset 11, -8
	.cfi_offset 14, -4
	sub	sp, sp, #12
	.cfi_def_cfa_offset 48
	mov	r4, r0
	.loc 1 134 35 discriminator 1 view .LVU175
	ldrd	r6, [r0, #8]
	.loc 1 134 22 discriminator 1 view .LVU176
	orrs	r1, r6, r7
	beq	.L49
	.loc 1 134 45 discriminator 2 view .LVU177
	ldr	r1, [sp, #48]
	cmp	r1, #0
	beq	.L50
.LBB5:
	.loc 1 135 3 is_stmt 1 view .LVU178
	.loc 1 135 38 is_stmt 0 view .LVU179
	ldr	fp, [r0]
.LVL71:
	.loc 1 136 3 is_stmt 1 view .LVU180
	.loc 1 136 42 is_stmt 0 view .LVU181
	ldr	r5, [r0, #16]
	ldr	r1, [r0, #20]
	.loc 1 136 31 view .LVU182
	subs	r5, r2, r5
	sbc	r10, r3, r1
	.loc 1 136 11 view .LVU183
	mov	r0, r5
.LVL72:
	.loc 1 136 11 view .LVU184
	mov	r3, r10
.LVL73:
	.loc 1 140 3 is_stmt 1 view .LVU185
	.loc 1 140 6 is_stmt 0 view .LVU186
	vmov.f32	s14, #1.0e+0
	vcmp.f32	s15, s14
	vmrs	APSR_nzcv, FPSCR
	beq	.L47
	.loc 1 141 4 is_stmt 1 view .LVU187
	.loc 1 141 19 is_stmt 0 view .LVU188
	vmov	r0, s15
.LVL74:
	.loc 1 141 19 view .LVU189
	bl	__aeabi_f2d
.LVL75:
	.loc 1 141 19 view .LVU190
	strd	r0, [sp]
	.loc 1 141 16 view .LVU191
	mov	r0, r5
	mov	r1, r10
	bl	__aeabi_l2d
.LVL76:
	ldrd	r2, [sp]
	bl	__aeabi_dmul
.LVL77:
	bl	__aeabi_d2lz
.LVL78:
	mov	r3, r1
.LVL79:
.L47:
	.loc 1 143 3 is_stmt 1 view .LVU192
	.loc 1 143 40 is_stmt 0 view .LVU193
	ldr	r2, [fp]
	.loc 1 143 35 view .LVU194
	umull	r0, r1, r2, r0
.LVL80:
	.loc 1 143 35 view .LVU195
	mla	r1, r2, r3, r1
	.loc 1 143 11 view .LVU196
	ldr	r2, [fp, #4]
	movs	r3, #0
	bl	__aeabi_ldivmod
.LVL81:
	.loc 1 144 3 is_stmt 1 view .LVU197
	.loc 1 144 11 is_stmt 0 view .LVU198
	adds	r8, r6, r0
	adc	r9, r7, r1
.LVL82:
	.loc 1 146 3 is_stmt 1 view .LVU199
	.loc 1 146 6 is_stmt 0 view .LVU200
	cmp	r8, #0
	sbcs	r3, r9, #0
	blt	.L51
	.loc 1 149 4 is_stmt 1 view .LVU201
	.loc 1 149 10 is_stmt 0 view .LVU202
	ldr	r3, [sp, #48]
	strd	r8, [r3]
	.loc 1 150 4 is_stmt 1 view .LVU203
	.loc 1 150 18 is_stmt 0 view .LVU204
	vldr.32	s14, [r4, #40]
	.loc 1 150 9 view .LVU205
	vmov.f32	s15, #1.0e+0
	vcmp.f32	s14, s15
	vmrs	APSR_nzcv, FPSCR
	ite	ne
	movne	r0, #1
.LVL83:
	.loc 1 150 9 view .LVU206
	moveq	r0, #0
.LVL84:
.L44:
	.loc 1 150 9 view .LVU207
.LBE5:
	.loc 1 155 1 view .LVU208
	add	sp, sp, #12
	.cfi_def_cfa_offset 36
	@ sp needed
	pop	{r4, r5, r6, r7, r8, r9, r10, fp, pc}
.LVL85:
.L53:
	.cfi_def_cfa_offset 0
	.cfi_restore 4
	.cfi_restore 5
	.cfi_restore 6
	.cfi_restore 7
	.cfi_restore 8
	.cfi_restore 9
	.cfi_restore 10
	.cfi_restore 11
	.cfi_restore 14
	.loc 1 132 6 view .LVU209
	mvn	r0, #21
.LVL86:
	.loc 1 155 1 view .LVU210
	bx	lr
.LVL87:
.L49:
	.cfi_def_cfa_offset 48
	.cfi_offset 4, -36
	.cfi_offset 5, -32
	.cfi_offset 6, -28
	.cfi_offset 7, -24
	.cfi_offset 8, -20
	.cfi_offset 9, -16
	.cfi_offset 10, -12
	.cfi_offset 11, -8
	.cfi_offset 14, -4
	.loc 1 132 6 view .LVU211
	mvn	r0, #21
.LVL88:
	.loc 1 132 6 view .LVU212
	b	.L44
.LVL89:
.L50:
	.loc 1 132 6 view .LVU213
	mvn	r0, #21
.LVL90:
	.loc 1 132 6 view .LVU214
	b	.L44
.LVL91:
.L51:
.LBB6:
	.loc 1 147 7 view .LVU215
	mvn	r0, #33
.LVL92:
	.loc 1 147 7 view .LVU216
.LBE6:
	.loc 1 154 2 is_stmt 1 view .LVU217
	.loc 1 154 9 is_stmt 0 view .LVU218
	b	.L44
	.cfi_endproc
.LFE6:
	.size	timeutil_sync_ref_from_local, .-timeutil_sync_ref_from_local
	.section	.text.timeutil_sync_local_from_ref,"ax",%progbits
	.align	1
	.global	timeutil_sync_local_from_ref
	.syntax unified
	.thumb
	.thumb_func
	.fpu fpv4-sp-d16
	.type	timeutil_sync_local_from_ref, %function
timeutil_sync_local_from_ref:
.LVL93:
.LFB7:
	.loc 1 159 1 is_stmt 1 view -0
	.cfi_startproc
	@ args = 4, pretend = 0, frame = 0
	@ frame_needed = 0, uses_anonymous_args = 0
	.loc 1 159 1 is_stmt 0 view .LVU220
	push	{r3, r4, r5, r6, r7, r8, r9, lr}
	.cfi_def_cfa_offset 32
	.cfi_offset 3, -32
	.cfi_offset 4, -28
	.cfi_offset 5, -24
	.cfi_offset 6, -20
	.cfi_offset 7, -16
	.cfi_offset 8, -12
	.cfi_offset 9, -8
	.cfi_offset 14, -4
	vpush.64	{d8}
	.cfi_def_cfa_offset 40
	.cfi_offset 80, -40
	.cfi_offset 81, -36
	ldr	r6, [sp, #40]
	.loc 1 160 2 is_stmt 1 view .LVU221
.LVL94:
	.loc 1 162 2 view .LVU222
	.loc 1 162 10 is_stmt 0 view .LVU223
	vldr.32	s16, [r0, #40]
	.loc 1 162 5 view .LVU224
	vcmpe.f32	s16, #0
	vmrs	APSR_nzcv, FPSCR
	ble	.L66
	mov	r4, r0
	.loc 1 162 35 discriminator 1 view .LVU225
	ldrd	r0, [r0, #8]
.LVL95:
	.loc 1 162 22 discriminator 1 view .LVU226
	orrs	r5, r0, r1
	beq	.L63
	.loc 1 162 45 discriminator 2 view .LVU227
	cmp	r6, #0
	beq	.L64
.LBB7:
	.loc 1 163 3 is_stmt 1 view .LVU228
	.loc 1 163 38 is_stmt 0 view .LVU229
	ldr	r5, [r4]
.LVL96:
	.loc 1 164 3 is_stmt 1 view .LVU230
	.loc 1 164 37 is_stmt 0 view .LVU231
	subs	r2, r2, r0
.LVL97:
	.loc 1 164 37 view .LVU232
	sbc	r3, r3, r1
.LVL98:
	.loc 1 168 3 is_stmt 1 view .LVU233
	.loc 1 168 41 is_stmt 0 view .LVU234
	ldr	r7, [r5, #4]
	.loc 1 168 36 view .LVU235
	umull	r0, r1, r7, r2
	mla	r1, r7, r3, r1
	.loc 1 168 11 view .LVU236
	ldr	r2, [r5]
.LVL99:
	.loc 1 168 11 view .LVU237
	movs	r3, #0
	bl	__aeabi_ldivmod
.LVL100:
	mov	r5, r0
.LVL101:
	.loc 1 168 11 view .LVU238
	mov	r7, r1
.LVL102:
	.loc 1 170 3 is_stmt 1 view .LVU239
	.loc 1 170 6 is_stmt 0 view .LVU240
	vmov.f32	s15, #1.0e+0
	vcmp.f32	s16, s15
	vmrs	APSR_nzcv, FPSCR
	beq	.L61
	.loc 1 171 4 is_stmt 1 view .LVU241
	.loc 1 171 19 is_stmt 0 view .LVU242
	vmov	r0, s16
.LVL103:
	.loc 1 171 19 view .LVU243
	bl	__aeabi_f2d
.LVL104:
	.loc 1 171 19 view .LVU244
	mov	r8, r0
	mov	r9, r1
	.loc 1 171 16 view .LVU245
	mov	r0, r5
	mov	r1, r7
	bl	__aeabi_l2d
.LVL105:
	mov	r2, r8
	mov	r3, r9
	bl	__aeabi_ddiv
.LVL106:
	bl	__aeabi_d2lz
.LVL107:
	mov	r5, r0
.LVL108:
	.loc 1 171 16 view .LVU246
	mov	r7, r1
.LVL109:
.L61:
	.loc 1 173 3 is_stmt 1 view .LVU247
	.loc 1 173 41 is_stmt 0 view .LVU248
	ldr	r0, [r4, #16]
	ldr	r1, [r4, #20]
	.loc 1 173 11 view .LVU249
	adds	r0, r0, r5
	adc	r1, r7, r1
.LVL110:
	.loc 1 176 3 is_stmt 1 view .LVU250
	.loc 1 176 11 is_stmt 0 view .LVU251
	str	r0, [r6]
	str	r1, [r6, #4]
	.loc 1 177 3 is_stmt 1 view .LVU252
	.loc 1 177 17 is_stmt 0 view .LVU253
	vldr.32	s14, [r4, #40]
	.loc 1 177 8 view .LVU254
	vmov.f32	s15, #1.0e+0
	vcmp.f32	s14, s15
	vmrs	APSR_nzcv, FPSCR
	ite	ne
	movne	r0, #1
.LVL111:
	.loc 1 177 8 view .LVU255
	moveq	r0, #0
.LVL112:
.L58:
	.loc 1 177 8 view .LVU256
.LBE7:
	.loc 1 181 1 view .LVU257
	vldm	sp!, {d8}
	.cfi_remember_state
	.cfi_restore 80
	.cfi_restore 81
	.cfi_def_cfa_offset 32
	pop	{r3, r4, r5, r6, r7, r8, r9, pc}
.LVL113:
.L66:
	.cfi_restore_state
	.loc 1 160 6 view .LVU258
	mvn	r0, #21
.LVL114:
	.loc 1 160 6 view .LVU259
	b	.L58
.LVL115:
.L63:
	.loc 1 160 6 view .LVU260
	mvn	r0, #21
	b	.L58
.L64:
	mvn	r0, #21
	.loc 1 180 2 is_stmt 1 view .LVU261
	.loc 1 180 9 is_stmt 0 view .LVU262
	b	.L58
	.cfi_endproc
.LFE7:
	.size	timeutil_sync_local_from_ref, .-timeutil_sync_local_from_ref
	.global	__aeabi_dsub
	.section	.text.timeutil_sync_skew_to_ppb,"ax",%progbits
	.align	1
	.global	timeutil_sync_skew_to_ppb
	.syntax unified
	.thumb
	.thumb_func
	.fpu fpv4-sp-d16
	.type	timeutil_sync_skew_to_ppb, %function
timeutil_sync_skew_to_ppb:
.LVL116:
.LFB8:
	.loc 1 184 1 is_stmt 1 view -0
	.cfi_startproc
	@ args = 0, pretend = 0, frame = 0
	@ frame_needed = 0, uses_anonymous_args = 0
	.loc 1 184 1 is_stmt 0 view .LVU264
	push	{r3, r4, r5, lr}
	.cfi_def_cfa_offset 16
	.cfi_offset 3, -16
	.cfi_offset 4, -12
	.cfi_offset 5, -8
	.cfi_offset 14, -4
	vmov	r0, s0
	.loc 1 185 2 is_stmt 1 view .LVU265
	.loc 1 185 35 is_stmt 0 view .LVU266
	bl	__aeabi_f2d
.LVL117:
	.loc 1 185 35 view .LVU267
	mov	r2, r0
	mov	r3, r1
	.loc 1 185 33 view .LVU268
	movs	r0, #0
	ldr	r1, .L73+8
	bl	__aeabi_dsub
.LVL118:
	.loc 1 185 49 view .LVU269
	adr	r3, .L73
	ldrd	r2, [r3]
	bl	__aeabi_dmul
.LVL119:
	.loc 1 185 10 view .LVU270
	bl	__aeabi_d2lz
.LVL120:
	.loc 1 186 2 is_stmt 1 view .LVU271
	.loc 1 188 2 view .LVU272
	.loc 1 188 16 is_stmt 0 view .LVU273
	asrs	r5, r0, #31
	.loc 1 188 34 view .LVU274
	cmp	r5, r1
	it	eq
	cmpeq	r0, r0
	bne	.L72
.L68:
	.loc 1 189 1 view .LVU275
	pop	{r3, r4, r5, pc}
.L72:
	.loc 1 188 34 view .LVU276
	mov	r0, #-2147483648
	b	.L68
.L74:
	.align	3
.L73:
	.word	0
	.word	1104006501
	.word	1072693248
	.cfi_endproc
.LFE8:
	.size	timeutil_sync_skew_to_ppb, .-timeutil_sync_skew_to_ppb
	.text
.Letext0:
	.file 2 "/home/sebin/LIOT/gcc-arm-none-eabi-9-2019-q4-major/arm-none-eabi/include/machine/_default_types.h"
	.file 3 "/home/sebin/LIOT/gcc-arm-none-eabi-9-2019-q4-major/arm-none-eabi/include/sys/_stdint.h"
	.file 4 "/home/sebin/LIOT/gcc-arm-none-eabi-9-2019-q4-major/arm-none-eabi/include/sys/lock.h"
	.file 5 "/home/sebin/LIOT/gcc-arm-none-eabi-9-2019-q4-major/arm-none-eabi/include/sys/_types.h"
	.file 6 "/home/sebin/LIOT/gcc-arm-none-eabi-9-2019-q4-major/lib/gcc/arm-none-eabi/9.2.1/include/stddef.h"
	.file 7 "/home/sebin/LIOT/gcc-arm-none-eabi-9-2019-q4-major/arm-none-eabi/include/sys/reent.h"
	.file 8 "/home/sebin/LIOT/gcc-arm-none-eabi-9-2019-q4-major/arm-none-eabi/include/sys/errno.h"
	.file 9 "/home/sebin/LIOT/gcc-arm-none-eabi-9-2019-q4-major/arm-none-eabi/include/sys/types.h"
	.file 10 "/home/sebin/LIOT/gcc-arm-none-eabi-9-2019-q4-major/arm-none-eabi/include/time.h"
	.file 11 "/home/sebin/thesis/zephyrproject/zephyr/include/sys/timeutil.h"