	.cpu cortex-m4
	.eabi_attribute 27, 1
	.eabi_attribute 28, 1
	.eabi_attribute 20, 1
	.eabi_attribute 21, 1
	.eabi_attribute 23, 3
	.eabi_attribute 24, 1
	.eabi_attribute 25, 1
	.eabi_attribute 26, 1
	.eabi_attribute 30, 1
	.eabi_attribute 34, 1
	.eabi_attribute 38, 1
	.eabi_attribute 18, 4
	.file	"libc-hooks.c"
	.text
.Ltext0:
	.cfi_sections	.debug_frame
	.section	.text.malloc_prepare,"ax",%progbits
	.align	1
	.arch armv7e-m
	.syntax unified
	.thumb
	.thumb_func
	.fpu fpv4-sp-d16
	.type	malloc_prepare, %function
malloc_prepare:
.LVL0:
.LFB514:
	.file 1 "/home/sebin/thesis/zephyrproject/zephyr/lib/libc/newlib/libc-hooks.c"
	.loc 1 102 1 view -0
	.cfi_startproc
	@ args = 0, pretend = 0, frame = 0
	@ frame_needed = 0, uses_anonymous_args = 0
	@ link register save eliminated.
	.loc 1 103 2 view .LVU1
	.loc 1 129 4 view .LVU2
	.loc 1 132 48 view .LVU3
	.loc 1 134 2 view .LVU4
	.loc 1 135 1 is_stmt 0 view .LVU5
	movs	r0, #0
.LVL1:
	.loc 1 135 1 view .LVU6
	bx	lr
	.cfi_endproc
.LFE514:
	.size	malloc_prepare, .-malloc_prepare
	.section	.text._stdout_hook_default,"ax",%progbits
	.align	1
	.syntax unified
	.thumb
	.thumb_func
	.fpu fpv4-sp-d16
	.type	_stdout_hook_default, %function
_stdout_hook_default:
.LVL2:
.LFB515:
	.loc 1 143 1 is_stmt 1 view -0
	.cfi_startproc
	@ args = 0, pretend = 0, frame = 0
	@ frame_needed = 0, uses_anonymous_args = 0
	@ link register save eliminated.
	.loc 1 144 2 view .LVU8
	.loc 1 146 2 view .LVU9
	.loc 1 147 1 is_stmt 0 view .LVU10
	mov	r0, #-1
.LVL3:
	.loc 1 147 1 view .LVU11
	bx	lr
	.cfi_endproc
.LFE515:
	.size	_stdout_hook_default, .-_stdout_hook_default
	.section	.text._stdin_hook_default,"ax",%progbits
	.align	1
	.syntax unified
	.thumb
	.thumb_func
	.fpu fpv4-sp-d16
	.type	_stdin_hook_default, %function
_stdin_hook_default:
.LFB517:
	.loc 1 157 1 is_stmt 1 view -0
	.cfi_startproc
	@ args = 0, pretend = 0, frame = 0
	@ frame_needed = 0, uses_anonymous_args = 0
	@ link register save eliminated.
	.loc 1 158 2 view .LVU13
	.loc 1 159 1 is_stmt 0 view .LVU14
	movs	r0, #0
	bx	lr
	.cfi_endproc
.LFE517:
	.size	_stdin_hook_default, .-_stdin_hook_default
	.section	.text.__stdout_hook_install,"ax",%progbits
	.align	1
	.global	__stdout_hook_install
	.syntax unified
	.thumb
	.thumb_func
	.fpu fpv4-sp-d16
	.type	__stdout_hook_install, %function
__stdout_hook_install:
.LVL4:
.LFB516:
	.loc 1 152 1 is_stmt 1 view -0
	.cfi_startproc
	@ args = 0, pretend = 0, frame = 0
	@ frame_needed = 0, uses_anonymous_args = 0
	@ link register save eliminated.
	.loc 1 153 2 view .LVU16
	.loc 1 153 15 is_stmt 0 view .LVU17
	ldr	r3, .L5
	str	r0, [r3]
	.loc 1 154 1 view .LVU18
	bx	lr
.L6:
	.align	2
.L5:
	.word	.LANCHOR0
	.cfi_endproc
.LFE516:
	.size	__stdout_hook_install, .-__stdout_hook_install
	.section	.text.__stdin_hook_install,"ax",%progbits
	.align	1
	.global	__stdin_hook_install
	.syntax unified
	.thumb
	.thumb_func
	.fpu fpv4-sp-d16
	.type	__stdin_hook_install, %function
__stdin_hook_install:
.LVL5:
.LFB518:
	.loc 1 164 1 is_stmt 1 view -0
	.cfi_startproc
	@ args = 0, pretend = 0, frame = 0
	@ frame_needed = 0, uses_anonymous_args = 0
	@ link register save eliminated.
	.loc 1 165 2 view .LVU20
	.loc 1 165 14 is_stmt 0 view .LVU21
	ldr	r3, .L8
	str	r0, [r3]
	.loc 1 166 1 view .LVU22
	bx	lr
.L9:
	.align	2
.L8:
	.word	.LANCHOR1
	.cfi_endproc
.LFE518:
	.size	__stdin_hook_install, .-__stdin_hook_install
	.section	.text.z_impl_zephyr_read_stdin,"ax",%progbits
	.align	1
	.global	z_impl_zephyr_read_stdin
	.syntax unified
	.thumb
	.thumb_func
	.fpu fpv4-sp-d16
	.type	z_impl_zephyr_read_stdin, %function
z_impl_zephyr_read_stdin:
.LVL6:
.LFB519:
	.loc 1 169 1 is_stmt 1 view -0
	.cfi_startproc
	@ args = 0, pretend = 0, frame = 0
	@ frame_needed = 0, uses_anonymous_args = 0
	.loc 1 169 1 is_stmt 0 view .LVU24
	push	{r4, r5, r6, lr}
	.cfi_def_cfa_offset 16
	.cfi_offset 4, -16
	.cfi_offset 5, -12
	.cfi_offset 6, -8
	.cfi_offset 14, -4
	mov	r6, r0
	mov	r5, r1
	.loc 1 170 2 is_stmt 1 view .LVU25
.LVL7:
	.loc 1 172 2 view .LVU26
	.loc 1 172 9 is_stmt 0 view .LVU27
	movs	r4, #0
	.loc 1 172 2 view .LVU28
	b	.L11
.LVL8:
.L13:
	.loc 1 172 26 is_stmt 1 discriminator 2 view .LVU29
	.loc 1 172 27 is_stmt 0 discriminator 2 view .LVU30
	adds	r4, r4, #1
.LVL9:
.L11:
	.loc 1 172 14 is_stmt 1 discriminator 1 view .LVU31
	.loc 1 172 2 is_stmt 0 discriminator 1 view .LVU32
	cmp	r4, r5
	bge	.L10
	.loc 1 173 3 is_stmt 1 view .LVU33
	.loc 1 173 16 is_stmt 0 view .LVU34
	ldr	r3, .L17
	ldr	r3, [r3]
	blx	r3
.LVL10:
	.loc 1 173 14 view .LVU35
	strb	r0, [r6, r4]
	.loc 1 174 3 is_stmt 1 view .LVU36
	.loc 1 174 6 is_stmt 0 view .LVU37
	cmp	r0, #10
	beq	.L12
	.loc 1 174 28 discriminator 1 view .LVU38
	cmp	r0, #13
	bne	.L13
.L12:
	.loc 1 175 4 is_stmt 1 view .LVU39
	.loc 1 175 5 is_stmt 0 view .LVU40
	adds	r4, r4, #1
.LVL11:
	.loc 1 176 4 is_stmt 1 view .LVU41
.L10:
	.loc 1 180 1 is_stmt 0 view .LVU42
	mov	r0, r4
	pop	{r4, r5, r6, pc}
.LVL12:
.L18:
	.loc 1 180 1 view .LVU43
	.align	2
.L17:
	.word	.LANCHOR1
	.cfi_endproc
.LFE519:
	.size	z_impl_zephyr_read_stdin, .-z_impl_zephyr_read_stdin
	.section	.text.z_impl_zephyr_write_stdout,"ax",%progbits
	.align	1
	.global	z_impl_zephyr_write_stdout
	.syntax unified
	.thumb
	.thumb_func
	.fpu fpv4-sp-d16
	.type	z_impl_zephyr_write_stdout, %function
z_impl_zephyr_write_stdout:
.LVL13:
.LFB520:
	.loc 1 192 1 is_stmt 1 view -0
	.cfi_startproc
	@ args = 0, pretend = 0, frame = 0
	@ frame_needed = 0, uses_anonymous_args = 0
	.loc 1 192 1 is_stmt 0 view .LVU45
	push	{r3, r4, r5, r6, r7, lr}
	.cfi_def_cfa_offset 24
	.cfi_offset 3, -24
	.cfi_offset 4, -20
	.cfi_offset 5, -16
	.cfi_offset 6, -12
	.cfi_offset 7, -8
	.cfi_offset 14, -4
	mov	r5, r0
	mov	r7, r1
	.loc 1 193 2 is_stmt 1 view .LVU46
.LVL14:
	.loc 1 194 2 view .LVU47
	.loc 1 196 2 view .LVU48
	.loc 1 196 9 is_stmt 0 view .LVU49
	movs	r4, #0
	.loc 1 196 2 view .LVU50
	b	.L20
.LVL15:
.L21:
	.loc 1 200 3 is_stmt 1 discriminator 2 view .LVU51
	ldr	r3, .L25
	ldr	r3, [r3]
	ldrb	r0, [r6]	@ zero_extendqisi2
	blx	r3
.LVL16:
	.loc 1 196 26 discriminator 2 view .LVU52
	.loc 1 196 27 is_stmt 0 discriminator 2 view .LVU53
	adds	r4, r4, #1
.LVL17:
.L20:
	.loc 1 196 14 is_stmt 1 discriminator 1 view .LVU54
	.loc 1 196 2 is_stmt 0 discriminator 1 view .LVU55
	cmp	r4, r7
	bge	.L24
	.loc 1 197 3 is_stmt 1 view .LVU56
	.loc 1 197 13 is_stmt 0 view .LVU57
	adds	r6, r5, r4
	.loc 1 197 7 view .LVU58
	ldrb	r3, [r5, r4]	@ zero_extendqisi2
	.loc 1 197 6 view .LVU59
	cmp	r3, #10
	bne	.L21
	.loc 1 198 4 is_stmt 1 view .LVU60
	ldr	r3, .L25
	ldr	r3, [r3]
	movs	r0, #13
	blx	r3
.LVL18:
	b	.L21
.L24:
	.loc 1 202 2 view .LVU61
	.loc 1 203 1 is_stmt 0 view .LVU62
	mov	r0, r7
	pop	{r3, r4, r5, r6, r7, pc}
.LVL19:
.L26:
	.loc 1 203 1 view .LVU63
	.align	2
.L25:
	.word	.LANCHOR0
	.cfi_endproc
.LFE520:
	.size	z_impl_zephyr_write_stdout, .-z_impl_zephyr_write_stdout
	.section	.text._read,"ax",%progbits
	.align	1
	.global	_read
	.syntax unified
	.thumb
	.thumb_func
	.fpu fpv4-sp-d16
	.type	_read, %function
_read:
.LVL20:
.LFB521:
	.loc 1 216 1 is_stmt 1 view -0
	.cfi_startproc
	@ args = 0, pretend = 0, frame = 0
	@ frame_needed = 0, uses_anonymous_args = 0
	.loc 1 216 1 is_stmt 0 view .LVU65
	push	{r3, lr}
	.cfi_def_cfa_offset 8
	.cfi_offset 3, -8
	.cfi_offset 14, -4
	mov	r0, r1
.LVL21:
	.loc 1 216 1 view .LVU66
	mov	r1, r2
.LVL22:
	.loc 1 217 2 is_stmt 1 view .LVU67
	.loc 1 219 2 view .LVU68
.LBB24:
.LBI24:
	.file 2 "/home/sebin/thesis/dmz/zephyr_xmc_template/build/zephyr/include/generated/syscalls/libc-hooks.h"
	.loc 2 35 19 view .LVU69
.LBB25:
	.loc 2 43 2 view .LVU70
	.loc 2 43 7 view .LVU71
	.loc 2 43 55 view .LVU72
	.loc 2 44 2 view .LVU73
	.loc 2 44 9 is_stmt 0 view .LVU74
	bl	z_impl_zephyr_read_stdin
.LVL23:
	.loc 2 44 9 view .LVU75
.LBE25:
.LBE24:
	.loc 1 220 1 view .LVU76
	pop	{r3, pc}
	.cfi_endproc
.LFE521:
	.size	_read, .-_read
	.weak	read
	.thumb_set read,_read
	.section	.text._write,"ax",%progbits
	.align	1
	.global	_write
	.syntax unified
	.thumb
	.thumb_func
	.fpu fpv4-sp-d16
	.type	_write, %function
_write:
.LVL24:
.LFB522:
	.loc 1 224 1 is_stmt 1 view -0
	.cfi_startproc
	@ args = 0, pretend = 0, frame = 0
	@ frame_needed = 0, uses_anonymous_args = 0
	.loc 1 224 1 is_stmt 0 view .LVU78
	push	{r3, lr}
	.cfi_def_cfa_offset 8
	.cfi_offset 3, -8
	.cfi_offset 14, -4
	mov	r0, r1
.LVL25:
	.loc 1 224 1 view .LVU79
	mov	r1, r2
.LVL26:
	.loc 1 225 2 is_stmt 1 view .LVU80
	.loc 1 227 2 view .LVU81
.LBB26:
.LBI26:
	.loc 2 58 19 view .LVU82
.LBB27:
	.loc 2 66 2 view .LVU83
	.loc 2 66 7 view .LVU84
	.loc 2 66 55 view .LVU85
	.loc 2 67 2 view .LVU86
	.loc 2 67 9 is_stmt 0 view .LVU87
	bl	z_impl_zephyr_write_stdout
.LVL27:
	.loc 2 67 9 view .LVU88
.LBE27:
.LBE26:
	.loc 1 228 1 view .LVU89
	pop	{r3, pc}
	.cfi_endproc
.LFE522:
	.size	_write, .-_write
	.weak	write
	.thumb_set write,_write
	.section	.text._open,"ax",%progbits
	.align	1
	.global	_open
	.syntax unified
	.thumb
	.thumb_func
	.fpu fpv4-sp-d16
	.type	_open, %function
_open:
.LVL28:
.LFB523:
	.loc 1 232 1 is_stmt 1 view -0
	.cfi_startproc
	@ args = 0, pretend = 0, frame = 0
	@ frame_needed = 0, uses_anonymous_args = 0
	@ link register save eliminated.
	.loc 1 233 2 view .LVU91
	.loc 1 234 1 is_stmt 0 view .LVU92
	mov	r0, #-1
.LVL29:
	.loc 1 234 1 view .LVU93
	bx	lr
	.cfi_endproc
.LFE523:
	.size	_open, .-_open
	.weak	open
	.thumb_set open,_open
	.section	.text._close,"ax",%progbits
	.align	1
	.global	_close
	.syntax unified
	.thumb
	.thumb_func
	.fpu fpv4-sp-d16
	.type	_close, %function
_close:
.LVL30:
.LFB524:
	.loc 1 238 1 is_stmt 1 view -0
	.cfi_startproc
	@ args = 0, pretend = 0, frame = 0
	@ frame_needed = 0, uses_anonymous_args = 0
	@ link register save eliminated.
	.loc 1 239 2 view .LVU95
	.loc 1 240 1 is_stmt 0 view .LVU96
	mov	r0, #-1
.LVL31:
	.loc 1 240 1 view .LVU97
	bx	lr
	.cfi_endproc
.LFE524:
	.size	_close, .-_close
	.weak	close
	.thumb_set close,_close
	.section	.text._lseek,"ax",%progbits
	.align	1
	.global	_lseek
	.syntax unified
	.thumb
	.thumb_func
	.fpu fpv4-sp-d16
	.type	_lseek, %function
_lseek:
.LVL32:
.LFB525:
	.loc 1 244 1 is_stmt 1 view -0
	.cfi_startproc
	@ args = 0, pretend = 0, frame = 0
	@ frame_needed = 0, uses_anonymous_args = 0
	@ link register save eliminated.
	.loc 1 245 2 view .LVU99
	.loc 1 246 1 is_stmt 0 view .LVU100
	movs	r0, #0
.LVL33:
	.loc 1 246 1 view .LVU101
	bx	lr
	.cfi_endproc
.LFE525:
	.size	_lseek, .-_lseek
	.weak	lseek
	.thumb_set lseek,_lseek
	.section	.text._isatty,"ax",%progbits
	.align	1
	.global	_isatty
	.syntax unified
	.thumb
	.thumb_func
	.fpu fpv4-sp-d16
	.type	_isatty, %function
_isatty:
.LVL34:
.LFB526:
	.loc 1 254 1 is_stmt 1 view -0
	.cfi_startproc
	@ args = 0, pretend = 0, frame = 0
	@ frame_needed = 0, uses_anonymous_args = 0
	@ link register save eliminated.
	.loc 1 255 2 view .LVU103
	.loc 1 256 1 is_stmt 0 view .LVU104
	cmp	r0, #2
	ite	gt
	movgt	r0, #0
.LVL35:
	.loc 1 256 1 view .LVU105
	movle	r0, #1
	bx	lr
	.cfi_endproc
.LFE526:
	.size	_isatty, .-_isatty
	.weak	isatty
	.thumb_set isatty,_isatty
	.section	.text._kill,"ax",%progbits
	.align	1
	.global	_kill
	.syntax unified
	.thumb
	.thumb_func
	.fpu fpv4-sp-d16
	.type	_kill, %function
_kill:
.LVL36:
.LFB527:
	.loc 1 260 1 is_stmt 1 view -0
	.cfi_startproc
	@ args = 0, pretend = 0, frame = 0
	@ frame_needed = 0, uses_anonymous_args = 0
	@ link register save eliminated.
	.loc 1 261 2 view .LVU107
	.loc 1 262 1 is_stmt 0 view .LVU108
	movs	r0, #0
.LVL37:
	.loc 1 262 1 view .LVU109
	bx	lr
	.cfi_endproc
.LFE527:
	.size	_kill, .-_kill
	.weak	kill
	.thumb_set kill,_kill
	.section	.text._getpid,"ax",%progbits
	.align	1
	.global	_getpid
	.syntax unified
	.thumb
	.thumb_func
	.fpu fpv4-sp-d16
	.type	_getpid, %function
_getpid:
.LFB528:
	.loc 1 266 1 is_stmt 1 view -0
	.cfi_startproc
	@ args = 0, pretend = 0, frame = 0
	@ frame_needed = 0, uses_anonymous_args = 0
	@ link register save eliminated.
	.loc 1 267 2 view .LVU111
	.loc 1 268 1 is_stmt 0 view .LVU112
	movs	r0, #0
	bx	lr
	.cfi_endproc
.LFE528:
	.size	_getpid, .-_getpid
	.weak	getpid
	.thumb_set getpid,_getpid
	.section	.text._fstat,"ax",%progbits
	.align	1
	.global	_fstat
	.syntax unified
	.thumb
	.thumb_func
	.fpu fpv4-sp-d16
	.type	_fstat, %function
_fstat:
.LVL38:
.LFB529:
	.loc 1 272 1 is_stmt 1 view -0
	.cfi_startproc
	@ args = 0, pretend = 0, frame = 0
	@ frame_needed = 0, uses_anonymous_args = 0
	@ link register save eliminated.
	.loc 1 273 2 view .LVU114
	.loc 1 273 14 is_stmt 0 view .LVU115
	mov	r3, #8192
	str	r3, [r1, #4]
	.loc 1 274 2 is_stmt 1 view .LVU116
	.loc 1 275 1 is_stmt 0 view .LVU117
	movs	r0, #0
.LVL39:
	.loc 1 275 1 view .LVU118
	bx	lr
	.cfi_endproc
.LFE529:
	.size	_fstat, .-_fstat
	.weak	fstat
	.thumb_set fstat,_fstat
	.section	.rodata._exit.str1.4,"aMS",%progbits,1
	.align	2
.LC0:
	.ascii	"exit\012\000"
	.section	.text._exit,"ax",%progbits
	.align	1
	.weak	_exit
	.syntax unified
	.thumb
	.thumb_func
	.fpu fpv4-sp-d16
	.type	_exit, %function
_exit:
.LVL40:
.LFB530:
	.loc 1 279 1 is_stmt 1 view -0
	.cfi_startproc
	@ args = 0, pretend = 0, frame = 0
	@ frame_needed = 0, uses_anonymous_args = 0
	.loc 1 279 1 is_stmt 0 view .LVU120
	push	{r3, lr}
	.cfi_def_cfa_offset 8
	.cfi_offset 3, -8
	.cfi_offset 14, -4
	.loc 1 280 2 is_stmt 1 view .LVU121
	movs	r2, #5
	ldr	r1, .L41
	movs	r0, #1
.LVL41:
	.loc 1 280 2 is_stmt 0 view .LVU122
	bl	_write
.LVL42:
.L39:
	.loc 1 281 2 is_stmt 1 discriminator 1 view .LVU123
	.loc 1 282 3 discriminator 1 view .LVU124
	.loc 1 281 8 discriminator 1 view .LVU125
	b	.L39
.L42:
	.align	2
.L41:
	.word	.LC0
	.cfi_endproc
.LFE530:
	.size	_exit, .-_exit
	.section	.text._sbrk,"ax",%progbits
	.align	1
	.global	_sbrk
	.syntax unified
	.thumb
	.thumb_func
	.fpu fpv4-sp-d16
	.type	_sbrk, %function
_sbrk:
.LVL43:
.LFB531:
	.loc 1 287 1 view -0
	.cfi_startproc
	@ args = 0, pretend = 0, frame = 0
	@ frame_needed = 0, uses_anonymous_args = 0
	@ link register save eliminated.
	.loc 1 287 1 is_stmt 0 view .LVU127
	mov	r2, r0
	.loc 1 288 2 is_stmt 1 view .LVU128
	.loc 1 290 2 view .LVU129
	.loc 1 290 40 is_stmt 0 view .LVU130
	ldr	r3, .L46
	ldr	r1, [r3]
	.loc 1 290 6 view .LVU131
	ldr	r3, .L46+4
	adds	r0, r1, r3
.LVL44:
	.loc 1 292 2 is_stmt 1 view .LVU132
	.loc 1 292 15 is_stmt 0 view .LVU133
	add	r2, r2, r1
.LVL45:
	.loc 1 292 48 view .LVU134
	rsb	r3, r3, #536870912
	add	r3, r3, #65536
	.loc 1 292 5 view .LVU135
	cmp	r2, r3
	bcs	.L45
	.loc 1 293 3 is_stmt 1 view .LVU136
	.loc 1 293 11 is_stmt 0 view .LVU137
	ldr	r3, .L46
	str	r2, [r3]
	.loc 1 294 3 is_stmt 1 view .LVU138
.LVL46:
	.loc 1 294 3 is_stmt 0 view .LVU139
	bx	lr
.LVL47:
.L45:
	.loc 1 300 7 view .LVU140
	mov	r0, #-1
.LVL48:
	.loc 1 303 2 is_stmt 1 view .LVU141
	.loc 1 304 1 is_stmt 0 view .LVU142
	bx	lr
.L47:
	.align	2
.L46:
	.word	.LANCHOR2
	.word	_end
	.cfi_endproc
.LFE531:
	.size	_sbrk, .-_sbrk
	.weak	sbrk
	.thumb_set sbrk,_sbrk
	.section	.text.__retarget_lock_init,"ax",%progbits
	.align	1
	.global	__retarget_lock_init
	.syntax unified
	.thumb
	.thumb_func
	.fpu fpv4-sp-d16
	.type	__retarget_lock_init, %function
__retarget_lock_init:
.LVL49:
.LFB532:
	.loc 1 358 1 is_stmt 1 view -0
	.cfi_startproc
	@ args = 0, pretend = 0, frame = 0
	@ frame_needed = 0, uses_anonymous_args = 0
	.loc 1 358 1 is_stmt 0 view .LVU144
	push	{r4, lr}
	.cfi_def_cfa_offset 8
	.cfi_offset 4, -8
	.cfi_offset 14, -4
	mov	r4, r0
	.loc 1 359 4 is_stmt 1 view .LVU145
	.loc 1 359 5 view .LVU146
	.loc 1 363 2 view .LVU147
	.loc 1 363 10 is_stmt 0 view .LVU148
	movs	r0, #24
.LVL50:
	.loc 1 363 10 view .LVU149
	bl	malloc
.LVL51:
	.loc 1 363 8 view .LVU150
	str	r0, [r4]
	.loc 1 367 4 is_stmt 1 view .LVU151
	.loc 1 367 5 view .LVU152
	.loc 1 369 2 view .LVU153
.LVL52:
.LBB28:
.LBI28:
	.file 3 "/home/sebin/thesis/dmz/zephyr_xmc_template/build/zephyr/include/generated/syscalls/kernel.h"
	.loc 3 999 19 view .LVU154
.LBB29:
	.loc 3 1007 2 view .LVU155
	.loc 3 1007 7 view .LVU156
	.loc 3 1007 55 view .LVU157
	.loc 3 1008 2 view .LVU158
	.loc 3 1008 9 is_stmt 0 view .LVU159
	movs	r2, #1
	mov	r1, r2
	bl	z_impl_k_sem_init
.LVL53:
	.loc 3 1008 9 view .LVU160
.LBE29:
.LBE28:
	.loc 1 370 1 view .LVU161
	pop	{r4, pc}
	.loc 1 370 1 view .LVU162
	.cfi_endproc
.LFE532:
	.size	__retarget_lock_init, .-__retarget_lock_init
	.section	.text.__retarget_lock_init_recursive,"ax",%progbits
	.align	1
	.global	__retarget_lock_init_recursive
	.syntax unified
	.thumb
	.thumb_func
	.fpu fpv4-sp-d16
	.type	__retarget_lock_init_recursive, %function
__retarget_lock_init_recursive:
.LVL54:
.LFB533:
	.loc 1 374 1 is_stmt 1 view -0
	.cfi_startproc
	@ args = 0, pretend = 0, frame = 0
	@ frame_needed = 0, uses_anonymous_args = 0
	.loc 1 374 1 is_stmt 0 view .LVU164
	push	{r4, lr}
	.cfi_def_cfa_offset 8
	.cfi_offset 4, -8
	.cfi_offset 14, -4
	mov	r4, r0
	.loc 1 375 4 is_stmt 1 view .LVU165
	.loc 1 375 5 view .LVU166
	.loc 1 379 2 view .LVU167
	.loc 1 379 10 is_stmt 0 view .LVU168
	movs	r0, #20
.LVL55:
	.loc 1 379 10 view .LVU169
	bl	malloc
.LVL56:
	.loc 1 379 8 view .LVU170
	str	r0, [r4]
	.loc 1 383 4 is_stmt 1 view .LVU171
	.loc 1 383 5 view .LVU172
	.loc 1 385 2 view .LVU173
.LVL57:
.LBB30:
.LBI30:
	.loc 3 883 19 view .LVU174
.LBB31:
	.loc 3 891 2 view .LVU175
	.loc 3 891 7 view .LVU176
	.loc 3 891 55 view .LVU177
	.loc 3 892 2 view .LVU178
	.loc 3 892 9 is_stmt 0 view .LVU179
	bl	z_impl_k_mutex_init
.LVL58:
	.loc 3 892 9 view .LVU180
.LBE31:
.LBE30:
	.loc 1 386 1 view .LVU181
	pop	{r4, pc}
	.loc 1 386 1 view .LVU182
	.cfi_endproc
.LFE533:
	.size	__retarget_lock_init_recursive, .-__retarget_lock_init_recursive
	.section	.text.__retarget_lock_close,"ax",%progbits
	.align	1
	.global	__retarget_lock_close
	.syntax unified
	.thumb
	.thumb_func
	.fpu fpv4-sp-d16
	.type	__retarget_lock_close, %function
__retarget_lock_close:
.LVL59:
.LFB534:
	.loc 1 390 1 is_stmt 1 view -0
	.cfi_startproc
	@ args = 0, pretend = 0, frame = 0
	@ frame_needed = 0, uses_anonymous_args = 0
	.loc 1 390 1 is_stmt 0 view .LVU184
	push	{r3, lr}
	.cfi_def_cfa_offset 8
	.cfi_offset 3, -8
	.cfi_offset 14, -4
	.loc 1 391 4 is_stmt 1 view .LVU185
	.loc 1 391 5 view .LVU186
	.loc 1 393 2 view .LVU187
	bl	free
.LVL60:
	.loc 1 397 1 is_stmt 0 view .LVU188
	pop	{r3, pc}
	.cfi_endproc
.LFE534:
	.size	__retarget_lock_close, .-__retarget_lock_close
	.section	.text.__retarget_lock_close_recursive,"ax",%progbits
	.align	1
	.global	__retarget_lock_close_recursive
	.syntax unified
	.thumb
	.thumb_func
	.fpu fpv4-sp-d16
	.type	__retarget_lock_close_recursive, %function
__retarget_lock_close_recursive:
.LVL61:
.LFB535:
	.loc 1 401 1 is_stmt 1 view -0
	.cfi_startproc
	@ args = 0, pretend = 0, frame = 0
	@ frame_needed = 0, uses_anonymous_args = 0
	.loc 1 401 1 is_stmt 0 view .LVU190
	push	{r3, lr}
	.cfi_def_cfa_offset 8
	.cfi_offset 3, -8
	.cfi_offset 14, -4
	.loc 1 402 4 is_stmt 1 view .LVU191
	.loc 1 402 5 view .LVU192
	.loc 1 404 2 view .LVU193
	bl	free
.LVL62:
	.loc 1 408 1 is_stmt 0 view .LVU194
	pop	{r3, pc}
	.cfi_endproc
.LFE535:
	.size	__retarget_lock_close_recursive, .-__retarget_lock_close_recursive
	.section	.text.__retarget_lock_acquire,"ax",%progbits
	.align	1
	.global	__retarget_lock_acquire
	.syntax unified
	.thumb
	.thumb_func
	.fpu fpv4-sp-d16
	.type	__retarget_lock_acquire, %function
__retarget_lock_acquire:
.LVL63:
.LFB536:
	.loc 1 412 1 is_stmt 1 view -0
	.cfi_startproc
	@ args = 0, pretend = 0, frame = 0
	@ frame_needed = 0, uses_anonymous_args = 0
	.loc 1 412 1 is_stmt 0 view .LVU196
	push	{r3, lr}
	.cfi_def_cfa_offset 8
	.cfi_offset 3, -8
	.cfi_offset 14, -4
	.loc 1 413 4 is_stmt 1 view .LVU197
	.loc 1 413 5 view .LVU198
	.loc 1 414 2 view .LVU199
.LVL64:
.LBB32:
.LBI32:
	.loc 3 1015 19 view .LVU200
.LBB33:
	.loc 3 1025 2 view .LVU201
	.loc 3 1025 7 view .LVU202
	.loc 3 1025 55 view .LVU203
	.loc 3 1026 2 view .LVU204
	.loc 3 1026 9 is_stmt 0 view .LVU205
	mov	r2, #-1
	mov	r3, #-1
	bl	z_impl_k_sem_take
.LVL65:
	.loc 3 1026 9 view .LVU206
.LBE33:
.LBE32:
	.loc 1 415 1 view .LVU207
	pop	{r3, pc}
	.cfi_endproc
.LFE536:
	.size	__retarget_lock_acquire, .-__retarget_lock_acquire
	.section	.text.__retarget_lock_acquire_recursive,"ax",%progbits
	.align	1
	.global	__retarget_lock_acquire_recursive
	.syntax unified
	.thumb
	.thumb_func
	.fpu fpv4-sp-d16
	.type	__retarget_lock_acquire_recursive, %function
__retarget_lock_acquire_recursive:
.LVL66:
.LFB537:
	.loc 1 419 1 is_stmt 1 view -0
	.cfi_startproc
	@ args = 0, pretend = 0, frame = 0
	@ frame_needed = 0, uses_anonymous_args = 0
	.loc 1 419 1 is_stmt 0 view .LVU209
	push	{r3, lr}
	.cfi_def_cfa_offset 8
	.cfi_offset 3, -8
	.cfi_offset 14, -4
	.loc 1 420 4 is_stmt 1 view .LVU210
	.loc 1 420 5 view .LVU211
	.loc 1 421 2 view .LVU212
.LVL67:
.LBB34:
.LBI34:
	.loc 3 899 19 view .LVU213
.LBB35:
	.loc 3 909 2 view .LVU214
	.loc 3 909 7 view .LVU215
	.loc 3 909 55 view .LVU216
	.loc 3 910 2 view .LVU217
	.loc 3 910 9 is_stmt 0 view .LVU218
	mov	r2, #-1
	mov	r3, #-1
	bl	z_impl_k_mutex_lock
.LVL68:
	.loc 3 910 9 view .LVU219
.LBE35:
.LBE34:
	.loc 1 422 1 view .LVU220
	pop	{r3, pc}
	.cfi_endproc
.LFE537:
	.size	__retarget_lock_acquire_recursive, .-__retarget_lock_acquire_recursive
	.section	.text.__retarget_lock_try_acquire,"ax",%progbits
	.align	1
	.global	__retarget_lock_try_acquire
	.syntax unified
	.thumb
	.thumb_func
	.fpu fpv4-sp-d16
	.type	__retarget_lock_try_acquire, %function
__retarget_lock_try_acquire:
.LVL69:
.LFB538:
	.loc 1 426 1 is_stmt 1 view -0
	.cfi_startproc
	@ args = 0, pretend = 0, frame = 0
	@ frame_needed = 0, uses_anonymous_args = 0
	.loc 1 426 1 is_stmt 0 view .LVU222
	push	{r3, lr}
	.cfi_def_cfa_offset 8
	.cfi_offset 3, -8
	.cfi_offset 14, -4
	.loc 1 427 4 is_stmt 1 view .LVU223
	.loc 1 427 5 view .LVU224
	.loc 1 428 2 view .LVU225
.LVL70:
.LBB36:
.LBI36:
	.loc 3 1015 19 view .LVU226
.LBB37:
	.loc 3 1025 2 view .LVU227
	.loc 3 1025 7 view .LVU228
	.loc 3 1025 55 view .LVU229
	.loc 3 1026 2 view .LVU230
	.loc 3 1026 9 is_stmt 0 view .LVU231
	movs	r2, #0
	movs	r3, #0
	bl	z_impl_k_sem_take
.LVL71:
	.loc 3 1026 9 view .LVU232
.LBE37:
.LBE36:
	.loc 1 429 1 view .LVU233
	clz	r0, r0
	lsrs	r0, r0, #5
	pop	{r3, pc}
	.cfi_endproc
.LFE538:
	.size	__retarget_lock_try_acquire, .-__retarget_lock_try_acquire
	.section	.text.__retarget_lock_try_acquire_recursive,"ax",%progbits
	.align	1
	.global	__retarget_lock_try_acquire_recursive
	.syntax unified
	.thumb
	.thumb_func
	.fpu fpv4-sp-d16
	.type	__retarget_lock_try_acquire_recursive, %function
__retarget_lock_try_acquire_recursive:
.LVL72:
.LFB539:
	.loc 1 433 1 is_stmt 1 view -0
	.cfi_startproc
	@ args = 0, pretend = 0, frame = 0
	@ frame_needed = 0, uses_anonymous_args = 0
	.loc 1 433 1 is_stmt 0 view .LVU235
	push	{r3, lr}
	.cfi_def_cfa_offset 8
	.cfi_offset 3, -8
	.cfi_offset 14, -4
	.loc 1 434 4 is_stmt 1 view .LVU236
	.loc 1 434 5 view .LVU237
	.loc 1 435 2 view .LVU238
.LVL73:
.LBB38:
.LBI38:
	.loc 3 899 19 view .LVU239
.LBB39:
	.loc 3 909 2 view .LVU240
	.loc 3 909 7 view .LVU241
	.loc 3 909 55 view .LVU242
	.loc 3 910 2 view .LVU243
	.loc 3 910 9 is_stmt 0 view .LVU244
	movs	r2, #0
	movs	r3, #0
	bl	z_impl_k_mutex_lock
.LVL74:
	.loc 3 910 9 view .LVU245
.LBE39:
.LBE38:
	.loc 1 436 1 view .LVU246
	clz	r0, r0
	lsrs	r0, r0, #5
	pop	{r3, pc}
	.cfi_endproc
.LFE539:
	.size	__retarget_lock_try_acquire_recursive, .-__retarget_lock_try_acquire_recursive
	.section	.text.__retarget_lock_release,"ax",%progbits
	.align	1
	.global	__retarget_lock_release
	.syntax unified
	.thumb
	.thumb_func
	.fpu fpv4-sp-d16
	.type	__retarget_lock_release, %function
__retarget_lock_release:
.LVL75:
.LFB540:
	.loc 1 440 1 is_stmt 1 view -0
	.cfi_startproc
	@ args = 0, pretend = 0, frame = 0
	@ frame_needed = 0, uses_anonymous_args = 0
	.loc 1 440 1 is_stmt 0 view .LVU248
	push	{r3, lr}
	.cfi_def_cfa_offset 8
	.cfi_offset 3, -8
	.cfi_offset 14, -4
	.loc 1 441 4 is_stmt 1 view .LVU249
	.loc 1 441 5 view .LVU250
	.loc 1 442 2 view .LVU251
.LVL76:
.LBB40:
.LBI40:
	.loc 3 1033 20 view .LVU252
.LBB41:
	.loc 3 1042 2 view .LVU253
	.loc 3 1042 7 view .LVU254
	.loc 3 1042 55 view .LVU255
	.loc 3 1043 2 view .LVU256
	bl	z_impl_k_sem_give
.LVL77:
	.loc 3 1043 2 is_stmt 0 view .LVU257
.LBE41:
.LBE40:
	.loc 1 443 1 view .LVU258
	pop	{r3, pc}
	.cfi_endproc
.LFE540:
	.size	__retarget_lock_release, .-__retarget_lock_release
	.section	.text.__retarget_lock_release_recursive,"ax",%progbits
	.align	1
	.global	__retarget_lock_release_recursive
	.syntax unified
	.thumb
	.thumb_func
	.fpu fpv4-sp-d16
	.type	__retarget_lock_release_recursive, %function
__retarget_lock_release_recursive:
.LVL78:
.LFB541:
	.loc 1 447 1 is_stmt 1 view -0
	.cfi_startproc
	@ args = 0, pretend = 0, frame = 0
	@ frame_needed = 0, uses_anonymous_args = 0
	.loc 1 447 1 is_stmt 0 view .LVU260
	push	{r3, lr}
	.cfi_def_cfa_offset 8
	.cfi_offset 3, -8
	.cfi_offset 14, -4
	.loc 1 448 4 is_stmt 1 view .LVU261
	.loc 1 448 5 view .LVU262
	.loc 1 449 2 view .LVU263
.LVL79:
.LBB42:
.LBI42:
	.loc 3 917 19 view .LVU264
.LBB43:
	.loc 3 925 2 view .LVU265
	.loc 3 925 7 view .LVU266
	.loc 3 925 55 view .LVU267
	.loc 3 926 2 view .LVU268
	.loc 3 926 9 is_stmt 0 view .LVU269
	bl	z_impl_k_mutex_unlock
.LVL80:
	.loc 3 926 9 view .LVU270
.LBE43:
.LBE42:
	.loc 1 450 1 view .LVU271
	pop	{r3, pc}
	.cfi_endproc
.LFE541:
	.size	__retarget_lock_release_recursive, .-__retarget_lock_release_recursive
	.section	.text.__errno,"ax",%progbits
	.align	1
	.weak	__errno
	.syntax unified
	.thumb
	.thumb_func
	.fpu fpv4-sp-d16
	.type	__errno, %function
__errno:
.LFB542:
	.loc 1 454 1 is_stmt 1 view -0
	.cfi_startproc
	@ args = 0, pretend = 0, frame = 0
	@ frame_needed = 0, uses_anonymous_args = 0
	push	{r3, lr}
	.cfi_def_cfa_offset 8
	.cfi_offset 3, -8
	.cfi_offset 14, -4
	.loc 1 455 2 view .LVU273
.LBB44:
.LBI44:
	.file 4 "/home/sebin/thesis/dmz/zephyr_xmc_template/build/zephyr/include/generated/syscalls/errno_private.h"
	.loc 4 35 21 view .LVU274
.LBB45:
	.loc 4 43 2 view .LVU275
	.loc 4 43 7 view .LVU276
	.loc 4 43 55 view .LVU277
	.loc 4 44 2 view .LVU278
	.loc 4 44 9 is_stmt 0 view .LVU279
	bl	z_impl_z_errno
.LVL81:
.LBE45:
.LBE44:
	.loc 1 456 1 view .LVU280
	pop	{r3, pc}
	.cfi_endproc
.LFE542:
	.size	__errno, .-__errno
	.section	.text.__chk_fail,"ax",%progbits
	.align	1
	.weak	__chk_fail
	.syntax unified
	.thumb
	.thumb_func
	.fpu fpv4-sp-d16
	.type	__chk_fail, %function
__chk_fail:
.LFB543:
	.loc 1 463 1 is_stmt 1 view -0
	.cfi_startproc
	@ Volatile: function does not return.
	@ args = 0, pretend = 0, frame = 0
	@ frame_needed = 0, uses_anonymous_args = 0
	push	{r3, lr}
	.cfi_def_cfa_offset 8
	.cfi_offset 3, -8
	.cfi_offset 14, -4
	.loc 1 464 2 view .LVU282
	.loc 1 465 2 view .LVU283
	movs	r2, #29
	ldr	r1, .L72
	movs	r0, #2
	bl	_write
.LVL82:
	.loc 1 466 2 view .LVU284
	.loc 1 466 7 view .LVU285
	.syntax unified
@ 466 "/home/sebin/thesis/zephyrproject/zephyr/lib/libc/newlib/libc-hooks.c" 1
	eors.n r0, r0
	msr BASEPRI, r0
	mov r0, #3
	svc #2
	
@ 0 "" 2
	.loc 1 466 180 view .LVU286
	.loc 1 467 2 view .LVU287
	.thumb
	.syntax unified
.L73:
	.align	2
.L72:
	.word	.LANCHOR3
	.cfi_endproc
.LFE543:
	.size	__chk_fail, .-__chk_fail
	.section	.text._gettimeofday,"ax",%progbits
	.align	1
	.global	_gettimeofday
	.syntax unified
	.thumb
	.thumb_func
	.fpu fpv4-sp-d16
	.type	_gettimeofday, %function
_gettimeofday:
.LVL83:
.LFB544:
	.loc 1 559 1 view -0
	.cfi_startproc
	@ args = 0, pretend = 0, frame = 0
	@ frame_needed = 0, uses_anonymous_args = 0
	@ link register save eliminated.
	.loc 1 566 2 view .LVU289
	.loc 1 568 1 is_stmt 0 view .LVU290
	mov	r0, #-1
.LVL84:
	.loc 1 568 1 view .LVU291
	bx	lr
	.cfi_endproc
.LFE544:
	.size	_gettimeofday, .-_gettimeofday
	.global	__lock___arc4random_mutex
	.global	__lock___dd_hash_mutex
	.global	__lock___tz_mutex
	.global	__lock___at_quick_exit_mutex
	.global	__lock___env_recursive_mutex
	.global	__lock___malloc_recursive_mutex
	.global	__lock___atexit_recursive_mutex
	.global	__lock___sfp_recursive_mutex
	.global	__lock___sinit_recursive_mutex
	.section	._k_mutex.static.__lock___atexit_recursive_mutex,"aw"
	.align	2
	.type	__lock___atexit_recursive_mutex, %object
	.size	__lock___atexit_recursive_mutex, 20
__lock___atexit_recursive_mutex:
	.word	__lock___atexit_recursive_mutex
	.word	__lock___atexit_recursive_mutex
	.word	0
	.word	0
	.word	14
	.section	._k_mutex.static.__lock___env_recursive_mutex,"aw"
	.align	2
	.type	__lock___env_recursive_mutex, %object
	.size	__lock___env_recursive_mutex, 20
__lock___env_recursive_mutex:
	.word	__lock___env_recursive_mutex
	.word	__lock___env_recursive_mutex
	.word	0
	.word	0
	.word	14
	.section	._k_mutex.static.__lock___malloc_recursive_mutex,"aw"
	.align	2
	.type	__lock___malloc_recursive_mutex, %object
	.size	__lock___malloc_recursive_mutex, 20
__lock___malloc_recursive_mutex:
	.word	__lock___malloc_recursive_mutex
	.word	__lock___malloc_recursive_mutex
	.word	0
	.word	0
	.word	14
	.section	._k_mutex.static.__lock___sfp_recursive_mutex,"aw"
	.align	2
	.type	__lock___sfp_recursive_mutex, %object
	.size	__lock___sfp_recursive_mutex, 20
__lock___sfp_recursive_mutex:
	.word	__lock___sfp_recursive_mutex
	.word	__lock___sfp_recursive_mutex
	.word	0
	.word	0
	.word	14
	.section	._k_mutex.static.__lock___sinit_recursive_mutex,"aw"
	.align	2
	.type	__lock___sinit_recursive_mutex, %object
	.size	__lock___sinit_recursive_mutex, 20
__lock___sinit_recursive_mutex:
	.word	__lock___sinit_recursive_mutex
	.word	__lock___sinit_recursive_mutex
	.word	0
	.word	0
	.word	14
	.section	._k_sem.static.__lock___arc4random_mutex,"aw"
	.align	2
	.type	__lock___arc4random_mutex, %object
	.size	__lock___arc4random_mutex, 24
__lock___arc4random_mutex:
	.word	__lock___arc4random_mutex
	.word	__lock___arc4random_mutex
	.word	1
	.word	1
	.word	__lock___arc4random_mutex+16
	.word	__lock___arc4random_mutex+16
	.section	._k_sem.static.__lock___at_quick_exit_mutex,"aw"
	.align	2
	.type	__lock___at_quick_exit_mutex, %object
	.size	__lock___at_quick_exit_mutex, 24
__lock___at_quick_exit_mutex:
	.word	__lock___at_quick_exit_mutex
	.word	__lock___at_quick_exit_mutex
	.word	1
	.word	1
	.word	__lock___at_quick_exit_mutex+16
	.word	__lock___at_quick_exit_mutex+16
	.section	._k_sem.static.__lock___dd_hash_mutex,"aw"
	.align	2
	.type	__lock___dd_hash_mutex, %object
	.size	__lock___dd_hash_mutex, 24
__lock___dd_hash_mutex:
	.word	__lock___dd_hash_mutex
	.word	__lock___dd_hash_mutex
	.word	1
	.word	1
	.word	__lock___dd_hash_mutex+16
	.word	__lock___dd_hash_mutex+16
	.section	._k_sem.static.__lock___tz_mutex,"aw"
	.align	2
	.type	__lock___tz_mutex, %object
	.size	__lock___tz_mutex, 24
__lock___tz_mutex:
	.word	__lock___tz_mutex
	.word	__lock___tz_mutex
	.word	1
	.word	1
	.word	__lock___tz_mutex+16
	.word	__lock___tz_mutex+16
	.section	.bss.heap_sz,"aw",%nobits
	.align	2
	.set	.LANCHOR2,. + 0
	.type	heap_sz, %object
	.size	heap_sz, 4
heap_sz:
	.space	4
	.section	.data._stdin_hook,"aw"
	.align	2
	.set	.LANCHOR1,. + 0
	.type	_stdin_hook, %object
	.size	_stdin_hook, 4
_stdin_hook:
	.word	_stdin_hook_default
	.section	.data._stdout_hook,"aw"
	.align	2
	.set	.LANCHOR0,. + 0
	.type	_stdout_hook, %object
	.size	_stdout_hook, 4
_stdout_hook:
	.word	_stdout_hook_default
	.section	.rodata.chk_fail_msg.11802,"a"
	.align	2
	.set	.LANCHOR3,. + 0
	.type	chk_fail_msg.11802, %object
	.size	chk_fail_msg.11802, 30
chk_fail_msg.11802:
	.ascii	"* buffer overflow detected *\012\000"
	.section	.z_init_APPLICATION40_,"a"
	.align	2
	.type	__init_sys_init_malloc_prepare0, %object
	.size	__init_sys_init_malloc_prepare0, 8
__init_sys_init_malloc_prepare0:
	.word	malloc_prepare
	.word	0
	.text
.Letext0:
	.file 5 "/home/sebin/LIOT/gcc-arm-none-eabi-9-2019-q4-major/lib/gcc/arm-none-eabi/9.2.1/include/stddef.h"
	.file 6 "/home/sebin/LIOT/gcc-arm-none-eabi-9-2019-q4-major/arm-none-eabi/include/machine/_default_types.h"
	.file 7 "/home/sebin/LIOT/gcc-arm-none-eabi-9-2019-q4-major/arm-none-eabi/include/sys/_stdint.h"
	.file 8 "/home/sebin/thesis/zephyrproject/zephyr/include/arch/arm/aarch32/thread.h"
	.file 9 "/home/sebin/thesis/zephyrproject/zephyr/include/sw_isr_table.h"
	.file 10 "/home/sebin/thesis/zephyrproject/zephyr/include/arch/arm/aarch32/exc.h"
	.file 11 "/home/sebin/thesis/zephyrproject/modules/hal/infineon/XMCLib/devices/XMC4500/Include/system_XMC4500.h"
	.file 12 "/home/sebin/thesis/zephyrproject/modules/hal/cmsis/CMSIS/Core/Include/core_cm4.h"
	.file 13 "/home/sebin/thesis/zephyrproject/zephyr/include/arch/arm/aarch32/mpu/arm_mpu_v7m.h"
	.file 14 "/home/sebin/thesis/zephyrproject/zephyr/include/arch/arm/aarch32/mpu/arm_mpu.h"
	.file 15 "/home/sebin/LIOT/gcc-arm-none-eabi-9-2019-q4-major/arm-none-eabi/include/sys/lock.h"
	.file 16 "/home/sebin/LIOT/gcc-arm-none-eabi-9-2019-q4-major/arm-none-eabi/include/sys/_types.h"
	.file 17 "/home/sebin/LIOT/gcc-arm-none-eabi-9-2019-q4-major/arm-none-eabi/include/sys/reent.h"
	.file 18 "/home/sebin/LIOT/gcc-arm-none-eabi-9-2019-q4-major/arm-none-eabi/include/sys/errno.h"
	.file 19 "/home/sebin/LIOT/gcc-arm-none-eabi-9-2019-q4-major/arm-none-eabi/include/sys/types.h"
	.file 20 "/home/sebin/LIOT/gcc-arm-none-eabi-9-2019-q4-major/arm-none-eabi/include/sys/stat.h"
	.file 21 "/home/sebin/thesis/zephyrproject/zephyr/include/linker/linker-defs.h"
	.file 22 "/home/sebin/thesis/zephyrproject/zephyr/include/sys/slist.h"
	.file 23 "/home/sebin/thesis/zephyrproject/zephyr/include/sys/dlist.h"
	.file 24 "/home/sebin/thesis/zephyrproject/zephyr/include/sys/rb.h"
	.file 25 "/home/sebin/thesis/zephyrproject/zephyr/include/sys/sys_heap.h"
	.file 26 "/home/sebin/thesis/zephyrproject/zephyr/include/kernel_structs.h"
	.file 27 "/home/sebin/thesis/zephyrproject/zephyr/include/kernel/thread.h"
	.file 28 "/home/sebin/thesis/zephyrproject/zephyr/include/kernel.h"
	.file 29 "/home/sebin/thesis/zephyrproject/zephyr/include/sys_clock.h"
	.file 30 "/home/sebin/thesis/zephyrproject/zephyr/include/spinlock.h"
	.file 31 "/home/sebin/thesis/zephyrproject/zephyr/include/fatal.h"
	.file 32 "/home/sebin/thesis/zephyrproject/zephyr/include/init.h"
	.file 33 "/home/sebin/LIOT/gcc-arm-none-eabi-9-2019-q4-major/arm-none-eabi/include/sys/_timeval.h"
	.file 34 "/home/sebin/LIOT/gcc-arm-none-eabi-9-2019-q4-major/arm-none-eabi/include/ssp/ssp.h"
	.file 35 "/home/sebin/LIOT/gcc-arm-none-eabi-9-2019-q4-major/arm-none-eabi/include/malloc.h"
	.file 36 "/home/sebin/thesis/zephyrproject/zephyr/include/arch/structs.h"