	.cpu cortex-m4
	.eabi_attribute 27, 1
	.eabi_attribute 28, 1
	.eabi_attribute 20, 1
	.eabi_attribute 21, 1
	.eabi_attribute 23, 3
	.eabi_attribute 24, 1
	.eabi_attribute 25, 1
	.eabi_attribute 26, 1
	.eabi_attribute 30, 1
	.eabi_attribute 34, 1
	.eabi_attribute 38, 1
	.eabi_attribute 18, 4
	.file	"ethernet_xmc.c"
	.text
.Ltext0:
	.cfi_sections	.debug_frame
	.section	.text.print_buffer,"ax",%progbits
	.align	1
	.arch armv7e-m
	.syntax unified
	.thumb
	.thumb_func
	.fpu fpv4-sp-d16
	.type	print_buffer, %function
print_buffer:
.LVL0:
.LFB1059:
	.file 1 "/home/sebin/thesis/dmz/zephyr_xmc_template/drivers/zephyr/ethernet/ethernet_xmc.c"
	.loc 1 27 1 view -0
	.cfi_startproc
	@ args = 0, pretend = 0, frame = 0
	@ frame_needed = 0, uses_anonymous_args = 0
	@ link register save eliminated.
	.loc 1 28 2 view .LVU1
.LBB293:
	.loc 1 28 7 view .LVU2
.LBE293:
	.loc 1 28 53 view .LVU3
	.loc 1 29 2 view .LVU4
.LBB294:
	.loc 1 29 7 view .LVU5
	.loc 1 29 16 is_stmt 0 view .LVU6
	movs	r3, #0
.LVL1:
.L2:
	.loc 1 29 21 is_stmt 1 discriminator 1 view .LVU7
	.loc 1 29 2 is_stmt 0 discriminator 1 view .LVU8
	cmp	r3, r1
	bcs	.L4
	.loc 1 31 3 is_stmt 1 view .LVU9
.LBB295:
	.loc 1 31 8 view .LVU10
.LBE295:
	.loc 1 31 263 view .LVU11
	.loc 1 29 28 view .LVU12
	.loc 1 29 29 is_stmt 0 view .LVU13
	adds	r3, r3, #12
.LVL2:
	.loc 1 29 29 view .LVU14
	b	.L2
.L4:
	.loc 1 29 29 view .LVU15
.LBE294:
	.loc 1 37 1 view .LVU16
	bx	lr
	.cfi_endproc
.LFE1059:
	.size	print_buffer, .-print_buffer
	.section	.text.xmc_eth_get_capabilities,"ax",%progbits
	.align	1
	.syntax unified
	.thumb
	.thumb_func
	.fpu fpv4-sp-d16
	.type	xmc_eth_get_capabilities, %function
xmc_eth_get_capabilities:
.LVL3:
.LFB1062:
	.loc 1 152 1 is_stmt 1 view -0
	.cfi_startproc
	@ args = 0, pretend = 0, frame = 0
	@ frame_needed = 0, uses_anonymous_args = 0
	@ link register save eliminated.
	.loc 1 153 2 view .LVU18
	.loc 1 154 2 view .LVU19
.LBB296:
	.loc 1 154 7 view .LVU20
.LBE296:
	.loc 1 154 66 view .LVU21
	.loc 1 155 2 view .LVU22
	.loc 1 161 1 is_stmt 0 view .LVU23
	mov	r0, #504
.LVL4:
	.loc 1 161 1 view .LVU24
	bx	lr
	.cfi_endproc
.LFE1062:
	.size	xmc_eth_get_capabilities, .-xmc_eth_get_capabilities
	.section	.text.xmc_eth_get_config,"ax",%progbits
	.align	1
	.syntax unified
	.thumb
	.thumb_func
	.fpu fpv4-sp-d16
	.type	xmc_eth_get_config, %function
xmc_eth_get_config:
.LVL5:
.LFB1064:
	.loc 1 209 1 is_stmt 1 view -0
	.cfi_startproc
	@ args = 0, pretend = 0, frame = 0
	@ frame_needed = 0, uses_anonymous_args = 0
	@ link register save eliminated.
	.loc 1 210 2 view .LVU26
.LBB297:
	.loc 1 210 7 view .LVU27
.LBE297:
	.loc 1 210 66 view .LVU28
	.loc 1 211 2 view .LVU29
	.loc 1 212 1 is_stmt 0 view .LVU30
	movs	r0, #0
.LVL6:
	.loc 1 212 1 view .LVU31
	bx	lr
	.cfi_endproc
.LFE1064:
	.size	xmc_eth_get_config, .-xmc_eth_get_config
	.section	.text.eth_is_ptp_pkt,"ax",%progbits
	.align	1
	.syntax unified
	.thumb
	.thumb_func
	.fpu fpv4-sp-d16
	.type	eth_is_ptp_pkt, %function
eth_is_ptp_pkt:
.LVL7:
.LFB1065:
	.loc 1 217 1 is_stmt 1 view -0
	.cfi_startproc
	@ args = 0, pretend = 0, frame = 0
	@ frame_needed = 0, uses_anonymous_args = 0
	@ link register save eliminated.
	.loc 1 232 3 view .LVU33
.LBB298:
.LBI298:
	.file 2 "/home/sebin/thesis/zephyrproject/zephyr/include/net/net_pkt.h"
	.loc 2 966 24 view .LVU34
.LBB299:
	.loc 2 968 2 view .LVU35
	.loc 2 968 12 is_stmt 0 view .LVU36
	ldr	r3, [r1, #8]
	.loc 2 968 19 view .LVU37
	ldr	r3, [r3, #8]
.LVL8:
	.loc 2 968 19 view .LVU38
.LBE299:
.LBE298:
	.loc 1 232 64 view .LVU39
	ldrh	r2, [r3, #12]	@ unaligned
.LVL9:
	.loc 2 968 2 is_stmt 1 view .LVU40
	.loc 1 232 86 is_stmt 0 view .LVU41
	lsls	r3, r2, #8
	orr	r3, r3, r2, lsr #8
	sxth	r3, r3
	.loc 1 232 6 view .LVU42
	ldr	r2, .L12
	cmp	r3, r2
	beq	.L8
	.loc 1 234 4 is_stmt 1 view .LVU43
.LVL10:
	.loc 2 968 2 view .LVU44
	.loc 2 968 2 view .LVU45
	.loc 1 234 4 is_stmt 0 view .LVU46
	cmp	r3, #2048
	beq	.L11
	.loc 1 266 10 view .LVU47
	movs	r0, #0
.LVL11:
	.loc 1 273 1 view .LVU48
	bx	lr
.LVL12:
.L11:
	.loc 1 242 11 view .LVU49
	movs	r0, #1
.LVL13:
	.loc 1 242 11 view .LVU50
	bx	lr
.LVL14:
.L8:
	.loc 1 270 2 is_stmt 1 view .LVU51
.LBB300:
.LBI300:
	.loc 2 731 20 view .LVU52
.LBB301:
	.loc 2 734 2 view .LVU53
	.loc 2 734 16 is_stmt 0 view .LVU54
	movs	r3, #3
	strb	r3, [r1, #82]
.LVL15:
	.loc 2 734 16 view .LVU55
.LBE301:
.LBE300:
	.loc 1 272 2 is_stmt 1 view .LVU56
	.loc 1 272 8 is_stmt 0 view .LVU57
	movs	r0, #1
.LVL16:
	.loc 1 272 8 view .LVU58
	bx	lr
.L13:
	.align	2
.L12:
	.word	-30473
	.cfi_endproc
.LFE1065:
	.size	eth_is_ptp_pkt, .-eth_is_ptp_pkt
	.section	.text.xmc_eth_start,"ax",%progbits
	.align	1
	.syntax unified
	.thumb
	.thumb_func
	.fpu fpv4-sp-d16
	.type	xmc_eth_start, %function
xmc_eth_start:
.LVL17:
.LFB1067:
	.loc 1 367 1 is_stmt 1 view -0
	.cfi_startproc
	@ args = 0, pretend = 0, frame = 0
	@ frame_needed = 0, uses_anonymous_args = 0
	@ link register save eliminated.
	.loc 1 368 2 view .LVU60
.LBB302:
	.loc 1 368 7 view .LVU61
.LBE302:
	.loc 1 368 66 view .LVU62
	.loc 1 369 2 view .LVU63
	.loc 1 370 1 is_stmt 0 view .LVU64
	movs	r0, #0
.LVL18:
	.loc 1 370 1 view .LVU65
	bx	lr
	.cfi_endproc
.LFE1067:
	.size	xmc_eth_start, .-xmc_eth_start
	.section	.text.xmc_eth_stop,"ax",%progbits
	.align	1
	.syntax unified
	.thumb
	.thumb_func
	.fpu fpv4-sp-d16
	.type	xmc_eth_stop, %function
xmc_eth_stop:
.LVL19:
.LFB1068:
	.loc 1 374 1 is_stmt 1 view -0
	.cfi_startproc
	@ args = 0, pretend = 0, frame = 0
	@ frame_needed = 0, uses_anonymous_args = 0
	@ link register save eliminated.
	.loc 1 375 2 view .LVU67
.LBB303:
	.loc 1 375 7 view .LVU68
.LBE303:
	.loc 1 375 66 view .LVU69
	.loc 1 376 2 view .LVU70
	.loc 1 377 1 is_stmt 0 view .LVU71
	movs	r0, #0
.LVL20:
	.loc 1 377 1 view .LVU72
	bx	lr
	.cfi_endproc
.LFE1068:
	.size	xmc_eth_stop, .-xmc_eth_stop
	.section	.text.xmc_eth_get_ptp_clock,"ax",%progbits
	.align	1
	.syntax unified
	.thumb
	.thumb_func
	.fpu fpv4-sp-d16
	.type	xmc_eth_get_ptp_clock, %function
xmc_eth_get_ptp_clock:
.LVL21:
.LFB1069:
	.loc 1 381 1 is_stmt 1 view -0
	.cfi_startproc
	@ args = 0, pretend = 0, frame = 0
	@ frame_needed = 0, uses_anonymous_args = 0
	@ link register save eliminated.
	.loc 1 382 2 view .LVU74
.LBB304:
	.loc 1 382 7 view .LVU75
.LBE304:
	.loc 1 382 66 view .LVU76
	.loc 1 383 2 view .LVU77
	.loc 1 383 22 is_stmt 0 view .LVU78
	ldr	r3, [r0, #16]
.LVL22:
	.loc 1 385 2 is_stmt 1 view .LVU79
	.loc 1 386 1 is_stmt 0 view .LVU80
	ldr	r0, [r3, #84]
.LVL23:
	.loc 1 386 1 view .LVU81
	bx	lr
	.cfi_endproc
.LFE1069:
	.size	xmc_eth_get_ptp_clock, .-xmc_eth_get_ptp_clock
	.section	.text.eth0_config_func,"ax",%progbits
	.align	1
	.syntax unified
	.thumb
	.thumb_func
	.fpu fpv4-sp-d16
	.type	eth0_config_func, %function
eth0_config_func:
.LFB1076:
	.loc 1 873 200 is_stmt 1 view -0
	.cfi_startproc
	@ args = 0, pretend = 0, frame = 0
	@ frame_needed = 0, uses_anonymous_args = 0
	push	{r3, lr}
	.cfi_def_cfa_offset 8
	.cfi_offset 3, -8
	.cfi_offset 14, -4
.LBB305:
	.loc 1 873 204 view .LVU83
	.loc 1 873 301 view .LVU84
	.loc 1 873 449 view .LVU85
	.loc 1 873 97 view .LVU86
	movs	r2, #0
	mov	r1, r2
	movs	r0, #108
	bl	z_arm_irq_priority_set
.LVL24:
.LBE305:
	.loc 1 873 133 view .LVU87
	.loc 1 873 135 view .LVU88
	movs	r0, #108
	bl	arch_irq_enable
.LVL25:
	.loc 1 873 1 is_stmt 0 view .LVU89
	pop	{r3, pc}
	.cfi_endproc
.LFE1076:
	.size	eth0_config_func, .-eth0_config_func
	.section	.text.xmc_eth_isr,"ax",%progbits
	.align	1
	.syntax unified
	.thumb
	.thumb_func
	.fpu fpv4-sp-d16
	.type	xmc_eth_isr, %function
xmc_eth_isr:
.LVL26:
.LFB1075:
	.loc 1 758 51 is_stmt 1 view -0
	.cfi_startproc
	@ args = 0, pretend = 0, frame = 16
	@ frame_needed = 0, uses_anonymous_args = 0
	.loc 1 758 51 is_stmt 0 view .LVU91
	push	{r4, lr}
	.cfi_def_cfa_offset 8
	.cfi_offset 4, -8
	.cfi_offset 14, -4
	sub	sp, sp, #16
	.cfi_def_cfa_offset 24
	.loc 1 761 2 is_stmt 1 view .LVU92
.LBB306:
	.loc 1 761 7 view .LVU93
.LBE306:
	.loc 1 761 66 view .LVU94
	.loc 1 762 2 view .LVU95
	.loc 1 762 22 is_stmt 0 view .LVU96
	ldr	r4, [r0, #16]
.LVL27:
	.loc 1 763 2 is_stmt 1 view .LVU97
	.loc 1 766 2 view .LVU98
	.loc 1 766 21 is_stmt 0 view .LVU99
	movs	r3, #0
	str	r3, [sp, #8]
	str	r3, [sp, #12]
	.loc 1 767 2 is_stmt 1 view .LVU100
	add	r1, sp, #8
	mov	r0, r4
.LVL28:
	.loc 1 767 2 is_stmt 0 view .LVU101
	bl	XMC_ETH_MAC_GetPTPTime
.LVL29:
	.loc 1 770 2 is_stmt 1 view .LVU102
	.loc 1 770 20 is_stmt 0 view .LVU103
	mov	r0, r4
	bl	XMC_ETH_MAC_GetEventStatus
.LVL30:
	.loc 1 771 2 is_stmt 1 view .LVU104
	.loc 1 771 5 is_stmt 0 view .LVU105
	tst	r0, #33554432
	bne	.L23
	.loc 1 795 7 is_stmt 1 view .LVU106
	.loc 1 795 10 is_stmt 0 view .LVU107
	tst	r0, #64
	bne	.L24
.LVL31:
.L19:
	.loc 1 832 1 view .LVU108
	add	sp, sp, #16
	.cfi_remember_state
	.cfi_def_cfa_offset 8
	@ sp needed
	pop	{r4, pc}
.LVL32:
.L23:
	.cfi_restore_state
.LBB307:
	.loc 1 773 3 is_stmt 1 view .LVU109
	mov	r1, #33554432
	mov	r0, r4
.LVL33:
	.loc 1 773 3 is_stmt 0 view .LVU110
	bl	XMC_ETH_MAC_ClearEventStatus
.LVL34:
	.loc 1 774 3 is_stmt 1 view .LVU111
	.loc 1 774 19 is_stmt 0 view .LVU112
	ldr	r3, [r4]
	.loc 1 774 24 view .LVU113
	ldr	r3, [r3, #1832]
	.loc 1 780 3 is_stmt 1 view .LVU114
.LVL35:
.LBB308:
.LBI308:
	.file 3 "/home/sebin/thesis/zephyrproject/modules/hal/infineon/XMCLib/drivers/inc/xmc_gpio.h"
	.loc 3 313 20 view .LVU115
.LBB309:
	.loc 3 315 3 view .LVU116
	.loc 3 317 3 view .LVU117
	.loc 3 317 13 is_stmt 0 view .LVU118
	ldr	r3, .L25
	mov	r2, #4194368
	str	r2, [r3, #4]
.LVL36:
	.loc 3 317 13 view .LVU119
.LBE309:
.LBE308:
	.loc 1 781 3 is_stmt 1 view .LVU120
.LBB310:
.LBI310:
	.loc 3 313 20 view .LVU121
.LBB311:
	.loc 3 315 3 view .LVU122
	.loc 3 317 3 view .LVU123
	.loc 3 317 13 is_stmt 0 view .LVU124
	sub	r3, r3, #256
	mov	r2, #65537
	str	r2, [r3, #4]
.LVL37:
	.loc 3 317 13 view .LVU125
.LBE311:
.LBE310:
	.loc 1 782 3 is_stmt 1 view .LVU126
.LBB312:
	.loc 1 782 8 view .LVU127
.LBE312:
	.loc 1 782 119 view .LVU128
	.loc 1 786 3 view .LVU129
	.loc 1 787 16 is_stmt 0 view .LVU130
	ldr	r3, [sp, #8]
	.loc 1 787 24 view .LVU131
	adds	r3, r3, #1
	.loc 1 786 22 view .LVU132
	str	r3, [sp]
	movs	r3, #0
	str	r3, [sp, #4]
	.loc 1 790 3 is_stmt 1 view .LVU133
.LBB313:
	.loc 1 790 8 view .LVU134
.LBE313:
	.loc 1 790 120 view .LVU135
	.loc 1 791 3 view .LVU136
	mov	r1, sp
	mov	r0, r4
	bl	XMC_ETH_MAC_SetPTPAlarm
.LVL38:
	.loc 1 792 3 view .LVU137
.LBB314:
.LBI314:
	.file 4 "/home/sebin/thesis/zephyrproject/modules/hal/infineon/XMCLib/drivers/inc/xmc_eth_mac.h"
	.loc 4 1838 20 view .LVU138
.LBB315:
	.loc 4 1840 3 view .LVU139
	.loc 4 1840 10 is_stmt 0 view .LVU140
	ldr	r2, [r4]
	.loc 4 1840 36 view .LVU141
	ldr	r3, [r2, #1792]
	orr	r3, r3, #16
	str	r3, [r2, #1792]
.LVL39:
	.loc 4 1840 36 view .LVU142
.LBE315:
.LBE314:
.LBE307:
	b	.L19
.LVL40:
.L24:
	.loc 1 797 3 is_stmt 1 view .LVU143
.LBB316:
	.loc 1 797 8 view .LVU144
.LBE316:
	.loc 1 797 59 view .LVU145
	.loc 1 798 3 view .LVU146
	addw	r0, r4, #2012
.LVL41:
.LBB317:
.LBI317:
	.file 5 "/home/sebin/thesis/dmz/zephyr_xmc_template/build/zephyr/include/generated/syscalls/kernel.h"
	.loc 5 1033 20 view .LVU147
.LBB318:
	.loc 5 1042 2 view .LVU148
	.loc 5 1042 7 view .LVU149
	.loc 5 1042 55 view .LVU150
	.loc 5 1043 2 view .LVU151
	bl	z_impl_k_sem_give
.LVL42:
	.loc 5 1043 2 is_stmt 0 view .LVU152
.LBE318:
.LBE317:
	.loc 1 800 3 is_stmt 1 view .LVU153
	movs	r1, #64
	mov	r0, r4
	bl	XMC_ETH_MAC_ClearEventStatus
.LVL43:
	.loc 1 801 3 view .LVU154
	movs	r1, #64
	mov	r0, r4
	bl	XMC_ETH_MAC_DisableEvent
.LVL44:
	.loc 1 809 2 view .LVU155
	.loc 1 832 1 is_stmt 0 view .LVU156
	b	.L19
.L26:
	.align	2
.L25:
	.word	1208123904
	.cfi_endproc
.LFE1075:
	.size	xmc_eth_isr, .-xmc_eth_isr
	.section	.text.xmc_eth_tx,"ax",%progbits
	.align	1
	.syntax unified
	.thumb
	.thumb_func
	.fpu fpv4-sp-d16
	.type	xmc_eth_tx, %function
xmc_eth_tx:
.LVL45:
.LFB1066:
	.loc 1 278 1 is_stmt 1 view -0
	.cfi_startproc
	@ args = 0, pretend = 0, frame = 8
	@ frame_needed = 0, uses_anonymous_args = 0
	.loc 1 278 1 is_stmt 0 view .LVU158
	push	{r4, r5, r6, r7, r8, lr}
	.cfi_def_cfa_offset 24
	.cfi_offset 4, -24
	.cfi_offset 5, -20
	.cfi_offset 6, -16
	.cfi_offset 7, -12
	.cfi_offset 8, -8
	.cfi_offset 14, -4
	sub	sp, sp, #8
	.cfi_def_cfa_offset 32
	.loc 1 279 2 is_stmt 1 view .LVU159
.LBB319:
	.loc 1 279 7 view .LVU160
.LBE319:
	.loc 1 279 66 view .LVU161
	.loc 1 280 2 view .LVU162
	.loc 1 282 1 view .LVU163
	.loc 1 283 2 view .LVU164
	.loc 1 284 2 view .LVU165
.LVL46:
	.loc 1 288 2 view .LVU166
.LBB320:
.LBI320:
	.file 6 "/home/sebin/thesis/zephyrproject/zephyr/include/arch/arm/aarch32/asm_inline_gcc.h"
	.loc 6 43 59 view .LVU167
.LBB321:
	.loc 6 45 2 view .LVU168
	.loc 6 54 2 view .LVU169
	.loc 6 56 2 view .LVU170
	.syntax unified
@ 56 "/home/sebin/thesis/zephyrproject/zephyr/include/arch/arm/aarch32/asm_inline_gcc.h" 1
	mov r3, #4;mrs r6, BASEPRI;msr BASEPRI_MAX, r3;isb;
@ 0 "" 2
.LVL47:
	.loc 6 76 2 view .LVU171
	.loc 6 76 2 is_stmt 0 view .LVU172
	.thumb
	.syntax unified
.LBE321:
.LBE320:
	.loc 1 290 2 is_stmt 1 view .LVU173
	.loc 1 290 6 is_stmt 0 view .LVU174
	ldr	r3, .L40
	ldrb	r3, [r3]	@ zero_extendqisi2
	.loc 1 290 5 view .LVU175
	cmp	r3, #0
	beq	.L28
	mov	r5, r1
.LBB322:
	.loc 1 292 3 is_stmt 1 view .LVU176
	.loc 1 292 23 is_stmt 0 view .LVU177
	ldr	r4, [r0, #16]
.LVL48:
	.loc 1 293 3 is_stmt 1 view .LVU178
.LBB323:
.LBI323:
	.loc 2 961 22 view .LVU179
.LBB324:
	.loc 2 963 2 view .LVU180
	.loc 2 963 9 is_stmt 0 view .LVU181
	ldr	r3, [r1, #8]
.LVL49:
.LBB325:
.LBI325:
	.file 7 "/home/sebin/thesis/zephyrproject/zephyr/include/net/buf.h"
	.loc 7 2465 22 is_stmt 1 view .LVU182
.LBB326:
	.loc 7 2467 2 view .LVU183
	.loc 7 2469 2 view .LVU184
	.loc 7 2467 9 is_stmt 0 view .LVU185
	movs	r2, #0
.LVL50:
.L29:
	.loc 7 2469 8 is_stmt 1 view .LVU186
	cbz	r3, .L38
	.loc 7 2470 3 view .LVU187
	.loc 7 2470 15 is_stmt 0 view .LVU188
	ldrh	r1, [r3, #12]
	.loc 7 2470 9 view .LVU189
	add	r2, r2, r1
.LVL51:
	.loc 7 2471 3 is_stmt 1 view .LVU190
	.loc 7 2471 7 is_stmt 0 view .LVU191
	ldr	r3, [r3]
.LVL52:
	.loc 7 2471 7 view .LVU192
	b	.L29
.L38:
	.loc 7 2474 2 is_stmt 1 view .LVU193
.LVL53:
	.loc 7 2474 2 is_stmt 0 view .LVU194
.LBE326:
.LBE325:
.LBE324:
.LBE323:
	.loc 1 293 12 view .LVU195
	uxth	r1, r2
.LVL54:
	.loc 1 294 3 is_stmt 1 view .LVU196
	.loc 1 296 3 view .LVU197
	.loc 1 296 6 is_stmt 0 view .LVU198
	movw	r3, #1524
	cmp	r1, r3
	bhi	.L35
.LVL55:
.L32:
	.loc 1 304 4 is_stmt 1 discriminator 1 view .LVU199
	.loc 1 303 9 discriminator 1 view .LVU200
.LBB327:
.LBI327:
	.loc 4 1336 21 discriminator 1 view .LVU201
.LBB328:
	.loc 4 1338 3 discriminator 1 view .LVU202
	.loc 4 1338 19 is_stmt 0 discriminator 1 view .LVU203
	ldr	r0, [r4, #20]
	.loc 4 1338 36 discriminator 1 view .LVU204
	ldrb	r3, [r4, #38]	@ zero_extendqisi2
	.loc 4 1338 28 discriminator 1 view .LVU205
	lsls	r1, r3, #5
	add	r3, r0, r3, lsl #5
	.loc 4 1338 47 discriminator 1 view .LVU206
	ldr	r1, [r0, r1]
.LVL56:
	.loc 4 1338 47 discriminator 1 view .LVU207
.LBE328:
.LBE327:
	.loc 1 303 9 discriminator 1 view .LVU208
	cmp	r1, #0
	blt	.L32
	.loc 1 307 3 is_stmt 1 view .LVU209
.LVL57:
.LBB329:
.LBI329:
	.loc 4 1517 24 view .LVU210
.LBB330:
	.loc 4 1519 3 view .LVU211
	.loc 4 1519 57 is_stmt 0 view .LVU212
	ldr	r8, [r3, #8]
.LVL58:
	.loc 4 1519 57 view .LVU213
.LBE330:
.LBE329:
	.loc 1 309 3 is_stmt 1 view .LVU214
	uxth	r7, r2
	.loc 1 309 7 is_stmt 0 view .LVU215
	mov	r2, r7
	.loc 1 309 7 view .LVU216
	mov	r1, r8
	mov	r0, r5
	bl	net_pkt_read
.LVL59:
	.loc 1 309 6 view .LVU217
	cmp	r0, #0
	bne	.L36
	.loc 1 314 3 is_stmt 1 view .LVU218
	mov	r1, r7
	mov	r0, r8
	bl	print_buffer
.LVL60:
	.loc 1 316 3 view .LVU219
.LBB331:
.LBI331:
	.loc 4 1606 20 view .LVU220
.LBB332:
	.loc 4 1608 3 view .LVU221
	.loc 4 1608 10 is_stmt 0 view .LVU222
	ldr	r3, [r4, #20]
	.loc 4 1608 27 view .LVU223
	ldrb	r2, [r4, #38]	@ zero_extendqisi2
	.loc 4 1608 19 view .LVU224
	add	r3, r3, r2, lsl #5
	.loc 4 1608 46 view .LVU225
	str	r7, [r3, #4]
.LVL61:
	.loc 4 1608 46 view .LVU226
.LBE332:
.LBE331:
	.loc 1 319 3 is_stmt 1 view .LVU227
	.loc 1 319 19 is_stmt 0 view .LVU228
	ldr	r1, [r4, #20]
	.loc 1 319 44 view .LVU229
	ldrb	r3, [r4, #38]	@ zero_extendqisi2
	.loc 1 319 62 view .LVU230
	lsls	r3, r3, #5
	ldr	r2, [r1, r3]
	bic	r2, r2, #33554432
	str	r2, [r1, r3]
	.loc 1 321 2 is_stmt 1 view .LVU231
.LVL62:
.LBB333:
.LBI333:
	.loc 2 293 30 view .LVU232
.LBB334:
	.loc 2 295 2 view .LVU233
	.loc 2 295 2 is_stmt 0 view .LVU234
.LBE334:
.LBE333:
	.loc 1 321 22 view .LVU235
	mov	r1, r5
	ldr	r0, [r5, #24]
	bl	eth_is_ptp_pkt
.LVL63:
	.loc 1 322 2 is_stmt 1 view .LVU236
	.loc 1 322 5 is_stmt 0 view .LVU237
	mov	r2, r0
	cbz	r0, .L33
	.loc 1 324 3 is_stmt 1 view .LVU238
	.loc 1 324 19 is_stmt 0 view .LVU239
	ldr	r0, [r4, #20]
.LVL64:
	.loc 1 324 44 view .LVU240
	ldrb	r3, [r4, #38]	@ zero_extendqisi2
	.loc 1 324 62 view .LVU241
	lsls	r3, r3, #5
	ldr	r1, [r0, r3]
	orr	r1, r1, #33554432
	str	r1, [r0, r3]
.L33:
	.loc 1 329 3 is_stmt 1 view .LVU242
	.loc 1 329 6 is_stmt 0 view .LVU243
	cbnz	r2, .L39
.LVL65:
.L34:
	.loc 1 351 144 is_stmt 1 view .LVU244
	.loc 1 356 3 view .LVU245
	mov	r0, r4
	bl	XMC_ETH_MAC_ReturnTxDescriptor
.LVL66:
	.loc 1 357 3 view .LVU246
.LBB335:
.LBI335:
	.loc 4 1461 20 view .LVU247
.LBB336:
	.loc 4 1463 3 view .LVU248
	.loc 4 1463 10 is_stmt 0 view .LVU249
	ldr	r2, [r4]
	.loc 4 1463 25 view .LVU250
	movw	r3, #4116
	movs	r1, #2
	str	r1, [r2, r3]
	.loc 4 1464 3 is_stmt 1 view .LVU251
	.loc 4 1464 10 is_stmt 0 view .LVU252
	ldr	r2, [r4]
	.loc 4 1464 39 view .LVU253
	movw	r3, #4100
	movs	r1, #0
	str	r1, [r2, r3]
.LVL67:
.L28:
	.loc 4 1464 39 view .LVU254
.LBE336:
.LBE335:
.LBE322:
	.loc 1 361 2 is_stmt 1 view .LVU255
.LBB339:
.LBI339:
	.loc 6 84 51 view .LVU256
.LBB340:
	.loc 6 95 2 view .LVU257
	.syntax unified
@ 95 "/home/sebin/thesis/zephyrproject/zephyr/include/arch/arm/aarch32/asm_inline_gcc.h" 1
	msr BASEPRI, r6;isb;
@ 0 "" 2
.LVL68:
	.loc 6 95 2 is_stmt 0 view .LVU258
	.thumb
	.syntax unified
.LBE340:
.LBE339:
	.loc 1 362 2 is_stmt 1 view .LVU259
	.loc 1 362 9 is_stmt 0 view .LVU260
	movs	r0, #0
.L27:
	.loc 1 363 1 view .LVU261
	add	sp, sp, #8
	.cfi_remember_state
	.cfi_def_cfa_offset 24
	@ sp needed
	pop	{r4, r5, r6, r7, r8, pc}
.LVL69:
.L39:
	.cfi_restore_state
.LBB341:
	.loc 1 331 4 is_stmt 1 view .LVU262
	.loc 1 331 21 is_stmt 0 view .LVU263
	movs	r7, #0
.LVL70:
	.loc 1 331 21 view .LVU264
	str	r7, [sp]
	.loc 1 332 4 is_stmt 1 view .LVU265
	.loc 1 332 25 is_stmt 0 view .LVU266
	str	r7, [sp, #4]
	.loc 1 333 4 is_stmt 1 view .LVU267
	.loc 1 333 17 is_stmt 0 view .LVU268
	mov	r1, sp
	mov	r0, r4
	bl	XMC_ETH_MAC_GetTxTimeStamp
.LVL71:
	.loc 1 334 4 is_stmt 1 view .LVU269
	.loc 1 336 110 view .LVU270
	.loc 1 338 4 view .LVU271
	.loc 1 340 88 view .LVU272
	.loc 1 342 4 view .LVU273
	.loc 1 344 89 view .LVU274
	.loc 1 346 4 view .LVU275
	.loc 1 346 36 is_stmt 0 view .LVU276
	ldr	r3, [sp]
	.loc 1 346 26 view .LVU277
	str	r3, [r5, #32]
	str	r7, [r5, #36]
	.loc 1 347 4 is_stmt 1 view .LVU278
	.loc 1 347 40 is_stmt 0 view .LVU279
	ldr	r3, [sp, #4]
	.loc 1 347 30 view .LVU280
	str	r3, [r5, #40]
	.loc 1 348 4 is_stmt 1 view .LVU281
	mov	r0, r5
	bl	net_if_add_tx_timestamp
.LVL72:
	.loc 1 349 4 view .LVU282
.LBB337:
	.loc 1 349 9 view .LVU283
.LBE337:
	.loc 1 349 144 view .LVU284
	.loc 1 351 4 view .LVU285
.LBB338:
	.loc 1 351 9 view .LVU286
	b	.L34
.LVL73:
.L35:
	.loc 1 351 9 is_stmt 0 view .LVU287
.LBE338:
	.loc 1 299 11 view .LVU288
	mvn	r0, #104
.LVL74:
	.loc 1 299 11 view .LVU289
	b	.L27
.LVL75:
.L36:
	.loc 1 312 11 view .LVU290
	mvn	r0, #4
	b	.L27
.L41:
	.align	2
.L40:
	.word	.LANCHOR0
.LBE341:
	.cfi_endproc
.LFE1066:
	.size	xmc_eth_tx, .-xmc_eth_tx
	.section	.text.xmc_eth_set_config,"ax",%progbits
	.align	1
	.syntax unified
	.thumb
	.thumb_func
	.fpu fpv4-sp-d16
	.type	xmc_eth_set_config, %function
xmc_eth_set_config:
.LVL76:
.LFB1063:
	.loc 1 167 1 is_stmt 1 view -0
	.cfi_startproc
	@ args = 0, pretend = 0, frame = 0
	@ frame_needed = 0, uses_anonymous_args = 0
	.loc 1 168 2 view .LVU292
.LBB342:
	.loc 1 168 7 view .LVU293
.LBE342:
	.loc 1 168 66 view .LVU294
	.loc 1 169 2 view .LVU295
	.loc 1 169 22 is_stmt 0 view .LVU296
	ldr	r0, [r0, #16]
.LVL77:
	.loc 1 171 2 is_stmt 1 view .LVU297
	cmp	r1, #3
	bne	.L44
	.loc 1 167 1 is_stmt 0 view .LVU298
	push	{r3, r4, r5, lr}
	.cfi_def_cfa_offset 16
	.cfi_offset 3, -16
	.cfi_offset 4, -12
	.cfi_offset 5, -8
	.cfi_offset 14, -4
	.loc 1 174 3 is_stmt 1 view .LVU299
.LBB343:
	.loc 1 174 8 view .LVU300
.LBE343:
	.loc 1 174 93 view .LVU301
	.loc 1 175 3 view .LVU302
.LBB344:
	.loc 1 175 8 view .LVU303
.LBE344:
	.loc 1 175 283 view .LVU304
	.loc 1 181 2 view .LVU305
.LVL78:
.LBB345:
.LBI345:
	.file 8 "/home/sebin/LIOT/gcc-arm-none-eabi-9-2019-q4-major/arm-none-eabi/include/ssp/string.h"
	.loc 8 83 216 view .LVU306
.LBB346:
	.loc 8 83 292 view .LVU307
	.loc 8 83 299 is_stmt 0 view .LVU308
	ldr	r3, [r2]	@ unaligned
	str	r3, [r0, #72]	@ unaligned
	ldrh	r3, [r2, #4]	@ unaligned
	strh	r3, [r0, #76]	@ unaligned
.LVL79:
	.loc 8 83 299 view .LVU309
.LBE346:
.LBE345:
	.loc 1 185 3 is_stmt 1 view .LVU310
	.loc 1 185 31 is_stmt 0 view .LVU311
	ldrb	r2, [r0, #72]	@ zero_extendqisi2
.LVL80:
	.loc 1 185 65 view .LVU312
	ldrb	r4, [r0, #73]	@ zero_extendqisi2
	.loc 1 185 62 view .LVU313
	orr	r2, r2, r4, lsl #8
	.loc 1 185 105 view .LVU314
	ldrb	r4, [r0, #74]	@ zero_extendqisi2
	.loc 1 185 102 view .LVU315
	orr	r2, r2, r4, lsl #16
	.loc 1 185 146 view .LVU316
	ldrb	r4, [r0, #75]	@ zero_extendqisi2
	.loc 1 185 143 view .LVU317
	orr	r2, r2, r4, lsl #24
	.loc 1 185 184 view .LVU318
	ldrb	r3, [r0, #76]	@ zero_extendqisi2
	.loc 1 185 228 view .LVU319
	ldrb	r4, [r0, #77]	@ zero_extendqisi2
	.loc 1 185 225 view .LVU320
	orr	r3, r3, r4, lsl #8
	.loc 1 185 28 view .LVU321
	str	r2, [r0, #8]
	str	r3, [r0, #12]
	.loc 1 187 3 is_stmt 1 view .LVU322
.LVL81:
.LBB347:
.LBI347:
	.loc 4 601 20 view .LVU323
.LBB348:
	.loc 4 603 3 view .LVU324
	.loc 4 603 10 is_stmt 0 view .LVU325
	ldr	r1, [r0]
.LVL82:
	.loc 4 603 36 view .LVU326
	str	r3, [r1, #64]
	.loc 4 604 3 is_stmt 1 view .LVU327
	.loc 4 604 10 is_stmt 0 view .LVU328
	ldr	r3, [r0]
.LVL83:
	.loc 4 604 35 view .LVU329
	str	r2, [r3, #68]
.LVL84:
	.loc 4 604 35 view .LVU330
.LBE348:
.LBE347:
	.loc 1 189 3 is_stmt 1 view .LVU331
.LBB349:
.LBI349:
	.file 9 "/home/sebin/thesis/zephyrproject/zephyr/include/net/net_if.h"
	.loc 9 768 19 view .LVU332
.LBB350:
	.loc 9 775 2 view .LVU333
	.loc 9 775 9 is_stmt 0 view .LVU334
	movs	r3, #3
	movs	r2, #6
	add	r1, r0, #72
.LVL85:
	.loc 9 775 9 view .LVU335
	ldr	r0, [r0, #60]
.LVL86:
	.loc 9 775 9 view .LVU336
	bl	net_if_set_link_addr_locked
.LVL87:
	.loc 9 775 9 view .LVU337
.LBE350:
.LBE349:
	.loc 1 192 3 is_stmt 1 view .LVU338
.LBB351:
	.loc 1 192 8 view .LVU339
.LBE351:
	.loc 1 192 231 view .LVU340
	.loc 1 197 3 view .LVU341
	.loc 1 197 10 is_stmt 0 view .LVU342
	movs	r0, #0
	.loc 1 203 1 view .LVU343
	pop	{r3, r4, r5, pc}
.LVL88:
.L44:
	.cfi_def_cfa_offset 0
	.cfi_restore 3
	.cfi_restore 4
	.cfi_restore 5
	.cfi_restore 14
	.loc 1 202 9 view .LVU344
	mvn	r0, #133
.LVL89:
	.loc 1 203 1 view .LVU345
	bx	lr
	.cfi_endproc
.LFE1063:
	.size	xmc_eth_set_config, .-xmc_eth_set_config
	.section	.text.low_level_input,"ax",%progbits
	.align	1
	.syntax unified
	.thumb
	.thumb_func
	.fpu fpv4-sp-d16
	.type	low_level_input, %function
low_level_input:
.LVL90:
.LFB1072:
	.loc 1 514 1 is_stmt 1 view -0
	.cfi_startproc
	@ args = 0, pretend = 0, frame = 8
	@ frame_needed = 0, uses_anonymous_args = 0
	.loc 1 514 1 is_stmt 0 view .LVU347
	push	{r4, r5, r6, r7, r8, r9, lr}
	.cfi_def_cfa_offset 28
	.cfi_offset 4, -28
	.cfi_offset 5, -24
	.cfi_offset 6, -20
	.cfi_offset 7, -16
	.cfi_offset 8, -12
	.cfi_offset 9, -8
	.cfi_offset 14, -4
	sub	sp, sp, #20
	.cfi_def_cfa_offset 48
	mov	r4, r0
	.loc 1 515 2 is_stmt 1 view .LVU348
	.loc 1 516 2 view .LVU349
.LVL91:
	.loc 1 517 2 view .LVU350
	.loc 1 519 2 view .LVU351
	.loc 1 520 2 view .LVU352
	.loc 1 522 2 view .LVU353
	.loc 1 523 2 view .LVU354
	.loc 1 525 3 view .LVU355
.LBB352:
	.loc 1 525 8 view .LVU356
.LBE352:
	.loc 1 525 66 view .LVU357
	.loc 1 526 3 view .LVU358
.LBB353:
.LBI353:
	.loc 4 1309 21 view .LVU359
.LBB354:
	.loc 4 1311 3 view .LVU360
	.loc 4 1311 19 is_stmt 0 view .LVU361
	ldr	r2, [r0, #16]
	.loc 4 1311 36 view .LVU362
	ldrb	r3, [r0, #39]	@ zero_extendqisi2
	.loc 4 1311 28 view .LVU363
	lsls	r3, r3, #5
	.loc 4 1311 47 view .LVU364
	ldr	r3, [r2, r3]
.LVL92:
	.loc 4 1311 47 view .LVU365
.LBE354:
.LBE353:
	.loc 1 526 6 view .LVU366
	cmp	r3, #0
	bge	.L59
	.loc 1 516 18 view .LVU367
	movs	r6, #0
.LVL93:
.L50:
	.loc 1 597 3 is_stmt 1 view .LVU368
.LBB355:
.LBI355:
	.loc 4 1480 20 view .LVU369
.LBB356:
	.loc 4 1482 3 view .LVU370
	.loc 4 1482 10 is_stmt 0 view .LVU371
	ldr	r2, [r4]
	.loc 4 1482 25 view .LVU372
	movw	r3, #4116
	movs	r1, #128
	str	r1, [r2, r3]
	.loc 4 1483 3 is_stmt 1 view .LVU373
	.loc 4 1483 10 is_stmt 0 view .LVU374
	ldr	r2, [r4]
	.loc 4 1483 38 view .LVU375
	movw	r3, #4104
	movs	r1, #0
	str	r1, [r2, r3]
.L56:
.LVL94:
	.loc 4 1483 38 view .LVU376
.LBE356:
.LBE355:
	.loc 1 600 3 is_stmt 1 view .LVU377
.L49:
	.loc 1 601 1 is_stmt 0 view .LVU378
	mov	r0, r6
	add	sp, sp, #20
	.cfi_remember_state
	.cfi_def_cfa_offset 28
	@ sp needed
	pop	{r4, r5, r6, r7, r8, r9, pc}
.LVL95:
.L59:
	.cfi_restore_state
	.loc 1 601 1 view .LVU379
	mov	r6, r1
	.loc 1 528 5 is_stmt 1 view .LVU380
	.loc 1 528 11 is_stmt 0 view .LVU381
	bl	XMC_ETH_MAC_GetRxFrameSize
.LVL96:
	.loc 1 528 11 view .LVU382
	mov	r5, r0
.LVL97:
	.loc 1 530 5 is_stmt 1 view .LVU383
	.loc 1 530 20 is_stmt 0 view .LVU384
	subs	r2, r0, #1
	.loc 1 530 8 view .LVU385
	movw	r3, #1523
	cmp	r2, r3
	bhi	.L51
.LBB357:
	.loc 1 533 3 is_stmt 1 view .LVU386
	add	r1, sp, #8
	mov	r0, r4
.LVL98:
	.loc 1 533 3 is_stmt 0 view .LVU387
	bl	XMC_ETH_MAC_GetRxTimeStamp
.LVL99:
	.loc 1 534 3 is_stmt 1 view .LVU388
	.loc 1 534 30 is_stmt 0 view .LVU389
	ldr	r9, [sp, #8]
	movs	r7, #0
	.loc 1 535 3 is_stmt 1 view .LVU390
	.loc 1 535 34 is_stmt 0 view .LVU391
	ldr	r8, [sp, #12]
	.loc 1 536 3 is_stmt 1 view .LVU392
.LBB358:
	.loc 1 536 8 view .LVU393
.LBE358:
	.loc 1 536 143 view .LVU394
	.loc 1 539 3 view .LVU395
	.loc 1 540 29 is_stmt 0 view .LVU396
	movs	r2, #0
	movs	r3, #0
	.loc 1 539 9 view .LVU397
	strd	r2, [sp]
	mov	r3, r7
	mov	r2, r7
	mov	r1, r5
	ldr	r0, [r6, #60]
	bl	net_pkt_rx_alloc_with_buffer
.LVL100:
	.loc 1 541 3 is_stmt 1 view .LVU398
	.loc 1 541 6 is_stmt 0 view .LVU399
	mov	r6, r0
.LVL101:
	.loc 1 541 6 view .LVU400
	cmp	r0, #0
	beq	.L49
	.loc 1 547 3 is_stmt 1 view .LVU401
.LVL102:
.LBB359:
.LBI359:
	.loc 4 1593 24 view .LVU402
.LBB360:
	.loc 4 1595 3 view .LVU403
	.loc 4 1595 29 is_stmt 0 view .LVU404
	ldr	r3, [r4, #16]
	.loc 4 1595 46 view .LVU405
	ldrb	r2, [r4, #39]	@ zero_extendqisi2
	.loc 4 1595 38 view .LVU406
	add	r3, r3, r2, lsl #5
	.loc 4 1595 57 view .LVU407
	ldr	r1, [r3, #8]
.LVL103:
	.loc 4 1595 57 view .LVU408
.LBE360:
.LBE359:
	.loc 1 551 3 is_stmt 1 view .LVU409
	.loc 1 551 7 is_stmt 0 view .LVU410
	mov	r2, r5
	bl	net_pkt_write
.LVL104:
	.loc 1 551 6 view .LVU411
	cbnz	r0, .L60
	.loc 1 560 3 is_stmt 1 view .LVU412
.LVL105:
.LBB361:
.LBI361:
	.loc 2 293 30 view .LVU413
.LBB362:
	.loc 2 295 2 view .LVU414
	.loc 2 295 2 is_stmt 0 view .LVU415
.LBE362:
.LBE361:
	.loc 1 560 7 view .LVU416
	mov	r1, r6
	ldr	r0, [r6, #24]
	bl	eth_is_ptp_pkt
.LVL106:
	.loc 1 560 6 view .LVU417
	cbz	r0, .L54
.LBB363:
	.loc 1 562 4 is_stmt 1 view .LVU418
	.loc 1 562 26 is_stmt 0 view .LVU419
	str	r9, [r6, #32]
	str	r7, [r6, #36]
	.loc 1 563 4 is_stmt 1 view .LVU420
	.loc 1 563 30 is_stmt 0 view .LVU421
	str	r8, [r6, #40]
	.loc 1 567 4 is_stmt 1 view .LVU422
.LVL107:
.LBB364:
.LBI364:
	.loc 2 966 24 view .LVU423
.LBB365:
	.loc 2 968 2 view .LVU424
	.loc 2 968 2 is_stmt 0 view .LVU425
.LBE365:
.LBE364:
	.loc 1 568 4 is_stmt 1 view .LVU426
.L55:
	.loc 1 568 4 is_stmt 0 view .LVU427
.LBE363:
	.loc 1 588 3 is_stmt 1 view .LVU428
	mov	r0, r4
	bl	XMC_ETH_MAC_ReturnRxDescriptor
.LVL108:
.LBE357:
	b	.L50
.L60:
.LBB368:
	.loc 1 553 4 view .LVU429
.LBB366:
	.loc 1 553 9 view .LVU430
.LBE366:
	.loc 1 553 91 view .LVU431
	.loc 1 554 4 view .LVU432
	mov	r0, r6
	bl	net_pkt_unref
.LVL109:
	.loc 1 555 4 view .LVU433
	.loc 1 556 4 view .LVU434
	.loc 1 555 8 is_stmt 0 view .LVU435
	mov	r6, r7
.LVL110:
	.loc 1 556 4 view .LVU436
	b	.L49
.L54:
	.loc 1 583 4 is_stmt 1 view .LVU437
.LBB367:
	.loc 1 583 9 view .LVU438
.LBE367:
	.loc 1 583 86 view .LVU439
	.loc 1 584 4 view .LVU440
	.loc 1 584 26 is_stmt 0 view .LVU441
	mov	r2, #-1
	mov	r3, #-1
	strd	r2, [r6, #32]
	.loc 1 585 4 is_stmt 1 view .LVU442
	.loc 1 585 30 is_stmt 0 view .LVU443
	mov	r3, #-1
	str	r3, [r6, #40]
	b	.L55
.LVL111:
.L51:
	.loc 1 585 30 view .LVU444
.LBE368:
	.loc 1 593 7 is_stmt 1 view .LVU445
	mov	r0, r4
.LVL112:
	.loc 1 593 7 is_stmt 0 view .LVU446
	bl	XMC_ETH_MAC_ReturnRxDescriptor
.LVL113:
	.loc 1 516 18 view .LVU447
	movs	r6, #0
.LVL114:
	.loc 1 516 18 view .LVU448
	b	.L50
	.cfi_endproc
.LFE1072:
	.size	low_level_input, .-low_level_input
	.section	.text.ethernetif_input,"ax",%progbits
	.align	1
	.syntax unified
	.thumb
	.thumb_func
	.fpu fpv4-sp-d16
	.type	ethernetif_input, %function
ethernetif_input:
.LVL115:
.LFB1073:
	.loc 1 604 1 is_stmt 1 view -0
	.cfi_startproc
	@ args = 0, pretend = 0, frame = 0
	@ frame_needed = 0, uses_anonymous_args = 0
	.loc 1 604 1 is_stmt 0 view .LVU450
	push	{r4, r5, r6, lr}
	.cfi_def_cfa_offset 16
	.cfi_offset 4, -16
	.cfi_offset 5, -12
	.cfi_offset 6, -8
	.cfi_offset 14, -4
	mov	r6, r0
	mov	r5, r1
	.loc 1 605 2 is_stmt 1 view .LVU451
.LVL116:
	.loc 1 606 2 view .LVU452
	.loc 1 608 2 view .LVU453
	.loc 1 608 8 is_stmt 0 view .LVU454
	bl	low_level_input
.LVL117:
	.loc 1 608 8 view .LVU455
	mov	r4, r0
.LVL118:
	.loc 1 610 2 is_stmt 1 view .LVU456
	.loc 1 610 8 is_stmt 0 view .LVU457
	b	.L62
.L63:
	.loc 1 619 4 is_stmt 1 view .LVU458
	.loc 1 619 8 is_stmt 0 view .LVU459
	mov	r1, r4
	ldr	r0, [r5, #60]
.LVL119:
	.loc 1 619 8 view .LVU460
	bl	net_recv_data
.LVL120:
	.loc 1 620 4 is_stmt 1 view .LVU461
	.loc 1 620 7 is_stmt 0 view .LVU462
	cmp	r0, #0
	blt	.L68
.LVL121:
.L65:
	.loc 1 633 3 is_stmt 1 view .LVU463
	.loc 1 633 9 is_stmt 0 view .LVU464
	mov	r1, r5
	mov	r0, r6
	bl	low_level_input
.LVL122:
	mov	r4, r0
.LVL123:
.L62:
	.loc 1 610 8 is_stmt 1 view .LVU465
	cbz	r4, .L69
	.loc 1 612 3 view .LVU466
.LVL124:
.LBB369:
.LBI369:
	.loc 2 966 24 view .LVU467
.LBB370:
	.loc 2 968 2 view .LVU468
	.loc 2 968 12 is_stmt 0 view .LVU469
	ldr	r3, [r4, #8]
	.loc 2 968 19 view .LVU470
	ldr	r3, [r3, #8]
.LVL125:
	.loc 2 968 19 view .LVU471
.LBE370:
.LBE369:
	.loc 1 612 68 view .LVU472
	ldrh	r2, [r3, #12]	@ unaligned
.LVL126:
	.loc 2 968 2 is_stmt 1 view .LVU473
	.loc 1 612 90 is_stmt 0 view .LVU474
	lsls	r3, r2, #8
	orr	r3, r3, r2, lsr #8
	.loc 1 612 12 view .LVU475
	uxth	r3, r3
	.loc 1 612 3 view .LVU476
	movw	r2, #2054
	cmp	r3, r2
	beq	.L63
	movw	r2, #35063
	cmp	r3, r2
	beq	.L63
	cmp	r3, #2048
	beq	.L63
	.loc 1 629 4 is_stmt 1 view .LVU477
	mov	r0, r4
	.loc 1 629 4 is_stmt 0 view .LVU478
	bl	net_pkt_unref
.LVL127:
	.loc 1 630 4 is_stmt 1 view .LVU479
	b	.L65
.LVL128:
.L68:
	.loc 1 622 5 view .LVU480
.LBB371:
	.loc 1 622 10 view .LVU481
.LBE371:
	.loc 1 622 92 view .LVU482
	.loc 1 623 5 view .LVU483
	mov	r0, r4
.LVL129:
	.loc 1 623 5 is_stmt 0 view .LVU484
	bl	net_pkt_unref
.LVL130:
	b	.L65
.LVL131:
.L69:
	.loc 1 635 1 view .LVU485
	pop	{r4, r5, r6, pc}
	.loc 1 635 1 view .LVU486
	.cfi_endproc
.LFE1073:
	.size	ethernetif_input, .-ethernetif_input
	.section	.text.xmc_eth_rx_thread,"ax",%progbits
	.align	1
	.syntax unified
	.thumb
	.thumb_func
	.fpu fpv4-sp-d16
	.type	xmc_eth_rx_thread, %function
xmc_eth_rx_thread:
.LVL132:
.LFB1074:
	.loc 1 639 1 is_stmt 1 view -0
	.cfi_startproc
	@ args = 0, pretend = 0, frame = 0
	@ frame_needed = 0, uses_anonymous_args = 0
	.loc 1 639 1 is_stmt 0 view .LVU488
	push	{r4, lr}
	.cfi_def_cfa_offset 8
	.cfi_offset 4, -8
	.cfi_offset 14, -4
	mov	r4, r0
	.loc 1 640 2 is_stmt 1 view .LVU489
.LVL133:
	.loc 1 641 2 view .LVU490
.LBB372:
	.loc 1 641 7 view .LVU491
	b	.L72
.LVL134:
.L74:
	.loc 1 641 7 is_stmt 0 view .LVU492
.LBE372:
.LBB373:
	.loc 1 646 4 is_stmt 1 view .LVU493
.LBB374:
	.loc 1 646 9 view .LVU494
.LBE374:
	.loc 1 646 82 view .LVU495
	.loc 1 648 4 view .LVU496
	mov	r1, r4
	mov	r0, r4
	bl	ethernetif_input
.LVL135:
	.loc 1 650 4 view .LVU497
	movs	r1, #64
	mov	r0, r4
	bl	XMC_ETH_MAC_EnableEvent
.LVL136:
.LBE373:
	.loc 1 652 3 view .LVU498
.LBB377:
	.loc 1 652 8 view .LVU499
.L72:
	.loc 1 652 8 is_stmt 0 view .LVU500
.LBE377:
	.loc 1 641 65 is_stmt 1 view .LVU501
	.loc 1 643 2 view .LVU502
	.loc 1 645 3 view .LVU503
.LBB378:
	.loc 1 645 7 is_stmt 0 view .LVU504
	addw	r0, r4, #2012
.LBB375:
.LBI375:
	.loc 5 1015 19 is_stmt 1 view .LVU505
.LBB376:
	.loc 5 1025 2 view .LVU506
	.loc 5 1025 7 view .LVU507
	.loc 5 1025 55 view .LVU508
	.loc 5 1026 2 view .LVU509
	.loc 5 1026 9 is_stmt 0 view .LVU510
	mov	r2, #-1
	mov	r3, #-1
	bl	z_impl_k_sem_take
.LVL137:
.LBE376:
.LBE375:
	.loc 1 645 6 view .LVU511
	cmp	r0, #0
	bne	.L72
	b	.L74
.LBE378:
	.cfi_endproc
.LFE1074:
	.size	xmc_eth_rx_thread, .-xmc_eth_rx_thread
	.global	__aeabi_dcmpeq
	.global	__aeabi_dmul
	.global	__aeabi_dcmplt
	.global	__aeabi_dcmpgt
	.global	__aeabi_d2uiz
	.section	.text.ptp_clock_xmc_rate_adjust,"ax",%progbits
	.align	1
	.syntax unified
	.thumb
	.thumb_func
	.fpu fpv4-sp-d16
	.type	ptp_clock_xmc_rate_adjust, %function
ptp_clock_xmc_rate_adjust:
.LVL138:
.LFB1080:
	.loc 1 964 1 is_stmt 1 view -0
	.cfi_startproc
	@ args = 0, pretend = 0, frame = 0
	@ frame_needed = 0, uses_anonymous_args = 0
	.loc 1 964 1 is_stmt 0 view .LVU513
	push	{r3, r4, r5, r6, r7, r8, r9, lr}
	.cfi_def_cfa_offset 32
	.cfi_offset 3, -32
	.cfi_offset 4, -28
	.cfi_offset 5, -24
	.cfi_offset 6, -20
	.cfi_offset 7, -16
	.cfi_offset 8, -12
	.cfi_offset 9, -8
	.cfi_offset 14, -4
	vmov	r4, r5, d0
	.loc 1 965 2 is_stmt 1 view .LVU514
.LBB379:
	.loc 1 965 7 view .LVU515
.LBE379:
	.loc 1 965 83 view .LVU516
	.loc 1 966 2 view .LVU517
	.loc 1 967 2 view .LVU518
	.loc 1 967 22 is_stmt 0 view .LVU519
	ldr	r3, [r0, #16]
.LVL139:
	.loc 1 968 2 is_stmt 1 view .LVU520
	.loc 1 968 22 is_stmt 0 view .LVU521
	ldr	r6, [r3]
.LVL140:
	.loc 1 969 2 is_stmt 1 view .LVU522
	.loc 1 970 2 view .LVU523
	.loc 1 973 2 view .LVU524
	.loc 1 973 5 is_stmt 0 view .LVU525
	movs	r2, #0
	ldr	r3, .L83+8
.LVL141:
	.loc 1 973 5 view .LVU526
	vmov	r0, s0	@ int
.LVL142:
	.loc 1 973 5 view .LVU527
	mov	r1, r5
	bl	__aeabi_dcmpeq
.LVL143:
	.loc 1 973 5 view .LVU528
	cmp	r0, #0
	bne	.L78
	.loc 1 977 2 is_stmt 1 view .LVU529
.LBB380:
.LBI380:
	.loc 6 43 59 view .LVU530
.LBB381:
	.loc 6 45 2 view .LVU531
	.loc 6 54 2 view .LVU532
	.loc 6 56 2 view .LVU533
	.syntax unified
@ 56 "/home/sebin/thesis/zephyrproject/zephyr/include/arch/arm/aarch32/asm_inline_gcc.h" 1
	mov r3, #4;mrs r7, BASEPRI;msr BASEPRI_MAX, r3;isb;
@ 0 "" 2
.LVL144:
	.loc 6 76 2 view .LVU534
	.loc 6 76 2 is_stmt 0 view .LVU535
	.thumb
	.syntax unified
.LBE381:
.LBE380:
	.loc 1 979 2 is_stmt 1 view .LVU536
	.loc 1 979 8 is_stmt 0 view .LVU537
	mov	r2, r4
	mov	r3, r5
	ldrd	r0, [r6, #96]
	bl	__aeabi_dmul
.LVL145:
	mov	r8, r0
	mov	r9, r1
.LVL146:
	.loc 1 983 2 is_stmt 1 view .LVU538
	.loc 1 983 12 is_stmt 0 view .LVU539
	movs	r2, #0
	ldr	r3, .L83+12
	bl	__aeabi_dmul
.LVL147:
	mov	r4, r0
	mov	r5, r1
	.loc 1 983 5 view .LVU540
	movs	r2, #0
	ldr	r3, .L83+16
	bl	__aeabi_dcmplt
.LVL148:
	cbnz	r0, .L79
	.loc 1 983 23 discriminator 1 view .LVU541
	movs	r2, #0
	ldr	r3, .L83+20
	mov	r0, r4
	mov	r1, r5
	bl	__aeabi_dcmpgt
.LVL149:
	cbz	r0, .L82
	.loc 1 985 7 view .LVU542
	mvn	r0, #21
	b	.L77
.L82:
	.loc 1 993 2 is_stmt 1 view .LVU543
	.loc 1 993 25 is_stmt 0 view .LVU544
	strd	r8, [r6, #96]
	.loc 1 996 2 is_stmt 1 view .LVU545
	.loc 1 996 28 is_stmt 0 view .LVU546
	adr	r3, .L83
	ldrd	r2, [r3]
	ldrd	r0, [r6, #88]
	bl	__aeabi_dmul
.LVL150:
	.loc 1 996 49 view .LVU547
	mov	r2, r8
	mov	r3, r9
	bl	__aeabi_dmul
.LVL151:
	.loc 1 996 13 view .LVU548
	bl	__aeabi_d2uiz
.LVL152:
	mov	r1, r0
.LVL153:
	.loc 1 998 2 is_stmt 1 view .LVU549
.LBB382:
	.loc 1 998 7 view .LVU550
.LBE382:
	.loc 1 998 159 view .LVU551
	.loc 1 1000 2 view .LVU552
	mov	r0, r6
.LVL154:
	.loc 1 1000 2 is_stmt 0 view .LVU553
	bl	XMC_ETH_MAC_UpdateAddend
.LVL155:
	.loc 1 1002 2 is_stmt 1 view .LVU554
	.loc 1 1002 6 is_stmt 0 view .LVU555
	movs	r0, #0
	b	.L77
.LVL156:
.L79:
	.loc 1 985 7 view .LVU556
	mvn	r0, #21
.L77:
.LVL157:
	.loc 1 1005 2 is_stmt 1 view .LVU557
.LBB383:
.LBI383:
	.loc 6 84 51 view .LVU558
.LBB384:
	.loc 6 95 2 view .LVU559
	.syntax unified
@ 95 "/home/sebin/thesis/zephyrproject/zephyr/include/arch/arm/aarch32/asm_inline_gcc.h" 1
	msr BASEPRI, r7;isb;
@ 0 "" 2
.LVL158:
	.loc 6 95 2 is_stmt 0 view .LVU560
	.thumb
	.syntax unified
.LBE384:
.LBE383:
	.loc 1 1007 2 is_stmt 1 view .LVU561
.L75:
	.loc 1 1008 1 is_stmt 0 view .LVU562
	pop	{r3, r4, r5, r6, r7, r8, r9, pc}
.LVL159:
.L78:
	.loc 1 974 10 view .LVU563
	movs	r0, #0
	b	.L75
.L84:
	.align	3
.L83:
	.word	4292870144
	.word	1106247679
	.word	1072693248
	.word	1079574528
	.word	1079410688
	.word	1079738368
	.cfi_endproc
.LFE1080:
	.size	ptp_clock_xmc_rate_adjust, .-ptp_clock_xmc_rate_adjust
	.section	.text.ptp_clock_xmc_adjust,"ax",%progbits
	.align	1
	.syntax unified
	.thumb
	.thumb_func
	.fpu fpv4-sp-d16
	.type	ptp_clock_xmc_adjust, %function
ptp_clock_xmc_adjust:
.LVL160:
.LFB1079:
	.loc 1 939 1 is_stmt 1 view -0
	.cfi_startproc
	@ args = 0, pretend = 0, frame = 8
	@ frame_needed = 0, uses_anonymous_args = 0
	.loc 1 940 2 view .LVU565
.LBB385:
	.loc 1 940 7 view .LVU566
.LBE385:
	.loc 1 940 92 view .LVU567
	.loc 1 941 2 view .LVU568
	.loc 1 942 2 view .LVU569
	.loc 1 942 22 is_stmt 0 view .LVU570
	ldr	r3, [r0, #16]
.LVL161:
	.loc 1 943 2 is_stmt 1 view .LVU571
	.loc 1 943 22 is_stmt 0 view .LVU572
	ldr	r0, [r3]
.LVL162:
	.loc 1 944 2 is_stmt 1 view .LVU573
	.loc 1 946 2 view .LVU574
	.loc 1 946 63 is_stmt 0 view .LVU575
	ldr	r3, .L92
.LVL163:
	.loc 1 946 63 view .LVU576
	add	r3, r3, r1
	.loc 1 946 5 view .LVU577
	ldr	r2, .L92+4
	cmp	r3, r2
	bcs	.L87
	.loc 1 939 1 view .LVU578
	push	{r4, r5, lr}
	.cfi_def_cfa_offset 12
	.cfi_offset 4, -12
	.cfi_offset 5, -8
	.cfi_offset 14, -4
	sub	sp, sp, #12
	.cfi_def_cfa_offset 24
	.loc 1 951 3 is_stmt 1 view .LVU579
.LBB386:
.LBI386:
	.loc 6 43 59 view .LVU580
.LBB387:
	.loc 6 45 2 view .LVU581
	.loc 6 54 2 view .LVU582
	.loc 6 56 2 view .LVU583
	.syntax unified
@ 56 "/home/sebin/thesis/zephyrproject/zephyr/include/arch/arm/aarch32/asm_inline_gcc.h" 1
	mov r3, #4;mrs r5, BASEPRI;msr BASEPRI_MAX, r3;isb;
@ 0 "" 2
.LVL164:
	.loc 6 76 2 view .LVU584
	.loc 6 76 2 is_stmt 0 view .LVU585
	.thumb
	.syntax unified
.LBE387:
.LBE386:
	.loc 1 952 3 is_stmt 1 view .LVU586
	.loc 1 952 20 is_stmt 0 view .LVU587
	movs	r4, #0
	str	r4, [sp]
	.loc 1 953 3 is_stmt 1 view .LVU588
	.loc 1 953 24 is_stmt 0 view .LVU589
	str	r1, [sp, #4]
	.loc 1 954 3 is_stmt 1 view .LVU590
	mov	r1, sp
.LVL165:
	.loc 1 954 3 is_stmt 0 view .LVU591
	bl	XMC_ETH_MAC_UpdatePTPTime
.LVL166:
	.loc 1 955 3 is_stmt 1 view .LVU592
	.loc 1 956 3 view .LVU593
.LBB388:
.LBI388:
	.loc 6 84 51 view .LVU594
.LBB389:
	.loc 6 95 2 view .LVU595
	.syntax unified
@ 95 "/home/sebin/thesis/zephyrproject/zephyr/include/arch/arm/aarch32/asm_inline_gcc.h" 1
	msr BASEPRI, r5;isb;
@ 0 "" 2
	.thumb
	.syntax unified
.LBE389:
.LBE388:
	.loc 1 955 7 is_stmt 0 view .LVU596
	mov	r0, r4
	.loc 1 960 1 view .LVU597
	add	sp, sp, #12
	.cfi_def_cfa_offset 12
	@ sp needed
	pop	{r4, r5, pc}
.LVL167:
.L87:
	.cfi_def_cfa_offset 0
	.cfi_restore 4
	.cfi_restore 5
	.cfi_restore 14
	.loc 1 948 7 view .LVU598
	mvn	r0, #21
.LVL168:
	.loc 1 959 2 is_stmt 1 view .LVU599
	.loc 1 960 1 is_stmt 0 view .LVU600
	bx	lr
.L93:
	.align	2
.L92:
	.word	999999999
	.word	1999999999
	.cfi_endproc
.LFE1079:
	.size	ptp_clock_xmc_adjust, .-ptp_clock_xmc_adjust
	.global	__aeabi_i2d
	.section	.text.ptp_clock_xmc_get,"ax",%progbits
	.align	1
	.syntax unified
	.thumb
	.thumb_func
	.fpu fpv4-sp-d16
	.type	ptp_clock_xmc_get, %function
ptp_clock_xmc_get:
.LVL169:
.LFB1078:
	.loc 1 917 1 is_stmt 1 view -0
	.cfi_startproc
	@ args = 0, pretend = 0, frame = 8
	@ frame_needed = 0, uses_anonymous_args = 0
	.loc 1 917 1 is_stmt 0 view .LVU602
	push	{r4, r5, lr}
	.cfi_def_cfa_offset 12
	.cfi_offset 4, -12
	.cfi_offset 5, -8
	.cfi_offset 14, -4
	sub	sp, sp, #12
	.cfi_def_cfa_offset 24
	mov	r4, r1
	.loc 1 918 2 is_stmt 1 view .LVU603
.LBB390:
	.loc 1 918 7 view .LVU604
.LBE390:
	.loc 1 918 66 view .LVU605
	.loc 1 919 2 view .LVU606
	.loc 1 920 2 view .LVU607
	.loc 1 920 22 is_stmt 0 view .LVU608
	ldr	r3, [r0, #16]
.LVL170:
	.loc 1 921 2 is_stmt 1 view .LVU609
	.loc 1 923 2 view .LVU610
	mov	r1, sp
.LVL171:
	.loc 1 923 2 is_stmt 0 view .LVU611
	ldr	r0, [r3]
.LVL172:
	.loc 1 923 2 view .LVU612
	bl	XMC_ETH_MAC_GetPTPTime
.LVL173:
	.loc 1 925 2 is_stmt 1 view .LVU613
.LBB391:
	.loc 1 925 7 view .LVU614
.LBE391:
	.loc 1 925 154 view .LVU615
	.loc 1 927 2 view .LVU616
	.loc 1 927 25 is_stmt 0 view .LVU617
	ldr	r3, [sp]
	.loc 1 927 15 view .LVU618
	str	r3, [r4]
	.loc 1 928 2 is_stmt 1 view .LVU619
	.loc 1 928 16 is_stmt 0 view .LVU620
	movs	r5, #0
	strh	r5, [r4, #4]	@ movhi
	.loc 1 929 2 is_stmt 1 view .LVU621
	.loc 1 929 18 is_stmt 0 view .LVU622
	strh	r5, [r4, #6]	@ movhi
	.loc 1 931 2 is_stmt 1 view .LVU623
	.loc 1 931 30 is_stmt 0 view .LVU624
	ldr	r0, [sp, #4]
	bl	__aeabi_i2d
.LVL174:
	vmov	d0, r0, r1
	bl	fabs
.LVL175:
	vmov	r0, r1, d0
	.loc 1 931 19 view .LVU625
	bl	__aeabi_d2uiz
.LVL176:
	.loc 1 931 17 view .LVU626
	str	r0, [r4, #8]
	.loc 1 932 2 is_stmt 1 view .LVU627
.LBB392:
	.loc 1 932 7 view .LVU628
.LBE392:
	.loc 1 932 253 view .LVU629
	.loc 1 935 2 view .LVU630
	.loc 1 936 1 is_stmt 0 view .LVU631
	mov	r0, r5
	add	sp, sp, #12
	.cfi_def_cfa_offset 12
	@ sp needed
	pop	{r4, r5, pc}
	.loc 1 936 1 view .LVU632
	.cfi_endproc
.LFE1078:
	.size	ptp_clock_xmc_get, .-ptp_clock_xmc_get
	.section	.text.ptp_clock_xmc_set,"ax",%progbits
	.align	1
	.syntax unified
	.thumb
	.thumb_func
	.fpu fpv4-sp-d16
	.type	ptp_clock_xmc_set, %function
ptp_clock_xmc_set:
.LVL177:
.LFB1077:
	.loc 1 889 1 is_stmt 1 view -0
	.cfi_startproc
	@ args = 0, pretend = 0, frame = 8
	@ frame_needed = 0, uses_anonymous_args = 0
	.loc 1 889 1 is_stmt 0 view .LVU634
	push	{lr}
	.cfi_def_cfa_offset 4
	.cfi_offset 14, -4
	sub	sp, sp, #12
	.cfi_def_cfa_offset 16
	.loc 1 890 2 is_stmt 1 view .LVU635
.LBB393:
	.loc 1 890 7 view .LVU636
.LBE393:
	.loc 1 890 66 view .LVU637
	.loc 1 891 2 view .LVU638
	.loc 1 891 22 is_stmt 0 view .LVU639
	ldr	r3, [r0, #16]
.LVL178:
	.loc 1 892 2 is_stmt 1 view .LVU640
	.loc 1 892 22 is_stmt 0 view .LVU641
	ldr	r0, [r3]
.LVL179:
	.loc 1 893 2 is_stmt 1 view .LVU642
	.loc 1 895 2 view .LVU643
.LBB394:
	.loc 1 895 7 view .LVU644
.LBE394:
	.loc 1 895 253 view .LVU645
	.loc 1 898 2 view .LVU646
	.loc 1 898 29 is_stmt 0 view .LVU647
	ldr	r3, [r1]
.LVL180:
	.loc 1 898 19 view .LVU648
	str	r3, [sp]
	.loc 1 899 2 is_stmt 1 view .LVU649
	.loc 1 899 8 is_stmt 0 view .LVU650
	ldr	r3, [r1, #8]
	.loc 1 899 5 view .LVU651
	cmp	r3, #0
	blt	.L100
	.loc 1 906 3 is_stmt 1 view .LVU652
	.loc 1 906 24 is_stmt 0 view .LVU653
	str	r3, [sp, #4]
.L98:
	.loc 1 909 2 is_stmt 1 view .LVU654
.LBB395:
	.loc 1 909 7 view .LVU655
.LBE395:
	.loc 1 909 157 view .LVU656
	.loc 1 910 2 view .LVU657
	mov	r1, sp
.LVL181:
	.loc 1 910 2 is_stmt 0 view .LVU658
	bl	XMC_ETH_MAC_SetPTPTime
.LVL182:
	.loc 1 912 2 is_stmt 1 view .LVU659
	.loc 1 913 1 is_stmt 0 view .LVU660
	movs	r0, #0
	add	sp, sp, #12
	.cfi_remember_state
	.cfi_def_cfa_offset 4
	@ sp needed
	ldr	pc, [sp], #4
.LVL183:
.L100:
	.cfi_restore_state
	.loc 1 901 3 is_stmt 1 view .LVU661
.LBB396:
	.loc 1 901 8 view .LVU662
.LBE396:
	.loc 1 901 97 view .LVU663
	.loc 1 902 3 view .LVU664
	.loc 1 902 24 is_stmt 0 view .LVU665
	mvn	r3, #-2147483648
	str	r3, [sp, #4]
	b	.L98
	.cfi_endproc
.LFE1077:
	.size	ptp_clock_xmc_set, .-ptp_clock_xmc_set
	.global	__aeabi_ui2d
	.global	__aeabi_ddiv
	.section	.text.ptp_xmc_init,"ax",%progbits
	.align	1
	.syntax unified
	.thumb
	.thumb_func
	.fpu fpv4-sp-d16
	.type	ptp_xmc_init, %function
ptp_xmc_init:
.LVL184:
.LFB1081:
	.loc 1 1020 1 is_stmt 1 view -0
	.cfi_startproc
	@ args = 0, pretend = 0, frame = 32
	@ frame_needed = 0, uses_anonymous_args = 0
	.loc 1 1020 1 is_stmt 0 view .LVU667
	push	{r4, r5, r6, lr}
	.cfi_def_cfa_offset 16
	.cfi_offset 4, -16
	.cfi_offset 5, -12
	.cfi_offset 6, -8
	.cfi_offset 14, -4
	sub	sp, sp, #32
	.cfi_def_cfa_offset 48
	.loc 1 1021 2 is_stmt 1 view .LVU668
.LBB397:
	.loc 1 1021 7 view .LVU669
.LBE397:
	.loc 1 1021 66 view .LVU670
	.loc 1 1023 2 view .LVU671
.LVL185:
	.loc 1 1024 2 view .LVU672
	.loc 1 1025 2 view .LVU673
	.loc 1 1025 21 is_stmt 0 view .LVU674
	ldr	r4, .L103+8
	str	r0, [r4, #84]
	.loc 1 1026 2 is_stmt 1 view .LVU675
	.loc 1 1026 22 is_stmt 0 view .LVU676
	ldr	r3, [r0, #16]
.LVL186:
	.loc 1 1027 2 is_stmt 1 view .LVU677
	.loc 1 1027 27 is_stmt 0 view .LVU678
	str	r4, [r3]
	.loc 1 1030 2 is_stmt 1 view .LVU679
.LBB398:
.LBI398:
	.file 10 "/home/sebin/thesis/zephyrproject/modules/hal/infineon/XMCLib/drivers/inc/xmc4_scu.h"
	.loc 10 2576 24 view .LVU680
.LBB399:
	.loc 10 2578 3 view .LVU681
	.loc 10 2578 65 is_stmt 0 view .LVU682
	ldr	r3, .L103+12
.LVL187:
	.loc 10 2578 65 view .LVU683
	ldr	r3, [r3, #16]
	.loc 10 2578 87 view .LVU684
	and	r3, r3, #1
	.loc 10 2578 26 view .LVU685
	ldr	r2, .L103+16
	ldr	r0, [r2]
.LVL188:
	.loc 10 2578 26 view .LVU686
.LBE399:
.LBE398:
	.loc 1 1031 27 view .LVU687
	lsls	r0, r0, r3
	bl	__aeabi_ui2d
.LVL189:
	mov	r2, r0
	mov	r3, r1
	.loc 1 1031 24 view .LVU688
	adr	r1, .L103
	ldrd	r0, [r1]
	bl	__aeabi_ddiv
.LVL190:
	.loc 1 1030 21 view .LVU689
	strd	r0, [r4, #88]
	.loc 1 1032 2 is_stmt 1 view .LVU690
	.loc 1 1032 25 is_stmt 0 view .LVU691
	movs	r2, #0
	ldr	r3, .L103+20
	strd	r2, [r4, #96]
	.loc 1 1033 2 is_stmt 1 view .LVU692
.LBB400:
	.loc 1 1033 7 view .LVU693
.LBE400:
	.loc 1 1033 184 view .LVU694
	.loc 1 1041 2 view .LVU695
	.loc 1 1041 21 is_stmt 0 view .LVU696
	movs	r5, #0
	str	r5, [sp, #28]
	.loc 1 1047 2 is_stmt 1 view .LVU697
	.loc 1 1047 19 is_stmt 0 view .LVU698
	str	r5, [sp, #24]
	.loc 1 1048 2 is_stmt 1 view .LVU699
	.loc 1 1051 2 view .LVU700
	add	r2, sp, #24
	movw	r1, #15618
	mov	r0, r4
	bl	XMC_ETH_MAC_InitPTPEx
.LVL191:
	.loc 1 1059 2 view .LVU701
	.loc 1 1059 20 is_stmt 0 view .LVU702
	ldr	r3, .L103+24
	add	r6, sp, #12
	ldm	r3, {r0, r1, r2}
	stm	r6, {r0, r1, r2}
	.loc 1 1064 2 is_stmt 1 view .LVU703
	mov	r2, r6
	movs	r1, #6
	ldr	r0, .L103+28
	bl	XMC_GPIO_Init
.LVL192:
	.loc 1 1065 2 view .LVU704
	mov	r2, r6
	mov	r1, r5
	ldr	r0, .L103+32
	bl	XMC_GPIO_Init
.LVL193:
	.loc 1 1067 2 view .LVU705
	.loc 1 1067 21 is_stmt 0 view .LVU706
	movs	r3, #1
	str	r3, [sp, #4]
	str	r5, [sp, #8]
	.loc 1 1072 2 is_stmt 1 view .LVU707
	add	r1, sp, #4
	mov	r0, r4
	bl	XMC_ETH_MAC_SetPTPAlarm
.LVL194:
	.loc 1 1073 2 view .LVU708
	mov	r1, #33554432
	mov	r0, r4
	bl	XMC_ETH_MAC_ClearEventStatus
.LVL195:
	.loc 1 1074 2 view .LVU709
.LBB401:
.LBI401:
	.loc 4 1838 20 view .LVU710
.LBB402:
	.loc 4 1840 3 view .LVU711
	.loc 4 1840 10 is_stmt 0 view .LVU712
	ldr	r2, [r4]
	.loc 4 1840 36 view .LVU713
	ldr	r3, [r2, #1792]
	orr	r3, r3, #16
	str	r3, [r2, #1792]
.LVL196:
	.loc 4 1840 36 view .LVU714
.LBE402:
.LBE401:
	.loc 1 1078 2 is_stmt 1 view .LVU715
	.loc 1 1080 1 is_stmt 0 view .LVU716
	mov	r0, r5
	add	sp, sp, #32
	.cfi_def_cfa_offset 16
	@ sp needed
	pop	{r4, r5, r6, pc}
.L104:
	.align	3
.L103:
	.word	0
	.word	1099421572
	.word	.LANCHOR1
	.word	1342195200
	.word	SystemCoreClock
	.word	1072693248
	.word	.LANCHOR2
	.word	1208123904
	.word	1208123648
	.cfi_endproc
.LFE1081:
	.size	ptp_xmc_init, .-ptp_xmc_init
	.section	.text.ETH_LWIP_Error,"ax",%progbits
	.align	1
	.global	ETH_LWIP_Error
	.syntax unified
	.thumb
	.thumb_func
	.fpu fpv4-sp-d16
	.type	ETH_LWIP_Error, %function
ETH_LWIP_Error:
.LFB1060:
	.loc 1 40 1 is_stmt 1 view -0
	.cfi_startproc
	@ Volatile: function does not return.
	@ args = 0, pretend = 0, frame = 0
	@ frame_needed = 0, uses_anonymous_args = 0
	@ link register save eliminated.
.LVL197:
.L106:
	.loc 1 73 4 discriminator 1 view .LVU718
	.loc 1 73 12 discriminator 1 view .LVU719
	.loc 1 73 10 discriminator 1 view .LVU720
	b	.L106
	.cfi_endproc
.LFE1060:
	.size	ETH_LWIP_Error, .-ETH_LWIP_Error
	.section	.text.xmc_eth_iface_init,"ax",%progbits
	.align	1
	.syntax unified
	.thumb
	.thumb_func
	.fpu fpv4-sp-d16
	.type	xmc_eth_iface_init, %function
xmc_eth_iface_init:
.LVL198:
.LFB1061:
	.loc 1 77 1 view -0
	.cfi_startproc
	@ args = 0, pretend = 0, frame = 0
	@ frame_needed = 0, uses_anonymous_args = 0
	.loc 1 77 1 is_stmt 0 view .LVU722
	push	{r4, r5, r6, lr}
	.cfi_def_cfa_offset 16
	.cfi_offset 4, -16
	.cfi_offset 5, -12
	.cfi_offset 6, -8
	.cfi_offset 14, -4
	.loc 1 78 2 is_stmt 1 view .LVU723
.LBB403:
	.loc 1 78 7 view .LVU724
.LBE403:
	.loc 1 78 66 view .LVU725
	.loc 1 79 2 view .LVU726
.LVL199:
.LBB404:
.LBI404:
	.loc 9 606 36 view .LVU727
.LBB405:
	.loc 9 608 2 view .LVU728
	.loc 9 608 14 is_stmt 0 view .LVU729
	ldr	r3, [r0]
	.loc 9 608 22 view .LVU730
	ldr	r3, [r3]
.LVL200:
	.loc 9 608 22 view .LVU731
.LBE405:
.LBE404:
	.loc 1 80 2 is_stmt 1 view .LVU732
	.loc 1 80 22 is_stmt 0 view .LVU733
	ldr	r5, [r3, #16]
.LVL201:
	.loc 1 81 2 is_stmt 1 view .LVU734
	.loc 1 82 2 view .LVU735
	.loc 1 83 4 view .LVU736
	.loc 1 84 3 view .LVU737
	.loc 1 85 4 view .LVU738
	.loc 1 87 2 view .LVU739
	.loc 1 87 6 is_stmt 0 view .LVU740
	ldr	r3, .L114
.LVL202:
	.loc 1 87 6 view .LVU741
	ldrb	r3, [r3]	@ zero_extendqisi2
	.loc 1 87 5 view .LVU742
	cmp	r3, #0
	beq	.L107
	mov	r6, r0
	.loc 1 90 3 is_stmt 1 view .LVU743
	.loc 1 90 7 is_stmt 0 view .LVU744
	ldr	r3, .L114+4
	ldrb	r3, [r3]	@ zero_extendqisi2
	.loc 1 90 6 view .LVU745
	cmp	r3, #0
	bne	.L107
	.loc 1 96 3 is_stmt 1 view .LVU746
	.loc 1 96 30 is_stmt 0 view .LVU747
	ldrb	r3, [r5, #54]	@ zero_extendqisi2
	.loc 1 96 6 view .LVU748
	cbz	r3, .L109
	.loc 1 85 13 view .LVU749
	movs	r4, #0
.LVL203:
.L111:
	.loc 1 98 4 is_stmt 1 discriminator 2 view .LVU750
	.loc 1 100 5 discriminator 2 view .LVU751
	.loc 1 100 25 is_stmt 0 discriminator 2 view .LVU752
	movs	r1, #0
	mov	r0, r5
	bl	XMC_ETH_PHY_IsAutonegotiationCompleted
.LVL204:
	.loc 1 101 5 is_stmt 1 discriminator 2 view .LVU753
	.loc 1 101 12 is_stmt 0 discriminator 2 view .LVU754
	adds	r4, r4, #1
.LVL205:
	.loc 1 102 12 is_stmt 1 discriminator 2 view .LVU755
	.loc 1 102 39 is_stmt 0 discriminator 2 view .LVU756
	mov	r2, r0
	cbnz	r0, .L110
	.loc 1 102 41 discriminator 1 view .LVU757
	ldr	r3, .L114+8
	cmp	r4, r3
	bls	.L111
.L110:
	.loc 1 104 4 is_stmt 1 view .LVU758
	.loc 1 104 7 is_stmt 0 view .LVU759
	cmp	r2, #0
	beq	.L113
.LVL206:
.L109:
	.loc 1 110 3 is_stmt 1 view .LVU760
	.loc 1 110 11 is_stmt 0 view .LVU761
	movs	r1, #0
	mov	r0, r5
	bl	XMC_ETH_PHY_GetLinkSpeed
.LVL207:
	mov	r4, r0
.LVL208:
	.loc 1 111 3 is_stmt 1 view .LVU762
	.loc 1 111 12 is_stmt 0 view .LVU763
	movs	r1, #0
	mov	r0, r5
	bl	XMC_ETH_PHY_GetLinkDuplex
.LVL209:
	.loc 1 114 3 is_stmt 1 view .LVU764
.LBB406:
.LBI406:
	.loc 4 1278 20 view .LVU765
.LBB407:
	.loc 4 1282 3 view .LVU766
	.loc 4 1282 46 is_stmt 0 view .LVU767
	ldr	r2, [r5]
	.loc 4 1282 52 view .LVU768
	ldr	r3, [r2]
	.loc 4 1282 72 view .LVU769
	bic	r3, r3, #18432
	.loc 4 1283 76 view .LVU770
	orrs	r3, r3, r4
	.loc 4 1284 54 view .LVU771
	orrs	r3, r3, r0
	.loc 4 1282 36 view .LVU772
	str	r3, [r2]
.LVL210:
	.loc 4 1282 36 view .LVU773
.LBE407:
.LBE406:
	.loc 1 116 3 is_stmt 1 view .LVU774
	movs	r1, #64
	mov	r0, r5
.LVL211:
	.loc 1 116 3 is_stmt 0 view .LVU775
	bl	XMC_ETH_MAC_EnableEvent
.LVL212:
	.loc 1 118 3 is_stmt 1 view .LVU776
	mov	r1, #33554432
	mov	r0, r5
	bl	XMC_ETH_MAC_EnableEvent
.LVL213:
	.loc 1 130 3 view .LVU777
.LBB408:
.LBI408:
	.loc 9 768 19 view .LVU778
.LBB409:
	.loc 9 775 2 view .LVU779
	.loc 9 775 9 is_stmt 0 view .LVU780
	movs	r3, #3
	movs	r2, #6
	add	r1, r5, #72
.LVL214:
	.loc 9 775 9 view .LVU781
	mov	r0, r6
	bl	net_if_set_link_addr_locked
.LVL215:
	.loc 9 775 9 view .LVU782
.LBE409:
.LBE408:
	.loc 1 135 3 is_stmt 1 view .LVU783
	.loc 1 135 18 is_stmt 0 view .LVU784
	str	r6, [r5, #60]
	.loc 1 138 3 is_stmt 1 view .LVU785
	mov	r0, r6
	bl	ethernet_init
.LVL216:
	.loc 1 142 3 view .LVU786
	.loc 1 142 10 is_stmt 0 view .LVU787
	ldr	r3, [r5, #56]
	.loc 1 142 3 view .LVU788
	blx	r3
.LVL217:
	.loc 1 144 3 is_stmt 1 view .LVU789
.LBB410:
.LBI410:
	.loc 4 1402 20 view .LVU790
.LBB411:
	.loc 4 1404 3 view .LVU791
	.loc 4 1404 10 is_stmt 0 view .LVU792
	ldr	r1, [r5]
	.loc 4 1404 33 view .LVU793
	movw	r3, #4120
	ldr	r2, [r1, r3]
	orr	r2, r2, #8192
	str	r2, [r1, r3]
	.loc 4 1405 3 is_stmt 1 view .LVU794
	.loc 4 1405 10 is_stmt 0 view .LVU795
	ldr	r1, [r5]
	.loc 4 1405 36 view .LVU796
	ldr	r2, [r1]
	orr	r2, r2, #8
	str	r2, [r1]
.LVL218:
	.loc 4 1405 36 view .LVU797
.LBE411:
.LBE410:
	.loc 1 145 3 is_stmt 1 view .LVU798
.LBB412:
.LBI412:
	.loc 4 1368 20 view .LVU799
.LBB413:
	.loc 4 1370 3 view .LVU800
	.loc 4 1370 10 is_stmt 0 view .LVU801
	ldr	r1, [r5]
	.loc 4 1370 33 view .LVU802
	ldr	r2, [r1, r3]
	orr	r2, r2, #2
	str	r2, [r1, r3]
	.loc 4 1371 3 is_stmt 1 view .LVU803
	.loc 4 1371 10 is_stmt 0 view .LVU804
	ldr	r2, [r5]
	.loc 4 1371 36 view .LVU805
	ldr	r3, [r2]
	orr	r3, r3, #4
	str	r3, [r2]
.LVL219:
	.loc 4 1371 36 view .LVU806
.LBE413:
.LBE412:
	.loc 1 146 3 is_stmt 1 view .LVU807
	.loc 1 146 13 is_stmt 0 view .LVU808
	ldr	r3, .L114+4
	movs	r2, #1
	strb	r2, [r3]
.LVL220:
.L107:
	.loc 1 148 1 view .LVU809
	pop	{r4, r5, r6, pc}
.LVL221:
.L113:
	.loc 1 106 5 is_stmt 1 view .LVU810
	movs	r0, #4
.LVL222:
	.loc 1 106 5 is_stmt 0 view .LVU811
	bl	ETH_LWIP_Error
.LVL223:
.L115:
	.align	2
.L114:
	.word	.LANCHOR0
	.word	.LANCHOR3
	.word	1048574
	.cfi_endproc
.LFE1061:
	.size	xmc_eth_iface_init, .-xmc_eth_iface_init
	.section	.text.low_level_init,"ax",%progbits
	.align	1
	.syntax unified
	.thumb
	.thumb_func
	.fpu fpv4-sp-d16
	.type	low_level_init, %function
low_level_init:
.LVL224:
.LFB1070:
	.loc 1 404 1 is_stmt 1 view -0
	.cfi_startproc
	@ args = 0, pretend = 0, frame = 16
	@ frame_needed = 0, uses_anonymous_args = 0
	.loc 1 404 1 is_stmt 0 view .LVU813
	push	{r4, r5, r6, r7, lr}
	.cfi_def_cfa_offset 20
	.cfi_offset 4, -20
	.cfi_offset 5, -16
	.cfi_offset 6, -12
	.cfi_offset 7, -8
	.cfi_offset 14, -4
	sub	sp, sp, #20
	.cfi_def_cfa_offset 40
	mov	r4, r0
	.loc 1 405 3 is_stmt 1 view .LVU814
.LBB414:
	.loc 1 405 8 view .LVU815
.LBE414:
	.loc 1 405 67 view .LVU816
	.loc 1 407 3 view .LVU817
	.loc 1 408 3 view .LVU818
	.loc 1 410 3 view .LVU819
	.loc 1 410 28 is_stmt 0 view .LVU820
	mov	r3, #65536
	str	r3, [sp, #8]
	.loc 1 411 3 is_stmt 1 view .LVU821
	.loc 1 411 20 is_stmt 0 view .LVU822
	movs	r5, #0
	strb	r5, [sp, #4]
	.loc 1 412 3 is_stmt 1 view .LVU823
	ldr	r7, .L120
	add	r2, sp, #4
	movs	r1, #9
	mov	r0, r7
.LVL225:
	.loc 1 412 3 is_stmt 0 view .LVU824
	bl	XMC_GPIO_Init
.LVL226:
	.loc 1 413 3 is_stmt 1 view .LVU825
	ldr	r6, .L120+4
	add	r2, sp, #4
	movs	r1, #4
	mov	r0, r6
	bl	XMC_GPIO_Init
.LVL227:
	.loc 1 414 3 view .LVU826
	add	r2, sp, #4
	movs	r1, #2
	mov	r0, r6
	bl	XMC_GPIO_Init
.LVL228:
	.loc 1 415 3 view .LVU827
	add	r2, sp, #4
	movs	r1, #3
	mov	r0, r6
	bl	XMC_GPIO_Init
.LVL229:
	.loc 1 416 3 view .LVU828
	add	r2, sp, #4
	movs	r1, #8
	mov	r0, r7
	bl	XMC_GPIO_Init
.LVL230:
	.loc 1 417 3 view .LVU829
	add	r2, sp, #4
	mov	r1, r5
	mov	r0, r6
	bl	XMC_GPIO_Init
.LVL231:
	.loc 1 419 3 view .LVU830
	.loc 1 419 31 is_stmt 0 view .LVU831
	movs	r7, #1
	strb	r7, [sp, #12]
	.loc 1 420 3 is_stmt 1 view .LVU832
	.loc 1 420 20 is_stmt 0 view .LVU833
	movs	r3, #136
	strb	r3, [sp, #4]
	.loc 1 421 3 is_stmt 1 view .LVU834
	add	r2, sp, #4
	movs	r1, #7
	mov	r0, r6
	bl	XMC_GPIO_Init
.LVL232:
	.loc 1 422 3 view .LVU835
	mov	r2, r7
	mov	r1, r5
	mov	r0, r6
	bl	XMC_GPIO_SetHardwareControl
.LVL233:
	.loc 1 424 3 view .LVU836
	.loc 1 424 21 is_stmt 0 view .LVU837
	mov	r3, #67108864
.LVL234:
	.loc 1 425 3 is_stmt 1 view .LVU838
	.loc 1 425 21 is_stmt 0 view .LVU839
	bfi	r3, r5, #0, #2
.LVL235:
	.loc 1 426 3 is_stmt 1 view .LVU840
	.loc 1 426 21 is_stmt 0 view .LVU841
	bfi	r3, r5, #2, #2
	.loc 1 427 3 is_stmt 1 view .LVU842
	.loc 1 427 25 is_stmt 0 view .LVU843
	movs	r2, #2
	bfi	r3, r2, #8, #2
	.loc 1 428 3 is_stmt 1 view .LVU844
	.loc 1 428 23 is_stmt 0 view .LVU845
	bfi	r3, r2, #10, #2
	.loc 1 429 3 is_stmt 1 view .LVU846
	.loc 1 429 21 is_stmt 0 view .LVU847
	bfi	r3, r5, #14, #2
	.loc 1 430 3 is_stmt 1 view .LVU848
	.loc 1 430 21 is_stmt 0 view .LVU849
	bfi	r3, r7, #22, #2
	.loc 1 431 3 is_stmt 1 view .LVU850
.LVL236:
.LBB415:
.LBI415:
	.loc 4 570 20 view .LVU851
.LBB416:
	.loc 4 572 3 view .LVU852
	.loc 4 573 3 view .LVU853
	.loc 4 573 51 is_stmt 0 view .LVU854
	ldr	r2, .L120+8
	str	r3, [r2]
.LVL237:
	.loc 4 573 51 view .LVU855
.LBE416:
.LBE415:
	.loc 1 433 3 is_stmt 1 view .LVU856
	mov	r0, r4
	bl	XMC_ETH_MAC_Enable
.LVL238:
	.loc 1 434 3 view .LVU857
	mov	r0, r4
	bl	XMC_ETH_MAC_SetManagmentClockDivider
.LVL239:
	.loc 1 436 3 view .LVU858
	.loc 1 437 3 view .LVU859
	.loc 1 437 16 is_stmt 0 view .LVU860
	add	r2, r4, #48
	mov	r1, r5
	mov	r0, r4
	bl	XMC_ETH_PHY_Init
.LVL240:
	.loc 1 437 5 view .LVU861
	cmp	r0, #0
	bne	.L119
	.loc 1 443 3 is_stmt 1 view .LVU862
	mov	r0, r4
.LVL241:
	.loc 1 443 3 is_stmt 0 view .LVU863
	bl	XMC_ETH_MAC_InitEx
.LVL242:
	.loc 1 445 3 is_stmt 1 view .LVU864
	ldr	r2, [r4, #8]
	ldr	r1, [r4, #12]
.LVL243:
.LBB417:
.LBI417:
	.loc 4 601 20 view .LVU865
.LBB418:
	.loc 4 603 3 view .LVU866
	.loc 4 603 10 is_stmt 0 view .LVU867
	ldr	r3, [r4]
	.loc 4 603 36 view .LVU868
	str	r1, [r3, #64]
	.loc 4 604 3 is_stmt 1 view .LVU869
	.loc 4 604 10 is_stmt 0 view .LVU870
	ldr	r3, [r4]
	.loc 4 604 35 view .LVU871
	str	r2, [r3, #68]
.LVL244:
	.loc 4 604 35 view .LVU872
.LBE418:
.LBE417:
	.loc 1 446 3 is_stmt 1 view .LVU873
.LBB419:
.LBI419:
	.loc 4 1199 20 view .LVU874
.LBB420:
	.loc 4 1201 3 view .LVU875
	.loc 4 1201 10 is_stmt 0 view .LVU876
	ldr	r2, [r4]
	.loc 4 1201 36 view .LVU877
	ldr	r3, [r2]
	bic	r3, r3, #1048576
	str	r3, [r2]
.LVL245:
	.loc 4 1201 36 view .LVU878
.LBE420:
.LBE419:
	.loc 1 448 3 is_stmt 1 view .LVU879
.LBB421:
.LBI421:
	.loc 4 1057 20 view .LVU880
.LBB422:
	.loc 4 1059 3 view .LVU881
	.loc 4 1059 10 is_stmt 0 view .LVU882
	ldr	r2, [r4]
	.loc 4 1059 35 view .LVU883
	ldr	r3, [r2, #4]
	orr	r3, r3, #1
	str	r3, [r2, #4]
.LVL246:
	.loc 4 1059 35 view .LVU884
.LBE422:
.LBE421:
	.loc 1 450 3 is_stmt 1 view .LVU885
.LBB423:
.LBI423:
	.loc 4 990 20 view .LVU886
.LBB424:
	.loc 4 992 3 view .LVU887
	.loc 4 992 10 is_stmt 0 view .LVU888
	ldr	r2, [r4]
	.loc 4 992 35 view .LVU889
	ldr	r3, [r2, #4]
	bic	r3, r3, #32
	str	r3, [r2, #4]
.LVL247:
	.loc 4 992 35 view .LVU890
.LBE424:
.LBE423:
	.loc 1 451 3 is_stmt 1 view .LVU891
.LBB425:
.LBI425:
	.loc 4 1024 20 view .LVU892
.LBB426:
	.loc 4 1026 3 view .LVU893
	.loc 4 1026 10 is_stmt 0 view .LVU894
	ldr	r2, [r4]
	.loc 4 1026 35 view .LVU895
	ldr	r3, [r2, #4]
	orr	r3, r3, #16
	str	r3, [r2, #4]
.LVL248:
	.loc 4 1026 35 view .LVU896
.LBE426:
.LBE425:
	.loc 1 453 3 is_stmt 1 view .LVU897
	.loc 1 453 31 is_stmt 0 view .LVU898
	movs	r3, #1
	strb	r3, [sp, #12]
	.loc 1 454 3 is_stmt 1 view .LVU899
	.loc 1 454 20 is_stmt 0 view .LVU900
	movs	r5, #136
	strb	r5, [sp, #4]
	.loc 1 455 3 is_stmt 1 view .LVU901
	ldr	r4, .L120+4
.LVL249:
	.loc 1 455 3 is_stmt 0 view .LVU902
	add	r2, sp, #4
	movs	r1, #5
	mov	r0, r4
	bl	XMC_GPIO_Init
.LVL250:
	.loc 1 456 3 is_stmt 1 view .LVU903
	.loc 1 456 20 is_stmt 0 view .LVU904
	strb	r5, [sp, #4]
	.loc 1 457 3 is_stmt 1 view .LVU905
	add	r2, sp, #4
	movs	r1, #8
	mov	r0, r4
	bl	XMC_GPIO_Init
.LVL251:
	.loc 1 458 3 view .LVU906
	.loc 1 458 20 is_stmt 0 view .LVU907
	strb	r5, [sp, #4]
	.loc 1 459 3 is_stmt 1 view .LVU908
	add	r2, sp, #4
	movs	r1, #9
	mov	r0, r4
	bl	XMC_GPIO_Init
.LVL252:
	.loc 1 469 1 is_stmt 0 view .LVU909
	add	sp, sp, #20
	.cfi_remember_state
	.cfi_def_cfa_offset 20
	@ sp needed
	pop	{r4, r5, r6, r7, pc}
.LVL253:
.L119:
	.cfi_restore_state
	.loc 1 439 2 is_stmt 1 view .LVU910
.LBB427:
	.loc 1 439 7 view .LVU911
.LBE427:
	.loc 1 439 129 view .LVU912
	.loc 1 440 5 view .LVU913
	uxtb	r0, r0
.LVL254:
	.loc 1 440 5 is_stmt 0 view .LVU914
	bl	ETH_LWIP_Error
.LVL255:
.L121:
	.align	2
.L120:
	.word	1208127232
	.word	1208123904
	.word	1342193728
	.cfi_endproc
.LFE1070:
	.size	low_level_init, .-low_level_init
	.section	.rodata.xmc_eth_init.str1.4,"aMS",%progbits,1
	.align	2
.LC1:
	.ascii	"xmc_eth_rx\000"
	.section	.text.xmc_eth_init,"ax",%progbits
	.align	1
	.syntax unified
	.thumb
	.thumb_func
	.fpu fpv4-sp-d16
	.type	xmc_eth_init, %function
xmc_eth_init:
.LVL256:
.LFB1071:
	.loc 1 473 1 is_stmt 1 view -0
	.cfi_startproc
	@ args = 0, pretend = 0, frame = 0
	@ frame_needed = 0, uses_anonymous_args = 0
	.loc 1 473 1 is_stmt 0 view .LVU916
	push	{r4, r5, r6, lr}
	.cfi_def_cfa_offset 16
	.cfi_offset 4, -16
	.cfi_offset 5, -12
	.cfi_offset 6, -8
	.cfi_offset 14, -4
	sub	sp, sp, #32
	.cfi_def_cfa_offset 48
	.loc 1 474 2 is_stmt 1 view .LVU917
.LBB428:
	.loc 1 474 7 view .LVU918
.LBE428:
	.loc 1 474 66 view .LVU919
	.loc 1 475 2 view .LVU920
	.loc 1 475 22 is_stmt 0 view .LVU921
	ldr	r4, [r0, #16]
.LVL257:
	.loc 1 481 2 is_stmt 1 view .LVU922
	mov	r0, r4
.LVL258:
	.loc 1 481 2 is_stmt 0 view .LVU923
	bl	low_level_init
.LVL259:
	.loc 1 483 2 is_stmt 1 view .LVU924
	.loc 1 483 14 is_stmt 0 view .LVU925
	movs	r2, #1
	ldr	r3, .L124
	strb	r2, [r3]
	.loc 1 492 2 is_stmt 1 view .LVU926
	.loc 1 492 46 is_stmt 0 view .LVU927
	ldr	r3, .L124+4
	ldr	r1, [r3, #48]
	orr	r1, r1, #1310720
	str	r1, [r3, #48]
	.loc 1 493 2 is_stmt 1 view .LVU928
	.loc 1 493 47 is_stmt 0 view .LVU929
	ldr	r1, [r3, #52]
	orr	r1, r1, #1310720
	str	r1, [r3, #52]
	.loc 1 498 2 is_stmt 1 view .LVU930
	addw	r0, r4, #2012
.LVL260:
.LBB429:
.LBI429:
	.loc 5 999 19 view .LVU931
.LBB430:
	.loc 5 1007 2 view .LVU932
	.loc 5 1007 7 view .LVU933
	.loc 5 1007 55 view .LVU934
	.loc 5 1008 2 view .LVU935
	.loc 5 1008 9 is_stmt 0 view .LVU936
	movs	r1, #0
	bl	z_impl_k_sem_init
.LVL261:
	.loc 5 1008 9 view .LVU937
.LBE430:
.LBE429:
	.loc 1 499 2 is_stmt 1 view .LVU938
	add	r0, r4, #1992
.LVL262:
.LBB431:
.LBI431:
	.loc 5 883 19 view .LVU939
.LBB432:
	.loc 5 891 2 view .LVU940
	.loc 5 891 7 view .LVU941
	.loc 5 891 55 view .LVU942
	.loc 5 892 2 view .LVU943
	.loc 5 892 9 is_stmt 0 view .LVU944
	bl	z_impl_k_mutex_init
.LVL263:
	.loc 5 892 9 view .LVU945
.LBE432:
.LBE431:
	.loc 1 501 2 is_stmt 1 view .LVU946
	add	r6, r4, #1760
	.loc 1 501 46 is_stmt 0 view .LVU947
	add	r1, r4, #128
.LVL264:
.LBB433:
.LBI433:
	.loc 5 35 23 is_stmt 1 view .LVU948
.LBB434:
	.loc 5 53 2 view .LVU949
	.loc 5 53 7 view .LVU950
	.loc 5 53 55 view .LVU951
	.loc 5 54 2 view .LVU952
	.loc 5 54 9 is_stmt 0 view .LVU953
	movs	r2, #0
	movs	r3, #0
	strd	r2, [sp, #24]
	movs	r5, #0
	str	r5, [sp, #16]
	mvn	r3, #13
	str	r3, [sp, #12]
	str	r5, [sp, #8]
	str	r5, [sp, #4]
	str	r4, [sp]
	ldr	r3, .L124+8
	mov	r2, #1600
	mov	r0, r6
	bl	z_impl_k_thread_create
.LVL265:
	.loc 5 54 9 view .LVU954
.LBE434:
.LBE433:
	.loc 1 506 2 is_stmt 1 view .LVU955
.LBB435:
.LBI435:
	.loc 5 395 19 view .LVU956
.LBB436:
	.loc 5 403 2 view .LVU957
	.loc 5 403 7 view .LVU958
	.loc 5 403 55 view .LVU959
	.loc 5 404 2 view .LVU960
	.loc 5 404 9 is_stmt 0 view .LVU961
	ldr	r1, .L124+12
	mov	r0, r6
	bl	z_impl_k_thread_name_set
.LVL266:
	.loc 5 404 9 view .LVU962
.LBE436:
.LBE435:
	.loc 1 509 2 is_stmt 1 view .LVU963
	.loc 1 510 1 is_stmt 0 view .LVU964
	mov	r0, r5
	add	sp, sp, #32
	.cfi_def_cfa_offset 16
	@ sp needed
	pop	{r4, r5, r6, pc}
.LVL267:
.L125:
	.loc 1 510 1 view .LVU965
	.align	2
.L124:
	.word	.LANCHOR0
	.word	1342195200
	.word	xmc_eth_rx_thread
	.word	.LC1
	.cfi_endproc
.LFE1071:
	.size	xmc_eth_init, .-xmc_eth_init
	.section	.rodata.str1.4,"aMS",%progbits,1
	.align	2
.LC2:
	.ascii	"PTP_CLOCK\000"
	.weak	__devicehdl_xmc_ptp_clock
	.global	__device_dts_ord_13
	.align	2
.LC3:
	.ascii	"xmc_ethernet\000"
	.weak	__devicehdl_DT_N_S_soc_S_ethernet_5000c000
	.section	.rodata
	.align	2
	.set	.LANCHOR2,. + 0
.LC0:
	.byte	-128
	.space	3
	.word	65536
	.byte	0
	.space	3
	.section	.__device_handles_pass1,"a"
	.align	1
	.type	__devicehdl_xmc_ptp_clock, %object
	.size	__devicehdl_xmc_ptp_clock, 6
__devicehdl_xmc_ptp_clock:
	.short	0
	.short	-32768
	.short	-32768
	.type	__devicehdl_DT_N_S_soc_S_ethernet_5000c000, %object
	.size	__devicehdl_DT_N_S_soc_S_ethernet_5000c000, 10
__devicehdl_DT_N_S_soc_S_ethernet_5000c000:
	.short	13
	.short	9
	.short	11
	.short	-32768
	.short	-32768
	.section	._net_if.static.dts_ord_13,"aw"
	.align	3
	.type	__net_if_dts_ord_13_0, %object
	.size	__net_if_dts_ord_13_0, 536
__net_if_dts_ord_13_0:
	.word	__net_if_dev_dts_ord_13_0
	.space	524
	.space	8
	.section	._net_if_dev.static.__net_if_dev_dts_ord_13_0,"aw"
	.align	2
	.type	__net_if_dev_dts_ord_13_0, %object
	.size	__net_if_dev_dts_ord_13_0, 28
__net_if_dev_dts_ord_13_0:
	.word	__device_dts_ord_13
	.word	_net_l2_ETHERNET
	.word	_net_l2_data_dts_ord_130
	.space	12
	.short	1500
	.space	2
	.section	.bss._net_l2_data_dts_ord_130,"aw",%nobits
	.align	3
	.type	_net_l2_data_dts_ord_130, %object
	.size	_net_l2_data_dts_ord_130, 80
_net_l2_data_dts_ord_130:
	.space	80
	.section	.bss.init_done.18932,"aw",%nobits
	.set	.LANCHOR3,. + 0
	.type	init_done.18932, %object
	.size	init_done.18932, 1
init_done.18932:
	.space	1
	.section	.bss.initialised,"aw",%nobits
	.set	.LANCHOR0,. + 0
	.type	initialised, %object
	.size	initialised, 1
initialised:
	.space	1
	.section	.bss.ptp_xmc_context,"aw",%nobits
	.align	3
	.type	ptp_xmc_context, %object
	.size	ptp_xmc_context, 16
ptp_xmc_context:
	.space	16
	.section	.data.eth0_context,"aw"
	.align	7
	.set	.LANCHOR1,. + 0
	.type	eth0_context, %object
	.size	eth0_context, 2048
eth0_context:
	.word	1342226432
	.space	4
	.word	1159267072
	.word	256
	.word	ETH_LWIP_0_rx_desc
	.word	ETH_LWIP_0_tx_desc
	.word	ETH_LWIP_0_rx_buf
	.word	ETH_LWIP_0_tx_buf
	.space	4
	.byte	4
	.byte	4
	.space	10
	.byte	1
	.space	5
	.byte	1
	.space	1
	.word	eth0_config_func
	.space	8
	.word	0
	.ascii	"\000\003\031E\000\001"
	.space	1970
	.section	.intList,"aw"
	.align	2
	.type	__isr_xmc_eth_isr_irq_0.23537, %object
	.size	__isr_xmc_eth_isr_irq_0.23537, 16
__isr_xmc_eth_isr_irq_0.23537:
	.word	108
	.word	0
	.word	xmc_eth_isr
	.word	__device_dts_ord_13
	.section	.rodata.api_funcs,"a"
	.align	2
	.type	api_funcs, %object
	.size	api_funcs, 36
api_funcs:
	.word	xmc_eth_iface_init
	.space	4
	.word	xmc_eth_start
	.word	xmc_eth_stop
	.word	xmc_eth_get_capabilities
	.word	xmc_eth_set_config
	.word	xmc_eth_get_config
	.word	xmc_eth_get_ptp_clock
	.word	xmc_eth_tx
	.section	.rodata.ptp_api_implementation,"a"
	.align	2
	.type	ptp_api_implementation, %object
	.size	ptp_api_implementation, 16
ptp_api_implementation:
	.word	ptp_clock_xmc_set
	.word	ptp_clock_xmc_get
	.word	ptp_clock_xmc_adjust
	.word	ptp_clock_xmc_rate_adjust
	.section	.z_device_POST_KERNEL80_,"a"
	.align	2
	.type	__device_dts_ord_13, %object
	.size	__device_dts_ord_13, 24
__device_dts_ord_13:
	.word	.LC3
	.word	0
	.word	api_funcs
	.word	__devstate_dts_ord_13
	.word	eth0_context
	.word	__devicehdl_DT_N_S_soc_S_ethernet_5000c000
	.section	.z_device_POST_KERNEL85_,"a"
	.align	2
	.type	__device_xmc_ptp_clock, %object
	.size	__device_xmc_ptp_clock, 24
__device_xmc_ptp_clock:
	.word	.LC2
	.word	0
	.word	ptp_api_implementation
	.word	__devstate_xmc_ptp_clock
	.word	ptp_xmc_context
	.word	__devicehdl_xmc_ptp_clock
	.section	.z_devstate,"aw"
	.align	2
	.type	__devstate_xmc_ptp_clock, %object
	.size	__devstate_xmc_ptp_clock, 4
__devstate_xmc_ptp_clock:
	.space	4
	.type	__devstate_dts_ord_13, %object
	.size	__devstate_dts_ord_13, 4
__devstate_dts_ord_13:
	.space	4
	.section	.z_init_POST_KERNEL80_,"a"
	.align	2
	.type	__init___device_dts_ord_13, %object
	.size	__init___device_dts_ord_13, 8
__init___device_dts_ord_13:
	.word	xmc_eth_init
	.word	__device_dts_ord_13
	.section	.z_init_POST_KERNEL85_,"a"
	.align	2
	.type	__init___device_xmc_ptp_clock, %object
	.size	__init___device_xmc_ptp_clock, 8
__init___device_xmc_ptp_clock:
	.word	ptp_xmc_init
	.word	__device_xmc_ptp_clock
	.section	ETH_RAM,"aw"
	.align	2
	.type	ETH_LWIP_0_tx_buf, %object
	.size	ETH_LWIP_0_tx_buf, 6096
ETH_LWIP_0_tx_buf:
	.space	6096
	.type	ETH_LWIP_0_rx_buf, %object
	.size	ETH_LWIP_0_rx_buf, 6096
ETH_LWIP_0_rx_buf:
	.space	6096
	.type	ETH_LWIP_0_tx_desc, %object
	.size	ETH_LWIP_0_tx_desc, 128
ETH_LWIP_0_tx_desc:
	.space	128
	.type	ETH_LWIP_0_rx_desc, %object
	.size	ETH_LWIP_0_rx_desc, 128
ETH_LWIP_0_rx_desc:
	.space	128
	.text
.Letext0:
	.file 11 "/home/sebin/LIOT/gcc-arm-none-eabi-9-2019-q4-major/lib/gcc/arm-none-eabi/9.2.1/include/stddef.h"
	.file 12 "/home/sebin/LIOT/gcc-arm-none-eabi-9-2019-q4-major/arm-none-eabi/include/machine/_default_types.h"
	.file 13 "/home/sebin/LIOT/gcc-arm-none-eabi-9-2019-q4-major/arm-none-eabi/include/sys/_stdint.h"
	.file 14 "/home/sebin/thesis/zephyrproject/zephyr/include/sys/atomic.h"
	.file 15 "/home/sebin/thesis/zephyrproject/zephyr/include/sys/dlist.h"
	.file 16 "/home/sebin/thesis/zephyrproject/zephyr/include/sys/rb.h"
	.file 17 "/home/sebin/thesis/zephyrproject/zephyr/include/sys/slist.h"
	.file 18 "/home/sebin/thesis/zephyrproject/zephyr/include/sys/sys_heap.h"
	.file 19 "/home/sebin/thesis/zephyrproject/zephyr/include/kernel_structs.h"
	.file 20 "/home/sebin/thesis/zephyrproject/zephyr/include/kernel/thread.h"
	.file 21 "/home/sebin/thesis/zephyrproject/zephyr/include/kernel.h"
	.file 22 "/home/sebin/thesis/zephyrproject/zephyr/include/sys/arch_interface.h"
	.file 23 "/home/sebin/thesis/zephyrproject/zephyr/include/kernel/thread_stack.h"
	.file 24 "/home/sebin/thesis/zephyrproject/zephyr/include/arch/arm/aarch32/thread.h"
	.file 25 "/home/sebin/thesis/zephyrproject/zephyr/include/arch/arm/aarch32/exc.h"
	.file 26 "/home/sebin/thesis/zephyrproject/zephyr/include/sw_isr_table.h"
	.file 27 "/home/sebin/thesis/zephyrproject/modules/hal/infineon/XMCLib/devices/XMC4500/Include/system_XMC4500.h"
	.file 28 "/home/sebin/thesis/zephyrproject/modules/hal/cmsis/CMSIS/Core/Include/core_cm4.h"
	.file 29 "/home/sebin/thesis/zephyrproject/modules/hal/infineon/XMCLib/devices/XMC4500/Include/XMC4500.h"
	.file 30 "/home/sebin/thesis/zephyrproject/zephyr/include/arch/arm/aarch32/mpu/arm_mpu_v7m.h"
	.file 31 "/home/sebin/thesis/zephyrproject/zephyr/include/arch/arm/aarch32/mpu/arm_mpu.h"
	.file 32 "/home/sebin/thesis/zephyrproject/zephyr/include/sys_clock.h"
	.file 33 "/home/sebin/thesis/zephyrproject/zephyr/include/spinlock.h"
	.file 34 "/home/sebin/LIOT/gcc-arm-none-eabi-9-2019-q4-major/arm-none-eabi/include/sys/lock.h"
	.file 35 "/home/sebin/LIOT/gcc-arm-none-eabi-9-2019-q4-major/arm-none-eabi/include/sys/_types.h"
	.file 36 "/home/sebin/LIOT/gcc-arm-none-eabi-9-2019-q4-major/arm-none-eabi/include/sys/reent.h"
	.file 37 "/home/sebin/LIOT/gcc-arm-none-eabi-9-2019-q4-major/arm-none-eabi/include/sys/errno.h"
	.file 38 "/home/sebin/thesis/zephyrproject/zephyr/include/init.h"
	.file 39 "/home/sebin/thesis/zephyrproject/zephyr/include/device.h"
	.file 40 "/home/sebin/thesis/dmz/zephyr_xmc_template/build/zephyr/include/generated/device_extern.h"
	.file 41 "/home/sebin/thesis/zephyrproject/zephyr/include/logging/log_instance.h"
	.file 42 "/home/sebin/thesis/zephyrproject/zephyr/include/sys/cbprintf_internal.h"
	.file 43 "/home/sebin/thesis/zephyrproject/zephyr/include/logging/log_msg2.h"
	.file 44 "/home/sebin/thesis/zephyrproject/zephyr/include/logging/log_msg.h"
	.file 45 "/home/sebin/thesis/zephyrproject/zephyr/include/logging/log_core.h"
	.file 46 "/home/sebin/thesis/zephyrproject/zephyr/include/net/net_timeout.h"
	.file 47 "/home/sebin/thesis/zephyrproject/zephyr/include/net/net_core.h"
	.file 48 "/home/sebin/thesis/zephyrproject/zephyr/include/net/net_linkaddr.h"
	.file 49 "/home/sebin/thesis/zephyrproject/zephyr/include/net/net_ip.h"
	.file 50 "/home/sebin/thesis/zephyrproject/zephyr/include/net/net_l2.h"
	.file 51 "/home/sebin/thesis/zephyrproject/zephyr/include/net/net_stats.h"
	.file 52 "/home/sebin/thesis/zephyrproject/zephyr/include/net/net_context.h"
	.file 53 "/home/sebin/thesis/zephyrproject/zephyr/include/net/ptp_time.h"
	.file 54 "/home/sebin/thesis/zephyrproject/zephyr/include/net/lldp.h"
	.file 55 "/home/sebin/thesis/zephyrproject/zephyr/include/net/ethernet.h"
	.file 56 "/home/sebin/thesis/zephyrproject/modules/hal/infineon/XMCLib/drivers/inc/xmc_eth_mac_map.h"
	.file 57 "/home/sebin/thesis/zephyrproject/modules/hal/infineon/XMCLib/drivers/inc/xmc_eth_phy.h"
	.file 58 "/home/sebin/thesis/zephyrproject/modules/hal/infineon/XMCLib/drivers/inc/xmc4_gpio.h"
	.file 59 "/home/sebin/thesis/zephyrproject/zephyr/include/drivers/ptp_clock.h"
	.file 60 "/home/sebin/thesis/dmz/zephyr_xmc_template/drivers/zephyr/ethernet/ethernet_xmc.h"
	.file 61 "/home/sebin/LIOT/gcc-arm-none-eabi-9-2019-q4-major/arm-none-eabi/include/math.h"
	.file 62 "/home/sebin/thesis/zephyrproject/zephyr/include/arch/arm/aarch32/irq.h"
	.file 63 "/home/sebin/thesis/zephyrproject/zephyr/include/arch/structs.h"