	.cpu cortex-m4
	.eabi_attribute 27, 1
	.eabi_attribute 28, 1
	.eabi_attribute 20, 1
	.eabi_attribute 21, 1
	.eabi_attribute 23, 3
	.eabi_attribute 24, 1
	.eabi_attribute 25, 1
	.eabi_attribute 26, 1
	.eabi_attribute 30, 1
	.eabi_attribute 34, 1
	.eabi_attribute 38, 1
	.eabi_attribute 18, 4
	.file	"uart_xmc4xxx.c"
	.text
.Ltext0:
	.cfi_sections	.debug_frame
	.section	.text.uart_xmc4xxx_poll_out,"ax",%progbits
	.align	1
	.arch armv7e-m
	.syntax unified
	.thumb
	.thumb_func
	.fpu fpv4-sp-d16
	.type	uart_xmc4xxx_poll_out, %function
uart_xmc4xxx_poll_out:
.LVL0:
.LFB678:
	.file 1 "/home/sebin/thesis/zephyrproject/zephyr/drivers/serial/uart_xmc4xxx.c"
	.loc 1 29 1 view -0
	.cfi_startproc
	@ args = 0, pretend = 0, frame = 0
	@ frame_needed = 0, uses_anonymous_args = 0
	.loc 1 29 1 is_stmt 0 view .LVU1
	push	{r3, lr}
	.cfi_def_cfa_offset 8
	.cfi_offset 3, -8
	.cfi_offset 14, -4
	.loc 1 30 2 is_stmt 1 view .LVU2
	.loc 1 30 35 is_stmt 0 view .LVU3
	ldr	r3, [r0, #4]
.LVL1:
	.loc 1 32 2 is_stmt 1 view .LVU4
	ldr	r0, [r3]
.LVL2:
	.loc 1 32 2 is_stmt 0 view .LVU5
	bl	XMC_UART_CH_Transmit
.LVL3:
	.loc 1 33 1 view .LVU6
	pop	{r3, pc}
	.cfi_endproc
.LFE678:
	.size	uart_xmc4xxx_poll_out, .-uart_xmc4xxx_poll_out
	.section	.text.uart_xmc4xxx_poll_in,"ax",%progbits
	.align	1
	.syntax unified
	.thumb
	.thumb_func
	.fpu fpv4-sp-d16
	.type	uart_xmc4xxx_poll_in, %function
uart_xmc4xxx_poll_in:
.LVL4:
.LFB677:
	.loc 1 19 1 is_stmt 1 view -0
	.cfi_startproc
	@ args = 0, pretend = 0, frame = 0
	@ frame_needed = 0, uses_anonymous_args = 0
	.loc 1 19 1 is_stmt 0 view .LVU8
	push	{r4, lr}
	.cfi_def_cfa_offset 8
	.cfi_offset 4, -8
	.cfi_offset 14, -4
	mov	r4, r1
	.loc 1 20 2 is_stmt 1 view .LVU9
	.loc 1 20 35 is_stmt 0 view .LVU10
	ldr	r3, [r0, #4]
.LVL5:
	.loc 1 22 2 is_stmt 1 view .LVU11
	.loc 1 23 3 is_stmt 0 view .LVU12
	ldr	r0, [r3]
.LVL6:
	.loc 1 23 3 view .LVU13
	bl	XMC_UART_CH_GetReceivedData
.LVL7:
	.loc 1 22 17 view .LVU14
	strh	r0, [r4]	@ movhi
	.loc 1 25 2 is_stmt 1 view .LVU15
	.loc 1 26 1 is_stmt 0 view .LVU16
	movs	r0, #0
	pop	{r4, pc}
	.loc 1 26 1 view .LVU17
	.cfi_endproc
.LFE677:
	.size	uart_xmc4xxx_poll_in, .-uart_xmc4xxx_poll_in
	.section	.text.uart_xmc4xxx_init,"ax",%progbits
	.align	1
	.syntax unified
	.thumb
	.thumb_func
	.fpu fpv4-sp-d16
	.type	uart_xmc4xxx_init, %function
uart_xmc4xxx_init:
.LVL8:
.LFB679:
	.loc 1 36 1 is_stmt 1 view -0
	.cfi_startproc
	@ args = 0, pretend = 0, frame = 0
	@ frame_needed = 0, uses_anonymous_args = 0
	.loc 1 36 1 is_stmt 0 view .LVU19
	push	{r4, r5, r6, lr}
	.cfi_def_cfa_offset 16
	.cfi_offset 4, -16
	.cfi_offset 5, -12
	.cfi_offset 6, -8
	.cfi_offset 14, -4
	.loc 1 37 2 is_stmt 1 view .LVU20
	.loc 1 37 35 is_stmt 0 view .LVU21
	ldr	r3, [r0, #4]
.LVL9:
	.loc 1 38 2 is_stmt 1 view .LVU22
	.loc 1 38 28 is_stmt 0 view .LVU23
	ldr	r1, [r0, #16]
.LVL10:
	.loc 1 39 2 is_stmt 1 view .LVU24
	.loc 1 39 17 is_stmt 0 view .LVU25
	ldr	r4, [r3]
.LVL11:
	.loc 1 41 2 is_stmt 1 view .LVU26
	.loc 1 41 25 is_stmt 0 view .LVU27
	movs	r3, #8
.LVL12:
	.loc 1 41 25 view .LVU28
	strb	r3, [r1, #5]
.LVL13:
	.loc 1 42 2 is_stmt 1 view .LVU29
	.loc 1 42 25 is_stmt 0 view .LVU30
	movs	r5, #1
	strb	r5, [r1, #7]
	.loc 1 45 2 is_stmt 1 view .LVU31
.LVL14:
.LBB12:
.LBI12:
	.file 2 "/home/sebin/thesis/zephyrproject/modules/hal/infineon/XMCLib/drivers/inc/xmc_uart.h"
	.loc 2 301 20 view .LVU32
.LBB13:
	.loc 2 303 3 view .LVU33
	mov	r2, r5
	mov	r0, r4
.LVL15:
	.loc 2 303 3 is_stmt 0 view .LVU34
	bl	XMC_UART_CH_InitEx
.LVL16:
	.loc 2 303 3 view .LVU35
.LBE13:
.LBE12:
	.loc 1 46 2 is_stmt 1 view .LVU36
	ldr	r6, .L7
	movs	r2, #0
	mov	r1, r2
	mov	r0, r6
	bl	XMC_GPIO_SetMode
.LVL17:
	.loc 1 47 2 view .LVU37
.LBB14:
.LBI14:
	.loc 2 653 20 view .LVU38
.LBB15:
	.loc 2 655 3 view .LVU39
	.loc 2 655 50 is_stmt 0 view .LVU40
	ldr	r3, [r4, #28]
	.loc 2 655 26 view .LVU41
	bic	r3, r3, #80
	.loc 2 655 24 view .LVU42
	str	r3, [r4, #28]
	.loc 2 656 3 is_stmt 1 view .LVU43
.LVL18:
.LBB16:
.LBI16:
	.file 3 "/home/sebin/thesis/zephyrproject/modules/hal/infineon/XMCLib/drivers/inc/xmc_usic.h"
	.loc 3 843 20 view .LVU44
.LBB17:
	.loc 3 845 3 view .LVU45
	.loc 3 845 51 is_stmt 0 view .LVU46
	ldr	r3, [r4, #28]
	.loc 3 845 59 view .LVU47
	bic	r3, r3, #7
	.loc 3 845 26 view .LVU48
	orr	r3, r3, #3
	.loc 3 845 24 view .LVU49
	str	r3, [r4, #28]
.LVL19:
	.loc 3 845 24 view .LVU50
.LBE17:
.LBE16:
.LBE15:
.LBE14:
	.loc 1 49 2 is_stmt 1 view .LVU51
.LBB18:
.LBI18:
	.loc 2 320 20 view .LVU52
.LBB19:
	.loc 2 322 3 view .LVU53
	.loc 2 322 38 is_stmt 0 view .LVU54
	ldr	r3, [r4, #64]
	.loc 2 322 45 view .LVU55
	bic	r3, r3, #15
	.loc 2 322 59 view .LVU56
	orr	r3, r3, #2
	.loc 2 322 16 view .LVU57
	str	r3, [r4, #64]
.LVL20:
	.loc 2 322 16 view .LVU58
.LBE19:
.LBE18:
	.loc 1 51 2 is_stmt 1 view .LVU59
	movs	r2, #144
	mov	r1, r5
	mov	r0, r6
	bl	XMC_GPIO_SetMode
.LVL21:
	.loc 1 54 2 view .LVU60
	.loc 1 55 1 is_stmt 0 view .LVU61
	movs	r0, #0
	pop	{r4, r5, r6, pc}
.LVL22:
.L8:
	.loc 1 55 1 view .LVU62
	.align	2
.L7:
	.word	1208123392
	.cfi_endproc
.LFE679:
	.size	uart_xmc4xxx_init, .-uart_xmc4xxx_init
	.global	__device_dts_ord_21
	.section	.rodata.str1.4,"aMS",%progbits,1
	.align	2
.LC0:
	.ascii	"UART_0\000"
	.weak	__devicehdl_DT_N_S_soc_S_usic_48020200
	.global	__device_dts_ord_20
	.align	2
.LC1:
	.ascii	"UART_4\000"
	.weak	__devicehdl_DT_N_S_soc_S_usic_48020000
	.section	.__device_handles_pass1,"a"
	.align	1
	.type	__devicehdl_DT_N_S_soc_S_usic_48020200, %object
	.size	__devicehdl_DT_N_S_soc_S_usic_48020200, 10
__devicehdl_DT_N_S_soc_S_usic_48020200:
	.short	21
	.short	9
	.short	19
	.short	-32768
	.short	-32768
	.type	__devicehdl_DT_N_S_soc_S_usic_48020000, %object
	.size	__devicehdl_DT_N_S_soc_S_usic_48020000, 10
__devicehdl_DT_N_S_soc_S_usic_48020000:
	.short	20
	.short	9
	.short	19
	.short	-32768
	.short	-32768
	.section	.data.xmc4xxx_data_0,"aw"
	.align	2
	.type	xmc4xxx_data_0, %object
	.size	xmc4xxx_data_0, 12
xmc4xxx_data_0:
	.word	115200
	.space	8
	.section	.data.xmc4xxx_data_1,"aw"
	.align	2
	.type	xmc4xxx_data_1, %object
	.size	xmc4xxx_data_1, 12
xmc4xxx_data_1:
	.word	115200
	.space	8
	.section	.rodata.uart_xmc4xxx_driver_api,"a"
	.align	2
	.type	uart_xmc4xxx_driver_api, %object
	.size	uart_xmc4xxx_driver_api, 20
uart_xmc4xxx_driver_api:
	.word	uart_xmc4xxx_poll_in
	.word	uart_xmc4xxx_poll_out
	.space	12
	.section	.rodata.xmc4xxx_config_0,"a"
	.align	2
	.type	xmc4xxx_config_0, %object
	.size	xmc4xxx_config_0, 8
xmc4xxx_config_0:
	.word	1208090624
	.space	4
	.section	.rodata.xmc4xxx_config_1,"a"
	.align	2
	.type	xmc4xxx_config_1, %object
	.size	xmc4xxx_config_1, 8
xmc4xxx_config_1:
	.word	1208091136
	.space	4
	.section	.z_device_PRE_KERNEL_155_,"a"
	.align	2
	.type	__device_dts_ord_21, %object
	.size	__device_dts_ord_21, 24
__device_dts_ord_21:
	.word	.LC0
	.word	xmc4xxx_config_1
	.word	uart_xmc4xxx_driver_api
	.word	__devstate_dts_ord_21
	.word	xmc4xxx_data_1
	.word	__devicehdl_DT_N_S_soc_S_usic_48020200
	.type	__device_dts_ord_20, %object
	.size	__device_dts_ord_20, 24
__device_dts_ord_20:
	.word	.LC1
	.word	xmc4xxx_config_0
	.word	uart_xmc4xxx_driver_api
	.word	__devstate_dts_ord_20
	.word	xmc4xxx_data_0
	.word	__devicehdl_DT_N_S_soc_S_usic_48020000
	.section	.z_devstate,"aw"
	.align	2
	.type	__devstate_dts_ord_21, %object
	.size	__devstate_dts_ord_21, 4
__devstate_dts_ord_21:
	.space	4
	.type	__devstate_dts_ord_20, %object
	.size	__devstate_dts_ord_20, 4
__devstate_dts_ord_20:
	.space	4
	.section	.z_init_PRE_KERNEL_155_,"a"
	.align	2
	.type	__init___device_dts_ord_21, %object
	.size	__init___device_dts_ord_21, 8
__init___device_dts_ord_21:
	.word	uart_xmc4xxx_init
	.word	__device_dts_ord_21
	.type	__init___device_dts_ord_20, %object
	.size	__init___device_dts_ord_20, 8
__init___device_dts_ord_20:
	.word	uart_xmc4xxx_init
	.word	__device_dts_ord_20
	.text
.Letext0:
	.file 4 "/home/sebin/LIOT/gcc-arm-none-eabi-9-2019-q4-major/lib/gcc/arm-none-eabi/9.2.1/include/stddef.h"
	.file 5 "/home/sebin/LIOT/gcc-arm-none-eabi-9-2019-q4-major/arm-none-eabi/include/machine/_default_types.h"
	.file 6 "/home/sebin/LIOT/gcc-arm-none-eabi-9-2019-q4-major/arm-none-eabi/include/sys/_stdint.h"
	.file 7 "/home/sebin/LIOT/gcc-arm-none-eabi-9-2019-q4-major/arm-none-eabi/include/sys/lock.h"
	.file 8 "/home/sebin/LIOT/gcc-arm-none-eabi-9-2019-q4-major/arm-none-eabi/include/sys/_types.h"
	.file 9 "/home/sebin/LIOT/gcc-arm-none-eabi-9-2019-q4-major/arm-none-eabi/include/sys/reent.h"
	.file 10 "/home/sebin/thesis/zephyrproject/modules/hal/cmsis/CMSIS/Core/Include/core_cm4.h"
	.file 11 "/home/sebin/thesis/zephyrproject/modules/hal/infineon/XMCLib/devices/XMC4500/Include/system_XMC4500.h"
	.file 12 "/home/sebin/thesis/zephyrproject/modules/hal/infineon/XMCLib/drivers/inc/xmc4_gpio.h"
	.file 13 "/home/sebin/LIOT/gcc-arm-none-eabi-9-2019-q4-major/arm-none-eabi/include/sys/errno.h"
	.file 14 "/home/sebin/thesis/zephyrproject/zephyr/include/sys/dlist.h"
	.file 15 "/home/sebin/thesis/zephyrproject/zephyr/include/sys/rb.h"
	.file 16 "/home/sebin/thesis/zephyrproject/zephyr/include/sys/slist.h"
	.file 17 "/home/sebin/thesis/zephyrproject/zephyr/include/sys/sys_heap.h"
	.file 18 "/home/sebin/thesis/zephyrproject/zephyr/include/kernel_structs.h"
	.file 19 "/home/sebin/thesis/zephyrproject/zephyr/include/kernel/thread.h"
	.file 20 "/home/sebin/thesis/zephyrproject/zephyr/include/kernel.h"
	.file 21 "/home/sebin/thesis/zephyrproject/zephyr/include/arch/arm/aarch32/thread.h"
	.file 22 "/home/sebin/thesis/zephyrproject/zephyr/include/arch/arm/aarch32/exc.h"
	.file 23 "/home/sebin/thesis/zephyrproject/zephyr/include/sw_isr_table.h"
	.file 24 "/home/sebin/thesis/zephyrproject/zephyr/include/arch/arm/aarch32/mpu/arm_mpu_v7m.h"
	.file 25 "/home/sebin/thesis/zephyrproject/zephyr/include/arch/arm/aarch32/mpu/arm_mpu.h"
	.file 26 "/home/sebin/thesis/zephyrproject/zephyr/include/spinlock.h"
	.file 27 "/home/sebin/thesis/zephyrproject/zephyr/include/init.h"
	.file 28 "/home/sebin/thesis/zephyrproject/zephyr/include/device.h"
	.file 29 "/home/sebin/thesis/dmz/zephyr_xmc_template/build/zephyr/include/generated/device_extern.h"
	.file 30 "/home/sebin/thesis/zephyrproject/zephyr/include/drivers/uart.h"
	.file 31 "/home/sebin/thesis/zephyrproject/modules/hal/infineon/XMCLib/drivers/inc/xmc_gpio.h"
	.file 32 "/home/sebin/thesis/zephyrproject/zephyr/include/arch/structs.h"