	.cpu cortex-m4
	.eabi_attribute 27, 1
	.eabi_attribute 28, 1
	.eabi_attribute 20, 1
	.eabi_attribute 21, 1
	.eabi_attribute 23, 3
	.eabi_attribute 24, 1
	.eabi_attribute 25, 1
	.eabi_attribute 26, 1
	.eabi_attribute 30, 1
	.eabi_attribute 34, 1
	.eabi_attribute 38, 1
	.eabi_attribute 18, 4
	.file	"gptp_messages.c"
	.text
.Ltext0:
	.cfi_sections	.debug_frame
	.section	.text.setup_gptp_frame,"ax",%progbits
	.align	1
	.arch armv7e-m
	.syntax unified
	.thumb
	.thumb_func
	.fpu fpv4-sp-d16
	.type	setup_gptp_frame, %function
setup_gptp_frame:
.LVL0:
.LFB887:
	.file 1 "/home/sebin/thesis/zephyrproject/zephyr/subsys/net/l2/ethernet/gptp/gptp_messages.c"
	.loc 1 161 1 view -0
	.cfi_startproc
	@ args = 0, pretend = 0, frame = 0
	@ frame_needed = 0, uses_anonymous_args = 0
	.loc 1 161 1 is_stmt 0 view .LVU1
	push	{r4, r5, r6, lr}
	.cfi_def_cfa_offset 16
	.cfi_offset 4, -16
	.cfi_offset 5, -12
	.cfi_offset 6, -8
	.cfi_offset 14, -4
	sub	sp, sp, #8
	.cfi_def_cfa_offset 24
	mov	r6, r0
	.loc 1 162 2 is_stmt 1 view .LVU2
	.loc 1 169 2 view .LVU3
	.loc 1 169 8 is_stmt 0 view .LVU4
	add	r5, r1, #34
.LVL1:
	.file 2 "/home/sebin/thesis/zephyrproject/zephyr/include/sys/time_units.h"
	.loc 2 405 2 is_stmt 1 view .LVU5
	.loc 2 106 1 view .LVU6
	.loc 2 108 1 view .LVU7
	.loc 2 111 2 view .LVU8
	.loc 2 115 2 view .LVU9
	.loc 2 117 2 view .LVU10
	.loc 2 133 2 view .LVU11
	.loc 2 140 9 view .LVU12
	.loc 2 141 3 view .LVU13
	.loc 2 144 4 view .LVU14
	.loc 1 171 21 is_stmt 0 view .LVU15
	mov	r2, #1000
	movs	r3, #0
	.loc 1 169 8 view .LVU16
	strd	r2, [sp]
	movs	r3, #0
	mov	r2, r3
	mov	r1, r5
.LVL2:
	.loc 1 169 8 view .LVU17
	bl	net_pkt_alloc_with_buffer
.LVL3:
	.loc 1 173 2 is_stmt 1 view .LVU18
	.loc 1 173 5 is_stmt 0 view .LVU19
	mov	r4, r0
	cbz	r0, .L2
	.loc 1 177 2 is_stmt 1 view .LVU20
	ldr	r0, [r0, #8]
.LVL4:
.LBB301:
.LBI301:
	.file 3 "/home/sebin/thesis/zephyrproject/zephyr/include/net/buf.h"
	.loc 3 1504 21 view .LVU21
.LBB302:
	.loc 3 1506 2 view .LVU22
	.loc 3 1506 9 is_stmt 0 view .LVU23
	mov	r1, r5
	adds	r0, r0, #8
.LVL5:
	.loc 3 1506 9 view .LVU24
	bl	net_buf_simple_add
.LVL6:
	.loc 3 1506 9 view .LVU25
.LBE302:
.LBE301:
	.loc 1 178 2 is_stmt 1 view .LVU26
.LBB303:
.LBI303:
	.file 4 "/home/sebin/thesis/zephyrproject/zephyr/include/net/net_pkt.h"
	.loc 4 344 20 view .LVU27
.LBB304:
	.loc 4 346 2 view .LVU28
	.loc 4 346 15 is_stmt 0 view .LVU29
	ldrb	r3, [r4, #74]	@ zero_extendqisi2
	orr	r3, r3, #1
	strb	r3, [r4, #74]
.LVL7:
	.loc 4 346 15 view .LVU30
.LBE304:
.LBE303:
	.loc 1 180 2 is_stmt 1 view .LVU31
.LBB305:
.LBI305:
	.file 5 "/home/sebin/thesis/zephyrproject/zephyr/include/net/net_if.h"
	.loc 5 680 36 view .LVU32
.LBB306:
	.loc 5 682 2 view .LVU33
	.loc 5 682 15 is_stmt 0 view .LVU34
	ldr	r3, [r6]
.LVL8:
	.loc 5 682 15 view .LVU35
.LBE306:
.LBE305:
	.loc 4 983 2 is_stmt 1 view .LVU36
	.loc 1 180 61 is_stmt 0 view .LVU37
	ldr	r3, [r3, #16]
	.loc 1 180 32 view .LVU38
	str	r3, [r4, #52]
	.loc 1 181 2 is_stmt 1 view .LVU39
.LVL9:
.LBB307:
.LBI307:
	.loc 5 680 36 view .LVU40
.LBB308:
	.loc 5 682 2 view .LVU41
	.loc 5 682 15 is_stmt 0 view .LVU42
	ldr	r3, [r6]
.LVL10:
	.loc 5 682 15 view .LVU43
.LBE308:
.LBE307:
	.loc 4 983 2 is_stmt 1 view .LVU44
	.loc 1 181 60 is_stmt 0 view .LVU45
	ldrb	r3, [r3, #20]	@ zero_extendqisi2
	.loc 1 181 31 view .LVU46
	strb	r3, [r4, #56]
	.loc 1 183 2 is_stmt 1 view .LVU47
.LVL11:
	.loc 4 988 2 view .LVU48
	.loc 1 183 32 is_stmt 0 view .LVU49
	ldr	r3, .L4
	str	r3, [r4, #60]
	.loc 1 184 2 is_stmt 1 view .LVU50
.LVL12:
	.loc 4 988 2 view .LVU51
	.loc 1 184 31 is_stmt 0 view .LVU52
	movs	r3, #6
	strb	r3, [r4, #64]
	.loc 1 186 2 is_stmt 1 view .LVU53
.L2:
	.loc 1 187 1 is_stmt 0 view .LVU54
	mov	r0, r4
	add	sp, sp, #8
	.cfi_def_cfa_offset 16
	@ sp needed
	pop	{r4, r5, r6, pc}
.LVL13:
.L5:
	.loc 1 187 1 view .LVU55
	.align	2
.L4:
	.word	.LANCHOR0
	.cfi_endproc
.LFE887:
	.size	setup_gptp_frame, .-setup_gptp_frame
	.section	.text.gptp_get_hdr,"ax",%progbits
	.align	1
	.global	gptp_get_hdr
	.syntax unified
	.thumb
	.thumb_func
	.fpu fpv4-sp-d16
	.type	gptp_get_hdr, %function
gptp_get_hdr:
.LVL14:
.LFB884:
	.loc 1 64 1 is_stmt 1 view -0
	.cfi_startproc
	@ args = 0, pretend = 0, frame = 0
	@ frame_needed = 0, uses_anonymous_args = 0
	@ link register save eliminated.
	.loc 1 65 2 view .LVU57
	.loc 1 65 18 is_stmt 0 view .LVU58
	ldr	r3, [r0, #8]
.LVL15:
	.loc 1 67 4 is_stmt 1 view .LVU59
	.loc 1 67 5 view .LVU60
	.loc 1 69 2 view .LVU61
	.loc 1 69 36 is_stmt 0 view .LVU62
	ldrh	r2, [r3, #12]
	.loc 1 69 5 view .LVU63
	cmp	r2, #33
	bhi	.L10
	.loc 1 76 2 is_stmt 1 view .LVU64
	.loc 1 76 6 is_stmt 0 view .LVU65
	ldr	r2, [r3]
.LVL16:
	.loc 1 77 2 is_stmt 1 view .LVU66
	.loc 1 77 5 is_stmt 0 view .LVU67
	cbz	r2, .L11
	.loc 1 84 2 is_stmt 1 view .LVU68
	.loc 1 84 9 is_stmt 0 view .LVU69
	ldr	r0, [r2, #8]
.LVL17:
	.loc 1 85 1 view .LVU70
	bx	lr
.LVL18:
.L10:
	.loc 1 70 3 is_stmt 1 view .LVU71
	.loc 1 70 10 is_stmt 0 view .LVU72
	ldr	r0, [r3, #8]
.LVL19:
	.loc 1 70 10 view .LVU73
	bx	lr
.LVL20:
.L11:
	.loc 1 81 3 is_stmt 1 view .LVU74
	.loc 1 81 10 is_stmt 0 view .LVU75
	ldr	r0, [r3, #8]
.LVL21:
	.loc 1 81 10 view .LVU76
	bx	lr
	.cfi_endproc
.LFE884:
	.size	gptp_get_hdr, .-gptp_get_hdr
	.section	.text.gptp_sync_timestamp_callback,"ax",%progbits
	.align	1
	.syntax unified
	.thumb
	.thumb_func
	.fpu fpv4-sp-d16
	.type	gptp_sync_timestamp_callback, %function
gptp_sync_timestamp_callback:
.LVL22:
.LFB885:
	.loc 1 88 1 is_stmt 1 view -0
	.cfi_startproc
	@ args = 0, pretend = 0, frame = 0
	@ frame_needed = 0, uses_anonymous_args = 0
	.loc 1 88 1 is_stmt 0 view .LVU78
	push	{r3, r4, r5, lr}
	.cfi_def_cfa_offset 16
	.cfi_offset 3, -16
	.cfi_offset 4, -12
	.cfi_offset 5, -8
	.cfi_offset 14, -4
	mov	r5, r0
	.loc 1 89 2 is_stmt 1 view .LVU79
.LVL23:
	.loc 1 90 2 view .LVU80
	.loc 1 91 2 view .LVU81
	.loc 1 93 2 view .LVU82
.LBB309:
.LBI309:
	.loc 4 293 30 view .LVU83
.LBB310:
	.loc 4 295 2 view .LVU84
	.loc 4 295 2 is_stmt 0 view .LVU85
.LBE310:
.LBE309:
	.loc 1 93 9 view .LVU86
	ldr	r0, [r0, #24]
.LVL24:
	.loc 1 93 9 view .LVU87
	bl	gptp_get_port_number
.LVL25:
	.loc 1 94 2 is_stmt 1 view .LVU88
	.loc 1 94 5 is_stmt 0 view .LVU89
	cmn	r0, #19
	beq	.L12
	.loc 1 99 2 is_stmt 1 view .LVU90
	.loc 1 99 41 is_stmt 0 view .LVU91
	subs	r4, r0, #1
.LVL26:
	.loc 1 101 2 is_stmt 1 view .LVU92
	.loc 1 101 8 is_stmt 0 view .LVU93
	mov	r0, r5
.LVL27:
	.loc 1 101 8 view .LVU94
	bl	gptp_get_hdr
.LVL28:
	.loc 1 104 2 is_stmt 1 view .LVU95
	.loc 1 104 24 is_stmt 0 view .LVU96
	ldrb	r3, [r0]	@ zero_extendqisi2
	.loc 1 104 5 view .LVU97
	tst	r3, #15
	beq	.L15
.LVL29:
.L12:
	.loc 1 113 1 view .LVU98
	pop	{r3, r4, r5, pc}
.LVL30:
.L15:
	.loc 1 105 3 is_stmt 1 view .LVU99
	.loc 1 105 34 is_stmt 0 view .LVU100
	ldr	r0, .L16
.LVL31:
	.loc 1 105 34 view .LVU101
	mov	r3, #872
	mla	r4, r3, r4, r0
.LVL32:
	.loc 1 105 34 view .LVU102
	movs	r3, #1
	strb	r3, [r4, #978]
	.loc 1 107 3 is_stmt 1 view .LVU103
	ldr	r0, .L16+4
	bl	net_if_unregister_timestamp_cb
.LVL33:
	.loc 1 108 3 view .LVU104
	.loc 1 108 22 is_stmt 0 view .LVU105
	ldr	r3, .L16+8
	movs	r2, #0
	strb	r2, [r3]
	.loc 1 111 3 is_stmt 1 view .LVU106
	mov	r0, r5
	bl	net_pkt_unref
.LVL34:
	b	.L12
.L17:
	.align	2
.L16:
	.word	gptp_domain
	.word	.LANCHOR1
	.word	.LANCHOR2
	.cfi_endproc
.LFE885:
	.size	gptp_sync_timestamp_callback, .-gptp_sync_timestamp_callback
	.section	.text.gptp_prepare_sync,"ax",%progbits
	.align	1
	.global	gptp_prepare_sync
	.syntax unified
	.thumb
	.thumb_func
	.fpu fpv4-sp-d16
	.type	gptp_prepare_sync, %function
gptp_prepare_sync:
.LVL35:
.LFB888:
	.loc 1 190 1 view -0
	.cfi_startproc
	@ args = 0, pretend = 0, frame = 0
	@ frame_needed = 0, uses_anonymous_args = 0
	.loc 1 190 1 is_stmt 0 view .LVU108
	push	{r3, r4, r5, r6, r7, lr}
	.cfi_def_cfa_offset 24
	.cfi_offset 3, -24
	.cfi_offset 4, -20
	.cfi_offset 5, -16
	.cfi_offset 6, -12
	.cfi_offset 7, -8
	.cfi_offset 14, -4
	.loc 1 191 2 is_stmt 1 view .LVU109
	.loc 1 192 2 view .LVU110
	.loc 1 193 2 view .LVU111
	.loc 1 194 2 view .LVU112
	.loc 1 195 2 view .LVU113
	.loc 1 197 4 view .LVU114
	.loc 1 197 5 view .LVU115
	.loc 1 198 2 view .LVU116
	.loc 1 198 33 is_stmt 0 view .LVU117
	subs	r4, r0, #1
	.loc 1 198 8 view .LVU118
	addw	r0, r0, #437
.LVL36:
	.loc 1 198 8 view .LVU119
	ldr	r3, .L21
	add	r0, r3, r0, lsl #2
.LVL37:
	.loc 1 199 4 is_stmt 1 view .LVU120
	.loc 1 199 5 view .LVU121
	.loc 1 201 2 view .LVU122
	.loc 1 201 8 is_stmt 0 view .LVU123
	movs	r1, #10
	ldr	r0, [r0, #4]
.LVL38:
	.loc 1 201 8 view .LVU124
	bl	setup_gptp_frame
.LVL39:
	.loc 1 202 2 is_stmt 1 view .LVU125
	.loc 1 202 5 is_stmt 0 view .LVU126
	mov	r5, r0
	cmp	r0, #0
	beq	.L18
	.loc 1 207 2 is_stmt 1 view .LVU127
.LVL40:
.LBB311:
.LBI311:
	.loc 4 731 20 view .LVU128
.LBB312:
	.loc 4 734 2 view .LVU129
	.loc 4 734 16 is_stmt 0 view .LVU130
	movs	r3, #3
	strb	r3, [r0, #82]
.LVL41:
	.loc 4 734 16 view .LVU131
.LBE312:
.LBE311:
	.loc 1 209 2 is_stmt 1 view .LVU132
	.loc 1 210 2 view .LVU133
.LBB313:
.LBI313:
	.file 6 "/home/sebin/thesis/zephyrproject/zephyr/subsys/net/l2/ethernet/gptp/gptp_messages.h"
	.loc 6 319 24 view .LVU134
.LBB314:
	.loc 6 321 2 view .LVU135
	.loc 6 321 20 is_stmt 0 view .LVU136
	bl	gptp_get_hdr
.LVL42:
	.loc 6 321 20 view .LVU137
.LBE314:
.LBE313:
	.loc 1 211 2 is_stmt 1 view .LVU138
	.loc 1 218 2 view .LVU139
	.loc 1 218 26 is_stmt 0 view .LVU140
	ldrb	r3, [r0]	@ zero_extendqisi2
	movs	r2, #1
	bfi	r3, r2, #4, #4
	.loc 1 219 2 is_stmt 1 view .LVU141
	.loc 1 219 20 is_stmt 0 view .LVU142
	bfc	r3, #0, #4
	strb	r3, [r0]
	.loc 1 220 2 is_stmt 1 view .LVU143
	.loc 1 220 19 is_stmt 0 view .LVU144
	ldrb	r3, [r0, #1]	@ zero_extendqisi2
	movs	r6, #2
	bfi	r3, r6, #0, #4
	strb	r3, [r0, #1]
	.loc 1 221 2 is_stmt 1 view .LVU145
	.loc 1 221 44 is_stmt 0 view .LVU146
	ldr	r2, .L21
	add	r1, r4, r4, lsl #1
	add	r1, r2, r1, lsl #5
	ldrh	r7, [r1, #764]
	.loc 1 221 73 view .LVU147
	lsrs	r3, r7, #8
	.loc 1 221 19 view .LVU148
	orr	r3, r3, r7, lsl #8
	strh	r3, [r0, #30]	@ unaligned
	.loc 1 222 2 is_stmt 1 view .LVU149
	.loc 1 222 21 is_stmt 0 view .LVU150
	movs	r3, #0
	strb	r3, [r0, #4]
	.loc 1 223 2 is_stmt 1 view .LVU151
	.loc 1 223 24 is_stmt 0 view .LVU152
	strb	r3, [r0, #8]
	strb	r3, [r0, #9]
	strb	r3, [r0, #10]
	strb	r3, [r0, #11]
	strb	r3, [r0, #12]
	strb	r3, [r0, #13]
	strb	r3, [r0, #14]
	strb	r3, [r0, #15]
	.loc 1 224 2 is_stmt 1 view .LVU153
	.loc 1 224 23 is_stmt 0 view .LVU154
	strb	r6, [r0, #6]
	.loc 1 225 2 is_stmt 1 view .LVU155
	.loc 1 225 23 is_stmt 0 view .LVU156
	movs	r6, #8
	strb	r6, [r0, #7]
	.loc 1 226 2 is_stmt 1 view .LVU157
	.loc 1 226 22 is_stmt 0 view .LVU158
	strb	r3, [r0, #2]
	movs	r6, #44
	strb	r6, [r0, #3]
	.loc 1 228 2 is_stmt 1 view .LVU159
	.loc 1 228 15 is_stmt 0 view .LVU160
	strb	r3, [r0, #32]
	.loc 1 231 2 is_stmt 1 view .LVU161
	.loc 1 231 17 is_stmt 0 view .LVU162
	ldrb	r6, [r0, #1]	@ zero_extendqisi2
	bfi	r6, r3, #4, #4
	strb	r6, [r0, #1]
	.loc 1 232 2 is_stmt 1 view .LVU163
	.loc 1 232 17 is_stmt 0 view .LVU164
	strb	r3, [r0, #5]
	.loc 1 233 2 is_stmt 1 view .LVU165
	.loc 1 233 17 is_stmt 0 view .LVU166
	strb	r3, [r0, #16]
	strb	r3, [r0, #17]
	strb	r3, [r0, #18]
	strb	r3, [r0, #19]
	.loc 1 236 2 is_stmt 1 view .LVU167
.LVL43:
.LBB315:
.LBI315:
	.file 7 "/home/sebin/LIOT/gcc-arm-none-eabi-9-2019-q4-major/arm-none-eabi/include/ssp/string.h"
	.loc 7 86 189 view .LVU168
.LBB316:
	.loc 7 86 238 view .LVU169
	.loc 7 86 245 is_stmt 0 view .LVU170
	str	r3, [r0, #34]	@ unaligned
	str	r3, [r0, #38]	@ unaligned
	strh	r3, [r0, #42]	@ unaligned
.LVL44:
	.loc 7 86 245 view .LVU171
.LBE316:
.LBE315:
	.loc 1 239 2 is_stmt 1 view .LVU172
	.loc 1 239 9 is_stmt 0 view .LVU173
	ldrh	r3, [r1, #764]
	.loc 1 239 22 view .LVU174
	adds	r3, r3, #1
	strh	r3, [r1, #764]	@ movhi
	.loc 1 241 2 is_stmt 1 view .LVU175
.LVL45:
.L18:
	.loc 1 242 1 is_stmt 0 view .LVU176
	mov	r0, r5
	pop	{r3, r4, r5, r6, r7, pc}
.LVL46:
.L22:
	.loc 1 242 1 view .LVU177
	.align	2
.L21:
	.word	gptp_domain
	.cfi_endproc
.LFE888:
	.size	gptp_prepare_sync, .-gptp_prepare_sync
	.section	.text.gptp_prepare_follow_up,"ax",%progbits
	.align	1
	.global	gptp_prepare_follow_up
	.syntax unified
	.thumb
	.thumb_func
	.fpu fpv4-sp-d16
	.type	gptp_prepare_follow_up, %function
gptp_prepare_follow_up:
.LVL47:
.LFB889:
	.loc 1 245 1 is_stmt 1 view -0
	.cfi_startproc
	@ args = 0, pretend = 0, frame = 0
	@ frame_needed = 0, uses_anonymous_args = 0
	.loc 1 245 1 is_stmt 0 view .LVU179
	push	{r4, r5, r6, lr}
	.cfi_def_cfa_offset 16
	.cfi_offset 4, -16
	.cfi_offset 5, -12
	.cfi_offset 6, -8
	.cfi_offset 14, -4
	mov	r5, r1
	.loc 1 246 2 is_stmt 1 view .LVU180
	.loc 1 247 2 view .LVU181
	.loc 1 248 2 view .LVU182
	.loc 1 249 2 view .LVU183
	.loc 1 251 4 view .LVU184
	.loc 1 251 5 view .LVU185
	.loc 1 252 4 view .LVU186
	.loc 1 252 5 view .LVU187
	.loc 1 253 2 view .LVU188
	.loc 1 253 8 is_stmt 0 view .LVU189
	addw	r3, r0, #437
	ldr	r0, .L28
.LVL48:
	.loc 1 253 8 view .LVU190
	add	r0, r0, r3, lsl #2
.LVL49:
	.loc 1 254 4 is_stmt 1 view .LVU191
	.loc 1 254 5 view .LVU192
	.loc 1 256 2 view .LVU193
	.loc 1 256 8 is_stmt 0 view .LVU194
	movs	r1, #42
.LVL50:
	.loc 1 256 8 view .LVU195
	ldr	r0, [r0, #4]
.LVL51:
	.loc 1 256 8 view .LVU196
	bl	setup_gptp_frame
.LVL52:
	.loc 1 257 2 is_stmt 1 view .LVU197
	.loc 1 257 5 is_stmt 0 view .LVU198
	mov	r6, r0
	cmp	r0, #0
	beq	.L23
	.loc 1 262 2 is_stmt 1 view .LVU199
.LVL53:
.LBB317:
.LBI317:
	.loc 4 731 20 view .LVU200
.LBB318:
	.loc 4 734 2 view .LVU201
	.loc 4 734 16 is_stmt 0 view .LVU202
	movs	r3, #6
	strb	r3, [r0, #82]
.LVL54:
	.loc 4 734 16 view .LVU203
.LBE318:
.LBE317:
	.loc 1 264 2 is_stmt 1 view .LVU204
	.loc 1 265 2 view .LVU205
	.loc 1 265 8 is_stmt 0 view .LVU206
	bl	gptp_get_hdr
.LVL55:
	.loc 1 265 8 view .LVU207
	mov	r4, r0
.LVL56:
	.loc 1 266 2 is_stmt 1 view .LVU208
	.loc 1 266 13 is_stmt 0 view .LVU209
	mov	r0, r5
.LVL57:
	.loc 1 266 13 view .LVU210
	bl	gptp_get_hdr
.LVL58:
	.loc 1 273 2 is_stmt 1 view .LVU211
	.loc 1 273 26 is_stmt 0 view .LVU212
	ldrb	r3, [r4]	@ zero_extendqisi2
	movs	r2, #1
	bfi	r3, r2, #4, #4
	.loc 1 274 2 is_stmt 1 view .LVU213
	.loc 1 274 20 is_stmt 0 view .LVU214
	movs	r2, #8
	bfi	r3, r2, #0, #4
	strb	r3, [r4]
	.loc 1 275 2 is_stmt 1 view .LVU215
	.loc 1 275 19 is_stmt 0 view .LVU216
	ldrb	r3, [r4, #1]	@ zero_extendqisi2
	movs	r2, #2
	bfi	r3, r2, #0, #4
	strb	r3, [r4, #1]
	.loc 1 276 2 is_stmt 1 view .LVU217
	.loc 1 276 29 is_stmt 0 view .LVU218
	ldrh	r3, [r0, #30]	@ unaligned
	.loc 1 276 19 view .LVU219
	strh	r3, [r4, #30]	@ unaligned
	.loc 1 277 2 is_stmt 1 view .LVU220
	.loc 1 277 21 is_stmt 0 view .LVU221
	movs	r3, #0
	strb	r3, [r4, #4]
	.loc 1 279 2 is_stmt 1 view .LVU222
.LVL59:
.LBB319:
.LBI319:
	.file 8 "/home/sebin/thesis/zephyrproject/zephyr/subsys/net/l2/ethernet/gptp/gptp_private.h"
	.loc 8 111 24 view .LVU223
.LBB320:
	.loc 8 113 2 view .LVU224
	.loc 8 113 5 is_stmt 0 view .LVU225
	cmn	r5, #32
	beq	.L26
	.loc 8 117 2 is_stmt 1 view .LVU226
	.loc 8 117 12 is_stmt 0 view .LVU227
	ldr	r2, [r5, #32]
	ldr	r0, [r5, #36]
.LVL60:
	.loc 8 117 21 view .LVU228
	ldr	r1, .L28+4
	umull	r2, r3, r2, r1
	mla	r3, r1, r0, r3
	.loc 8 117 58 view .LVU229
	ldr	r1, [r5, #40]
	.loc 8 117 54 view .LVU230
	adds	r2, r2, r1
	adc	r3, r3, #0
.L25:
.LVL61:
	.loc 8 117 54 view .LVU231
.LBE320:
.LBE319:
	.loc 1 279 24 view .LVU232
	str	r2, [r4, #8]	@ unaligned
	str	r3, [r4, #12]	@ unaligned
	.loc 1 280 2 is_stmt 1 view .LVU233
	.loc 1 280 23 is_stmt 0 view .LVU234
	movs	r3, #0
	strb	r3, [r4, #6]
	.loc 1 281 2 is_stmt 1 view .LVU235
	.loc 1 281 23 is_stmt 0 view .LVU236
	movs	r2, #8
	strb	r2, [r4, #7]
	.loc 1 282 2 is_stmt 1 view .LVU237
	.loc 1 282 22 is_stmt 0 view .LVU238
	strb	r3, [r4, #2]
	movs	r2, #76
	strb	r2, [r4, #3]
	.loc 1 284 2 is_stmt 1 view .LVU239
	.loc 1 284 15 is_stmt 0 view .LVU240
	movs	r2, #2
	strb	r2, [r4, #32]
	.loc 1 287 2 is_stmt 1 view .LVU241
	.loc 1 287 17 is_stmt 0 view .LVU242
	ldrb	r2, [r4, #1]	@ zero_extendqisi2
	bfi	r2, r3, #4, #4
	strb	r2, [r4, #1]
	.loc 1 288 2 is_stmt 1 view .LVU243
	.loc 1 288 17 is_stmt 0 view .LVU244
	strb	r3, [r4, #5]
	.loc 1 289 2 is_stmt 1 view .LVU245
	.loc 1 289 17 is_stmt 0 view .LVU246
	strb	r3, [r4, #16]
	strb	r3, [r4, #17]
	strb	r3, [r4, #18]
	strb	r3, [r4, #19]
	.loc 1 293 2 is_stmt 1 view .LVU247
.LVL62:
.L23:
	.loc 1 294 1 is_stmt 0 view .LVU248
	mov	r0, r6
	pop	{r4, r5, r6, pc}
.LVL63:
.L26:
.LBB322:
.LBB321:
	.loc 8 114 10 view .LVU249
	movs	r2, #0
	movs	r3, #0
	b	.L25
.L29:
	.align	2
.L28:
	.word	gptp_domain
	.word	1000000000
.LBE321:
.LBE322:
	.cfi_endproc
.LFE889:
	.size	gptp_prepare_follow_up, .-gptp_prepare_follow_up
	.section	.text.gptp_prepare_pdelay_req,"ax",%progbits
	.align	1
	.global	gptp_prepare_pdelay_req
	.syntax unified
	.thumb
	.thumb_func
	.fpu fpv4-sp-d16
	.type	gptp_prepare_pdelay_req, %function
gptp_prepare_pdelay_req:
.LVL64:
.LFB890:
	.loc 1 297 1 is_stmt 1 view -0
	.cfi_startproc
	@ args = 0, pretend = 0, frame = 0
	@ frame_needed = 0, uses_anonymous_args = 0
	.loc 1 297 1 is_stmt 0 view .LVU251
	push	{r3, r4, r5, r6, r7, lr}
	.cfi_def_cfa_offset 24
	.cfi_offset 3, -24
	.cfi_offset 4, -20
	.cfi_offset 5, -16
	.cfi_offset 6, -12
	.cfi_offset 7, -8
	.cfi_offset 14, -4
	.loc 1 298 2 is_stmt 1 view .LVU252
	.loc 1 299 2 view .LVU253
	.loc 1 300 2 view .LVU254
	.loc 1 301 2 view .LVU255
	.loc 1 302 2 view .LVU256
	.loc 1 304 4 view .LVU257
	.loc 1 304 5 view .LVU258
	.loc 1 305 2 view .LVU259
	.loc 1 305 33 is_stmt 0 view .LVU260
	subs	r4, r0, #1
	.loc 1 305 8 view .LVU261
	addw	r0, r0, #437
.LVL65:
	.loc 1 305 8 view .LVU262
	ldr	r3, .L33
	add	r0, r3, r0, lsl #2
.LVL66:
	.loc 1 306 4 is_stmt 1 view .LVU263
	.loc 1 306 5 view .LVU264
	.loc 1 308 2 view .LVU265
	.loc 1 308 8 is_stmt 0 view .LVU266
	movs	r1, #20
	ldr	r0, [r0, #4]
.LVL67:
	.loc 1 308 8 view .LVU267
	bl	setup_gptp_frame
.LVL68:
	.loc 1 309 2 is_stmt 1 view .LVU268
	.loc 1 309 5 is_stmt 0 view .LVU269
	mov	r5, r0
	cmp	r0, #0
	beq	.L30
	.loc 1 314 2 is_stmt 1 view .LVU270
.LVL69:
.LBB323:
.LBI323:
	.loc 4 731 20 view .LVU271
.LBB324:
	.loc 4 734 2 view .LVU272
	.loc 4 734 16 is_stmt 0 view .LVU273
	movs	r3, #3
	strb	r3, [r0, #82]
.LVL70:
	.loc 4 734 16 view .LVU274
.LBE324:
.LBE323:
	.loc 1 316 2 is_stmt 1 view .LVU275
	.loc 1 317 2 view .LVU276
.LBB325:
.LBI325:
	.loc 6 319 24 view .LVU277
.LBB326:
	.loc 6 321 2 view .LVU278
	.loc 6 321 20 is_stmt 0 view .LVU279
	bl	gptp_get_hdr
.LVL71:
	.loc 6 321 20 view .LVU280
.LBE326:
.LBE325:
	.loc 1 318 2 is_stmt 1 view .LVU281
	.loc 1 321 2 view .LVU282
	.loc 1 321 26 is_stmt 0 view .LVU283
	ldrb	r3, [r0]	@ zero_extendqisi2
	movs	r2, #1
	bfi	r3, r2, #4, #4
	.loc 1 322 2 is_stmt 1 view .LVU284
	.loc 1 322 20 is_stmt 0 view .LVU285
	movs	r2, #2
	bfi	r3, r2, #0, #4
	strb	r3, [r0]
	.loc 1 323 2 is_stmt 1 view .LVU286
	.loc 1 323 19 is_stmt 0 view .LVU287
	ldrb	r3, [r0, #1]	@ zero_extendqisi2
	bfi	r3, r2, #0, #4
	strb	r3, [r0, #1]
	.loc 1 324 2 is_stmt 1 view .LVU288
	.loc 1 324 44 is_stmt 0 view .LVU289
	ldr	r2, .L33
	add	r1, r4, r4, lsl #1
	add	r1, r2, r1, lsl #5
	ldrh	r6, [r1, #766]
	.loc 1 324 79 view .LVU290
	lsrs	r3, r6, #8
	.loc 1 324 19 view .LVU291
	orr	r3, r3, r6, lsl #8
	strh	r3, [r0, #30]	@ unaligned
	.loc 1 325 2 is_stmt 1 view .LVU292
	.loc 1 325 21 is_stmt 0 view .LVU293
	movs	r3, #0
	strb	r3, [r0, #4]
	.loc 1 326 2 is_stmt 1 view .LVU294
	.loc 1 326 24 is_stmt 0 view .LVU295
	strb	r3, [r0, #8]
	strb	r3, [r0, #9]
	strb	r3, [r0, #10]
	strb	r3, [r0, #11]
	strb	r3, [r0, #12]
	strb	r3, [r0, #13]
	strb	r3, [r0, #14]
	strb	r3, [r0, #15]
	.loc 1 327 2 is_stmt 1 view .LVU296
	.loc 1 327 23 is_stmt 0 view .LVU297
	strb	r3, [r0, #6]
	.loc 1 328 2 is_stmt 1 view .LVU298
	.loc 1 328 23 is_stmt 0 view .LVU299
	movs	r6, #8
	strb	r6, [r0, #7]
	.loc 1 330 2 is_stmt 1 view .LVU300
	.loc 1 330 22 is_stmt 0 view .LVU301
	strb	r3, [r0, #2]
	movs	r6, #54
	strb	r6, [r0, #3]
	.loc 1 332 2 is_stmt 1 view .LVU302
	.loc 1 332 61 is_stmt 0 view .LVU303
	ldrh	r7, [r1, #736]
	.loc 1 332 89 view .LVU304
	lsrs	r6, r7, #8
	.loc 1 332 27 view .LVU305
	orr	r6, r6, r7, lsl #8
	strh	r6, [r0, #28]	@ unaligned
	.loc 1 333 2 is_stmt 1 view .LVU306
	.loc 1 333 15 is_stmt 0 view .LVU307
	movs	r6, #5
	strb	r6, [r0, #32]
	.loc 1 334 2 is_stmt 1 view .LVU308
	.loc 1 334 33 is_stmt 0 view .LVU309
	ldrsb	r6, [r1, #779]
	.loc 1 334 24 view .LVU310
	strb	r6, [r0, #33]
	.loc 1 337 2 is_stmt 1 view .LVU311
	.loc 1 337 17 is_stmt 0 view .LVU312
	ldrb	r6, [r0, #1]	@ zero_extendqisi2
	bfi	r6, r3, #4, #4
	strb	r6, [r0, #1]
	.loc 1 338 2 is_stmt 1 view .LVU313
	.loc 1 338 17 is_stmt 0 view .LVU314
	strb	r3, [r0, #5]
	.loc 1 339 2 is_stmt 1 view .LVU315
	.loc 1 339 17 is_stmt 0 view .LVU316
	strb	r3, [r0, #16]
	strb	r3, [r0, #17]
	strb	r3, [r0, #18]
	strb	r3, [r0, #19]
	.loc 1 341 1 is_stmt 1 view .LVU317
	.loc 1 341 17 is_stmt 0 view .LVU318
	add	r6, r4, r4, lsl #1
	lsls	r6, r6, #5
	add	r6, r6, #728
	add	ip, r6, r2
.LVL72:
.LBB327:
.LBI327:
	.loc 7 83 216 is_stmt 1 view .LVU319
.LBB328:
	.loc 7 83 292 view .LVU320
	.loc 7 83 299 is_stmt 0 view .LVU321
	ldr	r7, [r2, r6]	@ unaligned
	ldr	r6, [ip, #4]	@ unaligned
	str	r7, [r0, #20]	@ unaligned
	str	r6, [r0, #24]	@ unaligned
.LVL73:
	.loc 7 83 299 view .LVU322
.LBE328:
.LBE327:
	.loc 1 345 2 is_stmt 1 view .LVU323
.LBB329:
.LBI329:
	.loc 7 86 189 view .LVU324
.LBB330:
	.loc 7 86 238 view .LVU325
	.loc 7 86 245 is_stmt 0 view .LVU326
	str	r3, [r0, #34]	@ unaligned
	str	r3, [r0, #38]	@ unaligned
	strh	r3, [r0, #42]	@ unaligned
.LVL74:
	.loc 7 86 245 view .LVU327
.LBE330:
.LBE329:
	.loc 1 346 2 is_stmt 1 view .LVU328
.LBB331:
.LBI331:
	.loc 7 86 189 view .LVU329
.LBB332:
	.loc 7 86 238 view .LVU330
	.loc 7 86 245 is_stmt 0 view .LVU331
	str	r3, [r0, #44]	@ unaligned
	str	r3, [r0, #48]	@ unaligned
	strh	r3, [r0, #52]	@ unaligned
.LVL75:
	.loc 7 86 245 view .LVU332
.LBE332:
.LBE331:
	.loc 1 349 2 is_stmt 1 view .LVU333
	.loc 1 349 9 is_stmt 0 view .LVU334
	ldrh	r3, [r1, #766]
	.loc 1 349 28 view .LVU335
	adds	r3, r3, #1
	strh	r3, [r1, #766]	@ movhi
	.loc 1 351 2 is_stmt 1 view .LVU336
.LVL76:
.L30:
	.loc 1 352 1 is_stmt 0 view .LVU337
	mov	r0, r5
	pop	{r3, r4, r5, r6, r7, pc}
.LVL77:
.L34:
	.loc 1 352 1 view .LVU338
	.align	2
.L33:
	.word	gptp_domain
	.cfi_endproc
.LFE890:
	.size	gptp_prepare_pdelay_req, .-gptp_prepare_pdelay_req
	.section	.text.gptp_prepare_pdelay_resp,"ax",%progbits
	.align	1
	.global	gptp_prepare_pdelay_resp
	.syntax unified
	.thumb
	.thumb_func
	.fpu fpv4-sp-d16
	.type	gptp_prepare_pdelay_resp, %function
gptp_prepare_pdelay_resp:
.LVL78:
.LFB891:
	.loc 1 356 1 is_stmt 1 view -0
	.cfi_startproc
	@ args = 0, pretend = 0, frame = 0
	@ frame_needed = 0, uses_anonymous_args = 0
	.loc 1 356 1 is_stmt 0 view .LVU340
	push	{r4, r5, r6, r7, r8, lr}
	.cfi_def_cfa_offset 24
	.cfi_offset 4, -24
	.cfi_offset 5, -20
	.cfi_offset 6, -16
	.cfi_offset 7, -12
	.cfi_offset 8, -8
	.cfi_offset 14, -4
	mov	r5, r0
	mov	r7, r1
	.loc 1 357 2 is_stmt 1 view .LVU341
.LVL79:
.LBB333:
.LBI333:
	.loc 4 293 30 view .LVU342
.LBB334:
	.loc 4 295 2 view .LVU343
	.loc 4 295 2 is_stmt 0 view .LVU344
.LBE334:
.LBE333:
	.loc 1 358 2 is_stmt 1 view .LVU345
	.loc 1 359 2 view .LVU346
	.loc 1 360 2 view .LVU347
	.loc 1 361 2 view .LVU348
	.loc 1 362 2 view .LVU349
	.loc 1 364 2 view .LVU350
	.loc 1 364 8 is_stmt 0 view .LVU351
	movs	r1, #20
.LVL80:
	.loc 1 364 8 view .LVU352
	ldr	r0, [r7, #24]
.LVL81:
	.loc 1 364 8 view .LVU353
	bl	setup_gptp_frame
.LVL82:
	.loc 1 365 2 is_stmt 1 view .LVU354
	.loc 1 365 5 is_stmt 0 view .LVU355
	mov	r6, r0
	cmp	r0, #0
	beq	.L35
	.loc 1 370 2 is_stmt 1 view .LVU356
.LVL83:
.LBB335:
.LBI335:
	.loc 4 731 20 view .LVU357
.LBB336:
	.loc 4 734 2 view .LVU358
	.loc 4 734 16 is_stmt 0 view .LVU359
	mov	r8, #3
	strb	r8, [r0, #82]
.LVL84:
	.loc 4 734 16 view .LVU360
.LBE336:
.LBE335:
	.loc 1 372 2 is_stmt 1 view .LVU361
	.loc 1 372 39 is_stmt 0 view .LVU362
	subs	r5, r5, #1
.LVL85:
	.loc 1 374 2 is_stmt 1 view .LVU363
.LBB337:
.LBI337:
	.loc 6 319 24 view .LVU364
.LBB338:
	.loc 6 321 2 view .LVU365
	.loc 6 321 20 is_stmt 0 view .LVU366
	bl	gptp_get_hdr
.LVL86:
	.loc 6 321 20 view .LVU367
	mov	r4, r0
.LVL87:
	.loc 6 321 20 view .LVU368
.LBE338:
.LBE337:
	.loc 1 375 2 is_stmt 1 view .LVU369
	.loc 1 377 2 view .LVU370
.LBB339:
.LBI339:
	.loc 6 319 24 view .LVU371
.LBB340:
	.loc 6 321 2 view .LVU372
	.loc 6 321 20 is_stmt 0 view .LVU373
	mov	r0, r7
.LVL88:
	.loc 6 321 20 view .LVU374
	bl	gptp_get_hdr
.LVL89:
	.loc 6 321 20 view .LVU375
.LBE340:
.LBE339:
	.loc 1 378 2 is_stmt 1 view .LVU376
	.loc 1 381 2 view .LVU377
	.loc 1 381 26 is_stmt 0 view .LVU378
	ldrb	r3, [r4]	@ zero_extendqisi2
	movs	r2, #1
	bfi	r3, r2, #4, #4
	.loc 1 382 2 is_stmt 1 view .LVU379
	.loc 1 382 20 is_stmt 0 view .LVU380
	bfi	r3, r8, #0, #4
	strb	r3, [r4]
	.loc 1 383 2 is_stmt 1 view .LVU381
	.loc 1 383 19 is_stmt 0 view .LVU382
	ldrb	r2, [r4, #1]	@ zero_extendqisi2
	movs	r3, #2
	bfi	r2, r3, #0, #4
	strb	r2, [r4, #1]
	.loc 1 384 2 is_stmt 1 view .LVU383
	.loc 1 384 26 is_stmt 0 view .LVU384
	ldrh	r2, [r0, #30]	@ unaligned
	.loc 1 384 19 view .LVU385
	strh	r2, [r4, #30]	@ unaligned
	.loc 1 385 2 is_stmt 1 view .LVU386
	.loc 1 385 28 is_stmt 0 view .LVU387
	ldrb	r2, [r0, #4]	@ zero_extendqisi2
	.loc 1 385 21 view .LVU388
	strb	r2, [r4, #4]
	.loc 1 386 2 is_stmt 1 view .LVU389
	.loc 1 386 31 is_stmt 0 view .LVU390
	ldr	r1, [r0, #8]	@ unaligned
	ldr	r2, [r0, #12]	@ unaligned
	.loc 1 386 24 view .LVU391
	str	r1, [r4, #8]	@ unaligned
	str	r2, [r4, #12]	@ unaligned
	.loc 1 387 2 is_stmt 1 view .LVU392
	.loc 1 387 23 is_stmt 0 view .LVU393
	strb	r3, [r4, #6]
	.loc 1 388 2 is_stmt 1 view .LVU394
	.loc 1 388 23 is_stmt 0 view .LVU395
	movs	r3, #8
	strb	r3, [r4, #7]
	.loc 1 390 2 is_stmt 1 view .LVU396
	.loc 1 390 22 is_stmt 0 view .LVU397
	movs	r3, #0
	strb	r3, [r4, #2]
	movs	r2, #54
	strb	r2, [r4, #3]
	.loc 1 392 2 is_stmt 1 view .LVU398
	.loc 1 392 61 is_stmt 0 view .LVU399
	ldr	r2, .L38
	add	r1, r5, r5, lsl #1
	add	r1, r2, r1, lsl #5
	ldrh	r7, [r1, #736]
.LVL90:
	.loc 1 392 89 view .LVU400
	lsrs	r1, r7, #8
	.loc 1 392 27 view .LVU401
	orr	r1, r1, r7, lsl #8
	strh	r1, [r4, #28]	@ unaligned
	.loc 1 393 2 is_stmt 1 view .LVU402
	.loc 1 393 15 is_stmt 0 view .LVU403
	movs	r1, #5
	strb	r1, [r4, #32]
	.loc 1 394 2 is_stmt 1 view .LVU404
	.loc 1 394 24 is_stmt 0 view .LVU405
	movs	r1, #127
	strb	r1, [r4, #33]
	.loc 1 397 2 is_stmt 1 view .LVU406
	.loc 1 397 17 is_stmt 0 view .LVU407
	ldrb	r1, [r4, #1]	@ zero_extendqisi2
	bfi	r1, r3, #4, #4
	strb	r1, [r4, #1]
	.loc 1 398 2 is_stmt 1 view .LVU408
	.loc 1 398 17 is_stmt 0 view .LVU409
	strb	r3, [r4, #5]
	.loc 1 399 2 is_stmt 1 view .LVU410
	.loc 1 399 17 is_stmt 0 view .LVU411
	strb	r3, [r4, #16]
	strb	r3, [r4, #17]
	strb	r3, [r4, #18]
	strb	r3, [r4, #19]
	.loc 1 401 1 is_stmt 1 view .LVU412
	.loc 1 401 17 is_stmt 0 view .LVU413
	add	r5, r5, r5, lsl #1
.LVL91:
	.loc 1 401 17 view .LVU414
	lsls	r5, r5, #5
	add	r5, r5, #728
	adds	r7, r5, r2
.LVL92:
.LBB341:
.LBI341:
	.loc 7 83 216 is_stmt 1 view .LVU415
.LBB342:
	.loc 7 83 292 view .LVU416
	.loc 7 83 299 is_stmt 0 view .LVU417
	ldr	r1, [r2, r5]	@ unaligned
	ldr	r2, [r7, #4]	@ unaligned
	str	r1, [r4, #20]	@ unaligned
	str	r2, [r4, #24]	@ unaligned
.LVL93:
	.loc 7 83 299 view .LVU418
.LBE342:
.LBE341:
	.loc 1 405 2 is_stmt 1 view .LVU419
	.loc 1 405 40 is_stmt 0 view .LVU420
	strb	r3, [r4, #34]
	strb	r3, [r4, #35]
	.loc 1 406 2 is_stmt 1 view .LVU421
	.loc 1 406 39 is_stmt 0 view .LVU422
	strb	r3, [r4, #36]
	strb	r3, [r4, #37]
	strb	r3, [r4, #38]
	strb	r3, [r4, #39]
	.loc 1 407 2 is_stmt 1 view .LVU423
	.loc 1 407 36 is_stmt 0 view .LVU424
	strb	r3, [r4, #40]
	strb	r3, [r4, #41]
	strb	r3, [r4, #42]
	strb	r3, [r4, #43]
	.loc 1 409 1 is_stmt 1 view .LVU425
.LVL94:
.LBB343:
.LBI343:
	.loc 7 83 216 view .LVU426
.LBB344:
	.loc 7 83 292 view .LVU427
	.loc 7 83 299 is_stmt 0 view .LVU428
	ldr	r2, [r0, #20]!	@ unaligned
.LVL95:
	.loc 7 83 299 view .LVU429
	ldr	r3, [r0, #4]	@ unaligned
	str	r2, [r4, #44]	@ unaligned
	str	r3, [r4, #48]	@ unaligned
	ldrh	r3, [r0, #8]	@ unaligned
	strh	r3, [r4, #52]	@ unaligned
.LVL96:
.L35:
	.loc 7 83 299 view .LVU430
.LBE344:
.LBE343:
	.loc 1 413 1 view .LVU431
	mov	r0, r6
	pop	{r4, r5, r6, r7, r8, pc}
.LVL97:
.L39:
	.loc 1 413 1 view .LVU432
	.align	2
.L38:
	.word	gptp_domain
	.cfi_endproc
.LFE891:
	.size	gptp_prepare_pdelay_resp, .-gptp_prepare_pdelay_resp
	.section	.text.gptp_prepare_pdelay_follow_up,"ax",%progbits
	.align	1
	.global	gptp_prepare_pdelay_follow_up
	.syntax unified
	.thumb
	.thumb_func
	.fpu fpv4-sp-d16
	.type	gptp_prepare_pdelay_follow_up, %function
gptp_prepare_pdelay_follow_up:
.LVL98:
.LFB892:
	.loc 1 417 1 is_stmt 1 view -0
	.cfi_startproc
	@ args = 0, pretend = 0, frame = 0
	@ frame_needed = 0, uses_anonymous_args = 0
	.loc 1 417 1 is_stmt 0 view .LVU434
	push	{r3, r4, r5, r6, r7, lr}
	.cfi_def_cfa_offset 24
	.cfi_offset 3, -24
	.cfi_offset 4, -20
	.cfi_offset 5, -16
	.cfi_offset 6, -12
	.cfi_offset 7, -8
	.cfi_offset 14, -4
	mov	r5, r0
	mov	r7, r1
	.loc 1 418 2 is_stmt 1 view .LVU435
.LVL99:
.LBB345:
.LBI345:
	.loc 4 293 30 view .LVU436
.LBB346:
	.loc 4 295 2 view .LVU437
	.loc 4 295 2 is_stmt 0 view .LVU438
.LBE346:
.LBE345:
	.loc 1 419 2 is_stmt 1 view .LVU439
	.loc 1 420 2 view .LVU440
	.loc 1 421 2 view .LVU441
	.loc 1 422 2 view .LVU442
	.loc 1 423 2 view .LVU443
	.loc 1 425 2 view .LVU444
	.loc 1 425 8 is_stmt 0 view .LVU445
	movs	r1, #20
.LVL100:
	.loc 1 425 8 view .LVU446
	ldr	r0, [r7, #24]
.LVL101:
	.loc 1 425 8 view .LVU447
	bl	setup_gptp_frame
.LVL102:
	.loc 1 427 2 is_stmt 1 view .LVU448
	.loc 1 427 5 is_stmt 0 view .LVU449
	mov	r6, r0
	cmp	r0, #0
	beq	.L40
	.loc 1 432 2 is_stmt 1 view .LVU450
.LVL103:
.LBB347:
.LBI347:
	.loc 4 731 20 view .LVU451
.LBB348:
	.loc 4 734 2 view .LVU452
	.loc 4 734 16 is_stmt 0 view .LVU453
	movs	r3, #6
	strb	r3, [r0, #82]
.LVL104:
	.loc 4 734 16 view .LVU454
.LBE348:
.LBE347:
	.loc 1 434 2 is_stmt 1 view .LVU455
	.loc 1 434 39 is_stmt 0 view .LVU456
	subs	r5, r5, #1
.LVL105:
	.loc 1 436 2 is_stmt 1 view .LVU457
.LBB349:
.LBI349:
	.loc 6 319 24 view .LVU458
.LBB350:
	.loc 6 321 2 view .LVU459
	.loc 6 321 20 is_stmt 0 view .LVU460
	bl	gptp_get_hdr
.LVL106:
	.loc 6 321 20 view .LVU461
	mov	r4, r0
.LVL107:
	.loc 6 321 20 view .LVU462
.LBE350:
.LBE349:
	.loc 1 437 2 is_stmt 1 view .LVU463
	.loc 1 439 2 view .LVU464
.LBB351:
.LBI351:
	.loc 6 319 24 view .LVU465
.LBB352:
	.loc 6 321 2 view .LVU466
	.loc 6 321 20 is_stmt 0 view .LVU467
	mov	r0, r7
.LVL108:
	.loc 6 321 20 view .LVU468
	bl	gptp_get_hdr
.LVL109:
	.loc 6 321 20 view .LVU469
.LBE352:
.LBE351:
	.loc 1 440 2 is_stmt 1 view .LVU470
	.loc 1 443 2 view .LVU471
	.loc 1 443 26 is_stmt 0 view .LVU472
	ldrb	r3, [r4]	@ zero_extendqisi2
	movs	r2, #1
	bfi	r3, r2, #4, #4
	.loc 1 444 2 is_stmt 1 view .LVU473
	.loc 1 444 19 is_stmt 0 view .LVU474
	ldrb	r2, [r4, #1]	@ zero_extendqisi2
	movs	r1, #2
	bfi	r2, r1, #0, #4
	strb	r2, [r4, #1]
	.loc 1 445 2 is_stmt 1 view .LVU475
	.loc 1 445 20 is_stmt 0 view .LVU476
	movs	r2, #10
	bfi	r3, r2, #0, #4
	strb	r3, [r4]
	.loc 1 446 2 is_stmt 1 view .LVU477
	.loc 1 446 29 is_stmt 0 view .LVU478
	ldrh	r3, [r0, #30]	@ unaligned
	.loc 1 446 19 view .LVU479
	strh	r3, [r4, #30]	@ unaligned
	.loc 1 447 2 is_stmt 1 view .LVU480
	.loc 1 447 31 is_stmt 0 view .LVU481
	ldrb	r3, [r0, #4]	@ zero_extendqisi2
	.loc 1 447 21 view .LVU482
	strb	r3, [r4, #4]
	.loc 1 448 2 is_stmt 1 view .LVU483
	.loc 1 448 24 is_stmt 0 view .LVU484
	movs	r3, #0
	strb	r3, [r4, #8]
	strb	r3, [r4, #9]
	strb	r3, [r4, #10]
	strb	r3, [r4, #11]
	strb	r3, [r4, #12]
	strb	r3, [r4, #13]
	strb	r3, [r4, #14]
	strb	r3, [r4, #15]
	.loc 1 449 2 is_stmt 1 view .LVU485
	.loc 1 449 22 is_stmt 0 view .LVU486
	strb	r3, [r4, #2]
	movs	r2, #54
	strb	r2, [r4, #3]
	.loc 1 451 2 is_stmt 1 view .LVU487
	.loc 1 451 61 is_stmt 0 view .LVU488
	ldr	r2, .L43
	add	r1, r5, r5, lsl #1
	add	r1, r2, r1, lsl #5
	ldrh	r7, [r1, #736]
.LVL110:
	.loc 1 451 89 view .LVU489
	lsrs	r1, r7, #8
	.loc 1 451 27 view .LVU490
	orr	r1, r1, r7, lsl #8
	strh	r1, [r4, #28]	@ unaligned
	.loc 1 452 2 is_stmt 1 view .LVU491
	.loc 1 452 15 is_stmt 0 view .LVU492
	movs	r1, #5
	strb	r1, [r4, #32]
	.loc 1 453 2 is_stmt 1 view .LVU493
	.loc 1 453 24 is_stmt 0 view .LVU494
	movs	r1, #127
	strb	r1, [r4, #33]
	.loc 1 455 2 is_stmt 1 view .LVU495
	.loc 1 455 23 is_stmt 0 view .LVU496
	strb	r3, [r4, #6]
	.loc 1 456 2 is_stmt 1 view .LVU497
	.loc 1 456 23 is_stmt 0 view .LVU498
	movs	r1, #8
	strb	r1, [r4, #7]
	.loc 1 459 2 is_stmt 1 view .LVU499
	.loc 1 459 17 is_stmt 0 view .LVU500
	ldrb	r1, [r4, #1]	@ zero_extendqisi2
	bfi	r1, r3, #4, #4
	strb	r1, [r4, #1]
	.loc 1 460 2 is_stmt 1 view .LVU501
	.loc 1 460 17 is_stmt 0 view .LVU502
	strb	r3, [r4, #5]
	.loc 1 461 2 is_stmt 1 view .LVU503
	.loc 1 461 17 is_stmt 0 view .LVU504
	strb	r3, [r4, #16]
	strb	r3, [r4, #17]
	strb	r3, [r4, #18]
	strb	r3, [r4, #19]
	.loc 1 463 1 is_stmt 1 view .LVU505
	.loc 1 463 17 is_stmt 0 view .LVU506
	add	r5, r5, r5, lsl #1
.LVL111:
	.loc 1 463 17 view .LVU507
	lsls	r5, r5, #5
	add	r5, r5, #728
	adds	r7, r5, r2
.LVL112:
.LBB353:
.LBI353:
	.loc 7 83 216 is_stmt 1 view .LVU508
.LBB354:
	.loc 7 83 292 view .LVU509
	.loc 7 83 299 is_stmt 0 view .LVU510
	ldr	r1, [r2, r5]	@ unaligned
	ldr	r2, [r7, #4]	@ unaligned
	str	r1, [r4, #20]	@ unaligned
	str	r2, [r4, #24]	@ unaligned
.LVL113:
	.loc 7 83 299 view .LVU511
.LBE354:
.LBE353:
	.loc 1 467 2 is_stmt 1 view .LVU512
	.loc 1 467 36 is_stmt 0 view .LVU513
	strb	r3, [r4, #34]
	strb	r3, [r4, #35]
	.loc 1 468 2 is_stmt 1 view .LVU514
	.loc 1 468 35 is_stmt 0 view .LVU515
	strb	r3, [r4, #36]
	strb	r3, [r4, #37]
	strb	r3, [r4, #38]
	strb	r3, [r4, #39]
	.loc 1 469 2 is_stmt 1 view .LVU516
	.loc 1 469 32 is_stmt 0 view .LVU517
	strb	r3, [r4, #40]
	strb	r3, [r4, #41]
	strb	r3, [r4, #42]
	strb	r3, [r4, #43]
	.loc 1 471 1 is_stmt 1 view .LVU518
.LVL114:
.LBB355:
.LBI355:
	.loc 7 83 216 view .LVU519
.LBB356:
	.loc 7 83 292 view .LVU520
	.loc 7 83 299 is_stmt 0 view .LVU521
	ldr	r2, [r0, #44]!	@ unaligned
.LVL115:
	.loc 7 83 299 view .LVU522
	ldr	r3, [r0, #4]	@ unaligned
	str	r2, [r4, #44]	@ unaligned
	str	r3, [r4, #48]	@ unaligned
	ldrh	r3, [r0, #8]	@ unaligned
	strh	r3, [r4, #52]	@ unaligned
.LVL116:
.L40:
	.loc 7 83 299 view .LVU523
.LBE356:
.LBE355:
	.loc 1 476 1 view .LVU524
	mov	r0, r6
	pop	{r3, r4, r5, r6, r7, pc}
.LVL117:
.L44:
	.loc 1 476 1 view .LVU525
	.align	2
.L43:
	.word	gptp_domain
	.cfi_endproc
.LFE892:
	.size	gptp_prepare_pdelay_follow_up, .-gptp_prepare_pdelay_follow_up
	.section	.text.gptp_prepare_announce,"ax",%progbits
	.align	1
	.global	gptp_prepare_announce
	.syntax unified
	.thumb
	.thumb_func
	.fpu fpv4-sp-d16
	.type	gptp_prepare_announce, %function
gptp_prepare_announce:
.LVL118:
.LFB893:
	.loc 1 479 1 is_stmt 1 view -0
	.cfi_startproc
	@ args = 0, pretend = 0, frame = 0
	@ frame_needed = 0, uses_anonymous_args = 0
	.loc 1 479 1 is_stmt 0 view .LVU527
	push	{r3, r4, r5, r6, r7, lr}
	.cfi_def_cfa_offset 24
	.cfi_offset 3, -24
	.cfi_offset 4, -20
	.cfi_offset 5, -16
	.cfi_offset 6, -12
	.cfi_offset 7, -8
	.cfi_offset 14, -4
	mov	r6, r0
	.loc 1 480 2 is_stmt 1 view .LVU528
	.loc 1 481 2 view .LVU529
	.loc 1 482 2 view .LVU530
	.loc 1 483 2 view .LVU531
	.loc 1 484 2 view .LVU532
	.loc 1 485 2 view .LVU533
	.loc 1 486 2 view .LVU534
	.loc 1 488 4 view .LVU535
	.loc 1 488 5 view .LVU536
	.loc 1 489 2 view .LVU537
.LVL119:
	.loc 1 490 2 view .LVU538
	.loc 1 491 2 view .LVU539
	.loc 1 491 33 is_stmt 0 view .LVU540
	subs	r5, r0, #1
	.loc 1 491 8 view .LVU541
	ldr	r2, .L53
	addw	r3, r0, #437
	add	r3, r2, r3, lsl #2
.LVL120:
	.loc 1 492 4 is_stmt 1 view .LVU542
	.loc 1 492 5 view .LVU543
	.loc 1 494 2 view .LVU544
	.loc 1 495 48 is_stmt 0 view .LVU545
	ldrh	r2, [r2, #92]
	.loc 1 495 68 view .LVU546
	lsrs	r1, r2, #8
	orr	r1, r1, r2, lsl #8
	.loc 1 495 12 view .LVU547
	uxth	r1, r1
	.loc 1 494 8 view .LVU548
	adds	r1, r1, #34
	ldr	r0, [r3, #4]
.LVL121:
	.loc 1 494 8 view .LVU549
	bl	setup_gptp_frame
.LVL122:
	.loc 1 496 2 is_stmt 1 view .LVU550
	.loc 1 496 5 is_stmt 0 view .LVU551
	mov	r4, r0
	cmp	r0, #0
	beq	.L45
	.loc 1 501 2 is_stmt 1 view .LVU552
.LVL123:
.LBB357:
.LBI357:
	.loc 4 731 20 view .LVU553
.LBB358:
	.loc 4 734 2 view .LVU554
	.loc 4 734 16 is_stmt 0 view .LVU555
	movs	r3, #6
	strb	r3, [r0, #82]
.LVL124:
	.loc 4 734 16 view .LVU556
.LBE358:
.LBE357:
	.loc 1 503 2 is_stmt 1 view .LVU557
	.loc 1 503 8 is_stmt 0 view .LVU558
	bl	gptp_get_hdr
.LVL125:
	.loc 1 504 2 is_stmt 1 view .LVU559
	.loc 6 321 2 view .LVU560
	.loc 1 505 2 view .LVU561
	.loc 1 507 2 view .LVU562
	.loc 1 507 20 is_stmt 0 view .LVU563
	ldrb	r3, [r0]	@ zero_extendqisi2
	movs	r2, #11
	bfi	r3, r2, #0, #4
	.loc 1 508 2 is_stmt 1 view .LVU564
	.loc 1 508 26 is_stmt 0 view .LVU565
	movs	r2, #1
	bfi	r3, r2, #4, #4
	strb	r3, [r0]
	.loc 1 509 2 is_stmt 1 view .LVU566
	.loc 1 509 19 is_stmt 0 view .LVU567
	ldrb	r3, [r0, #1]	@ zero_extendqisi2
	movs	r2, #2
	bfi	r3, r2, #0, #4
	strb	r3, [r0, #1]
	.loc 1 511 2 is_stmt 1 view .LVU568
	.loc 1 511 21 is_stmt 0 view .LVU569
	movs	r3, #0
	strb	r3, [r0, #4]
	.loc 1 512 2 is_stmt 1 view .LVU570
	.loc 1 512 24 is_stmt 0 view .LVU571
	strb	r3, [r0, #8]
	strb	r3, [r0, #9]
	strb	r3, [r0, #10]
	strb	r3, [r0, #11]
	strb	r3, [r0, #12]
	strb	r3, [r0, #13]
	strb	r3, [r0, #14]
	strb	r3, [r0, #15]
	.loc 1 513 2 is_stmt 1 view .LVU572
	.loc 1 513 23 is_stmt 0 view .LVU573
	strb	r3, [r0, #6]
	.loc 1 518 2 is_stmt 1 view .LVU574
	.loc 1 519 33 is_stmt 0 view .LVU575
	ldr	r2, .L53
	ldrb	r1, [r2, #89]	@ zero_extendqisi2
	.loc 1 518 23 view .LVU576
	orr	r1, r1, #8
	strb	r1, [r0, #7]
	.loc 1 521 1 is_stmt 1 view .LVU577
.LVL126:
.LBB359:
.LBI359:
	.loc 7 83 216 view .LVU578
.LBB360:
	.loc 7 83 292 view .LVU579
	.loc 7 83 299 is_stmt 0 view .LVU580
	ldr	r7, [r2, #285]	@ unaligned
	ldr	r1, [r2, #289]	@ unaligned
	str	r7, [r0, #20]	@ unaligned
	str	r1, [r0, #24]	@ unaligned
.LVL127:
	.loc 7 83 299 view .LVU581
.LBE360:
.LBE359:
	.loc 1 524 2 is_stmt 1 view .LVU582
	.loc 1 524 57 is_stmt 0 view .LVU583
	ubfx	r1, r6, #8, #8
	.loc 1 524 27 view .LVU584
	orr	r6, r1, r6, lsl #8
.LVL128:
	.loc 1 524 27 view .LVU585
	strh	r6, [r0, #28]	@ unaligned
	.loc 1 525 2 is_stmt 1 view .LVU586
	.loc 1 525 15 is_stmt 0 view .LVU587
	movs	r1, #5
	strb	r1, [r0, #32]
	.loc 1 526 2 is_stmt 1 view .LVU588
	.loc 1 526 33 is_stmt 0 view .LVU589
	add	r1, r5, r5, lsl #1
	add	r1, r2, r1, lsl #5
	ldrsb	r1, [r1, #773]
	.loc 1 526 24 view .LVU590
	strb	r1, [r0, #33]
	.loc 1 529 2 is_stmt 1 view .LVU591
	.loc 1 529 17 is_stmt 0 view .LVU592
	ldrb	r1, [r0, #1]	@ zero_extendqisi2
	bfi	r1, r3, #4, #4
	strb	r1, [r0, #1]
	.loc 1 530 2 is_stmt 1 view .LVU593
	.loc 1 530 17 is_stmt 0 view .LVU594
	strb	r3, [r0, #5]
	.loc 1 531 2 is_stmt 1 view .LVU595
	.loc 1 531 17 is_stmt 0 view .LVU596
	strb	r3, [r0, #16]
	strb	r3, [r0, #17]
	strb	r3, [r0, #18]
	strb	r3, [r0, #19]
	.loc 1 533 2 is_stmt 1 view .LVU597
	.loc 1 533 33 is_stmt 0 view .LVU598
	ldrsh	r3, [r2, #266]
	.loc 1 533 22 view .LVU599
	strh	r3, [r0, #44]	@ unaligned
	.loc 1 534 2 is_stmt 1 view .LVU600
	.loc 1 534 30 is_stmt 0 view .LVU601
	ldrb	r3, [r2, #274]	@ zero_extendqisi2
	.loc 1 534 19 view .LVU602
	strb	r3, [r0, #63]
	.loc 1 536 2 is_stmt 1 view .LVU603
	.loc 1 536 49 is_stmt 0 view .LVU604
	movs	r3, #100
	mla	r2, r3, r5, r2
	ldrb	r3, [r2, #1740]	@ zero_extendqisi2
	.loc 1 536 2 view .LVU605
	cmp	r3, #0
	beq	.L47
	cmp	r3, #1
	bne	.L48
	.loc 1 538 3 is_stmt 1 view .LVU606
	.loc 1 538 54 is_stmt 0 view .LVU607
	ldr	r3, .L53
	ldrb	r2, [r3, #300]	@ zero_extendqisi2
	.loc 1 538 42 view .LVU608
	strb	r2, [r0, #47]
	.loc 1 539 3 is_stmt 1 view .LVU609
	.loc 1 539 54 is_stmt 0 view .LVU610
	ldrb	r2, [r3, #301]	@ zero_extendqisi2
	.loc 1 539 42 view .LVU611
	strb	r2, [r0, #52]
	.loc 1 541 2 is_stmt 1 view .LVU612
.LVL129:
.LBB361:
.LBI361:
	.loc 7 83 216 view .LVU613
.LBB362:
	.loc 7 83 292 view .LVU614
	ldr	r2, [r3, #280]
	.loc 7 83 299 is_stmt 0 view .LVU615
	str	r2, [r0, #48]	@ unaligned
.LVL130:
	.loc 7 83 299 view .LVU616
.LBE362:
.LBE361:
	.loc 1 545 2 is_stmt 1 view .LVU617
.LBB363:
.LBI363:
	.loc 7 83 216 view .LVU618
.LBB364:
	.loc 7 83 292 view .LVU619
	.loc 7 83 299 is_stmt 0 view .LVU620
	ldr	r2, [r3, #285]	@ unaligned
	ldr	r3, [r3, #289]	@ unaligned
	str	r2, [r0, #53]	@ unaligned
	str	r3, [r0, #57]	@ unaligned
.LVL131:
.L49:
	.loc 7 83 299 view .LVU621
.LBE364:
.LBE363:
	.loc 1 559 2 is_stmt 1 view .LVU622
	.loc 1 559 32 is_stmt 0 view .LVU623
	ldr	r2, .L53
	.loc 1 559 21 view .LVU624
	ldrh	r3, [r2, #264]
	strh	r3, [r0, #61]	@ unaligned
	.loc 1 560 2 is_stmt 1 view .LVU625
	.loc 1 560 44 is_stmt 0 view .LVU626
	add	r3, r5, r5, lsl #1
	add	r3, r2, r3, lsl #5
	ldrh	r6, [r3, #768]
	.loc 1 560 77 view .LVU627
	lsrs	r1, r6, #8
	.loc 1 560 19 view .LVU628
	orr	r1, r1, r6, lsl #8
	strh	r1, [r0, #30]	@ unaligned
	.loc 1 561 2 is_stmt 1 view .LVU629
	.loc 1 561 9 is_stmt 0 view .LVU630
	ldrh	r3, [r3, #768]
	.loc 1 561 26 view .LVU631
	add	r5, r5, r5, lsl #1
.LVL132:
	.loc 1 561 26 view .LVU632
	add	r5, r2, r5, lsl #5
	adds	r3, r3, #1
	strh	r3, [r5, #768]	@ movhi
	.loc 1 563 2 is_stmt 1 view .LVU633
	.loc 1 563 16 is_stmt 0 view .LVU634
	movs	r3, #0
	strb	r3, [r0, #64]
	movs	r1, #8
	strb	r1, [r0, #65]
	.loc 1 566 2 is_stmt 1 view .LVU635
.LVL133:
.LBB365:
.LBI365:
	.loc 7 86 189 view .LVU636
.LBB366:
	.loc 7 86 238 view .LVU637
	.loc 7 86 245 is_stmt 0 view .LVU638
	str	r3, [r0, #34]	@ unaligned
	str	r3, [r0, #38]	@ unaligned
	strh	r3, [r0, #42]	@ unaligned
.LVL134:
	.loc 7 86 245 view .LVU639
.LBE366:
.LBE365:
	.loc 1 567 2 is_stmt 1 view .LVU640
	.loc 1 567 17 is_stmt 0 view .LVU641
	strb	r3, [r0, #46]
	.loc 1 569 2 is_stmt 1 view .LVU642
	.loc 1 569 138 is_stmt 0 view .LVU643
	ldrh	r1, [r2, #92]
	.loc 1 569 158 view .LVU644
	lsrs	r3, r1, #8
	orr	r3, r3, r1, lsl #8
	.loc 1 569 102 view .LVU645
	uxth	r3, r3
	.loc 1 569 99 view .LVU646
	adds	r3, r3, #68
	.loc 1 569 213 view .LVU647
	ubfx	r1, r3, #8, #8
	.loc 1 569 285 view .LVU648
	uxth	r3, r3
	.loc 1 569 401 view .LVU649
	lsls	r3, r3, #8
	uxth	r3, r3
	.loc 1 569 22 view .LVU650
	orrs	r3, r3, r1
	strh	r3, [r0, #2]	@ unaligned
	.loc 1 573 2 is_stmt 1 view .LVU651
	.loc 1 573 15 is_stmt 0 view .LVU652
	ldrh	r3, [r2, #92]
	strh	r3, [r0, #66]	@ unaligned
	.loc 1 575 2 is_stmt 1 view .LVU653
	mov	r0, r4
.LVL135:
	.loc 1 575 2 is_stmt 0 view .LVU654
	bl	net_pkt_cursor_init
.LVL136:
	.loc 1 580 2 is_stmt 1 view .LVU655
.LBB367:
.LBI367:
	.loc 4 1205 20 view .LVU656
.LBB368:
	.loc 4 1207 2 view .LVU657
	.loc 4 1207 17 is_stmt 0 view .LVU658
	ldrb	r3, [r4, #73]	@ zero_extendqisi2
	orr	r3, r3, #1
	strb	r3, [r4, #73]
.LVL137:
	.loc 4 1207 17 view .LVU659
.LBE368:
.LBE367:
	.loc 1 582 2 is_stmt 1 view .LVU660
	.loc 1 582 6 is_stmt 0 view .LVU661
	movs	r1, #68
	mov	r0, r4
	bl	net_pkt_skip
.LVL138:
	.loc 1 582 5 view .LVU662
	cbnz	r0, .L48
	.loc 1 585 43 view .LVU663
	ldr	r1, .L53
	ldrh	r3, [r1, #92]
	.loc 1 585 63 view .LVU664
	lsrs	r2, r3, #8
	orr	r2, r2, r3, lsl #8
	.loc 1 584 6 view .LVU665
	uxth	r2, r2
	adds	r1, r1, #94
	mov	r0, r4
	bl	net_pkt_write
.LVL139:
	.loc 1 583 39 view .LVU666
	cbnz	r0, .L48
	.loc 1 589 2 is_stmt 1 view .LVU667
.LVL140:
.LBB369:
.LBI369:
	.loc 4 1205 20 view .LVU668
.LBB370:
	.loc 4 1207 2 view .LVU669
	.loc 4 1207 17 is_stmt 0 view .LVU670
	ldrb	r3, [r4, #73]	@ zero_extendqisi2
	bfc	r3, #0, #1
	strb	r3, [r4, #73]
.LVL141:
	.loc 4 1207 17 view .LVU671
.LBE370:
.LBE369:
	.loc 1 591 2 is_stmt 1 view .LVU672
	.loc 1 591 9 is_stmt 0 view .LVU673
	b	.L45
.LVL142:
.L47:
	.loc 1 550 2 is_stmt 1 view .LVU674
	.loc 1 550 2 is_stmt 0 view .LVU675
	movs	r3, #100
	mul	r3, r3, r5
	add	r2, r3, #1656
	ldr	r3, .L53
	add	r3, r3, r2
.LVL143:
.LBB371:
.LBI371:
	.loc 7 83 216 is_stmt 1 view .LVU676
.LBB372:
	.loc 7 83 292 view .LVU677
	.loc 7 83 299 is_stmt 0 view .LVU678
	ldr	r6, [r3, #4]!	@ unaligned
.LVL144:
	.loc 7 83 299 view .LVU679
	ldr	r1, [r3, #4]	@ unaligned
	ldr	r2, [r3, #8]	@ unaligned
	str	r6, [r0, #47]	@ unaligned
	str	r1, [r0, #51]	@ unaligned
	str	r2, [r0, #55]	@ unaligned
	ldrh	r3, [r3, #12]	@ unaligned
.LVL145:
	.loc 7 83 299 view .LVU680
	strh	r3, [r0, #59]	@ unaligned
.LVL146:
	.loc 7 83 299 view .LVU681
	b	.L49
.LVL147:
.L48:
	.loc 7 83 299 view .LVU682
.LBE372:
.LBE371:
	.loc 1 594 2 is_stmt 1 view .LVU683
	mov	r0, r4
	bl	net_pkt_unref
.LVL148:
	.loc 1 596 2 view .LVU684
	.loc 1 596 8 is_stmt 0 view .LVU685
	movs	r4, #0
.LVL149:
.L45:
	.loc 1 597 1 view .LVU686
	mov	r0, r4
	pop	{r3, r4, r5, r6, r7, pc}
.L54:
	.align	2
.L53:
	.word	gptp_domain
	.cfi_endproc
.LFE893:
	.size	gptp_prepare_announce, .-gptp_prepare_announce
	.global	__aeabi_i2d
	.global	__aeabi_dmul
	.global	__aeabi_d2ulz
	.global	__aeabi_uldivmod
	.section	.text.gptp_handle_sync,"ax",%progbits
	.align	1
	.global	gptp_handle_sync
	.syntax unified
	.thumb
	.thumb_func
	.fpu fpv4-sp-d16
	.type	gptp_handle_sync, %function
gptp_handle_sync:
.LVL150:
.LFB894:
	.loc 1 600 1 is_stmt 1 view -0
	.cfi_startproc
	@ args = 0, pretend = 0, frame = 0
	@ frame_needed = 0, uses_anonymous_args = 0
	.loc 1 600 1 is_stmt 0 view .LVU688
	push	{r4, r5, r6, r7, lr}
	.cfi_def_cfa_offset 20
	.cfi_offset 4, -20
	.cfi_offset 5, -16
	.cfi_offset 6, -12
	.cfi_offset 7, -8
	.cfi_offset 14, -4
	sub	sp, sp, #12
	.cfi_def_cfa_offset 32
	.loc 1 601 2 is_stmt 1 view .LVU689
	.loc 1 602 2 view .LVU690
	.loc 1 603 2 view .LVU691
	.loc 1 604 2 view .LVU692
	.loc 1 605 2 view .LVU693
	.loc 1 607 2 view .LVU694
	.loc 1 607 41 is_stmt 0 view .LVU695
	subs	r4, r0, #1
.LVL151:
	.loc 1 608 2 is_stmt 1 view .LVU696
	.loc 1 609 2 view .LVU697
	.loc 1 609 8 is_stmt 0 view .LVU698
	ldr	r2, .L59+16
	mov	r3, #872
	mla	r3, r3, r4, r2
	ldr	r0, [r3, #952]
.LVL152:
	.loc 1 609 8 view .LVU699
	bl	gptp_get_hdr
.LVL153:
	.loc 1 611 2 is_stmt 1 view .LVU700
	.loc 1 611 54 is_stmt 0 view .LVU701
	ldrsb	r0, [r0, #33]
.LVL154:
	.loc 1 611 54 view .LVU702
	bl	__aeabi_i2d
.LVL155:
	vmov	d1, r0, r1
	vldr.64	d0, .L59
	bl	pow
.LVL156:
	vmov	r0, r1, d0
	.loc 1 611 52 view .LVU703
	adr	r3, .L59+8
	ldrd	r2, [r3]
	bl	__aeabi_dmul
.LVL157:
	.loc 1 611 20 view .LVU704
	bl	__aeabi_d2ulz
.LVL158:
	.loc 1 614 2 is_stmt 1 view .LVU705
	.loc 1 614 51 is_stmt 0 view .LVU706
	ldr	r2, .L59+20
	movs	r3, #0
	cmp	r3, r1
	it	eq
	cmpeq	r2, r0
	bcs	.L57
	.loc 1 614 51 discriminator 1 view .LVU707
	ldr	r2, .L59+24
	movs	r3, #0
	bl	__aeabi_uldivmod
.LVL159:
.L56:
.LBB373:
.LBI373:
	.loc 2 402 24 is_stmt 1 discriminator 4 view .LVU708
.LBE373:
	.loc 2 405 2 discriminator 4 view .LVU709
.LBB376:
.LBB374:
.LBI374:
	.loc 2 101 55 discriminator 4 view .LVU710
.LBB375:
	.loc 2 106 1 discriminator 4 view .LVU711
	.loc 2 108 1 discriminator 4 view .LVU712
	.loc 2 111 2 discriminator 4 view .LVU713
	.loc 2 115 2 discriminator 4 view .LVU714
	.loc 2 117 2 discriminator 4 view .LVU715
	.loc 2 133 2 discriminator 4 view .LVU716
	.loc 2 140 9 discriminator 4 view .LVU717
	.loc 2 141 3 discriminator 4 view .LVU718
	.loc 2 144 4 discriminator 4 view .LVU719
	.loc 2 144 13 is_stmt 0 discriminator 4 view .LVU720
	lsls	r5, r1, #2
	lsls	r2, r0, #2
	orr	r3, r5, r0, lsr #30
	adds	r2, r2, r0
	adc	r3, r1, r3
	adds	r2, r2, r2
	adcs	r3, r3, r3
.LVL160:
	.loc 2 144 13 discriminator 4 view .LVU721
.LBE375:
.LBE374:
.LBE376:
	.loc 1 617 2 is_stmt 1 discriminator 4 view .LVU722
	mov	r0, #872
	mul	r0, r0, r4
	add	r0, r0, #896
	ldr	r1, .L59+16
	add	r0, r0, r1
.LVL161:
.LBB377:
.LBI377:
	.file 9 "/home/sebin/thesis/dmz/zephyr_xmc_template/build/zephyr/include/generated/syscalls/kernel.h"
	.loc 9 427 20 discriminator 4 view .LVU723
.LBB378:
	.loc 9 440 2 discriminator 4 view .LVU724
	.loc 9 440 7 discriminator 4 view .LVU725
	.loc 9 440 55 discriminator 4 view .LVU726
	.loc 9 441 2 discriminator 4 view .LVU727
	movs	r4, #0
.LVL162:
	.loc 9 441 2 is_stmt 0 discriminator 4 view .LVU728
	movs	r5, #0
	strd	r4, [sp]
	bl	z_impl_k_timer_start
.LVL163:
	.loc 9 441 2 discriminator 4 view .LVU729
.LBE378:
.LBE377:
	.loc 1 618 1 discriminator 4 view .LVU730
	add	sp, sp, #12
	.cfi_remember_state
	.cfi_def_cfa_offset 20
	@ sp needed
	pop	{r4, r5, r6, r7, pc}
.LVL164:
.L57:
	.cfi_restore_state
	.loc 1 614 51 view .LVU731
	movs	r0, #0
	mov	r1, r0
	b	.L56
.L60:
	.align	3
.L59:
	.word	0
	.word	1073741824
	.word	0
	.word	1104006501
	.word	gptp_domain
	.word	999999
	.word	1000000
	.cfi_endproc
.LFE894:
	.size	gptp_handle_sync, .-gptp_handle_sync
	.section	.text.gptp_handle_follow_up,"ax",%progbits
	.align	1
	.global	gptp_handle_follow_up
	.syntax unified
	.thumb
	.thumb_func
	.fpu fpv4-sp-d16
	.type	gptp_handle_follow_up, %function
gptp_handle_follow_up:
.LVL165:
.LFB895:
	.loc 1 621 1 is_stmt 1 view -0
	.cfi_startproc
	@ args = 0, pretend = 0, frame = 0
	@ frame_needed = 0, uses_anonymous_args = 0
	.loc 1 621 1 is_stmt 0 view .LVU733
	push	{r3, r4, r5, lr}
	.cfi_def_cfa_offset 16
	.cfi_offset 3, -16
	.cfi_offset 4, -12
	.cfi_offset 5, -8
	.cfi_offset 14, -4
	mov	r5, r1
	.loc 1 622 2 is_stmt 1 view .LVU734
	.loc 1 623 2 view .LVU735
	.loc 1 624 2 view .LVU736
	.loc 1 626 2 view .LVU737
	.loc 1 626 41 is_stmt 0 view .LVU738
	subs	r0, r0, #1
.LVL166:
	.loc 1 627 2 is_stmt 1 view .LVU739
	.loc 1 629 2 view .LVU740
	.loc 1 629 13 is_stmt 0 view .LVU741
	ldr	r3, .L65
	mov	r2, #872
	mla	r0, r2, r0, r3
.LVL167:
	.loc 1 629 13 view .LVU742
	ldr	r0, [r0, #952]
	bl	gptp_get_hdr
.LVL168:
	.loc 1 629 13 view .LVU743
	mov	r4, r0
.LVL169:
	.loc 1 630 2 is_stmt 1 view .LVU744
	.loc 1 630 8 is_stmt 0 view .LVU745
	mov	r0, r5
.LVL170:
	.loc 1 630 8 view .LVU746
	bl	gptp_get_hdr
.LVL171:
	.loc 1 632 2 is_stmt 1 view .LVU747
	.loc 1 632 14 is_stmt 0 view .LVU748
	ldrh	r2, [r4, #30]	@ unaligned
	.loc 1 632 34 view .LVU749
	ldrh	r3, [r0, #30]	@ unaligned
	.loc 1 632 5 view .LVU750
	cmp	r2, r3
	bne	.L63
	.loc 1 642 9 view .LVU751
	movs	r0, #0
.LVL172:
.L61:
	.loc 1 643 1 view .LVU752
	pop	{r3, r4, r5, pc}
.LVL173:
.L63:
	.loc 1 637 10 view .LVU753
	mvn	r0, #21
.LVL174:
	.loc 1 637 10 view .LVU754
	b	.L61
.L66:
	.align	2
.L65:
	.word	gptp_domain
	.cfi_endproc
.LFE895:
	.size	gptp_handle_follow_up, .-gptp_handle_follow_up
	.section	.text.gptp_handle_pdelay_resp,"ax",%progbits
	.align	1
	.global	gptp_handle_pdelay_resp
	.syntax unified
	.thumb
	.thumb_func
	.fpu fpv4-sp-d16
	.type	gptp_handle_pdelay_resp, %function
gptp_handle_pdelay_resp:
.LVL175:
.LFB897:
	.loc 1 683 1 is_stmt 1 view -0
	.cfi_startproc
	@ args = 0, pretend = 0, frame = 0
	@ frame_needed = 0, uses_anonymous_args = 0
	.loc 1 683 1 is_stmt 0 view .LVU756
	push	{r3, r4, r5, r6, r7, lr}
	.cfi_def_cfa_offset 24
	.cfi_offset 3, -24
	.cfi_offset 4, -20
	.cfi_offset 5, -16
	.cfi_offset 6, -12
	.cfi_offset 7, -8
	.cfi_offset 14, -4
	mov	r5, r0
	.loc 1 684 2 is_stmt 1 view .LVU757
	.loc 1 685 2 view .LVU758
	.loc 1 686 2 view .LVU759
	.loc 1 687 2 view .LVU760
	.loc 1 688 2 view .LVU761
	.loc 1 689 2 view .LVU762
	.loc 1 691 2 view .LVU763
.LVL176:
	.loc 4 968 2 view .LVU764
	.loc 1 692 2 view .LVU765
	.loc 1 692 8 is_stmt 0 view .LVU766
	mov	r0, r1
.LVL177:
	.loc 1 692 8 view .LVU767
	bl	gptp_get_hdr
.LVL178:
	.loc 1 692 8 view .LVU768
	mov	r4, r0
.LVL179:
	.loc 1 693 2 is_stmt 1 view .LVU769
	.loc 6 321 2 view .LVU770
	.loc 1 694 2 view .LVU771
	.loc 1 694 41 is_stmt 0 view .LVU772
	subs	r3, r5, #1
.LVL180:
	.loc 1 695 2 is_stmt 1 view .LVU773
	.loc 1 696 2 view .LVU774
	.loc 1 698 2 view .LVU775
	.loc 1 698 12 is_stmt 0 view .LVU776
	ldr	r2, .L76
	mov	r1, #872
	mla	r3, r1, r3, r2
.LVL181:
	.loc 1 698 12 view .LVU777
	ldr	r0, [r3, #864]
.LVL182:
	.loc 1 698 5 view .LVU778
	cbz	r0, .L69
	.loc 1 702 2 is_stmt 1 view .LVU779
	.loc 1 702 12 is_stmt 0 view .LVU780
	bl	gptp_get_hdr
.LVL183:
	mov	r7, r0
.LVL184:
	.loc 1 705 2 is_stmt 1 view .LVU781
	.loc 1 705 6 is_stmt 0 view .LVU782
	movs	r2, #8
	add	r1, r4, #44
	ldr	r0, .L76+4
.LVL185:
	.loc 1 705 6 view .LVU783
	bl	memcmp
.LVL186:
	.loc 1 705 5 view .LVU784
	mov	r6, r0
	cbnz	r0, .L70
	.loc 1 710 2 is_stmt 1 view .LVU785
	.loc 1 710 6 is_stmt 0 view .LVU786
	movs	r2, #8
	add	r1, r4, #20
	ldr	r0, .L76+4
	bl	memcmp
.LVL187:
	.loc 1 710 5 view .LVU787
	cbz	r0, .L71
	.loc 1 717 2 is_stmt 1 view .LVU788
	.loc 1 717 30 is_stmt 0 view .LVU789
	ldrh	r2, [r4, #52]	@ unaligned
	.loc 1 717 74 view .LVU790
	ubfx	r3, r5, #8, #8
	.loc 1 717 82 view .LVU791
	orr	r5, r3, r5, lsl #8
.LVL188:
	.loc 1 717 43 view .LVU792
	uxth	r5, r5
	.loc 1 717 5 view .LVU793
	cmp	r2, r5
	bne	.L72
	.loc 1 723 2 is_stmt 1 view .LVU794
	.loc 1 723 9 is_stmt 0 view .LVU795
	ldrh	r2, [r4, #30]	@ unaligned
	.loc 1 723 33 view .LVU796
	ldrh	r3, [r7, #30]	@ unaligned
	.loc 1 723 5 view .LVU797
	cmp	r2, r3
	bne	.L75
.LVL189:
.L67:
	.loc 1 737 1 view .LVU798
	mov	r0, r6
	pop	{r3, r4, r5, r6, r7, pc}
.LVL190:
.L69:
	.loc 1 736 9 view .LVU799
	mvn	r6, #21
	b	.L67
.LVL191:
.L70:
	.loc 1 736 9 view .LVU800
	mvn	r6, #21
	b	.L67
.L71:
	mvn	r6, #21
	b	.L67
.LVL192:
.L72:
	.loc 1 736 9 view .LVU801
	mvn	r6, #21
	b	.L67
.L75:
	mvn	r6, #21
	b	.L67
.L77:
	.align	2
.L76:
	.word	gptp_domain
	.word	gptp_domain+285
	.cfi_endproc
.LFE897:
	.size	gptp_handle_pdelay_resp, .-gptp_handle_pdelay_resp
	.section	.text.gptp_handle_pdelay_follow_up,"ax",%progbits
	.align	1
	.global	gptp_handle_pdelay_follow_up
	.syntax unified
	.thumb
	.thumb_func
	.fpu fpv4-sp-d16
	.type	gptp_handle_pdelay_follow_up, %function
gptp_handle_pdelay_follow_up:
.LVL193:
.LFB898:
	.loc 1 740 1 is_stmt 1 view -0
	.cfi_startproc
	@ args = 0, pretend = 0, frame = 0
	@ frame_needed = 0, uses_anonymous_args = 0
	.loc 1 740 1 is_stmt 0 view .LVU803
	push	{r3, r4, r5, r6, r7, lr}
	.cfi_def_cfa_offset 24
	.cfi_offset 3, -24
	.cfi_offset 4, -20
	.cfi_offset 5, -16
	.cfi_offset 6, -12
	.cfi_offset 7, -8
	.cfi_offset 14, -4
	mov	r5, r0
	.loc 1 741 2 is_stmt 1 view .LVU804
	.loc 1 742 2 view .LVU805
	.loc 1 743 2 view .LVU806
	.loc 1 744 2 view .LVU807
	.loc 1 745 2 view .LVU808
	.loc 1 746 2 view .LVU809
	.loc 1 748 2 view .LVU810
.LVL194:
	.loc 4 968 2 view .LVU811
	.loc 1 749 2 view .LVU812
	.loc 1 749 8 is_stmt 0 view .LVU813
	mov	r0, r1
.LVL195:
	.loc 1 749 8 view .LVU814
	bl	gptp_get_hdr
.LVL196:
	.loc 1 749 8 view .LVU815
	mov	r4, r0
.LVL197:
	.loc 1 750 2 is_stmt 1 view .LVU816
	.loc 6 321 2 view .LVU817
	.loc 1 751 2 view .LVU818
	.loc 1 751 41 is_stmt 0 view .LVU819
	subs	r6, r5, #1
.LVL198:
	.loc 1 752 2 is_stmt 1 view .LVU820
	.loc 1 753 2 view .LVU821
	.loc 1 755 2 view .LVU822
	.loc 1 755 12 is_stmt 0 view .LVU823
	ldr	r2, .L89
	mov	r3, #872
	mla	r3, r3, r6, r2
	ldr	r0, [r3, #864]
.LVL199:
	.loc 1 755 5 view .LVU824
	cbz	r0, .L80
	.loc 1 759 2 is_stmt 1 view .LVU825
	.loc 1 759 12 is_stmt 0 view .LVU826
	bl	gptp_get_hdr
.LVL200:
	mov	r7, r0
.LVL201:
	.loc 1 761 2 is_stmt 1 view .LVU827
	.loc 1 761 12 is_stmt 0 view .LVU828
	ldr	r3, .L89
	mov	r2, #872
	mla	r6, r2, r6, r3
.LVL202:
	.loc 1 761 12 view .LVU829
	ldr	r0, [r6, #856]
.LVL203:
	.loc 1 761 5 view .LVU830
	cbz	r0, .L81
	.loc 1 765 2 is_stmt 1 view .LVU831
	.loc 1 765 13 is_stmt 0 view .LVU832
	bl	gptp_get_hdr
.LVL204:
	mov	r6, r0
.LVL205:
	.loc 1 768 2 is_stmt 1 view .LVU833
	.loc 1 768 6 is_stmt 0 view .LVU834
	movs	r2, #8
	add	r1, r4, #44
	ldr	r0, .L89+4
.LVL206:
	.loc 1 768 6 view .LVU835
	bl	memcmp
.LVL207:
	.loc 1 768 5 view .LVU836
	cbnz	r0, .L82
	.loc 1 774 2 is_stmt 1 view .LVU837
	.loc 1 774 6 is_stmt 0 view .LVU838
	movs	r2, #8
	add	r1, r4, #20
	ldr	r0, .L89+4
	bl	memcmp
.LVL208:
	.loc 1 774 5 view .LVU839
	cbz	r0, .L83
	.loc 1 781 2 is_stmt 1 view .LVU840
	.loc 1 781 35 is_stmt 0 view .LVU841
	ldrh	r2, [r4, #52]	@ unaligned
	.loc 1 781 79 view .LVU842
	ubfx	r3, r5, #8, #8
	.loc 1 781 87 view .LVU843
	orr	r5, r3, r5, lsl #8
.LVL209:
	.loc 1 781 48 view .LVU844
	uxth	r5, r5
	.loc 1 781 5 view .LVU845
	cmp	r2, r5
	bne	.L84
	.loc 1 787 2 is_stmt 1 view .LVU846
	.loc 1 787 9 is_stmt 0 view .LVU847
	ldrh	r2, [r4, #30]	@ unaligned
	.loc 1 787 33 view .LVU848
	ldrh	r3, [r7, #30]	@ unaligned
	.loc 1 787 5 view .LVU849
	cmp	r2, r3
	bne	.L85
	.loc 1 796 2 is_stmt 1 view .LVU850
	.loc 1 796 6 is_stmt 0 view .LVU851
	movs	r2, #10
	add	r1, r6, #20
	add	r0, r4, #20
	bl	memcmp
.LVL210:
	.loc 1 796 5 view .LVU852
	cbnz	r0, .L88
.LVL211:
.L78:
	.loc 1 809 1 view .LVU853
	pop	{r3, r4, r5, r6, r7, pc}
.LVL212:
.L80:
	.loc 1 808 9 view .LVU854
	mvn	r0, #21
	b	.L78
.LVL213:
.L81:
	.loc 1 808 9 view .LVU855
	mvn	r0, #21
	b	.L78
.LVL214:
.L82:
	.loc 1 808 9 view .LVU856
	mvn	r0, #21
	b	.L78
.L83:
	mvn	r0, #21
	b	.L78
.LVL215:
.L84:
	.loc 1 808 9 view .LVU857
	mvn	r0, #21
	b	.L78
.L85:
	mvn	r0, #21
	b	.L78
.L88:
	mvn	r0, #21
	b	.L78
.L90:
	.align	2
.L89:
	.word	gptp_domain
	.word	gptp_domain+285
	.cfi_endproc
.LFE898:
	.size	gptp_handle_pdelay_follow_up, .-gptp_handle_pdelay_follow_up
	.section	.text.gptp_handle_signaling,"ax",%progbits
	.align	1
	.global	gptp_handle_signaling
	.syntax unified
	.thumb
	.thumb_func
	.fpu fpv4-sp-d16
	.type	gptp_handle_signaling, %function
gptp_handle_signaling:
.LVL216:
.LFB899:
	.loc 1 812 1 is_stmt 1 view -0
	.cfi_startproc
	@ args = 0, pretend = 0, frame = 0
	@ frame_needed = 0, uses_anonymous_args = 0
	.loc 1 812 1 is_stmt 0 view .LVU859
	push	{r4, r5, r6, lr}
	.cfi_def_cfa_offset 16
	.cfi_offset 4, -16
	.cfi_offset 5, -12
	.cfi_offset 6, -8
	.cfi_offset 14, -4
	mov	r5, r0
	.loc 1 813 2 is_stmt 1 view .LVU860
	.loc 1 814 2 view .LVU861
	.loc 1 816 2 view .LVU862
.LVL217:
.LBB379:
.LBI379:
	.loc 6 319 24 view .LVU863
.LBB380:
	.loc 6 321 2 view .LVU864
	.loc 6 321 20 is_stmt 0 view .LVU865
	mov	r0, r1
.LVL218:
	.loc 6 321 20 view .LVU866
	bl	gptp_get_hdr
.LVL219:
	.loc 6 321 20 view .LVU867
.LBE380:
.LBE379:
	.loc 1 817 2 is_stmt 1 view .LVU868
	.loc 1 817 39 is_stmt 0 view .LVU869
	subs	r4, r5, #1
.LVL220:
	.loc 1 820 2 is_stmt 1 view .LVU870
	.loc 1 820 14 is_stmt 0 view .LVU871
	add	r2, r4, r4, lsl #1
	ldr	r3, .L95
	add	r3, r3, r2, lsl #5
	ldrb	r3, [r3, #781]	@ zero_extendqisi2
	.loc 1 820 5 view .LVU872
	tst	r3, #1
	bne	.L94
.LVL221:
.L91:
	.loc 1 837 1 view .LVU873
	pop	{r4, r5, r6, pc}
.LVL222:
.L94:
	.loc 1 837 1 view .LVU874
	mov	r6, r0
	.loc 1 825 2 is_stmt 1 view .LVU875
	ldrsb	r1, [r0, #54]
	mov	r0, r5
.LVL223:
	.loc 1 825 2 is_stmt 0 view .LVU876
	bl	gptp_update_pdelay_req_interval
.LVL224:
	.loc 1 828 2 is_stmt 1 view .LVU877
	ldrsb	r1, [r6, #55]
	mov	r0, r5
	bl	gptp_update_sync_interval
.LVL225:
	.loc 1 831 2 view .LVU878
	ldrsb	r1, [r6, #56]
	mov	r0, r5
	bl	gptp_update_announce_interval
.LVL226:
	.loc 1 833 2 view .LVU879
	.loc 1 834 11 is_stmt 0 view .LVU880
	ldrb	r0, [r6, #57]	@ zero_extendqisi2
	.loc 1 833 39 view .LVU881
	ldr	r3, .L95
	add	r2, r4, r4, lsl #1
	add	r2, r3, r2, lsl #5
	ldrb	r1, [r2, #781]	@ zero_extendqisi2
	bfi	r1, r0, #4, #1
	strb	r1, [r2, #781]
	.loc 1 835 2 is_stmt 1 view .LVU882
	.loc 1 836 11 is_stmt 0 view .LVU883
	ldrb	r2, [r6, #57]	@ zero_extendqisi2
	ubfx	r2, r2, #1, #1
	.loc 1 835 39 view .LVU884
	add	r4, r4, r4, lsl #1
.LVL227:
	.loc 1 835 39 view .LVU885
	add	r4, r3, r4, lsl #5
	uxtb	r3, r1
	bfi	r3, r2, #5, #1
	strb	r3, [r4, #781]
	b	.L91
.L96:
	.align	2
.L95:
	.word	gptp_domain
	.cfi_endproc
.LFE899:
	.size	gptp_handle_signaling, .-gptp_handle_signaling
	.section	.text.gptp_send_sync,"ax",%progbits
	.align	1
	.global	gptp_send_sync
	.syntax unified
	.thumb
	.thumb_func
	.fpu fpv4-sp-d16
	.type	gptp_send_sync, %function
gptp_send_sync:
.LVL228:
.LFB900:
	.loc 1 840 1 is_stmt 1 view -0
	.cfi_startproc
	@ args = 0, pretend = 0, frame = 0
	@ frame_needed = 0, uses_anonymous_args = 0
	.loc 1 840 1 is_stmt 0 view .LVU887
	push	{r4, lr}
	.cfi_def_cfa_offset 8
	.cfi_offset 4, -8
	.cfi_offset 14, -4
	mov	r4, r1
	.loc 1 841 2 is_stmt 1 view .LVU888
	.loc 1 841 6 is_stmt 0 view .LVU889
	ldr	r3, .L101
	ldrb	r3, [r3]	@ zero_extendqisi2
	.loc 1 841 5 view .LVU890
	cbz	r3, .L100
.LVL229:
.L98:
	.loc 1 849 2 is_stmt 1 view .LVU891
	.loc 1 856 2 view .LVU892
	mov	r0, r4
	bl	net_pkt_ref
.LVL230:
	.loc 1 858 2 view .LVU893
.LBB381:
	.loc 1 858 226 view .LVU894
.LBE381:
	.loc 1 858 7 view .LVU895
	.loc 1 860 2 view .LVU896
.LBB382:
.LBI382:
	.loc 4 293 30 view .LVU897
.LBB383:
	.loc 4 295 2 view .LVU898
	.loc 4 295 2 is_stmt 0 view .LVU899
.LBE383:
.LBE382:
	.loc 1 860 2 view .LVU900
	mov	r1, r4
	ldr	r0, [r4, #24]
	bl	net_if_queue_tx
.LVL231:
	.loc 1 861 1 view .LVU901
	pop	{r4, pc}
.LVL232:
.L100:
	.loc 1 842 3 is_stmt 1 view .LVU902
.LBB384:
.LBI384:
	.loc 4 293 30 view .LVU903
.LBB385:
	.loc 4 295 2 view .LVU904
	.loc 4 295 2 is_stmt 0 view .LVU905
.LBE385:
.LBE384:
	.loc 1 842 3 view .LVU906
	ldr	r3, .L101+4
	ldr	r2, [r1, #24]
	ldr	r0, .L101+8
.LVL233:
	.loc 1 842 3 view .LVU907
	bl	net_if_register_timestamp_cb
.LVL234:
	.loc 1 846 3 is_stmt 1 view .LVU908
	.loc 1 846 22 is_stmt 0 view .LVU909
	ldr	r3, .L101
	movs	r2, #1
	strb	r2, [r3]
	b	.L98
.L102:
	.align	2
.L101:
	.word	.LANCHOR2
	.word	gptp_sync_timestamp_callback
	.word	.LANCHOR1
	.cfi_endproc
.LFE900:
	.size	gptp_send_sync, .-gptp_send_sync
	.section	.text.gptp_send_follow_up,"ax",%progbits
	.align	1
	.global	gptp_send_follow_up
	.syntax unified
	.thumb
	.thumb_func
	.fpu fpv4-sp-d16
	.type	gptp_send_follow_up, %function
gptp_send_follow_up:
.LVL235:
.LFB901:
	.loc 1 864 1 is_stmt 1 view -0
	.cfi_startproc
	@ args = 0, pretend = 0, frame = 0
	@ frame_needed = 0, uses_anonymous_args = 0
	.loc 1 864 1 is_stmt 0 view .LVU911
	push	{r3, lr}
	.cfi_def_cfa_offset 8
	.cfi_offset 3, -8
	.cfi_offset 14, -4
	.loc 1 865 2 is_stmt 1 view .LVU912
	.loc 1 867 2 view .LVU913
.LBB386:
	.loc 1 867 230 view .LVU914
.LBE386:
	.loc 1 867 7 view .LVU915
	.loc 1 869 2 view .LVU916
.LVL236:
.LBB387:
.LBI387:
	.loc 4 293 30 view .LVU917
.LBB388:
	.loc 4 295 2 view .LVU918
	.loc 4 295 2 is_stmt 0 view .LVU919
.LBE388:
.LBE387:
	.loc 1 869 2 view .LVU920
	ldr	r0, [r1, #24]
.LVL237:
	.loc 1 869 2 view .LVU921
	bl	net_if_queue_tx
.LVL238:
	.loc 1 870 1 view .LVU922
	pop	{r3, pc}
	.cfi_endproc
.LFE901:
	.size	gptp_send_follow_up, .-gptp_send_follow_up
	.section	.text.gptp_send_announce,"ax",%progbits
	.align	1
	.global	gptp_send_announce
	.syntax unified
	.thumb
	.thumb_func
	.fpu fpv4-sp-d16
	.type	gptp_send_announce, %function
gptp_send_announce:
.LVL239:
.LFB902:
	.loc 1 873 1 is_stmt 1 view -0
	.cfi_startproc
	@ args = 0, pretend = 0, frame = 0
	@ frame_needed = 0, uses_anonymous_args = 0
	.loc 1 873 1 is_stmt 0 view .LVU924
	push	{r3, lr}
	.cfi_def_cfa_offset 8
	.cfi_offset 3, -8
	.cfi_offset 14, -4
	.loc 1 874 2 is_stmt 1 view .LVU925
	.loc 1 876 2 view .LVU926
.LBB389:
	.loc 1 876 230 view .LVU927
.LBE389:
	.loc 1 876 7 view .LVU928
	.loc 1 878 2 view .LVU929
.LVL240:
.LBB390:
.LBI390:
	.loc 4 293 30 view .LVU930
.LBB391:
	.loc 4 295 2 view .LVU931
	.loc 4 295 2 is_stmt 0 view .LVU932
.LBE391:
.LBE390:
	.loc 1 878 2 view .LVU933
	ldr	r0, [r1, #24]
.LVL241:
	.loc 1 878 2 view .LVU934
	bl	net_if_queue_tx
.LVL242:
	.loc 1 879 1 view .LVU935
	pop	{r3, pc}
	.cfi_endproc
.LFE902:
	.size	gptp_send_announce, .-gptp_send_announce
	.section	.text.gptp_send_pdelay_req,"ax",%progbits
	.align	1
	.global	gptp_send_pdelay_req
	.syntax unified
	.thumb
	.thumb_func
	.fpu fpv4-sp-d16
	.type	gptp_send_pdelay_req, %function
gptp_send_pdelay_req:
.LVL243:
.LFB903:
	.loc 1 882 1 is_stmt 1 view -0
	.cfi_startproc
	@ args = 0, pretend = 0, frame = 0
	@ frame_needed = 0, uses_anonymous_args = 0
	.loc 1 882 1 is_stmt 0 view .LVU937
	push	{r3, r4, r5, lr}
	.cfi_def_cfa_offset 16
	.cfi_offset 3, -16
	.cfi_offset 4, -12
	.cfi_offset 5, -8
	.cfi_offset 14, -4
	.loc 1 883 2 is_stmt 1 view .LVU938
	.loc 1 884 2 view .LVU939
	.loc 1 885 2 view .LVU940
	.loc 1 887 4 view .LVU941
	.loc 1 887 5 view .LVU942
	.loc 1 888 2 view .LVU943
	.loc 1 888 41 is_stmt 0 view .LVU944
	subs	r4, r0, #1
.LVL244:
	.loc 1 889 2 is_stmt 1 view .LVU945
	.loc 1 891 2 view .LVU946
	.loc 1 891 8 is_stmt 0 view .LVU947
	bl	gptp_prepare_pdelay_req
.LVL245:
	.loc 1 892 2 is_stmt 1 view .LVU948
	.loc 1 892 5 is_stmt 0 view .LVU949
	cbz	r0, .L107
	mov	r5, r0
	.loc 1 893 3 is_stmt 1 view .LVU950
	.loc 1 893 12 is_stmt 0 view .LVU951
	ldr	r2, .L111
	mov	r3, #872
	mla	r3, r3, r4, r2
	ldr	r0, [r3, #864]
.LVL246:
	.loc 1 893 6 view .LVU952
	cbz	r0, .L109
	.loc 1 894 4 is_stmt 1 view .LVU953
.LBB392:
	.loc 1 894 9 view .LVU954
.LBE392:
	.loc 1 894 163 view .LVU955
	.loc 1 897 4 view .LVU956
	bl	net_pkt_unref
.LVL247:
.L109:
	.loc 1 901 3 view .LVU957
	.loc 1 901 30 is_stmt 0 view .LVU958
	mov	r0, r5
	bl	net_pkt_ref
.LVL248:
	.loc 1 901 28 view .LVU959
	ldr	r3, .L111
	mov	r2, #872
	mla	r4, r2, r4, r3
.LVL249:
	.loc 1 901 28 view .LVU960
	str	r0, [r4, #864]
	.loc 1 903 3 is_stmt 1 view .LVU961
	.loc 1 905 3 view .LVU962
.LBB393:
	.loc 1 905 233 view .LVU963
.LBE393:
	.loc 1 905 8 view .LVU964
	.loc 1 907 3 view .LVU965
.LVL250:
.LBB394:
.LBI394:
	.loc 4 293 30 view .LVU966
.LBB395:
	.loc 4 295 2 view .LVU967
	.loc 4 295 2 is_stmt 0 view .LVU968
.LBE395:
.LBE394:
	.loc 1 907 3 view .LVU969
	mov	r1, r5
	ldr	r0, [r5, #24]
	bl	net_if_queue_tx
.LVL251:
	.loc 1 909 80 is_stmt 1 view .LVU970
.L107:
	.loc 1 911 1 is_stmt 0 view .LVU971
	pop	{r3, r4, r5, pc}
.L112:
	.align	2
.L111:
	.word	gptp_domain
	.cfi_endproc
.LFE903:
	.size	gptp_send_pdelay_req, .-gptp_send_pdelay_req
	.section	.text.gptp_send_pdelay_resp,"ax",%progbits
	.align	1
	.global	gptp_send_pdelay_resp
	.syntax unified
	.thumb
	.thumb_func
	.fpu fpv4-sp-d16
	.type	gptp_send_pdelay_resp, %function
gptp_send_pdelay_resp:
.LVL252:
.LFB904:
	.loc 1 915 1 is_stmt 1 view -0
	.cfi_startproc
	@ args = 0, pretend = 0, frame = 0
	@ frame_needed = 0, uses_anonymous_args = 0
	.loc 1 915 1 is_stmt 0 view .LVU973
	push	{r3, r4, r5, lr}
	.cfi_def_cfa_offset 16
	.cfi_offset 3, -16
	.cfi_offset 4, -12
	.cfi_offset 5, -8
	.cfi_offset 14, -4
	mov	r4, r1
	mov	r5, r2
	.loc 1 916 2 is_stmt 1 view .LVU974
	.loc 1 917 2 view .LVU975
	.loc 1 919 2 view .LVU976
	.loc 1 919 8 is_stmt 0 view .LVU977
	mov	r0, r1
.LVL253:
	.loc 1 919 8 view .LVU978
	bl	gptp_get_hdr
.LVL254:
	.loc 1 922 2 is_stmt 1 view .LVU979
	.loc 1 922 24 is_stmt 0 view .LVU980
	movs	r3, #0
	strb	r3, [r0, #8]
	strb	r3, [r0, #9]
	strb	r3, [r0, #10]
	strb	r3, [r0, #11]
	strb	r3, [r0, #12]
	strb	r3, [r0, #13]
	strb	r3, [r0, #14]
	strb	r3, [r0, #15]
	.loc 1 924 2 is_stmt 1 view .LVU981
.LVL255:
.LBB396:
.LBI396:
	.loc 6 319 24 view .LVU982
.LBB397:
	.loc 6 321 2 view .LVU983
	.loc 6 321 20 is_stmt 0 view .LVU984
	mov	r0, r4
.LVL256:
	.loc 6 321 20 view .LVU985
	bl	gptp_get_hdr
.LVL257:
	.loc 6 321 20 view .LVU986
.LBE397:
.LBE396:
	.loc 1 925 2 is_stmt 1 view .LVU987
	.loc 1 925 61 is_stmt 0 view .LVU988
	ldrh	r2, [r5, #4]
	.loc 1 925 82 view .LVU989
	lsrs	r3, r2, #8
	.loc 1 925 33 view .LVU990
	orr	r3, r3, r2, lsl #8
	strh	r3, [r0, #34]	@ unaligned
	.loc 1 926 2 is_stmt 1 view .LVU991
	.loc 1 926 60 is_stmt 0 view .LVU992
	ldr	r2, [r5]
	.loc 1 926 102 view .LVU993
	lsrs	r3, r2, #8
	.loc 1 926 108 view .LVU994
	and	r3, r3, #65280
	.loc 1 926 81 view .LVU995
	orr	r3, r3, r2, lsr #24
	.loc 1 926 149 view .LVU996
	lsls	r1, r2, #8
	and	r1, r1, #16711680
	.loc 1 926 118 view .LVU997
	orrs	r3, r3, r1
	.loc 1 926 155 view .LVU998
	orr	r3, r3, r2, lsl #24
	.loc 1 926 32 view .LVU999
	str	r3, [r0, #36]	@ unaligned
	.loc 1 927 2 is_stmt 1 view .LVU1000
	.loc 1 927 51 is_stmt 0 view .LVU1001
	ldr	r2, [r5, #8]
	.loc 1 927 103 view .LVU1002
	lsrs	r3, r2, #8
	.loc 1 927 109 view .LVU1003
	and	r3, r3, #65280
	.loc 1 927 80 view .LVU1004
	orr	r3, r3, r2, lsr #24
	.loc 1 927 152 view .LVU1005
	lsls	r1, r2, #8
	and	r1, r1, #16711680
	.loc 1 927 119 view .LVU1006
	orrs	r3, r3, r1
	.loc 1 927 158 view .LVU1007
	orr	r3, r3, r2, lsl #24
	.loc 1 927 29 view .LVU1008
	str	r3, [r0, #40]	@ unaligned
	.loc 1 929 2 is_stmt 1 view .LVU1009
	.loc 1 931 2 view .LVU1010
.LBB398:
	.loc 1 931 233 view .LVU1011
.LBE398:
	.loc 1 931 7 view .LVU1012
	.loc 1 933 2 view .LVU1013
.LVL258:
.LBB399:
.LBI399:
	.loc 4 293 30 view .LVU1014
.LBB400:
	.loc 4 295 2 view .LVU1015
	.loc 4 295 2 is_stmt 0 view .LVU1016
.LBE400:
.LBE399:
	.loc 1 933 2 view .LVU1017
	mov	r1, r4
	ldr	r0, [r4, #24]
.LVL259:
	.loc 1 933 2 view .LVU1018
	bl	net_if_queue_tx
.LVL260:
	.loc 1 934 1 view .LVU1019
	pop	{r3, r4, r5, pc}
	.loc 1 934 1 view .LVU1020
	.cfi_endproc
.LFE904:
	.size	gptp_send_pdelay_resp, .-gptp_send_pdelay_resp
	.section	.text.gptp_handle_pdelay_req,"ax",%progbits
	.align	1
	.global	gptp_handle_pdelay_req
	.syntax unified
	.thumb
	.thumb_func
	.fpu fpv4-sp-d16
	.type	gptp_handle_pdelay_req, %function
gptp_handle_pdelay_req:
.LVL261:
.LFB896:
	.loc 1 646 1 is_stmt 1 view -0
	.cfi_startproc
	@ args = 0, pretend = 0, frame = 0
	@ frame_needed = 0, uses_anonymous_args = 0
	.loc 1 646 1 is_stmt 0 view .LVU1022
	push	{r4, r5, r6, lr}
	.cfi_def_cfa_offset 16
	.cfi_offset 4, -16
	.cfi_offset 5, -12
	.cfi_offset 6, -8
	.cfi_offset 14, -4
	mov	r6, r0
	mov	r4, r1
	.loc 1 647 2 is_stmt 1 view .LVU1023
	.loc 1 649 2 view .LVU1024
	.loc 1 651 2 view .LVU1025
	.loc 1 651 23 is_stmt 0 view .LVU1026
	ldr	r3, .L120
	ldrb	r3, [r3]	@ zero_extendqisi2
	.loc 1 651 5 view .LVU1027
	cbnz	r3, .L119
.LVL262:
.L116:
	.loc 1 661 2 is_stmt 1 view .LVU1028
	.loc 1 661 10 is_stmt 0 view .LVU1029
	mov	r1, r4
	mov	r0, r6
	bl	gptp_prepare_pdelay_resp
.LVL263:
	.loc 1 662 2 is_stmt 1 view .LVU1030
	.loc 1 662 5 is_stmt 0 view .LVU1031
	mov	r5, r0
	cbz	r0, .L115
	.loc 1 666 2 is_stmt 1 view .LVU1032
.LVL264:
.LBB401:
.LBI401:
	.loc 4 293 30 view .LVU1033
.LBB402:
	.loc 4 295 2 view .LVU1034
	.loc 4 295 2 is_stmt 0 view .LVU1035
.LBE402:
.LBE401:
	.loc 1 666 2 view .LVU1036
	ldr	r3, .L120+4
	ldr	r2, [r4, #24]
	mov	r1, r0
	ldr	r0, .L120+8
.LVL265:
	.loc 1 666 2 view .LVU1037
	bl	net_if_register_timestamp_cb
.LVL266:
	.loc 1 675 2 is_stmt 1 view .LVU1038
	mov	r0, r5
	bl	net_pkt_ref
.LVL267:
	.loc 1 677 2 view .LVU1039
	.loc 1 677 19 is_stmt 0 view .LVU1040
	ldr	r3, .L120
	movs	r2, #1
	strb	r2, [r3]
	.loc 1 679 2 is_stmt 1 view .LVU1041
.LVL268:
.LBB403:
.LBI403:
	.loc 4 820 36 view .LVU1042
.LBB404:
	.loc 4 822 2 view .LVU1043
	.loc 4 822 2 is_stmt 0 view .LVU1044
.LBE404:
.LBE403:
	.loc 1 679 2 view .LVU1045
	add	r2, r4, #32
	mov	r1, r5
	mov	r0, r6
	bl	gptp_send_pdelay_resp
.LVL269:
.L115:
	.loc 1 680 1 view .LVU1046
	pop	{r4, r5, r6, pc}
.LVL270:
.L119:
	.loc 1 652 3 is_stmt 1 view .LVU1047
.LBB405:
	.loc 1 652 8 view .LVU1048
.LBE405:
	.loc 1 652 70 view .LVU1049
	.loc 1 654 3 view .LVU1050
	ldr	r5, .L120+8
	mov	r0, r5
.LVL271:
	.loc 1 654 3 is_stmt 0 view .LVU1051
	bl	net_if_unregister_timestamp_cb
.LVL272:
	.loc 1 655 3 is_stmt 1 view .LVU1052
	ldr	r0, [r5, #4]
	bl	net_pkt_unref
.LVL273:
	.loc 1 657 3 view .LVU1053
	.loc 1 657 20 is_stmt 0 view .LVU1054
	ldr	r3, .L120
	movs	r2, #0
	strb	r2, [r3]
	b	.L116
.L121:
	.align	2
.L120:
	.word	.LANCHOR3
	.word	gptp_pdelay_response_timestamp_callback
	.word	.LANCHOR4
	.cfi_endproc
.LFE896:
	.size	gptp_handle_pdelay_req, .-gptp_handle_pdelay_req
	.section	.text.gptp_send_pdelay_follow_up,"ax",%progbits
	.align	1
	.global	gptp_send_pdelay_follow_up
	.syntax unified
	.thumb
	.thumb_func
	.fpu fpv4-sp-d16
	.type	gptp_send_pdelay_follow_up, %function
gptp_send_pdelay_follow_up:
.LVL274:
.LFB905:
	.loc 1 938 1 is_stmt 1 view -0
	.cfi_startproc
	@ args = 0, pretend = 0, frame = 0
	@ frame_needed = 0, uses_anonymous_args = 0
	.loc 1 938 1 is_stmt 0 view .LVU1056
	push	{r3, r4, r5, lr}
	.cfi_def_cfa_offset 16
	.cfi_offset 3, -16
	.cfi_offset 4, -12
	.cfi_offset 5, -8
	.cfi_offset 14, -4
	mov	r4, r1
	mov	r5, r2
	.loc 1 939 2 is_stmt 1 view .LVU1057
	.loc 1 940 2 view .LVU1058
	.loc 1 942 2 view .LVU1059
	.loc 1 942 8 is_stmt 0 view .LVU1060
	mov	r0, r1
.LVL275:
	.loc 1 942 8 view .LVU1061
	bl	gptp_get_hdr
.LVL276:
	.loc 1 945 2 is_stmt 1 view .LVU1062
	.loc 1 945 24 is_stmt 0 view .LVU1063
	movs	r3, #0
	strb	r3, [r0, #8]
	strb	r3, [r0, #9]
	strb	r3, [r0, #10]
	strb	r3, [r0, #11]
	strb	r3, [r0, #12]
	strb	r3, [r0, #13]
	strb	r3, [r0, #14]
	strb	r3, [r0, #15]
	.loc 1 947 2 is_stmt 1 view .LVU1064
.LVL277:
.LBB406:
.LBI406:
	.loc 6 319 24 view .LVU1065
.LBB407:
	.loc 6 321 2 view .LVU1066
	.loc 6 321 20 is_stmt 0 view .LVU1067
	mov	r0, r4
.LVL278:
	.loc 6 321 20 view .LVU1068
	bl	gptp_get_hdr
.LVL279:
	.loc 6 321 20 view .LVU1069
.LBE407:
.LBE406:
	.loc 1 948 2 is_stmt 1 view .LVU1070
	.loc 1 948 65 is_stmt 0 view .LVU1071
	ldrh	r2, [r5, #4]
	.loc 1 948 86 view .LVU1072
	lsrs	r3, r2, #8
	.loc 1 948 36 view .LVU1073
	orr	r3, r3, r2, lsl #8
	strh	r3, [r0, #34]	@ unaligned
	.loc 1 949 2 is_stmt 1 view .LVU1074
	.loc 1 949 64 is_stmt 0 view .LVU1075
	ldr	r2, [r5]
	.loc 1 949 107 view .LVU1076
	lsrs	r3, r2, #8
	.loc 1 949 113 view .LVU1077
	and	r3, r3, #65280
	.loc 1 949 85 view .LVU1078
	orr	r3, r3, r2, lsr #24
	.loc 1 949 155 view .LVU1079
	lsls	r1, r2, #8
	and	r1, r1, #16711680
	.loc 1 949 123 view .LVU1080
	orrs	r3, r3, r1
	.loc 1 949 161 view .LVU1081
	orr	r3, r3, r2, lsl #24
	.loc 1 949 35 view .LVU1082
	str	r3, [r0, #36]	@ unaligned
	.loc 1 950 2 is_stmt 1 view .LVU1083
	.loc 1 950 55 is_stmt 0 view .LVU1084
	ldr	r2, [r5, #8]
	.loc 1 950 108 view .LVU1085
	lsrs	r3, r2, #8
	.loc 1 950 114 view .LVU1086
	and	r3, r3, #65280
	.loc 1 950 84 view .LVU1087
	orr	r3, r3, r2, lsr #24
	.loc 1 950 158 view .LVU1088
	lsls	r1, r2, #8
	and	r1, r1, #16711680
	.loc 1 950 124 view .LVU1089
	orrs	r3, r3, r1
	.loc 1 950 164 view .LVU1090
	orr	r3, r3, r2, lsl #24
	.loc 1 950 32 view .LVU1091
	str	r3, [r0, #40]	@ unaligned
	.loc 1 952 2 is_stmt 1 view .LVU1092
	.loc 1 954 2 view .LVU1093
.LBB408:
	.loc 1 954 237 view .LVU1094
.LBE408:
	.loc 1 954 7 view .LVU1095
	.loc 1 956 2 view .LVU1096
.LVL280:
.LBB409:
.LBI409:
	.loc 4 293 30 view .LVU1097
.LBB410:
	.loc 4 295 2 view .LVU1098
	.loc 4 295 2 is_stmt 0 view .LVU1099
.LBE410:
.LBE409:
	.loc 1 956 2 view .LVU1100
	mov	r1, r4
	ldr	r0, [r4, #24]
.LVL281:
	.loc 1 956 2 view .LVU1101
	bl	net_if_queue_tx
.LVL282:
	.loc 1 957 1 view .LVU1102
	pop	{r3, r4, r5, pc}
	.loc 1 957 1 view .LVU1103
	.cfi_endproc
.LFE905:
	.size	gptp_send_pdelay_follow_up, .-gptp_send_pdelay_follow_up
	.section	.text.gptp_pdelay_response_timestamp_callback,"ax",%progbits
	.align	1
	.syntax unified
	.thumb
	.thumb_func
	.fpu fpv4-sp-d16
	.type	gptp_pdelay_response_timestamp_callback, %function
gptp_pdelay_response_timestamp_callback:
.LVL283:
.LFB886:
	.loc 1 116 1 is_stmt 1 view -0
	.cfi_startproc
	@ args = 0, pretend = 0, frame = 0
	@ frame_needed = 0, uses_anonymous_args = 0
	.loc 1 116 1 is_stmt 0 view .LVU1105
	push	{r4, r5, r6, lr}
	.cfi_def_cfa_offset 16
	.cfi_offset 4, -16
	.cfi_offset 5, -12
	.cfi_offset 6, -8
	.cfi_offset 14, -4
	mov	r4, r0
	.loc 1 117 2 is_stmt 1 view .LVU1106
.LVL284:
	.loc 1 118 2 view .LVU1107
	.loc 1 119 2 view .LVU1108
	.loc 1 121 2 view .LVU1109
.LBB411:
.LBI411:
	.loc 4 293 30 view .LVU1110
.LBB412:
	.loc 4 295 2 view .LVU1111
	.loc 4 295 2 is_stmt 0 view .LVU1112
.LBE412:
.LBE411:
	.loc 1 121 9 view .LVU1113
	ldr	r0, [r0, #24]
.LVL285:
	.loc 1 121 9 view .LVU1114
	bl	gptp_get_port_number
.LVL286:
	.loc 1 122 2 is_stmt 1 view .LVU1115
	.loc 1 122 5 is_stmt 0 view .LVU1116
	cmn	r0, #19
	beq	.L125
	mov	r5, r0
	.loc 1 127 2 is_stmt 1 view .LVU1117
	.loc 1 127 8 is_stmt 0 view .LVU1118
	mov	r0, r4
.LVL287:
	.loc 1 127 8 view .LVU1119
	bl	gptp_get_hdr
.LVL288:
	.loc 1 130 2 is_stmt 1 view .LVU1120
	.loc 1 130 24 is_stmt 0 view .LVU1121
	ldrb	r3, [r0]	@ zero_extendqisi2
	and	r3, r3, #15
	.loc 1 130 5 view .LVU1122
	cmp	r3, #3
	beq	.L128
.LVL289:
.L124:
	.loc 1 148 1 view .LVU1123
	pop	{r4, r5, r6, pc}
.LVL290:
.L128:
	.loc 1 131 3 is_stmt 1 view .LVU1124
	.loc 1 131 15 is_stmt 0 view .LVU1125
	mov	r1, r4
	mov	r0, r5
.LVL291:
	.loc 1 131 15 view .LVU1126
	bl	gptp_prepare_pdelay_follow_up
.LVL292:
	.loc 1 132 3 is_stmt 1 view .LVU1127
	.loc 1 132 6 is_stmt 0 view .LVU1128
	mov	r6, r0
	cbz	r0, .L125
	.loc 1 138 3 is_stmt 1 view .LVU1129
	ldr	r0, .L129
.LVL293:
	.loc 1 138 3 is_stmt 0 view .LVU1130
	bl	net_if_unregister_timestamp_cb
.LVL294:
	.loc 1 139 3 is_stmt 1 view .LVU1131
	.loc 1 139 20 is_stmt 0 view .LVU1132
	ldr	r3, .L129+4
	movs	r2, #0
	strb	r2, [r3]
	.loc 1 141 3 is_stmt 1 view .LVU1133
.LVL295:
.LBB413:
.LBI413:
	.loc 4 820 36 view .LVU1134
.LBB414:
	.loc 4 822 2 view .LVU1135
	.loc 4 822 2 is_stmt 0 view .LVU1136
.LBE414:
.LBE413:
	.loc 1 141 3 view .LVU1137
	add	r2, r4, #32
	mov	r1, r6
	mov	r0, r5
	bl	gptp_send_pdelay_follow_up
.LVL296:
.L125:
	.loc 1 146 3 is_stmt 1 view .LVU1138
	mov	r0, r4
	bl	net_pkt_unref
.LVL297:
	.loc 1 148 1 is_stmt 0 view .LVU1139
	b	.L124
.L130:
	.align	2
.L129:
	.word	.LANCHOR4
	.word	.LANCHOR3
	.cfi_endproc
.LFE886:
	.size	gptp_pdelay_response_timestamp_callback, .-gptp_pdelay_response_timestamp_callback
	.section	.bss.pdelay_response_timestamp_cb,"aw",%nobits
	.align	2
	.set	.LANCHOR4,. + 0
	.type	pdelay_response_timestamp_cb, %object
	.size	pdelay_response_timestamp_cb, 16
pdelay_response_timestamp_cb:
	.space	16
	.section	.bss.sync_cb_registered,"aw",%nobits
	.set	.LANCHOR2,. + 0
	.type	sync_cb_registered, %object
	.size	sync_cb_registered, 1
sync_cb_registered:
	.space	1
	.section	.bss.sync_timestamp_cb,"aw",%nobits
	.align	2
	.set	.LANCHOR1,. + 0
	.type	sync_timestamp_cb, %object
	.size	sync_timestamp_cb, 16
sync_timestamp_cb:
	.space	16
	.section	.bss.ts_cb_registered,"aw",%nobits
	.set	.LANCHOR3,. + 0
	.type	ts_cb_registered, %object
	.size	ts_cb_registered, 1
ts_cb_registered:
	.space	1
	.section	.rodata.gptp_multicast_eth_addr,"a"
	.align	2
	.set	.LANCHOR0,. + 0
	.type	gptp_multicast_eth_addr, %object
	.size	gptp_multicast_eth_addr, 6
gptp_multicast_eth_addr:
	.ascii	"\001\200\302\000\000\016"
	.text
.Letext0:
	.file 10 "/home/sebin/LIOT/gcc-arm-none-eabi-9-2019-q4-major/lib/gcc/arm-none-eabi/9.2.1/include/stddef.h"
	.file 11 "/home/sebin/LIOT/gcc-arm-none-eabi-9-2019-q4-major/arm-none-eabi/include/machine/_default_types.h"
	.file 12 "/home/sebin/LIOT/gcc-arm-none-eabi-9-2019-q4-major/arm-none-eabi/include/sys/_stdint.h"
	.file 13 "/home/sebin/thesis/zephyrproject/zephyr/include/logging/log_instance.h"
	.file 14 "/home/sebin/thesis/zephyrproject/zephyr/include/sys/atomic.h"
	.file 15 "/home/sebin/LIOT/gcc-arm-none-eabi-9-2019-q4-major/arm-none-eabi/include/sys/lock.h"
	.file 16 "/home/sebin/LIOT/gcc-arm-none-eabi-9-2019-q4-major/arm-none-eabi/include/sys/_types.h"
	.file 17 "/home/sebin/LIOT/gcc-arm-none-eabi-9-2019-q4-major/arm-none-eabi/include/sys/reent.h"
	.file 18 "/home/sebin/LIOT/gcc-arm-none-eabi-9-2019-q4-major/arm-none-eabi/include/sys/errno.h"
	.file 19 "/home/sebin/thesis/zephyrproject/zephyr/include/sys/cbprintf_internal.h"
	.file 20 "/home/sebin/thesis/zephyrproject/zephyr/include/logging/log_msg2.h"
	.file 21 "/home/sebin/thesis/zephyrproject/zephyr/include/logging/log_msg.h"
	.file 22 "/home/sebin/thesis/zephyrproject/zephyr/include/logging/log_core.h"
	.file 23 "/home/sebin/thesis/zephyrproject/zephyr/include/sys/dlist.h"
	.file 24 "/home/sebin/thesis/zephyrproject/zephyr/include/sys/rb.h"
	.file 25 "/home/sebin/thesis/zephyrproject/zephyr/include/sys/slist.h"
	.file 26 "/home/sebin/thesis/zephyrproject/zephyr/include/sys/sys_heap.h"
	.file 27 "/home/sebin/thesis/zephyrproject/zephyr/include/kernel_structs.h"
	.file 28 "/home/sebin/thesis/zephyrproject/zephyr/include/kernel/thread.h"
	.file 29 "/home/sebin/thesis/zephyrproject/zephyr/include/kernel.h"
	.file 30 "/home/sebin/thesis/zephyrproject/zephyr/include/arch/arm/aarch32/thread.h"
	.file 31 "/home/sebin/thesis/zephyrproject/zephyr/include/arch/arm/aarch32/exc.h"
	.file 32 "/home/sebin/thesis/zephyrproject/zephyr/include/sw_isr_table.h"
	.file 33 "/home/sebin/thesis/zephyrproject/modules/hal/infineon/XMCLib/devices/XMC4500/Include/system_XMC4500.h"
	.file 34 "/home/sebin/thesis/zephyrproject/modules/hal/cmsis/CMSIS/Core/Include/core_cm4.h"
	.file 35 "/home/sebin/thesis/zephyrproject/zephyr/include/arch/arm/aarch32/mpu/arm_mpu_v7m.h"
	.file 36 "/home/sebin/thesis/zephyrproject/zephyr/include/arch/arm/aarch32/mpu/arm_mpu.h"
	.file 37 "/home/sebin/thesis/zephyrproject/zephyr/include/sys_clock.h"
	.file 38 "/home/sebin/thesis/zephyrproject/zephyr/include/spinlock.h"
	.file 39 "/home/sebin/thesis/zephyrproject/zephyr/include/device.h"
	.file 40 "/home/sebin/thesis/dmz/zephyr_xmc_template/build/zephyr/include/generated/device_extern.h"
	.file 41 "/home/sebin/thesis/zephyrproject/zephyr/include/net/net_timeout.h"
	.file 42 "/home/sebin/thesis/zephyrproject/zephyr/include/net/net_core.h"
	.file 43 "/home/sebin/thesis/zephyrproject/zephyr/include/net/net_linkaddr.h"
	.file 44 "/home/sebin/thesis/zephyrproject/zephyr/include/net/net_ip.h"
	.file 45 "/home/sebin/thesis/zephyrproject/zephyr/include/net/net_l2.h"
	.file 46 "/home/sebin/thesis/zephyrproject/zephyr/include/net/net_stats.h"
	.file 47 "/home/sebin/thesis/zephyrproject/zephyr/include/net/net_context.h"
	.file 48 "/home/sebin/thesis/zephyrproject/zephyr/include/net/ptp_time.h"
	.file 49 "/home/sebin/thesis/zephyrproject/zephyr/include/net/ethernet.h"
	.file 50 "/home/sebin/thesis/zephyrproject/zephyr/include/net/gptp.h"
	.file 51 "/home/sebin/thesis/zephyrproject/zephyr/subsys/net/l2/ethernet/gptp/gptp_md.h"
	.file 52 "/home/sebin/thesis/zephyrproject/zephyr/subsys/net/l2/ethernet/gptp/gptp_mi.h"
	.file 53 "/home/sebin/thesis/zephyrproject/zephyr/subsys/net/l2/ethernet/gptp/gptp_state.h"
	.file 54 "/home/sebin/thesis/zephyrproject/zephyr/subsys/net/l2/ethernet/gptp/gptp_data_set.h"
	.file 55 "/home/sebin/LIOT/gcc-arm-none-eabi-9-2019-q4-major/arm-none-eabi/include/string.h"
	.file 56 "/home/sebin/thesis/zephyrproject/zephyr/include/arch/structs.h"
	.file 57 "/home/sebin/LIOT/gcc-arm-none-eabi-9-2019-q4-major/arm-none-eabi/include/math.h"