	.cpu cortex-m4
	.eabi_attribute 27, 1
	.eabi_attribute 28, 1
	.eabi_attribute 20, 1
	.eabi_attribute 21, 1
	.eabi_attribute 23, 3
	.eabi_attribute 24, 1
	.eabi_attribute 25, 1
	.eabi_attribute 26, 1
	.eabi_attribute 30, 1
	.eabi_attribute 34, 1
	.eabi_attribute 38, 1
	.eabi_attribute 18, 4
	.file	"gptp_user_api.c"
	.text
.Ltext0:
	.cfi_sections	.debug_frame
	.section	.text.gptp_register_phase_dis_cb,"ax",%progbits
	.align	1
	.global	gptp_register_phase_dis_cb
	.arch armv7e-m
	.syntax unified
	.thumb
	.thumb_func
	.fpu fpv4-sp-d16
	.type	gptp_register_phase_dis_cb, %function
gptp_register_phase_dis_cb:
.LVL0:
.LFB898:
	.file 1 "/home/sebin/thesis/zephyrproject/zephyr/subsys/net/l2/ethernet/gptp/gptp_user_api.c"
	.loc 1 22 1 view -0
	.cfi_startproc
	@ args = 0, pretend = 0, frame = 0
	@ frame_needed = 0, uses_anonymous_args = 0
	@ link register save eliminated.
	.loc 1 22 1 is_stmt 0 view .LVU1
	push	{r4}
	.cfi_def_cfa_offset 4
	.cfi_offset 4, -4
	.loc 1 23 2 is_stmt 1 view .LVU2
	mov	r4, r0
.LVL1:
.LBB168:
.LBI168:
	.file 2 "/home/sebin/thesis/zephyrproject/zephyr/include/sys/slist.h"
	.loc 2 417 1 view .LVU3
.LBB169:
	.loc 2 417 67 view .LVU4
	.loc 2 417 3 view .LVU5
	.loc 2 417 22 view .LVU6
.LBB170:
.LBI170:
	.loc 2 231 28 view .LVU7
.LBB171:
	.loc 2 233 2 view .LVU8
	.loc 2 233 13 is_stmt 0 view .LVU9
	ldr	r3, .L14
	ldr	r3, [r3]
.LVL2:
	.loc 2 233 13 view .LVU10
.LBE171:
.LBE170:
	.loc 2 417 80 view .LVU11
	movs	r2, #0
.LVL3:
.L2:
	.loc 2 417 61 is_stmt 1 view .LVU12
	.loc 2 417 22 is_stmt 0 view .LVU13
	cbz	r3, .L6
	.loc 2 417 39 is_stmt 1 view .LVU14
	.loc 2 417 42 is_stmt 0 view .LVU15
	cmp	r4, r3
	beq	.L10
	.loc 2 417 5 is_stmt 1 view .LVU16
.LVL4:
	.loc 2 417 3 view .LVU17
.LBB172:
.LBI172:
	.loc 2 285 29 view .LVU18
.LBE172:
.LBE169:
.LBE168:
	.loc 2 285 70 view .LVU19
.LBB207:
.LBB203:
.LBB177:
.LBB173:
.LBI173:
	.loc 2 274 29 view .LVU20
.LBE173:
.LBE177:
.LBE203:
.LBE207:
	.loc 2 274 79 view .LVU21
.LBB208:
.LBB204:
.LBB178:
.LBB176:
.LBB174:
.LBI174:
	.loc 2 204 28 view .LVU22
.LBB175:
	.loc 2 206 2 view .LVU23
	.loc 2 206 2 is_stmt 0 view .LVU24
.LBE175:
.LBE174:
.LBE176:
.LBE178:
	.loc 2 417 10 view .LVU25
	mov	r2, r3
	.loc 2 417 10 view .LVU26
	ldr	r3, [r3]
.LVL5:
	.loc 2 417 10 view .LVU27
	b	.L2
.L10:
	.loc 2 417 59 is_stmt 1 view .LVU28
.LVL6:
.LBB179:
.LBI179:
	.loc 2 401 20 view .LVU29
.LBB180:
	.loc 2 401 101 view .LVU30
	.loc 2 401 104 is_stmt 0 view .LVU31
	cbz	r2, .L11
	.loc 2 401 157 is_stmt 1 view .LVU32
.LVL7:
.LBB181:
.LBI181:
	.loc 2 204 28 view .LVU33
.LBB182:
	.loc 2 206 2 view .LVU34
	.loc 2 206 13 is_stmt 0 view .LVU35
	ldr	r3, [r0]
.LVL8:
	.loc 2 206 13 view .LVU36
.LBE182:
.LBE181:
.LBB183:
.LBI183:
	.loc 2 209 20 is_stmt 1 view .LVU37
.LBB184:
	.loc 2 211 2 view .LVU38
	.loc 2 211 15 is_stmt 0 view .LVU39
	str	r3, [r2]
.LVL9:
	.loc 2 211 15 view .LVU40
.LBE184:
.LBE183:
	.loc 2 401 211 is_stmt 1 view .LVU41
.LBB185:
.LBI185:
	.loc 2 243 28 view .LVU42
.LBB186:
	.loc 2 245 2 view .LVU43
	.loc 2 245 13 is_stmt 0 view .LVU44
	ldr	r3, .L14
	ldr	r3, [r3, #4]
.LVL10:
	.loc 2 245 13 view .LVU45
.LBE186:
.LBE185:
	.loc 2 401 214 view .LVU46
	cmp	r0, r3
	beq	.L12
.LVL11:
.L5:
	.loc 2 401 291 is_stmt 1 view .LVU47
.LBB187:
.LBI187:
	.loc 2 209 20 view .LVU48
.LBB188:
	.loc 2 211 2 view .LVU49
	.loc 2 211 15 is_stmt 0 view .LVU50
	movs	r3, #0
	str	r3, [r0]
.LVL12:
	.loc 2 211 15 view .LVU51
.LBE188:
.LBE187:
.LBE180:
.LBE179:
	.loc 2 417 95 is_stmt 1 view .LVU52
.L6:
	.loc 2 417 95 is_stmt 0 view .LVU53
.LBE204:
.LBE208:
	.loc 1 24 2 is_stmt 1 view .LVU54
.LBB209:
.LBI209:
	.loc 2 298 20 view .LVU55
.LBB210:
	.loc 2 298 78 view .LVU56
.LBB211:
.LBI211:
	.loc 2 231 28 view .LVU57
.LBB212:
	.loc 2 233 2 view .LVU58
	.loc 2 233 13 is_stmt 0 view .LVU59
	ldr	r3, .L14
	ldr	r2, [r3]
.LVL13:
	.loc 2 233 13 view .LVU60
.LBE212:
.LBE211:
.LBB213:
.LBI213:
	.loc 2 209 20 is_stmt 1 view .LVU61
.LBB214:
	.loc 2 211 2 view .LVU62
	.loc 2 211 15 is_stmt 0 view .LVU63
	str	r2, [r0]
.LVL14:
	.loc 2 211 15 view .LVU64
.LBE214:
.LBE213:
	.loc 2 298 129 is_stmt 1 view .LVU65
.LBB215:
.LBI215:
	.loc 2 214 20 view .LVU66
.LBB216:
	.loc 2 216 2 view .LVU67
	.loc 2 216 13 is_stmt 0 view .LVU68
	str	r0, [r3]
.LVL15:
	.loc 2 216 13 view .LVU69
.LBE216:
.LBE215:
	.loc 2 298 159 is_stmt 1 view .LVU70
.LBB217:
.LBI217:
	.loc 2 243 28 view .LVU71
.LBB218:
	.loc 2 245 2 view .LVU72
	.loc 2 245 13 is_stmt 0 view .LVU73
	ldr	r3, [r3, #4]
.LVL16:
	.loc 2 245 13 view .LVU74
.LBE218:
.LBE217:
	.loc 2 298 162 view .LVU75
	cbz	r3, .L13
.L8:
.LVL17:
	.loc 2 298 162 view .LVU76
.LBE210:
.LBE209:
	.loc 1 26 2 is_stmt 1 view .LVU77
	.loc 1 26 16 is_stmt 0 view .LVU78
	str	r1, [r0, #4]
	.loc 1 27 1 view .LVU79
	ldr	r4, [sp], #4
	.cfi_remember_state
	.cfi_restore 4
	.cfi_def_cfa_offset 0
	bx	lr
.LVL18:
.L11:
	.cfi_restore_state
.LBB223:
.LBB205:
.LBB201:
.LBB199:
	.loc 2 401 5 is_stmt 1 view .LVU80
.LBB189:
.LBI189:
	.loc 2 204 28 view .LVU81
.LBB190:
	.loc 2 206 2 view .LVU82
	.loc 2 206 13 is_stmt 0 view .LVU83
	ldr	r2, [r0]
.LVL19:
	.loc 2 206 13 view .LVU84
.LBE190:
.LBE189:
.LBB191:
.LBI191:
	.loc 2 214 20 is_stmt 1 view .LVU85
.LBB192:
	.loc 2 216 2 view .LVU86
	.loc 2 216 13 is_stmt 0 view .LVU87
	ldr	r3, .L14
.LVL20:
	.loc 2 216 13 view .LVU88
	str	r2, [r3]
.LVL21:
	.loc 2 216 13 view .LVU89
.LBE192:
.LBE191:
	.loc 2 401 54 is_stmt 1 view .LVU90
.LBB193:
.LBI193:
	.loc 2 243 28 view .LVU91
.LBB194:
	.loc 2 245 2 view .LVU92
	.loc 2 245 13 is_stmt 0 view .LVU93
	ldr	r3, [r3, #4]
.LVL22:
	.loc 2 245 13 view .LVU94
.LBE194:
.LBE193:
	.loc 2 401 57 view .LVU95
	cmp	r0, r3
	bne	.L5
	.loc 2 401 95 is_stmt 1 view .LVU96
.LVL23:
	.loc 2 401 95 is_stmt 0 view .LVU97
.LBE199:
.LBE201:
.LBE205:
.LBE223:
	.loc 2 233 2 is_stmt 1 view .LVU98
.LBB224:
.LBB206:
.LBB202:
.LBB200:
.LBB195:
.LBI195:
	.loc 2 219 20 view .LVU99
.LBB196:
	.loc 2 221 2 view .LVU100
	.loc 2 221 13 is_stmt 0 view .LVU101
	ldr	r3, .L14
	str	r2, [r3, #4]
	.loc 2 222 1 view .LVU102
	b	.L5
.LVL24:
.L12:
	.loc 2 222 1 view .LVU103
.LBE196:
.LBE195:
	.loc 2 401 252 is_stmt 1 view .LVU104
.LBB197:
.LBI197:
	.loc 2 219 20 view .LVU105
.LBB198:
	.loc 2 221 2 view .LVU106
	.loc 2 221 13 is_stmt 0 view .LVU107
	ldr	r3, .L14
	str	r2, [r3, #4]
	.loc 2 222 1 view .LVU108
	b	.L5
.LVL25:
.L13:
	.loc 2 222 1 view .LVU109
.LBE198:
.LBE197:
.LBE200:
.LBE202:
.LBE206:
.LBE224:
.LBB225:
.LBB221:
	.loc 2 298 5 is_stmt 1 view .LVU110
	.loc 2 298 5 is_stmt 0 view .LVU111
.LBE221:
.LBE225:
	.loc 2 233 2 is_stmt 1 view .LVU112
.LBB226:
.LBB222:
.LBB219:
.LBI219:
	.loc 2 219 20 view .LVU113
.LBB220:
	.loc 2 221 2 view .LVU114
	.loc 2 221 13 is_stmt 0 view .LVU115
	ldr	r3, .L14
	str	r0, [r3, #4]
	.loc 2 222 1 view .LVU116
	b	.L8
.L15:
	.align	2
.L14:
	.word	.LANCHOR0
.LBE220:
.LBE219:
.LBE222:
.LBE226:
	.cfi_endproc
.LFE898:
	.size	gptp_register_phase_dis_cb, .-gptp_register_phase_dis_cb
	.section	.text.gptp_unregister_phase_dis_cb,"ax",%progbits
	.align	1
	.global	gptp_unregister_phase_dis_cb
	.syntax unified
	.thumb
	.thumb_func
	.fpu fpv4-sp-d16
	.type	gptp_unregister_phase_dis_cb, %function
gptp_unregister_phase_dis_cb:
.LVL26:
.LFB899:
	.loc 1 30 1 is_stmt 1 view -0
	.cfi_startproc
	@ args = 0, pretend = 0, frame = 0
	@ frame_needed = 0, uses_anonymous_args = 0
	@ link register save eliminated.
	.loc 1 31 2 view .LVU118
	mov	r1, r0
.LVL27:
.LBB227:
.LBI227:
	.loc 2 417 1 view .LVU119
.LBB228:
	.loc 2 417 67 view .LVU120
	.loc 2 417 3 view .LVU121
	.loc 2 417 22 view .LVU122
.LBB229:
.LBI229:
	.loc 2 231 28 view .LVU123
.LBB230:
	.loc 2 233 2 view .LVU124
	.loc 2 233 13 is_stmt 0 view .LVU125
	ldr	r3, .L27
	ldr	r3, [r3]
.LVL28:
	.loc 2 233 13 view .LVU126
.LBE230:
.LBE229:
	.loc 2 417 80 view .LVU127
	movs	r2, #0
.LVL29:
.L17:
	.loc 2 417 61 is_stmt 1 view .LVU128
	.loc 2 417 22 is_stmt 0 view .LVU129
	cbz	r3, .L23
	.loc 2 417 39 is_stmt 1 view .LVU130
	.loc 2 417 42 is_stmt 0 view .LVU131
	cmp	r1, r3
	beq	.L24
	.loc 2 417 5 is_stmt 1 view .LVU132
.LVL30:
	.loc 2 417 3 view .LVU133
.LBB231:
.LBI231:
	.loc 2 285 29 view .LVU134
.LBE231:
.LBE228:
.LBE227:
	.loc 2 285 70 view .LVU135
.LBB265:
.LBB262:
.LBB236:
.LBB232:
.LBI232:
	.loc 2 274 29 view .LVU136
.LBE232:
.LBE236:
.LBE262:
.LBE265:
	.loc 2 274 79 view .LVU137
.LBB266:
.LBB263:
.LBB237:
.LBB235:
.LBB233:
.LBI233:
	.loc 2 204 28 view .LVU138
.LBB234:
	.loc 2 206 2 view .LVU139
	.loc 2 206 2 is_stmt 0 view .LVU140
.LBE234:
.LBE233:
.LBE235:
.LBE237:
	.loc 2 417 10 view .LVU141
	mov	r2, r3
	.loc 2 417 10 view .LVU142
	ldr	r3, [r3]
.LVL31:
	.loc 2 417 10 view .LVU143
	b	.L17
.L24:
	.loc 2 417 59 is_stmt 1 view .LVU144
.LVL32:
.LBB238:
.LBI238:
	.loc 2 401 20 view .LVU145
.LBB239:
	.loc 2 401 101 view .LVU146
	.loc 2 401 104 is_stmt 0 view .LVU147
	cbz	r2, .L25
	.loc 2 401 157 is_stmt 1 view .LVU148
.LVL33:
.LBB240:
.LBI240:
	.loc 2 204 28 view .LVU149
.LBB241:
	.loc 2 206 2 view .LVU150
	.loc 2 206 13 is_stmt 0 view .LVU151
	ldr	r3, [r0]
.LVL34:
	.loc 2 206 13 view .LVU152
.LBE241:
.LBE240:
.LBB242:
.LBI242:
	.loc 2 209 20 is_stmt 1 view .LVU153
.LBB243:
	.loc 2 211 2 view .LVU154
	.loc 2 211 15 is_stmt 0 view .LVU155
	str	r3, [r2]
.LVL35:
	.loc 2 211 15 view .LVU156
.LBE243:
.LBE242:
	.loc 2 401 211 is_stmt 1 view .LVU157
.LBB244:
.LBI244:
	.loc 2 243 28 view .LVU158
.LBB245:
	.loc 2 245 2 view .LVU159
	.loc 2 245 13 is_stmt 0 view .LVU160
	ldr	r3, .L27
	ldr	r3, [r3, #4]
.LVL36:
	.loc 2 245 13 view .LVU161
.LBE245:
.LBE244:
	.loc 2 401 214 view .LVU162
	cmp	r0, r3
	beq	.L26
.LVL37:
.L20:
	.loc 2 401 291 is_stmt 1 view .LVU163
.LBB246:
.LBI246:
	.loc 2 209 20 view .LVU164
.LBB247:
	.loc 2 211 2 view .LVU165
	.loc 2 211 15 is_stmt 0 view .LVU166
	movs	r3, #0
	str	r3, [r0]
.LVL38:
	.loc 2 211 15 view .LVU167
.LBE247:
.LBE246:
.LBE239:
.LBE238:
	.loc 2 417 95 is_stmt 1 view .LVU168
	.loc 2 417 1 is_stmt 0 view .LVU169
	bx	lr
.LVL39:
.L25:
.LBB260:
.LBB258:
	.loc 2 401 5 is_stmt 1 view .LVU170
.LBB248:
.LBI248:
	.loc 2 204 28 view .LVU171
.LBB249:
	.loc 2 206 2 view .LVU172
	.loc 2 206 13 is_stmt 0 view .LVU173
	ldr	r2, [r0]
.LVL40:
	.loc 2 206 13 view .LVU174
.LBE249:
.LBE248:
.LBB250:
.LBI250:
	.loc 2 214 20 is_stmt 1 view .LVU175
.LBB251:
	.loc 2 216 2 view .LVU176
	.loc 2 216 13 is_stmt 0 view .LVU177
	ldr	r3, .L27
.LVL41:
	.loc 2 216 13 view .LVU178
	str	r2, [r3]
.LVL42:
	.loc 2 216 13 view .LVU179
.LBE251:
.LBE250:
	.loc 2 401 54 is_stmt 1 view .LVU180
.LBB252:
.LBI252:
	.loc 2 243 28 view .LVU181
.LBB253:
	.loc 2 245 2 view .LVU182
	.loc 2 245 13 is_stmt 0 view .LVU183
	ldr	r3, [r3, #4]
.LVL43:
	.loc 2 245 13 view .LVU184
.LBE253:
.LBE252:
	.loc 2 401 57 view .LVU185
	cmp	r0, r3
	bne	.L20
	.loc 2 401 95 is_stmt 1 view .LVU186
.LVL44:
	.loc 2 401 95 is_stmt 0 view .LVU187
.LBE258:
.LBE260:
.LBE263:
.LBE266:
	.loc 2 233 2 is_stmt 1 view .LVU188
.LBB267:
.LBB264:
.LBB261:
.LBB259:
.LBB254:
.LBI254:
	.loc 2 219 20 view .LVU189
.LBB255:
	.loc 2 221 2 view .LVU190
	.loc 2 221 13 is_stmt 0 view .LVU191
	ldr	r3, .L27
	str	r2, [r3, #4]
	.loc 2 222 1 view .LVU192
	b	.L20
.LVL45:
.L26:
	.loc 2 222 1 view .LVU193
.LBE255:
.LBE254:
	.loc 2 401 252 is_stmt 1 view .LVU194
.LBB256:
.LBI256:
	.loc 2 219 20 view .LVU195
.LBB257:
	.loc 2 221 2 view .LVU196
	.loc 2 221 13 is_stmt 0 view .LVU197
	ldr	r3, .L27
	str	r2, [r3, #4]
	.loc 2 222 1 view .LVU198
	b	.L20
.LVL46:
.L23:
	.loc 2 222 1 view .LVU199
.LBE257:
.LBE256:
.LBE259:
.LBE261:
.LBE264:
.LBE267:
	.loc 1 32 1 view .LVU200
	bx	lr
.L28:
	.align	2
.L27:
	.word	.LANCHOR0
	.cfi_endproc
.LFE899:
	.size	gptp_unregister_phase_dis_cb, .-gptp_unregister_phase_dis_cb
	.section	.text.gptp_call_phase_dis_cb,"ax",%progbits
	.align	1
	.global	gptp_call_phase_dis_cb
	.syntax unified
	.thumb
	.thumb_func
	.fpu fpv4-sp-d16
	.type	gptp_call_phase_dis_cb, %function
gptp_call_phase_dis_cb:
.LFB900:
	.loc 1 35 1 is_stmt 1 view -0
	.cfi_startproc
	@ args = 0, pretend = 0, frame = 0
	@ frame_needed = 0, uses_anonymous_args = 0
	push	{r3, r4, r5, lr}
	.cfi_def_cfa_offset 16
	.cfi_offset 3, -16
	.cfi_offset 4, -12
	.cfi_offset 5, -8
	.cfi_offset 14, -4
	.loc 1 36 2 view .LVU202
	.loc 1 37 2 view .LVU203
	.loc 1 38 2 view .LVU204
	.loc 1 40 2 view .LVU205
.LVL47:
	.loc 1 41 2 view .LVU206
	.loc 1 43 2 view .LVU207
.LBB268:
.LBI268:
	.loc 2 231 28 view .LVU208
.LBB269:
	.loc 2 233 2 view .LVU209
	.loc 2 233 13 is_stmt 0 view .LVU210
	ldr	r3, .L38
	ldr	r3, [r3]
.LVL48:
	.loc 2 233 13 view .LVU211
.LBE269:
.LBE268:
.LBB270:
.LBI270:
	.loc 2 285 29 is_stmt 1 view .LVU212
.LBB271:
	.loc 2 285 70 view .LVU213
	.loc 2 285 38 is_stmt 0 view .LVU214
	cbz	r3, .L34
.LVL49:
.LBB272:
.LBI272:
	.loc 2 274 29 is_stmt 1 view .LVU215
.LBE272:
.LBE271:
.LBE270:
	.loc 2 274 79 view .LVU216
.LBB277:
.LBB276:
.LBB275:
.LBB273:
.LBI273:
	.loc 2 204 28 view .LVU217
.LBB274:
	.loc 2 206 2 view .LVU218
	.loc 2 206 13 is_stmt 0 view .LVU219
	ldr	r4, [r3]
.LVL50:
	.loc 2 206 13 view .LVU220
.LBE274:
.LBE273:
.LBE275:
	b	.L31
.L34:
	.loc 2 285 38 view .LVU221
	mov	r4, r3
	b	.L31
.LVL51:
.L35:
	.loc 2 285 38 view .LVU222
.LBE276:
.LBE277:
.LBB278:
.LBB279:
	mov	r2, r4
.L32:
	.loc 2 285 38 discriminator 1 view .LVU223
	mov	r3, r4
	mov	r4, r2
.LVL52:
.L31:
	.loc 2 285 38 discriminator 1 view .LVU224
.LBE279:
.LBE278:
	.loc 1 43 86 is_stmt 1 discriminator 1 view .LVU225
	.loc 1 43 2 is_stmt 0 discriminator 1 view .LVU226
	cbz	r3, .L37
.LBB286:
	.loc 1 44 3 is_stmt 1 discriminator 3 view .LVU227
.LVL53:
	.loc 1 47 3 discriminator 3 view .LVU228
	.loc 1 47 12 is_stmt 0 discriminator 3 view .LVU229
	ldr	r5, [r3, #4]
	.loc 1 47 3 discriminator 3 view .LVU230
	ldr	r3, .L38+4
.LVL54:
	.loc 1 47 3 discriminator 3 view .LVU231
	add	r2, r3, #40
	add	r1, r3, #230
	add	r0, r3, #140
	blx	r5
.LVL55:
.LBE286:
	.loc 1 43 3 is_stmt 1 discriminator 3 view .LVU232
.LBB287:
.LBI278:
	.loc 2 285 29 discriminator 3 view .LVU233
.LBB284:
	.loc 2 285 70 discriminator 3 view .LVU234
	.loc 2 285 38 is_stmt 0 discriminator 3 view .LVU235
	cmp	r4, #0
	beq	.L35
.LVL56:
.LBB280:
.LBI280:
	.loc 2 274 29 is_stmt 1 view .LVU236
.LBE280:
.LBE284:
.LBE287:
	.loc 2 274 79 view .LVU237
.LBB288:
.LBB285:
.LBB283:
.LBB281:
.LBI281:
	.loc 2 204 28 view .LVU238
.LBB282:
	.loc 2 206 2 view .LVU239
	.loc 2 206 13 is_stmt 0 view .LVU240
	ldr	r2, [r4]
.LVL57:
	.loc 2 206 13 view .LVU241
.LBE282:
.LBE281:
.LBE283:
	b	.L32
.LVL58:
.L37:
	.loc 2 206 13 view .LVU242
.LBE285:
.LBE288:
	.loc 1 52 1 view .LVU243
	pop	{r3, r4, r5, pc}
.LVL59:
.L39:
	.loc 1 52 1 view .LVU244
	.align	2
.L38:
	.word	.LANCHOR0
	.word	gptp_domain+24
	.cfi_endproc
.LFE900:
	.size	gptp_call_phase_dis_cb, .-gptp_call_phase_dis_cb
	.section	.text.gptp_event_capture,"ax",%progbits
	.align	1
	.global	gptp_event_capture
	.syntax unified
	.thumb
	.thumb_func
	.fpu fpv4-sp-d16
	.type	gptp_event_capture, %function
gptp_event_capture:
.LVL60:
.LFB901:
	.loc 1 55 1 is_stmt 1 view -0
	.cfi_startproc
	@ args = 0, pretend = 0, frame = 0
	@ frame_needed = 0, uses_anonymous_args = 0
	.loc 1 55 1 is_stmt 0 view .LVU246
	push	{r3, r4, r5, r6, r7, lr}
	.cfi_def_cfa_offset 24
	.cfi_offset 3, -24
	.cfi_offset 4, -20
	.cfi_offset 5, -16
	.cfi_offset 6, -12
	.cfi_offset 7, -8
	.cfi_offset 14, -4
	mov	r6, r0
	mov	r5, r1
	.loc 1 56 2 is_stmt 1 view .LVU247
	.loc 1 57 2 view .LVU248
	.loc 1 59 2 view .LVU249
.LBB289:
.LBI289:
	.file 3 "/home/sebin/thesis/zephyrproject/zephyr/include/arch/arm/aarch32/asm_inline_gcc.h"
	.loc 3 43 59 view .LVU250
.LBB290:
	.loc 3 45 2 view .LVU251
	.loc 3 54 2 view .LVU252
	.loc 3 56 2 view .LVU253
	.syntax unified
@ 56 "/home/sebin/thesis/zephyrproject/zephyr/include/arch/arm/aarch32/asm_inline_gcc.h" 1
	mov r3, #4;mrs r7, BASEPRI;msr BASEPRI_MAX, r3;isb;
@ 0 "" 2
.LVL61:
	.loc 3 76 2 view .LVU254
	.loc 3 76 2 is_stmt 0 view .LVU255
	.thumb
	.syntax unified
.LBE290:
.LBE289:
	.loc 1 60 2 is_stmt 1 view .LVU256
	.loc 1 60 40 is_stmt 0 view .LVU257
	ldr	r3, .L49
	ldrb	r3, [r3, #278]	@ zero_extendqisi2
	.loc 1 60 14 view .LVU258
	strb	r3, [r1]
	.loc 1 62 2 is_stmt 1 view .LVU259
.LVL62:
	.loc 1 62 12 is_stmt 0 view .LVU260
	movs	r4, #1
	.loc 1 62 2 view .LVU261
	b	.L41
.LVL63:
.L42:
	.loc 1 66 4 is_stmt 1 view .LVU262
	.loc 1 66 10 is_stmt 0 view .LVU263
	addw	r3, r4, #437
	ldr	r2, .L49
	add	r3, r2, r3, lsl #2
	ldr	r0, [r3, #4]
	bl	net_eth_get_ptp_clock
.LVL64:
	.loc 1 67 4 is_stmt 1 view .LVU264
	.loc 1 67 7 is_stmt 0 view .LVU265
	cbnz	r0, .L47
.LVL65:
.L43:
	.loc 1 62 64 is_stmt 1 discriminator 2 view .LVU266
	.loc 1 62 68 is_stmt 0 discriminator 2 view .LVU267
	adds	r4, r4, #1
.LVL66:
.L41:
	.loc 1 62 17 is_stmt 1 discriminator 1 view .LVU268
	.loc 1 62 48 is_stmt 0 discriminator 1 view .LVU269
	ldr	r3, .L49
	ldrb	r3, [r3, #299]	@ zero_extendqisi2
	.loc 1 62 58 discriminator 1 view .LVU270
	adds	r3, r3, #1
	.loc 1 62 2 discriminator 1 view .LVU271
	cmp	r3, r4
	blt	.L48
	.loc 1 64 3 is_stmt 1 view .LVU272
	.loc 1 64 8 is_stmt 0 view .LVU273
	ldrb	r3, [r5]	@ zero_extendqisi2
	.loc 1 64 6 view .LVU274
	cmp	r3, #0
	beq	.L42
	.loc 1 64 63 discriminator 1 view .LVU275
	ldr	r3, .L49
	add	r3, r3, r4
	ldrb	r3, [r3, #276]	@ zero_extendqisi2
	.loc 1 64 20 discriminator 1 view .LVU276
	cmp	r3, #8
	bne	.L43
	b	.L42
.LVL67:
.L47:
	.loc 1 68 5 is_stmt 1 view .LVU277
.LBB291:
.LBI291:
	.file 4 "/home/sebin/thesis/dmz/zephyr_xmc_template/build/zephyr/include/generated/syscalls/ptp_clock.h"
	.loc 4 35 19 view .LVU278
.LBB292:
	.loc 4 43 2 view .LVU279
	.loc 4 43 7 view .LVU280
	.loc 4 43 55 view .LVU281
	.loc 4 44 2 view .LVU282
.LVL68:
.LBB293:
.LBI293:
	.file 5 "/home/sebin/thesis/zephyrproject/zephyr/include/drivers/ptp_clock.h"
	.loc 5 59 19 view .LVU283
.LBB294:
	.loc 5 62 2 view .LVU284
	.loc 5 62 37 is_stmt 0 view .LVU285
	ldr	r2, [r0, #8]
.LVL69:
	.loc 5 65 2 is_stmt 1 view .LVU286
	.loc 5 65 12 is_stmt 0 view .LVU287
	ldr	r2, [r2, #4]
.LVL70:
	.loc 5 65 9 view .LVU288
	mov	r1, r6
	blx	r2
.LVL71:
	.loc 5 65 9 view .LVU289
.LBE294:
.LBE293:
.LBE292:
.LBE291:
	.loc 1 69 5 is_stmt 1 view .LVU290
.LBB295:
.LBI295:
	.loc 3 84 51 view .LVU291
.LBB296:
	.loc 3 95 2 view .LVU292
	.syntax unified
@ 95 "/home/sebin/thesis/zephyrproject/zephyr/include/arch/arm/aarch32/asm_inline_gcc.h" 1
	msr BASEPRI, r7;isb;
@ 0 "" 2
.LVL72:
	.loc 3 95 2 is_stmt 0 view .LVU293
	.thumb
	.syntax unified
.LBE296:
.LBE295:
	.loc 1 70 5 is_stmt 1 view .LVU294
	.loc 1 70 12 is_stmt 0 view .LVU295
	movs	r0, #0
	b	.L40
.L48:
	.loc 1 75 2 is_stmt 1 view .LVU296
.LVL73:
.LBB297:
.LBI297:
	.loc 3 84 51 view .LVU297
.LBB298:
	.loc 3 95 2 view .LVU298
	.syntax unified
@ 95 "/home/sebin/thesis/zephyrproject/zephyr/include/arch/arm/aarch32/asm_inline_gcc.h" 1
	msr BASEPRI, r7;isb;
@ 0 "" 2
.LVL74:
	.loc 3 95 2 is_stmt 0 view .LVU299
	.thumb
	.syntax unified
.LBE298:
.LBE297:
	.loc 1 76 2 is_stmt 1 view .LVU300
	.loc 1 76 9 is_stmt 0 view .LVU301
	mvn	r0, #10
.L40:
	.loc 1 77 1 view .LVU302
	pop	{r3, r4, r5, r6, r7, pc}
.LVL75:
.L50:
	.loc 1 77 1 view .LVU303
	.align	2
.L49:
	.word	gptp_domain
	.cfi_endproc
.LFE901:
	.size	gptp_event_capture, .-gptp_event_capture
	.section	.text.gptp_sprint_clock_id,"ax",%progbits
	.align	1
	.global	gptp_sprint_clock_id
	.syntax unified
	.thumb
	.thumb_func
	.fpu fpv4-sp-d16
	.type	gptp_sprint_clock_id, %function
gptp_sprint_clock_id:
.LVL76:
.LFB902:
	.loc 1 80 1 is_stmt 1 view -0
	.cfi_startproc
	@ args = 0, pretend = 0, frame = 0
	@ frame_needed = 0, uses_anonymous_args = 0
	.loc 1 80 1 is_stmt 0 view .LVU305
	push	{r3, lr}
	.cfi_def_cfa_offset 8
	.cfi_offset 3, -8
	.cfi_offset 14, -4
	mov	r3, r2
	.loc 1 81 2 is_stmt 1 view .LVU306
	.loc 1 81 9 is_stmt 0 view .LVU307
	mov	r2, r1
.LVL77:
	.loc 1 81 9 view .LVU308
	movs	r1, #8
.LVL78:
	.loc 1 81 9 view .LVU309
	bl	net_sprint_ll_addr_buf
.LVL79:
	.loc 1 82 1 view .LVU310
	pop	{r3, pc}
	.cfi_endproc
.LFE902:
	.size	gptp_sprint_clock_id, .-gptp_sprint_clock_id
	.section	.text.gptp_clk_src_time_invoke,"ax",%progbits
	.align	1
	.global	gptp_clk_src_time_invoke
	.syntax unified
	.thumb
	.thumb_func
	.fpu fpv4-sp-d16
	.type	gptp_clk_src_time_invoke, %function
gptp_clk_src_time_invoke:
.LVL80:
.LFB903:
	.loc 1 85 1 is_stmt 1 view -0
	.cfi_startproc
	@ args = 0, pretend = 0, frame = 0
	@ frame_needed = 0, uses_anonymous_args = 0
	@ link register save eliminated.
	.loc 1 85 1 is_stmt 0 view .LVU312
	push	{r4, r5, r6, r7}
	.cfi_def_cfa_offset 16
	.cfi_offset 4, -16
	.cfi_offset 5, -12
	.cfi_offset 6, -8
	.cfi_offset 7, -4
	.loc 1 86 2 is_stmt 1 view .LVU313
	.loc 1 88 2 view .LVU314
.LVL81:
	.loc 1 90 1 view .LVU315
	.loc 1 90 23 is_stmt 0 view .LVU316
	mov	r5, r0
	ldr	r4, .L56
.LVL82:
	.loc 1 90 23 view .LVU317
	add	r6, r0, #32
.LVL83:
.L54:
	.loc 1 90 23 view .LVU318
	mov	r7, r4
	ldr	r0, [r5]	@ unaligned
	ldr	r1, [r5, #4]	@ unaligned
	ldr	r2, [r5, #8]	@ unaligned
	ldr	r3, [r5, #12]	@ unaligned
	stmia	r7!, {r0, r1, r2, r3}
	adds	r5, r5, #16
	mov	r4, r7
	cmp	r5, r6
	bne	.L54
	ldr	r0, [r5]	@ unaligned
	ldr	r1, [r5, #4]	@ unaligned
	stmia	r4!, {r0, r1}
	.loc 1 93 2 is_stmt 1 view .LVU319
	.loc 1 93 31 is_stmt 0 view .LVU320
	ldr	r3, .L56+4
	movs	r2, #1
	strb	r2, [r3, #681]
	.loc 1 94 1 view .LVU321
	pop	{r4, r5, r6, r7}
	.cfi_restore 7
	.cfi_restore 6
	.cfi_restore 5
	.cfi_restore 4
	.cfi_def_cfa_offset 0
.LVL84:
	.loc 1 94 1 view .LVU322
	bx	lr
.L57:
	.align	2
.L56:
	.word	gptp_domain+640
	.word	gptp_domain
	.cfi_endproc
.LFE903:
	.size	gptp_clk_src_time_invoke, .-gptp_clk_src_time_invoke
	.section	.bss.phase_dis_callbacks,"aw",%nobits
	.align	2
	.set	.LANCHOR0,. + 0
	.type	phase_dis_callbacks, %object
	.size	phase_dis_callbacks, 8
phase_dis_callbacks:
	.space	8
	.text
.Letext0:
	.file 6 "/home/sebin/LIOT/gcc-arm-none-eabi-9-2019-q4-major/lib/gcc/arm-none-eabi/9.2.1/include/stddef.h"
	.file 7 "/home/sebin/LIOT/gcc-arm-none-eabi-9-2019-q4-major/arm-none-eabi/include/machine/_default_types.h"
	.file 8 "/home/sebin/LIOT/gcc-arm-none-eabi-9-2019-q4-major/arm-none-eabi/include/sys/_stdint.h"
	.file 9 "/home/sebin/thesis/zephyrproject/zephyr/include/logging/log_instance.h"
	.file 10 "/home/sebin/thesis/zephyrproject/zephyr/include/sys/atomic.h"
	.file 11 "/home/sebin/LIOT/gcc-arm-none-eabi-9-2019-q4-major/arm-none-eabi/include/sys/lock.h"
	.file 12 "/home/sebin/LIOT/gcc-arm-none-eabi-9-2019-q4-major/arm-none-eabi/include/sys/_types.h"
	.file 13 "/home/sebin/LIOT/gcc-arm-none-eabi-9-2019-q4-major/arm-none-eabi/include/sys/reent.h"
	.file 14 "/home/sebin/LIOT/gcc-arm-none-eabi-9-2019-q4-major/arm-none-eabi/include/sys/errno.h"
	.file 15 "/home/sebin/thesis/zephyrproject/zephyr/include/logging/log_core.h"
	.file 16 "/home/sebin/thesis/zephyrproject/zephyr/include/sys/dlist.h"
	.file 17 "/home/sebin/thesis/zephyrproject/zephyr/include/sys/rb.h"
	.file 18 "/home/sebin/thesis/zephyrproject/zephyr/include/sys/sys_heap.h"
	.file 19 "/home/sebin/thesis/zephyrproject/zephyr/include/kernel_structs.h"
	.file 20 "/home/sebin/thesis/zephyrproject/zephyr/include/kernel/thread.h"
	.file 21 "/home/sebin/thesis/zephyrproject/zephyr/include/kernel.h"
	.file 22 "/home/sebin/thesis/zephyrproject/zephyr/include/arch/arm/aarch32/thread.h"
	.file 23 "/home/sebin/thesis/zephyrproject/zephyr/include/arch/arm/aarch32/exc.h"
	.file 24 "/home/sebin/thesis/zephyrproject/zephyr/include/sw_isr_table.h"
	.file 25 "/home/sebin/thesis/zephyrproject/modules/hal/infineon/XMCLib/devices/XMC4500/Include/system_XMC4500.h"
	.file 26 "/home/sebin/thesis/zephyrproject/modules/hal/cmsis/CMSIS/Core/Include/core_cm4.h"
	.file 27 "/home/sebin/thesis/zephyrproject/zephyr/include/arch/arm/aarch32/mpu/arm_mpu_v7m.h"
	.file 28 "/home/sebin/thesis/zephyrproject/zephyr/include/arch/arm/aarch32/mpu/arm_mpu.h"
	.file 29 "/home/sebin/thesis/zephyrproject/zephyr/include/sys_clock.h"
	.file 30 "/home/sebin/thesis/zephyrproject/zephyr/include/spinlock.h"
	.file 31 "/home/sebin/thesis/zephyrproject/zephyr/include/device.h"
	.file 32 "/home/sebin/thesis/dmz/zephyr_xmc_template/build/zephyr/include/generated/device_extern.h"
	.file 33 "/home/sebin/thesis/zephyrproject/zephyr/include/net/net_timeout.h"
	.file 34 "/home/sebin/thesis/zephyrproject/zephyr/include/net/net_core.h"
	.file 35 "/home/sebin/thesis/zephyrproject/zephyr/include/net/ptp_time.h"
	.file 36 "/home/sebin/thesis/zephyrproject/zephyr/include/net/gptp.h"
	.file 37 "/home/sebin/thesis/zephyrproject/zephyr/include/net/net_if.h"
	.file 38 "/home/sebin/thesis/zephyrproject/zephyr/include/net/buf.h"
	.file 39 "/home/sebin/thesis/zephyrproject/zephyr/include/net/net_linkaddr.h"
	.file 40 "/home/sebin/thesis/zephyrproject/zephyr/include/net/net_ip.h"
	.file 41 "/home/sebin/thesis/zephyrproject/zephyr/include/net/net_pkt.h"
	.file 42 "/home/sebin/thesis/zephyrproject/zephyr/include/net/net_l2.h"
	.file 43 "/home/sebin/thesis/zephyrproject/zephyr/include/net/net_stats.h"
	.file 44 "/home/sebin/thesis/zephyrproject/zephyr/include/net/net_context.h"
	.file 45 "/home/sebin/thesis/zephyrproject/zephyr/subsys/net/l2/ethernet/gptp/gptp_messages.h"
	.file 46 "/home/sebin/thesis/zephyrproject/zephyr/subsys/net/l2/ethernet/gptp/gptp_md.h"
	.file 47 "/home/sebin/thesis/zephyrproject/zephyr/subsys/net/l2/ethernet/gptp/gptp_mi.h"
	.file 48 "/home/sebin/thesis/zephyrproject/zephyr/subsys/net/l2/ethernet/gptp/gptp_state.h"
	.file 49 "/home/sebin/thesis/zephyrproject/zephyr/subsys/net/l2/ethernet/gptp/gptp_data_set.h"
	.file 50 "/home/sebin/LIOT/gcc-arm-none-eabi-9-2019-q4-major/arm-none-eabi/include/ssp/string.h"
	.file 51 "/home/sebin/thesis/zephyrproject/zephyr/subsys/net/ip/net_private.h"
	.file 52 "/home/sebin/thesis/zephyrproject/zephyr/include/net/ethernet.h"
	.file 53 "/home/sebin/thesis/zephyrproject/zephyr/include/arch/structs.h"