	.cpu cortex-m4
	.eabi_attribute 27, 1
	.eabi_attribute 28, 1
	.eabi_attribute 20, 1
	.eabi_attribute 21, 1
	.eabi_attribute 23, 3
	.eabi_attribute 24, 1
	.eabi_attribute 25, 1
	.eabi_attribute 26, 1
	.eabi_attribute 30, 1
	.eabi_attribute 34, 1
	.eabi_attribute 38, 1
	.eabi_attribute 18, 4
	.file	"clock_control_xmc.c"
	.text
.Ltext0:
	.cfi_sections	.debug_frame
	.section	.text.xmc_clock_control_on,"ax",%progbits
	.align	1
	.arch armv7e-m
	.syntax unified
	.thumb
	.thumb_func
	.fpu fpv4-sp-d16
	.type	xmc_clock_control_on, %function
xmc_clock_control_on:
.LVL0:
.LFB605:
	.file 1 "/home/sebin/thesis/dmz/zephyr_xmc_template/drivers/zephyr/clock_control/clock_control_xmc.c"
	.loc 1 26 1 view -0
	.cfi_startproc
	@ args = 0, pretend = 0, frame = 0
	@ frame_needed = 0, uses_anonymous_args = 0
	@ link register save eliminated.
	.loc 1 28 2 view .LVU1
.LBB10:
.LBI10:
	.file 2 "/home/sebin/thesis/zephyrproject/modules/hal/infineon/XMCLib/drivers/inc/xmc_ccu4.h"
	.loc 2 983 20 view .LVU2
.LBB11:
	.loc 2 985 3 view .LVU3
	.loc 2 986 3 view .LVU4
	.loc 2 988 3 view .LVU5
	.loc 2 988 17 is_stmt 0 view .LVU6
	ldr	r3, .L2
	movs	r2, #1
	str	r2, [r3, #12]
.LVL1:
	.loc 2 988 17 view .LVU7
.LBE11:
.LBE10:
	.loc 1 30 2 is_stmt 1 view .LVU8
	.loc 1 31 1 is_stmt 0 view .LVU9
	movs	r0, #0
.LVL2:
	.loc 1 31 1 view .LVU10
	bx	lr
.L3:
	.align	2
.L2:
	.word	1073790976
	.cfi_endproc
.LFE605:
	.size	xmc_clock_control_on, .-xmc_clock_control_on
	.section	.text.xmc_clock_control_off,"ax",%progbits
	.align	1
	.syntax unified
	.thumb
	.thumb_func
	.fpu fpv4-sp-d16
	.type	xmc_clock_control_off, %function
xmc_clock_control_off:
.LVL3:
.LFB606:
	.loc 1 35 1 is_stmt 1 view -0
	.cfi_startproc
	@ args = 0, pretend = 0, frame = 0
	@ frame_needed = 0, uses_anonymous_args = 0
	@ link register save eliminated.
	.loc 1 36 2 view .LVU12
.LBB12:
.LBI12:
	.loc 2 1008 20 view .LVU13
.LBB13:
	.loc 2 1010 3 view .LVU14
	.loc 2 1011 3 view .LVU15
	.loc 2 1013 3 view .LVU16
	.loc 2 1013 17 is_stmt 0 view .LVU17
	ldr	r3, .L5
	movs	r2, #1
	str	r2, [r3, #8]
.LVL4:
	.loc 2 1013 17 view .LVU18
.LBE13:
.LBE12:
	.loc 1 37 2 is_stmt 1 view .LVU19
	.loc 1 38 1 is_stmt 0 view .LVU20
	movs	r0, #0
.LVL5:
	.loc 1 38 1 view .LVU21
	bx	lr
.L6:
	.align	2
.L5:
	.word	1073790976
	.cfi_endproc
.LFE606:
	.size	xmc_clock_control_off, .-xmc_clock_control_off
	.section	.text.xmc_clock_control_get_rate,"ax",%progbits
	.align	1
	.syntax unified
	.thumb
	.thumb_func
	.fpu fpv4-sp-d16
	.type	xmc_clock_control_get_rate, %function
xmc_clock_control_get_rate:
.LVL6:
.LFB607:
	.loc 1 43 1 is_stmt 1 view -0
	.cfi_startproc
	@ args = 0, pretend = 0, frame = 0
	@ frame_needed = 0, uses_anonymous_args = 0
	@ link register save eliminated.
	.loc 1 44 2 view .LVU23
.LBB14:
.LBI14:
	.file 3 "/home/sebin/thesis/zephyrproject/modules/hal/infineon/XMCLib/drivers/inc/xmc_scu.h"
	.loc 3 433 24 view .LVU24
.LBB15:
	.loc 3 435 3 view .LVU25
	.loc 3 435 10 is_stmt 0 view .LVU26
	ldr	r3, .L8
	ldr	r3, [r3]
.LBE15:
.LBE14:
	.loc 1 44 8 view .LVU27
	str	r3, [r2]
	.loc 1 45 2 is_stmt 1 view .LVU28
	.loc 1 46 1 is_stmt 0 view .LVU29
	movs	r0, #0
.LVL7:
	.loc 1 46 1 view .LVU30
	bx	lr
.L9:
	.align	2
.L8:
	.word	SystemCoreClock
	.cfi_endproc
.LFE607:
	.size	xmc_clock_control_get_rate, .-xmc_clock_control_get_rate
	.section	.text.xmc_clock_init,"ax",%progbits
	.align	1
	.syntax unified
	.thumb
	.thumb_func
	.fpu fpv4-sp-d16
	.type	xmc_clock_init, %function
xmc_clock_init:
.LVL8:
.LFB608:
	.loc 1 57 1 is_stmt 1 view -0
	.cfi_startproc
	@ args = 0, pretend = 0, frame = 0
	@ frame_needed = 0, uses_anonymous_args = 0
	.loc 1 57 1 is_stmt 0 view .LVU32
	push	{r4, lr}
	.cfi_def_cfa_offset 8
	.cfi_offset 4, -8
	.cfi_offset 14, -4
	.loc 1 60 2 is_stmt 1 view .LVU33
	ldr	r4, .L12
	movs	r1, #0
	mov	r0, r4
.LVL9:
	.loc 1 60 2 is_stmt 0 view .LVU34
	bl	XMC_CCU4_SetModuleClock
.LVL10:
	.loc 1 61 2 is_stmt 1 view .LVU35
	movs	r1, #0
	mov	r0, r4
	bl	XMC_CCU4_Init
.LVL11:
	.loc 1 62 2 view .LVU36
.LBB16:
.LBI16:
	.file 4 "/home/sebin/thesis/zephyrproject/modules/hal/infineon/XMCLib/drivers/inc/xmc4_scu.h"
	.loc 4 3616 20 view .LVU37
.LBB17:
	.loc 4 3618 3 view .LVU38
	.loc 4 3618 47 is_stmt 0 view .LVU39
	ldr	r3, .L12+4
	ldr	r2, .L12+8
	str	r2, [r3, #48]
.LVL12:
	.loc 4 3618 47 view .LVU40
.LBE17:
.LBE16:
	.loc 1 64 2 is_stmt 1 view .LVU41
	.loc 1 65 1 is_stmt 0 view .LVU42
	movs	r0, #0
	pop	{r4, pc}
.L13:
	.align	2
.L12:
	.word	1073790976
	.word	1342195200
	.word	1048577
	.cfi_endproc
.LFE608:
	.size	xmc_clock_init, .-xmc_clock_init
	.global	__device_dts_ord_10
	.section	.rodata.str1.4,"aMS",%progbits,1
	.align	2
.LC0:
	.ascii	"SCU_CLK\000"
	.weak	__devicehdl_DT_N_S_soc_S_clock_50004600
	.section	.__device_handles_pass1,"a"
	.align	1
	.type	__devicehdl_DT_N_S_soc_S_clock_50004600, %object
	.size	__devicehdl_DT_N_S_soc_S_clock_50004600, 8
__devicehdl_DT_N_S_soc_S_clock_50004600:
	.short	10
	.short	9
	.short	-32768
	.short	-32768
	.section	.rodata.xmc_clock_drv_api_funs,"a"
	.align	2
	.type	xmc_clock_drv_api_funs, %object
	.size	xmc_clock_drv_api_funs, 24
xmc_clock_drv_api_funs:
	.word	xmc_clock_control_on
	.word	xmc_clock_control_off
	.space	4
	.word	xmc_clock_control_get_rate
	.space	8
	.section	.z_device_PRE_KERNEL_150_,"a"
	.align	2
	.type	__device_dts_ord_10, %object
	.size	__device_dts_ord_10, 24
__device_dts_ord_10:
	.word	.LC0
	.word	0
	.word	xmc_clock_drv_api_funs
	.word	__devstate_dts_ord_10
	.word	0
	.word	__devicehdl_DT_N_S_soc_S_clock_50004600
	.section	.z_devstate,"aw"
	.align	2
	.type	__devstate_dts_ord_10, %object
	.size	__devstate_dts_ord_10, 4
__devstate_dts_ord_10:
	.space	4
	.section	.z_init_PRE_KERNEL_150_,"a"
	.align	2
	.type	__init___device_dts_ord_10, %object
	.size	__init___device_dts_ord_10, 8
__init___device_dts_ord_10:
	.word	xmc_clock_init
	.word	__device_dts_ord_10
	.text
.Letext0:
	.file 5 "/home/sebin/LIOT/gcc-arm-none-eabi-9-2019-q4-major/lib/gcc/arm-none-eabi/9.2.1/include/stddef.h"
	.file 6 "/home/sebin/LIOT/gcc-arm-none-eabi-9-2019-q4-major/arm-none-eabi/include/machine/_default_types.h"
	.file 7 "/home/sebin/LIOT/gcc-arm-none-eabi-9-2019-q4-major/arm-none-eabi/include/sys/lock.h"
	.file 8 "/home/sebin/LIOT/gcc-arm-none-eabi-9-2019-q4-major/arm-none-eabi/include/sys/_types.h"
	.file 9 "/home/sebin/LIOT/gcc-arm-none-eabi-9-2019-q4-major/arm-none-eabi/include/sys/reent.h"
	.file 10 "/home/sebin/LIOT/gcc-arm-none-eabi-9-2019-q4-major/arm-none-eabi/include/sys/errno.h"
	.file 11 "/home/sebin/LIOT/gcc-arm-none-eabi-9-2019-q4-major/arm-none-eabi/include/sys/_stdint.h"
	.file 12 "/home/sebin/thesis/zephyrproject/modules/hal/infineon/XMCLib/devices/XMC4500/Include/system_XMC4500.h"
	.file 13 "/home/sebin/thesis/zephyrproject/modules/hal/cmsis/CMSIS/Core/Include/core_cm4.h"
	.file 14 "/home/sebin/thesis/zephyrproject/modules/hal/infineon/XMCLib/devices/XMC4500/Include/XMC4500.h"
	.file 15 "/home/sebin/thesis/zephyrproject/zephyr/include/sys/dlist.h"
	.file 16 "/home/sebin/thesis/zephyrproject/zephyr/include/sys/rb.h"
	.file 17 "/home/sebin/thesis/zephyrproject/zephyr/include/sys/slist.h"
	.file 18 "/home/sebin/thesis/zephyrproject/zephyr/include/sys/sys_heap.h"
	.file 19 "/home/sebin/thesis/zephyrproject/zephyr/include/kernel_structs.h"
	.file 20 "/home/sebin/thesis/zephyrproject/zephyr/include/kernel/thread.h"
	.file 21 "/home/sebin/thesis/zephyrproject/zephyr/include/kernel.h"
	.file 22 "/home/sebin/thesis/zephyrproject/zephyr/include/arch/arm/aarch32/thread.h"
	.file 23 "/home/sebin/thesis/zephyrproject/zephyr/include/arch/arm/aarch32/exc.h"
	.file 24 "/home/sebin/thesis/zephyrproject/zephyr/include/sw_isr_table.h"
	.file 25 "/home/sebin/thesis/zephyrproject/zephyr/include/arch/arm/aarch32/mpu/arm_mpu_v7m.h"
	.file 26 "/home/sebin/thesis/zephyrproject/zephyr/include/arch/arm/aarch32/mpu/arm_mpu.h"
	.file 27 "/home/sebin/thesis/zephyrproject/zephyr/include/spinlock.h"
	.file 28 "/home/sebin/thesis/zephyrproject/zephyr/include/init.h"
	.file 29 "/home/sebin/thesis/zephyrproject/zephyr/include/device.h"
	.file 30 "/home/sebin/thesis/dmz/zephyr_xmc_template/build/zephyr/include/generated/device_extern.h"
	.file 31 "/home/sebin/thesis/zephyrproject/zephyr/include/drivers/clock_control.h"
	.file 32 "/home/sebin/thesis/zephyrproject/zephyr/include/arch/structs.h"