	.cpu cortex-m4
	.eabi_attribute 27, 1
	.eabi_attribute 28, 1
	.eabi_attribute 20, 1
	.eabi_attribute 21, 1
	.eabi_attribute 23, 3
	.eabi_attribute 24, 1
	.eabi_attribute 25, 1
	.eabi_attribute 26, 1
	.eabi_attribute 30, 1
	.eabi_attribute 34, 1
	.eabi_attribute 38, 1
	.eabi_attribute 18, 4
	.file	"device.c"
	.text
.Ltext0:
	.cfi_sections	.debug_frame
	.section	.text.device_visitor,"ax",%progbits
	.align	1
	.arch armv7e-m
	.syntax unified
	.thumb
	.thumb_func
	.fpu fpv4-sp-d16
	.type	device_visitor, %function
device_visitor:
.LVL0:
.LFB522:
	.file 1 "/home/sebin/thesis/zephyrproject/zephyr/kernel/device.c"
	.loc 1 169 1 view -0
	.cfi_startproc
	@ args = 0, pretend = 0, frame = 0
	@ frame_needed = 0, uses_anonymous_args = 0
	.loc 1 169 1 is_stmt 0 view .LVU1
	push	{r3, r4, r5, r6, r7, r8, r9, lr}
	.cfi_def_cfa_offset 32
	.cfi_offset 3, -32
	.cfi_offset 4, -28
	.cfi_offset 5, -24
	.cfi_offset 6, -20
	.cfi_offset 7, -16
	.cfi_offset 8, -12
	.cfi_offset 9, -8
	.cfi_offset 14, -4
	mov	r9, r0
	mov	r6, r1
	mov	r8, r2
	mov	r7, r3
	.loc 1 171 2 is_stmt 1 view .LVU2
.LBB13:
	.loc 1 171 7 view .LVU3
.LVL1:
	.loc 1 171 14 is_stmt 0 view .LVU4
	movs	r5, #0
	.loc 1 171 2 view .LVU5
	b	.L2
.LVL2:
.L6:
.LBB14:
.LBB15:
.LBB16:
	.file 2 "/home/sebin/thesis/zephyrproject/zephyr/include/device.h"
	.loc 2 512 23 view .LVU6
	movs	r0, #0
	b	.L3
.L7:
	movs	r0, #0
.LVL3:
.L3:
	.loc 2 519 2 is_stmt 1 view .LVU7
	.loc 2 519 2 is_stmt 0 view .LVU8
.LBE16:
.LBE15:
	.loc 1 174 3 is_stmt 1 view .LVU9
	.loc 1 174 12 is_stmt 0 view .LVU10
	mov	r1, r7
	blx	r8
.LVL4:
	.loc 1 176 3 is_stmt 1 view .LVU11
	.loc 1 176 6 is_stmt 0 view .LVU12
	cmp	r0, #0
	.loc 1 176 6 view .LVU13
	blt	.L1
.LBE14:
	.loc 1 171 39 is_stmt 1 discriminator 2 view .LVU14
	adds	r5, r5, #1
.LVL5:
.L2:
	.loc 1 171 21 discriminator 1 view .LVU15
	.loc 1 171 2 is_stmt 0 discriminator 1 view .LVU16
	cmp	r5, r6
	bcs	.L9
.LBB19:
	.loc 1 172 3 is_stmt 1 view .LVU17
	.loc 1 172 19 is_stmt 0 view .LVU18
	ldrsh	r4, [r9, r5, lsl #1]
.LVL6:
	.loc 1 173 3 is_stmt 1 view .LVU19
.LBB18:
.LBI15:
	.loc 2 508 1 view .LVU20
.LBB17:
	.loc 2 510 2 view .LVU21
	.loc 2 511 2 view .LVU22
	.loc 2 512 2 view .LVU23
	.loc 2 513 2 view .LVU24
	.loc 2 513 31 is_stmt 0 view .LVU25
	ldr	r3, .L10
	ldr	r2, .L10+4
	subs	r3, r3, r2
	asrs	r3, r3, #3
	ldr	r2, .L10+8
	mul	r3, r2, r3
.LVL7:
	.loc 2 515 2 is_stmt 1 view .LVU26
	.loc 2 515 5 is_stmt 0 view .LVU27
	cmp	r4, #0
	ble	.L6
	.loc 2 515 23 view .LVU28
	cmp	r3, r4
	bcc	.L7
	.loc 2 516 3 is_stmt 1 view .LVU29
	.loc 2 516 36 is_stmt 0 view .LVU30
	subs	r4, r4, #1
.LVL8:
	.loc 2 516 7 view .LVU31
	add	r4, r4, r4, lsl #1
.LVL9:
	.loc 2 516 7 view .LVU32
	ldr	r0, .L10+4
	add	r0, r0, r4, lsl #3
.LVL10:
	.loc 2 516 7 view .LVU33
	b	.L3
.LVL11:
.L9:
	.loc 2 516 7 view .LVU34
.LBE17:
.LBE18:
.LBE19:
.LBE13:
	.loc 1 181 2 is_stmt 1 view .LVU35
	.loc 1 181 9 is_stmt 0 view .LVU36
	mov	r0, r6
.L1:
	.loc 1 182 1 view .LVU37
	pop	{r3, r4, r5, r6, r7, r8, r9, pc}
.LVL12:
.L11:
	.loc 1 182 1 view .LVU38
	.align	2
.L10:
	.word	__device_end
	.word	__device_start
	.word	-1431655765
	.cfi_endproc
.LFE522:
	.size	device_visitor, .-device_visitor
	.section	.text.z_device_state_init,"ax",%progbits
	.align	1
	.global	z_device_state_init
	.syntax unified
	.thumb
	.thumb_func
	.fpu fpv4-sp-d16
	.type	z_device_state_init, %function
z_device_state_init:
.LFB517:
	.loc 1 35 1 is_stmt 1 view -0
	.cfi_startproc
	@ args = 0, pretend = 0, frame = 0
	@ frame_needed = 0, uses_anonymous_args = 0
	@ link register save eliminated.
	.loc 1 36 2 view .LVU40
.LVL13:
	.loc 1 38 2 view .LVU41
	.loc 1 36 23 is_stmt 0 view .LVU42
	ldr	r3, .L16
.LVL14:
.L13:
	.loc 1 38 8 is_stmt 1 view .LVU43
	ldr	r2, .L16+4
	cmp	r3, r2
	bcs	.L15
	.loc 1 39 3 view .LVU44
.LVL15:
	.file 3 "/home/sebin/thesis/zephyrproject/zephyr/include/sys/kobject.h"
	.loc 3 202 2 view .LVU45
	.loc 1 40 3 view .LVU46
	adds	r3, r3, #24
.LVL16:
	.loc 1 40 3 is_stmt 0 view .LVU47
	b	.L13
.L15:
	.loc 1 42 1 view .LVU48
	bx	lr
.L17:
	.align	2
.L16:
	.word	__device_start
	.word	__device_end
	.cfi_endproc
.LFE517:
	.size	z_device_state_init, .-z_device_state_init
	.section	.text.z_sys_init_run_level,"ax",%progbits
	.align	1
	.global	z_sys_init_run_level
	.syntax unified
	.thumb
	.thumb_func
	.fpu fpv4-sp-d16
	.type	z_sys_init_run_level, %function
z_sys_init_run_level:
.LVL17:
.LFB518:
	.loc 1 56 1 is_stmt 1 view -0
	.cfi_startproc
	@ args = 0, pretend = 0, frame = 0
	@ frame_needed = 0, uses_anonymous_args = 0
	.loc 1 56 1 is_stmt 0 view .LVU50
	push	{r4, r5, r6, lr}
	.cfi_def_cfa_offset 16
	.cfi_offset 4, -16
	.cfi_offset 5, -12
	.cfi_offset 6, -8
	.cfi_offset 14, -4
	mov	r6, r0
	.loc 1 57 2 is_stmt 1 view .LVU51
	.loc 1 68 2 view .LVU52
	.loc 1 70 2 view .LVU53
	.loc 1 70 13 is_stmt 0 view .LVU54
	ldr	r3, .L29
	ldr	r4, [r3, r0, lsl #2]
.LVL18:
	.loc 1 70 2 view .LVU55
	b	.L19
.LVL19:
.L28:
.LBB20:
	.loc 1 80 6 is_stmt 1 view .LVU56
	.loc 1 80 9 is_stmt 0 view .LVU57
	rsbs	r0, r0, #0
.LVL20:
	.loc 1 80 9 view .LVU58
	b	.L22
.LVL21:
.L23:
	.loc 1 85 5 is_stmt 1 view .LVU59
	.loc 1 85 8 is_stmt 0 view .LVU60
	ldr	r3, [r5, #12]
	.loc 1 85 26 view .LVU61
	strb	r0, [r3]
.L21:
	.loc 1 87 4 is_stmt 1 view .LVU62
	.loc 1 87 7 is_stmt 0 view .LVU63
	ldr	r2, [r5, #12]
	.loc 1 87 28 view .LVU64
	ldrb	r3, [r2, #1]	@ zero_extendqisi2
	orr	r3, r3, #1
	strb	r3, [r2, #1]
.L20:
	.loc 1 87 28 view .LVU65
.LBE20:
	.loc 1 70 55 is_stmt 1 discriminator 2 view .LVU66
	.loc 1 70 60 is_stmt 0 discriminator 2 view .LVU67
	adds	r4, r4, #8
.LVL22:
.L19:
	.loc 1 70 30 is_stmt 1 discriminator 1 view .LVU68
	.loc 1 70 50 is_stmt 0 discriminator 1 view .LVU69
	adds	r3, r6, #1
	.loc 1 70 44 discriminator 1 view .LVU70
	ldr	r2, .L29
	ldr	r3, [r2, r3, lsl #2]
	.loc 1 70 2 discriminator 1 view .LVU71
	cmp	r3, r4
	bls	.L27
.LBB21:
	.loc 1 71 3 is_stmt 1 view .LVU72
	.loc 1 71 24 is_stmt 0 view .LVU73
	ldr	r5, [r4, #4]
.LVL23:
	.loc 1 72 3 is_stmt 1 view .LVU74
	.loc 1 72 17 is_stmt 0 view .LVU75
	ldr	r3, [r4]
	.loc 1 72 12 view .LVU76
	mov	r0, r5
	blx	r3
.LVL24:
	.loc 1 74 3 is_stmt 1 view .LVU77
	.loc 1 74 6 is_stmt 0 view .LVU78
	cmp	r5, #0
	beq	.L20
	.loc 1 78 4 is_stmt 1 view .LVU79
	.loc 1 78 7 is_stmt 0 view .LVU80
	cmp	r0, #0
	beq	.L21
	.loc 1 79 5 is_stmt 1 view .LVU81
	.loc 1 79 8 is_stmt 0 view .LVU82
	cmp	r0, #0
	blt	.L28
.L22:
	.loc 1 82 5 is_stmt 1 view .LVU83
	.loc 1 82 8 is_stmt 0 view .LVU84
	cmp	r0, #255
	ble	.L23
	.loc 1 83 9 view .LVU85
	movs	r0, #255
.LVL25:
	.loc 1 83 9 view .LVU86
	b	.L23
.LVL26:
.L27:
	.loc 1 83 9 view .LVU87
.LBE21:
	.loc 1 90 1 view .LVU88
	pop	{r4, r5, r6, pc}
.LVL27:
.L30:
	.loc 1 90 1 view .LVU89
	.align	2
.L29:
	.word	.LANCHOR0
	.cfi_endproc
.LFE518:
	.size	z_sys_init_run_level, .-z_sys_init_run_level
	.section	.text.z_device_get_all_static,"ax",%progbits
	.align	1
	.global	z_device_get_all_static
	.syntax unified
	.thumb
	.thumb_func
	.fpu fpv4-sp-d16
	.type	z_device_get_all_static, %function
z_device_get_all_static:
.LVL28:
.LFB520:
	.loc 1 147 1 is_stmt 1 view -0
	.cfi_startproc
	@ args = 0, pretend = 0, frame = 0
	@ frame_needed = 0, uses_anonymous_args = 0
	@ link register save eliminated.
	.loc 1 148 2 view .LVU91
	.loc 1 148 11 is_stmt 0 view .LVU92
	ldr	r2, .L32
	str	r2, [r0]
	.loc 1 149 2 is_stmt 1 view .LVU93
	.loc 1 149 22 is_stmt 0 view .LVU94
	ldr	r3, .L32+4
	subs	r3, r3, r2
	asrs	r3, r3, #3
	.loc 1 150 1 view .LVU95
	ldr	r0, .L32+8
.LVL29:
	.loc 1 150 1 view .LVU96
	mul	r0, r0, r3
	bx	lr
.L33:
	.align	2
.L32:
	.word	__device_start
	.word	__device_end
	.word	-1431655765
	.cfi_endproc
.LFE520:
	.size	z_device_get_all_static, .-z_device_get_all_static
	.section	.text.z_device_is_ready,"ax",%progbits
	.align	1
	.global	z_device_is_ready
	.syntax unified
	.thumb
	.thumb_func
	.fpu fpv4-sp-d16
	.type	z_device_is_ready, %function
z_device_is_ready:
.LVL30:
.LFB521:
	.loc 1 153 1 is_stmt 1 view -0
	.cfi_startproc
	@ args = 0, pretend = 0, frame = 0
	@ frame_needed = 0, uses_anonymous_args = 0
	@ link register save eliminated.
	.loc 1 158 2 view .LVU98
	.loc 1 158 5 is_stmt 0 view .LVU99
	cbz	r0, .L36
	.loc 1 162 2 is_stmt 1 view .LVU100
	.loc 1 162 12 is_stmt 0 view .LVU101
	ldr	r3, [r0, #12]
	.loc 1 162 33 view .LVU102
	ldrh	r0, [r3]
.LVL31:
	.loc 1 162 33 view .LVU103
	ubfx	r0, r0, #0, #9
	cmp	r0, #256
	ite	ne
	movne	r0, #0
	moveq	r0, #1
	bx	lr
.LVL32:
.L36:
	.loc 1 159 9 view .LVU104
	movs	r0, #0
.LVL33:
	.loc 1 163 1 view .LVU105
	bx	lr
	.cfi_endproc
.LFE521:
	.size	z_device_is_ready, .-z_device_is_ready
	.section	.text.z_impl_device_get_binding,"ax",%progbits
	.align	1
	.global	z_impl_device_get_binding
	.syntax unified
	.thumb
	.thumb_func
	.fpu fpv4-sp-d16
	.type	z_impl_device_get_binding, %function
z_impl_device_get_binding:
.LVL34:
.LFB519:
	.loc 1 93 1 is_stmt 1 view -0
	.cfi_startproc
	@ args = 0, pretend = 0, frame = 0
	@ frame_needed = 0, uses_anonymous_args = 0
	.loc 1 93 1 is_stmt 0 view .LVU107
	push	{r3, r4, r5, lr}
	.cfi_def_cfa_offset 16
	.cfi_offset 3, -16
	.cfi_offset 4, -12
	.cfi_offset 5, -8
	.cfi_offset 14, -4
	.loc 1 94 2 is_stmt 1 view .LVU108
	.loc 1 99 2 view .LVU109
	.loc 1 99 5 is_stmt 0 view .LVU110
	mov	r5, r0
	cbz	r0, .L45
	.loc 1 99 28 discriminator 1 view .LVU111
	ldrb	r3, [r0]	@ zero_extendqisi2
	.loc 1 99 20 discriminator 1 view .LVU112
	cbz	r3, .L46
	.loc 1 108 11 view .LVU113
	ldr	r4, .L50
	b	.L39
.LVL35:
.L40:
	.loc 1 108 50 is_stmt 1 discriminator 2 view .LVU114
	.loc 1 108 53 is_stmt 0 discriminator 2 view .LVU115
	adds	r4, r4, #24
.LVL36:
.L39:
	.loc 1 108 29 is_stmt 1 discriminator 1 view .LVU116
	.loc 1 108 2 is_stmt 0 discriminator 1 view .LVU117
	ldr	r3, .L50+4
	cmp	r4, r3
	beq	.L48
	.loc 1 109 3 is_stmt 1 view .LVU118
	.loc 1 109 7 is_stmt 0 view .LVU119
	mov	r0, r4
	bl	z_device_is_ready
.LVL37:
	.loc 1 109 6 view .LVU120
	cmp	r0, #0
	beq	.L40
	.loc 1 109 37 discriminator 1 view .LVU121
	ldr	r3, [r4]
	.loc 1 109 30 discriminator 1 view .LVU122
	cmp	r3, r5
	bne	.L40
	b	.L37
.L48:
	.loc 1 114 11 view .LVU123
	ldr	r4, .L50
.LVL38:
	.loc 1 114 11 view .LVU124
	b	.L42
.LVL39:
.L43:
	.loc 1 114 50 is_stmt 1 discriminator 2 view .LVU125
	.loc 1 114 53 is_stmt 0 discriminator 2 view .LVU126
	adds	r4, r4, #24
.LVL40:
.L42:
	.loc 1 114 29 is_stmt 1 discriminator 1 view .LVU127
	.loc 1 114 2 is_stmt 0 discriminator 1 view .LVU128
	ldr	r3, .L50+4
	cmp	r4, r3
	beq	.L49
	.loc 1 115 3 is_stmt 1 view .LVU129
	.loc 1 115 7 is_stmt 0 view .LVU130
	mov	r0, r4
	bl	z_device_is_ready
.LVL41:
	.loc 1 115 6 view .LVU131
	cmp	r0, #0
	beq	.L43
	.loc 1 115 34 discriminator 1 view .LVU132
	ldr	r1, [r4]
	mov	r0, r5
	bl	strcmp
.LVL42:
	.loc 1 115 30 discriminator 1 view .LVU133
	cmp	r0, #0
	bne	.L43
	b	.L37
.L49:
	.loc 1 120 8 view .LVU134
	movs	r4, #0
.LVL43:
.L37:
	.loc 1 121 1 view .LVU135
	mov	r0, r4
	pop	{r3, r4, r5, pc}
.LVL44:
.L45:
	.loc 1 100 9 view .LVU136
	mov	r4, r0
	b	.L37
.L46:
	.loc 1 100 9 view .LVU137
	movs	r4, #0
	b	.L37
.L51:
	.align	2
.L50:
	.word	__device_start
	.word	__device_end
	.cfi_endproc
.LFE519:
	.size	z_impl_device_get_binding, .-z_impl_device_get_binding
	.section	.text.device_required_foreach,"ax",%progbits
	.align	1
	.global	device_required_foreach
	.syntax unified
	.thumb
	.thumb_func
	.fpu fpv4-sp-d16
	.type	device_required_foreach, %function
device_required_foreach:
.LVL45:
.LFB523:
	.loc 1 187 1 is_stmt 1 view -0
	.cfi_startproc
	@ args = 0, pretend = 0, frame = 0
	@ frame_needed = 0, uses_anonymous_args = 0
	.loc 1 187 1 is_stmt 0 view .LVU139
	push	{r4, r5, r6, lr}
	.cfi_def_cfa_offset 16
	.cfi_offset 4, -16
	.cfi_offset 5, -12
	.cfi_offset 6, -8
	.cfi_offset 14, -4
	mov	r6, r1
	mov	r3, r2
	.loc 1 188 2 is_stmt 1 view .LVU140
.LVL46:
	.loc 1 189 2 view .LVU141
.LBB22:
.LBI22:
	.loc 2 564 1 view .LVU142
.LBB23:
	.loc 2 567 2 view .LVU143
	.loc 2 567 25 is_stmt 0 view .LVU144
	ldr	r0, [r0, #20]
.LVL47:
	.loc 2 569 2 is_stmt 1 view .LVU145
	.loc 2 569 5 is_stmt 0 view .LVU146
	cbz	r0, .L58
.LBB24:
	.loc 2 570 10 view .LVU147
	movs	r1, #0
.LVL48:
	.loc 2 570 10 view .LVU148
	b	.L53
.LVL49:
.L58:
	.loc 2 570 10 view .LVU149
.LBE24:
.LBE23:
.LBE22:
	.loc 1 188 9 view .LVU150
	movs	r1, #0
.LVL50:
	.loc 1 188 9 view .LVU151
	b	.L54
.LVL51:
.L55:
.LBB27:
.LBB26:
.LBB25:
	.loc 2 574 4 is_stmt 1 view .LVU152
	adds	r1, r1, #1
.LVL52:
.L53:
	.loc 2 572 9 view .LVU153
	.loc 2 572 13 is_stmt 0 view .LVU154
	ldrsh	r4, [r0, r1, lsl #1]
	.loc 2 573 10 view .LVU155
	add	r4, r4, #32640
	adds	r4, r4, #127
	uxth	r4, r4
	.loc 2 572 9 view .LVU156
	movw	r5, #65533
	cmp	r4, r5
	bls	.L55
.LVL53:
.L54:
	.loc 2 572 9 view .LVU157
.LBE25:
	.loc 2 579 2 is_stmt 1 view .LVU158
	.loc 2 579 2 is_stmt 0 view .LVU159
.LBE26:
.LBE27:
	.loc 1 191 2 is_stmt 1 view .LVU160
	.loc 1 191 9 is_stmt 0 view .LVU161
	mov	r2, r6
.LVL54:
	.loc 1 191 9 view .LVU162
	bl	device_visitor
.LVL55:
	.loc 1 192 1 view .LVU163
	pop	{r4, r5, r6, pc}
	.loc 1 192 1 view .LVU164
	.cfi_endproc
.LFE523:
	.size	device_required_foreach, .-device_required_foreach
	.section	.text.device_supported_foreach,"ax",%progbits
	.align	1
	.global	device_supported_foreach
	.syntax unified
	.thumb
	.thumb_func
	.fpu fpv4-sp-d16
	.type	device_supported_foreach, %function
device_supported_foreach:
.LVL56:
.LFB524:
	.loc 1 197 1 is_stmt 1 view -0
	.cfi_startproc
	@ args = 0, pretend = 0, frame = 0
	@ frame_needed = 0, uses_anonymous_args = 0
	.loc 1 197 1 is_stmt 0 view .LVU166
	push	{r4, r5, r6, lr}
	.cfi_def_cfa_offset 16
	.cfi_offset 4, -16
	.cfi_offset 5, -12
	.cfi_offset 6, -8
	.cfi_offset 14, -4
	mov	r6, r1
	mov	r3, r2
	.loc 1 198 2 is_stmt 1 view .LVU167
.LVL57:
	.loc 1 199 2 view .LVU168
.LBB28:
.LBI28:
	.loc 2 604 1 view .LVU169
.LBB29:
	.loc 2 607 2 view .LVU170
	.loc 2 607 25 is_stmt 0 view .LVU171
	ldr	r0, [r0, #20]
.LVL58:
	.loc 2 608 2 is_stmt 1 view .LVU172
	.loc 2 609 2 view .LVU173
	.loc 2 611 2 view .LVU174
	.loc 2 611 5 is_stmt 0 view .LVU175
	cbz	r0, .L68
	.loc 2 608 9 view .LVU176
	movs	r5, #0
	b	.L60
.L68:
.LBE29:
.LBE28:
	.loc 1 198 9 view .LVU177
	movs	r1, #0
.LVL59:
	.loc 1 198 9 view .LVU178
	b	.L61
.LVL60:
.L62:
.LBB31:
.LBB30:
	.loc 2 617 4 is_stmt 1 view .LVU179
	.loc 2 617 6 is_stmt 0 view .LVU180
	adds	r0, r0, #2
.LVL61:
.L60:
	.loc 2 613 9 is_stmt 1 view .LVU181
	cmp	r5, #2
	beq	.L69
	.loc 2 614 4 view .LVU182
	.loc 2 614 8 is_stmt 0 view .LVU183
	ldrsh	r4, [r0]
	.loc 2 614 7 view .LVU184
	cmn	r4, #32768
	bne	.L62
	.loc 2 615 5 is_stmt 1 view .LVU185
	.loc 2 615 11 is_stmt 0 view .LVU186
	adds	r5, r5, #1
.LVL62:
	.loc 2 615 11 view .LVU187
	b	.L62
.L69:
	.loc 2 609 9 view .LVU188
	movs	r1, #0
.LVL63:
	.loc 2 609 9 view .LVU189
	b	.L64
.LVL64:
.L65:
	.loc 2 621 4 is_stmt 1 view .LVU190
	adds	r1, r1, #1
.LVL65:
.L64:
	.loc 2 620 9 view .LVU191
	.loc 2 620 12 is_stmt 0 view .LVU192
	ldrsh	r5, [r0, r1, lsl #1]
	.loc 2 620 9 view .LVU193
	movw	r4, #32767
	cmp	r5, r4
	bne	.L65
.LVL66:
.L61:
	.loc 2 626 2 is_stmt 1 view .LVU194
	.loc 2 626 2 is_stmt 0 view .LVU195
.LBE30:
.LBE31:
	.loc 1 201 2 is_stmt 1 view .LVU196
	.loc 1 201 9 is_stmt 0 view .LVU197
	mov	r2, r6
.LVL67:
	.loc 1 201 9 view .LVU198
	bl	device_visitor
.LVL68:
	.loc 1 202 1 view .LVU199
	pop	{r4, r5, r6, pc}
	.loc 1 202 1 view .LVU200
	.cfi_endproc
.LFE524:
	.size	device_supported_foreach, .-device_supported_foreach
	.section	.rodata.levels.11088,"a"
	.align	2
	.set	.LANCHOR0,. + 0
	.type	levels.11088, %object
	.size	levels.11088, 20
levels.11088:
	.word	__init_PRE_KERNEL_1_start
	.word	__init_PRE_KERNEL_2_start
	.word	__init_POST_KERNEL_start
	.word	__init_APPLICATION_start
	.word	__init_end
	.text
.Letext0:
	.file 4 "/home/sebin/LIOT/gcc-arm-none-eabi-9-2019-q4-major/lib/gcc/arm-none-eabi/9.2.1/include/stddef.h"
	.file 5 "/home/sebin/LIOT/gcc-arm-none-eabi-9-2019-q4-major/arm-none-eabi/include/machine/_default_types.h"
	.file 6 "/home/sebin/LIOT/gcc-arm-none-eabi-9-2019-q4-major/arm-none-eabi/include/sys/lock.h"
	.file 7 "/home/sebin/LIOT/gcc-arm-none-eabi-9-2019-q4-major/arm-none-eabi/include/sys/_types.h"
	.file 8 "/home/sebin/LIOT/gcc-arm-none-eabi-9-2019-q4-major/arm-none-eabi/include/sys/reent.h"
	.file 9 "/home/sebin/LIOT/gcc-arm-none-eabi-9-2019-q4-major/arm-none-eabi/include/sys/_stdint.h"
	.file 10 "/home/sebin/thesis/zephyrproject/zephyr/include/sys/dlist.h"
	.file 11 "/home/sebin/thesis/zephyrproject/zephyr/include/sys/rb.h"
	.file 12 "/home/sebin/thesis/zephyrproject/zephyr/include/sys/slist.h"
	.file 13 "/home/sebin/thesis/zephyrproject/zephyr/include/sys/sys_heap.h"
	.file 14 "/home/sebin/thesis/zephyrproject/zephyr/include/kernel_structs.h"
	.file 15 "/home/sebin/thesis/zephyrproject/zephyr/include/kernel/thread.h"
	.file 16 "/home/sebin/thesis/zephyrproject/zephyr/include/kernel.h"
	.file 17 "/home/sebin/thesis/zephyrproject/zephyr/include/arch/arm/aarch32/thread.h"
	.file 18 "/home/sebin/thesis/zephyrproject/zephyr/include/arch/arm/aarch32/exc.h"
	.file 19 "/home/sebin/thesis/zephyrproject/zephyr/include/sw_isr_table.h"
	.file 20 "/home/sebin/thesis/zephyrproject/modules/hal/infineon/XMCLib/devices/XMC4500/Include/system_XMC4500.h"
	.file 21 "/home/sebin/thesis/zephyrproject/modules/hal/cmsis/CMSIS/Core/Include/core_cm4.h"
	.file 22 "/home/sebin/thesis/zephyrproject/zephyr/include/arch/arm/aarch32/mpu/arm_mpu_v7m.h"
	.file 23 "/home/sebin/thesis/zephyrproject/zephyr/include/arch/arm/aarch32/mpu/arm_mpu.h"
	.file 24 "/home/sebin/thesis/zephyrproject/zephyr/include/spinlock.h"
	.file 25 "/home/sebin/LIOT/gcc-arm-none-eabi-9-2019-q4-major/arm-none-eabi/include/sys/errno.h"
	.file 26 "/home/sebin/thesis/zephyrproject/zephyr/include/init.h"
	.file 27 "/home/sebin/thesis/dmz/zephyr_xmc_template/build/zephyr/include/generated/device_extern.h"
	.file 28 "/home/sebin/thesis/zephyrproject/zephyr/include/arch/structs.h"
	.file 29 "/home/sebin/LIOT/gcc-arm-none-eabi-9-2019-q4-major/arm-none-eabi/include/string.h"