	.cpu cortex-m4
	.eabi_attribute 27, 1
	.eabi_attribute 28, 1
	.eabi_attribute 20, 1
	.eabi_attribute 21, 1
	.eabi_attribute 23, 3
	.eabi_attribute 24, 1
	.eabi_attribute 25, 1
	.eabi_attribute 26, 1
	.eabi_attribute 30, 1
	.eabi_attribute 34, 1
	.eabi_attribute 38, 1
	.eabi_attribute 18, 4
	.file	"fatal.c"
	.text
.Ltext0:
	.cfi_sections	.debug_frame
	.section	.rodata.reason_to_str.str1.4,"aMS",%progbits,1
	.align	2
.LC0:
	.ascii	"Unknown error\000"
	.align	2
.LC1:
	.ascii	"Unhandled interrupt\000"
	.align	2
.LC2:
	.ascii	"Stack overflow\000"
	.align	2
.LC3:
	.ascii	"Kernel oops\000"
	.align	2
.LC4:
	.ascii	"Kernel panic\000"
	.align	2
.LC5:
	.ascii	"CPU exception\000"
	.section	.text.reason_to_str,"ax",%progbits
	.align	1
	.arch armv7e-m
	.syntax unified
	.thumb
	.thumb_func
	.fpu fpv4-sp-d16
	.type	reason_to_str, %function
reason_to_str:
.LVL0:
.LFB573:
	.file 1 "/home/sebin/thesis/zephyrproject/zephyr/kernel/fatal.c"
	.loc 1 61 1 view -0
	.cfi_startproc
	@ args = 0, pretend = 0, frame = 0
	@ frame_needed = 0, uses_anonymous_args = 0
	@ link register save eliminated.
	.loc 1 62 2 view .LVU1
	cmp	r0, #4
	bhi	.L2
	tbb	[pc, r0]
.L4:
	.byte	(.L8-.L4)/2
	.byte	(.L9-.L4)/2
	.byte	(.L6-.L4)/2
	.byte	(.L5-.L4)/2
	.byte	(.L3-.L4)/2
	.p2align 1
.L8:
	.loc 1 72 10 is_stmt 0 view .LVU2
	ldr	r0, .L10
.LVL1:
	.loc 1 72 10 view .LVU3
	bx	lr
.LVL2:
.L6:
	.loc 1 68 3 is_stmt 1 view .LVU4
	.loc 1 68 10 is_stmt 0 view .LVU5
	ldr	r0, .L10+4
.LVL3:
	.loc 1 68 10 view .LVU6
	bx	lr
.LVL4:
.L5:
	.loc 1 70 3 is_stmt 1 view .LVU7
	.loc 1 70 10 is_stmt 0 view .LVU8
	ldr	r0, .L10+8
.LVL5:
	.loc 1 70 10 view .LVU9
	bx	lr
.LVL6:
.L3:
	.loc 1 72 3 is_stmt 1 view .LVU10
	.loc 1 72 10 is_stmt 0 view .LVU11
	ldr	r0, .L10+12
.LVL7:
	.loc 1 72 10 view .LVU12
	bx	lr
.LVL8:
.L2:
	.loc 1 74 3 is_stmt 1 view .LVU13
	.loc 1 74 10 is_stmt 0 view .LVU14
	ldr	r0, .L10+16
.LVL9:
	.loc 1 74 10 view .LVU15
	bx	lr
.LVL10:
.L9:
	.loc 1 66 10 view .LVU16
	ldr	r0, .L10+20
.LVL11:
	.loc 1 76 1 view .LVU17
	bx	lr
.L11:
	.align	2
.L10:
	.word	.LC5
	.word	.LC2
	.word	.LC3
	.word	.LC4
	.word	.LC0
	.word	.LC1
	.cfi_endproc
.LFE573:
	.size	reason_to_str, .-reason_to_str
	.section	.text.z_log_msg2_runtime_create,"ax",%progbits
	.align	1
	.syntax unified
	.thumb
	.thumb_func
	.fpu fpv4-sp-d16
	.type	z_log_msg2_runtime_create, %function
z_log_msg2_runtime_create:
.LVL12:
.LFB514:
	.file 2 "/home/sebin/thesis/zephyrproject/zephyr/include/logging/log_msg2.h"
	.loc 2 490 1 is_stmt 1 view -0
	.cfi_startproc
	@ args = 8, pretend = 0, frame = 8
	@ frame_needed = 0, uses_anonymous_args = 1
	.loc 2 490 1 is_stmt 0 view .LVU19
	push	{r4, lr}
	.cfi_def_cfa_offset 8
	.cfi_offset 4, -8
	.cfi_offset 14, -4
	sub	sp, sp, #24
	.cfi_def_cfa_offset 32
	.loc 2 491 2 is_stmt 1 view .LVU20
	.loc 2 493 1 view .LVU21
	add	r4, sp, #40
	str	r4, [sp, #20]
	.loc 2 494 2 view .LVU22
.LVL13:
.LBB198:
.LBI198:
	.file 3 "/home/sebin/thesis/dmz/zephyr_xmc_template/build/zephyr/include/generated/syscalls/log_msg2.h"
	.loc 3 59 20 view .LVU23
.LBB199:
	.loc 3 72 2 view .LVU24
	.loc 3 72 7 view .LVU25
	.loc 3 72 55 view .LVU26
	.loc 3 73 2 view .LVU27
	str	r4, [sp, #8]
	ldr	r4, [sp, #36]
	str	r4, [sp, #4]
	ldr	r4, [sp, #32]
	str	r4, [sp]
	bl	z_impl_z_log_msg2_runtime_vcreate
.LVL14:
	.loc 3 73 2 is_stmt 0 view .LVU28
.LBE199:
.LBE198:
	.loc 2 496 1 is_stmt 1 view .LVU29
	.loc 2 497 1 is_stmt 0 view .LVU30
	add	sp, sp, #24
	.cfi_def_cfa_offset 8
	@ sp needed
	pop	{r4, pc}
	.loc 2 497 1 view .LVU31
	.cfi_endproc
.LFE514:
	.size	z_log_msg2_runtime_create, .-z_log_msg2_runtime_create
	.section	.rodata.thread_name_get.str1.4,"aMS",%progbits,1
	.align	2
.LC6:
	.ascii	"unknown\000"
	.section	.text.thread_name_get,"ax",%progbits
	.align	1
	.syntax unified
	.thumb
	.thumb_func
	.fpu fpv4-sp-d16
	.type	thread_name_get, %function
thread_name_get:
.LVL15:
.LFB572:
	.loc 1 50 1 is_stmt 1 view -0
	.cfi_startproc
	@ args = 0, pretend = 0, frame = 0
	@ frame_needed = 0, uses_anonymous_args = 0
	.loc 1 51 2 view .LVU33
	.loc 1 51 72 is_stmt 0 view .LVU34
	cbz	r0, .L16
	.loc 1 50 1 discriminator 1 view .LVU35
	push	{r3, lr}
	.cfi_def_cfa_offset 8
	.cfi_offset 3, -8
	.cfi_offset 14, -4
	.loc 1 51 46 discriminator 1 view .LVU36
	bl	k_thread_name_get
.LVL16:
	.loc 1 53 2 is_stmt 1 discriminator 1 view .LVU37
	.loc 1 53 5 is_stmt 0 discriminator 1 view .LVU38
	cbz	r0, .L17
	.loc 1 53 42 discriminator 1 view .LVU39
	ldrb	r3, [r0]	@ zero_extendqisi2
	.loc 1 53 27 discriminator 1 view .LVU40
	cbz	r3, .L18
.LVL17:
.L14:
	.loc 1 58 1 view .LVU41
	pop	{r3, pc}
.LVL18:
.L16:
	.cfi_def_cfa_offset 0
	.cfi_restore 3
	.cfi_restore 14
	.loc 1 54 15 view .LVU42
	ldr	r0, .L23
.LVL19:
	.loc 1 58 1 view .LVU43
	bx	lr
.LVL20:
.L17:
	.cfi_def_cfa_offset 8
	.cfi_offset 3, -8
	.cfi_offset 14, -4
	.loc 1 54 15 view .LVU44
	ldr	r0, .L23
.LVL21:
	.loc 1 54 15 view .LVU45
	b	.L14
.LVL22:
.L18:
	.loc 1 54 15 view .LVU46
	ldr	r0, .L23
.LVL23:
	.loc 1 57 2 is_stmt 1 view .LVU47
	.loc 1 57 9 is_stmt 0 view .LVU48
	b	.L14
.L24:
	.align	2
.L23:
	.word	.LC6
	.cfi_endproc
.LFE572:
	.size	thread_name_get, .-thread_name_get
	.section	.text.coredump,"ax",%progbits
	.align	1
	.global	coredump
	.syntax unified
	.thumb
	.thumb_func
	.fpu fpv4-sp-d16
	.type	coredump, %function
coredump:
.LVL24:
.LFB565:
	.file 4 "/home/sebin/thesis/zephyrproject/zephyr/include/debug/coredump.h"
	.loc 4 168 1 is_stmt 1 view -0
	.cfi_startproc
	@ args = 0, pretend = 0, frame = 0
	@ frame_needed = 0, uses_anonymous_args = 0
	@ link register save eliminated.
	.loc 4 169 1 view .LVU50
	bx	lr
	.cfi_endproc
.LFE565:
	.size	coredump, .-coredump
	.section	.text.coredump_memory_dump,"ax",%progbits
	.align	1
	.global	coredump_memory_dump
	.syntax unified
	.thumb
	.thumb_func
	.fpu fpv4-sp-d16
	.type	coredump_memory_dump, %function
coredump_memory_dump:
.LVL25:
.LFB566:
	.loc 4 172 1 view -0
	.cfi_startproc
	@ args = 0, pretend = 0, frame = 0
	@ frame_needed = 0, uses_anonymous_args = 0
	@ link register save eliminated.
	.loc 4 173 1 view .LVU52
	bx	lr
	.cfi_endproc
.LFE566:
	.size	coredump_memory_dump, .-coredump_memory_dump
	.section	.text.coredump_buffer_output,"ax",%progbits
	.align	1
	.global	coredump_buffer_output
	.syntax unified
	.thumb
	.thumb_func
	.fpu fpv4-sp-d16
	.type	coredump_buffer_output, %function
coredump_buffer_output:
.LVL26:
.LFB567:
	.loc 4 176 1 view -0
	.cfi_startproc
	@ args = 0, pretend = 0, frame = 0
	@ frame_needed = 0, uses_anonymous_args = 0
	@ link register save eliminated.
	.loc 4 177 1 view .LVU54
	bx	lr
	.cfi_endproc
.LFE567:
	.size	coredump_buffer_output, .-coredump_buffer_output
	.section	.text.coredump_query,"ax",%progbits
	.align	1
	.global	coredump_query
	.syntax unified
	.thumb
	.thumb_func
	.fpu fpv4-sp-d16
	.type	coredump_query, %function
coredump_query:
.LVL27:
.LFB568:
	.loc 4 180 1 view -0
	.cfi_startproc
	@ args = 0, pretend = 0, frame = 0
	@ frame_needed = 0, uses_anonymous_args = 0
	@ link register save eliminated.
	.loc 4 181 2 view .LVU56
	.loc 4 182 1 is_stmt 0 view .LVU57
	mvn	r0, #133
.LVL28:
	.loc 4 182 1 view .LVU58
	bx	lr
	.cfi_endproc
.LFE568:
	.size	coredump_query, .-coredump_query
	.section	.text.coredump_cmd,"ax",%progbits
	.align	1
	.global	coredump_cmd
	.syntax unified
	.thumb
	.thumb_func
	.fpu fpv4-sp-d16
	.type	coredump_cmd, %function
coredump_cmd:
.LVL29:
.LFB569:
	.loc 4 185 1 is_stmt 1 view -0
	.cfi_startproc
	@ args = 0, pretend = 0, frame = 0
	@ frame_needed = 0, uses_anonymous_args = 0
	@ link register save eliminated.
	.loc 4 186 2 view .LVU60
	.loc 4 187 1 is_stmt 0 view .LVU61
	mvn	r0, #133
.LVL30:
	.loc 4 187 1 view .LVU62
	bx	lr
	.cfi_endproc
.LFE569:
	.size	coredump_cmd, .-coredump_cmd
	.section	.text.arch_system_halt,"ax",%progbits
	.align	1
	.weak	arch_system_halt
	.syntax unified
	.thumb
	.thumb_func
	.fpu fpv4-sp-d16
	.type	arch_system_halt, %function
arch_system_halt:
.LVL31:
.LFB570:
	.loc 1 22 1 is_stmt 1 view -0
	.cfi_startproc
	@ Volatile: function does not return.
	@ args = 0, pretend = 0, frame = 0
	@ frame_needed = 0, uses_anonymous_args = 0
	@ link register save eliminated.
	.loc 1 23 2 view .LVU64
	.loc 1 29 2 view .LVU65
.LBB200:
.LBI200:
	.file 5 "/home/sebin/thesis/zephyrproject/zephyr/include/arch/arm/aarch32/asm_inline_gcc.h"
	.loc 5 43 59 view .LVU66
.LBB201:
	.loc 5 45 2 view .LVU67
	.loc 5 54 2 view .LVU68
	.loc 5 56 2 view .LVU69
	.syntax unified
@ 56 "/home/sebin/thesis/zephyrproject/zephyr/include/arch/arm/aarch32/asm_inline_gcc.h" 1
	mov r2, #4;mrs r3, BASEPRI;msr BASEPRI_MAX, r2;isb;
@ 0 "" 2
.LVL32:
	.loc 5 76 2 view .LVU70
	.thumb
	.syntax unified
.L31:
	.loc 5 76 2 is_stmt 0 view .LVU71
.LBE201:
.LBE200:
	.loc 1 30 2 is_stmt 1 discriminator 1 view .LVU72
	.loc 1 32 2 discriminator 1 view .LVU73
	.loc 1 30 8 discriminator 1 view .LVU74
	b	.L31
	.cfi_endproc
.LFE570:
	.size	arch_system_halt, .-arch_system_halt
	.section	.rodata.k_sys_fatal_error_handler.str1.4,"aMS",%progbits,1
	.align	2
.LC7:
	.ascii	"Halting system\000"
	.section	.text.k_sys_fatal_error_handler,"ax",%progbits
	.align	1
	.weak	k_sys_fatal_error_handler
	.syntax unified
	.thumb
	.thumb_func
	.fpu fpv4-sp-d16
	.type	k_sys_fatal_error_handler, %function
k_sys_fatal_error_handler:
.LVL33:
.LFB571:
	.loc 1 39 1 view -0
	.cfi_startproc
	@ args = 0, pretend = 0, frame = 32
	@ frame_needed = 0, uses_anonymous_args = 0
	.loc 1 39 1 is_stmt 0 view .LVU76
	push	{r4, lr}
	.cfi_def_cfa_offset 8
	.cfi_offset 4, -8
	.cfi_offset 14, -4
	sub	sp, sp, #32
	.cfi_def_cfa_offset 40
	mov	r4, r0
	.loc 1 40 2 is_stmt 1 view .LVU77
	.loc 1 42 2 view .LVU78
.LBB202:
.LBI202:
	.file 6 "/home/sebin/thesis/dmz/zephyr_xmc_template/build/zephyr/include/generated/syscalls/log_ctrl.h"
	.loc 6 35 20 view .LVU79
.LBB203:
	.loc 6 44 2 view .LVU80
	.loc 6 44 7 view .LVU81
	.loc 6 44 55 view .LVU82
	.loc 6 45 2 view .LVU83
	bl	z_impl_log_panic
.LVL34:
	.loc 6 45 2 is_stmt 0 view .LVU84
.LBE203:
.LBE202:
	.loc 1 43 2 is_stmt 1 view .LVU85
.LBB204:
	.loc 1 43 7 view .LVU86
	.loc 1 43 56 view .LVU87
	.loc 1 43 13 view .LVU88
	.loc 1 43 1 view .LVU89
.LBE204:
	.file 7 "/home/sebin/thesis/zephyrproject/zephyr/include/syscall.h"
	.loc 7 120 2 view .LVU90
.LBB217:
	.loc 1 43 40 view .LVU91
	.loc 1 43 106 view .LVU92
	.loc 1 43 205 view .LVU93
.LBB205:
	.loc 1 43 214 view .LVU94
	.loc 1 43 225 view .LVU95
	.loc 1 43 313 view .LVU96
	.loc 1 43 318 view .LVU97
	.loc 1 43 320 view .LVU98
.LBE205:
.LBE217:
	.loc 1 43 2 view .LVU99
	.loc 1 43 2 view .LVU100
.LBB218:
.LBB214:
	.loc 1 43 67 view .LVU101
.LBB206:
	.loc 1 43 72 view .LVU102
	.loc 1 43 83 view .LVU103
.LBE206:
.LBE214:
.LBE218:
	.loc 1 43 2 view .LVU104
	.loc 1 43 216 view .LVU105
	.loc 1 43 1 view .LVU106
	.loc 1 43 30 view .LVU107
	.loc 1 43 3 view .LVU108
	.loc 1 43 23 view .LVU109
	.loc 1 43 47 view .LVU110
	.loc 1 43 22 view .LVU111
	.loc 1 43 40 view .LVU112
	.loc 1 43 60 view .LVU113
	.loc 1 43 107 view .LVU114
	.loc 1 43 139 view .LVU115
	.loc 1 43 12 view .LVU116
	.loc 1 43 54 view .LVU117
	.loc 1 43 96 view .LVU118
	.loc 1 43 141 view .LVU119
	.loc 1 43 146 view .LVU120
	.loc 1 43 384 view .LVU121
	.loc 1 43 390 view .LVU122
	.loc 1 43 1447 view .LVU123
	.loc 1 43 1471 view .LVU124
	.loc 1 43 1512 view .LVU125
	.loc 1 43 1610 view .LVU126
	.loc 1 43 1625 view .LVU127
	.loc 1 43 1896 view .LVU128
	.loc 1 43 1944 view .LVU129
	.loc 1 43 3116 view .LVU130
	.loc 1 43 3123 view .LVU131
	.loc 1 43 3146 view .LVU132
	.loc 1 43 3180 view .LVU133
	.loc 1 43 3185 view .LVU134
	.loc 1 43 3208 view .LVU135
	.loc 1 43 3336 view .LVU136
	.loc 1 43 15 view .LVU137
.LBB219:
.LBB215:
.LBB212:
	.loc 1 43 10 view .LVU138
	.loc 1 43 15 view .LVU139
	.loc 1 43 38 view .LVU140
	.loc 1 43 158 view .LVU141
	.loc 1 43 284 view .LVU142
	.loc 1 43 487 view .LVU143
	.loc 1 43 4 view .LVU144
	.loc 1 43 6 view .LVU145
	.loc 1 43 19 view .LVU146
.LBB207:
	.loc 1 43 2 view .LVU147
	.loc 1 43 216 view .LVU148
	.loc 1 43 1 view .LVU149
	.loc 1 43 30 view .LVU150
	.loc 1 43 59 view .LVU151
	.loc 1 43 79 view .LVU152
	.loc 1 43 103 view .LVU153
	.loc 1 43 26 view .LVU154
	.loc 1 43 44 view .LVU155
	.loc 1 43 64 view .LVU156
	.loc 1 43 111 view .LVU157
	.loc 1 43 143 view .LVU158
	.loc 1 43 12 view .LVU159
	.loc 1 43 54 view .LVU160
	.loc 1 43 96 view .LVU161
	.loc 1 43 141 view .LVU162
.LBB208:
	.loc 1 43 146 view .LVU163
	.loc 1 43 384 view .LVU164
	.loc 1 43 390 view .LVU165
	.loc 1 43 1447 view .LVU166
.LBE208:
.LBE207:
.LBE212:
.LBE215:
.LBE219:
	.loc 1 43 1471 view .LVU167
	.loc 1 43 1512 view .LVU168
	.loc 1 43 1610 view .LVU169
.LBB220:
.LBB216:
.LBB213:
.LBB211:
.LBB209:
	.loc 1 43 1625 view .LVU170
	.loc 1 43 1896 view .LVU171
	.loc 1 43 1944 view .LVU172
	.loc 1 43 1982 view .LVU173
	.loc 1 43 1987 view .LVU174
	.loc 1 43 2474 view .LVU175
	.loc 1 43 3086 is_stmt 0 view .LVU176
	ldr	r3, .L34
	str	r3, [sp, #24]
	.loc 1 43 3116 is_stmt 1 view .LVU177
	.loc 1 43 3123 view .LVU178
.LVL35:
	.loc 1 43 3146 view .LVU179
	.loc 1 43 3146 is_stmt 0 view .LVU180
.LBE209:
	.loc 1 43 3180 is_stmt 1 view .LVU181
	.loc 1 43 3185 view .LVU182
	.loc 1 43 3208 view .LVU183
	.loc 1 43 3336 view .LVU184
	.loc 1 43 15 view .LVU185
.LBB210:
	.loc 1 43 28 view .LVU186
	.loc 1 43 49 is_stmt 0 view .LVU187
	movs	r3, #0
	strh	r3, [sp, #5]	@ unaligned
	strb	r3, [sp, #7]
	movs	r2, #2
	strb	r2, [sp, #4]
	strb	r3, [sp, #6]
	.loc 1 43 174 is_stmt 1 view .LVU188
	.loc 1 43 184 is_stmt 0 view .LVU189
	ldr	r2, [sp, #4]
	str	r2, [sp, #20]
	.loc 1 43 184 view .LVU190
.LBE210:
.LBE211:
	.loc 1 43 10 is_stmt 1 view .LVU191
	.loc 1 43 17 view .LVU192
	.loc 1 43 38 is_stmt 0 view .LVU193
	mov	r2, r3
.LVL36:
	.loc 1 43 38 view .LVU194
	bfi	r2, r3, #0, #1
.LVL37:
	.loc 1 43 38 view .LVU195
	bfi	r2, r3, #1, #1
	bfi	r2, r3, #2, #1
	bfi	r2, r3, #3, #3
	movs	r1, #1
	bfi	r2, r1, #6, #3
	movs	r1, #8
	bfi	r2, r1, #9, #10
	.loc 1 43 173 is_stmt 1 view .LVU196
	ubfx	r2, r2, #0, #19
.LVL38:
	.loc 1 43 173 is_stmt 0 view .LVU197
	ldr	r1, .L34+4
	add	r0, sp, #8
.LVL39:
	.loc 1 43 173 view .LVU198
	bl	z_log_msg2_finalize
.LVL40:
	.loc 1 43 173 view .LVU199
.LBE213:
	.loc 1 43 12 is_stmt 1 view .LVU200
	.loc 1 43 17 view .LVU201
.LVL41:
	.loc 1 43 57 view .LVU202
.LBE216:
	.loc 1 43 12 view .LVU203
	.loc 1 43 19 view .LVU204
	.loc 1 43 19 is_stmt 0 view .LVU205
.LBE220:
	.loc 1 43 59 is_stmt 1 view .LVU206
	.loc 1 44 2 view .LVU207
	mov	r0, r4
	bl	arch_system_halt
.LVL42:
.L35:
	.align	2
.L34:
	.word	.LC7
	.word	log_const_os
	.cfi_endproc
.LFE571:
	.size	k_sys_fatal_error_handler, .-k_sys_fatal_error_handler
	.section	.text.k_fatal_halt,"ax",%progbits
	.align	1
	.global	k_fatal_halt
	.syntax unified
	.thumb
	.thumb_func
	.fpu fpv4-sp-d16
	.type	k_fatal_halt, %function
k_fatal_halt:
.LVL43:
.LFB574:
	.loc 1 80 1 view -0
	.cfi_startproc
	@ Volatile: function does not return.
	@ args = 0, pretend = 0, frame = 0
	@ frame_needed = 0, uses_anonymous_args = 0
	.loc 1 80 1 is_stmt 0 view .LVU209
	push	{r3, lr}
	.cfi_def_cfa_offset 8
	.cfi_offset 3, -8
	.cfi_offset 14, -4
	.loc 1 81 2 is_stmt 1 view .LVU210
	bl	arch_system_halt
.LVL44:
	.loc 1 81 2 is_stmt 0 view .LVU211
	.cfi_endproc
.LFE574:
	.size	k_fatal_halt, .-k_fatal_halt
	.section	.rodata.z_fatal_error.str1.4,"aMS",%progbits,1
	.align	2
.LC8:
	.ascii	">>> ZEPHYR FATAL ERROR %d: %s on CPU %d\000"
	.align	2
.LC9:
	.ascii	"Fault during interrupt handling\012\000"
	.align	2
.LC10:
	.ascii	"Current thread: %p (%s)\000"
	.section	.text.z_fatal_error,"ax",%progbits
	.align	1
	.global	z_fatal_error
	.syntax unified
	.thumb
	.thumb_func
	.fpu fpv4-sp-d16
	.type	z_fatal_error, %function
z_fatal_error:
.LVL45:
.LFB576:
	.loc 1 95 1 is_stmt 1 view -0
	.cfi_startproc
	@ args = 0, pretend = 0, frame = 32
	@ frame_needed = 0, uses_anonymous_args = 0
	.loc 1 95 1 is_stmt 0 view .LVU213
	push	{r4, r5, r6, r7, lr}
	.cfi_def_cfa_offset 20
	.cfi_offset 4, -20
	.cfi_offset 5, -16
	.cfi_offset 6, -12
	.cfi_offset 7, -8
	.cfi_offset 14, -4
	sub	sp, sp, #60
	.cfi_def_cfa_offset 80
	mov	r5, r0
	mov	r6, r1
	.loc 1 100 2 is_stmt 1 view .LVU214
.LBB221:
.LBI221:
	.loc 5 43 59 view .LVU215
.LBB222:
	.loc 5 45 2 view .LVU216
	.loc 5 54 2 view .LVU217
	.loc 5 56 2 view .LVU218
	.syntax unified
@ 56 "/home/sebin/thesis/zephyrproject/zephyr/include/arch/arm/aarch32/asm_inline_gcc.h" 1
	mov r3, #4;mrs r7, BASEPRI;msr BASEPRI_MAX, r3;isb;
@ 0 "" 2
.LVL46:
	.loc 5 76 2 view .LVU219
	.loc 5 76 2 is_stmt 0 view .LVU220
	.thumb
	.syntax unified
.LBE222:
.LBE221:
	.loc 1 101 2 is_stmt 1 view .LVU221
.LBB223:
.LBI223:
	.file 8 "/home/sebin/thesis/zephyrproject/zephyr/include/kernel.h"
	.loc 8 509 23 view .LVU222
.LBE223:
	.loc 8 514 2 view .LVU223
.LBB226:
.LBB224:
.LBI224:
	.file 9 "/home/sebin/thesis/dmz/zephyr_xmc_template/build/zephyr/include/generated/syscalls/kernel.h"
	.loc 9 180 23 view .LVU224
.LBB225:
	.loc 9 188 2 view .LVU225
	.loc 9 188 7 view .LVU226
	.loc 9 188 55 view .LVU227
	.loc 9 189 2 view .LVU228
	.loc 9 189 9 is_stmt 0 view .LVU229
	bl	z_impl_z_current_get
.LVL47:
	.loc 9 189 9 view .LVU230
	mov	r4, r0
.LVL48:
	.loc 9 189 9 view .LVU231
.LBE225:
.LBE224:
.LBE226:
	.loc 1 107 2 is_stmt 1 view .LVU232
.LBB227:
	.loc 1 107 7 view .LVU233
	.loc 1 107 56 view .LVU234
	.loc 1 107 13 view .LVU235
	.loc 1 107 1 view .LVU236
.LBE227:
	.loc 7 120 2 view .LVU237
.LBB231:
	.loc 1 107 40 view .LVU238
	.loc 1 107 106 view .LVU239
	.loc 1 107 205 view .LVU240
.LBB228:
	.loc 1 107 214 view .LVU241
	.loc 1 107 225 view .LVU242
	.loc 1 107 313 view .LVU243
	.loc 1 107 318 view .LVU244
	.loc 1 107 320 view .LVU245
.LBE228:
.LBE231:
	.loc 1 107 2 view .LVU246
	.loc 1 107 2 view .LVU247
.LBB232:
.LBB229:
	.loc 1 107 13 view .LVU248
	.loc 1 107 15 view .LVU249
	mov	r0, r5
.LVL49:
	.loc 1 107 15 is_stmt 0 view .LVU250
	bl	reason_to_str
.LVL50:
.LBE229:
.LBE232:
	.loc 1 90 2 is_stmt 1 view .LVU251
.LBB233:
.LBB230:
	.loc 1 107 15 is_stmt 0 view .LVU252
	movs	r3, #0
	str	r3, [sp, #16]
	str	r0, [sp, #12]
	str	r5, [sp, #8]
	ldr	r2, .L42
	str	r2, [sp, #4]
	str	r3, [sp]
	movs	r2, #1
	ldr	r1, .L42+4
	mov	r0, r3
	bl	z_log_msg2_runtime_create
.LVL51:
	.loc 1 107 92 is_stmt 1 view .LVU253
	.loc 1 107 57 view .LVU254
.LBE230:
	.loc 1 107 12 view .LVU255
	.loc 1 107 19 view .LVU256
	.loc 1 107 19 is_stmt 0 view .LVU257
.LBE233:
	.loc 1 107 126 is_stmt 1 view .LVU258
	.loc 1 117 2 view .LVU259
	.loc 1 117 5 is_stmt 0 view .LVU260
	cbz	r6, .L39
.LVL52:
.LBB234:
.LBI234:
	.file 10 "/home/sebin/thesis/zephyrproject/zephyr/arch/arm/include/aarch32/cortex_m/exc.h"
	.loc 10 71 26 is_stmt 1 view .LVU261
.LBB235:
	.loc 10 73 2 view .LVU262
	.loc 10 73 20 is_stmt 0 view .LVU263
	ldr	r3, [r6, #28]
	.loc 10 73 26 view .LVU264
	ubfx	r3, r3, #0, #9
.LVL53:
	.loc 10 73 26 view .LVU265
.LBE235:
.LBE234:
	.loc 1 117 19 view .LVU266
	cbnz	r3, .L41
.L39:
	.loc 1 118 79 is_stmt 1 discriminator 6 view .LVU267
	.loc 1 122 2 discriminator 6 view .LVU268
.LBB236:
	.loc 1 122 7 discriminator 6 view .LVU269
	.loc 1 122 56 discriminator 6 view .LVU270
	.loc 1 122 13 discriminator 6 view .LVU271
	.loc 1 122 1 discriminator 6 view .LVU272
.LBE236:
	.loc 7 120 2 discriminator 6 view .LVU273
.LVL54:
.LBB240:
	.loc 1 122 40 discriminator 6 view .LVU274
	.loc 1 122 106 discriminator 6 view .LVU275
	.loc 1 122 205 discriminator 6 view .LVU276
.LBB237:
	.loc 1 122 214 discriminator 6 view .LVU277
	.loc 1 122 225 discriminator 6 view .LVU278
	.loc 1 122 313 discriminator 6 view .LVU279
	.loc 1 122 318 discriminator 6 view .LVU280
	.loc 1 122 320 discriminator 6 view .LVU281
.LBE237:
.LBE240:
	.loc 1 122 2 discriminator 6 view .LVU282
	.loc 1 122 2 discriminator 6 view .LVU283
.LBB241:
.LBB238:
	.loc 1 122 13 discriminator 6 view .LVU284
	.loc 1 122 15 discriminator 6 view .LVU285
	mov	r0, r4
	bl	thread_name_get
.LVL55:
	.loc 1 122 15 is_stmt 0 discriminator 6 view .LVU286
.LBE238:
.LBE241:
	.file 11 "/home/sebin/thesis/zephyrproject/zephyr/include/logging/log.h"
	.loc 11 290 2 is_stmt 1 discriminator 6 view .LVU287
	.loc 11 291 3 discriminator 6 view .LVU288
.LBB242:
.LBB239:
	.loc 1 122 15 is_stmt 0 discriminator 6 view .LVU289
	str	r0, [sp, #12]
	str	r4, [sp, #8]
	ldr	r3, .L42+8
	str	r3, [sp, #4]
	movs	r0, #0
	str	r0, [sp]
	mov	r3, r0
	movs	r2, #1
	ldr	r1, .L42+4
	bl	z_log_msg2_runtime_create
.LVL56:
	.loc 1 122 79 is_stmt 1 discriminator 6 view .LVU290
	.loc 1 122 57 discriminator 6 view .LVU291
.LBE239:
	.loc 1 122 12 discriminator 6 view .LVU292
	.loc 1 122 19 discriminator 6 view .LVU293
	.loc 1 122 19 is_stmt 0 discriminator 6 view .LVU294
.LBE242:
	.loc 1 122 113 is_stmt 1 discriminator 6 view .LVU295
	.loc 1 125 2 discriminator 6 view .LVU296
	.loc 1 127 2 discriminator 6 view .LVU297
	mov	r1, r6
	mov	r0, r5
	bl	k_sys_fatal_error_handler
.LVL57:
	.loc 1 142 2 discriminator 6 view .LVU298
	.loc 1 143 5 discriminator 6 view .LVU299
	.loc 1 144 58 discriminator 6 view .LVU300
	.loc 1 147 3 discriminator 6 view .LVU301
	.loc 1 154 3 discriminator 6 view .LVU302
	.loc 1 182 2 discriminator 6 view .LVU303
.LBB243:
.LBI243:
	.loc 5 84 51 discriminator 6 view .LVU304
.LBB244:
	.loc 5 95 2 discriminator 6 view .LVU305
	.syntax unified
@ 95 "/home/sebin/thesis/zephyrproject/zephyr/include/arch/arm/aarch32/asm_inline_gcc.h" 1
	msr BASEPRI, r7;isb;
@ 0 "" 2
.LVL58:
	.loc 5 95 2 is_stmt 0 discriminator 6 view .LVU306
	.thumb
	.syntax unified
.LBE244:
.LBE243:
	.loc 1 184 2 is_stmt 1 discriminator 6 view .LVU307
	.loc 1 185 3 discriminator 6 view .LVU308
.LBB245:
.LBI245:
	.loc 9 196 20 discriminator 6 view .LVU309
.LBB246:
	.loc 9 205 2 discriminator 6 view .LVU310
	.loc 9 205 7 discriminator 6 view .LVU311
	.loc 9 205 55 discriminator 6 view .LVU312
	.loc 9 206 2 discriminator 6 view .LVU313
	mov	r0, r4
	bl	z_impl_k_thread_abort
.LVL59:
	.loc 9 206 2 is_stmt 0 discriminator 6 view .LVU314
.LBE246:
.LBE245:
	.loc 1 187 1 discriminator 6 view .LVU315
	add	sp, sp, #60
	.cfi_remember_state
	.cfi_def_cfa_offset 20
	@ sp needed
	pop	{r4, r5, r6, r7, pc}
.LVL60:
.L41:
	.cfi_restore_state
	.loc 1 118 3 is_stmt 1 view .LVU316
.LBB247:
	.loc 1 118 8 view .LVU317
	.loc 1 118 57 view .LVU318
	.loc 1 118 14 view .LVU319
	.loc 1 118 2 view .LVU320
.LBE247:
	.loc 7 120 2 view .LVU321
.LBB260:
	.loc 1 118 41 view .LVU322
	.loc 1 118 107 view .LVU323
	.loc 1 118 206 view .LVU324
.LBB248:
	.loc 1 118 215 view .LVU325
	.loc 1 118 226 view .LVU326
	.loc 1 118 314 view .LVU327
	.loc 1 118 319 view .LVU328
	.loc 1 118 321 view .LVU329
.LBE248:
.LBE260:
	.loc 1 118 3 view .LVU330
	.loc 1 118 3 view .LVU331
.LBB261:
.LBB257:
	.loc 1 118 87 view .LVU332
.LBB249:
	.loc 1 118 92 view .LVU333
	.loc 1 118 103 view .LVU334
.LBE249:
.LBE257:
.LBE261:
	.loc 1 118 3 view .LVU335
	.loc 1 118 217 view .LVU336
	.loc 1 118 2 view .LVU337
	.loc 1 118 31 view .LVU338
	.loc 1 118 4 view .LVU339
	.loc 1 118 24 view .LVU340
	.loc 1 118 48 view .LVU341
	.loc 1 118 23 view .LVU342
	.loc 1 118 41 view .LVU343
	.loc 1 118 61 view .LVU344
	.loc 1 118 108 view .LVU345
	.loc 1 118 140 view .LVU346
	.loc 1 118 13 view .LVU347
	.loc 1 118 55 view .LVU348
	.loc 1 118 97 view .LVU349
	.loc 1 118 142 view .LVU350
	.loc 1 118 147 view .LVU351
	.loc 1 118 404 view .LVU352
	.loc 1 118 410 view .LVU353
	.loc 1 118 1543 view .LVU354
	.loc 1 118 1567 view .LVU355
	.loc 1 118 1627 view .LVU356
	.loc 1 118 1744 view .LVU357
	.loc 1 118 1759 view .LVU358
	.loc 1 118 2049 view .LVU359
	.loc 1 118 2097 view .LVU360
	.loc 1 118 3421 view .LVU361
	.loc 1 118 3428 view .LVU362
	.loc 1 118 3451 view .LVU363
	.loc 1 118 3485 view .LVU364
	.loc 1 118 3490 view .LVU365
	.loc 1 118 3513 view .LVU366
	.loc 1 118 3641 view .LVU367
	.loc 1 118 16 view .LVU368
.LBB262:
.LBB258:
.LBB255:
	.loc 1 118 11 view .LVU369
	.loc 1 118 16 view .LVU370
	.loc 1 118 39 view .LVU371
	.loc 1 118 159 view .LVU372
	.loc 1 118 285 view .LVU373
	.loc 1 118 488 view .LVU374
	.loc 1 118 5 view .LVU375
	.loc 1 118 7 view .LVU376
	.loc 1 118 20 view .LVU377
.LBB250:
	.loc 1 118 3 view .LVU378
	.loc 1 118 217 view .LVU379
	.loc 1 118 2 view .LVU380
	.loc 1 118 31 view .LVU381
	.loc 1 118 60 view .LVU382
	.loc 1 118 80 view .LVU383
	.loc 1 118 104 view .LVU384
	.loc 1 118 27 view .LVU385
	.loc 1 118 45 view .LVU386
	.loc 1 118 65 view .LVU387
	.loc 1 118 112 view .LVU388
	.loc 1 118 144 view .LVU389
	.loc 1 118 13 view .LVU390
	.loc 1 118 55 view .LVU391
	.loc 1 118 97 view .LVU392
	.loc 1 118 142 view .LVU393
.LBB251:
	.loc 1 118 147 view .LVU394
	.loc 1 118 404 view .LVU395
	.loc 1 118 410 view .LVU396
	.loc 1 118 1543 view .LVU397
.LBE251:
.LBE250:
.LBE255:
.LBE258:
.LBE262:
	.loc 1 118 1567 view .LVU398
	.loc 1 118 1627 view .LVU399
	.loc 1 118 1744 view .LVU400
.LBB263:
.LBB259:
.LBB256:
.LBB254:
.LBB252:
	.loc 1 118 1759 view .LVU401
	.loc 1 118 2049 view .LVU402
	.loc 1 118 2097 view .LVU403
	.loc 1 118 2135 view .LVU404
	.loc 1 118 2140 view .LVU405
	.loc 1 118 2741 view .LVU406
	.loc 1 118 3372 is_stmt 0 view .LVU407
	ldr	r3, .L42+12
	str	r3, [sp, #48]
	.loc 1 118 3421 is_stmt 1 view .LVU408
	.loc 1 118 3428 view .LVU409
.LVL61:
	.loc 1 118 3451 view .LVU410
	.loc 1 118 3451 is_stmt 0 view .LVU411
.LBE252:
	.loc 1 118 3485 is_stmt 1 view .LVU412
	.loc 1 118 3490 view .LVU413
	.loc 1 118 3513 view .LVU414
	.loc 1 118 3641 view .LVU415
	.loc 1 118 16 view .LVU416
.LBB253:
	.loc 1 118 29 view .LVU417
	.loc 1 118 50 is_stmt 0 view .LVU418
	movs	r3, #0
	strh	r3, [sp, #29]	@ unaligned
	strb	r3, [sp, #31]
	movs	r2, #2
	strb	r2, [sp, #28]
	strb	r3, [sp, #30]
	.loc 1 118 175 is_stmt 1 view .LVU419
	.loc 1 118 185 is_stmt 0 view .LVU420
	ldr	r2, [sp, #28]
	str	r2, [sp, #44]
	.loc 1 118 185 view .LVU421
.LBE253:
.LBE254:
	.loc 1 118 11 is_stmt 1 view .LVU422
	.loc 1 118 18 view .LVU423
	.loc 1 118 39 is_stmt 0 view .LVU424
	mov	r2, r3
.LVL62:
	.loc 1 118 39 view .LVU425
	bfi	r2, r3, #0, #1
.LVL63:
	.loc 1 118 39 view .LVU426
	bfi	r2, r3, #1, #1
	bfi	r2, r3, #2, #1
	bfi	r2, r3, #3, #3
	movs	r1, #1
	bfi	r2, r1, #6, #3
	movs	r1, #8
	bfi	r2, r1, #9, #10
	.loc 1 118 174 is_stmt 1 view .LVU427
	ubfx	r2, r2, #0, #19
.LVL64:
	.loc 1 118 174 is_stmt 0 view .LVU428
	ldr	r1, .L42+4
	add	r0, sp, #32
.LVL65:
	.loc 1 118 174 view .LVU429
	bl	z_log_msg2_finalize
.LVL66:
	.loc 1 118 174 view .LVU430
.LBE256:
	.loc 1 118 13 is_stmt 1 view .LVU431
	.loc 1 118 18 view .LVU432
.LVL67:
	.loc 1 118 58 view .LVU433
.LBE259:
	.loc 1 118 13 view .LVU434
	.loc 1 118 20 view .LVU435
	.loc 1 118 20 is_stmt 0 view .LVU436
	b	.L39
.L43:
	.align	2
.L42:
	.word	.LC8
	.word	log_const_os
	.word	.LC10
	.word	.LC9
.LBE263:
	.cfi_endproc
.LFE576:
	.size	z_fatal_error, .-z_fatal_error
	.text
.Letext0:
	.file 12 "/home/sebin/LIOT/gcc-arm-none-eabi-9-2019-q4-major/lib/gcc/arm-none-eabi/9.2.1/include/stddef.h"
	.file 13 "/home/sebin/LIOT/gcc-arm-none-eabi-9-2019-q4-major/arm-none-eabi/include/machine/_default_types.h"
	.file 14 "/home/sebin/LIOT/gcc-arm-none-eabi-9-2019-q4-major/arm-none-eabi/include/sys/_stdint.h"
	.file 15 "/home/sebin/thesis/zephyrproject/zephyr/include/sys/atomic.h"
	.file 16 "/home/sebin/LIOT/gcc-arm-none-eabi-9-2019-q4-major/lib/gcc/arm-none-eabi/9.2.1/include/stdarg.h"
	.file 17 "/home/sebin/thesis/zephyrproject/zephyr/include/sys/dlist.h"
	.file 18 "/home/sebin/thesis/zephyrproject/zephyr/include/sys/rb.h"
	.file 19 "/home/sebin/thesis/zephyrproject/zephyr/include/sys/slist.h"
	.file 20 "/home/sebin/thesis/zephyrproject/zephyr/include/sys/sys_heap.h"
	.file 21 "/home/sebin/thesis/zephyrproject/zephyr/include/kernel_structs.h"
	.file 22 "/home/sebin/thesis/zephyrproject/zephyr/include/kernel/thread.h"
	.file 23 "/home/sebin/thesis/zephyrproject/zephyr/include/kernel/thread_stack.h"
	.file 24 "/home/sebin/thesis/zephyrproject/zephyr/include/arch/arm/aarch32/thread.h"
	.file 25 "/home/sebin/thesis/zephyrproject/zephyr/include/arch/arm/aarch32/exc.h"
	.file 26 "/home/sebin/thesis/zephyrproject/zephyr/include/sw_isr_table.h"
	.file 27 "/home/sebin/thesis/zephyrproject/modules/hal/infineon/XMCLib/devices/XMC4500/Include/system_XMC4500.h"
	.file 28 "/home/sebin/thesis/zephyrproject/modules/hal/cmsis/CMSIS/Core/Include/core_cm4.h"
	.file 29 "/home/sebin/thesis/zephyrproject/zephyr/include/arch/arm/aarch32/mpu/arm_mpu_v7m.h"
	.file 30 "/home/sebin/thesis/zephyrproject/zephyr/include/arch/arm/aarch32/mpu/arm_mpu.h"
	.file 31 "/home/sebin/thesis/zephyrproject/zephyr/include/spinlock.h"
	.file 32 "/home/sebin/LIOT/gcc-arm-none-eabi-9-2019-q4-major/arm-none-eabi/include/sys/lock.h"
	.file 33 "/home/sebin/LIOT/gcc-arm-none-eabi-9-2019-q4-major/arm-none-eabi/include/sys/_types.h"
	.file 34 "/home/sebin/LIOT/gcc-arm-none-eabi-9-2019-q4-major/arm-none-eabi/include/sys/reent.h"
	.file 35 "/home/sebin/LIOT/gcc-arm-none-eabi-9-2019-q4-major/arm-none-eabi/include/sys/errno.h"
	.file 36 "/home/sebin/thesis/zephyrproject/zephyr/include/fatal.h"
	.file 37 "/home/sebin/thesis/zephyrproject/zephyr/arch/arm/include/aarch32/cortex_m/stack.h"
	.file 38 "/home/sebin/thesis/zephyrproject/zephyr/kernel/include/kernel_internal.h"
	.file 39 "/home/sebin/thesis/zephyrproject/zephyr/include/logging/log_instance.h"
	.file 40 "/home/sebin/thesis/zephyrproject/zephyr/include/sys/mpsc_packet.h"
	.file 41 "/home/sebin/thesis/zephyrproject/zephyr/include/sys/cbprintf_internal.h"
	.file 42 "/home/sebin/thesis/zephyrproject/zephyr/include/logging/log_msg.h"
	.file 43 "/home/sebin/thesis/zephyrproject/zephyr/include/logging/log_backend.h"
	.file 44 "/home/sebin/thesis/zephyrproject/zephyr/include/logging/log_core.h"
	.file 45 "<built-in>"
	.file 46 "/home/sebin/thesis/zephyrproject/zephyr/include/arch/structs.h"