	.cpu cortex-m4
	.eabi_attribute 27, 1
	.eabi_attribute 28, 1
	.eabi_attribute 20, 1
	.eabi_attribute 21, 1
	.eabi_attribute 23, 3
	.eabi_attribute 24, 1
	.eabi_attribute 25, 1
	.eabi_attribute 26, 1
	.eabi_attribute 30, 1
	.eabi_attribute 34, 1
	.eabi_attribute 38, 1
	.eabi_attribute 18, 4
	.file	"init.c"
	.text
.Ltext0:
	.cfi_sections	.debug_frame
	.section	.rodata.init_idle_thread.str1.4,"aMS",%progbits,1
	.align	2
.LC0:
	.ascii	"idle %02d\000"
	.section	.text.init_idle_thread,"ax",%progbits
	.align	1
	.arch armv7e-m
	.syntax unified
	.thumb
	.thumb_func
	.fpu fpv4-sp-d16
	.type	init_idle_thread, %function
init_idle_thread:
.LVL0:
.LFB635:
	.file 1 "/home/sebin/thesis/zephyrproject/zephyr/kernel/init.c"
	.loc 1 225 1 view -0
	.cfi_startproc
	@ args = 0, pretend = 0, frame = 8
	@ frame_needed = 0, uses_anonymous_args = 0
	.loc 1 225 1 is_stmt 0 view .LVU1
	push	{r4, r5, r6, r7, r8, lr}
	.cfi_def_cfa_offset 24
	.cfi_offset 4, -24
	.cfi_offset 5, -20
	.cfi_offset 6, -16
	.cfi_offset 7, -12
	.cfi_offset 8, -8
	.cfi_offset 14, -4
	sub	sp, sp, #32
	.cfi_def_cfa_offset 56
	mov	r4, r0
	.loc 1 226 2 is_stmt 1 view .LVU2
	.loc 1 226 19 is_stmt 0 view .LVU3
	ldr	r3, .L3
	movs	r5, #232
	mla	r5, r5, r0, r3
.LVL1:
	.loc 1 227 2 is_stmt 1 view .LVU4
	.loc 1 227 20 is_stmt 0 view .LVU5
	lsls	r7, r0, #1
	add	r3, r0, r0, lsl #1
	ldr	r6, .L3+4
	add	r6, r6, r3, lsl #7
.LVL2:
	.loc 1 230 2 is_stmt 1 view .LVU6
	.loc 1 232 2 view .LVU7
	add	r8, sp, #24
	mov	r3, r0
	ldr	r2, .L3+8
	movs	r1, #8
	mov	r0, r8
.LVL3:
	.loc 1 232 2 is_stmt 0 view .LVU8
	bl	snprintk
.LVL4:
	.loc 1 237 2 is_stmt 1 view .LVU9
	.loc 1 238 17 is_stmt 0 view .LVU10
	add	r7, r7, r4
	ldr	r4, .L3+12
.LVL5:
	.loc 1 238 17 view .LVU11
	add	r4, r4, r7, lsl #3
	.loc 1 237 2 view .LVU12
	str	r8, [sp, #20]
	movs	r3, #1
	str	r3, [sp, #16]
	movs	r3, #15
	str	r3, [sp, #12]
	movs	r3, #0
	str	r3, [sp, #8]
	str	r3, [sp, #4]
	str	r4, [sp]
	ldr	r3, .L3+16
	mov	r2, #320
	mov	r1, r6
	mov	r0, r5
	bl	z_setup_new_thread
.LVL6:
	.loc 1 241 2 is_stmt 1 view .LVU13
.LBB63:
.LBI63:
	.file 2 "/home/sebin/thesis/zephyrproject/zephyr/kernel/include/ksched.h"
	.loc 2 155 20 view .LVU14
.LBB64:
	.loc 2 157 2 view .LVU15
	.loc 2 157 28 is_stmt 0 view .LVU16
	ldrb	r3, [r5, #13]	@ zero_extendqisi2
	bic	r3, r3, #4
	strb	r3, [r5, #13]
.LVL7:
	.loc 2 157 28 view .LVU17
.LBE64:
.LBE63:
	.loc 1 246 1 view .LVU18
	add	sp, sp, #32
	.cfi_def_cfa_offset 24
	@ sp needed
	pop	{r4, r5, r6, r7, r8, pc}
.LVL8:
.L4:
	.loc 1 246 1 view .LVU19
	.align	2
.L3:
	.word	.LANCHOR0
	.word	.LANCHOR1
	.word	.LC0
	.word	.LANCHOR2
	.word	idle
	.cfi_endproc
.LFE635:
	.size	init_idle_thread, .-init_idle_thread
	.section	.rodata.prepare_multithreading.str1.4,"aMS",%progbits,1
	.align	2
.LC1:
	.ascii	"main\000"
	.section	.text.prepare_multithreading,"ax",%progbits
	.align	1
	.syntax unified
	.thumb
	.thumb_func
	.fpu fpv4-sp-d16
	.type	prepare_multithreading, %function
prepare_multithreading:
.LFB637:
	.loc 1 267 1 is_stmt 1 view -0
	.cfi_startproc
	@ args = 0, pretend = 0, frame = 0
	@ frame_needed = 0, uses_anonymous_args = 0
	push	{r4, r5, r6, lr}
	.cfi_def_cfa_offset 16
	.cfi_offset 4, -16
	.cfi_offset 5, -12
	.cfi_offset 6, -8
	.cfi_offset 14, -4
	sub	sp, sp, #24
	.cfi_def_cfa_offset 40
	.loc 1 268 2 view .LVU21
	.loc 1 271 2 view .LVU22
	bl	z_sched_init
.LVL9:
	.loc 1 283 2 view .LVU23
	.loc 1 283 24 is_stmt 0 view .LVU24
	ldr	r5, .L9
	ldr	r3, .L9+4
	str	r5, [r3, #24]
	.loc 1 285 2 is_stmt 1 view .LVU25
	.loc 1 285 14 is_stmt 0 view .LVU26
	ldr	r3, .L9+8
	str	r3, [sp, #20]
	movs	r3, #1
	str	r3, [sp, #16]
	movs	r4, #0
	str	r4, [sp, #12]
	str	r4, [sp, #8]
	str	r4, [sp, #4]
	str	r4, [sp]
	ldr	r3, .L9+12
	mov	r2, #4096
	ldr	r1, .L9+16
	mov	r0, r5
	bl	z_setup_new_thread
.LVL10:
	mov	r6, r0
.LVL11:
	.loc 1 290 2 is_stmt 1 view .LVU27
.LBB65:
.LBI65:
	.loc 2 155 20 view .LVU28
.LBB66:
	.loc 2 157 2 view .LVU29
	.loc 2 157 28 is_stmt 0 view .LVU30
	ldrb	r3, [r5, #13]	@ zero_extendqisi2
	bic	r3, r3, #4
	strb	r3, [r5, #13]
.LVL12:
	.loc 2 157 28 view .LVU31
.LBE66:
.LBE65:
	.loc 1 291 2 is_stmt 1 view .LVU32
	mov	r0, r5
.LVL13:
	.loc 1 291 2 is_stmt 0 view .LVU33
	bl	z_ready_thread
.LVL14:
	.loc 1 293 2 is_stmt 1 view .LVU34
.LBB67:
	.loc 1 293 7 view .LVU35
.L6:
	.loc 1 293 18 discriminator 1 view .LVU36
	.loc 1 293 2 is_stmt 0 discriminator 1 view .LVU37
	cmp	r4, #0
	ble	.L7
.LBE67:
	.loc 1 306 2 is_stmt 1 view .LVU38
	.loc 1 307 1 is_stmt 0 view .LVU39
	mov	r0, r6
	add	sp, sp, #24
	.cfi_remember_state
	.cfi_def_cfa_offset 16
	@ sp needed
	pop	{r4, r5, r6, pc}
.LVL15:
.L7:
	.cfi_restore_state
.LBB68:
	.loc 1 294 3 is_stmt 1 discriminator 3 view .LVU40
	mov	r0, r4
	bl	init_idle_thread
.LVL16:
	.loc 1 295 3 discriminator 3 view .LVU41
	.loc 1 295 33 is_stmt 0 discriminator 3 view .LVU42
	ldr	r3, .L9+20
	movs	r2, #232
	mla	r2, r2, r4, r3
	.loc 1 295 31 discriminator 3 view .LVU43
	add	r1, r4, r4, lsl #1
	ldr	r3, .L9+4
	add	r3, r3, r1, lsl #3
	str	r2, [r3, #12]
	.loc 1 296 3 is_stmt 1 discriminator 3 view .LVU44
	.loc 1 296 22 is_stmt 0 discriminator 3 view .LVU45
	strb	r4, [r3, #20]
	.loc 1 297 3 is_stmt 1 discriminator 3 view .LVU46
	.loc 1 298 45 is_stmt 0 discriminator 3 view .LVU47
	add	r1, r4, r4, lsl #4
	ldr	r2, .L9+24
	add	r2, r2, r1, lsl #7
.LVL17:
	.loc 1 298 45 discriminator 3 view .LVU48
.LBE68:
	.file 3 "/home/sebin/thesis/zephyrproject/zephyr/include/kernel/thread_stack.h"
	.loc 3 294 2 is_stmt 1 discriminator 3 view .LVU49
.LBB69:
	.loc 1 298 50 is_stmt 0 discriminator 3 view .LVU50
	add	r2, r2, #2176
	.loc 1 297 29 discriminator 3 view .LVU51
	str	r2, [r3, #4]
	.loc 1 293 25 is_stmt 1 discriminator 3 view .LVU52
	.loc 1 293 26 is_stmt 0 discriminator 3 view .LVU53
	adds	r4, r4, #1
.LVL18:
	.loc 1 293 26 discriminator 3 view .LVU54
	b	.L6
.L10:
	.align	2
.L9:
	.word	.LANCHOR3
	.word	.LANCHOR2
	.word	.LC1
	.word	bg_thread_main
	.word	z_main_stack
	.word	.LANCHOR0
	.word	.LANCHOR4
.LBE69:
	.cfi_endproc
.LFE637:
	.size	prepare_multithreading, .-prepare_multithreading
	.section	.text.bg_thread_main,"ax",%progbits
	.align	1
	.syntax unified
	.thumb
	.thumb_func
	.fpu fpv4-sp-d16
	.type	bg_thread_main, %function
bg_thread_main:
.LVL19:
.LFB634:
	.loc 1 165 1 is_stmt 1 view -0
	.cfi_startproc
	@ args = 0, pretend = 0, frame = 0
	@ frame_needed = 0, uses_anonymous_args = 0
	.loc 1 165 1 is_stmt 0 view .LVU56
	push	{r3, lr}
	.cfi_def_cfa_offset 8
	.cfi_offset 3, -8
	.cfi_offset 14, -4
	.loc 1 166 2 is_stmt 1 view .LVU57
	.loc 1 167 2 view .LVU58
	.loc 1 168 2 view .LVU59
	.loc 1 178 2 view .LVU60
	.loc 1 178 20 is_stmt 0 view .LVU61
	ldr	r3, .L13
	movs	r2, #1
.LVL20:
	.loc 1 178 20 view .LVU62
	strb	r2, [r3]
	.loc 1 180 2 is_stmt 1 view .LVU63
	movs	r0, #2
.LVL21:
	.loc 1 180 2 is_stmt 0 view .LVU64
	bl	z_sys_init_run_level
.LVL22:
	.loc 1 184 2 is_stmt 1 view .LVU65
	bl	boot_banner
.LVL23:
	.loc 1 187 2 view .LVU66
	.loc 1 188 2 view .LVU67
	bl	z_cpp_init_static
.LVL24:
	.loc 1 192 2 view .LVU68
	movs	r0, #3
	bl	z_sys_init_run_level
.LVL25:
	.loc 1 194 2 view .LVU69
	bl	z_init_static_threads
.LVL26:
	.loc 1 209 2 view .LVU70
	.loc 1 211 2 view .LVU71
	bl	main
.LVL27:
	.loc 1 214 2 view .LVU72
	.loc 1 214 34 is_stmt 0 view .LVU73
	ldr	r2, .L13+4
	ldrb	r3, [r2, #12]	@ zero_extendqisi2
	bic	r3, r3, #1
	strb	r3, [r2, #12]
	.loc 1 220 1 view .LVU74
	pop	{r3, pc}
.L14:
	.align	2
.L13:
	.word	.LANCHOR5
	.word	.LANCHOR3
	.cfi_endproc
.LFE634:
	.size	bg_thread_main, .-bg_thread_main
	.section	.text.switch_to_main_thread,"ax",%progbits
	.align	1
	.syntax unified
	.thumb
	.thumb_func
	.fpu fpv4-sp-d16
	.type	switch_to_main_thread, %function
switch_to_main_thread:
.LVL28:
.LFB638:
	.loc 1 311 1 is_stmt 1 view -0
	.cfi_startproc
	@ Volatile: function does not return.
	@ args = 0, pretend = 0, frame = 0
	@ frame_needed = 0, uses_anonymous_args = 0
	.loc 1 311 1 is_stmt 0 view .LVU76
	push	{r3, lr}
	.cfi_def_cfa_offset 8
	.cfi_offset 3, -8
	.cfi_offset 14, -4
	mov	r1, r0
	.loc 1 313 2 is_stmt 1 view .LVU77
	ldr	r2, .L17
	ldr	r0, .L17+4
.LVL29:
	.loc 1 313 2 is_stmt 0 view .LVU78
	bl	arch_switch_to_main_thread
.LVL30:
	.loc 1 323 2 is_stmt 1 view .LVU79
.L18:
	.align	2
.L17:
	.word	bg_thread_main
	.word	.LANCHOR3
	.cfi_endproc
.LFE638:
	.size	switch_to_main_thread, .-switch_to_main_thread
	.section	.text.z_bss_zero,"ax",%progbits
	.align	1
	.global	z_bss_zero
	.syntax unified
	.thumb
	.thumb_func
	.fpu fpv4-sp-d16
	.type	z_bss_zero, %function
z_bss_zero:
.LFB633:
	.loc 1 85 1 view -0
	.cfi_startproc
	@ args = 0, pretend = 0, frame = 0
	@ frame_needed = 0, uses_anonymous_args = 0
	push	{r3, lr}
	.cfi_def_cfa_offset 8
	.cfi_offset 3, -8
	.cfi_offset 14, -4
	.loc 1 86 2 view .LVU81
	.loc 1 86 17 is_stmt 0 view .LVU82
	ldr	r0, .L21
.LVL31:
.LBB70:
.LBI70:
	.file 4 "/home/sebin/LIOT/gcc-arm-none-eabi-9-2019-q4-major/arm-none-eabi/include/ssp/string.h"
	.loc 4 86 189 is_stmt 1 view .LVU83
.LBB71:
	.loc 4 86 238 view .LVU84
	.loc 4 86 245 is_stmt 0 view .LVU85
	ldr	r2, .L21+4
	subs	r2, r2, r0
.LVL32:
	.loc 4 86 245 view .LVU86
	movs	r1, #0
	bl	memset
.LVL33:
	.loc 4 86 245 view .LVU87
.LBE71:
.LBE70:
	.loc 1 104 1 view .LVU88
	pop	{r3, pc}
.L22:
	.align	2
.L21:
	.word	__bss_start
	.word	__bss_end
	.cfi_endproc
.LFE633:
	.size	z_bss_zero, .-z_bss_zero
	.section	.text.z_reinit_idle_thread,"ax",%progbits
	.align	1
	.global	z_reinit_idle_thread
	.syntax unified
	.thumb
	.thumb_func
	.fpu fpv4-sp-d16
	.type	z_reinit_idle_thread, %function
z_reinit_idle_thread:
.LVL34:
.LFB636:
	.loc 1 249 1 is_stmt 1 view -0
	.cfi_startproc
	@ args = 0, pretend = 0, frame = 0
	@ frame_needed = 0, uses_anonymous_args = 0
	.loc 1 249 1 is_stmt 0 view .LVU90
	push	{r3, lr}
	.cfi_def_cfa_offset 8
	.cfi_offset 3, -8
	.cfi_offset 14, -4
	.loc 1 250 2 is_stmt 1 view .LVU91
	bl	init_idle_thread
.LVL35:
	.loc 1 251 1 is_stmt 0 view .LVU92
	pop	{r3, pc}
	.cfi_endproc
.LFE636:
	.size	z_reinit_idle_thread, .-z_reinit_idle_thread
	.section	.text.z_early_boot_rand_get,"ax",%progbits
	.align	1
	.global	z_early_boot_rand_get
	.syntax unified
	.thumb
	.thumb_func
	.fpu fpv4-sp-d16
	.type	z_early_boot_rand_get, %function
z_early_boot_rand_get:
.LVL36:
.LFB639:
	.loc 1 330 1 is_stmt 1 view -0
	.cfi_startproc
	@ args = 0, pretend = 0, frame = 8
	@ frame_needed = 0, uses_anonymous_args = 0
	.loc 1 330 1 is_stmt 0 view .LVU94
	push	{r4, r5, r6, lr}
	.cfi_def_cfa_offset 16
	.cfi_offset 4, -16
	.cfi_offset 5, -12
	.cfi_offset 6, -8
	.cfi_offset 14, -4
	sub	sp, sp, #8
	.cfi_def_cfa_offset 24
	mov	r4, r0
	mov	r6, r1
	.loc 1 331 2 is_stmt 1 view .LVU95
.LVL37:
	.loc 1 365 2 view .LVU96
	.loc 1 331 6 is_stmt 0 view .LVU97
	movs	r5, #4
	.loc 1 365 8 view .LVU98
	b	.L26
.LVL38:
.L29:
.LBB72:
.LBB73:
	.loc 1 376 4 is_stmt 1 discriminator 3 view .LVU99
	.loc 1 376 11 is_stmt 0 discriminator 3 view .LVU100
	ldrb	r0, [r2], #1	@ zero_extendqisi2
.LVL39:
	.loc 1 376 9 discriminator 3 view .LVU101
	strb	r0, [r4], #1
.LVL40:
	.loc 1 377 4 is_stmt 1 discriminator 3 view .LVU102
	.loc 1 378 4 discriminator 3 view .LVU103
	.loc 1 375 26 discriminator 3 view .LVU104
	.loc 1 375 27 is_stmt 0 discriminator 3 view .LVU105
	adds	r3, r3, #1
.LVL41:
.L28:
	.loc 1 375 19 is_stmt 1 discriminator 1 view .LVU106
	.loc 1 375 3 is_stmt 0 discriminator 1 view .LVU107
	cmp	r5, r3
	bgt	.L29
	.loc 1 375 3 discriminator 1 view .LVU108
.LBE73:
	.loc 1 381 3 is_stmt 1 view .LVU109
	.loc 1 381 10 is_stmt 0 view .LVU110
	subs	r6, r6, r5
.LVL42:
.L26:
	.loc 1 381 10 view .LVU111
.LBE72:
	.loc 1 365 8 is_stmt 1 view .LVU112
	cbz	r6, .L32
.LBB78:
	.loc 1 366 3 view .LVU113
	.loc 1 367 3 view .LVU114
.LVL43:
	.loc 1 369 3 view .LVU115
.LBB74:
.LBI74:
	.file 5 "/home/sebin/thesis/dmz/zephyr_xmc_template/build/zephyr/include/generated/syscalls/rand32.h"
	.loc 5 35 24 view .LVU116
.LBB75:
	.loc 5 43 2 view .LVU117
	.loc 5 43 7 view .LVU118
	.loc 5 43 55 view .LVU119
	.loc 5 44 2 view .LVU120
	.loc 5 44 9 is_stmt 0 view .LVU121
	bl	z_impl_sys_rand32_get
.LVL44:
.LBE75:
.LBE74:
	.loc 1 369 11 view .LVU122
	str	r0, [sp, #4]
	.loc 1 371 3 is_stmt 1 view .LVU123
	.loc 1 371 6 is_stmt 0 view .LVU124
	cmp	r6, #3
	bhi	.L27
	.loc 1 372 4 is_stmt 1 view .LVU125
	.loc 1 372 6 is_stmt 0 view .LVU126
	mov	r5, r6
.LVL45:
.L27:
	.loc 1 375 3 is_stmt 1 view .LVU127
.LBB76:
	.loc 1 375 8 view .LVU128
	.loc 1 375 12 is_stmt 0 view .LVU129
	movs	r3, #0
.LBE76:
	.loc 1 367 12 view .LVU130
	add	r2, sp, #4
.LVL46:
.LBB77:
	.loc 1 375 3 view .LVU131
	b	.L28
.LVL47:
.L32:
	.loc 1 375 3 view .LVU132
.LBE77:
.LBE78:
	.loc 1 383 1 view .LVU133
	add	sp, sp, #8
	.cfi_def_cfa_offset 16
	@ sp needed
	pop	{r4, r5, r6, pc}
	.loc 1 383 1 view .LVU134
	.cfi_endproc
.LFE639:
	.size	z_early_boot_rand_get, .-z_early_boot_rand_get
	.section	.text.z_cstart,"ax",%progbits
	.align	1
	.global	z_cstart
	.syntax unified
	.thumb
	.thumb_func
	.fpu fpv4-sp-d16
	.type	z_cstart, %function
z_cstart:
.LFB640:
	.loc 1 399 1 is_stmt 1 view -0
	.cfi_startproc
	@ Volatile: function does not return.
	@ args = 0, pretend = 0, frame = 232
	@ frame_needed = 0, uses_anonymous_args = 0
	push	{lr}
	.cfi_def_cfa_offset 4
	.cfi_offset 14, -4
	sub	sp, sp, #236
	.cfi_def_cfa_offset 240
	.loc 1 401 2 view .LVU136
	.file 6 "/home/sebin/thesis/zephyrproject/zephyr/include/debug/gcov.h"
	.loc 6 15 45 view .LVU137
	.loc 1 404 2 view .LVU138
.LBB79:
.LBI79:
	.file 7 "/home/sebin/thesis/zephyrproject/zephyr/arch/arm/include/aarch32/kernel_arch_func.h"
	.loc 7 42 51 view .LVU139
.LBB80:
	.loc 7 44 2 view .LVU140
.LBB81:
.LBI81:
	.file 8 "/home/sebin/thesis/zephyrproject/zephyr/arch/arm/include/aarch32/cortex_m/stack.h"
	.loc 8 40 51 view .LVU141
.LBB82:
	.loc 8 42 2 view .LVU142
.LVL48:
.LBB83:
.LBI83:
	.loc 3 292 21 view .LVU143
.LBB84:
	.loc 3 294 2 view .LVU144
	.loc 3 294 2 is_stmt 0 view .LVU145
.LBE84:
.LBE83:
	.loc 8 42 11 view .LVU146
	ldr	r3, .L35
.LVL49:
	.loc 8 46 2 is_stmt 1 view .LVU147
.LBB85:
.LBI85:
	.file 9 "/home/sebin/thesis/zephyrproject/modules/hal/cmsis/CMSIS/Core/Include/cmsis_gcc.h"
	.loc 9 1153 51 view .LVU148
.LBB86:
	.loc 9 1155 3 view .LVU149
	.syntax unified
@ 1155 "/home/sebin/thesis/zephyrproject/modules/hal/cmsis/CMSIS/Core/Include/cmsis_gcc.h" 1
	MSR msp, r3
@ 0 "" 2
.LVL50:
	.loc 9 1155 3 is_stmt 0 view .LVU150
	.thumb
	.syntax unified
.LBE86:
.LBE85:
	.loc 8 62 2 is_stmt 1 view .LVU151
	.loc 8 62 51 is_stmt 0 view .LVU152
	ldr	r4, .L35+4
	ldr	r3, [r4, #20]
.LVL51:
	.loc 8 62 51 view .LVU153
	orr	r3, r3, #512
	str	r3, [r4, #20]
.LVL52:
	.loc 8 62 51 view .LVU154
.LBE82:
.LBE81:
	.loc 7 45 2 is_stmt 1 view .LVU155
.LBB87:
.LBI87:
	.file 10 "/home/sebin/thesis/zephyrproject/zephyr/arch/arm/include/aarch32/cortex_m/exc.h"
	.loc 10 97 51 view .LVU156
.LBB88:
	.loc 10 102 2 view .LVU157
.LBB89:
.LBI89:
	.file 11 "/home/sebin/thesis/zephyrproject/modules/hal/cmsis/CMSIS/Core/Include/core_cm4.h"
	.loc 11 1814 20 view .LVU158
.LBB90:
	.loc 11 1816 3 view .LVU159
	.loc 11 1822 5 view .LVU160
	.loc 11 1822 86 is_stmt 0 view .LVU161
	movs	r3, #252
	strb	r3, [r4, #34]
.LVL53:
	.loc 11 1822 86 view .LVU162
.LBE90:
.LBE89:
	.loc 10 108 2 is_stmt 1 view .LVU163
.LBB91:
.LBI91:
	.loc 11 1814 20 view .LVU164
.LBB92:
	.loc 11 1816 3 view .LVU165
	.loc 11 1822 5 view .LVU166
	.loc 11 1822 86 is_stmt 0 view .LVU167
	movs	r5, #0
	strb	r5, [r4, #31]
.LVL54:
	.loc 11 1822 86 view .LVU168
.LBE92:
.LBE91:
	.loc 10 112 2 is_stmt 1 view .LVU169
.LBB93:
.LBI93:
	.loc 11 1814 20 view .LVU170
.LBB94:
	.loc 11 1816 3 view .LVU171
	.loc 11 1822 5 view .LVU172
	.loc 11 1822 86 is_stmt 0 view .LVU173
	strb	r5, [r4, #24]
.LVL55:
	.loc 11 1822 86 view .LVU174
.LBE94:
.LBE93:
	.loc 10 113 2 is_stmt 1 view .LVU175
.LBB95:
.LBI95:
	.loc 11 1814 20 view .LVU176
.LBB96:
	.loc 11 1816 3 view .LVU177
	.loc 11 1822 5 view .LVU178
	.loc 11 1822 86 is_stmt 0 view .LVU179
	strb	r5, [r4, #25]
.LVL56:
	.loc 11 1822 86 view .LVU180
.LBE96:
.LBE95:
	.loc 10 114 2 is_stmt 1 view .LVU181
.LBB97:
.LBI97:
	.loc 11 1814 20 view .LVU182
.LBB98:
	.loc 11 1816 3 view .LVU183
	.loc 11 1822 5 view .LVU184
	.loc 11 1822 86 is_stmt 0 view .LVU185
	strb	r5, [r4, #26]
.LVL57:
	.loc 11 1822 86 view .LVU186
.LBE98:
.LBE97:
	.loc 10 116 2 is_stmt 1 view .LVU187
.LBB99:
.LBI99:
	.loc 11 1814 20 view .LVU188
.LBB100:
	.loc 11 1816 3 view .LVU189
	.loc 11 1822 5 view .LVU190
	.loc 11 1822 86 is_stmt 0 view .LVU191
	strb	r5, [r4, #32]
.LVL58:
	.loc 11 1822 86 view .LVU192
.LBE100:
.LBE99:
	.loc 10 123 2 is_stmt 1 view .LVU193
	.loc 10 123 53 is_stmt 0 view .LVU194
	ldr	r3, [r4, #36]
	orr	r3, r3, #458752
	str	r3, [r4, #36]
.LBE88:
.LBE87:
	.loc 7 46 2 is_stmt 1 view .LVU195
	bl	z_arm_fault_init
.LVL59:
	.loc 7 47 2 view .LVU196
	bl	z_arm_cpu_idle_init
.LVL60:
	.loc 7 48 2 view .LVU197
.LBB101:
.LBI101:
	.loc 10 169 51 view .LVU198
.LBB102:
	.loc 10 174 2 view .LVU199
	.loc 10 174 52 is_stmt 0 view .LVU200
	mov	r3, #-1
	str	r3, [r4, #40]
	.loc 10 179 2 is_stmt 1 view .LVU201
	.loc 10 179 52 is_stmt 0 view .LVU202
	str	r3, [r4, #44]
.LBE102:
.LBE101:
	.loc 7 50 2 is_stmt 1 view .LVU203
	bl	z_arm_mpu_init
.LVL61:
	.loc 7 57 2 view .LVU204
	bl	z_arm_configure_static_mpu_regions
.LVL62:
.LBE80:
.LBE79:
	.loc 1 406 2 view .LVU205
	bl	log_core_init
.LVL63:
	.loc 1 412 2 view .LVU206
	.loc 1 414 2 view .LVU207
.LBB103:
.LBI103:
	.file 12 "/home/sebin/thesis/zephyrproject/zephyr/kernel/include/kswap.h"
	.loc 12 214 20 view .LVU208
.LBB104:
	.loc 12 216 2 view .LVU209
	.loc 12 216 34 is_stmt 0 view .LVU210
	movs	r4, #1
	strb	r4, [sp, #13]
	.loc 12 220 2 is_stmt 1 view .LVU211
	.loc 12 220 34 is_stmt 0 view .LVU212
	strb	r4, [sp, #12]
	.loc 12 222 2 is_stmt 1 view .LVU213
	.loc 12 222 33 is_stmt 0 view .LVU214
	str	r5, [sp, #136]
	.loc 12 223 2 is_stmt 1 view .LVU215
	.loc 12 223 32 is_stmt 0 view .LVU216
	str	r5, [sp, #140]
	.loc 12 231 2 is_stmt 1 view .LVU217
	.loc 12 231 30 is_stmt 0 view .LVU218
	str	r5, [sp, #148]
	.loc 12 234 2 is_stmt 1 view .LVU219
	.loc 12 234 30 is_stmt 0 view .LVU220
	ldr	r3, .L35+8
	str	sp, [r3, #8]
.LVL64:
	.loc 12 234 30 view .LVU221
.LBE104:
.LBE103:
	.loc 1 417 2 is_stmt 1 view .LVU222
	bl	z_device_state_init
.LVL65:
	.loc 1 420 2 view .LVU223
	mov	r0, r5
	bl	z_sys_init_run_level
.LVL66:
	.loc 1 421 2 view .LVU224
	mov	r0, r4
	bl	z_sys_init_run_level
.LVL67:
	.loc 1 437 2 view .LVU225
	bl	prepare_multithreading
.LVL68:
	bl	switch_to_main_thread
.LVL69:
.L36:
	.align	2
.L35:
	.word	.LANCHOR4+2176
	.word	-536810240
	.word	.LANCHOR2
	.cfi_endproc
.LFE640:
	.size	z_cstart, .-z_cstart
	.global	z_sys_post_kernel
	.global	z_interrupt_stacks
	.global	z_idle_threads
	.global	z_main_thread
	.global	z_main_stack
	.global	_kernel
	.global	log_const_os
	.section	.rodata.str1.4,"aMS",%progbits,1
	.align	2
.LC2:
	.ascii	"os\000"
	.section	.bss._kernel,"aw",%nobits
	.align	2
	.set	.LANCHOR2,. + 0
	.type	_kernel, %object
	.size	_kernel, 40
_kernel:
	.space	40
	.section	.bss.z_idle_threads,"aw",%nobits
	.align	3
	.set	.LANCHOR0,. + 0
	.type	z_idle_threads, %object
	.size	z_idle_threads, 232
z_idle_threads:
	.space	232
	.section	.bss.z_main_thread,"aw",%nobits
	.align	3
	.set	.LANCHOR3,. + 0
	.type	z_main_thread, %object
	.size	z_main_thread, 232
z_main_thread:
	.space	232
	.section	.bss.z_sys_post_kernel,"aw",%nobits
	.set	.LANCHOR5,. + 0
	.type	z_sys_post_kernel, %object
	.size	z_sys_post_kernel, 1
z_sys_post_kernel:
	.space	1
	.section	.log_const_os,"a"
	.align	2
	.type	log_const_os, %object
	.size	log_const_os, 8
log_const_os:
	.word	.LC2
	.byte	3
	.space	3
	.section	.noinit."WEST_TOPDIR/zephyr/kernel/init.c".0,"aw"
	.align	7
	.type	z_main_stack, %object
	.size	z_main_stack, 4128
z_main_stack:
	.space	4128
	.section	.noinit."WEST_TOPDIR/zephyr/kernel/init.c".1,"aw"
	.align	7
	.set	.LANCHOR1,. + 0
	.type	z_idle_stacks, %object
	.size	z_idle_stacks, 384
z_idle_stacks:
	.space	384
	.section	.noinit."WEST_TOPDIR/zephyr/kernel/init.c".2,"aw"
	.align	7
	.set	.LANCHOR4,. + 0
	.type	z_interrupt_stacks, %object
	.size	z_interrupt_stacks, 2176
z_interrupt_stacks:
	.space	2176
	.text
.Letext0:
	.file 13 "/home/sebin/LIOT/gcc-arm-none-eabi-9-2019-q4-major/lib/gcc/arm-none-eabi/9.2.1/include/stddef.h"
	.file 14 "/home/sebin/LIOT/gcc-arm-none-eabi-9-2019-q4-major/arm-none-eabi/include/machine/_default_types.h"
	.file 15 "/home/sebin/LIOT/gcc-arm-none-eabi-9-2019-q4-major/arm-none-eabi/include/sys/_stdint.h"
	.file 16 "/home/sebin/thesis/zephyrproject/zephyr/include/sys/atomic.h"
	.file 17 "/home/sebin/LIOT/gcc-arm-none-eabi-9-2019-q4-major/lib/gcc/arm-none-eabi/9.2.1/include/stdarg.h"
	.file 18 "/home/sebin/thesis/zephyrproject/zephyr/include/sys/dlist.h"
	.file 19 "/home/sebin/thesis/zephyrproject/zephyr/include/sys/rb.h"
	.file 20 "/home/sebin/thesis/zephyrproject/zephyr/include/sys/slist.h"
	.file 21 "/home/sebin/thesis/zephyrproject/zephyr/include/sys/sys_heap.h"
	.file 22 "/home/sebin/thesis/zephyrproject/zephyr/include/kernel_structs.h"
	.file 23 "/home/sebin/thesis/zephyrproject/zephyr/include/kernel/thread.h"
	.file 24 "/home/sebin/thesis/zephyrproject/zephyr/include/kernel.h"
	.file 25 "/home/sebin/thesis/zephyrproject/zephyr/include/sys/arch_interface.h"
	.file 26 "/home/sebin/thesis/zephyrproject/zephyr/include/arch/arm/aarch32/thread.h"
	.file 27 "/home/sebin/thesis/zephyrproject/zephyr/include/arch/arm/aarch32/exc.h"
	.file 28 "/home/sebin/thesis/zephyrproject/zephyr/include/sw_isr_table.h"
	.file 29 "/home/sebin/thesis/zephyrproject/modules/hal/infineon/XMCLib/devices/XMC4500/Include/system_XMC4500.h"
	.file 30 "/home/sebin/thesis/zephyrproject/modules/hal/infineon/XMCLib/devices/XMC4500/Include/XMC4500.h"
	.file 31 "/home/sebin/thesis/zephyrproject/zephyr/include/arch/arm/aarch32/mpu/arm_mpu_v7m.h"
	.file 32 "/home/sebin/thesis/zephyrproject/zephyr/include/arch/arm/aarch32/mpu/arm_mpu.h"
	.file 33 "/home/sebin/thesis/zephyrproject/zephyr/include/spinlock.h"
	.file 34 "/home/sebin/LIOT/gcc-arm-none-eabi-9-2019-q4-major/arm-none-eabi/include/sys/lock.h"
	.file 35 "/home/sebin/LIOT/gcc-arm-none-eabi-9-2019-q4-major/arm-none-eabi/include/sys/_types.h"
	.file 36 "/home/sebin/LIOT/gcc-arm-none-eabi-9-2019-q4-major/arm-none-eabi/include/sys/reent.h"
	.file 37 "/home/sebin/LIOT/gcc-arm-none-eabi-9-2019-q4-major/arm-none-eabi/include/sys/errno.h"
	.file 38 "/home/sebin/thesis/zephyrproject/zephyr/include/logging/log_instance.h"
	.file 39 "/home/sebin/thesis/zephyrproject/zephyr/include/sys/mpsc_packet.h"
	.file 40 "/home/sebin/thesis/zephyrproject/zephyr/include/logging/log_msg2.h"
	.file 41 "/home/sebin/thesis/zephyrproject/zephyr/include/logging/log_msg.h"
	.file 42 "/home/sebin/thesis/zephyrproject/zephyr/include/logging/log_core.h"
	.file 43 "/home/sebin/thesis/zephyrproject/zephyr/include/device.h"
	.file 44 "/home/sebin/thesis/dmz/zephyr_xmc_template/build/zephyr/include/generated/device_extern.h"
	.file 45 "/home/sebin/thesis/zephyrproject/zephyr/include/linker/linker-defs.h"
	.file 46 "/home/sebin/thesis/zephyrproject/zephyr/kernel/include/kernel_internal.h"
	.file 47 "/home/sebin/thesis/zephyrproject/zephyr/include/logging/log_backend.h"
	.file 48 "/home/sebin/thesis/zephyrproject/zephyr/include/logging/log_ctrl.h"
	.file 49 "/home/sebin/thesis/zephyrproject/zephyr/include/init.h"
	.file 50 "/home/sebin/thesis/zephyrproject/zephyr/kernel/include/kernel_arch_interface.h"
	.file 51 "/home/sebin/thesis/zephyrproject/zephyr/include/sys/printk.h"
	.file 52 "<built-in>"
	.file 53 "/home/sebin/thesis/zephyrproject/zephyr/include/arch/structs.h"