	.cpu cortex-m4
	.eabi_attribute 27, 1
	.eabi_attribute 28, 1
	.eabi_attribute 20, 1
	.eabi_attribute 21, 1
	.eabi_attribute 23, 3
	.eabi_attribute 24, 1
	.eabi_attribute 25, 1
	.eabi_attribute 26, 1
	.eabi_attribute 30, 1
	.eabi_attribute 34, 1
	.eabi_attribute 38, 1
	.eabi_attribute 18, 4
	.file	"mutex.c"
	.text
.Ltext0:
	.cfi_sections	.debug_frame
	.section	.text.new_prio_for_inheritance,"ax",%progbits
	.align	1
	.arch armv7e-m
	.syntax unified
	.thumb
	.thumb_func
	.fpu fpv4-sp-d16
	.type	new_prio_for_inheritance, %function
new_prio_for_inheritance:
.LVL0:
.LFB587:
	.file 1 "/home/sebin/thesis/zephyrproject/zephyr/kernel/mutex.c"
	.loc 1 73 1 view -0
	.cfi_startproc
	@ args = 0, pretend = 0, frame = 0
	@ frame_needed = 0, uses_anonymous_args = 0
	@ link register save eliminated.
	.loc 1 74 2 view .LVU1
	.file 2 "/home/sebin/thesis/zephyrproject/zephyr/kernel/include/ksched.h"
	.loc 2 213 2 view .LVU2
	.loc 2 208 2 view .LVU3
	.loc 1 74 58 is_stmt 0 view .LVU4
	cmp	r0, r1
	bge	.L2
	mov	r1, r0
.LVL1:
.L2:
	.loc 1 76 2 is_stmt 1 discriminator 4 view .LVU5
.LBB152:
.LBI152:
	.loc 2 186 19 discriminator 4 view .LVU6
.LBB153:
	.loc 2 188 2 discriminator 4 view .LVU7
	.loc 2 188 2 is_stmt 0 discriminator 4 view .LVU8
.LBE153:
.LBE152:
	.loc 2 183 2 is_stmt 1 discriminator 4 view .LVU9
.LBB155:
.LBB154:
	.loc 2 188 46 is_stmt 0 discriminator 4 view .LVU10
	cmn	r1, #127
	blt	.L4
	.loc 2 188 46 view .LVU11
	mov	r0, r1
.LVL2:
	.loc 2 188 46 view .LVU12
	bx	lr
.LVL3:
.L4:
	.loc 2 188 46 view .LVU13
	mvn	r0, #126
.LVL4:
	.loc 2 188 46 view .LVU14
.LBE154:
.LBE155:
	.loc 1 78 2 is_stmt 1 view .LVU15
	.loc 1 79 1 is_stmt 0 view .LVU16
	bx	lr
	.cfi_endproc
.LFE587:
	.size	new_prio_for_inheritance, .-new_prio_for_inheritance
	.section	.text.adjust_owner_prio,"ax",%progbits
	.align	1
	.syntax unified
	.thumb
	.thumb_func
	.fpu fpv4-sp-d16
	.type	adjust_owner_prio, %function
adjust_owner_prio:
.LVL5:
.LFB588:
	.loc 1 82 1 is_stmt 1 view -0
	.cfi_startproc
	@ args = 0, pretend = 0, frame = 0
	@ frame_needed = 0, uses_anonymous_args = 0
	.loc 1 82 1 is_stmt 0 view .LVU18
	push	{r3, lr}
	.cfi_def_cfa_offset 8
	.cfi_offset 3, -8
	.cfi_offset 14, -4
	.loc 1 83 2 is_stmt 1 view .LVU19
	.loc 1 83 11 is_stmt 0 view .LVU20
	ldr	r0, [r0, #8]
.LVL6:
	.loc 1 83 24 view .LVU21
	ldrsb	r3, [r0, #14]
	.loc 1 83 5 view .LVU22
	cmp	r3, r1
	bne	.L9
	.loc 1 92 8 view .LVU23
	movs	r0, #0
.LVL7:
.L6:
	.loc 1 93 1 view .LVU24
	pop	{r3, pc}
.LVL8:
.L9:
	.loc 1 85 3 is_stmt 1 view .LVU25
.LBB156:
	.loc 1 85 8 view .LVU26
.LBE156:
	.loc 1 85 188 view .LVU27
	.loc 1 90 3 view .LVU28
	.loc 1 90 10 is_stmt 0 view .LVU29
	bl	z_set_prio
.LVL9:
	.loc 1 90 10 view .LVU30
	b	.L6
	.cfi_endproc
.LFE588:
	.size	adjust_owner_prio, .-adjust_owner_prio
	.section	.text.z_impl_k_mutex_init,"ax",%progbits
	.align	1
	.global	z_impl_k_mutex_init
	.syntax unified
	.thumb
	.thumb_func
	.fpu fpv4-sp-d16
	.type	z_impl_k_mutex_init, %function
z_impl_k_mutex_init:
.LVL10:
.LFB586:
	.loc 1 50 1 is_stmt 1 view -0
	.cfi_startproc
	@ args = 0, pretend = 0, frame = 0
	@ frame_needed = 0, uses_anonymous_args = 0
	@ link register save eliminated.
	.loc 1 50 1 is_stmt 0 view .LVU32
	mov	r3, r0
	.loc 1 51 2 is_stmt 1 view .LVU33
	.loc 1 51 15 is_stmt 0 view .LVU34
	movs	r0, #0
.LVL11:
	.loc 1 51 15 view .LVU35
	str	r0, [r3, #8]
	.loc 1 52 2 is_stmt 1 view .LVU36
	.loc 1 52 20 is_stmt 0 view .LVU37
	str	r0, [r3, #12]
	.loc 1 54 2 is_stmt 1 view .LVU38
.LVL12:
.LBB157:
.LBI157:
	.file 3 "/home/sebin/thesis/zephyrproject/zephyr/include/wait_q.h"
	.loc 3 47 20 view .LVU39
.LBB158:
	.loc 3 49 2 view .LVU40
.LBB159:
.LBI159:
	.file 4 "/home/sebin/thesis/zephyrproject/zephyr/include/sys/dlist.h"
	.loc 4 197 20 view .LVU41
.LBB160:
	.loc 4 199 2 view .LVU42
	.loc 4 199 13 is_stmt 0 view .LVU43
	str	r3, [r3]
	.loc 4 200 2 is_stmt 1 view .LVU44
	.loc 4 200 13 is_stmt 0 view .LVU45
	str	r3, [r3, #4]
.LVL13:
	.loc 4 200 13 view .LVU46
.LBE160:
.LBE159:
.LBE158:
.LBE157:
	.loc 1 56 2 is_stmt 1 view .LVU47
	.file 5 "/home/sebin/thesis/zephyrproject/zephyr/include/sys/kobject.h"
	.loc 5 202 2 view .LVU48
	.loc 1 58 2 view .LVU49
	.loc 1 58 7 view .LVU50
	.loc 1 58 15 view .LVU51
	.loc 1 60 2 view .LVU52
	.loc 1 61 1 is_stmt 0 view .LVU53
	bx	lr
	.cfi_endproc
.LFE586:
	.size	z_impl_k_mutex_init, .-z_impl_k_mutex_init
	.section	.text.z_impl_k_mutex_lock,"ax",%progbits
	.align	1
	.global	z_impl_k_mutex_lock
	.syntax unified
	.thumb
	.thumb_func
	.fpu fpv4-sp-d16
	.type	z_impl_k_mutex_lock, %function
z_impl_k_mutex_lock:
.LVL14:
.LFB589:
	.loc 1 96 1 is_stmt 1 view -0
	.cfi_startproc
	@ args = 0, pretend = 0, frame = 0
	@ frame_needed = 0, uses_anonymous_args = 0
	.loc 1 96 1 is_stmt 0 view .LVU55
	push	{r4, r5, r6, r7, r8, r9, lr}
	.cfi_def_cfa_offset 28
	.cfi_offset 4, -28
	.cfi_offset 5, -24
	.cfi_offset 6, -20
	.cfi_offset 7, -16
	.cfi_offset 8, -12
	.cfi_offset 9, -8
	.cfi_offset 14, -4
	sub	sp, sp, #12
	.cfi_def_cfa_offset 40
	mov	r4, r0
	mov	r5, r3
	.loc 1 97 2 is_stmt 1 view .LVU56
	.loc 1 98 2 view .LVU57
	.loc 1 99 1 view .LVU58
.LVL15:
	.loc 1 101 4 view .LVU59
	.loc 1 101 5 view .LVU60
	.loc 1 103 2 view .LVU61
	.loc 1 103 7 view .LVU62
	.loc 1 103 15 view .LVU63
	.loc 1 105 2 view .LVU64
.LBB161:
.LBI161:
	.file 6 "/home/sebin/thesis/zephyrproject/zephyr/include/spinlock.h"
	.loc 6 130 63 view .LVU65
.LBB162:
	.loc 6 132 2 view .LVU66
	.loc 6 133 2 view .LVU67
	.loc 6 139 2 view .LVU68
.LBB163:
.LBI163:
	.file 7 "/home/sebin/thesis/zephyrproject/zephyr/include/arch/arm/aarch32/asm_inline_gcc.h"
	.loc 7 43 59 view .LVU69
.LBB164:
	.loc 7 45 2 view .LVU70
	.loc 7 54 2 view .LVU71
	.loc 7 56 2 view .LVU72
	.syntax unified
@ 56 "/home/sebin/thesis/zephyrproject/zephyr/include/arch/arm/aarch32/asm_inline_gcc.h" 1
	mov r3, #4;mrs r7, BASEPRI;msr BASEPRI_MAX, r3;isb;
@ 0 "" 2
.LVL16:
	.loc 7 76 2 view .LVU73
	.loc 7 76 2 is_stmt 0 view .LVU74
	.thumb
	.syntax unified
.LBE164:
.LBE163:
	.loc 6 156 2 is_stmt 1 view .LVU75
	.loc 6 156 2 is_stmt 0 view .LVU76
.LBE162:
.LBE161:
	.loc 1 107 2 is_stmt 1 view .LVU77
	.loc 1 107 15 is_stmt 0 view .LVU78
	ldr	r1, [r0, #12]
	.loc 1 107 5 view .LVU79
	cbnz	r1, .L26
.L12:
	.loc 1 109 3 is_stmt 1 view .LVU80
	.loc 1 110 41 is_stmt 0 view .LVU81
	cmp	r1, #0
	bne	.L14
	.loc 1 110 21 discriminator 1 view .LVU82
	ldr	r3, .L30
	ldr	r3, [r3, #8]
	.loc 1 110 35 discriminator 1 view .LVU83
	ldrsb	r3, [r3, #14]
.L15:
	.loc 1 109 26 view .LVU84
	str	r3, [r4, #16]
	.loc 1 113 3 is_stmt 1 view .LVU85
	.loc 1 113 20 is_stmt 0 view .LVU86
	adds	r1, r1, #1
	str	r1, [r4, #12]
	.loc 1 114 3 is_stmt 1 view .LVU87
	.loc 1 114 33 is_stmt 0 view .LVU88
	ldr	r3, .L30
	ldr	r3, [r3, #8]
	.loc 1 114 16 view .LVU89
	str	r3, [r4, #8]
	.loc 1 116 3 is_stmt 1 view .LVU90
.LBB165:
	.loc 1 116 8 view .LVU91
.LBE165:
	.loc 1 116 163 view .LVU92
	.loc 1 120 3 view .LVU93
.LVL17:
.LBB166:
.LBI166:
	.loc 6 180 51 view .LVU94
.LBE166:
	.loc 6 183 2 view .LVU95
	.loc 6 198 2 view .LVU96
.LBB169:
.LBB167:
.LBI167:
	.loc 7 84 51 view .LVU97
.LBB168:
	.loc 7 95 2 view .LVU98
	.syntax unified
@ 95 "/home/sebin/thesis/zephyrproject/zephyr/include/arch/arm/aarch32/asm_inline_gcc.h" 1
	msr BASEPRI, r7;isb;
@ 0 "" 2
.LVL18:
	.loc 7 95 2 is_stmt 0 view .LVU99
	.thumb
	.syntax unified
.LBE168:
.LBE167:
.LBE169:
	.loc 1 122 3 is_stmt 1 view .LVU100
	.loc 1 122 8 view .LVU101
	.loc 1 122 16 view .LVU102
	.loc 1 124 3 view .LVU103
	.loc 1 124 10 is_stmt 0 view .LVU104
	movs	r0, #0
.LVL19:
.L11:
	.loc 1 183 1 view .LVU105
	add	sp, sp, #12
	.cfi_remember_state
	.cfi_def_cfa_offset 28
	@ sp needed
	pop	{r4, r5, r6, r7, r8, r9, pc}
.LVL20:
.L26:
	.cfi_restore_state
	.loc 1 183 1 view .LVU106
	mov	r6, r2
.LVL21:
	.loc 1 107 44 discriminator 1 view .LVU107
	ldr	r2, [r0, #8]
	.loc 1 107 70 discriminator 1 view .LVU108
	ldr	r3, .L30
	ldr	r3, [r3, #8]
	.loc 1 107 5 discriminator 1 view .LVU109
	cmp	r2, r3
	beq	.L12
	.loc 1 127 2 is_stmt 1 view .LVU110
.LVL22:
.LBB170:
	.loc 1 127 23 is_stmt 0 view .LVU111
	orrs	r1, r5, r6
	ite	eq
	moveq	r8, #1
	movne	r8, #0
	.loc 1 127 5 view .LVU112
	beq	.L27
.LBE170:
	.loc 1 135 2 is_stmt 1 view .LVU113
	.loc 1 135 7 view .LVU114
	.loc 1 135 15 view .LVU115
	.loc 1 137 2 view .LVU116
	.loc 1 138 28 is_stmt 0 view .LVU117
	ldrsb	r9, [r2, #14]
	.loc 1 137 13 view .LVU118
	mov	r1, r9
	ldrsb	r0, [r3, #14]
.LVL23:
	.loc 1 137 13 view .LVU119
	bl	new_prio_for_inheritance
.LVL24:
	.loc 1 140 2 is_stmt 1 view .LVU120
.LBB175:
	.loc 1 140 7 view .LVU121
.LBE175:
	.loc 1 140 81 view .LVU122
	.loc 1 142 2 view .LVU123
	.loc 2 213 2 view .LVU124
	.loc 2 208 2 view .LVU125
	.loc 1 142 5 is_stmt 0 view .LVU126
	cmp	r9, r0
	bgt	.L28
	.loc 1 99 6 view .LVU127
	mov	r9, #0
.LVL25:
.L18:
	.loc 1 146 2 is_stmt 1 view .LVU128
	.loc 1 146 18 is_stmt 0 view .LVU129
	str	r6, [sp]
	str	r5, [sp, #4]
	mov	r2, r4
	mov	r1, r7
	ldr	r0, .L30+4
	bl	z_pend_curr
.LVL26:
	.loc 1 148 2 is_stmt 1 view .LVU130
.LBB176:
	.loc 1 148 7 view .LVU131
.LBE176:
	.loc 1 148 94 view .LVU132
	.loc 1 150 2 view .LVU133
.LBB177:
	.loc 1 150 7 view .LVU134
.LBE177:
	.loc 1 150 125 view .LVU135
	.loc 1 153 2 view .LVU136
	.loc 1 153 5 is_stmt 0 view .LVU137
	cmp	r0, #0
	beq	.L11
	.loc 1 160 2 is_stmt 1 view .LVU138
.LBB178:
	.loc 1 160 7 view .LVU139
.LBE178:
	.loc 1 160 99 view .LVU140
	.loc 1 162 2 view .LVU141
.LVL27:
.LBB179:
.LBI179:
	.loc 6 130 63 view .LVU142
.LBB180:
	.loc 6 132 2 view .LVU143
	.loc 6 133 2 view .LVU144
	.loc 6 139 2 view .LVU145
.LBB181:
.LBI181:
	.loc 7 43 59 view .LVU146
.LBB182:
	.loc 7 45 2 view .LVU147
	.loc 7 54 2 view .LVU148
	.loc 7 56 2 view .LVU149
	.syntax unified
@ 56 "/home/sebin/thesis/zephyrproject/zephyr/include/arch/arm/aarch32/asm_inline_gcc.h" 1
	mov r3, #4;mrs r5, BASEPRI;msr BASEPRI_MAX, r3;isb;
@ 0 "" 2
.LVL28:
	.loc 7 76 2 view .LVU150
	.loc 7 76 2 is_stmt 0 view .LVU151
	.thumb
	.syntax unified
.LBE182:
.LBE181:
	.loc 6 156 2 is_stmt 1 view .LVU152
	.loc 6 156 2 is_stmt 0 view .LVU153
.LBE180:
.LBE179:
	.loc 1 164 2 is_stmt 1 view .LVU154
.LBB183:
.LBI183:
	.loc 3 52 32 view .LVU155
.LBB184:
	.loc 3 54 2 view .LVU156
.LBB185:
.LBI185:
	.loc 4 294 28 view .LVU157
.LBB186:
	.loc 4 296 2 view .LVU158
.LBB187:
.LBI187:
	.loc 4 266 19 view .LVU159
.LBB188:
	.loc 4 268 2 view .LVU160
	.loc 4 268 13 is_stmt 0 view .LVU161
	ldr	r3, [r4]
.LVL29:
	.loc 4 268 13 view .LVU162
.LBE188:
.LBE187:
	.loc 4 296 40 view .LVU163
	cmp	r4, r3
	beq	.L19
.LVL30:
	.loc 4 296 40 view .LVU164
.LBE186:
.LBE185:
.LBE184:
.LBE183:
	.loc 1 166 2 is_stmt 1 view .LVU165
	.loc 1 167 71 is_stmt 0 view .LVU166
	cbz	r3, .L19
	.loc 1 167 3 discriminator 1 view .LVU167
	ldr	r1, [r4, #16]
	ldrsb	r0, [r3, #14]
.LVL31:
	.loc 1 167 3 discriminator 1 view .LVU168
	bl	new_prio_for_inheritance
.LVL32:
	.loc 1 167 3 discriminator 1 view .LVU169
	mov	r1, r0
.L20:
.LVL33:
	.loc 1 170 2 is_stmt 1 view .LVU170
.LBB189:
	.loc 1 170 7 view .LVU171
.LBE189:
	.loc 1 170 83 view .LVU172
	.loc 1 172 2 view .LVU173
	.loc 1 172 12 is_stmt 0 view .LVU174
	mov	r0, r4
	bl	adjust_owner_prio
.LVL34:
	.loc 1 172 47 view .LVU175
	cbnz	r0, .L24
	.loc 1 172 47 discriminator 2 view .LVU176
	cmp	r9, #0
	beq	.L21
	.loc 1 172 47 view .LVU177
	mov	r8, #1
	b	.L21
.LVL35:
.L14:
	.loc 1 110 41 discriminator 2 view .LVU178
	ldr	r3, [r4, #16]
	b	.L15
.LVL36:
.L27:
.LBB190:
	.loc 1 128 3 is_stmt 1 view .LVU179
.LBB171:
.LBI171:
	.loc 6 180 51 view .LVU180
.LBE171:
.LBE190:
	.loc 6 183 2 view .LVU181
	.loc 6 198 2 view .LVU182
.LBB191:
.LBB174:
.LBB172:
.LBI172:
	.loc 7 84 51 view .LVU183
.LBB173:
	.loc 7 95 2 view .LVU184
	.syntax unified
@ 95 "/home/sebin/thesis/zephyrproject/zephyr/include/arch/arm/aarch32/asm_inline_gcc.h" 1
	msr BASEPRI, r7;isb;
@ 0 "" 2
.LVL37:
	.loc 7 95 2 is_stmt 0 view .LVU185
	.thumb
	.syntax unified
.LBE173:
.LBE172:
.LBE174:
	.loc 1 130 3 is_stmt 1 view .LVU186
	.loc 1 130 8 view .LVU187
	.loc 1 130 16 view .LVU188
	.loc 1 132 3 view .LVU189
	.loc 1 132 10 is_stmt 0 view .LVU190
	mvn	r0, #15
.LVL38:
	.loc 1 132 10 view .LVU191
	b	.L11
.LVL39:
.L28:
	.loc 1 132 10 view .LVU192
.LBE191:
	.loc 1 143 3 is_stmt 1 view .LVU193
	.loc 1 143 13 is_stmt 0 view .LVU194
	mov	r1, r0
	mov	r0, r4
.LVL40:
	.loc 1 143 13 view .LVU195
	bl	adjust_owner_prio
.LVL41:
	.loc 1 143 13 view .LVU196
	mov	r9, r0
.LVL42:
	.loc 1 143 13 view .LVU197
	b	.L18
.LVL43:
.L19:
	.loc 1 167 71 discriminator 2 view .LVU198
	ldr	r1, [r4, #16]
	b	.L20
.LVL44:
.L24:
	.loc 1 172 47 view .LVU199
	mov	r8, #1
.L21:
.LVL45:
	.loc 1 174 2 is_stmt 1 discriminator 6 view .LVU200
	.loc 1 174 5 is_stmt 0 discriminator 6 view .LVU201
	cmp	r8, #0
	bne	.L29
	.loc 1 177 3 is_stmt 1 view .LVU202
.LVL46:
.LBB192:
.LBI192:
	.loc 6 180 51 view .LVU203
.LBE192:
	.loc 6 183 2 view .LVU204
	.loc 6 198 2 view .LVU205
.LBB195:
.LBB193:
.LBI193:
	.loc 7 84 51 view .LVU206
.LBB194:
	.loc 7 95 2 view .LVU207
	.syntax unified
@ 95 "/home/sebin/thesis/zephyrproject/zephyr/include/arch/arm/aarch32/asm_inline_gcc.h" 1
	msr BASEPRI, r5;isb;
@ 0 "" 2
.LVL47:
	.loc 7 95 2 is_stmt 0 view .LVU208
	.thumb
	.syntax unified
.LBE194:
.LBE193:
.LBE195:
	.loc 1 182 9 view .LVU209
	mvn	r0, #10
	b	.L11
.L29:
	.loc 1 175 3 is_stmt 1 view .LVU210
	mov	r1, r5
	ldr	r0, .L30+4
	bl	z_reschedule
.LVL48:
	.loc 1 182 9 is_stmt 0 view .LVU211
	mvn	r0, #10
	b	.L11
.L31:
	.align	2
.L30:
	.word	_kernel
	.word	.LANCHOR0
	.cfi_endproc
.LFE589:
	.size	z_impl_k_mutex_lock, .-z_impl_k_mutex_lock
	.section	.text.z_impl_k_mutex_unlock,"ax",%progbits
	.align	1
	.global	z_impl_k_mutex_unlock
	.syntax unified
	.thumb
	.thumb_func
	.fpu fpv4-sp-d16
	.type	z_impl_k_mutex_unlock, %function
z_impl_k_mutex_unlock:
.LVL49:
.LFB590:
	.loc 1 196 1 is_stmt 1 view -0
	.cfi_startproc
	@ args = 0, pretend = 0, frame = 0
	@ frame_needed = 0, uses_anonymous_args = 0
	.loc 1 197 2 view .LVU213
	.loc 1 199 4 view .LVU214
	.loc 1 199 5 view .LVU215
	.loc 1 201 2 view .LVU216
	.loc 1 201 7 view .LVU217
	.loc 1 201 15 view .LVU218
	.loc 1 203 2 view .LVU219
	.loc 1 203 11 is_stmt 0 view .LVU220
	ldr	r2, [r0, #8]
	.loc 1 203 5 view .LVU221
	cmp	r2, #0
	beq	.L37
	.loc 1 196 1 view .LVU222
	push	{r3, r4, r5, lr}
	.cfi_def_cfa_offset 16
	.cfi_offset 3, -16
	.cfi_offset 4, -12
	.cfi_offset 5, -8
	.cfi_offset 14, -4
	mov	r4, r0
	.loc 1 211 2 is_stmt 1 view .LVU223
	.loc 1 211 37 is_stmt 0 view .LVU224
	ldr	r3, .L43
	ldr	r3, [r3, #8]
	.loc 1 211 5 view .LVU225
	cmp	r2, r3
	bne	.L38
	.loc 1 223 4 is_stmt 1 view .LVU226
	.loc 1 223 5 view .LVU227
	.loc 1 225 2 view .LVU228
.LBB196:
.LBI196:
	.loc 2 251 20 view .LVU229
.LBB197:
	.loc 2 253 4 view .LVU230
	.loc 2 253 5 view .LVU231
	.loc 2 254 4 view .LVU232
	.loc 2 254 5 view .LVU233
	.loc 2 256 2 view .LVU234
	.loc 2 256 33 is_stmt 0 view .LVU235
	ldrb	r2, [r3, #15]	@ zero_extendqisi2
	.loc 2 256 2 view .LVU236
	subs	r2, r2, #1
	strb	r2, [r3, #15]
	.loc 2 258 2 is_stmt 1 view .LVU237
	.loc 2 258 7 view .LVU238
	.loc 2 258 55 view .LVU239
.LBE197:
.LBE196:
	.loc 1 227 2 view .LVU240
.LBB198:
	.loc 1 227 7 view .LVU241
.LBE198:
	.loc 1 227 94 view .LVU242
	.loc 1 233 2 view .LVU243
	.loc 1 233 11 is_stmt 0 view .LVU244
	ldr	r3, [r0, #12]
	.loc 1 233 5 view .LVU245
	cmp	r3, #1
	bls	.L34
	.loc 1 234 3 is_stmt 1 view .LVU246
	.loc 1 234 20 is_stmt 0 view .LVU247
	subs	r3, r3, #1
	str	r3, [r0, #12]
	.loc 1 235 3 is_stmt 1 view .LVU248
.LVL50:
.L35:
	.loc 1 267 2 view .LVU249
	.loc 1 267 7 view .LVU250
	.loc 1 267 15 view .LVU251
	.loc 1 269 2 view .LVU252
	bl	k_sched_unlock
.LVL51:
	.loc 1 271 2 view .LVU253
	.loc 1 271 9 is_stmt 0 view .LVU254
	movs	r0, #0
.L32:
	.loc 1 272 1 view .LVU255
	pop	{r3, r4, r5, pc}
.LVL52:
.L34:
	.loc 1 238 2 is_stmt 1 view .LVU256
.LBB199:
.LBI199:
	.loc 6 130 63 view .LVU257
.LBB200:
	.loc 6 132 2 view .LVU258
	.loc 6 133 2 view .LVU259
	.loc 6 139 2 view .LVU260
.LBB201:
.LBI201:
	.loc 7 43 59 view .LVU261
.LBB202:
	.loc 7 45 2 view .LVU262
	.loc 7 54 2 view .LVU263
	.loc 7 56 2 view .LVU264
	.syntax unified
@ 56 "/home/sebin/thesis/zephyrproject/zephyr/include/arch/arm/aarch32/asm_inline_gcc.h" 1
	mov r3, #4;mrs r5, BASEPRI;msr BASEPRI_MAX, r3;isb;
@ 0 "" 2
.LVL53:
	.loc 7 76 2 view .LVU265
	.loc 7 76 2 is_stmt 0 view .LVU266
	.thumb
	.syntax unified
.LBE202:
.LBE201:
	.loc 6 156 2 is_stmt 1 view .LVU267
	.loc 6 156 2 is_stmt 0 view .LVU268
.LBE200:
.LBE199:
	.loc 1 240 2 is_stmt 1 view .LVU269
	ldr	r1, [r0, #16]
	bl	adjust_owner_prio
.LVL54:
	.loc 1 243 2 view .LVU270
	.loc 1 243 14 is_stmt 0 view .LVU271
	mov	r0, r4
	bl	z_unpend_first_thread
.LVL55:
	.loc 1 245 2 is_stmt 1 view .LVU272
	.loc 1 245 15 is_stmt 0 view .LVU273
	str	r0, [r4, #8]
	.loc 1 247 2 is_stmt 1 view .LVU274
.LBB203:
	.loc 1 247 7 view .LVU275
.LBE203:
	.loc 1 247 141 view .LVU276
	.loc 1 250 2 view .LVU277
	.loc 1 250 5 is_stmt 0 view .LVU278
	cbz	r0, .L36
	.loc 1 256 3 is_stmt 1 view .LVU279
	.loc 1 256 43 is_stmt 0 view .LVU280
	ldrsb	r3, [r0, #14]
	.loc 1 256 26 view .LVU281
	str	r3, [r4, #16]
	.loc 1 257 3 is_stmt 1 view .LVU282
.LVL56:
.LBB204:
.LBI204:
	.file 8 "/home/sebin/thesis/zephyrproject/zephyr/arch/arm/include/aarch32/kernel_arch_func.h"
	.loc 8 65 1 view .LVU283
.LBB205:
	.loc 8 67 2 view .LVU284
	.loc 8 67 33 is_stmt 0 view .LVU285
	movs	r3, #0
	str	r3, [r0, #156]
.LVL57:
	.loc 8 67 33 view .LVU286
.LBE205:
.LBE204:
	.loc 1 258 3 is_stmt 1 view .LVU287
	bl	z_ready_thread
.LVL58:
	.loc 1 259 3 view .LVU288
	mov	r1, r5
	ldr	r0, .L43+4
	bl	z_reschedule
.LVL59:
	b	.L35
.LVL60:
.L36:
	.loc 1 261 3 view .LVU289
	.loc 1 261 21 is_stmt 0 view .LVU290
	movs	r3, #0
	str	r3, [r4, #12]
	.loc 1 262 3 is_stmt 1 view .LVU291
.LVL61:
.LBB206:
.LBI206:
	.loc 6 180 51 view .LVU292
.LBE206:
	.loc 6 183 2 view .LVU293
	.loc 6 198 2 view .LVU294
.LBB209:
.LBB207:
.LBI207:
	.loc 7 84 51 view .LVU295
.LBB208:
	.loc 7 95 2 view .LVU296
	.syntax unified
@ 95 "/home/sebin/thesis/zephyrproject/zephyr/include/arch/arm/aarch32/asm_inline_gcc.h" 1
	msr BASEPRI, r5;isb;
@ 0 "" 2
.LVL62:
	.loc 7 95 2 is_stmt 0 view .LVU297
	.thumb
	.syntax unified
	b	.L35
.LVL63:
.L37:
	.cfi_def_cfa_offset 0
	.cfi_restore 3
	.cfi_restore 4
	.cfi_restore 5
	.cfi_restore 14
	.loc 7 95 2 view .LVU298
.LBE208:
.LBE207:
.LBE209:
	.loc 1 206 10 view .LVU299
	mvn	r0, #21
.LVL64:
	.loc 1 272 1 view .LVU300
	bx	lr
.LVL65:
.L38:
	.cfi_def_cfa_offset 16
	.cfi_offset 3, -16
	.cfi_offset 4, -12
	.cfi_offset 5, -8
	.cfi_offset 14, -4
	.loc 1 214 10 view .LVU301
	mov	r0, #-1
.LVL66:
	.loc 1 214 10 view .LVU302
	b	.L32
.L44:
	.align	2
.L43:
	.word	_kernel
	.word	.LANCHOR0
	.cfi_endproc
.LFE590:
	.size	z_impl_k_mutex_unlock, .-z_impl_k_mutex_unlock
	.section	.bss.lock,"aw",%nobits
	.align	2
	.set	.LANCHOR0,. + 0
	.type	lock, %object
	.size	lock, 1
lock:
	.space	1
	.text
.Letext0:
	.file 9 "/home/sebin/LIOT/gcc-arm-none-eabi-9-2019-q4-major/lib/gcc/arm-none-eabi/9.2.1/include/stddef.h"
	.file 10 "/home/sebin/LIOT/gcc-arm-none-eabi-9-2019-q4-major/arm-none-eabi/include/machine/_default_types.h"
	.file 11 "/home/sebin/LIOT/gcc-arm-none-eabi-9-2019-q4-major/arm-none-eabi/include/sys/_stdint.h"
	.file 12 "/home/sebin/thesis/zephyrproject/zephyr/include/sys/rb.h"
	.file 13 "/home/sebin/thesis/zephyrproject/zephyr/include/sys/slist.h"
	.file 14 "/home/sebin/thesis/zephyrproject/zephyr/include/sys/sys_heap.h"
	.file 15 "/home/sebin/thesis/zephyrproject/zephyr/include/kernel_structs.h"
	.file 16 "/home/sebin/thesis/zephyrproject/zephyr/include/kernel/thread.h"
	.file 17 "/home/sebin/thesis/zephyrproject/zephyr/include/kernel.h"
	.file 18 "/home/sebin/thesis/zephyrproject/zephyr/include/kernel/thread_stack.h"
	.file 19 "/home/sebin/thesis/zephyrproject/zephyr/include/arch/arm/aarch32/thread.h"
	.file 20 "/home/sebin/thesis/zephyrproject/zephyr/include/arch/arm/aarch32/exc.h"
	.file 21 "/home/sebin/thesis/zephyrproject/zephyr/include/sw_isr_table.h"
	.file 22 "/home/sebin/thesis/zephyrproject/modules/hal/infineon/XMCLib/devices/XMC4500/Include/system_XMC4500.h"
	.file 23 "/home/sebin/thesis/zephyrproject/modules/hal/cmsis/CMSIS/Core/Include/core_cm4.h"
	.file 24 "/home/sebin/thesis/zephyrproject/zephyr/include/arch/arm/aarch32/mpu/arm_mpu_v7m.h"
	.file 25 "/home/sebin/thesis/zephyrproject/zephyr/include/arch/arm/aarch32/mpu/arm_mpu.h"
	.file 26 "/home/sebin/thesis/zephyrproject/zephyr/include/sys_clock.h"
	.file 27 "/home/sebin/LIOT/gcc-arm-none-eabi-9-2019-q4-major/arm-none-eabi/include/sys/lock.h"
	.file 28 "/home/sebin/LIOT/gcc-arm-none-eabi-9-2019-q4-major/arm-none-eabi/include/sys/_types.h"
	.file 29 "/home/sebin/LIOT/gcc-arm-none-eabi-9-2019-q4-major/arm-none-eabi/include/sys/reent.h"
	.file 30 "/home/sebin/LIOT/gcc-arm-none-eabi-9-2019-q4-major/arm-none-eabi/include/sys/errno.h"
	.file 31 "/home/sebin/thesis/zephyrproject/zephyr/arch/arm/include/aarch32/cortex_m/stack.h"
	.file 32 "/home/sebin/thesis/zephyrproject/zephyr/kernel/include/kernel_internal.h"
	.file 33 "/home/sebin/thesis/zephyrproject/zephyr/include/logging/log_instance.h"
	.file 34 "/home/sebin/thesis/zephyrproject/zephyr/include/sys/cbprintf_internal.h"
	.file 35 "/home/sebin/thesis/zephyrproject/zephyr/include/logging/log_msg2.h"
	.file 36 "/home/sebin/thesis/zephyrproject/zephyr/include/logging/log_msg.h"
	.file 37 "/home/sebin/thesis/zephyrproject/zephyr/include/logging/log_core.h"
	.file 38 "/home/sebin/thesis/zephyrproject/zephyr/include/arch/structs.h"