	.cpu cortex-m4
	.eabi_attribute 27, 1
	.eabi_attribute 28, 1
	.eabi_attribute 20, 1
	.eabi_attribute 21, 1
	.eabi_attribute 23, 3
	.eabi_attribute 24, 1
	.eabi_attribute 25, 1
	.eabi_attribute 26, 1
	.eabi_attribute 30, 1
	.eabi_attribute 34, 1
	.eabi_attribute 38, 1
	.eabi_attribute 18, 4
	.file	"pipes.c"
	.text
.Ltext0:
	.cfi_sections	.debug_frame
	.section	.text.pipe_xfer,"ax",%progbits
	.align	1
	.arch armv7e-m
	.syntax unified
	.thumb
	.thumb_func
	.fpu fpv4-sp-d16
	.type	pipe_xfer, %function
pipe_xfer:
.LVL0:
.LFB558:
	.file 1 "/home/sebin/thesis/zephyrproject/zephyr/kernel/pipes.c"
	.loc 1 180 1 view -0
	.cfi_startproc
	@ args = 0, pretend = 0, frame = 0
	@ frame_needed = 0, uses_anonymous_args = 0
	@ link register save eliminated.
	.loc 1 180 1 is_stmt 0 view .LVU1
	push	{r4, r5, r6}
	.cfi_def_cfa_offset 12
	.cfi_offset 4, -12
	.cfi_offset 5, -8
	.cfi_offset 6, -4
	.loc 1 181 2 is_stmt 1 view .LVU2
	.loc 1 181 9 is_stmt 0 view .LVU3
	cmp	r3, r1
	it	cs
	movcs	r3, r1
.LVL1:
	.loc 1 182 2 is_stmt 1 view .LVU4
	.loc 1 182 23 is_stmt 0 view .LVU5
	adds	r6, r2, r3
.LVL2:
	.loc 1 184 2 is_stmt 1 view .LVU6
	.loc 1 184 5 is_stmt 0 view .LVU7
	mov	r4, r0
	cbnz	r0, .L3
	b	.L1
.LVL3:
.L4:
	.loc 1 190 3 is_stmt 1 view .LVU8
	.loc 1 190 11 is_stmt 0 view .LVU9
	ldrb	r5, [r2], #1	@ zero_extendqisi2
.LVL4:
	.loc 1 190 9 view .LVU10
	strb	r5, [r4], #1
.LVL5:
	.loc 1 191 3 is_stmt 1 view .LVU11
	.loc 1 192 3 view .LVU12
.L3:
	.loc 1 189 8 view .LVU13
	cmp	r2, r6
	bne	.L4
.L1:
	.loc 1 196 1 is_stmt 0 view .LVU14
	mov	r0, r3
	pop	{r4, r5, r6}
	.cfi_restore 6
	.cfi_restore 5
	.cfi_restore 4
	.cfi_def_cfa_offset 0
.LVL6:
	.loc 1 196 1 view .LVU15
	bx	lr
	.cfi_endproc
.LFE558:
	.size	pipe_xfer, .-pipe_xfer
	.section	.text.pipe_buffer_put,"ax",%progbits
	.align	1
	.syntax unified
	.thumb
	.thumb_func
	.fpu fpv4-sp-d16
	.type	pipe_buffer_put, %function
pipe_buffer_put:
.LVL7:
.LFB559:
	.loc 1 208 1 is_stmt 1 view -0
	.cfi_startproc
	@ args = 0, pretend = 0, frame = 0
	@ frame_needed = 0, uses_anonymous_args = 0
	.loc 1 208 1 is_stmt 0 view .LVU17
	push	{r3, r4, r5, r6, r7, r8, r9, lr}
	.cfi_def_cfa_offset 32
	.cfi_offset 3, -32
	.cfi_offset 4, -28
	.cfi_offset 5, -24
	.cfi_offset 6, -20
	.cfi_offset 7, -16
	.cfi_offset 8, -12
	.cfi_offset 9, -8
	.cfi_offset 14, -4
	mov	r4, r0
	mov	r8, r1
	mov	r9, r2
	.loc 1 209 2 is_stmt 1 view .LVU18
	.loc 1 210 2 view .LVU19
	.loc 1 211 2 view .LVU20
.LVL8:
	.loc 1 212 2 view .LVU21
	.loc 1 215 2 view .LVU22
	.loc 1 215 9 is_stmt 0 view .LVU23
	movs	r6, #0
	.loc 1 211 9 view .LVU24
	mov	r5, r6
	.loc 1 215 2 view .LVU25
	b	.L7
.LVL9:
.L8:
	.loc 1 215 21 is_stmt 1 discriminator 2 view .LVU26
	.loc 1 215 22 is_stmt 0 discriminator 2 view .LVU27
	adds	r6, r6, #1
.LVL10:
.L7:
	.loc 1 215 14 is_stmt 1 discriminator 1 view .LVU28
	.loc 1 215 2 is_stmt 0 discriminator 1 view .LVU29
	cmp	r6, #1
	bgt	.L11
	.loc 1 216 3 is_stmt 1 view .LVU30
	.loc 1 216 57 is_stmt 0 view .LVU31
	ldr	r3, [r4, #4]
	.loc 1 216 70 view .LVU32
	ldr	r0, [r4, #16]
	.loc 1 216 64 view .LVU33
	sub	lr, r3, r0
	.loc 1 216 36 view .LVU34
	ldr	r1, [r4, #8]
	.loc 1 216 30 view .LVU35
	subs	r1, r3, r1
.LVL11:
	.loc 1 219 3 is_stmt 1 view .LVU36
	.loc 1 219 18 is_stmt 0 view .LVU37
	sub	r3, r9, r5
	add	r2, r8, r5
	cmp	r1, lr
	it	cs
	movcs	r1, lr
.LVL12:
	.loc 1 219 18 view .LVU38
	ldr	r7, [r4]
	add	r0, r0, r7
	bl	pipe_xfer
.LVL13:
	.loc 1 224 3 is_stmt 1 view .LVU39
	.loc 1 224 21 is_stmt 0 view .LVU40
	add	r5, r5, r0
.LVL14:
	.loc 1 225 3 is_stmt 1 view .LVU41
	.loc 1 225 20 is_stmt 0 view .LVU42
	ldr	r3, [r4, #8]
	add	r3, r3, r0
	str	r3, [r4, #8]
	.loc 1 226 3 is_stmt 1 view .LVU43
	.loc 1 226 21 is_stmt 0 view .LVU44
	ldr	r3, [r4, #16]
	add	r0, r0, r3
.LVL15:
	.loc 1 226 21 view .LVU45
	str	r0, [r4, #16]
	.loc 1 227 3 is_stmt 1 view .LVU46
	.loc 1 227 32 is_stmt 0 view .LVU47
	ldr	r3, [r4, #4]
	.loc 1 227 6 view .LVU48
	cmp	r0, r3
	bne	.L8
	.loc 1 228 4 is_stmt 1 view .LVU49
	.loc 1 228 22 is_stmt 0 view .LVU50
	movs	r3, #0
	str	r3, [r4, #16]
	b	.L8
.L11:
	.loc 1 232 2 is_stmt 1 view .LVU51
	.loc 1 233 1 is_stmt 0 view .LVU52
	mov	r0, r5
	pop	{r3, r4, r5, r6, r7, r8, r9, pc}
	.loc 1 233 1 view .LVU53
	.cfi_endproc
.LFE559:
	.size	pipe_buffer_put, .-pipe_buffer_put
	.section	.text.pipe_buffer_get,"ax",%progbits
	.align	1
	.syntax unified
	.thumb
	.thumb_func
	.fpu fpv4-sp-d16
	.type	pipe_buffer_get, %function
pipe_buffer_get:
.LVL16:
.LFB560:
	.loc 1 245 1 is_stmt 1 view -0
	.cfi_startproc
	@ args = 0, pretend = 0, frame = 0
	@ frame_needed = 0, uses_anonymous_args = 0
	.loc 1 245 1 is_stmt 0 view .LVU55
	push	{r4, r5, r6, r7, r8, lr}
	.cfi_def_cfa_offset 24
	.cfi_offset 4, -24
	.cfi_offset 5, -20
	.cfi_offset 6, -16
	.cfi_offset 7, -12
	.cfi_offset 8, -8
	.cfi_offset 14, -4
	mov	r4, r0
	mov	r7, r1
	mov	r8, r2
	.loc 1 246 2 is_stmt 1 view .LVU56
	.loc 1 247 2 view .LVU57
	.loc 1 248 2 view .LVU58
.LVL17:
	.loc 1 249 2 view .LVU59
	.loc 1 250 2 view .LVU60
	.loc 1 252 2 view .LVU61
	.loc 1 252 9 is_stmt 0 view .LVU62
	movs	r6, #0
	.loc 1 248 9 view .LVU63
	mov	r5, r6
	.loc 1 252 2 view .LVU64
	b	.L13
.LVL18:
.L20:
	.loc 1 256 32 view .LVU65
	movs	r0, #0
	b	.L14
.LVL19:
.L15:
	.loc 1 252 21 is_stmt 1 discriminator 2 view .LVU66
	.loc 1 252 22 is_stmt 0 discriminator 2 view .LVU67
	adds	r6, r6, #1
.LVL20:
.L13:
	.loc 1 252 14 is_stmt 1 discriminator 1 view .LVU68
	.loc 1 252 2 is_stmt 0 discriminator 1 view .LVU69
	cmp	r6, #1
	bgt	.L19
	.loc 1 253 3 is_stmt 1 view .LVU70
	.loc 1 253 44 is_stmt 0 view .LVU71
	ldr	r3, [r4, #4]
	.loc 1 253 57 view .LVU72
	ldr	r2, [r4, #12]
	.loc 1 253 51 view .LVU73
	subs	r3, r3, r2
	.loc 1 253 23 view .LVU74
	ldr	r1, [r4, #8]
	.loc 1 253 14 view .LVU75
	cmp	r3, r1
	it	cs
	movcs	r3, r1
.LVL21:
	.loc 1 256 3 is_stmt 1 view .LVU76
	.loc 1 256 32 is_stmt 0 view .LVU77
	cmp	r7, #0
	beq	.L20
	mov	r0, r5
.L14:
.LVL22:
	.loc 1 258 3 is_stmt 1 discriminator 4 view .LVU78
	.loc 1 260 11 is_stmt 0 discriminator 4 view .LVU79
	ldr	r1, [r4]
	.loc 1 258 18 discriminator 4 view .LVU80
	add	r2, r2, r1
	sub	r1, r8, r5
	add	r0, r0, r7
.LVL23:
	.loc 1 258 18 discriminator 4 view .LVU81
	bl	pipe_xfer
.LVL24:
	.loc 1 263 3 is_stmt 1 discriminator 4 view .LVU82
	.loc 1 263 18 is_stmt 0 discriminator 4 view .LVU83
	add	r5, r5, r0
.LVL25:
	.loc 1 264 3 is_stmt 1 discriminator 4 view .LVU84
	.loc 1 264 20 is_stmt 0 discriminator 4 view .LVU85
	ldr	r3, [r4, #8]
	subs	r3, r3, r0
	str	r3, [r4, #8]
	.loc 1 265 3 is_stmt 1 discriminator 4 view .LVU86
	.loc 1 265 20 is_stmt 0 discriminator 4 view .LVU87
	ldr	r3, [r4, #12]
	add	r0, r0, r3
.LVL26:
	.loc 1 265 20 discriminator 4 view .LVU88
	str	r0, [r4, #12]
	.loc 1 266 3 is_stmt 1 discriminator 4 view .LVU89
	.loc 1 266 31 is_stmt 0 discriminator 4 view .LVU90
	ldr	r3, [r4, #4]
	.loc 1 266 6 discriminator 4 view .LVU91
	cmp	r0, r3
	bne	.L15
	.loc 1 267 4 is_stmt 1 view .LVU92
	.loc 1 267 21 is_stmt 0 view .LVU93
	movs	r3, #0
	str	r3, [r4, #12]
	b	.L15
.L19:
	.loc 1 271 2 is_stmt 1 view .LVU94
	.loc 1 272 1 is_stmt 0 view .LVU95
	mov	r0, r5
	pop	{r4, r5, r6, r7, r8, pc}
	.loc 1 272 1 view .LVU96
	.cfi_endproc
.LFE560:
	.size	pipe_buffer_get, .-pipe_buffer_get
	.section	.text.pipe_return_code,"ax",%progbits
	.align	1
	.syntax unified
	.thumb
	.thumb_func
	.fpu fpv4-sp-d16
	.type	pipe_return_code, %function
pipe_return_code:
.LVL27:
.LFB562:
	.loc 1 383 1 is_stmt 1 view -0
	.cfi_startproc
	@ args = 0, pretend = 0, frame = 0
	@ frame_needed = 0, uses_anonymous_args = 0
	@ link register save eliminated.
	.loc 1 384 2 view .LVU98
	.loc 1 384 22 is_stmt 0 view .LVU99
	subs	r2, r2, r1
.LVL28:
	.loc 1 384 5 view .LVU100
	cmp	r2, r0
	bcc	.L24
	.loc 1 389 10 view .LVU101
	movs	r0, #0
.LVL29:
	.loc 1 393 1 view .LVU102
	bx	lr
.LVL30:
.L24:
	.loc 1 392 9 view .LVU103
	mvn	r0, #10
.LVL31:
	.loc 1 392 9 view .LVU104
	bx	lr
	.cfi_endproc
.LFE562:
	.size	pipe_return_code, .-pipe_return_code
	.section	.text.pipe_xfer_prepare,"ax",%progbits
	.align	1
	.syntax unified
	.thumb
	.thumb_func
	.fpu fpv4-sp-d16
	.type	pipe_xfer_prepare, %function
pipe_xfer_prepare:
.LVL32:
.LFB561:
	.loc 1 311 1 is_stmt 1 view -0
	.cfi_startproc
	@ args = 16, pretend = 0, frame = 0
	@ frame_needed = 0, uses_anonymous_args = 0
	.loc 1 311 1 is_stmt 0 view .LVU106
	push	{r3, r4, r5, r6, r7, r8, r9, lr}
	.cfi_def_cfa_offset 32
	.cfi_offset 3, -32
	.cfi_offset 4, -28
	.cfi_offset 5, -24
	.cfi_offset 6, -20
	.cfi_offset 7, -16
	.cfi_offset 8, -12
	.cfi_offset 9, -8
	.cfi_offset 14, -4
	mov	r5, r0
	mov	r8, r1
	mov	r6, r2
	ldr	r7, [sp, #32]
	.loc 1 312 2 is_stmt 1 view .LVU107
	.loc 1 313 2 view .LVU108
	.loc 1 314 2 view .LVU109
.LVL33:
	.loc 1 316 2 view .LVU110
.LBB248:
	.loc 1 316 5 is_stmt 0 view .LVU111
	ldrd	r0, [sp, #40]
.LVL34:
	.loc 1 316 5 view .LVU112
	orrs	r2, r0, r1
.LVL35:
	.loc 1 316 5 view .LVU113
	bne	.L26
	.loc 1 317 3 is_stmt 1 view .LVU114
.LVL36:
.LBB249:
.LBI249:
	.file 2 "/home/sebin/thesis/zephyrproject/zephyr/include/sys/dlist.h"
	.loc 2 294 28 view .LVU115
.LBB250:
	.loc 2 296 2 view .LVU116
.LBB251:
.LBI251:
	.loc 2 266 19 view .LVU117
.LBB252:
	.loc 2 268 2 view .LVU118
	.loc 2 268 13 is_stmt 0 view .LVU119
	ldr	r4, [r6]
.LVL37:
	.loc 2 268 13 view .LVU120
.LBE252:
.LBE251:
	.loc 2 296 40 view .LVU121
	cmp	r6, r4
	beq	.L44
.L27:
.LBE250:
.LBE249:
	.loc 1 317 5 discriminator 14 view .LVU122
	movs	r2, #0
	b	.L30
.L44:
	.loc 1 317 5 view .LVU123
	movs	r4, #0
	b	.L27
.LVL38:
.L39:
	.loc 1 317 5 view .LVU124
	movs	r4, #0
.LVL39:
.L30:
	.loc 1 317 5 is_stmt 1 discriminator 14 view .LVU125
	.loc 1 317 3 is_stmt 0 discriminator 14 view .LVU126
	cbz	r4, .L28
	.loc 1 318 4 is_stmt 1 view .LVU127
	.loc 1 318 9 is_stmt 0 view .LVU128
	ldr	r1, [r4, #20]
.LVL40:
	.loc 1 320 4 is_stmt 1 view .LVU129
	.loc 1 320 21 is_stmt 0 view .LVU130
	ldr	r1, [r1, #4]
.LVL41:
	.loc 1 320 14 view .LVU131
	add	r2, r2, r1
.LVL42:
	.loc 1 322 4 is_stmt 1 view .LVU132
	.loc 1 322 7 is_stmt 0 view .LVU133
	cmp	r2, r7
	bcs	.L28
	.loc 1 317 4 is_stmt 1 discriminator 6 view .LVU134
.LVL43:
.LBB253:
.LBI253:
	.loc 2 341 28 discriminator 6 view .LVU135
.LBB254:
	.loc 2 344 2 discriminator 6 view .LVU136
	.loc 2 344 66 is_stmt 0 discriminator 6 view .LVU137
	cmp	r4, #0
	beq	.L30
.LVL44:
.LBB255:
.LBI255:
	.loc 2 325 28 is_stmt 1 view .LVU138
.LBB256:
	.loc 2 328 2 view .LVU139
	.loc 2 328 22 is_stmt 0 view .LVU140
	ldr	r1, [r6, #4]
	.loc 2 328 36 view .LVU141
	cmp	r4, r1
	beq	.L39
	ldr	r4, [r4]
.LVL45:
	.loc 2 328 36 view .LVU142
.LBE256:
.LBE255:
.LBE254:
.LBE253:
	b	.L30
.LVL46:
.L28:
	.loc 1 327 3 is_stmt 1 view .LVU143
	.loc 1 327 17 is_stmt 0 view .LVU144
	add	r2, r2, r3
.LVL47:
	.loc 1 327 6 view .LVU145
	ldr	r3, [sp, #36]
.LVL48:
	.loc 1 327 6 view .LVU146
	cmp	r2, r3
	bcc	.L40
.LVL49:
.L26:
	.loc 1 327 6 view .LVU147
.LBE248:
	.loc 1 337 2 is_stmt 1 view .LVU148
.LBB257:
.LBI257:
	.loc 2 197 20 view .LVU149
.LBB258:
	.loc 2 199 2 view .LVU150
	.loc 2 199 13 is_stmt 0 view .LVU151
	str	r5, [r5]
	.loc 2 200 2 is_stmt 1 view .LVU152
	.loc 2 200 13 is_stmt 0 view .LVU153
	str	r5, [r5, #4]
.LVL50:
	.loc 2 200 13 view .LVU154
.LBE258:
.LBE257:
	.loc 1 338 2 is_stmt 1 view .LVU155
	.loc 1 340 2 view .LVU156
	.loc 1 338 12 is_stmt 0 view .LVU157
	mov	r9, #0
	.loc 1 340 8 view .LVU158
	b	.L33
.LVL51:
.L45:
	.loc 1 360 3 is_stmt 1 view .LVU159
	mov	r0, r4
.LVL52:
	.loc 1 360 3 is_stmt 0 view .LVU160
	bl	z_unpend_thread
.LVL53:
	.loc 1 361 3 is_stmt 1 view .LVU161
.LBB259:
.LBI259:
	.loc 2 404 20 view .LVU162
.LBB260:
	.loc 2 406 2 view .LVU163
	.loc 2 406 21 is_stmt 0 view .LVU164
	ldr	r3, [r5, #4]
.LVL54:
	.loc 2 408 2 is_stmt 1 view .LVU165
	.loc 2 408 13 is_stmt 0 view .LVU166
	str	r5, [r4]
	.loc 2 409 2 is_stmt 1 view .LVU167
	.loc 2 409 13 is_stmt 0 view .LVU168
	str	r3, [r4, #4]
	.loc 2 411 2 is_stmt 1 view .LVU169
	.loc 2 411 13 is_stmt 0 view .LVU170
	str	r4, [r3]
	.loc 2 412 2 is_stmt 1 view .LVU171
	.loc 2 412 13 is_stmt 0 view .LVU172
	str	r4, [r5, #4]
.LVL55:
.L33:
	.loc 2 412 13 view .LVU173
.LBE260:
.LBE259:
	.loc 1 340 8 is_stmt 1 view .LVU174
.LBB261:
.LBI261:
	.file 3 "/home/sebin/thesis/zephyrproject/zephyr/include/wait_q.h"
	.loc 3 52 32 view .LVU175
.LBB262:
	.loc 3 54 2 view .LVU176
.LBB263:
.LBI263:
	.loc 2 294 28 view .LVU177
.LBB264:
	.loc 2 296 2 view .LVU178
.LBB265:
.LBI265:
	.loc 2 266 19 view .LVU179
.LBB266:
	.loc 2 268 2 view .LVU180
	.loc 2 268 13 is_stmt 0 view .LVU181
	ldr	r4, [r6]
.LVL56:
	.loc 2 268 13 view .LVU182
.LBE266:
.LBE265:
	.loc 2 296 40 view .LVU183
	cmp	r6, r4
	beq	.L41
.LVL57:
	.loc 2 296 40 view .LVU184
.LBE264:
.LBE263:
.LBE262:
.LBE261:
	.loc 1 340 8 view .LVU185
	cbz	r4, .L34
	.loc 1 341 3 is_stmt 1 view .LVU186
	.loc 1 341 8 is_stmt 0 view .LVU187
	ldr	r3, [r4, #20]
.LVL58:
	.loc 1 342 3 is_stmt 1 view .LVU188
	.loc 1 342 20 is_stmt 0 view .LVU189
	ldr	r3, [r3, #4]
.LVL59:
	.loc 1 342 13 view .LVU190
	add	r9, r9, r3
.LVL60:
	.loc 1 344 3 is_stmt 1 view .LVU191
	.loc 1 344 6 is_stmt 0 view .LVU192
	cmp	r7, r9
	bcs	.L45
	b	.L34
.LVL61:
.L41:
.LBB270:
.LBB269:
.LBB268:
.LBB267:
	.loc 2 296 40 view .LVU193
	movs	r4, #0
.LVL62:
.L34:
	.loc 2 296 40 view .LVU194
.LBE267:
.LBE268:
.LBE269:
.LBE270:
	.loc 1 364 2 is_stmt 1 view .LVU195
	.loc 1 364 49 is_stmt 0 view .LVU196
	cmp	r9, r7
	bhi	.L36
	.loc 1 364 49 view .LVU197
	movs	r4, #0
.L36:
	.loc 1 364 10 discriminator 4 view .LVU198
	str	r4, [r8]
	.loc 1 366 2 is_stmt 1 discriminator 4 view .LVU199
	.loc 1 366 8 is_stmt 0 discriminator 4 view .LVU200
	movs	r0, #1
.LVL63:
.L32:
	.loc 1 367 1 view .LVU201
	pop	{r3, r4, r5, r6, r7, r8, r9, pc}
.LVL64:
.L40:
.LBB271:
	.loc 1 328 10 view .LVU202
	movs	r0, #0
.LVL65:
	.loc 1 328 10 view .LVU203
	b	.L32
.LBE271:
	.cfi_endproc
.LFE561:
	.size	pipe_xfer_prepare, .-pipe_xfer_prepare
	.section	.text.pipe_get_internal,"ax",%progbits
	.align	1
	.syntax unified
	.thumb
	.thumb_func
	.fpu fpv4-sp-d16
	.type	pipe_get_internal, %function
pipe_get_internal:
.LVL66:
.LFB564:
	.loc 1 559 1 is_stmt 1 view -0
	.cfi_startproc
	@ args = 16, pretend = 0, frame = 24
	@ frame_needed = 0, uses_anonymous_args = 0
	.loc 1 559 1 is_stmt 0 view .LVU205
	push	{r4, r5, r6, r7, r8, r9, r10, fp, lr}
	.cfi_def_cfa_offset 36
	.cfi_offset 4, -36
	.cfi_offset 5, -32
	.cfi_offset 6, -28
	.cfi_offset 7, -24
	.cfi_offset 8, -20
	.cfi_offset 9, -16
	.cfi_offset 10, -12
	.cfi_offset 11, -8
	.cfi_offset 14, -4
	sub	sp, sp, #44
	.cfi_def_cfa_offset 80
	mov	r4, r0
.LVL67:
	.loc 1 559 1 view .LVU206
	mov	r9, r1
	mov	r8, r2
	mov	r7, r3
	ldr	r10, [sp, #84]
	.loc 1 560 2 is_stmt 1 view .LVU207
	.loc 1 561 2 view .LVU208
	.loc 1 562 2 view .LVU209
	.loc 1 563 2 view .LVU210
.LVL68:
	.loc 1 564 2 view .LVU211
	.loc 1 565 2 view .LVU212
	.loc 1 572 2 view .LVU213
	.loc 1 572 7 is_stmt 0 view .LVU214
	ldrd	r2, [sp, #88]
.LVL69:
	.loc 1 572 7 view .LVU215
	strd	r2, [sp, #8]
	str	r10, [sp, #4]
	str	r7, [sp]
	ldr	r3, [r1, #8]
.LVL70:
	.loc 1 572 7 view .LVU216
	add	r2, r1, #32
	add	r1, sp, #36
.LVL71:
	.loc 1 572 7 view .LVU217
	add	r0, sp, #28
	bl	pipe_xfer_prepare
.LVL72:
	.loc 1 572 5 view .LVU218
	cbz	r0, .L72
	.loc 1 581 2 is_stmt 1 view .LVU219
.LBB272:
.LBI272:
	.file 4 "/home/sebin/thesis/zephyrproject/zephyr/kernel/include/ksched.h"
	.loc 4 251 20 view .LVU220
.LBB273:
	.loc 4 253 4 view .LVU221
	.loc 4 253 5 view .LVU222
	.loc 4 254 4 view .LVU223
	.loc 4 254 5 view .LVU224
	.loc 4 256 2 view .LVU225
	.loc 4 256 19 is_stmt 0 view .LVU226
	ldr	r3, .L76
	ldr	r2, [r3, #8]
	.loc 4 256 33 view .LVU227
	ldrb	r3, [r2, #15]	@ zero_extendqisi2
	.loc 4 256 2 view .LVU228
	subs	r3, r3, #1
	strb	r3, [r2, #15]
	.loc 4 258 2 is_stmt 1 view .LVU229
	.loc 4 258 7 view .LVU230
	.loc 4 258 55 view .LVU231
.LBE273:
.LBE272:
	.loc 1 582 2 view .LVU232
	add	fp, r9, #20
.LVL73:
.LBB274:
.LBI274:
	.file 5 "/home/sebin/thesis/zephyrproject/zephyr/include/spinlock.h"
	.loc 5 180 51 view .LVU233
.LBB275:
	.loc 5 183 2 view .LVU234
	.loc 5 198 2 view .LVU235
.LBB276:
.LBI276:
	.file 6 "/home/sebin/thesis/zephyrproject/zephyr/include/arch/arm/aarch32/asm_inline_gcc.h"
	.loc 6 84 51 view .LVU236
.LBB277:
	.loc 6 95 2 view .LVU237
	.syntax unified
@ 95 "/home/sebin/thesis/zephyrproject/zephyr/include/arch/arm/aarch32/asm_inline_gcc.h" 1
	msr BASEPRI, r4;isb;
@ 0 "" 2
.LVL74:
	.loc 6 95 2 is_stmt 0 view .LVU238
	.thumb
	.syntax unified
.LBE277:
.LBE276:
.LBE275:
.LBE274:
	.loc 1 584 2 is_stmt 1 view .LVU239
	.loc 1 584 19 is_stmt 0 view .LVU240
	mov	r2, r7
	mov	r1, r8
	mov	r0, r9
	bl	pipe_buffer_get
.LVL75:
	mov	r6, r0
.LVL76:
	.loc 1 600 2 is_stmt 1 view .LVU241
.LBB278:
.LBI278:
	.loc 2 516 28 view .LVU242
.LBB279:
	.loc 2 518 2 view .LVU243
	.loc 2 520 2 view .LVU244
.LBB280:
.LBI280:
	.loc 2 266 19 view .LVU245
.LBB281:
	.loc 2 268 2 view .LVU246
	.loc 2 268 13 is_stmt 0 view .LVU247
	ldr	r4, [sp, #28]
.LVL77:
	.loc 2 268 13 view .LVU248
.LBE281:
.LBE280:
	.loc 2 520 5 view .LVU249
	add	r3, sp, #28
.LVL78:
	.loc 2 520 5 view .LVU250
	cmp	r4, r3
	beq	.L65
	.loc 2 521 3 is_stmt 1 view .LVU251
.LVL79:
	.loc 2 522 3 view .LVU252
.LBB282:
.LBI282:
	.loc 2 496 20 view .LVU253
.LBB283:
	.loc 2 498 2 view .LVU254
	.loc 2 498 21 is_stmt 0 view .LVU255
	ldr	r2, [r4, #4]
.LVL80:
	.loc 2 499 2 is_stmt 1 view .LVU256
	.loc 2 499 21 is_stmt 0 view .LVU257
	ldr	r3, [r4]
.LVL81:
	.loc 2 501 2 is_stmt 1 view .LVU258
	.loc 2 501 13 is_stmt 0 view .LVU259
	str	r3, [r2]
	.loc 2 502 2 is_stmt 1 view .LVU260
	.loc 2 502 13 is_stmt 0 view .LVU261
	str	r2, [r3, #4]
	.loc 2 503 2 is_stmt 1 view .LVU262
.LVL82:
.LBB284:
.LBI284:
	.loc 2 211 20 view .LVU263
.LBB285:
	.loc 2 213 2 view .LVU264
	.loc 2 213 13 is_stmt 0 view .LVU265
	movs	r3, #0
.LVL83:
	.loc 2 213 13 view .LVU266
	str	r3, [r4]
	.loc 2 214 2 is_stmt 1 view .LVU267
	.loc 2 214 13 is_stmt 0 view .LVU268
	str	r3, [r4, #4]
.LVL84:
	.loc 2 214 13 view .LVU269
.LBE285:
.LBE284:
	.loc 2 504 1 view .LVU270
	b	.L53
.LVL85:
.L72:
	.loc 2 504 1 view .LVU271
.LBE283:
.LBE282:
.LBE279:
.LBE278:
	.loc 1 575 3 is_stmt 1 view .LVU272
.LBB287:
.LBI287:
	.loc 5 180 51 view .LVU273
.LBB288:
	.loc 5 183 2 view .LVU274
	.loc 5 198 2 view .LVU275
.LBB289:
.LBI289:
	.loc 6 84 51 view .LVU276
.LBB290:
	.loc 6 95 2 view .LVU277
	.syntax unified
@ 95 "/home/sebin/thesis/zephyrproject/zephyr/include/arch/arm/aarch32/asm_inline_gcc.h" 1
	msr BASEPRI, r4;isb;
@ 0 "" 2
.LVL86:
	.loc 6 95 2 is_stmt 0 view .LVU278
	.thumb
	.syntax unified
.LBE290:
.LBE289:
.LBE288:
.LBE287:
	.loc 1 576 3 is_stmt 1 view .LVU279
	.loc 1 576 15 is_stmt 0 view .LVU280
	movs	r3, #0
	ldr	r2, [sp, #80]
	str	r3, [r2]
	.loc 1 578 3 is_stmt 1 view .LVU281
	.loc 1 578 10 is_stmt 0 view .LVU282
	mvn	r0, #4
	b	.L46
.LVL87:
.L73:
	.loc 1 604 32 view .LVU283
	movs	r0, #0
.L50:
.LVL88:
	.loc 1 605 3 is_stmt 1 discriminator 4 view .LVU284
	.loc 1 605 18 is_stmt 0 discriminator 4 view .LVU285
	ldr	r3, [r5, #4]
	ldr	r2, [r5]
	subs	r1, r7, r6
	add	r0, r0, r8
.LVL89:
	.loc 1 605 18 discriminator 4 view .LVU286
	bl	pipe_xfer
.LVL90:
	.loc 1 609 3 is_stmt 1 discriminator 4 view .LVU287
	.loc 1 609 18 is_stmt 0 discriminator 4 view .LVU288
	add	r6, r6, r0
.LVL91:
	.loc 1 610 3 is_stmt 1 discriminator 4 view .LVU289
	.loc 1 610 16 is_stmt 0 discriminator 4 view .LVU290
	ldr	r3, [r5]
	add	r3, r3, r0
	str	r3, [r5]
	.loc 1 611 3 is_stmt 1 discriminator 4 view .LVU291
	.loc 1 611 23 is_stmt 0 discriminator 4 view .LVU292
	ldr	r3, [r5, #4]
	subs	r0, r3, r0
.LVL92:
	.loc 1 611 23 discriminator 4 view .LVU293
	str	r0, [r5, #4]
	.loc 1 619 3 is_stmt 1 discriminator 4 view .LVU294
	.loc 1 619 6 is_stmt 0 discriminator 4 view .LVU295
	cmp	r7, r6
	beq	.L51
	.loc 1 622 3 is_stmt 1 view .LVU296
	mov	r0, r4
	bl	z_ready_thread
.LVL93:
	.loc 1 624 3 view .LVU297
.LBB291:
.LBI291:
	.loc 2 516 28 view .LVU298
.LBB292:
	.loc 2 518 2 view .LVU299
	.loc 2 520 2 view .LVU300
.LBB293:
.LBI293:
	.loc 2 266 19 view .LVU301
.LBB294:
	.loc 2 268 2 view .LVU302
	.loc 2 268 13 is_stmt 0 view .LVU303
	ldr	r4, [sp, #28]
.LVL94:
	.loc 2 268 13 view .LVU304
.LBE294:
.LBE293:
	.loc 2 520 5 view .LVU305
	add	r3, sp, #28
.LVL95:
	.loc 2 520 5 view .LVU306
	cmp	r4, r3
	beq	.L67
	.loc 2 521 3 is_stmt 1 view .LVU307
.LVL96:
	.loc 2 522 3 view .LVU308
.LBB295:
.LBI295:
	.loc 2 496 20 view .LVU309
.LBB296:
	.loc 2 498 2 view .LVU310
	.loc 2 498 21 is_stmt 0 view .LVU311
	ldr	r2, [r4, #4]
.LVL97:
	.loc 2 499 2 is_stmt 1 view .LVU312
	.loc 2 499 21 is_stmt 0 view .LVU313
	ldr	r3, [r4]
.LVL98:
	.loc 2 501 2 is_stmt 1 view .LVU314
	.loc 2 501 13 is_stmt 0 view .LVU315
	str	r3, [r2]
	.loc 2 502 2 is_stmt 1 view .LVU316
	.loc 2 502 13 is_stmt 0 view .LVU317
	str	r2, [r3, #4]
	.loc 2 503 2 is_stmt 1 view .LVU318
.LVL99:
.LBB297:
.LBI297:
	.loc 2 211 20 view .LVU319
.LBB298:
	.loc 2 213 2 view .LVU320
	.loc 2 213 13 is_stmt 0 view .LVU321
	movs	r3, #0
.LVL100:
	.loc 2 213 13 view .LVU322
	str	r3, [r4]
	.loc 2 214 2 is_stmt 1 view .LVU323
	.loc 2 214 13 is_stmt 0 view .LVU324
	str	r3, [r4, #4]
.LVL101:
.L53:
	.loc 2 214 13 view .LVU325
.LBE298:
.LBE297:
.LBE296:
.LBE295:
.LBE292:
.LBE291:
	.loc 1 602 8 is_stmt 1 view .LVU326
	cbz	r4, .L51
	.loc 1 602 25 is_stmt 0 discriminator 1 view .LVU327
	cmp	r6, r7
	bcs	.L51
	.loc 1 603 3 is_stmt 1 view .LVU328
	.loc 1 603 8 is_stmt 0 view .LVU329
	ldr	r5, [r4, #20]
.LVL102:
	.loc 1 604 3 is_stmt 1 view .LVU330
	.loc 1 604 32 is_stmt 0 view .LVU331
	cmp	r8, #0
	beq	.L73
	mov	r0, r6
	b	.L50
.LVL103:
.L65:
.LBB300:
.LBB286:
	.loc 2 518 15 view .LVU332
	movs	r4, #0
	b	.L53
.LVL104:
.L67:
	.loc 2 518 15 view .LVU333
.LBE286:
.LBE300:
.LBB301:
.LBB299:
	movs	r4, #0
	b	.L53
.LVL105:
.L51:
	.loc 2 518 15 view .LVU334
.LBE299:
.LBE301:
	.loc 1 627 2 is_stmt 1 view .LVU335
	.loc 1 627 14 is_stmt 0 view .LVU336
	ldr	r3, [sp, #36]
	.loc 1 627 5 view .LVU337
	cbz	r3, .L58
	.loc 1 627 22 discriminator 1 view .LVU338
	cmp	r6, r7
	bcs	.L58
	.loc 1 628 3 is_stmt 1 view .LVU339
	.loc 1 628 8 is_stmt 0 view .LVU340
	ldr	r5, [r3, #20]
.LVL106:
	.loc 1 629 3 is_stmt 1 view .LVU341
	.loc 1 629 32 is_stmt 0 view .LVU342
	cmp	r8, #0
	beq	.L68
	mov	r0, r6
.L56:
.LVL107:
	.loc 1 630 3 is_stmt 1 discriminator 4 view .LVU343
	.loc 1 630 18 is_stmt 0 discriminator 4 view .LVU344
	ldr	r3, [r5, #4]
	ldr	r2, [r5]
	subs	r1, r7, r6
	add	r0, r0, r8
.LVL108:
	.loc 1 630 18 discriminator 4 view .LVU345
	bl	pipe_xfer
.LVL109:
	.loc 1 634 3 is_stmt 1 discriminator 4 view .LVU346
	.loc 1 634 18 is_stmt 0 discriminator 4 view .LVU347
	add	r6, r6, r0
.LVL110:
	.loc 1 635 3 is_stmt 1 discriminator 4 view .LVU348
	.loc 1 635 16 is_stmt 0 discriminator 4 view .LVU349
	ldr	r3, [r5]
	add	r3, r3, r0
	str	r3, [r5]
	.loc 1 636 3 is_stmt 1 discriminator 4 view .LVU350
	.loc 1 636 23 is_stmt 0 discriminator 4 view .LVU351
	ldr	r3, [r5, #4]
	subs	r0, r3, r0
.LVL111:
	.loc 1 636 23 discriminator 4 view .LVU352
	str	r0, [r5, #4]
.LVL112:
.L58:
	.loc 1 644 8 is_stmt 1 view .LVU353
	cbz	r4, .L57
	.loc 1 645 3 view .LVU354
	.loc 1 645 8 is_stmt 0 view .LVU355
	ldr	r5, [r4, #20]
.LVL113:
	.loc 1 646 3 is_stmt 1 view .LVU356
	.loc 1 646 18 is_stmt 0 view .LVU357
	ldr	r2, [r5, #4]
	ldr	r1, [r5]
	mov	r0, r9
	bl	pipe_buffer_put
.LVL114:
	.loc 1 649 3 is_stmt 1 view .LVU358
	.loc 1 649 16 is_stmt 0 view .LVU359
	ldr	r3, [r5]
	add	r3, r3, r0
	str	r3, [r5]
	.loc 1 650 3 is_stmt 1 view .LVU360
	.loc 1 650 23 is_stmt 0 view .LVU361
	ldr	r3, [r5, #4]
	subs	r0, r3, r0
.LVL115:
	.loc 1 650 23 view .LVU362
	str	r0, [r5, #4]
	.loc 1 653 3 is_stmt 1 view .LVU363
	mov	r0, r4
	bl	z_ready_thread
.LVL116:
	.loc 1 655 3 view .LVU364
.LBB302:
.LBI302:
	.loc 2 516 28 view .LVU365
.LBB303:
	.loc 2 518 2 view .LVU366
	.loc 2 520 2 view .LVU367
.LBB304:
.LBI304:
	.loc 2 266 19 view .LVU368
.LBB305:
	.loc 2 268 2 view .LVU369
	.loc 2 268 13 is_stmt 0 view .LVU370
	ldr	r4, [sp, #28]
.LVL117:
	.loc 2 268 13 view .LVU371
.LBE305:
.LBE304:
	.loc 2 520 5 view .LVU372
	add	r3, sp, #28
.LVL118:
	.loc 2 520 5 view .LVU373
	cmp	r4, r3
	beq	.L57
	.loc 2 521 3 is_stmt 1 view .LVU374
.LVL119:
	.loc 2 522 3 view .LVU375
.LBB306:
.LBI306:
	.loc 2 496 20 view .LVU376
.LBB307:
	.loc 2 498 2 view .LVU377
	.loc 2 498 21 is_stmt 0 view .LVU378
	ldr	r2, [r4, #4]
.LVL120:
	.loc 2 499 2 is_stmt 1 view .LVU379
	.loc 2 499 21 is_stmt 0 view .LVU380
	ldr	r3, [r4]
.LVL121:
	.loc 2 501 2 is_stmt 1 view .LVU381
	.loc 2 501 13 is_stmt 0 view .LVU382
	str	r3, [r2]
	.loc 2 502 2 is_stmt 1 view .LVU383
	.loc 2 502 13 is_stmt 0 view .LVU384
	str	r2, [r3, #4]
	.loc 2 503 2 is_stmt 1 view .LVU385
.LVL122:
.LBB308:
.LBI308:
	.loc 2 211 20 view .LVU386
.LBB309:
	.loc 2 213 2 view .LVU387
	.loc 2 213 13 is_stmt 0 view .LVU388
	movs	r3, #0
.LVL123:
	.loc 2 213 13 view .LVU389
	str	r3, [r4]
	.loc 2 214 2 is_stmt 1 view .LVU390
	.loc 2 214 13 is_stmt 0 view .LVU391
	str	r3, [r4, #4]
.LVL124:
	.loc 2 214 13 view .LVU392
.LBE309:
.LBE308:
.LBE307:
.LBE306:
	.loc 2 525 2 is_stmt 1 view .LVU393
	.loc 2 525 2 is_stmt 0 view .LVU394
	b	.L58
.L68:
	.loc 2 525 2 view .LVU395
.LBE303:
.LBE302:
	.loc 1 629 32 view .LVU396
	movs	r0, #0
	b	.L56
.LVL125:
.L57:
	.loc 1 658 2 is_stmt 1 view .LVU397
	.loc 1 658 13 is_stmt 0 view .LVU398
	ldr	r3, [sp, #36]
	.loc 1 658 5 view .LVU399
	cbz	r3, .L60
	.loc 1 659 3 is_stmt 1 view .LVU400
	.loc 1 659 8 is_stmt 0 view .LVU401
	ldr	r4, [r3, #20]
.LVL126:
	.loc 1 660 3 is_stmt 1 view .LVU402
	.loc 1 660 18 is_stmt 0 view .LVU403
	ldr	r2, [r4, #4]
	ldr	r1, [r4]
	mov	r0, r9
	bl	pipe_buffer_put
.LVL127:
	.loc 1 663 3 is_stmt 1 view .LVU404
	.loc 1 663 16 is_stmt 0 view .LVU405
	ldr	r3, [r4]
	add	r3, r3, r0
	str	r3, [r4]
	.loc 1 664 3 is_stmt 1 view .LVU406
	.loc 1 664 23 is_stmt 0 view .LVU407
	ldr	r3, [r4, #4]
	subs	r0, r3, r0
.LVL128:
	.loc 1 664 23 view .LVU408
	str	r0, [r4, #4]
.LVL129:
.L60:
	.loc 1 667 2 is_stmt 1 view .LVU409
	.loc 1 667 5 is_stmt 0 view .LVU410
	cmp	r7, r6
	beq	.L74
	.loc 1 675 2 is_stmt 1 view .LVU411
.LBB310:
	.loc 1 675 5 is_stmt 0 view .LVU412
	ldrd	r3, [sp, #88]
	orrs	r3, r3, r4
	beq	.L62
	.loc 1 676 6 view .LVU413
	cmp	r10, r6
	bhi	.L62
	.loc 1 677 6 view .LVU414
	cmp	r10, #0
	bne	.L75
.L62:
.LBE310:
	.loc 1 698 2 is_stmt 1 view .LVU415
	.loc 1 700 2 view .LVU416
	.loc 1 700 37 is_stmt 0 view .LVU417
	add	r2, r8, r6
	.loc 1 700 19 view .LVU418
	str	r2, [sp, #20]
	.loc 1 701 2 is_stmt 1 view .LVU419
	.loc 1 701 42 is_stmt 0 view .LVU420
	subs	r6, r7, r6
	.loc 1 701 26 view .LVU421
	str	r6, [sp, #24]
	.loc 1 703 2 is_stmt 1 view .LVU422
.LBB311:
	.loc 1 703 5 is_stmt 0 view .LVU423
	ldrd	r3, [sp, #88]
	orrs	r3, r3, r4
	beq	.L63
.LBB312:
	.loc 1 704 3 is_stmt 1 view .LVU424
	.loc 1 704 8 view .LVU425
	.loc 1 704 16 view .LVU426
	.loc 1 706 3 view .LVU427
	.loc 1 706 18 is_stmt 0 view .LVU428
	ldr	r3, .L76
	ldr	r2, [r3, #8]
	.loc 1 706 43 view .LVU429
	add	r1, sp, #20
	str	r1, [r2, #20]
	.loc 1 707 3 is_stmt 1 view .LVU430
.LVL130:
.LBB313:
.LBI313:
	.loc 5 130 63 view .LVU431
.LBB314:
	.loc 5 132 2 view .LVU432
	.loc 5 133 2 view .LVU433
	.loc 5 139 2 view .LVU434
.LBB315:
.LBI315:
	.loc 6 43 59 view .LVU435
.LBB316:
	.loc 6 45 2 view .LVU436
	.loc 6 54 2 view .LVU437
	.loc 6 56 2 view .LVU438
	.syntax unified
@ 56 "/home/sebin/thesis/zephyrproject/zephyr/include/arch/arm/aarch32/asm_inline_gcc.h" 1
	mov r2, #4;mrs r1, BASEPRI;msr BASEPRI_MAX, r2;isb;
@ 0 "" 2
.LVL131:
	.loc 6 76 2 view .LVU439
	.loc 6 76 2 is_stmt 0 view .LVU440
	.thumb
	.syntax unified
.LBE316:
.LBE315:
	.loc 5 156 2 is_stmt 1 view .LVU441
	.loc 5 156 2 is_stmt 0 view .LVU442
.LBE314:
.LBE313:
	.loc 1 709 3 is_stmt 1 view .LVU443
.LBB317:
.LBI317:
	.loc 4 261 51 view .LVU444
.LBB318:
	.loc 4 263 4 view .LVU445
	.loc 4 263 5 view .LVU446
	.loc 4 264 4 view .LVU447
	.loc 4 264 5 view .LVU448
	.loc 4 266 2 view .LVU449
	.loc 4 266 7 view .LVU450
	.loc 4 266 55 view .LVU451
	.loc 4 268 2 view .LVU452
	.loc 4 268 19 is_stmt 0 view .LVU453
	ldr	r2, [r3, #8]
	.loc 4 268 33 view .LVU454
	ldrb	r3, [r2, #15]	@ zero_extendqisi2
	.loc 4 268 2 view .LVU455
	adds	r3, r3, #1
	strb	r3, [r2, #15]
.LBE318:
.LBE317:
	.loc 1 710 3 is_stmt 1 view .LVU456
	.loc 1 710 9 is_stmt 0 view .LVU457
	ldrd	r3, [sp, #88]
	strd	r3, [sp]
	add	r2, r9, #24
	mov	r0, fp
	bl	z_pend_curr
.LVL132:
.L64:
	.loc 1 710 9 view .LVU458
.LBE312:
.LBE311:
	.loc 1 716 2 is_stmt 1 discriminator 1 view .LVU459
	.loc 1 716 41 is_stmt 0 discriminator 1 view .LVU460
	ldr	r1, [sp, #24]
	.loc 1 716 30 discriminator 1 view .LVU461
	subs	r3, r7, r1
	.loc 1 716 14 discriminator 1 view .LVU462
	ldr	r2, [sp, #80]
	str	r3, [r2]
	.loc 1 718 2 is_stmt 1 discriminator 1 view .LVU463
	.loc 1 718 12 is_stmt 0 discriminator 1 view .LVU464
	mov	r2, r7
	mov	r0, r10
	bl	pipe_return_code
.LVL133:
	.loc 1 720 2 is_stmt 1 discriminator 1 view .LVU465
	.loc 1 720 7 discriminator 1 view .LVU466
	.loc 1 720 15 discriminator 1 view .LVU467
	.loc 1 721 2 discriminator 1 view .LVU468
.L46:
	.loc 1 722 1 is_stmt 0 view .LVU469
	add	sp, sp, #44
	.cfi_remember_state
	.cfi_def_cfa_offset 36
	@ sp needed
	pop	{r4, r5, r6, r7, r8, r9, r10, fp, pc}
.LVL134:
.L74:
	.cfi_restore_state
	.loc 1 668 3 is_stmt 1 view .LVU470
	bl	k_sched_unlock
.LVL135:
	.loc 1 670 3 view .LVU471
	.loc 1 670 15 is_stmt 0 view .LVU472
	ldr	r3, [sp, #80]
	str	r6, [r3]
	.loc 1 672 3 is_stmt 1 view .LVU473
	.loc 1 672 10 is_stmt 0 view .LVU474
	movs	r0, #0
	b	.L46
.L75:
.LBB319:
	.loc 1 678 3 is_stmt 1 view .LVU475
	bl	k_sched_unlock
.LVL136:
	.loc 1 680 3 view .LVU476
	.loc 1 680 15 is_stmt 0 view .LVU477
	ldr	r3, [sp, #80]
	str	r6, [r3]
	.loc 1 682 3 is_stmt 1 view .LVU478
	.loc 1 682 10 is_stmt 0 view .LVU479
	movs	r0, #0
	b	.L46
.L63:
	.loc 1 682 10 view .LVU480
.LBE319:
.LBB320:
	.loc 1 713 3 is_stmt 1 view .LVU481
	bl	k_sched_unlock
.LVL137:
	b	.L64
.L77:
	.align	2
.L76:
	.word	_kernel
.LBE320:
	.cfi_endproc
.LFE564:
	.size	pipe_get_internal, .-pipe_get_internal
	.section	.text.k_pipe_init,"ax",%progbits
	.align	1
	.global	k_pipe_init
	.syntax unified
	.thumb
	.thumb_func
	.fpu fpv4-sp-d16
	.type	k_pipe_init, %function
k_pipe_init:
.LVL138:
.LFB553:
	.loc 1 35 1 view -0
	.cfi_startproc
	@ args = 0, pretend = 0, frame = 0
	@ frame_needed = 0, uses_anonymous_args = 0
	@ link register save eliminated.
	.loc 1 36 2 view .LVU483
	.loc 1 36 15 is_stmt 0 view .LVU484
	str	r1, [r0]
	.loc 1 37 2 is_stmt 1 view .LVU485
	.loc 1 37 13 is_stmt 0 view .LVU486
	str	r2, [r0, #4]
	.loc 1 38 2 is_stmt 1 view .LVU487
	.loc 1 38 19 is_stmt 0 view .LVU488
	movs	r3, #0
	str	r3, [r0, #8]
	.loc 1 39 2 is_stmt 1 view .LVU489
	.loc 1 39 19 is_stmt 0 view .LVU490
	str	r3, [r0, #12]
	.loc 1 40 2 is_stmt 1 view .LVU491
	.loc 1 40 20 is_stmt 0 view .LVU492
	str	r3, [r0, #16]
	.loc 1 41 2 is_stmt 1 view .LVU493
	.loc 1 41 13 is_stmt 0 view .LVU494
	strb	r3, [r0, #20]
	.loc 1 42 2 is_stmt 1 view .LVU495
.LVL139:
.LBB321:
.LBI321:
	.loc 3 47 20 view .LVU496
.LBB322:
	.loc 3 49 2 view .LVU497
	add	r2, r0, #32
.LVL140:
.LBB323:
.LBI323:
	.loc 2 197 20 view .LVU498
.LBB324:
	.loc 2 199 2 view .LVU499
	.loc 2 199 13 is_stmt 0 view .LVU500
	str	r2, [r0, #32]
	.loc 2 200 2 is_stmt 1 view .LVU501
	.loc 2 200 13 is_stmt 0 view .LVU502
	str	r2, [r0, #36]
.LVL141:
	.loc 2 200 13 view .LVU503
.LBE324:
.LBE323:
.LBE322:
.LBE321:
	.loc 1 43 2 is_stmt 1 view .LVU504
.LBB325:
.LBI325:
	.loc 3 47 20 view .LVU505
.LBB326:
	.loc 3 49 2 view .LVU506
	add	r2, r0, #24
.LVL142:
.LBB327:
.LBI327:
	.loc 2 197 20 view .LVU507
.LBB328:
	.loc 2 199 2 view .LVU508
	.loc 2 199 13 is_stmt 0 view .LVU509
	str	r2, [r0, #24]
	.loc 2 200 2 is_stmt 1 view .LVU510
	.loc 2 200 13 is_stmt 0 view .LVU511
	str	r2, [r0, #28]
.LVL143:
	.loc 2 200 13 view .LVU512
.LBE328:
.LBE327:
.LBE326:
.LBE325:
	.loc 1 44 2 is_stmt 1 view .LVU513
	.loc 1 44 7 view .LVU514
	.loc 1 44 15 view .LVU515
	.loc 1 46 2 view .LVU516
	.loc 1 46 14 is_stmt 0 view .LVU517
	strb	r3, [r0, #40]
	.loc 1 47 2 is_stmt 1 view .LVU518
.LVL144:
	.file 7 "/home/sebin/thesis/zephyrproject/zephyr/include/sys/kobject.h"
	.loc 7 202 2 view .LVU519
	.loc 1 48 1 is_stmt 0 view .LVU520
	bx	lr
	.cfi_endproc
.LFE553:
	.size	k_pipe_init, .-k_pipe_init
	.section	.text.z_impl_k_pipe_alloc_init,"ax",%progbits
	.align	1
	.global	z_impl_k_pipe_alloc_init
	.syntax unified
	.thumb
	.thumb_func
	.fpu fpv4-sp-d16
	.type	z_impl_k_pipe_alloc_init, %function
z_impl_k_pipe_alloc_init:
.LVL145:
.LFB554:
	.loc 1 51 1 is_stmt 1 view -0
	.cfi_startproc
	@ args = 0, pretend = 0, frame = 0
	@ frame_needed = 0, uses_anonymous_args = 0
	.loc 1 51 1 is_stmt 0 view .LVU522
	push	{r3, r4, r5, lr}
	.cfi_def_cfa_offset 16
	.cfi_offset 3, -16
	.cfi_offset 4, -12
	.cfi_offset 5, -8
	.cfi_offset 14, -4
	mov	r4, r0
	.loc 1 52 2 is_stmt 1 view .LVU523
	.loc 1 53 2 view .LVU524
	.loc 1 55 2 view .LVU525
	.loc 1 55 7 view .LVU526
	.loc 1 55 15 view .LVU527
	.loc 1 57 2 view .LVU528
	.loc 1 57 5 is_stmt 0 view .LVU529
	cbz	r1, .L80
	mov	r5, r1
	.loc 1 58 3 is_stmt 1 view .LVU530
.LVL146:
.LBB329:
.LBI329:
	.file 8 "/home/sebin/thesis/zephyrproject/zephyr/kernel/include/kernel_internal.h"
	.loc 8 99 21 view .LVU531
.LBB330:
	.loc 8 101 2 view .LVU532
	.loc 8 101 9 is_stmt 0 view .LVU533
	movs	r0, #0
.LVL147:
	.loc 8 101 9 view .LVU534
	bl	z_thread_aligned_alloc
.LVL148:
	.loc 8 101 9 view .LVU535
.LBE330:
.LBE329:
	.loc 1 59 3 is_stmt 1 view .LVU536
	.loc 1 59 6 is_stmt 0 view .LVU537
	mov	r1, r0
	cbz	r0, .L82
	.loc 1 60 4 is_stmt 1 view .LVU538
	mov	r2, r5
	mov	r0, r4
.LVL149:
	.loc 1 60 4 is_stmt 0 view .LVU539
	bl	k_pipe_init
.LVL150:
	.loc 1 61 4 is_stmt 1 view .LVU540
	.loc 1 61 16 is_stmt 0 view .LVU541
	movs	r3, #1
	strb	r3, [r4, #40]
	.loc 1 62 4 is_stmt 1 view .LVU542
.LVL151:
	.loc 1 62 8 is_stmt 0 view .LVU543
	movs	r0, #0
	b	.L79
.LVL152:
.L80:
	.loc 1 67 3 is_stmt 1 view .LVU544
	movs	r2, #0
	mov	r1, r2
.LVL153:
	.loc 1 67 3 is_stmt 0 view .LVU545
	bl	k_pipe_init
.LVL154:
	.loc 1 68 3 is_stmt 1 view .LVU546
	.loc 1 68 7 is_stmt 0 view .LVU547
	movs	r0, #0
.LVL155:
.L79:
	.loc 1 74 1 view .LVU548
	pop	{r3, r4, r5, pc}
.LVL156:
.L82:
	.loc 1 64 8 view .LVU549
	mvn	r0, #11
.LVL157:
	.loc 1 71 2 is_stmt 1 view .LVU550
	.loc 1 71 7 view .LVU551
	.loc 1 71 15 view .LVU552
	.loc 1 73 2 view .LVU553
	.loc 1 73 9 is_stmt 0 view .LVU554
	b	.L79
	.cfi_endproc
.LFE554:
	.size	z_impl_k_pipe_alloc_init, .-z_impl_k_pipe_alloc_init
	.section	.text.z_impl_k_pipe_flush,"ax",%progbits
	.align	1
	.global	z_impl_k_pipe_flush
	.syntax unified
	.thumb
	.thumb_func
	.fpu fpv4-sp-d16
	.type	z_impl_k_pipe_flush, %function
z_impl_k_pipe_flush:
.LVL158:
.LFB555:
	.loc 1 87 1 is_stmt 1 view -0
	.cfi_startproc
	@ args = 0, pretend = 0, frame = 8
	@ frame_needed = 0, uses_anonymous_args = 0
	.loc 1 87 1 is_stmt 0 view .LVU556
	push	{lr}
	.cfi_def_cfa_offset 4
	.cfi_offset 14, -4
	sub	sp, sp, #28
	.cfi_def_cfa_offset 32
	mov	r1, r0
	.loc 1 88 2 is_stmt 1 view .LVU557
	.loc 1 90 2 view .LVU558
	.loc 1 90 7 view .LVU559
	.loc 1 90 15 view .LVU560
	.loc 1 92 2 view .LVU561
.LVL159:
.LBB331:
.LBI331:
	.loc 5 130 63 view .LVU562
.LBB332:
	.loc 5 132 2 view .LVU563
	.loc 5 133 2 view .LVU564
	.loc 5 139 2 view .LVU565
.LBB333:
.LBI333:
	.loc 6 43 59 view .LVU566
.LBB334:
	.loc 6 45 2 view .LVU567
	.loc 6 54 2 view .LVU568
	.loc 6 56 2 view .LVU569
	.syntax unified
@ 56 "/home/sebin/thesis/zephyrproject/zephyr/include/arch/arm/aarch32/asm_inline_gcc.h" 1
	mov r3, #4;mrs r0, BASEPRI;msr BASEPRI_MAX, r3;isb;
@ 0 "" 2
.LVL160:
	.loc 6 76 2 view .LVU570
	.loc 6 76 2 is_stmt 0 view .LVU571
	.thumb
	.syntax unified
.LBE334:
.LBE333:
	.loc 5 156 2 is_stmt 1 view .LVU572
	.loc 5 156 2 is_stmt 0 view .LVU573
.LBE332:
.LBE331:
	.loc 1 94 2 is_stmt 1 view .LVU574
	.loc 1 95 21 is_stmt 0 view .LVU575
	movs	r2, #0
	movs	r3, #0
	.loc 1 94 9 view .LVU576
	strd	r2, [sp, #8]
	str	r2, [sp, #4]
	add	r3, sp, #20
	str	r3, [sp]
	mov	r3, #-1
	bl	pipe_get_internal
.LVL161:
	.loc 1 97 2 is_stmt 1 view .LVU577
	.loc 1 97 7 view .LVU578
	.loc 1 97 15 view .LVU579
	.loc 1 98 1 is_stmt 0 view .LVU580
	add	sp, sp, #28
	.cfi_def_cfa_offset 4
	@ sp needed
	ldr	pc, [sp], #4
	.cfi_endproc
.LFE555:
	.size	z_impl_k_pipe_flush, .-z_impl_k_pipe_flush
	.section	.text.z_impl_k_pipe_buffer_flush,"ax",%progbits
	.align	1
	.global	z_impl_k_pipe_buffer_flush
	.syntax unified
	.thumb
	.thumb_func
	.fpu fpv4-sp-d16
	.type	z_impl_k_pipe_buffer_flush, %function
z_impl_k_pipe_buffer_flush:
.LVL162:
.LFB556:
	.loc 1 111 1 is_stmt 1 view -0
	.cfi_startproc
	@ args = 0, pretend = 0, frame = 8
	@ frame_needed = 0, uses_anonymous_args = 0
	.loc 1 111 1 is_stmt 0 view .LVU582
	mov	r1, r0
	.loc 1 112 2 is_stmt 1 view .LVU583
	.loc 1 114 2 view .LVU584
	.loc 1 114 7 view .LVU585
	.loc 1 114 15 view .LVU586
	.loc 1 116 2 view .LVU587
.LVL163:
.LBB335:
.LBI335:
	.loc 5 130 63 view .LVU588
.LBB336:
	.loc 5 132 2 view .LVU589
	.loc 5 133 2 view .LVU590
	.loc 5 139 2 view .LVU591
.LBB337:
.LBI337:
	.loc 6 43 59 view .LVU592
.LBB338:
	.loc 6 45 2 view .LVU593
	.loc 6 54 2 view .LVU594
	.loc 6 56 2 view .LVU595
	.syntax unified
@ 56 "/home/sebin/thesis/zephyrproject/zephyr/include/arch/arm/aarch32/asm_inline_gcc.h" 1
	mov r3, #4;mrs r0, BASEPRI;msr BASEPRI_MAX, r3;isb;
@ 0 "" 2
.LVL164:
	.loc 6 76 2 view .LVU596
	.loc 6 76 2 is_stmt 0 view .LVU597
	.thumb
	.syntax unified
.LBE338:
.LBE337:
	.loc 5 156 2 is_stmt 1 view .LVU598
	.loc 5 156 2 is_stmt 0 view .LVU599
.LBE336:
.LBE335:
	.loc 1 118 2 is_stmt 1 view .LVU600
	.loc 1 118 10 is_stmt 0 view .LVU601
	ldr	r3, [r1]
	.loc 1 118 5 view .LVU602
	cbz	r3, .L89
	.loc 1 111 1 view .LVU603
	push	{lr}
	.cfi_def_cfa_offset 4
	.cfi_offset 14, -4
	sub	sp, sp, #28
	.cfi_def_cfa_offset 32
.LBB339:
	.loc 1 119 3 is_stmt 1 view .LVU604
	.loc 1 120 38 is_stmt 0 view .LVU605
	movs	r2, #0
	movs	r3, #0
	.loc 1 119 10 view .LVU606
	strd	r2, [sp, #8]
	str	r2, [sp, #4]
	add	r3, sp, #20
	str	r3, [sp]
	ldr	r3, [r1, #4]
	bl	pipe_get_internal
.LVL165:
	.loc 1 119 10 view .LVU607
.LBE339:
	.loc 1 123 2 is_stmt 1 view .LVU608
	.loc 1 123 7 view .LVU609
	.loc 1 123 15 view .LVU610
	.loc 1 124 1 is_stmt 0 view .LVU611
	add	sp, sp, #28
	.cfi_def_cfa_offset 4
	@ sp needed
	ldr	pc, [sp], #4
.LVL166:
.L89:
	.cfi_def_cfa_offset 0
	.cfi_restore 14
	.loc 1 124 1 view .LVU612
	bx	lr
	.cfi_endproc
.LFE556:
	.size	z_impl_k_pipe_buffer_flush, .-z_impl_k_pipe_buffer_flush
	.section	.text.k_pipe_cleanup,"ax",%progbits
	.align	1
	.global	k_pipe_cleanup
	.syntax unified
	.thumb
	.thumb_func
	.fpu fpv4-sp-d16
	.type	k_pipe_cleanup, %function
k_pipe_cleanup:
.LVL167:
.LFB557:
	.loc 1 136 1 is_stmt 1 view -0
	.cfi_startproc
	@ args = 0, pretend = 0, frame = 0
	@ frame_needed = 0, uses_anonymous_args = 0
	.loc 1 136 1 is_stmt 0 view .LVU614
	push	{r3, r4, r5, lr}
	.cfi_def_cfa_offset 16
	.cfi_offset 3, -16
	.cfi_offset 4, -12
	.cfi_offset 5, -8
	.cfi_offset 14, -4
	mov	r4, r0
	.loc 1 137 2 is_stmt 1 view .LVU615
	.loc 1 137 7 view .LVU616
	.loc 1 137 15 view .LVU617
	.loc 1 139 2 view .LVU618
.LVL168:
.LBB340:
.LBI340:
	.loc 5 130 63 view .LVU619
.LBB341:
	.loc 5 132 2 view .LVU620
	.loc 5 133 2 view .LVU621
	.loc 5 139 2 view .LVU622
.LBB342:
.LBI342:
	.loc 6 43 59 view .LVU623
.LBB343:
	.loc 6 45 2 view .LVU624
	.loc 6 54 2 view .LVU625
	.loc 6 56 2 view .LVU626
	.syntax unified
@ 56 "/home/sebin/thesis/zephyrproject/zephyr/include/arch/arm/aarch32/asm_inline_gcc.h" 1
	mov r3, #4;mrs r5, BASEPRI;msr BASEPRI_MAX, r3;isb;
@ 0 "" 2
.LVL169:
	.loc 6 76 2 view .LVU627
	.loc 6 76 2 is_stmt 0 view .LVU628
	.thumb
	.syntax unified
.LBE343:
.LBE342:
	.loc 5 156 2 is_stmt 1 view .LVU629
	.loc 5 156 2 is_stmt 0 view .LVU630
.LBE341:
.LBE340:
	.loc 1 141 2 is_stmt 1 view .LVU631
.LBB344:
.LBI344:
	.loc 3 52 32 view .LVU632
.LBB345:
	.loc 3 54 2 view .LVU633
	.loc 3 54 28 is_stmt 0 view .LVU634
	add	r2, r0, #24
.LVL170:
.LBB346:
.LBI346:
	.loc 2 294 28 is_stmt 1 view .LVU635
.LBB347:
	.loc 2 296 2 view .LVU636
.LBB348:
.LBI348:
	.loc 2 266 19 view .LVU637
.LBB349:
	.loc 2 268 2 view .LVU638
	.loc 2 268 13 is_stmt 0 view .LVU639
	ldr	r3, [r0, #24]
.LVL171:
	.loc 2 268 13 view .LVU640
.LBE349:
.LBE348:
	.loc 2 296 40 view .LVU641
	cmp	r2, r3
	beq	.L93
.LVL172:
	.loc 2 296 40 view .LVU642
.LBE347:
.LBE346:
.LBE345:
.LBE344:
	.loc 1 141 5 view .LVU643
	cbnz	r3, .L94
.L93:
.LVL173:
.LBB350:
.LBI350:
	.loc 3 52 32 is_stmt 1 discriminator 1 view .LVU644
.LBB351:
	.loc 3 54 2 discriminator 1 view .LVU645
	.loc 3 54 28 is_stmt 0 discriminator 1 view .LVU646
	add	r3, r4, #32
.LVL174:
.LBB352:
.LBI352:
	.loc 2 294 28 is_stmt 1 discriminator 1 view .LVU647
.LBB353:
	.loc 2 296 2 discriminator 1 view .LVU648
.LBB354:
.LBI354:
	.loc 2 266 19 discriminator 1 view .LVU649
.LBB355:
	.loc 2 268 2 discriminator 1 view .LVU650
	.loc 2 268 13 is_stmt 0 discriminator 1 view .LVU651
	ldr	r2, [r4, #32]
.LBE355:
.LBE354:
	.loc 2 296 40 discriminator 1 view .LVU652
	cmp	r3, r2
	beq	.L95
.LVL175:
	.loc 2 296 40 discriminator 1 view .LVU653
.LBE353:
.LBE352:
.LBE351:
.LBE350:
	.loc 1 141 1 view .LVU654
	cbnz	r2, .L94
.L95:
	.loc 1 150 2 is_stmt 1 view .LVU655
	.loc 1 150 11 is_stmt 0 view .LVU656
	ldrb	r3, [r4, #40]	@ zero_extendqisi2
	.loc 1 150 5 view .LVU657
	tst	r3, #1
	bne	.L99
.LVL176:
.L97:
	.loc 1 166 2 is_stmt 1 view .LVU658
.LBB356:
.LBI356:
	.loc 5 180 51 view .LVU659
.LBE356:
	.loc 5 183 2 view .LVU660
	.loc 5 198 2 view .LVU661
.LBB359:
.LBB357:
.LBI357:
	.loc 6 84 51 view .LVU662
.LBB358:
	.loc 6 95 2 view .LVU663
	.syntax unified
@ 95 "/home/sebin/thesis/zephyrproject/zephyr/include/arch/arm/aarch32/asm_inline_gcc.h" 1
	msr BASEPRI, r5;isb;
@ 0 "" 2
.LVL177:
	.loc 6 95 2 is_stmt 0 view .LVU664
	.thumb
	.syntax unified
.LBE358:
.LBE357:
.LBE359:
	.loc 1 168 2 is_stmt 1 view .LVU665
	.loc 1 168 7 view .LVU666
	.loc 1 168 15 view .LVU667
	.loc 1 170 2 view .LVU668
	.loc 1 170 9 is_stmt 0 view .LVU669
	movs	r0, #0
.L92:
	.loc 1 171 1 view .LVU670
	pop	{r3, r4, r5, pc}
.LVL178:
.L94:
	.loc 1 143 3 is_stmt 1 view .LVU671
.LBB360:
.LBI360:
	.loc 5 180 51 view .LVU672
.LBE360:
	.loc 5 183 2 view .LVU673
	.loc 5 198 2 view .LVU674
.LBB363:
.LBB361:
.LBI361:
	.loc 6 84 51 view .LVU675
.LBB362:
	.loc 6 95 2 view .LVU676
	.syntax unified
@ 95 "/home/sebin/thesis/zephyrproject/zephyr/include/arch/arm/aarch32/asm_inline_gcc.h" 1
	msr BASEPRI, r5;isb;
@ 0 "" 2
.LVL179:
	.loc 6 95 2 is_stmt 0 view .LVU677
	.thumb
	.syntax unified
.LBE362:
.LBE361:
.LBE363:
	.loc 1 145 3 is_stmt 1 view .LVU678
	.loc 1 145 8 view .LVU679
	.loc 1 145 16 view .LVU680
	.loc 1 147 3 view .LVU681
	.loc 1 147 10 is_stmt 0 view .LVU682
	mvn	r0, #10
.LVL180:
	.loc 1 147 10 view .LVU683
	b	.L92
.LVL181:
.L99:
	.loc 1 151 3 is_stmt 1 view .LVU684
	ldr	r0, [r4]
.LVL182:
	.loc 1 151 3 is_stmt 0 view .LVU685
	bl	k_free
.LVL183:
	.loc 1 152 3 is_stmt 1 view .LVU686
	.loc 1 152 16 is_stmt 0 view .LVU687
	movs	r3, #0
	str	r3, [r4]
	.loc 1 159 3 is_stmt 1 view .LVU688
	.loc 1 159 14 is_stmt 0 view .LVU689
	str	r3, [r4, #4]
	.loc 1 160 3 is_stmt 1 view .LVU690
	.loc 1 160 20 is_stmt 0 view .LVU691
	str	r3, [r4, #8]
	.loc 1 161 3 is_stmt 1 view .LVU692
	.loc 1 161 20 is_stmt 0 view .LVU693
	str	r3, [r4, #12]
	.loc 1 162 3 is_stmt 1 view .LVU694
	.loc 1 162 21 is_stmt 0 view .LVU695
	str	r3, [r4, #16]
	.loc 1 163 3 is_stmt 1 view .LVU696
	.loc 1 163 15 is_stmt 0 view .LVU697
	ldrb	r3, [r4, #40]	@ zero_extendqisi2
	bic	r3, r3, #1
	strb	r3, [r4, #40]
	b	.L97
	.cfi_endproc
.LFE557:
	.size	k_pipe_cleanup, .-k_pipe_cleanup
	.section	.text.z_impl_k_pipe_put,"ax",%progbits
	.align	1
	.global	z_impl_k_pipe_put
	.syntax unified
	.thumb
	.thumb_func
	.fpu fpv4-sp-d16
	.type	z_impl_k_pipe_put, %function
z_impl_k_pipe_put:
.LVL184:
.LFB563:
	.loc 1 398 1 is_stmt 1 view -0
	.cfi_startproc
	@ args = 16, pretend = 0, frame = 32
	@ frame_needed = 0, uses_anonymous_args = 0
	.loc 1 398 1 is_stmt 0 view .LVU699
	push	{r4, r5, r6, r7, r8, r9, r10, fp, lr}
	.cfi_def_cfa_offset 36
	.cfi_offset 4, -36
	.cfi_offset 5, -32
	.cfi_offset 6, -28
	.cfi_offset 7, -24
	.cfi_offset 8, -20
	.cfi_offset 9, -16
	.cfi_offset 10, -12
	.cfi_offset 11, -8
	.cfi_offset 14, -4
	sub	sp, sp, #52
	.cfi_def_cfa_offset 88
	ldr	fp, [sp, #88]
	.loc 1 399 2 is_stmt 1 view .LVU700
	.loc 1 400 2 view .LVU701
	.loc 1 401 2 view .LVU702
	.loc 1 402 2 view .LVU703
.LVL185:
	.loc 1 403 2 view .LVU704
	.loc 1 405 2 view .LVU705
	.loc 1 405 7 view .LVU706
	.loc 1 405 15 view .LVU707
	.loc 1 407 2 view .LVU708
	.loc 1 407 5 is_stmt 0 view .LVU709
	cmp	fp, r2
	bhi	.L112
	mov	r9, r0
	mov	r8, r1
	mov	r7, r2
	mov	r10, r3
	.loc 1 407 34 discriminator 1 view .LVU710
	cmp	r3, #0
	beq	.L113
	.loc 1 413 2 is_stmt 1 view .LVU711
	.loc 1 413 25 is_stmt 0 view .LVU712
	add	r3, r0, #20
.LVL186:
	.loc 1 413 25 view .LVU713
	str	r3, [sp, #20]
.LVL187:
.LBB364:
.LBI364:
	.loc 5 130 63 is_stmt 1 view .LVU714
.LBB365:
	.loc 5 132 2 view .LVU715
	.loc 5 133 2 view .LVU716
	.loc 5 139 2 view .LVU717
.LBB366:
.LBI366:
	.loc 6 43 59 view .LVU718
.LBB367:
	.loc 6 45 2 view .LVU719
	.loc 6 54 2 view .LVU720
	.loc 6 56 2 view .LVU721
	.syntax unified
@ 56 "/home/sebin/thesis/zephyrproject/zephyr/include/arch/arm/aarch32/asm_inline_gcc.h" 1
	mov r3, #4;mrs r4, BASEPRI;msr BASEPRI_MAX, r3;isb;
@ 0 "" 2
.LVL188:
	.loc 6 76 2 view .LVU722
	.loc 6 76 2 is_stmt 0 view .LVU723
	.thumb
	.syntax unified
.LBE367:
.LBE366:
	.loc 5 156 2 is_stmt 1 view .LVU724
	.loc 5 156 2 is_stmt 0 view .LVU725
.LBE365:
.LBE364:
	.loc 1 420 2 is_stmt 1 view .LVU726
	.loc 1 421 9 is_stmt 0 view .LVU727
	ldr	r2, [r0, #4]
.LVL189:
	.loc 1 421 22 view .LVU728
	ldr	r3, [r0, #8]
	.loc 1 420 7 view .LVU729
	ldrd	r0, [sp, #96]
.LVL190:
	.loc 1 420 7 view .LVU730
	strd	r0, [sp, #8]
	str	fp, [sp, #4]
	str	r7, [sp]
	subs	r3, r2, r3
	add	r2, r9, #24
	add	r1, sp, #44
.LVL191:
	.loc 1 420 7 view .LVU731
	add	r0, sp, #36
	bl	pipe_xfer_prepare
.LVL192:
	.loc 1 420 5 view .LVU732
	cbz	r0, .L117
	.loc 1 431 2 is_stmt 1 view .LVU733
	.loc 1 431 7 view .LVU734
	.loc 1 431 15 view .LVU735
	.loc 1 433 2 view .LVU736
.LBB368:
.LBI368:
	.loc 4 251 20 view .LVU737
.LBB369:
	.loc 4 253 4 view .LVU738
	.loc 4 253 5 view .LVU739
	.loc 4 254 4 view .LVU740
	.loc 4 254 5 view .LVU741
	.loc 4 256 2 view .LVU742
	.loc 4 256 19 is_stmt 0 view .LVU743
	ldr	r3, .L121
	ldr	r2, [r3, #8]
	.loc 4 256 33 view .LVU744
	ldrb	r3, [r2, #15]	@ zero_extendqisi2
	.loc 4 256 2 view .LVU745
	subs	r3, r3, #1
	strb	r3, [r2, #15]
	.loc 4 258 2 is_stmt 1 view .LVU746
	.loc 4 258 7 view .LVU747
	.loc 4 258 55 view .LVU748
.LBE369:
.LBE368:
	.loc 1 434 2 view .LVU749
.LVL193:
.LBB370:
.LBI370:
	.loc 5 180 51 view .LVU750
.LBB371:
	.loc 5 183 2 view .LVU751
	.loc 5 198 2 view .LVU752
.LBB372:
.LBI372:
	.loc 6 84 51 view .LVU753
.LBB373:
	.loc 6 95 2 view .LVU754
	.loc 6 95 2 is_stmt 0 view .LVU755
	.syntax unified
@ 95 "/home/sebin/thesis/zephyrproject/zephyr/include/arch/arm/aarch32/asm_inline_gcc.h" 1
	msr BASEPRI, r4;isb;
@ 0 "" 2
.LVL194:
	.loc 6 95 2 view .LVU756
	.thumb
	.syntax unified
.LBE373:
.LBE372:
.LBE371:
.LBE370:
	.loc 1 448 2 is_stmt 1 view .LVU757
.LBB374:
.LBI374:
	.loc 2 516 28 view .LVU758
.LBB375:
	.loc 2 518 2 view .LVU759
	.loc 2 520 2 view .LVU760
.LBB376:
.LBI376:
	.loc 2 266 19 view .LVU761
.LBB377:
	.loc 2 268 2 view .LVU762
	.loc 2 268 13 is_stmt 0 view .LVU763
	ldr	r4, [sp, #36]
.LVL195:
	.loc 2 268 13 view .LVU764
.LBE377:
.LBE376:
	.loc 2 520 5 view .LVU765
	add	r3, sp, #36
.LVL196:
	.loc 2 520 5 view .LVU766
	cmp	r4, r3
	beq	.L114
	.loc 2 521 3 is_stmt 1 view .LVU767
.LVL197:
	.loc 2 522 3 view .LVU768
.LBB378:
.LBI378:
	.loc 2 496 20 view .LVU769
.LBB379:
	.loc 2 498 2 view .LVU770
	.loc 2 498 21 is_stmt 0 view .LVU771
	ldr	r2, [r4, #4]
.LVL198:
	.loc 2 499 2 is_stmt 1 view .LVU772
	.loc 2 499 21 is_stmt 0 view .LVU773
	ldr	r3, [r4]
.LVL199:
	.loc 2 501 2 is_stmt 1 view .LVU774
	.loc 2 501 13 is_stmt 0 view .LVU775
	str	r3, [r2]
	.loc 2 502 2 is_stmt 1 view .LVU776
	.loc 2 502 13 is_stmt 0 view .LVU777
	str	r2, [r3, #4]
	.loc 2 503 2 is_stmt 1 view .LVU778
.LVL200:
.LBB380:
.LBI380:
	.loc 2 211 20 view .LVU779
.LBB381:
	.loc 2 213 2 view .LVU780
	.loc 2 213 13 is_stmt 0 view .LVU781
	movs	r3, #0
.LVL201:
	.loc 2 213 13 view .LVU782
	str	r3, [r4]
	.loc 2 214 2 is_stmt 1 view .LVU783
	.loc 2 214 13 is_stmt 0 view .LVU784
	str	r3, [r4, #4]
.LVL202:
.L103:
	.loc 2 214 13 view .LVU785
.LBE381:
.LBE380:
.LBE379:
.LBE378:
.LBE375:
.LBE374:
.LBB383:
.LBB384:
	.loc 2 518 15 view .LVU786
	movs	r6, #0
	b	.L105
.LVL203:
.L117:
	.loc 2 518 15 view .LVU787
.LBE384:
.LBE383:
	.loc 1 423 3 is_stmt 1 view .LVU788
.LBB393:
.LBI393:
	.loc 5 180 51 view .LVU789
.LBE393:
	.loc 5 183 2 view .LVU790
	.loc 5 198 2 view .LVU791
.LBB396:
.LBB394:
.LBI394:
	.loc 6 84 51 view .LVU792
.LBB395:
	.loc 6 95 2 view .LVU793
	.syntax unified
@ 95 "/home/sebin/thesis/zephyrproject/zephyr/include/arch/arm/aarch32/asm_inline_gcc.h" 1
	msr BASEPRI, r4;isb;
@ 0 "" 2
.LVL204:
	.loc 6 95 2 is_stmt 0 view .LVU794
	.thumb
	.syntax unified
.LBE395:
.LBE394:
.LBE396:
	.loc 1 424 3 is_stmt 1 view .LVU795
	.loc 1 424 18 is_stmt 0 view .LVU796
	movs	r3, #0
	str	r3, [r10]
	.loc 1 426 3 is_stmt 1 view .LVU797
	.loc 1 426 8 view .LVU798
	.loc 1 426 16 view .LVU799
	.loc 1 428 3 view .LVU800
	.loc 1 428 10 is_stmt 0 view .LVU801
	mvn	r0, #4
	b	.L100
.LVL205:
.L114:
.LBB397:
.LBB382:
	.loc 2 518 15 view .LVU802
	movs	r4, #0
	b	.L103
.LVL206:
.L115:
	.loc 2 518 15 view .LVU803
.LBE382:
.LBE397:
.LBB398:
.LBB391:
	movs	r4, #0
.LVL207:
.L105:
	.loc 2 518 15 view .LVU804
.LBE391:
.LBE398:
	.loc 1 450 8 is_stmt 1 view .LVU805
	cbz	r4, .L118
	.loc 1 451 3 view .LVU806
	.loc 1 451 8 is_stmt 0 view .LVU807
	ldr	r5, [r4, #20]
.LVL208:
	.loc 1 452 3 is_stmt 1 view .LVU808
	.loc 1 452 18 is_stmt 0 view .LVU809
	subs	r3, r7, r6
	add	r2, r8, r6
	ldr	r1, [r5, #4]
	ldr	r0, [r5]
	bl	pipe_xfer
.LVL209:
	.loc 1 456 3 is_stmt 1 view .LVU810
	.loc 1 456 21 is_stmt 0 view .LVU811
	add	r6, r6, r0
.LVL210:
	.loc 1 457 3 is_stmt 1 view .LVU812
	.loc 1 457 16 is_stmt 0 view .LVU813
	ldr	r3, [r5]
	add	r3, r3, r0
	str	r3, [r5]
	.loc 1 458 3 is_stmt 1 view .LVU814
	.loc 1 458 23 is_stmt 0 view .LVU815
	ldr	r3, [r5, #4]
	subs	r0, r3, r0
.LVL211:
	.loc 1 458 23 view .LVU816
	str	r0, [r5, #4]
	.loc 1 461 3 is_stmt 1 view .LVU817
	mov	r0, r4
	bl	z_ready_thread
.LVL212:
	.loc 1 463 3 view .LVU818
.LBB399:
.LBI383:
	.loc 2 516 28 view .LVU819
.LBB392:
	.loc 2 518 2 view .LVU820
	.loc 2 520 2 view .LVU821
.LBB385:
.LBI385:
	.loc 2 266 19 view .LVU822
.LBB386:
	.loc 2 268 2 view .LVU823
	.loc 2 268 13 is_stmt 0 view .LVU824
	ldr	r4, [sp, #36]
.LVL213:
	.loc 2 268 13 view .LVU825
.LBE386:
.LBE385:
	.loc 2 520 5 view .LVU826
	add	r3, sp, #36
.LVL214:
	.loc 2 520 5 view .LVU827
	cmp	r4, r3
	beq	.L115
	.loc 2 521 3 is_stmt 1 view .LVU828
.LVL215:
	.loc 2 522 3 view .LVU829
.LBB387:
.LBI387:
	.loc 2 496 20 view .LVU830
.LBB388:
	.loc 2 498 2 view .LVU831
	.loc 2 498 21 is_stmt 0 view .LVU832
	ldr	r2, [r4, #4]
.LVL216:
	.loc 2 499 2 is_stmt 1 view .LVU833
	.loc 2 499 21 is_stmt 0 view .LVU834
	ldr	r3, [r4]
.LVL217:
	.loc 2 501 2 is_stmt 1 view .LVU835
	.loc 2 501 13 is_stmt 0 view .LVU836
	str	r3, [r2]
	.loc 2 502 2 is_stmt 1 view .LVU837
	.loc 2 502 13 is_stmt 0 view .LVU838
	str	r2, [r3, #4]
	.loc 2 503 2 is_stmt 1 view .LVU839
.LVL218:
.LBB389:
.LBI389:
	.loc 2 211 20 view .LVU840
.LBB390:
	.loc 2 213 2 view .LVU841
	.loc 2 213 13 is_stmt 0 view .LVU842
	movs	r3, #0
.LVL219:
	.loc 2 213 13 view .LVU843
	str	r3, [r4]
	.loc 2 214 2 is_stmt 1 view .LVU844
	.loc 2 214 13 is_stmt 0 view .LVU845
	str	r3, [r4, #4]
.LVL220:
	.loc 2 214 13 view .LVU846
.LBE390:
.LBE389:
	.loc 2 504 1 view .LVU847
	b	.L105
.LVL221:
.L118:
	.loc 2 504 1 view .LVU848
.LBE388:
.LBE387:
.LBE392:
.LBE399:
	.loc 1 470 2 is_stmt 1 view .LVU849
	.loc 1 470 13 is_stmt 0 view .LVU850
	ldr	r3, [sp, #44]
	.loc 1 470 5 view .LVU851
	cbz	r3, .L107
	.loc 1 471 3 is_stmt 1 view .LVU852
	.loc 1 471 8 is_stmt 0 view .LVU853
	ldr	r4, [r3, #20]
.LVL222:
	.loc 1 472 3 is_stmt 1 view .LVU854
	.loc 1 472 18 is_stmt 0 view .LVU855
	subs	r3, r7, r6
	add	r2, r8, r6
	ldr	r1, [r4, #4]
	ldr	r0, [r4]
	bl	pipe_xfer
.LVL223:
	.loc 1 476 3 is_stmt 1 view .LVU856
	.loc 1 476 21 is_stmt 0 view .LVU857
	add	r6, r6, r0
.LVL224:
	.loc 1 477 3 is_stmt 1 view .LVU858
	.loc 1 477 16 is_stmt 0 view .LVU859
	ldr	r3, [r4]
	add	r3, r3, r0
	str	r3, [r4]
	.loc 1 478 3 is_stmt 1 view .LVU860
	.loc 1 478 23 is_stmt 0 view .LVU861
	ldr	r3, [r4, #4]
	subs	r0, r3, r0
.LVL225:
	.loc 1 478 23 view .LVU862
	str	r0, [r4, #4]
.LVL226:
.L107:
	.loc 1 486 2 is_stmt 1 view .LVU863
	.loc 1 487 3 is_stmt 0 view .LVU864
	subs	r2, r7, r6
	add	r1, r8, r6
	mov	r0, r9
	bl	pipe_buffer_put
.LVL227:
	.loc 1 486 20 view .LVU865
	add	r6, r6, r0
.LVL228:
	.loc 1 490 2 is_stmt 1 view .LVU866
	.loc 1 490 5 is_stmt 0 view .LVU867
	cmp	r7, r6
	beq	.L119
	.loc 1 499 2 is_stmt 1 view .LVU868
.LBB400:
	.loc 1 499 5 is_stmt 0 view .LVU869
	ldrd	r3, [sp, #96]
	orrs	r3, r3, r4
	beq	.L109
	.loc 1 500 6 view .LVU870
	cmp	fp, r6
	bhi	.L109
	.loc 1 501 6 view .LVU871
	cmp	fp, #0
	bne	.L120
.L109:
.LBE400:
	.loc 1 512 2 is_stmt 1 view .LVU872
	.loc 1 514 2 view .LVU873
	.loc 1 514 37 is_stmt 0 view .LVU874
	add	r1, r8, r6
	.loc 1 514 19 view .LVU875
	str	r1, [sp, #28]
	.loc 1 515 2 is_stmt 1 view .LVU876
	.loc 1 515 43 is_stmt 0 view .LVU877
	subs	r6, r7, r6
.LVL229:
	.loc 1 515 26 view .LVU878
	str	r6, [sp, #32]
	.loc 1 517 2 is_stmt 1 view .LVU879
.LBB401:
	.loc 1 517 5 is_stmt 0 view .LVU880
	ldrd	r3, [sp, #96]
	orrs	r3, r3, r4
	beq	.L110
.LBB402:
	.loc 1 518 3 is_stmt 1 view .LVU881
	.loc 1 518 18 is_stmt 0 view .LVU882
	ldr	r3, .L121
	ldr	r2, [r3, #8]
	.loc 1 518 43 view .LVU883
	add	r1, sp, #28
	str	r1, [r2, #20]
	.loc 1 523 3 is_stmt 1 view .LVU884
.LVL230:
.LBB403:
.LBI403:
	.loc 5 130 63 view .LVU885
.LBB404:
	.loc 5 132 2 view .LVU886
	.loc 5 133 2 view .LVU887
	.loc 5 139 2 view .LVU888
.LBB405:
.LBI405:
	.loc 6 43 59 view .LVU889
.LBB406:
	.loc 6 45 2 view .LVU890
	.loc 6 54 2 view .LVU891
	.loc 6 56 2 view .LVU892
	.syntax unified
@ 56 "/home/sebin/thesis/zephyrproject/zephyr/include/arch/arm/aarch32/asm_inline_gcc.h" 1
	mov r2, #4;mrs r1, BASEPRI;msr BASEPRI_MAX, r2;isb;
@ 0 "" 2
.LVL231:
	.loc 6 76 2 view .LVU893
	.loc 6 76 2 is_stmt 0 view .LVU894
	.thumb
	.syntax unified
.LBE406:
.LBE405:
	.loc 5 156 2 is_stmt 1 view .LVU895
	.loc 5 156 2 is_stmt 0 view .LVU896
.LBE404:
.LBE403:
	.loc 1 524 3 is_stmt 1 view .LVU897
.LBB407:
.LBI407:
	.loc 4 261 51 view .LVU898
.LBB408:
	.loc 4 263 4 view .LVU899
	.loc 4 263 5 view .LVU900
	.loc 4 264 4 view .LVU901
	.loc 4 264 5 view .LVU902
	.loc 4 266 2 view .LVU903
	.loc 4 266 7 view .LVU904
	.loc 4 266 55 view .LVU905
	.loc 4 268 2 view .LVU906
	.loc 4 268 19 is_stmt 0 view .LVU907
	ldr	r2, [r3, #8]
	.loc 4 268 33 view .LVU908
	ldrb	r3, [r2, #15]	@ zero_extendqisi2
	.loc 4 268 2 view .LVU909
	adds	r3, r3, #1
	strb	r3, [r2, #15]
.LBE408:
.LBE407:
	.loc 1 525 3 is_stmt 1 view .LVU910
	.loc 1 525 9 is_stmt 0 view .LVU911
	ldrd	r3, [sp, #96]
	strd	r3, [sp]
	add	r2, r9, #32
	ldr	r0, [sp, #20]
	bl	z_pend_curr
.LVL232:
.L111:
	.loc 1 525 9 view .LVU912
.LBE402:
.LBE401:
	.loc 1 531 2 is_stmt 1 discriminator 1 view .LVU913
	.loc 1 531 45 is_stmt 0 discriminator 1 view .LVU914
	ldr	r1, [sp, #32]
	.loc 1 531 34 discriminator 1 view .LVU915
	subs	r3, r7, r1
	.loc 1 531 17 discriminator 1 view .LVU916
	str	r3, [r10]
	.loc 1 533 2 is_stmt 1 discriminator 1 view .LVU917
	.loc 1 533 12 is_stmt 0 discriminator 1 view .LVU918
	mov	r2, r7
	mov	r0, fp
	bl	pipe_return_code
.LVL233:
	.loc 1 535 2 is_stmt 1 discriminator 1 view .LVU919
	.loc 1 535 7 discriminator 1 view .LVU920
	.loc 1 535 15 discriminator 1 view .LVU921
	.loc 1 536 2 discriminator 1 view .LVU922
.L100:
	.loc 1 537 1 is_stmt 0 view .LVU923
	add	sp, sp, #52
	.cfi_remember_state
	.cfi_def_cfa_offset 36
	@ sp needed
	pop	{r4, r5, r6, r7, r8, r9, r10, fp, pc}
.LVL234:
.L119:
	.cfi_restore_state
	.loc 1 491 3 is_stmt 1 view .LVU924
	.loc 1 491 18 is_stmt 0 view .LVU925
	str	r6, [r10]
	.loc 1 492 3 is_stmt 1 view .LVU926
	bl	k_sched_unlock
.LVL235:
	.loc 1 494 3 view .LVU927
	.loc 1 494 8 view .LVU928
	.loc 1 494 16 view .LVU929
	.loc 1 496 3 view .LVU930
	.loc 1 496 10 is_stmt 0 view .LVU931
	movs	r0, #0
	b	.L100
.L120:
.LBB409:
	.loc 1 502 3 is_stmt 1 view .LVU932
	.loc 1 502 18 is_stmt 0 view .LVU933
	str	r6, [r10]
	.loc 1 503 3 is_stmt 1 view .LVU934
	bl	k_sched_unlock
.LVL236:
	.loc 1 505 3 view .LVU935
	.loc 1 505 8 view .LVU936
	.loc 1 505 16 view .LVU937
	.loc 1 507 3 view .LVU938
	.loc 1 507 10 is_stmt 0 view .LVU939
	movs	r0, #0
	b	.L100
.LVL237:
.L110:
	.loc 1 507 10 view .LVU940
.LBE409:
.LBB410:
	.loc 1 528 3 is_stmt 1 view .LVU941
	bl	k_sched_unlock
.LVL238:
	b	.L111
.LVL239:
.L112:
	.loc 1 528 3 is_stmt 0 view .LVU942
.LBE410:
	.loc 1 410 10 view .LVU943
	mvn	r0, #21
.LVL240:
	.loc 1 410 10 view .LVU944
	b	.L100
.LVL241:
.L113:
	.loc 1 410 10 view .LVU945
	mvn	r0, #21
.LVL242:
	.loc 1 410 10 view .LVU946
	b	.L100
.L122:
	.align	2
.L121:
	.word	_kernel
	.cfi_endproc
.LFE563:
	.size	z_impl_k_pipe_put, .-z_impl_k_pipe_put
	.section	.text.z_impl_k_pipe_get,"ax",%progbits
	.align	1
	.global	z_impl_k_pipe_get
	.syntax unified
	.thumb
	.thumb_func
	.fpu fpv4-sp-d16
	.type	z_impl_k_pipe_get, %function
z_impl_k_pipe_get:
.LVL243:
.LFB565:
	.loc 1 726 1 is_stmt 1 view -0
	.cfi_startproc
	@ args = 16, pretend = 0, frame = 0
	@ frame_needed = 0, uses_anonymous_args = 0
	.loc 1 726 1 is_stmt 0 view .LVU948
	push	{r4, r5, r6, r7, lr}
	.cfi_def_cfa_offset 20
	.cfi_offset 4, -20
	.cfi_offset 5, -16
	.cfi_offset 6, -12
	.cfi_offset 7, -8
	.cfi_offset 14, -4
	sub	sp, sp, #20
	.cfi_def_cfa_offset 40
	ldr	r6, [sp, #40]
	.loc 1 727 2 is_stmt 1 view .LVU949
	.loc 1 727 7 view .LVU950
	.loc 1 727 15 view .LVU951
	.loc 1 729 2 view .LVU952
	.loc 1 729 5 is_stmt 0 view .LVU953
	cmp	r6, r2
	bhi	.L125
	mov	r7, r0
	.loc 1 729 33 discriminator 1 view .LVU954
	cbz	r3, .L126
	.loc 1 736 2 is_stmt 1 view .LVU955
.LVL244:
.LBB411:
.LBI411:
	.loc 5 130 63 view .LVU956
.LBB412:
	.loc 5 132 2 view .LVU957
	.loc 5 133 2 view .LVU958
	.loc 5 139 2 view .LVU959
.LBB413:
.LBI413:
	.loc 6 43 59 view .LVU960
.LBB414:
	.loc 6 45 2 view .LVU961
	.loc 6 54 2 view .LVU962
	.loc 6 56 2 view .LVU963
	.syntax unified
@ 56 "/home/sebin/thesis/zephyrproject/zephyr/include/arch/arm/aarch32/asm_inline_gcc.h" 1
	mov r4, #4;mrs r0, BASEPRI;msr BASEPRI_MAX, r4;isb;
@ 0 "" 2
.LVL245:
	.loc 6 76 2 view .LVU964
	.loc 6 76 2 is_stmt 0 view .LVU965
	.thumb
	.syntax unified
.LBE414:
.LBE413:
	.loc 5 156 2 is_stmt 1 view .LVU966
	.loc 5 156 2 is_stmt 0 view .LVU967
.LBE412:
.LBE411:
	.loc 1 738 2 is_stmt 1 view .LVU968
	.loc 1 738 12 is_stmt 0 view .LVU969
	ldrd	r4, [sp, #48]
.LVL246:
	.loc 1 738 12 view .LVU970
	strd	r4, [sp, #8]
	str	r6, [sp, #4]
	str	r3, [sp]
	mov	r3, r2
.LVL247:
	.loc 1 738 12 view .LVU971
	mov	r2, r1
.LVL248:
	.loc 1 738 12 view .LVU972
	mov	r1, r7
.LVL249:
	.loc 1 738 12 view .LVU973
	bl	pipe_get_internal
.LVL250:
	.loc 1 741 2 is_stmt 1 view .LVU974
	.loc 1 741 7 view .LVU975
	.loc 1 741 15 view .LVU976
	.loc 1 743 2 view .LVU977
.L123:
	.loc 1 744 1 is_stmt 0 view .LVU978
	add	sp, sp, #20
	.cfi_remember_state
	.cfi_def_cfa_offset 20
	@ sp needed
	pop	{r4, r5, r6, r7, pc}
.LVL251:
.L125:
	.cfi_restore_state
	.loc 1 733 10 view .LVU979
	mvn	r0, #21
.LVL252:
	.loc 1 733 10 view .LVU980
	b	.L123
.LVL253:
.L126:
	.loc 1 733 10 view .LVU981
	mvn	r0, #21
.LVL254:
	.loc 1 733 10 view .LVU982
	b	.L123
	.cfi_endproc
.LFE565:
	.size	z_impl_k_pipe_get, .-z_impl_k_pipe_get
	.section	.text.z_impl_k_pipe_read_avail,"ax",%progbits
	.align	1
	.global	z_impl_k_pipe_read_avail
	.syntax unified
	.thumb
	.thumb_func
	.fpu fpv4-sp-d16
	.type	z_impl_k_pipe_read_avail, %function
z_impl_k_pipe_read_avail:
.LVL255:
.LFB566:
	.loc 1 762 1 is_stmt 1 view -0
	.cfi_startproc
	@ args = 0, pretend = 0, frame = 0
	@ frame_needed = 0, uses_anonymous_args = 0
	@ link register save eliminated.
	.loc 1 762 1 is_stmt 0 view .LVU984
	mov	r3, r0
	.loc 1 763 2 is_stmt 1 view .LVU985
	.loc 1 764 2 view .LVU986
	.loc 1 767 2 view .LVU987
	.loc 1 767 10 is_stmt 0 view .LVU988
	ldr	r2, [r0]
	.loc 1 767 5 view .LVU989
	cbz	r2, .L133
	.loc 1 767 33 discriminator 1 view .LVU990
	ldr	r0, [r0, #4]
.LVL256:
	.loc 1 767 26 discriminator 1 view .LVU991
	cbz	r0, .L128
	.loc 1 772 2 is_stmt 1 view .LVU992
.LVL257:
.LBB415:
.LBI415:
	.loc 5 130 63 view .LVU993
.LBB416:
	.loc 5 132 2 view .LVU994
	.loc 5 133 2 view .LVU995
	.loc 5 139 2 view .LVU996
.LBB417:
.LBI417:
	.loc 6 43 59 view .LVU997
.LBB418:
	.loc 6 45 2 view .LVU998
	.loc 6 54 2 view .LVU999
	.loc 6 56 2 view .LVU1000
	.syntax unified
@ 56 "/home/sebin/thesis/zephyrproject/zephyr/include/arch/arm/aarch32/asm_inline_gcc.h" 1
	mov r2, #4;mrs r1, BASEPRI;msr BASEPRI_MAX, r2;isb;
@ 0 "" 2
.LVL258:
	.loc 6 76 2 view .LVU1001
	.loc 6 76 2 is_stmt 0 view .LVU1002
	.thumb
	.syntax unified
.LBE418:
.LBE417:
	.loc 5 156 2 is_stmt 1 view .LVU1003
	.loc 5 156 2 is_stmt 0 view .LVU1004
.LBE416:
.LBE415:
	.loc 1 774 2 is_stmt 1 view .LVU1005
	.loc 1 774 10 is_stmt 0 view .LVU1006
	ldr	r2, [r3, #12]
	.loc 1 774 30 view .LVU1007
	ldr	r0, [r3, #16]
	.loc 1 774 5 view .LVU1008
	cmp	r2, r0
	beq	.L134
	.loc 1 776 9 is_stmt 1 view .LVU1009
	.loc 1 776 12 is_stmt 0 view .LVU1010
	cmp	r2, r0
	bcs	.L132
	.loc 1 777 3 is_stmt 1 view .LVU1011
	.loc 1 777 7 is_stmt 0 view .LVU1012
	subs	r0, r0, r2
.LVL259:
	.loc 1 777 7 view .LVU1013
	b	.L131
.LVL260:
.L134:
	.loc 1 775 3 is_stmt 1 view .LVU1014
	.loc 1 775 7 is_stmt 0 view .LVU1015
	ldr	r0, [r3, #8]
.LVL261:
.L131:
	.loc 1 782 2 is_stmt 1 view .LVU1016
.LBB419:
.LBI419:
	.loc 5 180 51 view .LVU1017
.LBE419:
	.loc 5 183 2 view .LVU1018
	.loc 5 198 2 view .LVU1019
.LBB422:
.LBB420:
.LBI420:
	.loc 6 84 51 view .LVU1020
.LBB421:
	.loc 6 95 2 view .LVU1021
	.syntax unified
@ 95 "/home/sebin/thesis/zephyrproject/zephyr/include/arch/arm/aarch32/asm_inline_gcc.h" 1
	msr BASEPRI, r1;isb;
@ 0 "" 2
.LVL262:
	.loc 6 95 2 is_stmt 0 view .LVU1022
	.thumb
	.syntax unified
	bx	lr
.LVL263:
.L132:
	.loc 6 95 2 view .LVU1023
.LBE421:
.LBE420:
.LBE422:
	.loc 1 779 3 is_stmt 1 view .LVU1024
	.loc 1 779 13 is_stmt 0 view .LVU1025
	ldr	r3, [r3, #4]
.LVL264:
	.loc 1 779 20 view .LVU1026
	subs	r0, r0, r2
	.loc 1 779 7 view .LVU1027
	add	r0, r0, r3
.LVL265:
	.loc 1 779 7 view .LVU1028
	b	.L131
.LVL266:
.L133:
	.loc 1 768 7 view .LVU1029
	movs	r0, #0
.LVL267:
.L129:
	.loc 1 785 2 is_stmt 1 view .LVU1030
.L128:
	.loc 1 786 1 is_stmt 0 view .LVU1031
	bx	lr
	.cfi_endproc
.LFE566:
	.size	z_impl_k_pipe_read_avail, .-z_impl_k_pipe_read_avail
	.section	.text.z_impl_k_pipe_write_avail,"ax",%progbits
	.align	1
	.global	z_impl_k_pipe_write_avail
	.syntax unified
	.thumb
	.thumb_func
	.fpu fpv4-sp-d16
	.type	z_impl_k_pipe_write_avail, %function
z_impl_k_pipe_write_avail:
.LVL268:
.LFB567:
	.loc 1 799 1 is_stmt 1 view -0
	.cfi_startproc
	@ args = 0, pretend = 0, frame = 0
	@ frame_needed = 0, uses_anonymous_args = 0
	@ link register save eliminated.
	.loc 1 799 1 is_stmt 0 view .LVU1033
	mov	r3, r0
	.loc 1 800 2 is_stmt 1 view .LVU1034
	.loc 1 801 2 view .LVU1035
	.loc 1 804 2 view .LVU1036
	.loc 1 804 10 is_stmt 0 view .LVU1037
	ldr	r2, [r0]
	.loc 1 804 5 view .LVU1038
	cbz	r2, .L140
	.loc 1 804 33 discriminator 1 view .LVU1039
	ldr	r0, [r0, #4]
.LVL269:
	.loc 1 804 26 discriminator 1 view .LVU1040
	cbz	r0, .L135
	.loc 1 809 2 is_stmt 1 view .LVU1041
.LVL270:
.LBB423:
.LBI423:
	.loc 5 130 63 view .LVU1042
.LBB424:
	.loc 5 132 2 view .LVU1043
	.loc 5 133 2 view .LVU1044
	.loc 5 139 2 view .LVU1045
.LBB425:
.LBI425:
	.loc 6 43 59 view .LVU1046
.LBB426:
	.loc 6 45 2 view .LVU1047
	.loc 6 54 2 view .LVU1048
	.loc 6 56 2 view .LVU1049
	.syntax unified
@ 56 "/home/sebin/thesis/zephyrproject/zephyr/include/arch/arm/aarch32/asm_inline_gcc.h" 1
	mov r2, #4;mrs r1, BASEPRI;msr BASEPRI_MAX, r2;isb;
@ 0 "" 2
.LVL271:
	.loc 6 76 2 view .LVU1050
	.loc 6 76 2 is_stmt 0 view .LVU1051
	.thumb
	.syntax unified
.LBE426:
.LBE425:
	.loc 5 156 2 is_stmt 1 view .LVU1052
	.loc 5 156 2 is_stmt 0 view .LVU1053
.LBE424:
.LBE423:
	.loc 1 811 2 is_stmt 1 view .LVU1054
	.loc 1 811 10 is_stmt 0 view .LVU1055
	ldr	r2, [r3, #16]
	.loc 1 811 31 view .LVU1056
	ldr	r0, [r3, #12]
	.loc 1 811 5 view .LVU1057
	cmp	r2, r0
	beq	.L141
	.loc 1 813 9 is_stmt 1 view .LVU1058
	.loc 1 813 12 is_stmt 0 view .LVU1059
	cmp	r2, r0
	bcs	.L139
	.loc 1 814 3 is_stmt 1 view .LVU1060
	.loc 1 814 7 is_stmt 0 view .LVU1061
	subs	r0, r0, r2
.LVL272:
	.loc 1 814 7 view .LVU1062
	b	.L138
.LVL273:
.L141:
	.loc 1 812 3 is_stmt 1 view .LVU1063
	.loc 1 812 13 is_stmt 0 view .LVU1064
	ldr	r0, [r3, #4]
	.loc 1 812 26 view .LVU1065
	ldr	r3, [r3, #8]
.LVL274:
	.loc 1 812 7 view .LVU1066
	subs	r0, r0, r3
.LVL275:
.L138:
	.loc 1 819 2 is_stmt 1 view .LVU1067
.LBB427:
.LBI427:
	.loc 5 180 51 view .LVU1068
.LBE427:
	.loc 5 183 2 view .LVU1069
	.loc 5 198 2 view .LVU1070
.LBB430:
.LBB428:
.LBI428:
	.loc 6 84 51 view .LVU1071
.LBB429:
	.loc 6 95 2 view .LVU1072
	.syntax unified
@ 95 "/home/sebin/thesis/zephyrproject/zephyr/include/arch/arm/aarch32/asm_inline_gcc.h" 1
	msr BASEPRI, r1;isb;
@ 0 "" 2
.LVL276:
	.loc 6 95 2 is_stmt 0 view .LVU1073
	.thumb
	.syntax unified
	bx	lr
.LVL277:
.L139:
	.loc 6 95 2 view .LVU1074
.LBE429:
.LBE428:
.LBE430:
	.loc 1 816 3 is_stmt 1 view .LVU1075
	.loc 1 816 13 is_stmt 0 view .LVU1076
	ldr	r3, [r3, #4]
.LVL278:
	.loc 1 816 20 view .LVU1077
	subs	r0, r0, r2
	.loc 1 816 7 view .LVU1078
	add	r0, r0, r3
.LVL279:
	.loc 1 816 7 view .LVU1079
	b	.L138
.LVL280:
.L140:
	.loc 1 805 7 view .LVU1080
	movs	r0, #0
.LVL281:
.L136:
	.loc 1 822 2 is_stmt 1 view .LVU1081
.L135:
	.loc 1 823 1 is_stmt 0 view .LVU1082
	bx	lr
	.cfi_endproc
.LFE567:
	.size	z_impl_k_pipe_write_avail, .-z_impl_k_pipe_write_avail
	.text
.Letext0:
	.file 9 "/home/sebin/LIOT/gcc-arm-none-eabi-9-2019-q4-major/lib/gcc/arm-none-eabi/9.2.1/include/stddef.h"
	.file 10 "/home/sebin/LIOT/gcc-arm-none-eabi-9-2019-q4-major/arm-none-eabi/include/machine/_default_types.h"
	.file 11 "/home/sebin/LIOT/gcc-arm-none-eabi-9-2019-q4-major/arm-none-eabi/include/sys/_stdint.h"
	.file 12 "/home/sebin/thesis/zephyrproject/zephyr/include/sys/rb.h"
	.file 13 "/home/sebin/thesis/zephyrproject/zephyr/include/sys/slist.h"
	.file 14 "/home/sebin/thesis/zephyrproject/zephyr/include/sys/sys_heap.h"
	.file 15 "/home/sebin/thesis/zephyrproject/zephyr/include/kernel_structs.h"
	.file 16 "/home/sebin/thesis/zephyrproject/zephyr/include/kernel/thread.h"
	.file 17 "/home/sebin/thesis/zephyrproject/zephyr/include/kernel.h"
	.file 18 "/home/sebin/thesis/zephyrproject/zephyr/include/kernel/thread_stack.h"
	.file 19 "/home/sebin/thesis/zephyrproject/zephyr/include/arch/arm/aarch32/thread.h"
	.file 20 "/home/sebin/thesis/zephyrproject/zephyr/include/arch/arm/aarch32/exc.h"
	.file 21 "/home/sebin/thesis/zephyrproject/zephyr/include/sw_isr_table.h"
	.file 22 "/home/sebin/thesis/zephyrproject/modules/hal/infineon/XMCLib/devices/XMC4500/Include/system_XMC4500.h"
	.file 23 "/home/sebin/thesis/zephyrproject/modules/hal/cmsis/CMSIS/Core/Include/core_cm4.h"
	.file 24 "/home/sebin/thesis/zephyrproject/zephyr/include/arch/arm/aarch32/mpu/arm_mpu_v7m.h"
	.file 25 "/home/sebin/thesis/zephyrproject/zephyr/include/arch/arm/aarch32/mpu/arm_mpu.h"
	.file 26 "/home/sebin/thesis/zephyrproject/zephyr/include/sys_clock.h"
	.file 27 "/home/sebin/LIOT/gcc-arm-none-eabi-9-2019-q4-major/arm-none-eabi/include/sys/lock.h"
	.file 28 "/home/sebin/LIOT/gcc-arm-none-eabi-9-2019-q4-major/arm-none-eabi/include/sys/_types.h"
	.file 29 "/home/sebin/LIOT/gcc-arm-none-eabi-9-2019-q4-major/arm-none-eabi/include/sys/reent.h"
	.file 30 "/home/sebin/LIOT/gcc-arm-none-eabi-9-2019-q4-major/arm-none-eabi/include/sys/errno.h"
	.file 31 "/home/sebin/thesis/zephyrproject/zephyr/arch/arm/include/aarch32/cortex_m/stack.h"
	.file 32 "/home/sebin/thesis/zephyrproject/zephyr/include/arch/structs.h"