	.cpu cortex-m4
	.eabi_attribute 27, 1
	.eabi_attribute 28, 1
	.eabi_attribute 20, 1
	.eabi_attribute 21, 1
	.eabi_attribute 23, 3
	.eabi_attribute 24, 1
	.eabi_attribute 25, 1
	.eabi_attribute 26, 1
	.eabi_attribute 30, 1
	.eabi_attribute 34, 1
	.eabi_attribute 38, 1
	.eabi_attribute 18, 4
	.file	"poll.c"
	.text
.Ltext0:
	.cfi_sections	.debug_frame
	.section	.text.poller_thread,"ax",%progbits
	.align	1
	.arch armv7e-m
	.syntax unified
	.thumb
	.thumb_func
	.fpu fpv4-sp-d16
	.type	poller_thread, %function
poller_thread:
.LVL0:
.LFB555:
	.file 1 "/home/sebin/thesis/zephyrproject/zephyr/kernel/poll.c"
	.loc 1 100 1 view -0
	.cfi_startproc
	@ args = 0, pretend = 0, frame = 0
	@ frame_needed = 0, uses_anonymous_args = 0
	@ link register save eliminated.
	.loc 1 101 2 view .LVU1
	.loc 1 101 15 is_stmt 0 view .LVU2
	cbz	r0, .L3
	.loc 1 101 15 discriminator 1 view .LVU3
	subs	r0, r0, #96
.LVL1:
	.loc 1 101 15 discriminator 1 view .LVU4
	bx	lr
.LVL2:
.L3:
	.loc 1 102 1 view .LVU5
	bx	lr
	.cfi_endproc
.LFE555:
	.size	poller_thread, .-poller_thread
	.section	.text.signal_poller,"ax",%progbits
	.align	1
	.syntax unified
	.thumb
	.thumb_func
	.fpu fpv4-sp-d16
	.type	signal_poller, %function
signal_poller:
.LVL3:
.LFB562:
	.loc 1 246 1 is_stmt 1 view -0
	.cfi_startproc
	@ args = 0, pretend = 0, frame = 0
	@ frame_needed = 0, uses_anonymous_args = 0
	.loc 1 246 1 is_stmt 0 view .LVU7
	push	{r3, r4, r5, lr}
	.cfi_def_cfa_offset 16
	.cfi_offset 3, -16
	.cfi_offset 4, -12
	.cfi_offset 5, -8
	.cfi_offset 14, -4
	mov	r5, r1
	.loc 1 247 2 is_stmt 1 view .LVU8
	.loc 1 247 28 is_stmt 0 view .LVU9
	ldr	r0, [r0, #8]
.LVL4:
	.loc 1 247 28 view .LVU10
	bl	poller_thread
.LVL5:
	.loc 1 249 4 is_stmt 1 view .LVU11
	.loc 1 249 5 view .LVU12
	.loc 1 251 2 view .LVU13
.LBB268:
.LBI268:
	.file 2 "/home/sebin/thesis/zephyrproject/zephyr/kernel/include/ksched.h"
	.loc 2 101 19 view .LVU14
.LBB269:
	.loc 2 103 2 view .LVU15
	.loc 2 103 22 is_stmt 0 view .LVU16
	ldrb	r3, [r0, #13]	@ zero_extendqisi2
.LVL6:
	.loc 2 103 22 view .LVU17
.LBE269:
.LBE268:
	.loc 1 251 5 view .LVU18
	tst	r3, #2
	beq	.L8
	mov	r4, r0
	.loc 1 255 2 is_stmt 1 view .LVU19
.LVL7:
.LBB270:
.LBI270:
	.loc 2 271 26 view .LVU20
.LBB271:
	.loc 2 274 2 view .LVU21
	.loc 2 274 29 is_stmt 0 view .LVU22
	ldrd	r2, [r0, #40]
.LVL8:
	.loc 2 274 29 view .LVU23
.LBE271:
.LBE270:
	.loc 1 255 5 view .LVU24
	mvn	r0, #1
.LVL9:
	.loc 1 255 5 view .LVU25
	mov	r1, #-1
	cmp	r3, r1
	it	eq
	cmpeq	r2, r0
	beq	.L9
	.loc 1 259 2 is_stmt 1 view .LVU26
	mov	r0, r4
	bl	z_unpend_thread
.LVL10:
	.loc 1 260 2 view .LVU27
	cmp	r5, #8
	beq	.L15
	movs	r3, #0
.L6:
.LVL11:
.LBB272:
.LBI272:
	.file 3 "/home/sebin/thesis/zephyrproject/zephyr/arch/arm/include/aarch32/kernel_arch_func.h"
	.loc 3 65 1 discriminator 4 view .LVU28
.LBB273:
	.loc 3 67 2 discriminator 4 view .LVU29
	.loc 3 67 33 is_stmt 0 discriminator 4 view .LVU30
	str	r3, [r4, #156]
.LVL12:
	.loc 3 67 33 discriminator 4 view .LVU31
.LBE273:
.LBE272:
	.loc 1 263 2 is_stmt 1 discriminator 4 view .LVU32
.LBB274:
.LBI274:
	.loc 2 120 19 discriminator 4 view .LVU33
.LBB275:
	.loc 2 122 2 discriminator 4 view .LVU34
.LBB276:
.LBI276:
	.loc 2 106 19 discriminator 4 view .LVU35
.LBB277:
	.loc 2 108 2 discriminator 4 view .LVU36
	.loc 2 108 10 is_stmt 0 discriminator 4 view .LVU37
	ldrb	r3, [r4, #13]	@ zero_extendqisi2
.LVL13:
	.loc 2 110 2 is_stmt 1 discriminator 4 view .LVU38
	.loc 2 110 2 is_stmt 0 discriminator 4 view .LVU39
.LBE277:
.LBE276:
	.loc 2 122 9 discriminator 4 view .LVU40
	tst	r3, #31
	bne	.L11
.LVL14:
.LBB278:
.LBI278:
	.loc 2 115 19 is_stmt 1 view .LVU41
.LBE278:
.LBE275:
.LBE274:
	.loc 2 117 2 view .LVU42
.LBB288:
.LBB285:
.LBB283:
.LBB279:
.LBI279:
	.file 4 "/home/sebin/thesis/zephyrproject/zephyr/include/timeout_q.h"
	.loc 4 35 19 view .LVU43
.LBE279:
.LBE283:
.LBE285:
.LBE288:
	.loc 4 37 2 view .LVU44
.LBB289:
.LBB286:
.LBB284:
.LBB282:
.LBB280:
.LBI280:
	.file 5 "/home/sebin/thesis/zephyrproject/zephyr/include/sys/dlist.h"
	.loc 5 225 19 view .LVU45
.LBB281:
	.loc 5 227 2 view .LVU46
	.loc 5 227 13 is_stmt 0 view .LVU47
	ldr	r3, [r4, #24]
.LVL15:
	.loc 5 227 13 view .LVU48
.LBE281:
.LBE280:
.LBE282:
.LBE284:
	.loc 2 122 9 view .LVU49
	cbz	r3, .L16
	movs	r3, #0
	b	.L7
.LVL16:
.L15:
	.loc 2 122 9 view .LVU50
.LBE286:
.LBE289:
	.loc 1 260 2 view .LVU51
	mvn	r3, #3
	b	.L6
.LVL17:
.L16:
.LBB290:
.LBB287:
	.loc 2 122 9 view .LVU52
	movs	r3, #1
	b	.L7
.L11:
	movs	r3, #0
.L7:
.LVL18:
	.loc 2 122 9 view .LVU53
.LBE287:
.LBE290:
	.loc 1 263 5 view .LVU54
	cbnz	r3, .L17
	.loc 1 264 10 view .LVU55
	movs	r0, #0
	b	.L4
.L17:
	.loc 1 267 2 is_stmt 1 view .LVU56
	mov	r0, r4
	bl	z_ready_thread
.LVL19:
	.loc 1 269 2 view .LVU57
	.loc 1 269 9 is_stmt 0 view .LVU58
	movs	r0, #0
	b	.L4
.LVL20:
.L8:
	.loc 1 252 10 view .LVU59
	movs	r0, #0
.LVL21:
.L4:
	.loc 1 270 1 view .LVU60
	pop	{r3, r4, r5, pc}
.LVL22:
.L9:
	.loc 1 256 10 view .LVU61
	mvn	r0, #10
	b	.L4
	.cfi_endproc
.LFE562:
	.size	signal_poller, .-signal_poller
	.section	.text.signal_triggered_work,"ax",%progbits
	.align	1
	.syntax unified
	.thumb
	.thumb_func
	.fpu fpv4-sp-d16
	.type	signal_triggered_work, %function
signal_triggered_work:
.LVL23:
.LFB572:
	.loc 1 580 1 is_stmt 1 view -0
	.cfi_startproc
	@ args = 0, pretend = 0, frame = 0
	@ frame_needed = 0, uses_anonymous_args = 0
	.loc 1 580 1 is_stmt 0 view .LVU63
	push	{r4, r5, r6, lr}
	.cfi_def_cfa_offset 16
	.cfi_offset 4, -16
	.cfi_offset 5, -12
	.cfi_offset 6, -8
	.cfi_offset 14, -4
	.loc 1 581 2 is_stmt 1 view .LVU64
	.loc 1 581 19 is_stmt 0 view .LVU65
	ldr	r4, [r0, #8]
.LVL24:
	.loc 1 582 2 is_stmt 1 view .LVU66
	.loc 1 585 2 view .LVU67
	.loc 1 585 12 is_stmt 0 view .LVU68
	ldrb	r3, [r4]	@ zero_extendqisi2
	.loc 1 585 5 view .LVU69
	cbz	r3, .L19
	.loc 1 585 33 discriminator 1 view .LVU70
	ldr	r5, [r4, #-4]
	.loc 1 585 25 discriminator 1 view .LVU71
	cbz	r5, .L19
.LBB291:
	.loc 1 586 3 is_stmt 1 view .LVU72
.LVL25:
	.loc 1 588 3 view .LVU73
	sub	r6, r4, #20
.LVL26:
	.loc 1 588 3 is_stmt 0 view .LVU74
	add	r0, r4, #20
.LVL27:
	.loc 1 588 3 view .LVU75
	bl	z_abort_timeout
.LVL28:
	.loc 1 589 3 is_stmt 1 view .LVU76
	.loc 1 589 22 is_stmt 0 view .LVU77
	movs	r3, #0
	str	r3, [r4, #44]
	.loc 1 590 3 is_stmt 1 view .LVU78
	mov	r1, r6
	mov	r0, r5
	bl	k_work_submit_to_queue
.LVL29:
.L19:
	.loc 1 590 3 is_stmt 0 view .LVU79
.LBE291:
	.loc 1 593 2 is_stmt 1 view .LVU80
	.loc 1 594 1 is_stmt 0 view .LVU81
	movs	r0, #0
	pop	{r4, r5, r6, pc}
	.loc 1 594 1 view .LVU82
	.cfi_endproc
.LFE572:
	.size	signal_triggered_work, .-signal_triggered_work
	.section	.text.signal_poll_event,"ax",%progbits
	.align	1
	.syntax unified
	.thumb
	.thumb_func
	.fpu fpv4-sp-d16
	.type	signal_poll_event, %function
signal_poll_event:
.LVL30:
.LFB564:
	.loc 1 421 1 is_stmt 1 view -0
	.cfi_startproc
	@ args = 0, pretend = 0, frame = 0
	@ frame_needed = 0, uses_anonymous_args = 0
	.loc 1 421 1 is_stmt 0 view .LVU84
	push	{r4, r5, r6, lr}
	.cfi_def_cfa_offset 16
	.cfi_offset 4, -16
	.cfi_offset 5, -12
	.cfi_offset 6, -8
	.cfi_offset 14, -4
	mov	r4, r0
	mov	r5, r1
	.loc 1 422 2 is_stmt 1 view .LVU85
	.loc 1 422 19 is_stmt 0 view .LVU86
	ldr	r6, [r0, #8]
.LVL31:
	.loc 1 423 2 is_stmt 1 view .LVU87
	.loc 1 425 2 view .LVU88
	.loc 1 425 5 is_stmt 0 view .LVU89
	cbz	r6, .L27
	.loc 1 426 3 is_stmt 1 view .LVU90
	.loc 1 426 13 is_stmt 0 view .LVU91
	ldrb	r3, [r6, #1]	@ zero_extendqisi2
	.loc 1 426 6 view .LVU92
	cmp	r3, #1
	beq	.L29
	.loc 1 428 10 is_stmt 1 view .LVU93
	.loc 1 428 13 is_stmt 0 view .LVU94
	cmp	r3, #2
	beq	.L25
	.loc 1 432 4 is_stmt 1 view .LVU95
	.loc 1 435 3 view .LVU96
	.loc 1 435 22 is_stmt 0 view .LVU97
	movs	r0, #0
.LVL32:
	.loc 1 435 22 view .LVU98
	strb	r0, [r6]
	.loc 1 437 3 is_stmt 1 view .LVU99
.LVL33:
.L22:
	.loc 1 442 2 view .LVU100
.LBB292:
.LBI292:
	.loc 1 208 20 view .LVU101
.LBB293:
	.loc 1 210 2 view .LVU102
	.loc 1 210 16 is_stmt 0 view .LVU103
	movs	r3, #0
	str	r3, [r4, #8]
	.loc 1 211 2 is_stmt 1 view .LVU104
	.loc 1 211 15 is_stmt 0 view .LVU105
	ldr	r3, [r4, #12]
	ubfx	r1, r3, #13, #6
	orrs	r5, r5, r1
.LVL34:
	.loc 1 211 15 view .LVU106
	bfi	r3, r5, #13, #6
	str	r3, [r4, #12]
.LVL35:
	.loc 1 211 15 view .LVU107
.LBE293:
.LBE292:
	.loc 1 443 2 is_stmt 1 view .LVU108
.L21:
	.loc 1 444 1 is_stmt 0 view .LVU109
	pop	{r4, r5, r6, pc}
.LVL36:
.L29:
	.loc 1 427 4 is_stmt 1 view .LVU110
	.loc 1 427 14 is_stmt 0 view .LVU111
	bl	signal_poller
.LVL37:
.L24:
	.loc 1 432 4 is_stmt 1 view .LVU112
	.loc 1 435 3 view .LVU113
	.loc 1 435 22 is_stmt 0 view .LVU114
	movs	r3, #0
	strb	r3, [r6]
	.loc 1 437 3 is_stmt 1 view .LVU115
	.loc 1 437 6 is_stmt 0 view .LVU116
	cmp	r0, r3
	bge	.L22
	.loc 1 437 6 view .LVU117
	b	.L21
.LVL38:
.L25:
	.loc 1 429 4 is_stmt 1 view .LVU118
	.loc 1 429 14 is_stmt 0 view .LVU119
	bl	signal_triggered_work
.LVL39:
	.loc 1 429 14 view .LVU120
	b	.L24
.LVL40:
.L27:
	.loc 1 423 6 view .LVU121
	movs	r0, #0
.LVL41:
	.loc 1 423 6 view .LVU122
	b	.L22
	.cfi_endproc
.LFE564:
	.size	signal_poll_event, .-signal_poll_event
	.section	.text.triggered_work_expiration_handler,"ax",%progbits
	.align	1
	.syntax unified
	.thumb
	.thumb_func
	.fpu fpv4-sp-d16
	.type	triggered_work_expiration_handler, %function
triggered_work_expiration_handler:
.LVL42:
.LFB571:
	.loc 1 570 1 is_stmt 1 view -0
	.cfi_startproc
	@ args = 0, pretend = 0, frame = 0
	@ frame_needed = 0, uses_anonymous_args = 0
	.loc 1 570 1 is_stmt 0 view .LVU124
	push	{r3, lr}
	.cfi_def_cfa_offset 8
	.cfi_offset 3, -8
	.cfi_offset 14, -4
	.loc 1 571 2 is_stmt 1 view .LVU125
.LVL43:
	.loc 1 574 2 view .LVU126
	.loc 1 574 27 is_stmt 0 view .LVU127
	movs	r3, #0
	strb	r3, [r0, #-20]
	.loc 1 575 2 is_stmt 1 view .LVU128
	.loc 1 575 21 is_stmt 0 view .LVU129
	mvn	r3, #10
	str	r3, [r0, #24]
	.loc 1 576 2 is_stmt 1 view .LVU130
	sub	r1, r0, #40
.LVL44:
	.loc 1 576 2 is_stmt 0 view .LVU131
	ldr	r0, [r0, #-24]
.LVL45:
	.loc 1 576 2 view .LVU132
	bl	k_work_submit_to_queue
.LVL46:
	.loc 1 577 1 view .LVU133
	pop	{r3, pc}
	.cfi_endproc
.LFE571:
	.size	triggered_work_expiration_handler, .-triggered_work_expiration_handler
	.section	.text.triggered_work_cancel,"ax",%progbits
	.align	1
	.syntax unified
	.thumb
	.thumb_func
	.fpu fpv4-sp-d16
	.type	triggered_work_cancel, %function
triggered_work_cancel:
.LVL47:
.LFB573:
	.loc 1 598 1 is_stmt 1 view -0
	.cfi_startproc
	@ args = 0, pretend = 0, frame = 0
	@ frame_needed = 0, uses_anonymous_args = 0
	.loc 1 598 1 is_stmt 0 view .LVU135
	push	{r3, r4, r5, r6, r7, lr}
	.cfi_def_cfa_offset 24
	.cfi_offset 3, -24
	.cfi_offset 4, -20
	.cfi_offset 5, -16
	.cfi_offset 6, -12
	.cfi_offset 7, -8
	.cfi_offset 14, -4
	.loc 1 600 2 is_stmt 1 view .LVU136
	.loc 1 600 18 is_stmt 0 view .LVU137
	ldrb	r3, [r0, #20]	@ zero_extendqisi2
	.loc 1 600 5 view .LVU138
	cmp	r3, #0
	beq	.L37
	mov	r4, r0
	mov	r5, r1
.LVL48:
	.loc 1 600 45 discriminator 1 view .LVU139
	ldrb	r3, [r0, #21]	@ zero_extendqisi2
	.loc 1 600 30 discriminator 1 view .LVU140
	cmp	r3, #0
	beq	.L38
	.loc 1 602 3 is_stmt 1 view .LVU141
	adds	r0, r0, #40
.LVL49:
	.loc 1 602 3 is_stmt 0 view .LVU142
	bl	z_abort_timeout
.LVL50:
	.loc 1 608 3 is_stmt 1 view .LVU143
	.loc 1 608 21 is_stmt 0 view .LVU144
	movs	r3, #0
	strb	r3, [r4, #21]
	.loc 1 611 3 is_stmt 1 view .LVU145
	ldr	r6, [r4, #24]
	ldr	r0, [r4, #28]
.LVL51:
	.loc 1 611 3 is_stmt 0 view .LVU146
	mov	r1, r5
.LVL52:
.LBB312:
.LBI312:
	.loc 1 197 20 is_stmt 1 view .LVU147
.LBB313:
	.loc 1 201 2 view .LVU148
	.loc 1 201 8 is_stmt 0 view .LVU149
	b	.L34
.LVL53:
.L41:
.LBB314:
.LBB315:
.LBB316:
.LBI316:
	.loc 5 225 19 is_stmt 1 view .LVU150
.LBB317:
	.loc 5 227 2 view .LVU151
	.loc 5 227 13 is_stmt 0 view .LVU152
	ldr	r2, [r6, r7]
.LVL54:
	.loc 5 227 13 view .LVU153
.LBE317:
.LBE316:
	.loc 1 191 19 view .LVU154
	cbz	r2, .L35
	.loc 1 192 3 is_stmt 1 view .LVU155
.LVL55:
.LBB318:
.LBI318:
	.loc 5 496 20 view .LVU156
.LBB319:
	.loc 5 498 2 view .LVU157
	.loc 5 498 21 is_stmt 0 view .LVU158
	ldr	r0, [r3, #4]
.LVL56:
	.loc 5 499 2 is_stmt 1 view .LVU159
	.loc 5 501 2 view .LVU160
	.loc 5 501 13 is_stmt 0 view .LVU161
	str	r2, [r0]
	.loc 5 502 2 is_stmt 1 view .LVU162
	.loc 5 502 13 is_stmt 0 view .LVU163
	str	r0, [r2, #4]
	.loc 5 503 2 is_stmt 1 view .LVU164
.LVL57:
.LBB320:
.LBI320:
	.loc 5 211 20 view .LVU165
.LBB321:
	.loc 5 213 2 view .LVU166
	.loc 5 213 13 is_stmt 0 view .LVU167
	movs	r2, #0
.LVL58:
	.loc 5 213 13 view .LVU168
	str	r2, [r6, r7]
	.loc 5 214 2 is_stmt 1 view .LVU169
	.loc 5 214 13 is_stmt 0 view .LVU170
	str	r2, [r3, #4]
.LVL59:
.L35:
	.loc 5 214 13 view .LVU171
.LBE321:
.LBE320:
.LBE319:
.LBE318:
.LBE315:
.LBE314:
	.loc 1 203 3 is_stmt 1 view .LVU172
.LBB323:
.LBI323:
	.file 6 "/home/sebin/thesis/zephyrproject/zephyr/include/spinlock.h"
	.loc 6 180 51 view .LVU173
.LBB324:
	.loc 6 183 2 view .LVU174
	.loc 6 198 2 view .LVU175
.LBB325:
.LBI325:
	.file 7 "/home/sebin/thesis/zephyrproject/zephyr/include/arch/arm/aarch32/asm_inline_gcc.h"
	.loc 7 84 51 view .LVU176
.LBB326:
	.loc 7 95 2 view .LVU177
	.syntax unified
@ 95 "/home/sebin/thesis/zephyrproject/zephyr/include/arch/arm/aarch32/asm_inline_gcc.h" 1
	msr BASEPRI, r1;isb;
@ 0 "" 2
.LVL60:
	.loc 7 95 2 is_stmt 0 view .LVU178
	.thumb
	.syntax unified
.LBE326:
.LBE325:
.LBE324:
.LBE323:
	.loc 1 204 3 is_stmt 1 view .LVU179
.LBB327:
.LBI327:
	.loc 6 130 63 view .LVU180
.LBB328:
	.loc 6 132 2 view .LVU181
	.loc 6 133 2 view .LVU182
	.loc 6 139 2 view .LVU183
.LBB329:
.LBI329:
	.loc 7 43 59 view .LVU184
.LBB330:
	.loc 7 45 2 view .LVU185
	.loc 7 54 2 view .LVU186
	.loc 7 56 2 view .LVU187
	.syntax unified
@ 56 "/home/sebin/thesis/zephyrproject/zephyr/include/arch/arm/aarch32/asm_inline_gcc.h" 1
	mov r3, #4;mrs r1, BASEPRI;msr BASEPRI_MAX, r3;isb;
@ 0 "" 2
.LVL61:
	.loc 7 76 2 view .LVU188
	.loc 7 76 2 is_stmt 0 view .LVU189
	.thumb
	.syntax unified
.LBE330:
.LBE329:
	.loc 6 156 2 is_stmt 1 view .LVU190
.LBE328:
.LBE327:
	.loc 1 201 19 is_stmt 0 view .LVU191
	mov	r0, r5
.LVL62:
.L34:
	.loc 1 201 8 is_stmt 1 view .LVU192
	.loc 1 201 19 is_stmt 0 view .LVU193
	subs	r5, r0, #1
.LVL63:
	.loc 1 201 8 view .LVU194
	cbz	r0, .L40
	.loc 1 202 3 is_stmt 1 view .LVU195
	.loc 1 202 35 is_stmt 0 view .LVU196
	add	r3, r5, r5, lsl #2
	lsls	r7, r3, #2
	.loc 1 202 3 view .LVU197
	add	r3, r6, r3, lsl #2
.LVL64:
.LBB331:
.LBI314:
	.loc 1 161 20 is_stmt 1 view .LVU198
.LBB322:
	.loc 1 163 1 view .LVU199
	.loc 1 165 2 view .LVU200
	.loc 1 165 16 is_stmt 0 view .LVU201
	movs	r2, #0
	str	r2, [r3, #8]
	.loc 1 167 2 is_stmt 1 view .LVU202
	.loc 1 167 15 is_stmt 0 view .LVU203
	ldrb	r2, [r3, #13]	@ zero_extendqisi2
	and	r2, r2, #31
	cmp	r2, #8
	bhi	.L35
	movs	r0, #1
	lsl	r2, r0, r2
	tst	r2, #278
	beq	.L35
	b	.L41
.LVL65:
.L40:
	.loc 1 167 15 view .LVU204
.LBE322:
.LBE331:
.LBE313:
.LBE312:
	.loc 1 612 3 is_stmt 1 view .LVU205
	.loc 1 612 15 is_stmt 0 view .LVU206
	movs	r3, #0
	str	r3, [r4, #16]
	.loc 1 613 3 is_stmt 1 view .LVU207
.LVL66:
.L32:
	.loc 1 624 1 is_stmt 0 view .LVU208
	pop	{r3, r4, r5, r6, r7, pc}
.LVL67:
.L37:
	.loc 1 623 9 view .LVU209
	mvn	r0, #21
.LVL68:
	.loc 1 623 9 view .LVU210
	b	.L32
.LVL69:
.L38:
	.loc 1 623 9 view .LVU211
	mvn	r0, #21
.LVL70:
	.loc 1 623 9 view .LVU212
	b	.L32
	.cfi_endproc
.LFE573:
	.size	triggered_work_cancel, .-triggered_work_cancel
	.section	.text.triggered_work_handler,"ax",%progbits
	.align	1
	.syntax unified
	.thumb
	.thumb_func
	.fpu fpv4-sp-d16
	.type	triggered_work_handler, %function
triggered_work_handler:
.LVL71:
.LFB570:
	.loc 1 547 1 is_stmt 1 view -0
	.cfi_startproc
	@ args = 0, pretend = 0, frame = 0
	@ frame_needed = 0, uses_anonymous_args = 0
	.loc 1 547 1 is_stmt 0 view .LVU214
	push	{r3, r4, r5, r6, r7, lr}
	.cfi_def_cfa_offset 24
	.cfi_offset 3, -24
	.cfi_offset 4, -20
	.cfi_offset 5, -16
	.cfi_offset 6, -12
	.cfi_offset 7, -8
	.cfi_offset 14, -4
	.loc 1 548 2 is_stmt 1 view .LVU215
.LVL72:
	.loc 1 555 2 view .LVU216
	.loc 1 555 19 is_stmt 0 view .LVU217
	ldrb	r3, [r0, #21]	@ zero_extendqisi2
	.loc 1 555 5 view .LVU218
	cbnz	r3, .L48
.L43:
	.loc 1 565 2 is_stmt 1 view .LVU219
	.loc 1 565 15 is_stmt 0 view .LVU220
	movs	r3, #0
	str	r3, [r0, #16]
	.loc 1 566 2 is_stmt 1 view .LVU221
	.loc 1 566 7 is_stmt 0 view .LVU222
	ldr	r3, [r0, #32]
	.loc 1 566 2 view .LVU223
	blx	r3
.LVL73:
	.loc 1 567 1 view .LVU224
	pop	{r3, r4, r5, r6, r7, pc}
.LVL74:
.L48:
.LBB358:
	.loc 1 556 3 is_stmt 1 view .LVU225
	.loc 1 558 3 view .LVU226
.LBB359:
.LBI359:
	.loc 6 130 63 view .LVU227
.LBB360:
	.loc 6 132 2 view .LVU228
	.loc 6 133 2 view .LVU229
	.loc 6 139 2 view .LVU230
.LBB361:
.LBI361:
	.loc 7 43 59 view .LVU231
.LBB362:
	.loc 7 45 2 view .LVU232
	.loc 7 54 2 view .LVU233
	.loc 7 56 2 view .LVU234
	.syntax unified
@ 56 "/home/sebin/thesis/zephyrproject/zephyr/include/arch/arm/aarch32/asm_inline_gcc.h" 1
	mov r3, #4;mrs ip, BASEPRI;msr BASEPRI_MAX, r3;isb;
@ 0 "" 2
.LVL75:
	.loc 7 76 2 view .LVU235
	.loc 7 76 2 is_stmt 0 view .LVU236
	.thumb
	.syntax unified
.LBE362:
.LBE361:
	.loc 6 156 2 is_stmt 1 view .LVU237
	.loc 6 156 2 is_stmt 0 view .LVU238
.LBE360:
.LBE359:
	.loc 1 559 3 is_stmt 1 view .LVU239
	ldr	r6, [r0, #24]
	ldr	r3, [r0, #28]
.LVL76:
	.loc 1 559 3 is_stmt 0 view .LVU240
	mov	r4, ip
.LVL77:
.LBB363:
.LBI363:
	.loc 1 197 20 is_stmt 1 view .LVU241
.LBB364:
	.loc 1 201 2 view .LVU242
	.loc 1 201 8 is_stmt 0 view .LVU243
	b	.L44
.LVL78:
.L50:
.LBB365:
.LBB366:
.LBB367:
.LBI367:
	.loc 5 225 19 is_stmt 1 view .LVU244
.LBB368:
	.loc 5 227 2 view .LVU245
	.loc 5 227 13 is_stmt 0 view .LVU246
	ldr	r2, [r6, r7]
.LVL79:
	.loc 5 227 13 view .LVU247
.LBE368:
.LBE367:
	.loc 1 191 19 view .LVU248
	cbz	r2, .L45
	.loc 1 192 3 is_stmt 1 view .LVU249
.LVL80:
.LBB369:
.LBI369:
	.loc 5 496 20 view .LVU250
.LBB370:
	.loc 5 498 2 view .LVU251
	.loc 5 498 21 is_stmt 0 view .LVU252
	ldr	r1, [r3, #4]
.LVL81:
	.loc 5 499 2 is_stmt 1 view .LVU253
	.loc 5 501 2 view .LVU254
	.loc 5 501 13 is_stmt 0 view .LVU255
	str	r2, [r1]
	.loc 5 502 2 is_stmt 1 view .LVU256
	.loc 5 502 13 is_stmt 0 view .LVU257
	str	r1, [r2, #4]
	.loc 5 503 2 is_stmt 1 view .LVU258
.LVL82:
.LBB371:
.LBI371:
	.loc 5 211 20 view .LVU259
.LBB372:
	.loc 5 213 2 view .LVU260
	.loc 5 213 13 is_stmt 0 view .LVU261
	movs	r2, #0
.LVL83:
	.loc 5 213 13 view .LVU262
	str	r2, [r6, r7]
	.loc 5 214 2 is_stmt 1 view .LVU263
	.loc 5 214 13 is_stmt 0 view .LVU264
	str	r2, [r3, #4]
.LVL84:
.L45:
	.loc 5 214 13 view .LVU265
.LBE372:
.LBE371:
.LBE370:
.LBE369:
.LBE366:
.LBE365:
	.loc 1 203 3 is_stmt 1 view .LVU266
.LBB374:
.LBI374:
	.loc 6 180 51 view .LVU267
.LBB375:
	.loc 6 183 2 view .LVU268
	.loc 6 198 2 view .LVU269
.LBB376:
.LBI376:
	.loc 7 84 51 view .LVU270
.LBB377:
	.loc 7 95 2 view .LVU271
	.syntax unified
@ 95 "/home/sebin/thesis/zephyrproject/zephyr/include/arch/arm/aarch32/asm_inline_gcc.h" 1
	msr BASEPRI, r4;isb;
@ 0 "" 2
.LVL85:
	.loc 7 95 2 is_stmt 0 view .LVU272
	.thumb
	.syntax unified
.LBE377:
.LBE376:
.LBE375:
.LBE374:
	.loc 1 204 3 is_stmt 1 view .LVU273
.LBB378:
.LBI378:
	.loc 6 130 63 view .LVU274
.LBB379:
	.loc 6 132 2 view .LVU275
	.loc 6 133 2 view .LVU276
	.loc 6 139 2 view .LVU277
.LBB380:
.LBI380:
	.loc 7 43 59 view .LVU278
.LBB381:
	.loc 7 45 2 view .LVU279
	.loc 7 54 2 view .LVU280
	.loc 7 56 2 view .LVU281
	.syntax unified
@ 56 "/home/sebin/thesis/zephyrproject/zephyr/include/arch/arm/aarch32/asm_inline_gcc.h" 1
	mov r3, #4;mrs r4, BASEPRI;msr BASEPRI_MAX, r3;isb;
@ 0 "" 2
.LVL86:
	.loc 7 76 2 view .LVU282
	.loc 7 76 2 is_stmt 0 view .LVU283
	.thumb
	.syntax unified
.LBE381:
.LBE380:
	.loc 6 156 2 is_stmt 1 view .LVU284
.LBE379:
.LBE378:
	.loc 1 201 19 is_stmt 0 view .LVU285
	mov	r3, r5
.LVL87:
.L44:
	.loc 1 201 8 is_stmt 1 view .LVU286
	.loc 1 201 19 is_stmt 0 view .LVU287
	subs	r5, r3, #1
.LVL88:
	.loc 1 201 8 view .LVU288
	cbz	r3, .L49
	.loc 1 202 3 is_stmt 1 view .LVU289
	.loc 1 202 35 is_stmt 0 view .LVU290
	add	r3, r5, r5, lsl #2
	lsls	r7, r3, #2
	.loc 1 202 3 view .LVU291
	add	r3, r6, r3, lsl #2
.LVL89:
.LBB382:
.LBI365:
	.loc 1 161 20 is_stmt 1 view .LVU292
.LBB373:
	.loc 1 163 1 view .LVU293
	.loc 1 165 2 view .LVU294
	.loc 1 165 16 is_stmt 0 view .LVU295
	movs	r2, #0
	str	r2, [r3, #8]
	.loc 1 167 2 is_stmt 1 view .LVU296
	.loc 1 167 15 is_stmt 0 view .LVU297
	ldrb	r2, [r3, #13]	@ zero_extendqisi2
	and	r2, r2, #31
	cmp	r2, #8
	bhi	.L45
	movs	r1, #1
	lsl	r2, r1, r2
	tst	r2, #278
	beq	.L45
	b	.L50
.LVL90:
.L49:
	.loc 1 167 15 view .LVU298
.LBE373:
.LBE382:
.LBE364:
.LBE363:
	.loc 1 561 3 is_stmt 1 view .LVU299
.LBB383:
.LBI383:
	.loc 6 180 51 view .LVU300
.LBE383:
.LBE358:
	.loc 6 183 2 view .LVU301
	.loc 6 198 2 view .LVU302
.LBB387:
.LBB386:
.LBB384:
.LBI384:
	.loc 7 84 51 view .LVU303
.LBB385:
	.loc 7 95 2 view .LVU304
	.syntax unified
@ 95 "/home/sebin/thesis/zephyrproject/zephyr/include/arch/arm/aarch32/asm_inline_gcc.h" 1
	msr BASEPRI, ip;isb;
@ 0 "" 2
.LVL91:
	.loc 7 95 2 is_stmt 0 view .LVU305
	.thumb
	.syntax unified
	b	.L43
.LBE385:
.LBE384:
.LBE386:
.LBE387:
	.cfi_endproc
.LFE570:
	.size	triggered_work_handler, .-triggered_work_handler
	.section	.text.k_poll_event_init,"ax",%progbits
	.align	1
	.global	k_poll_event_init
	.syntax unified
	.thumb
	.thumb_func
	.fpu fpv4-sp-d16
	.type	k_poll_event_init, %function
k_poll_event_init:
.LVL92:
.LFB553:
	.loc 1 44 1 is_stmt 1 view -0
	.cfi_startproc
	@ args = 0, pretend = 0, frame = 0
	@ frame_needed = 0, uses_anonymous_args = 0
	@ link register save eliminated.
	.loc 1 44 1 is_stmt 0 view .LVU307
	push	{r4, r5}
	.cfi_def_cfa_offset 8
	.cfi_offset 4, -8
	.cfi_offset 5, -4
	.loc 1 45 4 is_stmt 1 view .LVU308
	.loc 1 46 43 view .LVU309
	.loc 1 47 4 view .LVU310
	.loc 1 47 5 view .LVU311
	.loc 1 48 4 view .LVU312
	.loc 1 48 5 view .LVU313
	.loc 1 50 2 view .LVU314
	.loc 1 50 16 is_stmt 0 view .LVU315
	movs	r4, #0
	str	r4, [r0, #8]
	.loc 1 52 2 is_stmt 1 view .LVU316
	.loc 1 52 14 is_stmt 0 view .LVU317
	ldrb	r5, [r0, #13]	@ zero_extendqisi2
	bfi	r5, r1, #0, #5
.LVL93:
	.loc 1 52 14 view .LVU318
	strb	r5, [r0, #13]
	.loc 1 53 2 is_stmt 1 view .LVU319
	.loc 1 53 15 is_stmt 0 view .LVU320
	ldr	r1, [r0, #12]
	bfi	r1, r4, #13, #6
	str	r1, [r0, #12]
	.loc 1 54 2 is_stmt 1 view .LVU321
	.loc 1 54 14 is_stmt 0 view .LVU322
	ubfx	r1, r1, #16, #8
	bfi	r1, r2, #3, #1
.LVL94:
	.loc 1 54 14 view .LVU323
	strb	r1, [r0, #14]
	.loc 1 55 2 is_stmt 1 view .LVU324
	.loc 1 55 16 is_stmt 0 view .LVU325
	ldrh	r2, [r0, #14]
	bfi	r2, r4, #4, #12
	strh	r2, [r0, #14]	@ movhi
	.loc 1 56 2 is_stmt 1 view .LVU326
	.loc 1 56 13 is_stmt 0 view .LVU327
	str	r3, [r0, #16]
	.loc 1 58 2 is_stmt 1 view .LVU328
	.loc 1 58 7 view .LVU329
	.loc 1 58 15 view .LVU330
	.loc 1 59 1 is_stmt 0 view .LVU331
	pop	{r4, r5}
	.cfi_restore 5
	.cfi_restore 4
	.cfi_def_cfa_offset 0
	bx	lr
	.cfi_endproc
.LFE553:
	.size	k_poll_event_init, .-k_poll_event_init
	.section	.text.z_impl_k_poll,"ax",%progbits
	.align	1
	.global	z_impl_k_poll
	.syntax unified
	.thumb
	.thumb_func
	.fpu fpv4-sp-d16
	.type	z_impl_k_poll, %function
z_impl_k_poll:
.LVL95:
.LFB563:
	.loc 1 274 1 is_stmt 1 view -0
	.cfi_startproc
	@ args = 0, pretend = 0, frame = 40
	@ frame_needed = 0, uses_anonymous_args = 0
	.loc 1 274 1 is_stmt 0 view .LVU333
	push	{r4, r5, r6, r7, r8, r9, r10, fp, lr}
	.cfi_def_cfa_offset 36
	.cfi_offset 4, -36
	.cfi_offset 5, -32
	.cfi_offset 6, -28
	.cfi_offset 7, -24
	.cfi_offset 8, -20
	.cfi_offset 9, -16
	.cfi_offset 10, -12
	.cfi_offset 11, -8
	.cfi_offset 14, -4
	sub	sp, sp, #52
	.cfi_def_cfa_offset 88
	mov	r5, r0
	str	r1, [sp, #28]
	str	r2, [sp, #8]
	str	r3, [sp, #12]
	.loc 1 275 2 is_stmt 1 view .LVU334
	.loc 1 276 2 view .LVU335
	.loc 1 277 2 view .LVU336
	.loc 1 277 44 is_stmt 0 view .LVU337
	ldr	r3, .L152
	ldr	r9, [r3, #8]
	.loc 1 277 19 view .LVU338
	add	r7, r9, #96
.LVL96:
	.loc 1 279 2 is_stmt 1 view .LVU339
	.loc 1 279 21 is_stmt 0 view .LVU340
	movs	r3, #1
	strb	r3, [r9, #96]
	.loc 1 280 2 is_stmt 1 view .LVU341
	.loc 1 280 15 is_stmt 0 view .LVU342
	strb	r3, [r9, #97]
	.loc 1 282 4 is_stmt 1 view .LVU343
	.loc 1 282 5 view .LVU344
	.loc 1 283 4 view .LVU345
	.loc 1 283 5 view .LVU346
	.loc 1 284 4 view .LVU347
	.loc 1 284 5 view .LVU348
	.loc 1 286 2 view .LVU349
	.loc 1 286 7 view .LVU350
	.loc 1 286 15 view .LVU351
	.loc 1 288 2 view .LVU352
	.loc 1 288 22 is_stmt 0 view .LVU353
	ldrd	r1, [sp, #8]
.LVL97:
	.loc 1 288 22 view .LVU354
	mov	r3, r2
	orrs	r3, r3, r1
	ite	eq
	moveq	r3, #1
	movne	r3, #0
	str	r3, [sp, #24]
.LVL98:
.LBB561:
.LBI561:
	.loc 1 214 19 is_stmt 1 view .LVU355
.LBB562:
	.loc 1 219 2 view .LVU356
	.loc 1 221 2 view .LVU357
.LBB563:
	.loc 1 221 7 view .LVU358
	.loc 1 221 11 is_stmt 0 view .LVU359
	movs	r6, #0
.LBE563:
	.loc 1 219 6 view .LVU360
	mov	fp, r6
.LBB690:
	.loc 1 221 2 view .LVU361
	b	.L54
.LVL99:
.L59:
.LBB564:
.LBB565:
.LBB566:
	.loc 1 66 3 is_stmt 1 view .LVU362
	.loc 1 66 7 is_stmt 0 view .LVU363
	ldr	r3, [r4, #16]
.LVL100:
.LBB567:
.LBI567:
	.file 8 "/home/sebin/thesis/dmz/zephyr_xmc_template/build/zephyr/include/generated/syscalls/kernel.h"
	.loc 8 1067 28 is_stmt 1 view .LVU364
.LBB568:
	.loc 8 1075 2 view .LVU365
	.loc 8 1075 7 view .LVU366
	.loc 8 1075 55 view .LVU367
	.loc 8 1076 2 view .LVU368
.LVL101:
.LBB569:
.LBI569:
	.file 9 "/home/sebin/thesis/zephyrproject/zephyr/include/kernel.h"
	.loc 9 2932 28 view .LVU369
.LBB570:
	.loc 9 2934 2 view .LVU370
	.loc 9 2934 12 is_stmt 0 view .LVU371
	ldr	r3, [r3, #8]
.LVL102:
	.loc 9 2934 12 view .LVU372
.LBE570:
.LBE569:
.LBE568:
.LBE567:
	.loc 1 66 6 view .LVU373
	cbz	r3, .L55
	.loc 1 67 11 view .LVU374
	movs	r3, #2
	str	r3, [sp, #20]
.LVL103:
	.loc 1 68 10 view .LVU375
	movs	r3, #1
	b	.L55
.LVL104:
.L58:
	.loc 1 72 3 is_stmt 1 view .LVU376
	.loc 1 72 8 is_stmt 0 view .LVU377
	ldr	r3, [r4, #16]
.LVL105:
.LBB571:
.LBI571:
	.loc 8 664 19 is_stmt 1 view .LVU378
.LBB572:
	.loc 8 672 2 view .LVU379
	.loc 8 672 7 view .LVU380
	.loc 8 672 55 view .LVU381
	.loc 8 673 2 view .LVU382
.LVL106:
.LBB573:
.LBI573:
	.loc 9 1871 19 view .LVU383
.LBE573:
.LBE572:
.LBE571:
.LBE566:
.LBE565:
.LBE564:
.LBE690:
.LBE562:
.LBE561:
	.loc 9 1873 2 view .LVU384
.LBB697:
.LBB694:
.LBB691:
.LBB686:
.LBB587:
.LBB584:
.LBB582:
.LBB580:
.LBB578:
.LBB574:
.LBI574:
	.file 10 "/home/sebin/thesis/zephyrproject/zephyr/include/sys/sflist.h"
	.loc 10 323 1 view .LVU385
.LBE574:
.LBE578:
.LBE580:
.LBE582:
.LBE584:
.LBE587:
.LBE686:
.LBE691:
.LBE694:
.LBE697:
	.loc 10 323 43 view .LVU386
.LBB698:
.LBB695:
.LBB692:
.LBB687:
.LBB588:
.LBB585:
.LBB583:
.LBB581:
.LBB579:
.LBB577:
.LBB575:
.LBI575:
	.loc 10 243 29 view .LVU387
.LBB576:
	.loc 10 245 2 view .LVU388
	.loc 10 245 13 is_stmt 0 view .LVU389
	ldr	r3, [r3]
.LVL107:
	.loc 10 245 13 view .LVU390
.LBE576:
.LBE575:
.LBE577:
.LBE579:
.LBE581:
.LBE583:
	.loc 1 72 6 view .LVU391
	cbz	r3, .L55
	.loc 1 73 11 view .LVU392
	movs	r3, #4
	str	r3, [sp, #20]
.LVL108:
	.loc 1 74 10 view .LVU393
	movs	r3, #1
	b	.L55
.LVL109:
.L60:
	.loc 1 78 3 is_stmt 1 view .LVU394
	.loc 1 78 12 is_stmt 0 view .LVU395
	ldr	r3, [r4, #16]
	.loc 1 78 20 view .LVU396
	ldr	r3, [r3, #8]
	.loc 1 78 6 view .LVU397
	cbz	r3, .L55
	.loc 1 79 11 view .LVU398
	movs	r3, #1
	str	r3, [sp, #20]
.LVL110:
	.loc 1 79 11 view .LVU399
	b	.L55
.LVL111:
.L56:
	.loc 1 84 3 is_stmt 1 view .LVU400
	.loc 1 84 12 is_stmt 0 view .LVU401
	ldr	r3, [r4, #16]
	.loc 1 84 18 view .LVU402
	ldr	r3, [r3, #36]
	.loc 1 84 6 view .LVU403
	cbz	r3, .L55
	.loc 1 85 11 view .LVU404
	movs	r3, #16
	str	r3, [sp, #20]
.LVL112:
	.loc 1 86 10 view .LVU405
	movs	r3, #1
	b	.L55
.LVL113:
.L111:
	.loc 1 64 15 view .LVU406
	movs	r3, #0
.LVL114:
.L55:
	.loc 1 64 15 view .LVU407
.LBE585:
.LBE588:
	.loc 1 226 6 view .LVU408
	cmp	r3, #0
	beq	.L61
	.loc 1 227 4 is_stmt 1 view .LVU409
.LVL115:
.LBB589:
.LBI589:
	.loc 1 208 20 view .LVU410
.LBB590:
	.loc 1 210 2 view .LVU411
	.loc 1 210 16 is_stmt 0 view .LVU412
	movs	r1, #0
	str	r1, [r4, #8]
	.loc 1 211 2 is_stmt 1 view .LVU413
	.loc 1 211 15 is_stmt 0 view .LVU414
	ldr	r3, [r4, #12]
	ubfx	r2, r3, #13, #6
	ldr	r0, [sp, #20]
	orrs	r2, r2, r0
	bfi	r3, r2, #13, #6
	str	r3, [r4, #12]
.LVL116:
	.loc 1 211 15 view .LVU415
.LBE590:
.LBE589:
	.loc 1 228 4 is_stmt 1 view .LVU416
	.loc 1 228 23 is_stmt 0 view .LVU417
	strb	r1, [r7]
.LVL117:
.L62:
	.loc 1 237 4 is_stmt 1 view .LVU418
	.loc 1 239 3 view .LVU419
.LBB591:
.LBI591:
	.loc 6 180 51 view .LVU420
.LBE591:
.LBE687:
.LBE692:
.LBE695:
.LBE698:
	.loc 6 183 2 view .LVU421
	.loc 6 198 2 view .LVU422
.LBB699:
.LBB696:
.LBB693:
.LBB688:
.LBB594:
.LBB592:
.LBI592:
	.loc 7 84 51 view .LVU423
.LBB593:
	.loc 7 95 2 view .LVU424
	ldr	r3, [sp, #32]
	.syntax unified
@ 95 "/home/sebin/thesis/zephyrproject/zephyr/include/arch/arm/aarch32/asm_inline_gcc.h" 1
	msr BASEPRI, r3;isb;
@ 0 "" 2
.LVL118:
	.loc 7 95 2 is_stmt 0 view .LVU425
	.thumb
	.syntax unified
.LBE593:
.LBE592:
.LBE594:
.LBE688:
	.loc 1 221 36 is_stmt 1 view .LVU426
	.loc 1 221 38 is_stmt 0 view .LVU427
	adds	r6, r6, #1
.LVL119:
.L54:
	.loc 1 221 19 is_stmt 1 view .LVU428
	.loc 1 221 2 is_stmt 0 view .LVU429
	ldr	r3, [sp, #28]
	cmp	r3, r6
	ble	.L133
.LBB689:
	.loc 1 222 3 is_stmt 1 view .LVU430
	.loc 1 223 3 view .LVU431
	.loc 1 225 3 view .LVU432
.LVL120:
.LBB595:
.LBI595:
	.loc 6 130 63 view .LVU433
.LBB596:
	.loc 6 132 2 view .LVU434
	.loc 6 133 2 view .LVU435
	.loc 6 139 2 view .LVU436
.LBB597:
.LBI597:
	.loc 7 43 59 view .LVU437
.LBB598:
	.loc 7 45 2 view .LVU438
	.loc 7 54 2 view .LVU439
	.loc 7 56 2 view .LVU440
	.syntax unified
@ 56 "/home/sebin/thesis/zephyrproject/zephyr/include/arch/arm/aarch32/asm_inline_gcc.h" 1
	mov r3, #4;mrs r2, BASEPRI;msr BASEPRI_MAX, r3;isb;
@ 0 "" 2
	.loc 7 56 2 is_stmt 0 view .LVU441
	.thumb
	.syntax unified
	str	r2, [sp, #32]
.LVL121:
	.loc 7 76 2 is_stmt 1 view .LVU442
	.loc 7 76 2 is_stmt 0 view .LVU443
.LBE598:
.LBE597:
	.loc 6 156 2 is_stmt 1 view .LVU444
	.loc 6 156 2 is_stmt 0 view .LVU445
.LBE596:
.LBE595:
	.loc 1 226 3 is_stmt 1 view .LVU446
	.loc 1 226 31 is_stmt 0 view .LVU447
	add	r4, r6, r6, lsl #2
	lsls	r3, r4, #2
	str	r3, [sp, #36]
	.loc 1 226 7 view .LVU448
	add	r4, r5, r4, lsl #2
.LVL122:
.LBB599:
.LBI565:
	.loc 1 62 19 is_stmt 1 view .LVU449
.LBB586:
	.loc 1 64 2 view .LVU450
	.loc 1 64 15 is_stmt 0 view .LVU451
	ldrb	r3, [r4, #13]	@ zero_extendqisi2
	and	r3, r3, #31
	subs	r3, r3, #1
	cmp	r3, #7
	bhi	.L111
	adr	r2, .L57
	ldr	pc, [r2, r3, lsl #2]
	.p2align 2
.L57:
	.word	.L60+1
	.word	.L59+1
	.word	.L111+1
	.word	.L58+1
	.word	.L111+1
	.word	.L111+1
	.word	.L111+1
	.word	.L56+1
.LVL123:
	.p2align 1
.L61:
	.loc 1 64 15 view .LVU452
.LBE586:
.LBE599:
	.loc 1 229 10 is_stmt 1 view .LVU453
	.loc 1 229 13 is_stmt 0 view .LVU454
	ldr	r3, [sp, #24]
	cmp	r3, #0
	bne	.L62
	.loc 1 229 35 view .LVU455
	ldrb	r3, [r7]	@ zero_extendqisi2
	.loc 1 229 26 view .LVU456
	cmp	r3, #0
	beq	.L62
	.loc 1 230 4 is_stmt 1 view .LVU457
.LVL124:
.LBB600:
.LBI600:
	.loc 1 129 20 view .LVU458
.LBB601:
	.loc 1 132 2 view .LVU459
	.loc 1 132 15 is_stmt 0 view .LVU460
	ldrb	r3, [r4, #13]	@ zero_extendqisi2
	and	r3, r3, #31
	subs	r3, r3, #1
	cmp	r3, #7
	bhi	.L63
	tbh	[pc, r3, lsl #1]
.L65:
	.2byte	(.L68-.L65)/2
	.2byte	(.L67-.L65)/2
	.2byte	(.L63-.L65)/2
	.2byte	(.L66-.L65)/2
	.2byte	(.L63-.L65)/2
	.2byte	(.L63-.L65)/2
	.2byte	(.L63-.L65)/2
	.2byte	(.L64-.L65)/2
	.p2align 1
.L67:
	.loc 1 134 5 is_stmt 1 view .LVU461
	.loc 1 134 6 view .LVU462
	.loc 1 135 3 view .LVU463
	.loc 1 135 19 is_stmt 0 view .LVU464
	ldr	r10, [r4, #16]
	.loc 1 135 3 view .LVU465
	add	r8, r10, #16
.LVL125:
.LBB602:
.LBI602:
	.loc 1 104 20 is_stmt 1 view .LVU466
.LBB603:
	.loc 1 107 2 view .LVU467
	.loc 1 109 2 view .LVU468
.LBB604:
.LBI604:
	.loc 5 390 28 view .LVU469
.LBB605:
	.loc 5 392 2 view .LVU470
.LBB606:
.LBI606:
	.loc 5 266 19 view .LVU471
.LBB607:
	.loc 5 268 2 view .LVU472
	.loc 5 268 13 is_stmt 0 view .LVU473
	ldr	r3, [r10, #16]
.LVL126:
	.loc 5 268 13 view .LVU474
.LBE607:
.LBE606:
	.loc 5 392 40 view .LVU475
	cmp	r8, r3
	beq	.L69
	ldr	r3, [r8, #4]
.LVL127:
	.loc 5 392 40 view .LVU476
.LBE605:
.LBE604:
	.loc 1 110 2 is_stmt 1 view .LVU477
	.loc 1 110 5 is_stmt 0 view .LVU478
	cbz	r3, .L69
	.loc 1 111 4 view .LVU479
	ldr	r0, [r3, #8]
	bl	poller_thread
.LVL128:
	.loc 1 111 4 view .LVU480
	str	r0, [sp, #44]
	mov	r0, r7
	bl	poller_thread
.LVL129:
	mov	r1, r0
	str	r0, [sp, #40]
	ldr	r0, [sp, #44]
	bl	z_sched_prio_cmp
.LVL130:
	.loc 1 110 23 view .LVU481
	cmp	r0, #0
	bgt	.L69
	.loc 1 117 2 is_stmt 1 view .LVU482
.LVL131:
.LBB608:
.LBI608:
	.loc 5 294 28 view .LVU483
.LBB609:
	.loc 5 296 2 view .LVU484
.LBB610:
.LBI610:
	.loc 5 266 19 view .LVU485
.LBB611:
	.loc 5 268 2 view .LVU486
	.loc 5 268 13 is_stmt 0 view .LVU487
	ldr	r10, [r10, #16]
.LVL132:
	.loc 5 268 13 view .LVU488
.LBE611:
.LBE610:
	.loc 5 296 40 view .LVU489
	cmp	r8, r10
	beq	.L134
	mov	r3, r10
	mov	r10, r4
	mov	r4, r3
.LVL133:
.L75:
	.loc 5 296 40 view .LVU490
.LBE609:
.LBE608:
	.loc 1 117 4 is_stmt 1 view .LVU491
	.loc 1 117 2 is_stmt 0 view .LVU492
	cbz	r4, .L135
	.loc 1 118 3 is_stmt 1 view .LVU493
	.loc 1 118 7 is_stmt 0 view .LVU494
	ldr	r0, [r4, #8]
	bl	poller_thread
.LVL134:
	mov	r1, r0
	ldr	r0, [sp, #40]
	bl	z_sched_prio_cmp
.LVL135:
	.loc 1 118 6 view .LVU495
	cmp	r0, #0
	bgt	.L136
	.loc 1 117 3 is_stmt 1 view .LVU496
.LVL136:
.LBB612:
.LBI612:
	.loc 5 341 28 view .LVU497
.LBB613:
	.loc 5 344 2 view .LVU498
	.loc 5 344 66 is_stmt 0 view .LVU499
	cbz	r4, .L121
.LVL137:
.LBB614:
.LBI614:
	.loc 5 325 28 is_stmt 1 view .LVU500
.LBB615:
	.loc 5 328 2 view .LVU501
	.loc 5 328 22 is_stmt 0 view .LVU502
	ldr	r3, [r8, #4]
	.loc 5 328 36 view .LVU503
	cmp	r4, r3
	beq	.L122
	ldr	r4, [r4]
.LVL138:
	.loc 5 328 36 view .LVU504
.LBE615:
.LBE614:
.LBE613:
.LBE612:
	.loc 1 117 4 view .LVU505
	cmp	r4, #0
	bne	.L75
	mov	r4, r10
	b	.L74
.LVL139:
.L69:
	.loc 1 113 3 is_stmt 1 view .LVU506
.LBB616:
.LBI616:
	.loc 5 404 20 view .LVU507
.LBB617:
	.loc 5 406 2 view .LVU508
	.loc 5 406 21 is_stmt 0 view .LVU509
	ldr	r3, [r8, #4]
.LVL140:
	.loc 5 408 2 is_stmt 1 view .LVU510
	.loc 5 408 13 is_stmt 0 view .LVU511
	ldr	r2, [sp, #36]
	str	r8, [r5, r2]
	.loc 5 409 2 is_stmt 1 view .LVU512
	.loc 5 409 13 is_stmt 0 view .LVU513
	str	r3, [r4, #4]
	.loc 5 411 2 is_stmt 1 view .LVU514
	.loc 5 411 13 is_stmt 0 view .LVU515
	str	r4, [r3]
	.loc 5 412 2 is_stmt 1 view .LVU516
	.loc 5 412 13 is_stmt 0 view .LVU517
	str	r4, [r8, #4]
.LVL141:
	.loc 5 412 13 view .LVU518
.LBE617:
.LBE616:
	.loc 1 114 3 is_stmt 1 view .LVU519
.L63:
	.loc 1 114 3 is_stmt 0 view .LVU520
.LBE603:
.LBE602:
	.loc 1 157 2 is_stmt 1 view .LVU521
	.loc 1 157 16 is_stmt 0 view .LVU522
	str	r7, [r4, #8]
.LVL142:
	.loc 1 157 16 view .LVU523
.LBE601:
.LBE600:
	.loc 1 231 4 is_stmt 1 view .LVU524
	.loc 1 231 22 is_stmt 0 view .LVU525
	add	fp, fp, #1
.LVL143:
	.loc 1 231 22 view .LVU526
	b	.L62
.LVL144:
.L136:
	.loc 1 231 22 view .LVU527
	mov	r3, r4
	mov	r4, r10
.LVL145:
	.loc 1 231 22 view .LVU528
	mov	r10, r3
.LVL146:
.LBB685:
.LBB684:
.LBB623:
.LBB622:
	.loc 1 120 4 is_stmt 1 view .LVU529
.LBB618:
.LBI618:
	.loc 5 443 20 view .LVU530
.LBB619:
	.loc 5 445 2 view .LVU531
	.loc 5 445 21 is_stmt 0 view .LVU532
	ldr	r3, [r3, #4]
.LVL147:
	.loc 5 447 2 is_stmt 1 view .LVU533
	.loc 5 447 13 is_stmt 0 view .LVU534
	str	r3, [r4, #4]
	.loc 5 448 2 is_stmt 1 view .LVU535
	.loc 5 448 13 is_stmt 0 view .LVU536
	ldr	r2, [sp, #36]
	str	r10, [r5, r2]
	.loc 5 449 2 is_stmt 1 view .LVU537
	.loc 5 449 13 is_stmt 0 view .LVU538
	str	r4, [r3]
	.loc 5 450 2 is_stmt 1 view .LVU539
	.loc 5 450 18 is_stmt 0 view .LVU540
	str	r4, [r10, #4]
.LVL148:
	.loc 5 450 18 view .LVU541
.LBE619:
.LBE618:
	.loc 1 121 4 is_stmt 1 view .LVU542
	b	.L63
.LVL149:
.L134:
	.loc 1 117 4 is_stmt 0 view .LVU543
	mov	r10, #0
	mov	r3, r10
	mov	r10, r4
	mov	r4, r3
.LVL150:
	.loc 1 117 4 view .LVU544
	b	.L75
.LVL151:
.L135:
	.loc 1 117 4 view .LVU545
	mov	r4, r10
.LVL152:
	.loc 1 117 4 view .LVU546
	b	.L74
.LVL153:
.L121:
	.loc 1 117 4 view .LVU547
	mov	r4, r10
.LVL154:
.L74:
	.loc 1 125 2 is_stmt 1 view .LVU548
.LBB620:
.LBI620:
	.loc 5 404 20 view .LVU549
.LBB621:
	.loc 5 406 2 view .LVU550
	.loc 5 406 21 is_stmt 0 view .LVU551
	ldr	r3, [r8, #4]
.LVL155:
	.loc 5 408 2 is_stmt 1 view .LVU552
	.loc 5 408 13 is_stmt 0 view .LVU553
	ldr	r2, [sp, #36]
	str	r8, [r5, r2]
	.loc 5 409 2 is_stmt 1 view .LVU554
	.loc 5 409 13 is_stmt 0 view .LVU555
	str	r3, [r4, #4]
	.loc 5 411 2 is_stmt 1 view .LVU556
	.loc 5 411 13 is_stmt 0 view .LVU557
	str	r4, [r3]
	.loc 5 412 2 is_stmt 1 view .LVU558
	.loc 5 412 13 is_stmt 0 view .LVU559
	str	r4, [r8, #4]
.LVL156:
	.loc 5 413 1 view .LVU560
	b	.L63
.LVL157:
.L122:
	.loc 5 413 1 view .LVU561
	mov	r4, r10
.LVL158:
	.loc 5 413 1 view .LVU562
	b	.L74
.LVL159:
.L66:
	.loc 5 413 1 view .LVU563
.LBE621:
.LBE620:
.LBE622:
.LBE623:
	.loc 1 138 5 is_stmt 1 view .LVU564
	.loc 1 138 6 view .LVU565
	.loc 1 139 3 view .LVU566
	.loc 1 139 19 is_stmt 0 view .LVU567
	ldr	r10, [r4, #16]
	.loc 1 139 3 view .LVU568
	add	r8, r10, #20
.LVL160:
.LBB624:
.LBI624:
	.loc 1 104 20 is_stmt 1 view .LVU569
.LBB625:
	.loc 1 107 2 view .LVU570
	.loc 1 109 2 view .LVU571
.LBB626:
.LBI626:
	.loc 5 390 28 view .LVU572
.LBB627:
	.loc 5 392 2 view .LVU573
.LBB628:
.LBI628:
	.loc 5 266 19 view .LVU574
.LBB629:
	.loc 5 268 2 view .LVU575
	.loc 5 268 13 is_stmt 0 view .LVU576
	ldr	r3, [r10, #20]
.LVL161:
	.loc 5 268 13 view .LVU577
.LBE629:
.LBE628:
	.loc 5 392 40 view .LVU578
	cmp	r8, r3
	beq	.L77
	ldr	r3, [r8, #4]
.LVL162:
	.loc 5 392 40 view .LVU579
.LBE627:
.LBE626:
	.loc 1 110 2 is_stmt 1 view .LVU580
	.loc 1 110 5 is_stmt 0 view .LVU581
	cbz	r3, .L77
	.loc 1 111 4 view .LVU582
	ldr	r0, [r3, #8]
	bl	poller_thread
.LVL163:
	.loc 1 111 4 view .LVU583
	str	r0, [sp, #44]
	mov	r0, r7
	bl	poller_thread
.LVL164:
	mov	r1, r0
	str	r0, [sp, #40]
	ldr	r0, [sp, #44]
	bl	z_sched_prio_cmp
.LVL165:
	.loc 1 110 23 view .LVU584
	cmp	r0, #0
	bgt	.L77
	.loc 1 117 2 is_stmt 1 view .LVU585
.LVL166:
.LBB630:
.LBI630:
	.loc 5 294 28 view .LVU586
.LBB631:
	.loc 5 296 2 view .LVU587
.LBB632:
.LBI632:
	.loc 5 266 19 view .LVU588
.LBB633:
	.loc 5 268 2 view .LVU589
	.loc 5 268 13 is_stmt 0 view .LVU590
	ldr	r10, [r10, #20]
.LVL167:
	.loc 5 268 13 view .LVU591
.LBE633:
.LBE632:
	.loc 5 296 40 view .LVU592
	cmp	r8, r10
	beq	.L137
	mov	r3, r10
	mov	r10, r4
	mov	r4, r3
.LVL168:
.L83:
	.loc 5 296 40 view .LVU593
.LBE631:
.LBE630:
	.loc 1 117 4 is_stmt 1 view .LVU594
	.loc 1 117 2 is_stmt 0 view .LVU595
	cbz	r4, .L138
	.loc 1 118 3 is_stmt 1 view .LVU596
	.loc 1 118 7 is_stmt 0 view .LVU597
	ldr	r0, [r4, #8]
	bl	poller_thread
.LVL169:
	mov	r1, r0
	ldr	r0, [sp, #40]
	bl	z_sched_prio_cmp
.LVL170:
	.loc 1 118 6 view .LVU598
	cmp	r0, #0
	bgt	.L139
	.loc 1 117 3 is_stmt 1 view .LVU599
.LVL171:
.LBB634:
.LBI634:
	.loc 5 341 28 view .LVU600
.LBB635:
	.loc 5 344 2 view .LVU601
	.loc 5 344 66 is_stmt 0 view .LVU602
	cbz	r4, .L124
.LVL172:
.LBB636:
.LBI636:
	.loc 5 325 28 is_stmt 1 view .LVU603
.LBB637:
	.loc 5 328 2 view .LVU604
	.loc 5 328 22 is_stmt 0 view .LVU605
	ldr	r3, [r8, #4]
	.loc 5 328 36 view .LVU606
	cmp	r4, r3
	beq	.L125
	ldr	r4, [r4]
.LVL173:
	.loc 5 328 36 view .LVU607
.LBE637:
.LBE636:
.LBE635:
.LBE634:
	.loc 1 117 4 view .LVU608
	cmp	r4, #0
	bne	.L83
	mov	r4, r10
	b	.L82
.LVL174:
.L77:
	.loc 1 113 3 is_stmt 1 view .LVU609
.LBB638:
.LBI638:
	.loc 5 404 20 view .LVU610
.LBB639:
	.loc 5 406 2 view .LVU611
	.loc 5 406 21 is_stmt 0 view .LVU612
	ldr	r3, [r8, #4]
.LVL175:
	.loc 5 408 2 is_stmt 1 view .LVU613
	.loc 5 408 13 is_stmt 0 view .LVU614
	ldr	r2, [sp, #36]
	str	r8, [r5, r2]
	.loc 5 409 2 is_stmt 1 view .LVU615
	.loc 5 409 13 is_stmt 0 view .LVU616
	str	r3, [r4, #4]
	.loc 5 411 2 is_stmt 1 view .LVU617
	.loc 5 411 13 is_stmt 0 view .LVU618
	str	r4, [r3]
	.loc 5 412 2 is_stmt 1 view .LVU619
	.loc 5 412 13 is_stmt 0 view .LVU620
	str	r4, [r8, #4]
.LVL176:
	.loc 5 412 13 view .LVU621
.LBE639:
.LBE638:
	.loc 1 114 3 is_stmt 1 view .LVU622
	b	.L63
.LVL177:
.L139:
	.loc 1 114 3 is_stmt 0 view .LVU623
	mov	r3, r4
	mov	r4, r10
.LVL178:
	.loc 1 114 3 view .LVU624
	mov	r10, r3
.LVL179:
	.loc 1 120 4 is_stmt 1 view .LVU625
.LBB640:
.LBI640:
	.loc 5 443 20 view .LVU626
.LBB641:
	.loc 5 445 2 view .LVU627
	.loc 5 445 21 is_stmt 0 view .LVU628
	ldr	r3, [r3, #4]
.LVL180:
	.loc 5 447 2 is_stmt 1 view .LVU629
	.loc 5 447 13 is_stmt 0 view .LVU630
	str	r3, [r4, #4]
	.loc 5 448 2 is_stmt 1 view .LVU631
	.loc 5 448 13 is_stmt 0 view .LVU632
	ldr	r2, [sp, #36]
	str	r10, [r5, r2]
	.loc 5 449 2 is_stmt 1 view .LVU633
	.loc 5 449 13 is_stmt 0 view .LVU634
	str	r4, [r3]
	.loc 5 450 2 is_stmt 1 view .LVU635
	.loc 5 450 18 is_stmt 0 view .LVU636
	str	r4, [r10, #4]
.LVL181:
	.loc 5 450 18 view .LVU637
.LBE641:
.LBE640:
	.loc 1 121 4 is_stmt 1 view .LVU638
	b	.L63
.LVL182:
.L137:
	.loc 1 117 4 is_stmt 0 view .LVU639
	mov	r10, #0
	mov	r3, r10
	mov	r10, r4
	mov	r4, r3
.LVL183:
	.loc 1 117 4 view .LVU640
	b	.L83
.LVL184:
.L138:
	.loc 1 117 4 view .LVU641
	mov	r4, r10
.LVL185:
	.loc 1 117 4 view .LVU642
	b	.L82
.LVL186:
.L124:
	.loc 1 117 4 view .LVU643
	mov	r4, r10
.LVL187:
.L82:
	.loc 1 125 2 is_stmt 1 view .LVU644
.LBB642:
.LBI642:
	.loc 5 404 20 view .LVU645
.LBB643:
	.loc 5 406 2 view .LVU646
	.loc 5 406 21 is_stmt 0 view .LVU647
	ldr	r3, [r8, #4]
.LVL188:
	.loc 5 408 2 is_stmt 1 view .LVU648
	.loc 5 408 13 is_stmt 0 view .LVU649
	ldr	r2, [sp, #36]
	str	r8, [r5, r2]
	.loc 5 409 2 is_stmt 1 view .LVU650
	.loc 5 409 13 is_stmt 0 view .LVU651
	str	r3, [r4, #4]
	.loc 5 411 2 is_stmt 1 view .LVU652
	.loc 5 411 13 is_stmt 0 view .LVU653
	str	r4, [r3]
	.loc 5 412 2 is_stmt 1 view .LVU654
	.loc 5 412 13 is_stmt 0 view .LVU655
	str	r4, [r8, #4]
.LVL189:
	.loc 5 413 1 view .LVU656
	b	.L63
.LVL190:
.L125:
	.loc 5 413 1 view .LVU657
	mov	r4, r10
.LVL191:
	.loc 5 413 1 view .LVU658
	b	.L82
.L153:
	.align	2
.L152:
	.word	_kernel
.LVL192:
.L68:
	.loc 5 413 1 view .LVU659
.LBE643:
.LBE642:
.LBE625:
.LBE624:
	.loc 1 142 5 is_stmt 1 view .LVU660
	.loc 1 142 6 view .LVU661
	.loc 1 143 3 view .LVU662
	.loc 1 143 19 is_stmt 0 view .LVU663
	ldr	r8, [r4, #16]
.LVL193:
.LBB644:
.LBI644:
	.loc 1 104 20 is_stmt 1 view .LVU664
.LBB645:
	.loc 1 107 2 view .LVU665
	.loc 1 109 2 view .LVU666
.LBB646:
.LBI646:
	.loc 5 390 28 view .LVU667
.LBB647:
	.loc 5 392 2 view .LVU668
.LBB648:
.LBI648:
	.loc 5 266 19 view .LVU669
.LBB649:
	.loc 5 268 2 view .LVU670
	.loc 5 268 13 is_stmt 0 view .LVU671
	ldr	r3, [r8]
.LVL194:
	.loc 5 268 13 view .LVU672
.LBE649:
.LBE648:
	.loc 5 392 40 view .LVU673
	cmp	r8, r3
	beq	.L85
	ldr	r3, [r8, #4]
.LVL195:
	.loc 5 392 40 view .LVU674
.LBE647:
.LBE646:
	.loc 1 110 2 is_stmt 1 view .LVU675
	.loc 1 110 5 is_stmt 0 view .LVU676
	cbz	r3, .L85
	.loc 1 111 4 view .LVU677
	ldr	r0, [r3, #8]
	bl	poller_thread
.LVL196:
	.loc 1 111 4 view .LVU678
	mov	r10, r0
	mov	r0, r7
	bl	poller_thread
.LVL197:
	mov	r1, r0
	str	r0, [sp, #40]
	mov	r0, r10
	bl	z_sched_prio_cmp
.LVL198:
	.loc 1 110 23 view .LVU679
	cmp	r0, #0
	bgt	.L85
	.loc 1 117 2 is_stmt 1 view .LVU680
.LVL199:
.LBB650:
.LBI650:
	.loc 5 294 28 view .LVU681
.LBB651:
	.loc 5 296 2 view .LVU682
.LBB652:
.LBI652:
	.loc 5 266 19 view .LVU683
.LBB653:
	.loc 5 268 2 view .LVU684
	.loc 5 268 13 is_stmt 0 view .LVU685
	ldr	r10, [r8]
.LVL200:
	.loc 5 268 13 view .LVU686
.LBE653:
.LBE652:
	.loc 5 296 40 view .LVU687
	cmp	r8, r10
	beq	.L140
	mov	r3, r10
	mov	r10, r4
	mov	r4, r3
.LVL201:
.L91:
	.loc 5 296 40 view .LVU688
.LBE651:
.LBE650:
	.loc 1 117 4 is_stmt 1 view .LVU689
	.loc 1 117 2 is_stmt 0 view .LVU690
	cbz	r4, .L141
	.loc 1 118 3 is_stmt 1 view .LVU691
	.loc 1 118 7 is_stmt 0 view .LVU692
	ldr	r0, [r4, #8]
	bl	poller_thread
.LVL202:
	mov	r1, r0
	ldr	r0, [sp, #40]
	bl	z_sched_prio_cmp
.LVL203:
	.loc 1 118 6 view .LVU693
	cmp	r0, #0
	bgt	.L142
	.loc 1 117 3 is_stmt 1 view .LVU694
.LVL204:
.LBB654:
.LBI654:
	.loc 5 341 28 view .LVU695
.LBB655:
	.loc 5 344 2 view .LVU696
	.loc 5 344 66 is_stmt 0 view .LVU697
	cbz	r4, .L127
.LVL205:
.LBB656:
.LBI656:
	.loc 5 325 28 is_stmt 1 view .LVU698
.LBB657:
	.loc 5 328 2 view .LVU699
	.loc 5 328 22 is_stmt 0 view .LVU700
	ldr	r3, [r8, #4]
	.loc 5 328 36 view .LVU701
	cmp	r4, r3
	beq	.L128
	ldr	r4, [r4]
.LVL206:
	.loc 5 328 36 view .LVU702
.LBE657:
.LBE656:
.LBE655:
.LBE654:
	.loc 1 117 4 view .LVU703
	cmp	r4, #0
	bne	.L91
	mov	r4, r10
	b	.L90
.LVL207:
.L85:
	.loc 1 113 3 is_stmt 1 view .LVU704
.LBB658:
.LBI658:
	.loc 5 404 20 view .LVU705
.LBB659:
	.loc 5 406 2 view .LVU706
	.loc 5 406 21 is_stmt 0 view .LVU707
	ldr	r3, [r8, #4]
.LVL208:
	.loc 5 408 2 is_stmt 1 view .LVU708
	.loc 5 408 13 is_stmt 0 view .LVU709
	ldr	r2, [sp, #36]
	str	r8, [r5, r2]
	.loc 5 409 2 is_stmt 1 view .LVU710
	.loc 5 409 13 is_stmt 0 view .LVU711
	str	r3, [r4, #4]
	.loc 5 411 2 is_stmt 1 view .LVU712
	.loc 5 411 13 is_stmt 0 view .LVU713
	str	r4, [r3]
	.loc 5 412 2 is_stmt 1 view .LVU714
	.loc 5 412 13 is_stmt 0 view .LVU715
	str	r4, [r8, #4]
.LVL209:
	.loc 5 412 13 view .LVU716
.LBE659:
.LBE658:
	.loc 1 114 3 is_stmt 1 view .LVU717
	b	.L63
.LVL210:
.L142:
	.loc 1 114 3 is_stmt 0 view .LVU718
	mov	r3, r4
	mov	r4, r10
.LVL211:
	.loc 1 114 3 view .LVU719
	mov	r10, r3
.LVL212:
	.loc 1 120 4 is_stmt 1 view .LVU720
.LBB660:
.LBI660:
	.loc 5 443 20 view .LVU721
.LBB661:
	.loc 5 445 2 view .LVU722
	.loc 5 445 21 is_stmt 0 view .LVU723
	ldr	r3, [r3, #4]
.LVL213:
	.loc 5 447 2 is_stmt 1 view .LVU724
	.loc 5 447 13 is_stmt 0 view .LVU725
	str	r3, [r4, #4]
	.loc 5 448 2 is_stmt 1 view .LVU726
	.loc 5 448 13 is_stmt 0 view .LVU727
	ldr	r2, [sp, #36]
	str	r10, [r5, r2]
	.loc 5 449 2 is_stmt 1 view .LVU728
	.loc 5 449 13 is_stmt 0 view .LVU729
	str	r4, [r3]
	.loc 5 450 2 is_stmt 1 view .LVU730
	.loc 5 450 18 is_stmt 0 view .LVU731
	str	r4, [r10, #4]
.LVL214:
	.loc 5 450 18 view .LVU732
.LBE661:
.LBE660:
	.loc 1 121 4 is_stmt 1 view .LVU733
	b	.L63
.LVL215:
.L140:
	.loc 1 117 4 is_stmt 0 view .LVU734
	mov	r10, #0
	mov	r3, r10
	mov	r10, r4
	mov	r4, r3
.LVL216:
	.loc 1 117 4 view .LVU735
	b	.L91
.LVL217:
.L141:
	.loc 1 117 4 view .LVU736
	mov	r4, r10
.LVL218:
	.loc 1 117 4 view .LVU737
	b	.L90
.LVL219:
.L127:
	.loc 1 117 4 view .LVU738
	mov	r4, r10
.LVL220:
.L90:
	.loc 1 125 2 is_stmt 1 view .LVU739
.LBB662:
.LBI662:
	.loc 5 404 20 view .LVU740
.LBB663:
	.loc 5 406 2 view .LVU741
	.loc 5 406 21 is_stmt 0 view .LVU742
	ldr	r3, [r8, #4]
.LVL221:
	.loc 5 408 2 is_stmt 1 view .LVU743
	.loc 5 408 13 is_stmt 0 view .LVU744
	ldr	r2, [sp, #36]
	str	r8, [r5, r2]
	.loc 5 409 2 is_stmt 1 view .LVU745
	.loc 5 409 13 is_stmt 0 view .LVU746
	str	r3, [r4, #4]
	.loc 5 411 2 is_stmt 1 view .LVU747
	.loc 5 411 13 is_stmt 0 view .LVU748
	str	r4, [r3]
	.loc 5 412 2 is_stmt 1 view .LVU749
	.loc 5 412 13 is_stmt 0 view .LVU750
	str	r4, [r8, #4]
.LVL222:
	.loc 5 413 1 view .LVU751
	b	.L63
.LVL223:
.L128:
	.loc 5 413 1 view .LVU752
	mov	r4, r10
.LVL224:
	.loc 5 413 1 view .LVU753
	b	.L90
.LVL225:
.L64:
	.loc 5 413 1 view .LVU754
.LBE663:
.LBE662:
.LBE645:
.LBE644:
	.loc 1 146 5 is_stmt 1 view .LVU755
	.loc 1 146 6 view .LVU756
	.loc 1 147 3 view .LVU757
	.loc 1 147 19 is_stmt 0 view .LVU758
	ldr	r10, [r4, #16]
	.loc 1 147 3 view .LVU759
	add	r8, r10, #40
.LVL226:
.LBB664:
.LBI664:
	.loc 1 104 20 is_stmt 1 view .LVU760
.LBB665:
	.loc 1 107 2 view .LVU761
	.loc 1 109 2 view .LVU762
.LBB666:
.LBI666:
	.loc 5 390 28 view .LVU763
.LBB667:
	.loc 5 392 2 view .LVU764
.LBB668:
.LBI668:
	.loc 5 266 19 view .LVU765
.LBB669:
	.loc 5 268 2 view .LVU766
	.loc 5 268 13 is_stmt 0 view .LVU767
	ldr	r3, [r10, #40]
.LVL227:
	.loc 5 268 13 view .LVU768
.LBE669:
.LBE668:
	.loc 5 392 40 view .LVU769
	cmp	r8, r3
	beq	.L93
	ldr	r3, [r8, #4]
.LVL228:
	.loc 5 392 40 view .LVU770
.LBE667:
.LBE666:
	.loc 1 110 2 is_stmt 1 view .LVU771
	.loc 1 110 5 is_stmt 0 view .LVU772
	cbz	r3, .L93
	.loc 1 111 4 view .LVU773
	ldr	r0, [r3, #8]
	bl	poller_thread
.LVL229:
	.loc 1 111 4 view .LVU774
	str	r0, [sp, #44]
	mov	r0, r7
	bl	poller_thread
.LVL230:
	mov	r1, r0
	str	r0, [sp, #40]
	ldr	r0, [sp, #44]
	bl	z_sched_prio_cmp
.LVL231:
	.loc 1 110 23 view .LVU775
	cmp	r0, #0
	bgt	.L93
	.loc 1 117 2 is_stmt 1 view .LVU776
.LVL232:
.LBB670:
.LBI670:
	.loc 5 294 28 view .LVU777
.LBB671:
	.loc 5 296 2 view .LVU778
.LBB672:
.LBI672:
	.loc 5 266 19 view .LVU779
.LBB673:
	.loc 5 268 2 view .LVU780
	.loc 5 268 13 is_stmt 0 view .LVU781
	ldr	r10, [r10, #40]
.LVL233:
	.loc 5 268 13 view .LVU782
.LBE673:
.LBE672:
	.loc 5 296 40 view .LVU783
	cmp	r8, r10
	beq	.L143
	mov	r3, r10
	mov	r10, r4
	mov	r4, r3
.LVL234:
.L99:
	.loc 5 296 40 view .LVU784
.LBE671:
.LBE670:
	.loc 1 117 4 is_stmt 1 view .LVU785
	.loc 1 117 2 is_stmt 0 view .LVU786
	cbz	r4, .L144
	.loc 1 118 3 is_stmt 1 view .LVU787
	.loc 1 118 7 is_stmt 0 view .LVU788
	ldr	r0, [r4, #8]
	bl	poller_thread
.LVL235:
	mov	r1, r0
	ldr	r0, [sp, #40]
	bl	z_sched_prio_cmp
.LVL236:
	.loc 1 118 6 view .LVU789
	cmp	r0, #0
	bgt	.L145
	.loc 1 117 3 is_stmt 1 view .LVU790
.LVL237:
.LBB674:
.LBI674:
	.loc 5 341 28 view .LVU791
.LBB675:
	.loc 5 344 2 view .LVU792
	.loc 5 344 66 is_stmt 0 view .LVU793
	cbz	r4, .L130
.LVL238:
.LBB676:
.LBI676:
	.loc 5 325 28 is_stmt 1 view .LVU794
.LBB677:
	.loc 5 328 2 view .LVU795
	.loc 5 328 22 is_stmt 0 view .LVU796
	ldr	r3, [r8, #4]
	.loc 5 328 36 view .LVU797
	cmp	r4, r3
	beq	.L131
	ldr	r4, [r4]
.LVL239:
	.loc 5 328 36 view .LVU798
.LBE677:
.LBE676:
.LBE675:
.LBE674:
	.loc 1 117 4 view .LVU799
	cmp	r4, #0
	bne	.L99
	mov	r4, r10
	b	.L98
.LVL240:
.L93:
	.loc 1 113 3 is_stmt 1 view .LVU800
.LBB678:
.LBI678:
	.loc 5 404 20 view .LVU801
.LBB679:
	.loc 5 406 2 view .LVU802
	.loc 5 406 21 is_stmt 0 view .LVU803
	ldr	r3, [r8, #4]
.LVL241:
	.loc 5 408 2 is_stmt 1 view .LVU804
	.loc 5 408 13 is_stmt 0 view .LVU805
	ldr	r2, [sp, #36]
	str	r8, [r5, r2]
	.loc 5 409 2 is_stmt 1 view .LVU806
	.loc 5 409 13 is_stmt 0 view .LVU807
	str	r3, [r4, #4]
	.loc 5 411 2 is_stmt 1 view .LVU808
	.loc 5 411 13 is_stmt 0 view .LVU809
	str	r4, [r3]
	.loc 5 412 2 is_stmt 1 view .LVU810
	.loc 5 412 13 is_stmt 0 view .LVU811
	str	r4, [r8, #4]
.LVL242:
	.loc 5 412 13 view .LVU812
.LBE679:
.LBE678:
	.loc 1 114 3 is_stmt 1 view .LVU813
	b	.L63
.LVL243:
.L145:
	.loc 1 114 3 is_stmt 0 view .LVU814
	mov	r3, r4
	mov	r4, r10
.LVL244:
	.loc 1 114 3 view .LVU815
	mov	r10, r3
.LVL245:
	.loc 1 120 4 is_stmt 1 view .LVU816
.LBB680:
.LBI680:
	.loc 5 443 20 view .LVU817
.LBB681:
	.loc 5 445 2 view .LVU818
	.loc 5 445 21 is_stmt 0 view .LVU819
	ldr	r3, [r3, #4]
.LVL246:
	.loc 5 447 2 is_stmt 1 view .LVU820
	.loc 5 447 13 is_stmt 0 view .LVU821
	str	r3, [r4, #4]
	.loc 5 448 2 is_stmt 1 view .LVU822
	.loc 5 448 13 is_stmt 0 view .LVU823
	ldr	r2, [sp, #36]
	str	r10, [r5, r2]
	.loc 5 449 2 is_stmt 1 view .LVU824
	.loc 5 449 13 is_stmt 0 view .LVU825
	str	r4, [r3]
	.loc 5 450 2 is_stmt 1 view .LVU826
	.loc 5 450 18 is_stmt 0 view .LVU827
	str	r4, [r10, #4]
.LVL247:
	.loc 5 450 18 view .LVU828
.LBE681:
.LBE680:
	.loc 1 121 4 is_stmt 1 view .LVU829
	b	.L63
.LVL248:
.L143:
	.loc 1 117 4 is_stmt 0 view .LVU830
	mov	r10, #0
	mov	r3, r10
	mov	r10, r4
	mov	r4, r3
.LVL249:
	.loc 1 117 4 view .LVU831
	b	.L99
.LVL250:
.L144:
	.loc 1 117 4 view .LVU832
	mov	r4, r10
.LVL251:
	.loc 1 117 4 view .LVU833
	b	.L98
.LVL252:
.L130:
	.loc 1 117 4 view .LVU834
	mov	r4, r10
.LVL253:
.L98:
	.loc 1 125 2 is_stmt 1 view .LVU835
.LBB682:
.LBI682:
	.loc 5 404 20 view .LVU836
.LBB683:
	.loc 5 406 2 view .LVU837
	.loc 5 406 21 is_stmt 0 view .LVU838
	ldr	r3, [r8, #4]
.LVL254:
	.loc 5 408 2 is_stmt 1 view .LVU839
	.loc 5 408 13 is_stmt 0 view .LVU840
	ldr	r2, [sp, #36]
	str	r8, [r5, r2]
	.loc 5 409 2 is_stmt 1 view .LVU841
	.loc 5 409 13 is_stmt 0 view .LVU842
	str	r3, [r4, #4]
	.loc 5 411 2 is_stmt 1 view .LVU843
	.loc 5 411 13 is_stmt 0 view .LVU844
	str	r4, [r3]
	.loc 5 412 2 is_stmt 1 view .LVU845
	.loc 5 412 13 is_stmt 0 view .LVU846
	str	r4, [r8, #4]
.LVL255:
	.loc 5 413 1 view .LVU847
	b	.L63
.LVL256:
.L131:
	.loc 5 413 1 view .LVU848
	mov	r4, r10
.LVL257:
	.loc 5 413 1 view .LVU849
	b	.L98
.LVL258:
.L133:
	.loc 5 413 1 view .LVU850
.LBE683:
.LBE682:
.LBE665:
.LBE664:
.LBE684:
.LBE685:
.LBE689:
.LBE693:
	.loc 1 242 2 is_stmt 1 view .LVU851
	.loc 1 242 2 is_stmt 0 view .LVU852
.LBE696:
.LBE699:
	.loc 1 291 2 is_stmt 1 view .LVU853
.LBB700:
.LBI700:
	.loc 6 130 63 view .LVU854
.LBB701:
	.loc 6 132 2 view .LVU855
	.loc 6 133 2 view .LVU856
	.loc 6 139 2 view .LVU857
.LBB702:
.LBI702:
	.loc 7 43 59 view .LVU858
.LBB703:
	.loc 7 45 2 view .LVU859
	.loc 7 54 2 view .LVU860
	.loc 7 56 2 view .LVU861
	.syntax unified
@ 56 "/home/sebin/thesis/zephyrproject/zephyr/include/arch/arm/aarch32/asm_inline_gcc.h" 1
	mov r3, #4;mrs r1, BASEPRI;msr BASEPRI_MAX, r3;isb;
@ 0 "" 2
.LVL259:
	.loc 7 76 2 view .LVU862
	.loc 7 76 2 is_stmt 0 view .LVU863
	.thumb
	.syntax unified
.LBE703:
.LBE702:
	.loc 6 156 2 is_stmt 1 view .LVU864
	.loc 6 156 2 is_stmt 0 view .LVU865
.LBE701:
.LBE700:
	.loc 1 298 2 is_stmt 1 view .LVU866
	.loc 1 298 13 is_stmt 0 view .LVU867
	ldrb	r3, [r9, #96]	@ zero_extendqisi2
	.loc 1 298 5 view .LVU868
	cbz	r3, .L146
	.loc 1 307 2 is_stmt 1 view .LVU869
	.loc 1 307 21 is_stmt 0 view .LVU870
	movs	r3, #0
	strb	r3, [r9, #96]
	.loc 1 309 2 is_stmt 1 view .LVU871
.LBB704:
	.loc 1 309 5 is_stmt 0 view .LVU872
	ldrd	r3, [sp, #8]
.LVL260:
	.loc 1 309 5 view .LVU873
	orrs	r3, r3, r4
.LVL261:
	.loc 1 309 5 view .LVU874
	beq	.L147
.LBE704:
	.loc 1 317 2 is_stmt 1 view .LVU875
	.loc 1 319 2 view .LVU876
	.loc 1 319 16 is_stmt 0 view .LVU877
	ldrd	r3, [sp, #8]
.LVL262:
	.loc 1 319 16 view .LVU878
	strd	r3, [sp]
	ldr	r2, .L154
	.loc 1 319 16 view .LVU879
	ldr	r0, .L154+4
	bl	z_pend_curr
.LVL263:
	.loc 1 330 2 is_stmt 1 view .LVU880
.LBB709:
.LBI709:
	.loc 6 130 63 view .LVU881
.LBB710:
	.loc 6 132 2 view .LVU882
	.loc 6 133 2 view .LVU883
	.loc 6 139 2 view .LVU884
.LBB711:
.LBI711:
	.loc 7 43 59 view .LVU885
.LBB712:
	.loc 7 45 2 view .LVU886
	.loc 7 54 2 view .LVU887
	.loc 7 56 2 view .LVU888
	.syntax unified
@ 56 "/home/sebin/thesis/zephyrproject/zephyr/include/arch/arm/aarch32/asm_inline_gcc.h" 1
	mov r3, #4;mrs ip, BASEPRI;msr BASEPRI_MAX, r3;isb;
@ 0 "" 2
.LVL264:
	.loc 7 76 2 view .LVU889
	.loc 7 76 2 is_stmt 0 view .LVU890
	.thumb
	.syntax unified
.LBE712:
.LBE711:
	.loc 6 156 2 is_stmt 1 view .LVU891
	mov	r1, ip
.LVL265:
	.loc 6 156 2 is_stmt 0 view .LVU892
.LBE710:
.LBE709:
	.loc 1 331 2 is_stmt 1 view .LVU893
.LBB713:
.LBI713:
	.loc 1 197 20 view .LVU894
.LBB714:
	.loc 1 201 2 view .LVU895
	mov	r3, fp
	.loc 1 201 8 is_stmt 0 view .LVU896
	b	.L108
.LVL266:
.L146:
	.loc 1 201 8 view .LVU897
.LBE714:
.LBE713:
	.loc 1 299 3 is_stmt 1 view .LVU898
	.loc 1 299 3 is_stmt 0 view .LVU899
	mov	r0, r1
.LVL267:
.LBB734:
.LBI734:
	.loc 1 197 20 is_stmt 1 view .LVU900
.LBB735:
	.loc 1 201 2 view .LVU901
	mov	r3, fp
	.loc 1 201 8 is_stmt 0 view .LVU902
	b	.L103
.LVL268:
.L149:
.LBB736:
.LBB737:
.LBB738:
.LBI738:
	.loc 5 225 19 is_stmt 1 view .LVU903
.LBB739:
	.loc 5 227 2 view .LVU904
	.loc 5 227 13 is_stmt 0 view .LVU905
	ldr	r2, [r5, r6]
.LVL269:
	.loc 5 227 13 view .LVU906
.LBE739:
.LBE738:
	.loc 1 191 19 view .LVU907
	cbz	r2, .L104
	.loc 1 192 3 is_stmt 1 view .LVU908
.LVL270:
.LBB740:
.LBI740:
	.loc 5 496 20 view .LVU909
.LBB741:
	.loc 5 498 2 view .LVU910
	.loc 5 498 21 is_stmt 0 view .LVU911
	ldr	r4, [r3, #4]
.LVL271:
	.loc 5 499 2 is_stmt 1 view .LVU912
	.loc 5 501 2 view .LVU913
	.loc 5 501 13 is_stmt 0 view .LVU914
	str	r2, [r4]
	.loc 5 502 2 is_stmt 1 view .LVU915
	.loc 5 502 13 is_stmt 0 view .LVU916
	str	r4, [r2, #4]
	.loc 5 503 2 is_stmt 1 view .LVU917
.LVL272:
.LBB742:
.LBI742:
	.loc 5 211 20 view .LVU918
.LBB743:
	.loc 5 213 2 view .LVU919
	.loc 5 213 13 is_stmt 0 view .LVU920
	movs	r2, #0
.LVL273:
	.loc 5 213 13 view .LVU921
	str	r2, [r5, r6]
	.loc 5 214 2 is_stmt 1 view .LVU922
	.loc 5 214 13 is_stmt 0 view .LVU923
	str	r2, [r3, #4]
.LVL274:
.L104:
	.loc 5 214 13 view .LVU924
.LBE743:
.LBE742:
.LBE741:
.LBE740:
.LBE737:
.LBE736:
	.loc 1 203 3 is_stmt 1 view .LVU925
.LBB745:
.LBI745:
	.loc 6 180 51 view .LVU926
.LBB746:
	.loc 6 183 2 view .LVU927
	.loc 6 198 2 view .LVU928
.LBB747:
.LBI747:
	.loc 7 84 51 view .LVU929
.LBB748:
	.loc 7 95 2 view .LVU930
	.syntax unified
@ 95 "/home/sebin/thesis/zephyrproject/zephyr/include/arch/arm/aarch32/asm_inline_gcc.h" 1
	msr BASEPRI, r0;isb;
@ 0 "" 2
.LVL275:
	.loc 7 95 2 is_stmt 0 view .LVU931
	.thumb
	.syntax unified
.LBE748:
.LBE747:
.LBE746:
.LBE745:
	.loc 1 204 3 is_stmt 1 view .LVU932
.LBB749:
.LBI749:
	.loc 6 130 63 view .LVU933
.LBB750:
	.loc 6 132 2 view .LVU934
	.loc 6 133 2 view .LVU935
	.loc 6 139 2 view .LVU936
.LBB751:
.LBI751:
	.loc 7 43 59 view .LVU937
.LBB752:
	.loc 7 45 2 view .LVU938
	.loc 7 54 2 view .LVU939
	.loc 7 56 2 view .LVU940
	.syntax unified
@ 56 "/home/sebin/thesis/zephyrproject/zephyr/include/arch/arm/aarch32/asm_inline_gcc.h" 1
	mov r3, #4;mrs r0, BASEPRI;msr BASEPRI_MAX, r3;isb;
@ 0 "" 2
.LVL276:
	.loc 7 76 2 view .LVU941
	.loc 7 76 2 is_stmt 0 view .LVU942
	.thumb
	.syntax unified
.LBE752:
.LBE751:
	.loc 6 156 2 is_stmt 1 view .LVU943
.LBE750:
.LBE749:
	.loc 1 201 19 is_stmt 0 view .LVU944
	mov	r3, r7
.LVL277:
.L103:
	.loc 1 201 8 is_stmt 1 view .LVU945
	.loc 1 201 19 is_stmt 0 view .LVU946
	subs	r7, r3, #1
.LVL278:
	.loc 1 201 8 view .LVU947
	cbz	r3, .L148
	.loc 1 202 3 is_stmt 1 view .LVU948
	.loc 1 202 35 is_stmt 0 view .LVU949
	add	r3, r7, r7, lsl #2
	lsls	r6, r3, #2
	.loc 1 202 3 view .LVU950
	add	r3, r5, r3, lsl #2
.LVL279:
.LBB753:
.LBI736:
	.loc 1 161 20 is_stmt 1 view .LVU951
.LBB744:
	.loc 1 163 1 view .LVU952
	.loc 1 165 2 view .LVU953
	.loc 1 165 16 is_stmt 0 view .LVU954
	movs	r2, #0
	.loc 1 165 16 view .LVU955
	str	r2, [r3, #8]
	.loc 1 167 2 is_stmt 1 view .LVU956
	.loc 1 167 15 is_stmt 0 view .LVU957
	ldrb	r2, [r3, #13]	@ zero_extendqisi2
	and	r2, r2, #31
	cmp	r2, #8
	bhi	.L104
	movs	r4, #1
	lsl	r2, r4, r2
	tst	r2, #278
	beq	.L104
	b	.L149
.LVL280:
.L148:
	.loc 1 167 15 view .LVU958
.LBE744:
.LBE753:
.LBE735:
.LBE734:
	.loc 1 300 3 is_stmt 1 view .LVU959
.LBB754:
.LBI754:
	.loc 6 180 51 view .LVU960
.LBE754:
	.loc 6 183 2 view .LVU961
	.loc 6 198 2 view .LVU962
.LBB757:
.LBB755:
.LBI755:
	.loc 7 84 51 view .LVU963
.LBB756:
	.loc 7 95 2 view .LVU964
	.syntax unified
@ 95 "/home/sebin/thesis/zephyrproject/zephyr/include/arch/arm/aarch32/asm_inline_gcc.h" 1
	msr BASEPRI, r1;isb;
@ 0 "" 2
.LVL281:
	.loc 7 95 2 is_stmt 0 view .LVU965
	.thumb
	.syntax unified
.LBE756:
.LBE755:
.LBE757:
	.loc 1 302 3 is_stmt 1 view .LVU966
	.loc 1 302 8 view .LVU967
	.loc 1 302 16 view .LVU968
	.loc 1 304 3 view .LVU969
	.loc 1 304 10 is_stmt 0 view .LVU970
	mov	r0, r3
	b	.L53
.LVL282:
.L147:
.LBB758:
	.loc 1 310 3 is_stmt 1 view .LVU971
.LBB705:
.LBI705:
	.loc 6 180 51 view .LVU972
.LBE705:
.LBE758:
	.loc 6 183 2 view .LVU973
	.loc 6 198 2 view .LVU974
.LBB759:
.LBB708:
.LBB706:
.LBI706:
	.loc 7 84 51 view .LVU975
.LBB707:
	.loc 7 95 2 view .LVU976
	.syntax unified
@ 95 "/home/sebin/thesis/zephyrproject/zephyr/include/arch/arm/aarch32/asm_inline_gcc.h" 1
	msr BASEPRI, r1;isb;
@ 0 "" 2
.LVL283:
	.loc 7 95 2 is_stmt 0 view .LVU977
	.thumb
	.syntax unified
.LBE707:
.LBE706:
.LBE708:
	.loc 1 312 3 is_stmt 1 view .LVU978
	.loc 1 312 8 view .LVU979
	.loc 1 312 16 view .LVU980
	.loc 1 314 3 view .LVU981
	.loc 1 314 10 is_stmt 0 view .LVU982
	mvn	r0, #10
	b	.L53
.LVL284:
.L151:
	.loc 1 314 10 view .LVU983
.LBE759:
.LBB760:
.LBB733:
.LBB715:
.LBB716:
.LBB717:
.LBI717:
	.loc 5 225 19 is_stmt 1 view .LVU984
.LBB718:
	.loc 5 227 2 view .LVU985
	.loc 5 227 13 is_stmt 0 view .LVU986
	ldr	r2, [r5, r7]
.LVL285:
	.loc 5 227 13 view .LVU987
.LBE718:
.LBE717:
	.loc 1 191 19 view .LVU988
	cbz	r2, .L109
	.loc 1 192 3 is_stmt 1 view .LVU989
.LVL286:
.LBB719:
.LBI719:
	.loc 5 496 20 view .LVU990
.LBB720:
	.loc 5 498 2 view .LVU991
	.loc 5 498 21 is_stmt 0 view .LVU992
	ldr	r6, [r3, #4]
.LVL287:
	.loc 5 499 2 is_stmt 1 view .LVU993
	.loc 5 501 2 view .LVU994
	.loc 5 501 13 is_stmt 0 view .LVU995
	str	r2, [r6]
	.loc 5 502 2 is_stmt 1 view .LVU996
	.loc 5 502 13 is_stmt 0 view .LVU997
	str	r6, [r2, #4]
	.loc 5 503 2 is_stmt 1 view .LVU998
.LVL288:
.LBB721:
.LBI721:
	.loc 5 211 20 view .LVU999
.LBB722:
	.loc 5 213 2 view .LVU1000
	.loc 5 213 13 is_stmt 0 view .LVU1001
	movs	r2, #0
.LVL289:
	.loc 5 213 13 view .LVU1002
	str	r2, [r5, r7]
	.loc 5 214 2 is_stmt 1 view .LVU1003
	.loc 5 214 13 is_stmt 0 view .LVU1004
	str	r2, [r3, #4]
.LVL290:
.L109:
	.loc 5 214 13 view .LVU1005
.LBE722:
.LBE721:
.LBE720:
.LBE719:
.LBE716:
.LBE715:
	.loc 1 203 3 is_stmt 1 view .LVU1006
.LBB724:
.LBI724:
	.loc 6 180 51 view .LVU1007
.LBB725:
	.loc 6 183 2 view .LVU1008
	.loc 6 198 2 view .LVU1009
.LBB726:
.LBI726:
	.loc 7 84 51 view .LVU1010
.LBB727:
	.loc 7 95 2 view .LVU1011
	.syntax unified
@ 95 "/home/sebin/thesis/zephyrproject/zephyr/include/arch/arm/aarch32/asm_inline_gcc.h" 1
	msr BASEPRI, r1;isb;
@ 0 "" 2
.LVL291:
	.loc 7 95 2 is_stmt 0 view .LVU1012
	.thumb
	.syntax unified
.LBE727:
.LBE726:
.LBE725:
.LBE724:
	.loc 1 204 3 is_stmt 1 view .LVU1013
.LBB728:
.LBI728:
	.loc 6 130 63 view .LVU1014
.LBB729:
	.loc 6 132 2 view .LVU1015
	.loc 6 133 2 view .LVU1016
	.loc 6 139 2 view .LVU1017
.LBB730:
.LBI730:
	.loc 7 43 59 view .LVU1018
.LBB731:
	.loc 7 45 2 view .LVU1019
	.loc 7 54 2 view .LVU1020
	.loc 7 56 2 view .LVU1021
	.syntax unified
@ 56 "/home/sebin/thesis/zephyrproject/zephyr/include/arch/arm/aarch32/asm_inline_gcc.h" 1
	mov r3, #4;mrs r1, BASEPRI;msr BASEPRI_MAX, r3;isb;
@ 0 "" 2
.LVL292:
	.loc 7 76 2 view .LVU1022
	.loc 7 76 2 is_stmt 0 view .LVU1023
	.thumb
	.syntax unified
.LBE731:
.LBE730:
	.loc 6 156 2 is_stmt 1 view .LVU1024
.LBE729:
.LBE728:
	.loc 1 201 19 is_stmt 0 view .LVU1025
	mov	r3, r4
.LVL293:
.L108:
	.loc 1 201 8 is_stmt 1 view .LVU1026
	.loc 1 201 19 is_stmt 0 view .LVU1027
	subs	r4, r3, #1
.LVL294:
	.loc 1 201 8 view .LVU1028
	cbz	r3, .L150
	.loc 1 202 3 is_stmt 1 view .LVU1029
	.loc 1 202 35 is_stmt 0 view .LVU1030
	add	r3, r4, r4, lsl #2
	lsls	r7, r3, #2
	.loc 1 202 3 view .LVU1031
	add	r3, r5, r3, lsl #2
.LVL295:
.LBB732:
.LBI715:
	.loc 1 161 20 is_stmt 1 view .LVU1032
.LBB723:
	.loc 1 163 1 view .LVU1033
	.loc 1 165 2 view .LVU1034
	.loc 1 165 16 is_stmt 0 view .LVU1035
	movs	r2, #0
	str	r2, [r3, #8]
	.loc 1 167 2 is_stmt 1 view .LVU1036
	.loc 1 167 15 is_stmt 0 view .LVU1037
	ldrb	r2, [r3, #13]	@ zero_extendqisi2
	and	r2, r2, #31
	cmp	r2, #8
	bhi	.L109
	movs	r6, #1
	lsl	r2, r6, r2
	tst	r2, #278
	beq	.L109
	b	.L151
.LVL296:
.L150:
	.loc 1 167 15 view .LVU1038
.LBE723:
.LBE732:
.LBE733:
.LBE760:
	.loc 1 332 2 is_stmt 1 view .LVU1039
.LBB761:
.LBI761:
	.loc 6 180 51 view .LVU1040
.LBE761:
	.loc 6 183 2 view .LVU1041
	.loc 6 198 2 view .LVU1042
.LBB764:
.LBB762:
.LBI762:
	.loc 7 84 51 view .LVU1043
.LBB763:
	.loc 7 95 2 view .LVU1044
	.syntax unified
@ 95 "/home/sebin/thesis/zephyrproject/zephyr/include/arch/arm/aarch32/asm_inline_gcc.h" 1
	msr BASEPRI, ip;isb;
@ 0 "" 2
.LVL297:
	.loc 7 95 2 is_stmt 0 view .LVU1045
	.thumb
	.syntax unified
.LBE763:
.LBE762:
.LBE764:
	.loc 1 334 2 is_stmt 1 view .LVU1046
	.loc 1 334 7 view .LVU1047
	.loc 1 334 15 view .LVU1048
	.loc 1 336 2 view .LVU1049
.L53:
	.loc 1 337 1 is_stmt 0 view .LVU1050
	add	sp, sp, #52
	.cfi_def_cfa_offset 36
	@ sp needed
	pop	{r4, r5, r6, r7, r8, r9, r10, fp, pc}
.LVL298:
.L155:
	.loc 1 337 1 view .LVU1051
	.align	2
.L154:
	.word	.LANCHOR0
	.word	.LANCHOR1
	.cfi_endproc
.LFE563:
	.size	z_impl_k_poll, .-z_impl_k_poll
	.section	.text.z_handle_obj_poll_events,"ax",%progbits
	.align	1
	.global	z_handle_obj_poll_events
	.syntax unified
	.thumb
	.thumb_func
	.fpu fpv4-sp-d16
	.type	z_handle_obj_poll_events, %function
z_handle_obj_poll_events:
.LVL299:
.LFB565:
	.loc 1 447 1 is_stmt 1 view -0
	.cfi_startproc
	@ args = 0, pretend = 0, frame = 0
	@ frame_needed = 0, uses_anonymous_args = 0
	.loc 1 447 1 is_stmt 0 view .LVU1053
	push	{r3, lr}
	.cfi_def_cfa_offset 8
	.cfi_offset 3, -8
	.cfi_offset 14, -4
	mov	r3, r0
	.loc 1 448 2 is_stmt 1 view .LVU1054
	.loc 1 450 2 view .LVU1055
.LVL300:
.LBB765:
.LBI765:
	.loc 5 516 28 view .LVU1056
.LBB766:
	.loc 5 518 2 view .LVU1057
	.loc 5 520 2 view .LVU1058
.LBB767:
.LBI767:
	.loc 5 266 19 view .LVU1059
.LBB768:
	.loc 5 268 2 view .LVU1060
	.loc 5 268 13 is_stmt 0 view .LVU1061
	ldr	r0, [r0]
.LVL301:
	.loc 5 268 13 view .LVU1062
.LBE768:
.LBE767:
	.loc 5 520 5 view .LVU1063
	cmp	r3, r0
	beq	.L156
	.loc 5 521 3 is_stmt 1 view .LVU1064
.LVL302:
	.loc 5 522 3 view .LVU1065
.LBB769:
.LBI769:
	.loc 5 496 20 view .LVU1066
.LBB770:
	.loc 5 498 2 view .LVU1067
	.loc 5 498 21 is_stmt 0 view .LVU1068
	ldr	r2, [r0, #4]
.LVL303:
	.loc 5 499 2 is_stmt 1 view .LVU1069
	.loc 5 499 21 is_stmt 0 view .LVU1070
	ldr	r3, [r0]
.LVL304:
	.loc 5 501 2 is_stmt 1 view .LVU1071
	.loc 5 501 13 is_stmt 0 view .LVU1072
	str	r3, [r2]
	.loc 5 502 2 is_stmt 1 view .LVU1073
	.loc 5 502 13 is_stmt 0 view .LVU1074
	str	r2, [r3, #4]
	.loc 5 503 2 is_stmt 1 view .LVU1075
.LVL305:
.LBB771:
.LBI771:
	.loc 5 211 20 view .LVU1076
.LBB772:
	.loc 5 213 2 view .LVU1077
	.loc 5 213 13 is_stmt 0 view .LVU1078
	movs	r3, #0
.LVL306:
	.loc 5 213 13 view .LVU1079
	str	r3, [r0]
	.loc 5 214 2 is_stmt 1 view .LVU1080
	.loc 5 214 13 is_stmt 0 view .LVU1081
	str	r3, [r0, #4]
.LVL307:
	.loc 5 214 13 view .LVU1082
.LBE772:
.LBE771:
.LBE770:
.LBE769:
	.loc 5 525 2 is_stmt 1 view .LVU1083
	.loc 5 525 2 is_stmt 0 view .LVU1084
.LBE766:
.LBE765:
	.loc 1 451 2 is_stmt 1 view .LVU1085
	.loc 1 451 5 is_stmt 0 view .LVU1086
	cbz	r0, .L156
	.loc 1 452 3 is_stmt 1 view .LVU1087
	.loc 1 452 10 is_stmt 0 view .LVU1088
	bl	signal_poll_event
.LVL308:
.L156:
	.loc 1 454 1 view .LVU1089
	pop	{r3, pc}
	.cfi_endproc
.LFE565:
	.size	z_handle_obj_poll_events, .-z_handle_obj_poll_events
	.section	.text.z_impl_k_poll_signal_init,"ax",%progbits
	.align	1
	.global	z_impl_k_poll_signal_init
	.syntax unified
	.thumb
	.thumb_func
	.fpu fpv4-sp-d16
	.type	z_impl_k_poll_signal_init, %function
z_impl_k_poll_signal_init:
.LVL309:
.LFB566:
	.loc 1 457 1 is_stmt 1 view -0
	.cfi_startproc
	@ args = 0, pretend = 0, frame = 0
	@ frame_needed = 0, uses_anonymous_args = 0
	@ link register save eliminated.
	.loc 1 458 2 view .LVU1091
.LBB773:
.LBI773:
	.loc 5 197 20 view .LVU1092
.LBB774:
	.loc 5 199 2 view .LVU1093
	.loc 5 199 13 is_stmt 0 view .LVU1094
	str	r0, [r0]
	.loc 5 200 2 is_stmt 1 view .LVU1095
	.loc 5 200 13 is_stmt 0 view .LVU1096
	str	r0, [r0, #4]
.LVL310:
	.loc 5 200 13 view .LVU1097
.LBE774:
.LBE773:
	.loc 1 459 2 is_stmt 1 view .LVU1098
	.loc 1 459 16 is_stmt 0 view .LVU1099
	movs	r3, #0
	str	r3, [r0, #8]
	.loc 1 461 2 is_stmt 1 view .LVU1100
.LVL311:
	.file 11 "/home/sebin/thesis/zephyrproject/zephyr/include/sys/kobject.h"
	.loc 11 202 2 view .LVU1101
	.loc 1 463 2 view .LVU1102
	.loc 1 463 7 view .LVU1103
	.loc 1 463 15 view .LVU1104
	.loc 1 464 1 is_stmt 0 view .LVU1105
	bx	lr
	.cfi_endproc
.LFE566:
	.size	z_impl_k_poll_signal_init, .-z_impl_k_poll_signal_init
	.section	.text.z_impl_k_poll_signal_reset,"ax",%progbits
	.align	1
	.global	z_impl_k_poll_signal_reset
	.syntax unified
	.thumb
	.thumb_func
	.fpu fpv4-sp-d16
	.type	z_impl_k_poll_signal_reset, %function
z_impl_k_poll_signal_reset:
.LVL312:
.LFB567:
	.loc 1 476 1 is_stmt 1 view -0
	.cfi_startproc
	@ args = 0, pretend = 0, frame = 0
	@ frame_needed = 0, uses_anonymous_args = 0
	@ link register save eliminated.
	.loc 1 477 2 view .LVU1107
	.loc 1 477 16 is_stmt 0 view .LVU1108
	movs	r3, #0
	str	r3, [r0, #8]
	.loc 1 479 2 is_stmt 1 view .LVU1109
	.loc 1 479 7 view .LVU1110
	.loc 1 479 15 view .LVU1111
	.loc 1 480 1 is_stmt 0 view .LVU1112
	bx	lr
	.cfi_endproc
.LFE567:
	.size	z_impl_k_poll_signal_reset, .-z_impl_k_poll_signal_reset
	.section	.text.z_impl_k_poll_signal_check,"ax",%progbits
	.align	1
	.global	z_impl_k_poll_signal_check
	.syntax unified
	.thumb
	.thumb_func
	.fpu fpv4-sp-d16
	.type	z_impl_k_poll_signal_check, %function
z_impl_k_poll_signal_check:
.LVL313:
.LFB568:
	.loc 1 484 1 is_stmt 1 view -0
	.cfi_startproc
	@ args = 0, pretend = 0, frame = 0
	@ frame_needed = 0, uses_anonymous_args = 0
	@ link register save eliminated.
	.loc 1 485 2 view .LVU1114
	.loc 1 485 17 is_stmt 0 view .LVU1115
	ldr	r3, [r0, #8]
	.loc 1 485 12 view .LVU1116
	str	r3, [r1]
	.loc 1 486 2 is_stmt 1 view .LVU1117
	.loc 1 486 15 is_stmt 0 view .LVU1118
	ldr	r3, [r0, #12]
	.loc 1 486 10 view .LVU1119
	str	r3, [r2]
	.loc 1 488 2 is_stmt 1 view .LVU1120
	.loc 1 488 7 view .LVU1121
	.loc 1 488 15 view .LVU1122
	.loc 1 489 1 is_stmt 0 view .LVU1123
	bx	lr
	.cfi_endproc
.LFE568:
	.size	z_impl_k_poll_signal_check, .-z_impl_k_poll_signal_check
	.section	.text.z_impl_k_poll_signal_raise,"ax",%progbits
	.align	1
	.global	z_impl_k_poll_signal_raise
	.syntax unified
	.thumb
	.thumb_func
	.fpu fpv4-sp-d16
	.type	z_impl_k_poll_signal_raise, %function
z_impl_k_poll_signal_raise:
.LVL314:
.LFB569:
	.loc 1 504 1 is_stmt 1 view -0
	.cfi_startproc
	@ args = 0, pretend = 0, frame = 0
	@ frame_needed = 0, uses_anonymous_args = 0
	.loc 1 504 1 is_stmt 0 view .LVU1125
	push	{r3, r4, r5, lr}
	.cfi_def_cfa_offset 16
	.cfi_offset 3, -16
	.cfi_offset 4, -12
	.cfi_offset 5, -8
	.cfi_offset 14, -4
	mov	r3, r0
	.loc 1 505 2 is_stmt 1 view .LVU1126
.LVL315:
.LBB775:
.LBI775:
	.loc 6 130 63 view .LVU1127
.LBB776:
	.loc 6 132 2 view .LVU1128
	.loc 6 133 2 view .LVU1129
	.loc 6 139 2 view .LVU1130
.LBB777:
.LBI777:
	.loc 7 43 59 view .LVU1131
.LBB778:
	.loc 7 45 2 view .LVU1132
	.loc 7 54 2 view .LVU1133
	.loc 7 56 2 view .LVU1134
	.syntax unified
@ 56 "/home/sebin/thesis/zephyrproject/zephyr/include/arch/arm/aarch32/asm_inline_gcc.h" 1
	mov r2, #4;mrs r5, BASEPRI;msr BASEPRI_MAX, r2;isb;
@ 0 "" 2
.LVL316:
	.loc 7 76 2 view .LVU1135
	.loc 7 76 2 is_stmt 0 view .LVU1136
	.thumb
	.syntax unified
.LBE778:
.LBE777:
	.loc 6 156 2 is_stmt 1 view .LVU1137
	.loc 6 156 2 is_stmt 0 view .LVU1138
.LBE776:
.LBE775:
	.loc 1 506 2 is_stmt 1 view .LVU1139
	.loc 1 508 2 view .LVU1140
	.loc 1 508 14 is_stmt 0 view .LVU1141
	str	r1, [r0, #12]
	.loc 1 509 2 is_stmt 1 view .LVU1142
	.loc 1 509 16 is_stmt 0 view .LVU1143
	movs	r2, #1
	str	r2, [r0, #8]
	.loc 1 511 2 is_stmt 1 view .LVU1144
.LVL317:
.LBB779:
.LBI779:
	.loc 5 516 28 view .LVU1145
.LBB780:
	.loc 5 518 2 view .LVU1146
	.loc 5 520 2 view .LVU1147
.LBB781:
.LBI781:
	.loc 5 266 19 view .LVU1148
.LBB782:
	.loc 5 268 2 view .LVU1149
	.loc 5 268 13 is_stmt 0 view .LVU1150
	ldr	r0, [r0]
.LVL318:
	.loc 5 268 13 view .LVU1151
.LBE782:
.LBE781:
	.loc 5 520 5 view .LVU1152
	cmp	r3, r0
	beq	.L163
	.loc 5 521 3 is_stmt 1 view .LVU1153
.LVL319:
	.loc 5 522 3 view .LVU1154
.LBB783:
.LBI783:
	.loc 5 496 20 view .LVU1155
.LBB784:
	.loc 5 498 2 view .LVU1156
	.loc 5 498 21 is_stmt 0 view .LVU1157
	ldr	r2, [r0, #4]
.LVL320:
	.loc 5 499 2 is_stmt 1 view .LVU1158
	.loc 5 499 21 is_stmt 0 view .LVU1159
	ldr	r3, [r0]
.LVL321:
	.loc 5 501 2 is_stmt 1 view .LVU1160
	.loc 5 501 13 is_stmt 0 view .LVU1161
	str	r3, [r2]
	.loc 5 502 2 is_stmt 1 view .LVU1162
	.loc 5 502 13 is_stmt 0 view .LVU1163
	str	r2, [r3, #4]
	.loc 5 503 2 is_stmt 1 view .LVU1164
.LVL322:
.LBB785:
.LBI785:
	.loc 5 211 20 view .LVU1165
.LBB786:
	.loc 5 213 2 view .LVU1166
	.loc 5 213 13 is_stmt 0 view .LVU1167
	movs	r3, #0
.LVL323:
	.loc 5 213 13 view .LVU1168
	str	r3, [r0]
	.loc 5 214 2 is_stmt 1 view .LVU1169
	.loc 5 214 13 is_stmt 0 view .LVU1170
	str	r3, [r0, #4]
.LVL324:
	.loc 5 214 13 view .LVU1171
.LBE786:
.LBE785:
.LBE784:
.LBE783:
	.loc 5 525 2 is_stmt 1 view .LVU1172
	.loc 5 525 2 is_stmt 0 view .LVU1173
.LBE780:
.LBE779:
	.loc 1 512 2 is_stmt 1 view .LVU1174
	.loc 1 512 5 is_stmt 0 view .LVU1175
	cbz	r0, .L163
	.loc 1 520 2 is_stmt 1 view .LVU1176
	.loc 1 520 11 is_stmt 0 view .LVU1177
	movs	r1, #1
.LVL325:
	.loc 1 520 11 view .LVU1178
	bl	signal_poll_event
.LVL326:
	.loc 1 520 11 view .LVU1179
	mov	r4, r0
.LVL327:
	.loc 1 522 2 is_stmt 1 view .LVU1180
	.loc 1 522 7 view .LVU1181
	.loc 1 522 15 view .LVU1182
	.loc 1 524 2 view .LVU1183
	mov	r1, r5
	ldr	r0, .L167
.LVL328:
	.loc 1 524 2 is_stmt 0 view .LVU1184
	bl	z_reschedule
.LVL329:
	.loc 1 525 2 is_stmt 1 view .LVU1185
.L162:
	.loc 1 526 1 is_stmt 0 view .LVU1186
	mov	r0, r4
	pop	{r3, r4, r5, pc}
.LVL330:
.L163:
	.loc 1 513 3 is_stmt 1 view .LVU1187
.LBB787:
.LBI787:
	.loc 6 180 51 view .LVU1188
.LBE787:
	.loc 6 183 2 view .LVU1189
	.loc 6 198 2 view .LVU1190
.LBB790:
.LBB788:
.LBI788:
	.loc 7 84 51 view .LVU1191
.LBB789:
	.loc 7 95 2 view .LVU1192
	.syntax unified
@ 95 "/home/sebin/thesis/zephyrproject/zephyr/include/arch/arm/aarch32/asm_inline_gcc.h" 1
	msr BASEPRI, r5;isb;
@ 0 "" 2
.LVL331:
	.loc 7 95 2 is_stmt 0 view .LVU1193
	.thumb
	.syntax unified
.LBE789:
.LBE788:
.LBE790:
	.loc 1 515 3 is_stmt 1 view .LVU1194
	.loc 1 515 8 view .LVU1195
	.loc 1 515 16 view .LVU1196
	.loc 1 517 3 view .LVU1197
	.loc 1 517 10 is_stmt 0 view .LVU1198
	movs	r4, #0
	b	.L162
.L168:
	.align	2
.L167:
	.word	.LANCHOR1
	.cfi_endproc
.LFE569:
	.size	z_impl_k_poll_signal_raise, .-z_impl_k_poll_signal_raise
	.section	.text.k_work_poll_init,"ax",%progbits
	.align	1
	.global	k_work_poll_init
	.syntax unified
	.thumb
	.thumb_func
	.fpu fpv4-sp-d16
	.type	k_work_poll_init, %function
k_work_poll_init:
.LVL332:
.LFB574:
	.loc 1 628 1 is_stmt 1 view -0
	.cfi_startproc
	@ args = 0, pretend = 0, frame = 0
	@ frame_needed = 0, uses_anonymous_args = 0
	.loc 1 628 1 is_stmt 0 view .LVU1200
	push	{r3, r4, r5, lr}
	.cfi_def_cfa_offset 16
	.cfi_offset 3, -16
	.cfi_offset 4, -12
	.cfi_offset 5, -8
	.cfi_offset 14, -4
	mov	r4, r0
	mov	r5, r1
	.loc 1 629 2 is_stmt 1 view .LVU1201
	.loc 1 629 7 view .LVU1202
	.loc 1 629 15 view .LVU1203
	.loc 1 631 2 view .LVU1204
	.loc 1 631 8 is_stmt 0 view .LVU1205
	movs	r2, #72
	movs	r1, #0
.LVL333:
	.loc 1 631 8 view .LVU1206
	bl	memset
.LVL334:
	.loc 1 632 2 is_stmt 1 view .LVU1207
	ldr	r1, .L171
	mov	r0, r4
	bl	k_work_init
.LVL335:
	.loc 1 633 2 view .LVU1208
	.loc 1 633 21 is_stmt 0 view .LVU1209
	str	r5, [r4, #32]
	.loc 1 634 2 is_stmt 1 view .LVU1210
.LVL336:
.LBB791:
.LBI791:
	.loc 4 25 20 view .LVU1211
.LBE791:
	.loc 4 27 2 view .LVU1212
.LBB794:
.LBB792:
.LBI792:
	.loc 5 211 20 view .LVU1213
.LBB793:
	.loc 5 213 2 view .LVU1214
	.loc 5 213 13 is_stmt 0 view .LVU1215
	movs	r3, #0
	str	r3, [r4, #40]
	.loc 5 214 2 is_stmt 1 view .LVU1216
	.loc 5 214 13 is_stmt 0 view .LVU1217
	str	r3, [r4, #44]
.LVL337:
	.loc 5 214 13 view .LVU1218
.LBE793:
.LBE792:
.LBE794:
	.loc 1 636 2 is_stmt 1 view .LVU1219
	.loc 1 636 7 view .LVU1220
	.loc 1 636 15 view .LVU1221
	.loc 1 637 1 is_stmt 0 view .LVU1222
	pop	{r3, r4, r5, pc}
.LVL338:
.L172:
	.loc 1 637 1 view .LVU1223
	.align	2
.L171:
	.word	triggered_work_handler
	.cfi_endproc
.LFE574:
	.size	k_work_poll_init, .-k_work_poll_init
	.section	.text.k_work_poll_submit_to_queue,"ax",%progbits
	.align	1
	.global	k_work_poll_submit_to_queue
	.syntax unified
	.thumb
	.thumb_func
	.fpu fpv4-sp-d16
	.type	k_work_poll_submit_to_queue, %function
k_work_poll_submit_to_queue:
.LVL339:
.LFB575:
	.loc 1 644 1 is_stmt 1 view -0
	.cfi_startproc
	@ args = 8, pretend = 0, frame = 32
	@ frame_needed = 0, uses_anonymous_args = 0
	.loc 1 644 1 is_stmt 0 view .LVU1225
	push	{r4, r5, r6, r7, r8, r9, r10, fp, lr}
	.cfi_def_cfa_offset 36
	.cfi_offset 4, -36
	.cfi_offset 5, -32
	.cfi_offset 6, -28
	.cfi_offset 7, -24
	.cfi_offset 8, -20
	.cfi_offset 9, -16
	.cfi_offset 10, -12
	.cfi_offset 11, -8
	.cfi_offset 14, -4
	sub	sp, sp, #36
	.cfi_def_cfa_offset 72
	str	r0, [sp, #12]
	mov	r5, r1
	mov	r9, r2
	str	r3, [sp, #8]
	.loc 1 645 2 is_stmt 1 view .LVU1226
	.loc 1 646 2 view .LVU1227
	.loc 1 648 4 view .LVU1228
	.loc 1 648 5 view .LVU1229
	.loc 1 649 4 view .LVU1230
	.loc 1 649 5 view .LVU1231
	.loc 1 650 4 view .LVU1232
	.loc 1 650 5 view .LVU1233
	.loc 1 651 4 view .LVU1234
	.loc 1 651 5 view .LVU1235
	.loc 1 653 2 view .LVU1236
	.loc 1 653 7 view .LVU1237
	.loc 1 653 15 view .LVU1238
	.loc 1 656 2 view .LVU1239
.LVL340:
.LBB958:
.LBI958:
	.loc 6 130 63 view .LVU1240
.LBB959:
	.loc 6 132 2 view .LVU1241
	.loc 6 133 2 view .LVU1242
	.loc 6 139 2 view .LVU1243
.LBB960:
.LBI960:
	.loc 7 43 59 view .LVU1244
.LBB961:
	.loc 7 45 2 view .LVU1245
	.loc 7 54 2 view .LVU1246
	.loc 7 56 2 view .LVU1247
	.syntax unified
@ 56 "/home/sebin/thesis/zephyrproject/zephyr/include/arch/arm/aarch32/asm_inline_gcc.h" 1
	mov r3, #4;mrs r4, BASEPRI;msr BASEPRI_MAX, r3;isb;
@ 0 "" 2
.LVL341:
	.loc 7 76 2 view .LVU1248
	.loc 7 76 2 is_stmt 0 view .LVU1249
	.thumb
	.syntax unified
.LBE961:
.LBE960:
	.loc 6 156 2 is_stmt 1 view .LVU1250
	.loc 6 156 2 is_stmt 0 view .LVU1251
.LBE959:
.LBE958:
	.loc 1 657 2 is_stmt 1 view .LVU1252
	.loc 1 657 10 is_stmt 0 view .LVU1253
	ldr	r3, [r1, #16]
	.loc 1 657 5 view .LVU1254
	cbz	r3, .L174
	.loc 1 658 3 is_stmt 1 view .LVU1255
	.loc 1 658 6 is_stmt 0 view .LVU1256
	cmp	r3, r0
	bne	.L175
.LBB962:
	.loc 1 659 4 is_stmt 1 view .LVU1257
	.loc 1 661 4 view .LVU1258
	.loc 1 661 13 is_stmt 0 view .LVU1259
	mov	r1, r4
.LVL342:
	.loc 1 661 13 view .LVU1260
	mov	r0, r5
.LVL343:
	.loc 1 661 13 view .LVU1261
	bl	triggered_work_cancel
.LVL344:
	.loc 1 662 4 is_stmt 1 view .LVU1262
	.loc 1 662 7 is_stmt 0 view .LVU1263
	subs	fp, r0, #0
	blt	.L254
.LVL345:
.L174:
	.loc 1 662 7 view .LVU1264
.LBE962:
	.loc 1 681 2 is_stmt 1 view .LVU1265
	.loc 1 681 26 is_stmt 0 view .LVU1266
	movs	r3, #1
	strb	r3, [r5, #20]
	.loc 1 682 2 is_stmt 1 view .LVU1267
	.loc 1 682 14 is_stmt 0 view .LVU1268
	ldr	r3, [sp, #12]
	str	r3, [r5, #16]
	.loc 1 683 2 is_stmt 1 view .LVU1269
	.loc 1 683 20 is_stmt 0 view .LVU1270
	movs	r0, #0
	strb	r0, [r5, #21]
	.loc 1 684 2 is_stmt 1 view .LVU1271
.LVL346:
.LBB967:
.LBI967:
	.loc 6 180 51 view .LVU1272
.LBE967:
	.loc 6 183 2 view .LVU1273
	.loc 6 198 2 view .LVU1274
.LBB970:
.LBB968:
.LBI968:
	.loc 7 84 51 view .LVU1275
.LBB969:
	.loc 7 95 2 view .LVU1276
	.syntax unified
@ 95 "/home/sebin/thesis/zephyrproject/zephyr/include/arch/arm/aarch32/asm_inline_gcc.h" 1
	msr BASEPRI, r4;isb;
@ 0 "" 2
.LVL347:
	.loc 7 95 2 is_stmt 0 view .LVU1277
	.thumb
	.syntax unified
.LBE969:
.LBE968:
.LBE970:
	.loc 1 687 2 is_stmt 1 view .LVU1278
	.loc 1 687 15 is_stmt 0 view .LVU1279
	str	r9, [r5, #24]
	.loc 1 688 2 is_stmt 1 view .LVU1280
	.loc 1 688 19 is_stmt 0 view .LVU1281
	ldr	r3, [sp, #8]
	str	r3, [r5, #28]
	.loc 1 691 2 is_stmt 1 view .LVU1282
	.loc 1 691 20 is_stmt 0 view .LVU1283
	mvn	r3, #118
	str	r3, [r5, #64]
	.loc 1 694 2 is_stmt 1 view .LVU1284
	.loc 1 694 22 is_stmt 0 view .LVU1285
	add	r6, r5, #20
.LVL348:
.LBB971:
.LBI971:
	.loc 1 214 19 is_stmt 1 view .LVU1286
.LBB972:
	.loc 1 219 2 view .LVU1287
	.loc 1 221 2 view .LVU1288
.LBB973:
	.loc 1 221 7 view .LVU1289
	.loc 1 221 11 is_stmt 0 view .LVU1290
	mov	r7, r0
.LBE973:
	.loc 1 219 6 view .LVU1291
	mov	fp, r0
	str	r5, [sp, #20]
.LBB1100:
	.loc 1 221 2 view .LVU1292
	b	.L177
.LVL349:
.L254:
	.loc 1 221 2 view .LVU1293
.LBE1100:
.LBE972:
.LBE971:
.LBB1109:
	.loc 1 663 5 is_stmt 1 view .LVU1294
.LBB963:
.LBI963:
	.loc 6 180 51 view .LVU1295
.LBE963:
.LBE1109:
	.loc 6 183 2 view .LVU1296
	.loc 6 198 2 view .LVU1297
.LBB1110:
.LBB966:
.LBB964:
.LBI964:
	.loc 7 84 51 view .LVU1298
.LBB965:
	.loc 7 95 2 view .LVU1299
	.syntax unified
@ 95 "/home/sebin/thesis/zephyrproject/zephyr/include/arch/arm/aarch32/asm_inline_gcc.h" 1
	msr BASEPRI, r4;isb;
@ 0 "" 2
.LVL350:
	.loc 7 95 2 is_stmt 0 view .LVU1300
	.thumb
	.syntax unified
.LBE965:
.LBE964:
.LBE966:
	.loc 1 665 5 is_stmt 1 view .LVU1301
	.loc 1 665 10 view .LVU1302
	.loc 1 665 18 view .LVU1303
	.loc 1 668 5 view .LVU1304
	.loc 1 668 12 is_stmt 0 view .LVU1305
	b	.L173
.LVL351:
.L175:
	.loc 1 668 12 view .LVU1306
.LBE1110:
	.loc 1 671 4 is_stmt 1 view .LVU1307
.LBB1111:
.LBI1111:
	.loc 6 180 51 view .LVU1308
.LBE1111:
	.loc 6 183 2 view .LVU1309
	.loc 6 198 2 view .LVU1310
.LBB1114:
.LBB1112:
.LBI1112:
	.loc 7 84 51 view .LVU1311
.LBB1113:
	.loc 7 95 2 view .LVU1312
	.syntax unified
@ 95 "/home/sebin/thesis/zephyrproject/zephyr/include/arch/arm/aarch32/asm_inline_gcc.h" 1
	msr BASEPRI, r4;isb;
@ 0 "" 2
.LVL352:
	.loc 7 95 2 is_stmt 0 view .LVU1313
	.thumb
	.syntax unified
.LBE1113:
.LBE1112:
.LBE1114:
	.loc 1 673 4 is_stmt 1 view .LVU1314
	.loc 1 673 9 view .LVU1315
	.loc 1 673 17 view .LVU1316
	.loc 1 676 4 view .LVU1317
	.loc 1 676 11 is_stmt 0 view .LVU1318
	mvn	fp, #111
	b	.L173
.LVL353:
.L182:
.LBB1115:
.LBB1105:
.LBB1101:
.LBB974:
.LBB975:
.LBB976:
	.loc 1 66 3 is_stmt 1 view .LVU1319
	.loc 1 66 7 is_stmt 0 view .LVU1320
	ldr	r3, [r4, #16]
.LVL354:
.LBB977:
.LBI977:
	.loc 8 1067 28 is_stmt 1 view .LVU1321
.LBB978:
	.loc 8 1075 2 view .LVU1322
	.loc 8 1075 7 view .LVU1323
	.loc 8 1075 55 view .LVU1324
	.loc 8 1076 2 view .LVU1325
.LVL355:
.LBB979:
.LBI979:
	.loc 9 2932 28 view .LVU1326
.LBB980:
	.loc 9 2934 2 view .LVU1327
	.loc 9 2934 12 is_stmt 0 view .LVU1328
	ldr	r3, [r3, #8]
.LVL356:
	.loc 9 2934 12 view .LVU1329
.LBE980:
.LBE979:
.LBE978:
.LBE977:
	.loc 1 66 6 view .LVU1330
	cbz	r3, .L178
	.loc 1 67 11 view .LVU1331
	movs	r3, #2
	str	r3, [sp, #4]
.LVL357:
	.loc 1 68 10 view .LVU1332
	movs	r3, #1
	b	.L178
.LVL358:
.L181:
	.loc 1 72 3 is_stmt 1 view .LVU1333
	.loc 1 72 8 is_stmt 0 view .LVU1334
	ldr	r3, [r4, #16]
.LVL359:
.LBB981:
.LBI981:
	.loc 8 664 19 is_stmt 1 view .LVU1335
.LBB982:
	.loc 8 672 2 view .LVU1336
	.loc 8 672 7 view .LVU1337
	.loc 8 672 55 view .LVU1338
	.loc 8 673 2 view .LVU1339
.LVL360:
.LBB983:
.LBI983:
	.loc 9 1871 19 view .LVU1340
.LBE983:
.LBE982:
.LBE981:
.LBE976:
.LBE975:
.LBE974:
.LBE1101:
.LBE1105:
.LBE1115:
	.loc 9 1873 2 view .LVU1341
.LBB1116:
.LBB1106:
.LBB1102:
.LBB1096:
.LBB997:
.LBB994:
.LBB992:
.LBB990:
.LBB988:
.LBB984:
.LBI984:
	.loc 10 323 1 view .LVU1342
.LBE984:
.LBE988:
.LBE990:
.LBE992:
.LBE994:
.LBE997:
.LBE1096:
.LBE1102:
.LBE1106:
.LBE1116:
	.loc 10 323 43 view .LVU1343
.LBB1117:
.LBB1107:
.LBB1103:
.LBB1097:
.LBB998:
.LBB995:
.LBB993:
.LBB991:
.LBB989:
.LBB987:
.LBB985:
.LBI985:
	.loc 10 243 29 view .LVU1344
.LBB986:
	.loc 10 245 2 view .LVU1345
	.loc 10 245 13 is_stmt 0 view .LVU1346
	ldr	r3, [r3]
.LVL361:
	.loc 10 245 13 view .LVU1347
.LBE986:
.LBE985:
.LBE987:
.LBE989:
.LBE991:
.LBE993:
	.loc 1 72 6 view .LVU1348
	cbz	r3, .L178
	.loc 1 73 11 view .LVU1349
	movs	r3, #4
	str	r3, [sp, #4]
.LVL362:
	.loc 1 74 10 view .LVU1350
	movs	r3, #1
	b	.L178
.LVL363:
.L183:
	.loc 1 78 3 is_stmt 1 view .LVU1351
	.loc 1 78 12 is_stmt 0 view .LVU1352
	ldr	r3, [r4, #16]
	.loc 1 78 20 view .LVU1353
	ldr	r3, [r3, #8]
	.loc 1 78 6 view .LVU1354
	cbz	r3, .L178
	.loc 1 79 11 view .LVU1355
	movs	r3, #1
	str	r3, [sp, #4]
.LVL364:
	.loc 1 79 11 view .LVU1356
	b	.L178
.LVL365:
.L179:
	.loc 1 84 3 is_stmt 1 view .LVU1357
	.loc 1 84 12 is_stmt 0 view .LVU1358
	ldr	r3, [r4, #16]
	.loc 1 84 18 view .LVU1359
	ldr	r3, [r3, #36]
	.loc 1 84 6 view .LVU1360
	cbz	r3, .L178
	.loc 1 85 11 view .LVU1361
	movs	r3, #16
	str	r3, [sp, #4]
.LVL366:
	.loc 1 86 10 view .LVU1362
	movs	r3, #1
	b	.L178
.LVL367:
.L232:
	.loc 1 64 15 view .LVU1363
	movs	r3, #0
.LVL368:
.L178:
	.loc 1 64 15 view .LVU1364
.LBE995:
.LBE998:
	.loc 1 226 6 view .LVU1365
	cmp	r3, #0
	beq	.L184
	.loc 1 227 4 is_stmt 1 view .LVU1366
.LVL369:
.LBB999:
.LBI999:
	.loc 1 208 20 view .LVU1367
.LBB1000:
	.loc 1 210 2 view .LVU1368
	.loc 1 210 16 is_stmt 0 view .LVU1369
	movs	r1, #0
	str	r1, [r4, #8]
	.loc 1 211 2 is_stmt 1 view .LVU1370
	.loc 1 211 15 is_stmt 0 view .LVU1371
	ldr	r3, [r4, #12]
	ubfx	r2, r3, #13, #6
	ldr	r0, [sp, #4]
	orrs	r2, r2, r0
	bfi	r3, r2, #13, #6
	str	r3, [r4, #12]
.LVL370:
	.loc 1 211 15 view .LVU1372
.LBE1000:
.LBE999:
	.loc 1 228 4 is_stmt 1 view .LVU1373
	.loc 1 228 23 is_stmt 0 view .LVU1374
	strb	r1, [r6]
.LVL371:
.L185:
	.loc 1 237 4 is_stmt 1 view .LVU1375
	.loc 1 239 3 view .LVU1376
.LBB1001:
.LBI1001:
	.loc 6 180 51 view .LVU1377
.LBE1001:
.LBE1097:
.LBE1103:
.LBE1107:
.LBE1117:
	.loc 6 183 2 view .LVU1378
	.loc 6 198 2 view .LVU1379
.LBB1118:
.LBB1108:
.LBB1104:
.LBB1098:
.LBB1004:
.LBB1002:
.LBI1002:
	.loc 7 84 51 view .LVU1380
.LBB1003:
	.loc 7 95 2 view .LVU1381
	.syntax unified
@ 95 "/home/sebin/thesis/zephyrproject/zephyr/include/arch/arm/aarch32/asm_inline_gcc.h" 1
	msr BASEPRI, r5;isb;
@ 0 "" 2
.LVL372:
	.loc 7 95 2 is_stmt 0 view .LVU1382
	.thumb
	.syntax unified
.LBE1003:
.LBE1002:
.LBE1004:
.LBE1098:
	.loc 1 221 36 is_stmt 1 view .LVU1383
	.loc 1 221 38 is_stmt 0 view .LVU1384
	adds	r7, r7, #1
.LVL373:
.L177:
	.loc 1 221 19 is_stmt 1 view .LVU1385
	.loc 1 221 2 is_stmt 0 view .LVU1386
	ldr	r3, [sp, #8]
	cmp	r3, r7
	ble	.L255
.LBB1099:
	.loc 1 222 3 is_stmt 1 view .LVU1387
	.loc 1 223 3 view .LVU1388
	.loc 1 225 3 view .LVU1389
.LVL374:
.LBB1005:
.LBI1005:
	.loc 6 130 63 view .LVU1390
.LBB1006:
	.loc 6 132 2 view .LVU1391
	.loc 6 133 2 view .LVU1392
	.loc 6 139 2 view .LVU1393
.LBB1007:
.LBI1007:
	.loc 7 43 59 view .LVU1394
.LBB1008:
	.loc 7 45 2 view .LVU1395
	.loc 7 54 2 view .LVU1396
	.loc 7 56 2 view .LVU1397
	.syntax unified
@ 56 "/home/sebin/thesis/zephyrproject/zephyr/include/arch/arm/aarch32/asm_inline_gcc.h" 1
	mov r3, #4;mrs r5, BASEPRI;msr BASEPRI_MAX, r3;isb;
@ 0 "" 2
.LVL375:
	.loc 7 76 2 view .LVU1398
	.loc 7 76 2 is_stmt 0 view .LVU1399
	.thumb
	.syntax unified
.LBE1008:
.LBE1007:
	.loc 6 156 2 is_stmt 1 view .LVU1400
	.loc 6 156 2 is_stmt 0 view .LVU1401
.LBE1006:
.LBE1005:
	.loc 1 226 3 is_stmt 1 view .LVU1402
	.loc 1 226 31 is_stmt 0 view .LVU1403
	add	r4, r7, r7, lsl #2
	lsls	r3, r4, #2
	str	r3, [sp, #16]
	.loc 1 226 7 view .LVU1404
	add	r4, r9, r4, lsl #2
.LVL376:
.LBB1009:
.LBI975:
	.loc 1 62 19 is_stmt 1 view .LVU1405
.LBB996:
	.loc 1 64 2 view .LVU1406
	.loc 1 64 15 is_stmt 0 view .LVU1407
	ldrb	r3, [r4, #13]	@ zero_extendqisi2
	and	r3, r3, #31
	subs	r3, r3, #1
	cmp	r3, #7
	bhi	.L232
	adr	r2, .L180
	ldr	pc, [r2, r3, lsl #2]
	.p2align 2
.L180:
	.word	.L183+1
	.word	.L182+1
	.word	.L232+1
	.word	.L181+1
	.word	.L232+1
	.word	.L232+1
	.word	.L232+1
	.word	.L179+1
.LVL377:
	.p2align 1
.L184:
	.loc 1 64 15 view .LVU1408
.LBE996:
.LBE1009:
	.loc 1 229 10 is_stmt 1 view .LVU1409
	.loc 1 229 35 is_stmt 0 view .LVU1410
	ldrb	r3, [r6]	@ zero_extendqisi2
	.loc 1 229 26 view .LVU1411
	cmp	r3, #0
	beq	.L185
	.loc 1 230 4 is_stmt 1 view .LVU1412
.LVL378:
.LBB1010:
.LBI1010:
	.loc 1 129 20 view .LVU1413
.LBB1011:
	.loc 1 132 2 view .LVU1414
	.loc 1 132 15 is_stmt 0 view .LVU1415
	ldrb	r3, [r4, #13]	@ zero_extendqisi2
	and	r3, r3, #31
	subs	r3, r3, #1
	cmp	r3, #7
	bhi	.L186
	tbh	[pc, r3, lsl #1]
.L188:
	.2byte	(.L191-.L188)/2
	.2byte	(.L190-.L188)/2
	.2byte	(.L186-.L188)/2
	.2byte	(.L189-.L188)/2
	.2byte	(.L186-.L188)/2
	.2byte	(.L186-.L188)/2
	.2byte	(.L186-.L188)/2
	.2byte	(.L187-.L188)/2
	.p2align 1
.L190:
	.loc 1 134 5 is_stmt 1 view .LVU1416
	.loc 1 134 6 view .LVU1417
	.loc 1 135 3 view .LVU1418
	.loc 1 135 19 is_stmt 0 view .LVU1419
	ldr	r10, [r4, #16]
	.loc 1 135 3 view .LVU1420
	add	r8, r10, #16
.LVL379:
.LBB1012:
.LBI1012:
	.loc 1 104 20 is_stmt 1 view .LVU1421
.LBB1013:
	.loc 1 107 2 view .LVU1422
	.loc 1 109 2 view .LVU1423
.LBB1014:
.LBI1014:
	.loc 5 390 28 view .LVU1424
.LBB1015:
	.loc 5 392 2 view .LVU1425
.LBB1016:
.LBI1016:
	.loc 5 266 19 view .LVU1426
.LBB1017:
	.loc 5 268 2 view .LVU1427
	.loc 5 268 13 is_stmt 0 view .LVU1428
	ldr	r3, [r10, #16]
.LVL380:
	.loc 5 268 13 view .LVU1429
.LBE1017:
.LBE1016:
	.loc 5 392 40 view .LVU1430
	cmp	r8, r3
	beq	.L192
	ldr	r3, [r8, #4]
.LVL381:
	.loc 5 392 40 view .LVU1431
.LBE1015:
.LBE1014:
	.loc 1 110 2 is_stmt 1 view .LVU1432
	.loc 1 110 5 is_stmt 0 view .LVU1433
	cbz	r3, .L192
	.loc 1 111 4 view .LVU1434
	ldr	r0, [r3, #8]
	bl	poller_thread
.LVL382:
	.loc 1 111 4 view .LVU1435
	str	r0, [sp, #28]
	mov	r0, r6
	bl	poller_thread
.LVL383:
	mov	r1, r0
	str	r0, [sp, #24]
	ldr	r0, [sp, #28]
	bl	z_sched_prio_cmp
.LVL384:
	.loc 1 110 23 view .LVU1436
	cmp	r0, #0
	bgt	.L192
	.loc 1 117 2 is_stmt 1 view .LVU1437
.LVL385:
.LBB1018:
.LBI1018:
	.loc 5 294 28 view .LVU1438
.LBB1019:
	.loc 5 296 2 view .LVU1439
.LBB1020:
.LBI1020:
	.loc 5 266 19 view .LVU1440
.LBB1021:
	.loc 5 268 2 view .LVU1441
	.loc 5 268 13 is_stmt 0 view .LVU1442
	ldr	r10, [r10, #16]
.LVL386:
	.loc 5 268 13 view .LVU1443
.LBE1021:
.LBE1020:
	.loc 5 296 40 view .LVU1444
	cmp	r8, r10
	beq	.L256
	mov	r3, r10
	mov	r10, r4
	mov	r4, r3
.LVL387:
.L198:
	.loc 5 296 40 view .LVU1445
.LBE1019:
.LBE1018:
	.loc 1 117 4 is_stmt 1 view .LVU1446
	.loc 1 117 2 is_stmt 0 view .LVU1447
	cbz	r4, .L257
	.loc 1 118 3 is_stmt 1 view .LVU1448
	.loc 1 118 7 is_stmt 0 view .LVU1449
	ldr	r0, [r4, #8]
	bl	poller_thread
.LVL388:
	mov	r1, r0
	ldr	r0, [sp, #24]
	bl	z_sched_prio_cmp
.LVL389:
	.loc 1 118 6 view .LVU1450
	cmp	r0, #0
	bgt	.L258
	.loc 1 117 3 is_stmt 1 view .LVU1451
.LVL390:
.LBB1022:
.LBI1022:
	.loc 5 341 28 view .LVU1452
.LBB1023:
	.loc 5 344 2 view .LVU1453
	.loc 5 344 66 is_stmt 0 view .LVU1454
	cbz	r4, .L242
.LVL391:
.LBB1024:
.LBI1024:
	.loc 5 325 28 is_stmt 1 view .LVU1455
.LBB1025:
	.loc 5 328 2 view .LVU1456
	.loc 5 328 22 is_stmt 0 view .LVU1457
	ldr	r3, [r8, #4]
	.loc 5 328 36 view .LVU1458
	cmp	r4, r3
	beq	.L243
	ldr	r4, [r4]
.LVL392:
	.loc 5 328 36 view .LVU1459
.LBE1025:
.LBE1024:
.LBE1023:
.LBE1022:
	.loc 1 117 4 view .LVU1460
	cmp	r4, #0
	bne	.L198
	mov	r4, r10
	b	.L197
.LVL393:
.L192:
	.loc 1 113 3 is_stmt 1 view .LVU1461
.LBB1026:
.LBI1026:
	.loc 5 404 20 view .LVU1462
.LBB1027:
	.loc 5 406 2 view .LVU1463
	.loc 5 406 21 is_stmt 0 view .LVU1464
	ldr	r3, [r8, #4]
.LVL394:
	.loc 5 408 2 is_stmt 1 view .LVU1465
	.loc 5 408 13 is_stmt 0 view .LVU1466
	ldr	r2, [sp, #16]
	str	r8, [r9, r2]
	.loc 5 409 2 is_stmt 1 view .LVU1467
	.loc 5 409 13 is_stmt 0 view .LVU1468
	str	r3, [r4, #4]
	.loc 5 411 2 is_stmt 1 view .LVU1469
	.loc 5 411 13 is_stmt 0 view .LVU1470
	str	r4, [r3]
	.loc 5 412 2 is_stmt 1 view .LVU1471
	.loc 5 412 13 is_stmt 0 view .LVU1472
	str	r4, [r8, #4]
.LVL395:
	.loc 5 412 13 view .LVU1473
.LBE1027:
.LBE1026:
	.loc 1 114 3 is_stmt 1 view .LVU1474
.L186:
	.loc 1 114 3 is_stmt 0 view .LVU1475
.LBE1013:
.LBE1012:
	.loc 1 157 2 is_stmt 1 view .LVU1476
	.loc 1 157 16 is_stmt 0 view .LVU1477
	str	r6, [r4, #8]
.LVL396:
	.loc 1 157 16 view .LVU1478
.LBE1011:
.LBE1010:
	.loc 1 231 4 is_stmt 1 view .LVU1479
	.loc 1 231 22 is_stmt 0 view .LVU1480
	add	fp, fp, #1
.LVL397:
	.loc 1 231 22 view .LVU1481
	b	.L185
.LVL398:
.L258:
	.loc 1 231 22 view .LVU1482
	mov	r3, r4
	mov	r4, r10
.LVL399:
	.loc 1 231 22 view .LVU1483
	mov	r10, r3
.LVL400:
.LBB1095:
.LBB1094:
.LBB1033:
.LBB1032:
	.loc 1 120 4 is_stmt 1 view .LVU1484
.LBB1028:
.LBI1028:
	.loc 5 443 20 view .LVU1485
.LBB1029:
	.loc 5 445 2 view .LVU1486
	.loc 5 445 21 is_stmt 0 view .LVU1487
	ldr	r3, [r3, #4]
.LVL401:
	.loc 5 447 2 is_stmt 1 view .LVU1488
	.loc 5 447 13 is_stmt 0 view .LVU1489
	str	r3, [r4, #4]
	.loc 5 448 2 is_stmt 1 view .LVU1490
	.loc 5 448 13 is_stmt 0 view .LVU1491
	ldr	r2, [sp, #16]
	str	r10, [r9, r2]
	.loc 5 449 2 is_stmt 1 view .LVU1492
	.loc 5 449 13 is_stmt 0 view .LVU1493
	str	r4, [r3]
	.loc 5 450 2 is_stmt 1 view .LVU1494
	.loc 5 450 18 is_stmt 0 view .LVU1495
	str	r4, [r10, #4]
.LVL402:
	.loc 5 450 18 view .LVU1496
.LBE1029:
.LBE1028:
	.loc 1 121 4 is_stmt 1 view .LVU1497
	b	.L186
.LVL403:
.L256:
	.loc 1 117 4 is_stmt 0 view .LVU1498
	mov	r10, #0
	mov	r3, r10
	mov	r10, r4
	mov	r4, r3
.LVL404:
	.loc 1 117 4 view .LVU1499
	b	.L198
.LVL405:
.L257:
	.loc 1 117 4 view .LVU1500
	mov	r4, r10
.LVL406:
	.loc 1 117 4 view .LVU1501
	b	.L197
.LVL407:
.L242:
	.loc 1 117 4 view .LVU1502
	mov	r4, r10
.LVL408:
.L197:
	.loc 1 125 2 is_stmt 1 view .LVU1503
.LBB1030:
.LBI1030:
	.loc 5 404 20 view .LVU1504
.LBB1031:
	.loc 5 406 2 view .LVU1505
	.loc 5 406 21 is_stmt 0 view .LVU1506
	ldr	r3, [r8, #4]
.LVL409:
	.loc 5 408 2 is_stmt 1 view .LVU1507
	.loc 5 408 13 is_stmt 0 view .LVU1508
	ldr	r2, [sp, #16]
	str	r8, [r9, r2]
	.loc 5 409 2 is_stmt 1 view .LVU1509
	.loc 5 409 13 is_stmt 0 view .LVU1510
	str	r3, [r4, #4]
	.loc 5 411 2 is_stmt 1 view .LVU1511
	.loc 5 411 13 is_stmt 0 view .LVU1512
	str	r4, [r3]
	.loc 5 412 2 is_stmt 1 view .LVU1513
	.loc 5 412 13 is_stmt 0 view .LVU1514
	str	r4, [r8, #4]
.LVL410:
	.loc 5 413 1 view .LVU1515
	b	.L186
.LVL411:
.L243:
	.loc 5 413 1 view .LVU1516
	mov	r4, r10
.LVL412:
	.loc 5 413 1 view .LVU1517
	b	.L197
.LVL413:
.L189:
	.loc 5 413 1 view .LVU1518
.LBE1031:
.LBE1030:
.LBE1032:
.LBE1033:
	.loc 1 138 5 is_stmt 1 view .LVU1519
	.loc 1 138 6 view .LVU1520
	.loc 1 139 3 view .LVU1521
	.loc 1 139 19 is_stmt 0 view .LVU1522
	ldr	r10, [r4, #16]
	.loc 1 139 3 view .LVU1523
	add	r8, r10, #20
.LVL414:
.LBB1034:
.LBI1034:
	.loc 1 104 20 is_stmt 1 view .LVU1524
.LBB1035:
	.loc 1 107 2 view .LVU1525
	.loc 1 109 2 view .LVU1526
.LBB1036:
.LBI1036:
	.loc 5 390 28 view .LVU1527
.LBB1037:
	.loc 5 392 2 view .LVU1528
.LBB1038:
.LBI1038:
	.loc 5 266 19 view .LVU1529
.LBB1039:
	.loc 5 268 2 view .LVU1530
	.loc 5 268 13 is_stmt 0 view .LVU1531
	ldr	r3, [r10, #20]
.LVL415:
	.loc 5 268 13 view .LVU1532
.LBE1039:
.LBE1038:
	.loc 5 392 40 view .LVU1533
	cmp	r8, r3
	beq	.L200
	ldr	r3, [r8, #4]
.LVL416:
	.loc 5 392 40 view .LVU1534
.LBE1037:
.LBE1036:
	.loc 1 110 2 is_stmt 1 view .LVU1535
	.loc 1 110 5 is_stmt 0 view .LVU1536
	cbz	r3, .L200
	.loc 1 111 4 view .LVU1537
	ldr	r0, [r3, #8]
	bl	poller_thread
.LVL417:
	.loc 1 111 4 view .LVU1538
	str	r0, [sp, #28]
	mov	r0, r6
	bl	poller_thread
.LVL418:
	mov	r1, r0
	str	r0, [sp, #24]
	ldr	r0, [sp, #28]
	bl	z_sched_prio_cmp
.LVL419:
	.loc 1 110 23 view .LVU1539
	cmp	r0, #0
	bgt	.L200
	.loc 1 117 2 is_stmt 1 view .LVU1540
.LVL420:
.LBB1040:
.LBI1040:
	.loc 5 294 28 view .LVU1541
.LBB1041:
	.loc 5 296 2 view .LVU1542
.LBB1042:
.LBI1042:
	.loc 5 266 19 view .LVU1543
.LBB1043:
	.loc 5 268 2 view .LVU1544
	.loc 5 268 13 is_stmt 0 view .LVU1545
	ldr	r10, [r10, #20]
.LVL421:
	.loc 5 268 13 view .LVU1546
.LBE1043:
.LBE1042:
	.loc 5 296 40 view .LVU1547
	cmp	r8, r10
	beq	.L259
	mov	r3, r10
	mov	r10, r4
	mov	r4, r3
.LVL422:
.L206:
	.loc 5 296 40 view .LVU1548
.LBE1041:
.LBE1040:
	.loc 1 117 4 is_stmt 1 view .LVU1549
	.loc 1 117 2 is_stmt 0 view .LVU1550
	cbz	r4, .L260
	.loc 1 118 3 is_stmt 1 view .LVU1551
	.loc 1 118 7 is_stmt 0 view .LVU1552
	ldr	r0, [r4, #8]
	bl	poller_thread
.LVL423:
	mov	r1, r0
	ldr	r0, [sp, #24]
	bl	z_sched_prio_cmp
.LVL424:
	.loc 1 118 6 view .LVU1553
	cmp	r0, #0
	bgt	.L261
	.loc 1 117 3 is_stmt 1 view .LVU1554
.LVL425:
.LBB1044:
.LBI1044:
	.loc 5 341 28 view .LVU1555
.LBB1045:
	.loc 5 344 2 view .LVU1556
	.loc 5 344 66 is_stmt 0 view .LVU1557
	cbz	r4, .L245
.LVL426:
.LBB1046:
.LBI1046:
	.loc 5 325 28 is_stmt 1 view .LVU1558
.LBB1047:
	.loc 5 328 2 view .LVU1559
	.loc 5 328 22 is_stmt 0 view .LVU1560
	ldr	r3, [r8, #4]
	.loc 5 328 36 view .LVU1561
	cmp	r4, r3
	beq	.L246
	ldr	r4, [r4]
.LVL427:
	.loc 5 328 36 view .LVU1562
.LBE1047:
.LBE1046:
.LBE1045:
.LBE1044:
	.loc 1 117 4 view .LVU1563
	cmp	r4, #0
	bne	.L206
	mov	r4, r10
	b	.L205
.LVL428:
.L200:
	.loc 1 113 3 is_stmt 1 view .LVU1564
.LBB1048:
.LBI1048:
	.loc 5 404 20 view .LVU1565
.LBB1049:
	.loc 5 406 2 view .LVU1566
	.loc 5 406 21 is_stmt 0 view .LVU1567
	ldr	r3, [r8, #4]
.LVL429:
	.loc 5 408 2 is_stmt 1 view .LVU1568
	.loc 5 408 13 is_stmt 0 view .LVU1569
	ldr	r2, [sp, #16]
	str	r8, [r9, r2]
	.loc 5 409 2 is_stmt 1 view .LVU1570
	.loc 5 409 13 is_stmt 0 view .LVU1571
	str	r3, [r4, #4]
	.loc 5 411 2 is_stmt 1 view .LVU1572
	.loc 5 411 13 is_stmt 0 view .LVU1573
	str	r4, [r3]
	.loc 5 412 2 is_stmt 1 view .LVU1574
	.loc 5 412 13 is_stmt 0 view .LVU1575
	str	r4, [r8, #4]
.LVL430:
	.loc 5 412 13 view .LVU1576
.LBE1049:
.LBE1048:
	.loc 1 114 3 is_stmt 1 view .LVU1577
	b	.L186
.LVL431:
.L261:
	.loc 1 114 3 is_stmt 0 view .LVU1578
	mov	r3, r4
	mov	r4, r10
.LVL432:
	.loc 1 114 3 view .LVU1579
	mov	r10, r3
.LVL433:
	.loc 1 120 4 is_stmt 1 view .LVU1580
.LBB1050:
.LBI1050:
	.loc 5 443 20 view .LVU1581
.LBB1051:
	.loc 5 445 2 view .LVU1582
	.loc 5 445 21 is_stmt 0 view .LVU1583
	ldr	r3, [r3, #4]
.LVL434:
	.loc 5 447 2 is_stmt 1 view .LVU1584
	.loc 5 447 13 is_stmt 0 view .LVU1585
	str	r3, [r4, #4]
	.loc 5 448 2 is_stmt 1 view .LVU1586
	.loc 5 448 13 is_stmt 0 view .LVU1587
	ldr	r2, [sp, #16]
	str	r10, [r9, r2]
	.loc 5 449 2 is_stmt 1 view .LVU1588
	.loc 5 449 13 is_stmt 0 view .LVU1589
	str	r4, [r3]
	.loc 5 450 2 is_stmt 1 view .LVU1590
	.loc 5 450 18 is_stmt 0 view .LVU1591
	str	r4, [r10, #4]
.LVL435:
	.loc 5 450 18 view .LVU1592
.LBE1051:
.LBE1050:
	.loc 1 121 4 is_stmt 1 view .LVU1593
	b	.L186
.LVL436:
.L259:
	.loc 1 117 4 is_stmt 0 view .LVU1594
	mov	r10, #0
	mov	r3, r10
	mov	r10, r4
	mov	r4, r3
.LVL437:
	.loc 1 117 4 view .LVU1595
	b	.L206
.LVL438:
.L260:
	.loc 1 117 4 view .LVU1596
	mov	r4, r10
.LVL439:
	.loc 1 117 4 view .LVU1597
	b	.L205
.LVL440:
.L245:
	.loc 1 117 4 view .LVU1598
	mov	r4, r10
.LVL441:
.L205:
	.loc 1 125 2 is_stmt 1 view .LVU1599
.LBB1052:
.LBI1052:
	.loc 5 404 20 view .LVU1600
.LBB1053:
	.loc 5 406 2 view .LVU1601
	.loc 5 406 21 is_stmt 0 view .LVU1602
	ldr	r3, [r8, #4]
.LVL442:
	.loc 5 408 2 is_stmt 1 view .LVU1603
	.loc 5 408 13 is_stmt 0 view .LVU1604
	ldr	r2, [sp, #16]
	str	r8, [r9, r2]
	.loc 5 409 2 is_stmt 1 view .LVU1605
	.loc 5 409 13 is_stmt 0 view .LVU1606
	str	r3, [r4, #4]
	.loc 5 411 2 is_stmt 1 view .LVU1607
	.loc 5 411 13 is_stmt 0 view .LVU1608
	str	r4, [r3]
	.loc 5 412 2 is_stmt 1 view .LVU1609
	.loc 5 412 13 is_stmt 0 view .LVU1610
	str	r4, [r8, #4]
.LVL443:
	.loc 5 413 1 view .LVU1611
	b	.L186
.LVL444:
.L246:
	.loc 5 413 1 view .LVU1612
	mov	r4, r10
.LVL445:
	.loc 5 413 1 view .LVU1613
	b	.L205
.LVL446:
.L191:
	.loc 5 413 1 view .LVU1614
.LBE1053:
.LBE1052:
.LBE1035:
.LBE1034:
	.loc 1 142 5 is_stmt 1 view .LVU1615
	.loc 1 142 6 view .LVU1616
	.loc 1 143 3 view .LVU1617
	.loc 1 143 19 is_stmt 0 view .LVU1618
	ldr	r8, [r4, #16]
.LVL447:
.LBB1054:
.LBI1054:
	.loc 1 104 20 is_stmt 1 view .LVU1619
.LBB1055:
	.loc 1 107 2 view .LVU1620
	.loc 1 109 2 view .LVU1621
.LBB1056:
.LBI1056:
	.loc 5 390 28 view .LVU1622
.LBB1057:
	.loc 5 392 2 view .LVU1623
.LBB1058:
.LBI1058:
	.loc 5 266 19 view .LVU1624
.LBB1059:
	.loc 5 268 2 view .LVU1625
	.loc 5 268 13 is_stmt 0 view .LVU1626
	ldr	r3, [r8]
.LVL448:
	.loc 5 268 13 view .LVU1627
.LBE1059:
.LBE1058:
	.loc 5 392 40 view .LVU1628
	cmp	r8, r3
	beq	.L208
	ldr	r3, [r8, #4]
.LVL449:
	.loc 5 392 40 view .LVU1629
.LBE1057:
.LBE1056:
	.loc 1 110 2 is_stmt 1 view .LVU1630
	.loc 1 110 5 is_stmt 0 view .LVU1631
	cbz	r3, .L208
	.loc 1 111 4 view .LVU1632
	ldr	r0, [r3, #8]
	bl	poller_thread
.LVL450:
	.loc 1 111 4 view .LVU1633
	mov	r10, r0
	mov	r0, r6
	bl	poller_thread
.LVL451:
	mov	r1, r0
	str	r0, [sp, #24]
	mov	r0, r10
	bl	z_sched_prio_cmp
.LVL452:
	.loc 1 110 23 view .LVU1634
	cmp	r0, #0
	bgt	.L208
	.loc 1 117 2 is_stmt 1 view .LVU1635
.LVL453:
.LBB1060:
.LBI1060:
	.loc 5 294 28 view .LVU1636
.LBB1061:
	.loc 5 296 2 view .LVU1637
.LBB1062:
.LBI1062:
	.loc 5 266 19 view .LVU1638
.LBB1063:
	.loc 5 268 2 view .LVU1639
	.loc 5 268 13 is_stmt 0 view .LVU1640
	ldr	r10, [r8]
.LVL454:
	.loc 5 268 13 view .LVU1641
.LBE1063:
.LBE1062:
	.loc 5 296 40 view .LVU1642
	cmp	r8, r10
	beq	.L262
	mov	r3, r10
	mov	r10, r4
	mov	r4, r3
.LVL455:
.L214:
	.loc 5 296 40 view .LVU1643
.LBE1061:
.LBE1060:
	.loc 1 117 4 is_stmt 1 view .LVU1644
	.loc 1 117 2 is_stmt 0 view .LVU1645
	cbz	r4, .L263
	.loc 1 118 3 is_stmt 1 view .LVU1646
	.loc 1 118 7 is_stmt 0 view .LVU1647
	ldr	r0, [r4, #8]
	bl	poller_thread
.LVL456:
	mov	r1, r0
	ldr	r0, [sp, #24]
	bl	z_sched_prio_cmp
.LVL457:
	.loc 1 118 6 view .LVU1648
	cmp	r0, #0
	bgt	.L264
	.loc 1 117 3 is_stmt 1 view .LVU1649
.LVL458:
.LBB1064:
.LBI1064:
	.loc 5 341 28 view .LVU1650
.LBB1065:
	.loc 5 344 2 view .LVU1651
	.loc 5 344 66 is_stmt 0 view .LVU1652
	cbz	r4, .L248
.LVL459:
.LBB1066:
.LBI1066:
	.loc 5 325 28 is_stmt 1 view .LVU1653
.LBB1067:
	.loc 5 328 2 view .LVU1654
	.loc 5 328 22 is_stmt 0 view .LVU1655
	ldr	r3, [r8, #4]
	.loc 5 328 36 view .LVU1656
	cmp	r4, r3
	beq	.L249
	ldr	r4, [r4]
.LVL460:
	.loc 5 328 36 view .LVU1657
.LBE1067:
.LBE1066:
.LBE1065:
.LBE1064:
	.loc 1 117 4 view .LVU1658
	cmp	r4, #0
	bne	.L214
	mov	r4, r10
	b	.L213
.LVL461:
.L208:
	.loc 1 113 3 is_stmt 1 view .LVU1659
.LBB1068:
.LBI1068:
	.loc 5 404 20 view .LVU1660
.LBB1069:
	.loc 5 406 2 view .LVU1661
	.loc 5 406 21 is_stmt 0 view .LVU1662
	ldr	r3, [r8, #4]
.LVL462:
	.loc 5 408 2 is_stmt 1 view .LVU1663
	.loc 5 408 13 is_stmt 0 view .LVU1664
	ldr	r2, [sp, #16]
	str	r8, [r9, r2]
	.loc 5 409 2 is_stmt 1 view .LVU1665
	.loc 5 409 13 is_stmt 0 view .LVU1666
	str	r3, [r4, #4]
	.loc 5 411 2 is_stmt 1 view .LVU1667
	.loc 5 411 13 is_stmt 0 view .LVU1668
	str	r4, [r3]
	.loc 5 412 2 is_stmt 1 view .LVU1669
	.loc 5 412 13 is_stmt 0 view .LVU1670
	str	r4, [r8, #4]
.LVL463:
	.loc 5 412 13 view .LVU1671
.LBE1069:
.LBE1068:
	.loc 1 114 3 is_stmt 1 view .LVU1672
	b	.L186
.LVL464:
.L264:
	.loc 1 114 3 is_stmt 0 view .LVU1673
	mov	r3, r4
	mov	r4, r10
.LVL465:
	.loc 1 114 3 view .LVU1674
	mov	r10, r3
.LVL466:
	.loc 1 120 4 is_stmt 1 view .LVU1675
.LBB1070:
.LBI1070:
	.loc 5 443 20 view .LVU1676
.LBB1071:
	.loc 5 445 2 view .LVU1677
	.loc 5 445 21 is_stmt 0 view .LVU1678
	ldr	r3, [r3, #4]
.LVL467:
	.loc 5 447 2 is_stmt 1 view .LVU1679
	.loc 5 447 13 is_stmt 0 view .LVU1680
	str	r3, [r4, #4]
	.loc 5 448 2 is_stmt 1 view .LVU1681
	.loc 5 448 13 is_stmt 0 view .LVU1682
	ldr	r2, [sp, #16]
	str	r10, [r9, r2]
	.loc 5 449 2 is_stmt 1 view .LVU1683
	.loc 5 449 13 is_stmt 0 view .LVU1684
	str	r4, [r3]
	.loc 5 450 2 is_stmt 1 view .LVU1685
	.loc 5 450 18 is_stmt 0 view .LVU1686
	str	r4, [r10, #4]
.LVL468:
	.loc 5 450 18 view .LVU1687
.LBE1071:
.LBE1070:
	.loc 1 121 4 is_stmt 1 view .LVU1688
	b	.L186
.LVL469:
.L262:
	.loc 1 117 4 is_stmt 0 view .LVU1689
	mov	r10, #0
	mov	r3, r10
	mov	r10, r4
	mov	r4, r3
.LVL470:
	.loc 1 117 4 view .LVU1690
	b	.L214
.LVL471:
.L263:
	.loc 1 117 4 view .LVU1691
	mov	r4, r10
.LVL472:
	.loc 1 117 4 view .LVU1692
	b	.L213
.LVL473:
.L248:
	.loc 1 117 4 view .LVU1693
	mov	r4, r10
.LVL474:
.L213:
	.loc 1 125 2 is_stmt 1 view .LVU1694
.LBB1072:
.LBI1072:
	.loc 5 404 20 view .LVU1695
.LBB1073:
	.loc 5 406 2 view .LVU1696
	.loc 5 406 21 is_stmt 0 view .LVU1697
	ldr	r3, [r8, #4]
.LVL475:
	.loc 5 408 2 is_stmt 1 view .LVU1698
	.loc 5 408 13 is_stmt 0 view .LVU1699
	ldr	r2, [sp, #16]
	str	r8, [r9, r2]
	.loc 5 409 2 is_stmt 1 view .LVU1700
	.loc 5 409 13 is_stmt 0 view .LVU1701
	str	r3, [r4, #4]
	.loc 5 411 2 is_stmt 1 view .LVU1702
	.loc 5 411 13 is_stmt 0 view .LVU1703
	str	r4, [r3]
	.loc 5 412 2 is_stmt 1 view .LVU1704
	.loc 5 412 13 is_stmt 0 view .LVU1705
	str	r4, [r8, #4]
.LVL476:
	.loc 5 413 1 view .LVU1706
	b	.L186
.LVL477:
.L249:
	.loc 5 413 1 view .LVU1707
	mov	r4, r10
.LVL478:
	.loc 5 413 1 view .LVU1708
	b	.L213
.LVL479:
.L187:
	.loc 5 413 1 view .LVU1709
.LBE1073:
.LBE1072:
.LBE1055:
.LBE1054:
	.loc 1 146 5 is_stmt 1 view .LVU1710
	.loc 1 146 6 view .LVU1711
	.loc 1 147 3 view .LVU1712
	.loc 1 147 19 is_stmt 0 view .LVU1713
	ldr	r10, [r4, #16]
	.loc 1 147 3 view .LVU1714
	add	r8, r10, #40
.LVL480:
.LBB1074:
.LBI1074:
	.loc 1 104 20 is_stmt 1 view .LVU1715
.LBB1075:
	.loc 1 107 2 view .LVU1716
	.loc 1 109 2 view .LVU1717
.LBB1076:
.LBI1076:
	.loc 5 390 28 view .LVU1718
.LBB1077:
	.loc 5 392 2 view .LVU1719
.LBB1078:
.LBI1078:
	.loc 5 266 19 view .LVU1720
.LBB1079:
	.loc 5 268 2 view .LVU1721
	.loc 5 268 13 is_stmt 0 view .LVU1722
	ldr	r3, [r10, #40]
.LVL481:
	.loc 5 268 13 view .LVU1723
.LBE1079:
.LBE1078:
	.loc 5 392 40 view .LVU1724
	cmp	r8, r3
	beq	.L216
	ldr	r3, [r8, #4]
.LVL482:
	.loc 5 392 40 view .LVU1725
.LBE1077:
.LBE1076:
	.loc 1 110 2 is_stmt 1 view .LVU1726
	.loc 1 110 5 is_stmt 0 view .LVU1727
	cbz	r3, .L216
	.loc 1 111 4 view .LVU1728
	ldr	r0, [r3, #8]
	bl	poller_thread
.LVL483:
	.loc 1 111 4 view .LVU1729
	str	r0, [sp, #28]
	mov	r0, r6
	bl	poller_thread
.LVL484:
	mov	r1, r0
	str	r0, [sp, #24]
	ldr	r0, [sp, #28]
	bl	z_sched_prio_cmp
.LVL485:
	.loc 1 110 23 view .LVU1730
	cmp	r0, #0
	bgt	.L216
	.loc 1 117 2 is_stmt 1 view .LVU1731
.LVL486:
.LBB1080:
.LBI1080:
	.loc 5 294 28 view .LVU1732
.LBB1081:
	.loc 5 296 2 view .LVU1733
.LBB1082:
.LBI1082:
	.loc 5 266 19 view .LVU1734
.LBB1083:
	.loc 5 268 2 view .LVU1735
	.loc 5 268 13 is_stmt 0 view .LVU1736
	ldr	r10, [r10, #40]
.LVL487:
	.loc 5 268 13 view .LVU1737
.LBE1083:
.LBE1082:
	.loc 5 296 40 view .LVU1738
	cmp	r8, r10
	beq	.L265
	mov	r3, r10
	mov	r10, r4
	mov	r4, r3
.LVL488:
.L222:
	.loc 5 296 40 view .LVU1739
.LBE1081:
.LBE1080:
	.loc 1 117 4 is_stmt 1 view .LVU1740
	.loc 1 117 2 is_stmt 0 view .LVU1741
	cbz	r4, .L266
	.loc 1 118 3 is_stmt 1 view .LVU1742
	.loc 1 118 7 is_stmt 0 view .LVU1743
	ldr	r0, [r4, #8]
	bl	poller_thread
.LVL489:
	mov	r1, r0
	ldr	r0, [sp, #24]
	bl	z_sched_prio_cmp
.LVL490:
	.loc 1 118 6 view .LVU1744
	cmp	r0, #0
	bgt	.L267
	.loc 1 117 3 is_stmt 1 view .LVU1745
.LVL491:
.LBB1084:
.LBI1084:
	.loc 5 341 28 view .LVU1746
.LBB1085:
	.loc 5 344 2 view .LVU1747
	.loc 5 344 66 is_stmt 0 view .LVU1748
	cbz	r4, .L251
.LVL492:
.LBB1086:
.LBI1086:
	.loc 5 325 28 is_stmt 1 view .LVU1749
.LBB1087:
	.loc 5 328 2 view .LVU1750
	.loc 5 328 22 is_stmt 0 view .LVU1751
	ldr	r3, [r8, #4]
	.loc 5 328 36 view .LVU1752
	cmp	r4, r3
	beq	.L252
	ldr	r4, [r4]
.LVL493:
	.loc 5 328 36 view .LVU1753
.LBE1087:
.LBE1086:
.LBE1085:
.LBE1084:
	.loc 1 117 4 view .LVU1754
	cmp	r4, #0
	bne	.L222
	mov	r4, r10
	b	.L221
.LVL494:
.L216:
	.loc 1 113 3 is_stmt 1 view .LVU1755
.LBB1088:
.LBI1088:
	.loc 5 404 20 view .LVU1756
.LBB1089:
	.loc 5 406 2 view .LVU1757
	.loc 5 406 21 is_stmt 0 view .LVU1758
	ldr	r3, [r8, #4]
.LVL495:
	.loc 5 408 2 is_stmt 1 view .LVU1759
	.loc 5 408 13 is_stmt 0 view .LVU1760
	ldr	r2, [sp, #16]
	str	r8, [r9, r2]
	.loc 5 409 2 is_stmt 1 view .LVU1761
	.loc 5 409 13 is_stmt 0 view .LVU1762
	str	r3, [r4, #4]
	.loc 5 411 2 is_stmt 1 view .LVU1763
	.loc 5 411 13 is_stmt 0 view .LVU1764
	str	r4, [r3]
	.loc 5 412 2 is_stmt 1 view .LVU1765
	.loc 5 412 13 is_stmt 0 view .LVU1766
	str	r4, [r8, #4]
.LVL496:
	.loc 5 412 13 view .LVU1767
.LBE1089:
.LBE1088:
	.loc 1 114 3 is_stmt 1 view .LVU1768
	b	.L186
.LVL497:
.L267:
	.loc 1 114 3 is_stmt 0 view .LVU1769
	mov	r3, r4
	mov	r4, r10
.LVL498:
	.loc 1 114 3 view .LVU1770
	mov	r10, r3
.LVL499:
	.loc 1 120 4 is_stmt 1 view .LVU1771
.LBB1090:
.LBI1090:
	.loc 5 443 20 view .LVU1772
.LBB1091:
	.loc 5 445 2 view .LVU1773
	.loc 5 445 21 is_stmt 0 view .LVU1774
	ldr	r3, [r3, #4]
.LVL500:
	.loc 5 447 2 is_stmt 1 view .LVU1775
	.loc 5 447 13 is_stmt 0 view .LVU1776
	str	r3, [r4, #4]
	.loc 5 448 2 is_stmt 1 view .LVU1777
	.loc 5 448 13 is_stmt 0 view .LVU1778
	ldr	r2, [sp, #16]
	str	r10, [r9, r2]
	.loc 5 449 2 is_stmt 1 view .LVU1779
	.loc 5 449 13 is_stmt 0 view .LVU1780
	str	r4, [r3]
	.loc 5 450 2 is_stmt 1 view .LVU1781
	.loc 5 450 18 is_stmt 0 view .LVU1782
	str	r4, [r10, #4]
.LVL501:
	.loc 5 450 18 view .LVU1783
.LBE1091:
.LBE1090:
	.loc 1 121 4 is_stmt 1 view .LVU1784
	b	.L186
.LVL502:
.L265:
	.loc 1 117 4 is_stmt 0 view .LVU1785
	mov	r10, #0
	mov	r3, r10
	mov	r10, r4
	mov	r4, r3
.LVL503:
	.loc 1 117 4 view .LVU1786
	b	.L222
.LVL504:
.L266:
	.loc 1 117 4 view .LVU1787
	mov	r4, r10
.LVL505:
	.loc 1 117 4 view .LVU1788
	b	.L221
.LVL506:
.L251:
	.loc 1 117 4 view .LVU1789
	mov	r4, r10
.LVL507:
.L221:
	.loc 1 125 2 is_stmt 1 view .LVU1790
.LBB1092:
.LBI1092:
	.loc 5 404 20 view .LVU1791
.LBB1093:
	.loc 5 406 2 view .LVU1792
	.loc 5 406 21 is_stmt 0 view .LVU1793
	ldr	r3, [r8, #4]
.LVL508:
	.loc 5 408 2 is_stmt 1 view .LVU1794
	.loc 5 408 13 is_stmt 0 view .LVU1795
	ldr	r2, [sp, #16]
	str	r8, [r9, r2]
	.loc 5 409 2 is_stmt 1 view .LVU1796
	.loc 5 409 13 is_stmt 0 view .LVU1797
	str	r3, [r4, #4]
	.loc 5 411 2 is_stmt 1 view .LVU1798
	.loc 5 411 13 is_stmt 0 view .LVU1799
	str	r4, [r3]
	.loc 5 412 2 is_stmt 1 view .LVU1800
	.loc 5 412 13 is_stmt 0 view .LVU1801
	str	r4, [r8, #4]
.LVL509:
	.loc 5 413 1 view .LVU1802
	b	.L186
.LVL510:
.L252:
	.loc 5 413 1 view .LVU1803
	mov	r4, r10
.LVL511:
	.loc 5 413 1 view .LVU1804
	b	.L221
.LVL512:
.L255:
	.loc 5 413 1 view .LVU1805
	ldr	r5, [sp, #20]
.LBE1093:
.LBE1092:
.LBE1075:
.LBE1074:
.LBE1094:
.LBE1095:
.LBE1099:
.LBE1104:
	.loc 1 242 2 is_stmt 1 view .LVU1806
.LVL513:
	.loc 1 242 2 is_stmt 0 view .LVU1807
.LBE1108:
.LBE1118:
	.loc 1 697 2 is_stmt 1 view .LVU1808
.LBB1119:
.LBI1119:
	.loc 6 130 63 view .LVU1809
.LBB1120:
	.loc 6 132 2 view .LVU1810
	.loc 6 133 2 view .LVU1811
	.loc 6 139 2 view .LVU1812
.LBB1121:
.LBI1121:
	.loc 7 43 59 view .LVU1813
.LBB1122:
	.loc 7 45 2 view .LVU1814
	.loc 7 54 2 view .LVU1815
	.loc 7 56 2 view .LVU1816
	.syntax unified
@ 56 "/home/sebin/thesis/zephyrproject/zephyr/include/arch/arm/aarch32/asm_inline_gcc.h" 1
	mov r3, #4;mrs r4, BASEPRI;msr BASEPRI_MAX, r3;isb;
@ 0 "" 2
.LVL514:
	.loc 7 76 2 view .LVU1817
	.loc 7 76 2 is_stmt 0 view .LVU1818
	.thumb
	.syntax unified
.LBE1122:
.LBE1121:
	.loc 6 156 2 is_stmt 1 view .LVU1819
	.loc 6 156 2 is_stmt 0 view .LVU1820
.LBE1120:
.LBE1119:
	.loc 1 698 2 is_stmt 1 view .LVU1821
.LBB1123:
	.loc 1 698 18 is_stmt 0 view .LVU1822
	ldrb	r3, [r5, #20]	@ zero_extendqisi2
	.loc 1 698 5 view .LVU1823
	cbz	r3, .L225
	.loc 1 698 30 discriminator 1 view .LVU1824
	ldrd	r1, [sp, #72]
	orrs	r2, r1, r2
	bne	.L268
.L225:
	.loc 1 698 30 discriminator 1 view .LVU1825
.LBE1123:
	.loc 1 733 2 is_stmt 1 view .LVU1826
	.loc 1 733 5 is_stmt 0 view .LVU1827
	cbz	r3, .L227
	.loc 1 734 3 is_stmt 1 view .LVU1828
	.loc 1 734 27 is_stmt 0 view .LVU1829
	movs	r3, #0
	strb	r3, [r5, #20]
	.loc 1 735 3 is_stmt 1 view .LVU1830
	.loc 1 735 21 is_stmt 0 view .LVU1831
	mvn	r3, #10
	str	r3, [r5, #64]
.L228:
	.loc 1 741 2 is_stmt 1 view .LVU1832
.LVL515:
	.loc 1 741 2 is_stmt 0 view .LVU1833
	mov	r1, r4
.LVL516:
.LBB1130:
.LBI1130:
	.loc 1 197 20 is_stmt 1 view .LVU1834
.LBB1131:
	.loc 1 201 2 view .LVU1835
	mov	r3, fp
	.loc 1 201 8 is_stmt 0 view .LVU1836
	b	.L229
.LVL517:
.L268:
	.loc 1 201 8 view .LVU1837
.LBE1131:
.LBE1130:
.LBB1151:
	.loc 1 703 5 is_stmt 1 view .LVU1838
	.loc 1 704 42 view .LVU1839
	.loc 1 707 3 view .LVU1840
.LBB1124:
	.loc 1 707 6 is_stmt 0 view .LVU1841
	ldrd	r2, [sp, #72]
	cmp	r3, #-1
	it	eq
	cmpeq	r2, #-1
	bne	.L269
.L226:
	.loc 1 707 6 view .LVU1842
.LBE1124:
	.loc 1 714 3 is_stmt 1 view .LVU1843
	.loc 1 714 21 is_stmt 0 view .LVU1844
	movs	r3, #2
	strb	r3, [r5, #21]
	.loc 1 715 3 is_stmt 1 view .LVU1845
.LVL518:
.LBB1125:
.LBI1125:
	.loc 6 180 51 view .LVU1846
.LBE1125:
.LBE1151:
	.loc 6 183 2 view .LVU1847
	.loc 6 198 2 view .LVU1848
.LBB1152:
.LBB1128:
.LBB1126:
.LBI1126:
	.loc 7 84 51 view .LVU1849
.LBB1127:
	.loc 7 95 2 view .LVU1850
	.syntax unified
@ 95 "/home/sebin/thesis/zephyrproject/zephyr/include/arch/arm/aarch32/asm_inline_gcc.h" 1
	msr BASEPRI, r4;isb;
@ 0 "" 2
.LVL519:
	.loc 7 95 2 is_stmt 0 view .LVU1851
	.thumb
	.syntax unified
.LBE1127:
.LBE1126:
.LBE1128:
	.loc 1 717 3 is_stmt 1 view .LVU1852
	.loc 1 717 8 view .LVU1853
	.loc 1 717 16 view .LVU1854
	.loc 1 719 3 view .LVU1855
	.loc 1 719 10 is_stmt 0 view .LVU1856
	mov	fp, #0
.LVL520:
	.loc 1 719 10 view .LVU1857
	b	.L173
.LVL521:
.L269:
.LBB1129:
	.loc 1 708 4 is_stmt 1 view .LVU1858
	ldr	r1, .L272
	add	r0, r5, #40
	bl	z_add_timeout
.LVL522:
	b	.L226
.L227:
	.loc 1 708 4 is_stmt 0 view .LVU1859
.LBE1129:
.LBE1152:
	.loc 1 737 3 is_stmt 1 view .LVU1860
	.loc 1 737 21 is_stmt 0 view .LVU1861
	movs	r3, #0
	str	r3, [r5, #64]
	b	.L228
.LVL523:
.L271:
.LBB1153:
.LBB1150:
.LBB1132:
.LBB1133:
.LBB1134:
.LBI1134:
	.loc 5 225 19 is_stmt 1 view .LVU1862
.LBB1135:
	.loc 5 227 2 view .LVU1863
	.loc 5 227 13 is_stmt 0 view .LVU1864
	ldr	r2, [r9, r7]
.LVL524:
	.loc 5 227 13 view .LVU1865
.LBE1135:
.LBE1134:
	.loc 1 191 19 view .LVU1866
	cbz	r2, .L230
	.loc 1 192 3 is_stmt 1 view .LVU1867
.LVL525:
.LBB1136:
.LBI1136:
	.loc 5 496 20 view .LVU1868
.LBB1137:
	.loc 5 498 2 view .LVU1869
	.loc 5 498 21 is_stmt 0 view .LVU1870
	ldr	r6, [r3, #4]
.LVL526:
	.loc 5 499 2 is_stmt 1 view .LVU1871
	.loc 5 501 2 view .LVU1872
	.loc 5 501 13 is_stmt 0 view .LVU1873
	str	r2, [r6]
	.loc 5 502 2 is_stmt 1 view .LVU1874
	.loc 5 502 13 is_stmt 0 view .LVU1875
	str	r6, [r2, #4]
	.loc 5 503 2 is_stmt 1 view .LVU1876
.LVL527:
.LBB1138:
.LBI1138:
	.loc 5 211 20 view .LVU1877
.LBB1139:
	.loc 5 213 2 view .LVU1878
	.loc 5 213 13 is_stmt 0 view .LVU1879
	movs	r2, #0
.LVL528:
	.loc 5 213 13 view .LVU1880
	str	r2, [r9, r7]
	.loc 5 214 2 is_stmt 1 view .LVU1881
	.loc 5 214 13 is_stmt 0 view .LVU1882
	str	r2, [r3, #4]
.LVL529:
.L230:
	.loc 5 214 13 view .LVU1883
.LBE1139:
.LBE1138:
.LBE1137:
.LBE1136:
.LBE1133:
.LBE1132:
	.loc 1 203 3 is_stmt 1 view .LVU1884
.LBB1141:
.LBI1141:
	.loc 6 180 51 view .LVU1885
.LBB1142:
	.loc 6 183 2 view .LVU1886
	.loc 6 198 2 view .LVU1887
.LBB1143:
.LBI1143:
	.loc 7 84 51 view .LVU1888
.LBB1144:
	.loc 7 95 2 view .LVU1889
	.syntax unified
@ 95 "/home/sebin/thesis/zephyrproject/zephyr/include/arch/arm/aarch32/asm_inline_gcc.h" 1
	msr BASEPRI, r1;isb;
@ 0 "" 2
.LVL530:
	.loc 7 95 2 is_stmt 0 view .LVU1890
	.thumb
	.syntax unified
.LBE1144:
.LBE1143:
.LBE1142:
.LBE1141:
	.loc 1 204 3 is_stmt 1 view .LVU1891
.LBB1145:
.LBI1145:
	.loc 6 130 63 view .LVU1892
.LBB1146:
	.loc 6 132 2 view .LVU1893
	.loc 6 133 2 view .LVU1894
	.loc 6 139 2 view .LVU1895
.LBB1147:
.LBI1147:
	.loc 7 43 59 view .LVU1896
.LBB1148:
	.loc 7 45 2 view .LVU1897
	.loc 7 54 2 view .LVU1898
	.loc 7 56 2 view .LVU1899
	.syntax unified
@ 56 "/home/sebin/thesis/zephyrproject/zephyr/include/arch/arm/aarch32/asm_inline_gcc.h" 1
	mov r3, #4;mrs r1, BASEPRI;msr BASEPRI_MAX, r3;isb;
@ 0 "" 2
.LVL531:
	.loc 7 76 2 view .LVU1900
	.loc 7 76 2 is_stmt 0 view .LVU1901
	.thumb
	.syntax unified
.LBE1148:
.LBE1147:
	.loc 6 156 2 is_stmt 1 view .LVU1902
.LBE1146:
.LBE1145:
	.loc 1 201 19 is_stmt 0 view .LVU1903
	mov	r3, r0
.LVL532:
.L229:
	.loc 1 201 8 is_stmt 1 view .LVU1904
	.loc 1 201 19 is_stmt 0 view .LVU1905
	subs	r0, r3, #1
.LVL533:
	.loc 1 201 8 view .LVU1906
	cbz	r3, .L270
	.loc 1 202 3 is_stmt 1 view .LVU1907
	.loc 1 202 35 is_stmt 0 view .LVU1908
	add	r3, r0, r0, lsl #2
	lsls	r7, r3, #2
	.loc 1 202 3 view .LVU1909
	add	r3, r9, r3, lsl #2
.LVL534:
.LBB1149:
.LBI1132:
	.loc 1 161 20 is_stmt 1 view .LVU1910
.LBB1140:
	.loc 1 163 1 view .LVU1911
	.loc 1 165 2 view .LVU1912
	.loc 1 165 16 is_stmt 0 view .LVU1913
	movs	r2, #0
	str	r2, [r3, #8]
	.loc 1 167 2 is_stmt 1 view .LVU1914
	.loc 1 167 15 is_stmt 0 view .LVU1915
	ldrb	r2, [r3, #13]	@ zero_extendqisi2
	and	r2, r2, #31
	cmp	r2, #8
	bhi	.L230
	movs	r6, #1
	lsl	r2, r6, r2
	tst	r2, #278
	beq	.L230
	b	.L271
.LVL535:
.L270:
	.loc 1 167 15 view .LVU1916
	mov	fp, r3
.LVL536:
	.loc 1 167 15 view .LVU1917
.LBE1140:
.LBE1149:
.LBE1150:
.LBE1153:
	.loc 1 742 2 is_stmt 1 view .LVU1918
.LBB1154:
.LBI1154:
	.loc 6 180 51 view .LVU1919
.LBE1154:
	.loc 6 183 2 view .LVU1920
	.loc 6 198 2 view .LVU1921
.LBB1157:
.LBB1155:
.LBI1155:
	.loc 7 84 51 view .LVU1922
.LBB1156:
	.loc 7 95 2 view .LVU1923
	.syntax unified
@ 95 "/home/sebin/thesis/zephyrproject/zephyr/include/arch/arm/aarch32/asm_inline_gcc.h" 1
	msr BASEPRI, r4;isb;
@ 0 "" 2
.LVL537:
	.loc 7 95 2 is_stmt 0 view .LVU1924
	.thumb
	.syntax unified
.LBE1156:
.LBE1155:
.LBE1157:
	.loc 1 745 2 is_stmt 1 view .LVU1925
	mov	r1, r5
	ldr	r0, [sp, #12]
	bl	k_work_submit_to_queue
.LVL538:
	.loc 1 747 2 view .LVU1926
	.loc 1 747 7 view .LVU1927
	.loc 1 747 15 view .LVU1928
	.loc 1 749 2 view .LVU1929
.L173:
	.loc 1 750 1 is_stmt 0 view .LVU1930
	mov	r0, fp
	add	sp, sp, #36
	.cfi_def_cfa_offset 36
	@ sp needed
	pop	{r4, r5, r6, r7, r8, r9, r10, fp, pc}
.LVL539:
.L273:
	.loc 1 750 1 view .LVU1931
	.align	2
.L272:
	.word	triggered_work_expiration_handler
	.cfi_endproc
.LFE575:
	.size	k_work_poll_submit_to_queue, .-k_work_poll_submit_to_queue
	.section	.text.k_work_poll_submit,"ax",%progbits
	.align	1
	.global	k_work_poll_submit
	.syntax unified
	.thumb
	.thumb_func
	.fpu fpv4-sp-d16
	.type	k_work_poll_submit, %function
k_work_poll_submit:
.LVL540:
.LFB576:
	.loc 1 756 1 is_stmt 1 view -0
	.cfi_startproc
	@ args = 8, pretend = 0, frame = 0
	@ frame_needed = 0, uses_anonymous_args = 0
	.loc 1 756 1 is_stmt 0 view .LVU1933
	push	{r4, r5, lr}
	.cfi_def_cfa_offset 12
	.cfi_offset 4, -12
	.cfi_offset 5, -8
	.cfi_offset 14, -4
	sub	sp, sp, #12
	.cfi_def_cfa_offset 24
	mov	r3, r2
	.loc 1 757 2 is_stmt 1 view .LVU1934
	.loc 1 757 7 view .LVU1935
	.loc 1 757 15 view .LVU1936
	.loc 1 759 2 view .LVU1937
	.loc 1 759 12 is_stmt 0 view .LVU1938
	ldrd	r4, [sp, #24]
	strd	r4, [sp]
	mov	r2, r1
.LVL541:
	.loc 1 759 12 view .LVU1939
	mov	r1, r0
.LVL542:
	.loc 1 759 12 view .LVU1940
	ldr	r0, .L276
.LVL543:
	.loc 1 759 12 view .LVU1941
	bl	k_work_poll_submit_to_queue
.LVL544:
	.loc 1 762 2 is_stmt 1 view .LVU1942
	.loc 1 762 7 view .LVU1943
	.loc 1 762 15 view .LVU1944
	.loc 1 764 2 view .LVU1945
	.loc 1 765 1 is_stmt 0 view .LVU1946
	add	sp, sp, #12
	.cfi_def_cfa_offset 12
	@ sp needed
	pop	{r4, r5, pc}
.L277:
	.align	2
.L276:
	.word	k_sys_work_q
	.cfi_endproc
.LFE576:
	.size	k_work_poll_submit, .-k_work_poll_submit
	.section	.text.k_work_poll_cancel,"ax",%progbits
	.align	1
	.global	k_work_poll_cancel
	.syntax unified
	.thumb
	.thumb_func
	.fpu fpv4-sp-d16
	.type	k_work_poll_cancel, %function
k_work_poll_cancel:
.LVL545:
.LFB577:
	.loc 1 768 1 is_stmt 1 view -0
	.cfi_startproc
	@ args = 0, pretend = 0, frame = 0
	@ frame_needed = 0, uses_anonymous_args = 0
	.loc 1 769 2 view .LVU1948
	.loc 1 770 2 view .LVU1949
	.loc 1 772 2 view .LVU1950
	.loc 1 772 7 view .LVU1951
	.loc 1 772 15 view .LVU1952
	.loc 1 775 2 view .LVU1953
	.loc 1 775 5 is_stmt 0 view .LVU1954
	cbz	r0, .L280
	.loc 1 775 25 discriminator 1 view .LVU1955
	ldr	r2, [r0, #16]
	.loc 1 775 18 discriminator 1 view .LVU1956
	cbz	r2, .L281
	.loc 1 768 1 view .LVU1957
	push	{r4, lr}
	.cfi_def_cfa_offset 8
	.cfi_offset 4, -8
	.cfi_offset 14, -4
	.loc 1 781 2 is_stmt 1 view .LVU1958
.LVL546:
.LBB1158:
.LBI1158:
	.loc 6 130 63 view .LVU1959
.LBB1159:
	.loc 6 132 2 view .LVU1960
	.loc 6 133 2 view .LVU1961
	.loc 6 139 2 view .LVU1962
.LBB1160:
.LBI1160:
	.loc 7 43 59 view .LVU1963
.LBB1161:
	.loc 7 45 2 view .LVU1964
	.loc 7 54 2 view .LVU1965
	.loc 7 56 2 view .LVU1966
	.syntax unified
@ 56 "/home/sebin/thesis/zephyrproject/zephyr/include/arch/arm/aarch32/asm_inline_gcc.h" 1
	mov r2, #4;mrs r4, BASEPRI;msr BASEPRI_MAX, r2;isb;
@ 0 "" 2
.LVL547:
	.loc 7 76 2 view .LVU1967
	.loc 7 76 2 is_stmt 0 view .LVU1968
	.thumb
	.syntax unified
.LBE1161:
.LBE1160:
	.loc 6 156 2 is_stmt 1 view .LVU1969
	.loc 6 156 2 is_stmt 0 view .LVU1970
.LBE1159:
.LBE1158:
	.loc 1 782 2 is_stmt 1 view .LVU1971
	.loc 1 782 11 is_stmt 0 view .LVU1972
	mov	r1, r4
	bl	triggered_work_cancel
.LVL548:
	.loc 1 783 2 is_stmt 1 view .LVU1973
.LBB1162:
.LBI1162:
	.loc 6 180 51 view .LVU1974
.LBE1162:
	.loc 6 183 2 view .LVU1975
	.loc 6 198 2 view .LVU1976
.LBB1165:
.LBB1163:
.LBI1163:
	.loc 7 84 51 view .LVU1977
.LBB1164:
	.loc 7 95 2 view .LVU1978
	.syntax unified
@ 95 "/home/sebin/thesis/zephyrproject/zephyr/include/arch/arm/aarch32/asm_inline_gcc.h" 1
	msr BASEPRI, r4;isb;
@ 0 "" 2
.LVL549:
	.loc 7 95 2 is_stmt 0 view .LVU1979
	.thumb
	.syntax unified
.LBE1164:
.LBE1163:
.LBE1165:
	.loc 1 785 2 is_stmt 1 view .LVU1980
	.loc 1 785 7 view .LVU1981
	.loc 1 785 15 view .LVU1982
	.loc 1 787 2 view .LVU1983
	.loc 1 788 1 is_stmt 0 view .LVU1984
	pop	{r4, pc}
.LVL550:
.L280:
	.cfi_def_cfa_offset 0
	.cfi_restore 4
	.cfi_restore 14
	.loc 1 778 10 view .LVU1985
	mvn	r0, #21
.LVL551:
	.loc 1 778 10 view .LVU1986
	bx	lr
.LVL552:
.L281:
	.loc 1 778 10 view .LVU1987
	mvn	r0, #21
.LVL553:
	.loc 1 788 1 view .LVU1988
	bx	lr
	.cfi_endproc
.LFE577:
	.size	k_work_poll_cancel, .-k_work_poll_cancel
	.section	.bss.lock,"aw",%nobits
	.align	2
	.set	.LANCHOR1,. + 0
	.type	lock, %object
	.size	lock, 1
lock:
	.space	1
	.section	.data.wait_q.11372,"aw"
	.align	2
	.set	.LANCHOR0,. + 0
	.type	wait_q.11372, %object
	.size	wait_q.11372, 8
wait_q.11372:
	.word	wait_q.11372
	.word	wait_q.11372
	.text
.Letext0:
	.file 12 "/home/sebin/LIOT/gcc-arm-none-eabi-9-2019-q4-major/lib/gcc/arm-none-eabi/9.2.1/include/stddef.h"
	.file 13 "/home/sebin/LIOT/gcc-arm-none-eabi-9-2019-q4-major/arm-none-eabi/include/machine/_default_types.h"
	.file 14 "/home/sebin/LIOT/gcc-arm-none-eabi-9-2019-q4-major/arm-none-eabi/include/sys/_stdint.h"
	.file 15 "/home/sebin/thesis/zephyrproject/zephyr/include/sys/rb.h"
	.file 16 "/home/sebin/thesis/zephyrproject/zephyr/include/sys/slist.h"
	.file 17 "/home/sebin/thesis/zephyrproject/zephyr/include/sys/sys_heap.h"
	.file 18 "/home/sebin/thesis/zephyrproject/zephyr/include/kernel_structs.h"
	.file 19 "/home/sebin/thesis/zephyrproject/zephyr/include/kernel/thread.h"
	.file 20 "/home/sebin/thesis/zephyrproject/zephyr/include/kernel/thread_stack.h"
	.file 21 "/home/sebin/thesis/zephyrproject/zephyr/include/arch/arm/aarch32/thread.h"
	.file 22 "/home/sebin/thesis/zephyrproject/zephyr/include/arch/arm/aarch32/exc.h"
	.file 23 "/home/sebin/thesis/zephyrproject/zephyr/include/sw_isr_table.h"
	.file 24 "/home/sebin/thesis/zephyrproject/modules/hal/infineon/XMCLib/devices/XMC4500/Include/system_XMC4500.h"
	.file 25 "/home/sebin/thesis/zephyrproject/modules/hal/cmsis/CMSIS/Core/Include/core_cm4.h"
	.file 26 "/home/sebin/thesis/zephyrproject/zephyr/include/arch/arm/aarch32/mpu/arm_mpu_v7m.h"
	.file 27 "/home/sebin/thesis/zephyrproject/zephyr/include/arch/arm/aarch32/mpu/arm_mpu.h"
	.file 28 "/home/sebin/thesis/zephyrproject/zephyr/include/sys_clock.h"
	.file 29 "/home/sebin/LIOT/gcc-arm-none-eabi-9-2019-q4-major/arm-none-eabi/include/sys/lock.h"
	.file 30 "/home/sebin/LIOT/gcc-arm-none-eabi-9-2019-q4-major/arm-none-eabi/include/sys/_types.h"
	.file 31 "/home/sebin/LIOT/gcc-arm-none-eabi-9-2019-q4-major/arm-none-eabi/include/sys/reent.h"
	.file 32 "/home/sebin/LIOT/gcc-arm-none-eabi-9-2019-q4-major/arm-none-eabi/include/sys/errno.h"
	.file 33 "/home/sebin/thesis/zephyrproject/zephyr/arch/arm/include/aarch32/cortex_m/stack.h"
	.file 34 "/home/sebin/thesis/zephyrproject/zephyr/kernel/include/kernel_internal.h"
	.file 35 "/home/sebin/thesis/zephyrproject/zephyr/include/arch/structs.h"
	.file 36 "<built-in>"