	.cpu cortex-m4
	.eabi_attribute 27, 1
	.eabi_attribute 28, 1
	.eabi_attribute 20, 1
	.eabi_attribute 21, 1
	.eabi_attribute 23, 3
	.eabi_attribute 24, 1
	.eabi_attribute 25, 1
	.eabi_attribute 26, 1
	.eabi_attribute 30, 1
	.eabi_attribute 34, 1
	.eabi_attribute 38, 1
	.eabi_attribute 18, 4
	.file	"queue.c"
	.text
.Ltext0:
	.cfi_sections	.debug_frame
	.section	.text.prepare_thread_to_run,"ax",%progbits
	.align	1
	.arch armv7e-m
	.syntax unified
	.thumb
	.thumb_func
	.fpu fpv4-sp-d16
	.type	prepare_thread_to_run, %function
prepare_thread_to_run:
.LVL0:
.LFB555:
	.file 1 "/home/sebin/thesis/zephyrproject/zephyr/kernel/queue.c"
	.loc 1 82 1 view -0
	.cfi_startproc
	@ args = 0, pretend = 0, frame = 0
	@ frame_needed = 0, uses_anonymous_args = 0
	.loc 1 82 1 is_stmt 0 view .LVU1
	push	{r3, lr}
	.cfi_def_cfa_offset 8
	.cfi_offset 3, -8
	.cfi_offset 14, -4
	.loc 1 83 2 is_stmt 1 view .LVU2
.LVL1:
.LBB315:
.LBI315:
	.file 2 "/home/sebin/thesis/zephyrproject/zephyr/kernel/include/kernel_internal.h"
	.loc 2 131 1 view .LVU3
.LBB316:
	.loc 2 135 2 view .LVU4
.LBB317:
.LBI317:
	.file 3 "/home/sebin/thesis/zephyrproject/zephyr/arch/arm/include/aarch32/kernel_arch_func.h"
	.loc 3 65 1 view .LVU5
.LBB318:
	.loc 3 67 2 view .LVU6
	.loc 3 67 33 is_stmt 0 view .LVU7
	movs	r2, #0
	str	r2, [r0, #156]
.LVL2:
	.loc 3 67 33 view .LVU8
.LBE318:
.LBE317:
	.loc 2 136 2 is_stmt 1 view .LVU9
	.loc 2 136 25 is_stmt 0 view .LVU10
	str	r1, [r0, #20]
.LVL3:
	.loc 2 136 25 view .LVU11
.LBE316:
.LBE315:
	.loc 1 84 2 is_stmt 1 view .LVU12
	bl	z_ready_thread
.LVL4:
	.loc 1 85 1 is_stmt 0 view .LVU13
	pop	{r3, pc}
	.cfi_endproc
.LFE555:
	.size	prepare_thread_to_run, .-prepare_thread_to_run
	.section	.text.queue_insert,"ax",%progbits
	.align	1
	.syntax unified
	.thumb
	.thumb_func
	.fpu fpv4-sp-d16
	.type	queue_insert, %function
queue_insert:
.LVL5:
.LFB558:
	.loc 1 122 1 is_stmt 1 view -0
	.cfi_startproc
	@ args = 4, pretend = 0, frame = 0
	@ frame_needed = 0, uses_anonymous_args = 0
	.loc 1 122 1 is_stmt 0 view .LVU15
	push	{r3, r4, r5, r6, r7, r8, r9, lr}
	.cfi_def_cfa_offset 32
	.cfi_offset 3, -32
	.cfi_offset 4, -28
	.cfi_offset 5, -24
	.cfi_offset 6, -20
	.cfi_offset 7, -16
	.cfi_offset 8, -12
	.cfi_offset 9, -8
	.cfi_offset 14, -4
	mov	r4, r0
	mov	r7, r1
	mov	r5, r2
	mov	r6, r3
	ldrb	r2, [sp, #32]	@ zero_extendqisi2
.LVL6:
	.loc 1 123 2 is_stmt 1 view .LVU16
	.loc 1 124 2 view .LVU17
	.loc 1 124 25 is_stmt 0 view .LVU18
	add	r9, r0, #8
.LVL7:
.LBB381:
.LBI381:
	.file 4 "/home/sebin/thesis/zephyrproject/zephyr/include/spinlock.h"
	.loc 4 130 63 is_stmt 1 view .LVU19
.LBB382:
	.loc 4 132 2 view .LVU20
	.loc 4 133 2 view .LVU21
	.loc 4 139 2 view .LVU22
.LBB383:
.LBI383:
	.file 5 "/home/sebin/thesis/zephyrproject/zephyr/include/arch/arm/aarch32/asm_inline_gcc.h"
	.loc 5 43 59 view .LVU23
.LBB384:
	.loc 5 45 2 view .LVU24
	.loc 5 54 2 view .LVU25
	.loc 5 56 2 view .LVU26
	.syntax unified
@ 56 "/home/sebin/thesis/zephyrproject/zephyr/include/arch/arm/aarch32/asm_inline_gcc.h" 1
	mov r3, #4;mrs r8, BASEPRI;msr BASEPRI_MAX, r3;isb;
@ 0 "" 2
.LVL8:
	.loc 5 76 2 view .LVU27
	.loc 5 76 2 is_stmt 0 view .LVU28
	.thumb
	.syntax unified
.LBE384:
.LBE383:
	.loc 4 156 2 is_stmt 1 view .LVU29
	.loc 4 156 2 is_stmt 0 view .LVU30
.LBE382:
.LBE381:
	.loc 1 126 2 is_stmt 1 view .LVU31
	.loc 1 126 7 view .LVU32
	.loc 1 126 15 view .LVU33
	.loc 1 128 2 view .LVU34
	.loc 1 128 5 is_stmt 0 view .LVU35
	cbz	r2, .L4
	.loc 1 129 3 is_stmt 1 view .LVU36
.LVL9:
.LBB385:
.LBI385:
	.file 6 "/home/sebin/thesis/zephyrproject/zephyr/include/sys/sflist.h"
	.loc 6 255 29 view .LVU37
.LBB386:
	.loc 6 257 2 view .LVU38
	.loc 6 257 13 is_stmt 0 view .LVU39
	ldr	r7, [r0, #4]
.LVL10:
.L4:
	.loc 6 257 13 view .LVU40
.LBE386:
.LBE385:
	.loc 1 131 2 is_stmt 1 view .LVU41
	.loc 1 131 25 is_stmt 0 view .LVU42
	add	r0, r4, #12
.LVL11:
	.loc 1 131 25 view .LVU43
	bl	z_unpend_first_thread
.LVL12:
	.loc 1 133 2 is_stmt 1 view .LVU44
	.loc 1 133 5 is_stmt 0 view .LVU45
	cbnz	r0, .L15
	.loc 1 145 2 is_stmt 1 view .LVU46
	.loc 1 145 5 is_stmt 0 view .LVU47
	cbnz	r6, .L16
	.loc 1 161 3 is_stmt 1 view .LVU48
.LVL13:
.LBB387:
.LBI387:
	.loc 6 288 20 view .LVU49
.LBB388:
	.loc 6 290 4 view .LVU50
	.loc 6 290 5 view .LVU51
	.loc 6 291 2 view .LVU52
	.loc 6 291 23 is_stmt 0 view .LVU53
	movs	r3, #0
	str	r3, [r5]
.LVL14:
.L9:
	.loc 6 291 23 view .LVU54
.LBE388:
.LBE387:
	.loc 1 164 2 is_stmt 1 view .LVU55
	.loc 1 164 7 view .LVU56
	.loc 1 164 15 view .LVU57
	.loc 1 166 2 view .LVU58
.LBB389:
.LBI389:
	.loc 6 420 20 view .LVU59
.LBB390:
	.loc 6 420 100 view .LVU60
	.loc 6 420 103 is_stmt 0 view .LVU61
	cbz	r7, .L17
	.loc 6 420 44 is_stmt 1 view .LVU62
.LVL15:
.LBB391:
.LBI391:
	.loc 6 211 29 view .LVU63
.LBB392:
	.loc 6 213 2 view .LVU64
	.loc 6 213 30 is_stmt 0 view .LVU65
	ldr	r3, [r7]
.LVL16:
	.loc 6 213 30 view .LVU66
.LBE392:
.LBE391:
	.loc 6 420 47 view .LVU67
	bics	r3, r3, #3
	bne	.L12
	.loc 6 420 5 is_stmt 1 view .LVU68
.LVL17:
.LBB393:
.LBI393:
	.loc 6 373 20 view .LVU69
.LBB394:
	.loc 6 373 80 view .LVU70
.LBB395:
.LBI395:
	.loc 6 218 20 view .LVU71
.LBB396:
	.loc 6 221 2 view .LVU72
.LBB397:
.LBI397:
	.loc 6 270 23 view .LVU73
.LBB398:
	.loc 6 272 2 view .LVU74
	.loc 6 272 13 is_stmt 0 view .LVU75
	ldr	r3, [r5]
	.loc 6 272 30 view .LVU76
	and	r3, r3, #3
.LVL18:
	.loc 6 272 30 view .LVU77
.LBE398:
.LBE397:
	.loc 6 223 2 is_stmt 1 view .LVU78
	.loc 6 223 25 is_stmt 0 view .LVU79
	str	r3, [r5]
.LVL19:
	.loc 6 223 25 view .LVU80
.LBE396:
.LBE395:
	.loc 6 373 4 is_stmt 1 view .LVU81
.LBB399:
.LBI399:
	.loc 6 255 29 view .LVU82
.LBB400:
	.loc 6 257 2 view .LVU83
	.loc 6 257 13 is_stmt 0 view .LVU84
	ldr	r2, [r4, #4]
.LVL20:
	.loc 6 257 13 view .LVU85
.LBE400:
.LBE399:
	.loc 6 373 7 view .LVU86
	cbz	r2, .L18
	.loc 6 373 76 is_stmt 1 view .LVU87
.LVL21:
	.loc 6 373 76 is_stmt 0 view .LVU88
.LBE394:
.LBE393:
.LBE390:
.LBE389:
	.loc 6 257 2 is_stmt 1 view .LVU89
.LBB443:
.LBB439:
.LBB413:
.LBB411:
.LBB401:
.LBI401:
	.loc 6 218 20 view .LVU90
.LBB402:
	.loc 6 221 2 view .LVU91
.LBB403:
.LBI403:
	.loc 6 270 23 view .LVU92
.LBB404:
	.loc 6 272 2 view .LVU93
	.loc 6 272 13 is_stmt 0 view .LVU94
	ldr	r3, [r2]
.LVL22:
	.loc 6 272 30 view .LVU95
	and	r3, r3, #3
.LVL23:
	.loc 6 272 30 view .LVU96
.LBE404:
.LBE403:
	.loc 6 223 2 is_stmt 1 view .LVU97
	.loc 6 223 37 is_stmt 0 view .LVU98
	orrs	r3, r3, r5
.LVL24:
	.loc 6 223 25 view .LVU99
	str	r3, [r2]
.LVL25:
	.loc 6 223 25 view .LVU100
.LBE402:
.LBE401:
	.loc 6 373 130 is_stmt 1 view .LVU101
.LBB405:
.LBI405:
	.loc 6 231 20 view .LVU102
.LBB406:
	.loc 6 233 2 view .LVU103
	.loc 6 233 13 is_stmt 0 view .LVU104
	str	r5, [r4, #4]
	.loc 6 234 1 view .LVU105
	b	.L11
.LVL26:
.L15:
	.loc 6 234 1 view .LVU106
.LBE406:
.LBE405:
.LBE411:
.LBE413:
.LBE439:
.LBE443:
	.loc 1 134 3 is_stmt 1 view .LVU107
	.loc 1 134 8 view .LVU108
	.loc 1 134 16 view .LVU109
	.loc 1 136 3 view .LVU110
	mov	r1, r5
	bl	prepare_thread_to_run
.LVL27:
	.loc 1 137 3 view .LVU111
	mov	r1, r8
	mov	r0, r9
	bl	z_reschedule
.LVL28:
	.loc 1 139 3 view .LVU112
	.loc 1 139 8 view .LVU113
	.loc 1 139 16 view .LVU114
	.loc 1 141 3 view .LVU115
	.loc 1 141 10 is_stmt 0 view .LVU116
	movs	r0, #0
	b	.L3
.LVL29:
.L16:
.LBB444:
	.loc 1 146 3 is_stmt 1 view .LVU117
	.loc 1 148 3 view .LVU118
.LBB445:
.LBI445:
	.loc 2 99 21 view .LVU119
.LBB446:
	.loc 2 101 2 view .LVU120
	.loc 2 101 9 is_stmt 0 view .LVU121
	movs	r1, #8
	movs	r0, #0
.LVL30:
	.loc 2 101 9 view .LVU122
	bl	z_thread_aligned_alloc
.LVL31:
	.loc 2 101 9 view .LVU123
.LBE446:
.LBE445:
	.loc 1 149 3 is_stmt 1 view .LVU124
	.loc 1 149 6 is_stmt 0 view .LVU125
	cbz	r0, .L19
	.loc 1 157 3 is_stmt 1 view .LVU126
	.loc 1 157 15 is_stmt 0 view .LVU127
	str	r5, [r0, #4]
	.loc 1 158 3 is_stmt 1 view .LVU128
.LVL32:
.LBB447:
.LBI447:
	.loc 6 288 20 view .LVU129
.LBB448:
	.loc 6 290 4 view .LVU130
	.loc 6 290 5 view .LVU131
	.loc 6 291 2 view .LVU132
	.loc 6 291 23 is_stmt 0 view .LVU133
	movs	r2, #1
	str	r2, [r0]
.LVL33:
	.loc 6 291 23 view .LVU134
.LBE448:
.LBE447:
	.loc 1 159 3 is_stmt 1 view .LVU135
	.loc 1 159 8 is_stmt 0 view .LVU136
	mov	r5, r0
.LBE444:
	b	.L9
.LVL34:
.L19:
.LBB453:
	.loc 1 150 4 is_stmt 1 view .LVU137
.LBB449:
.LBI449:
	.loc 4 180 51 view .LVU138
.LBE449:
.LBE453:
	.loc 4 183 2 view .LVU139
	.loc 4 198 2 view .LVU140
.LBB454:
.LBB452:
.LBB450:
.LBI450:
	.loc 5 84 51 view .LVU141
.LBB451:
	.loc 5 95 2 view .LVU142
	.syntax unified
@ 95 "/home/sebin/thesis/zephyrproject/zephyr/include/arch/arm/aarch32/asm_inline_gcc.h" 1
	msr BASEPRI, r8;isb;
@ 0 "" 2
.LVL35:
	.loc 5 95 2 is_stmt 0 view .LVU143
	.thumb
	.syntax unified
.LBE451:
.LBE450:
.LBE452:
	.loc 1 152 4 is_stmt 1 view .LVU144
	.loc 1 152 9 view .LVU145
	.loc 1 152 17 view .LVU146
	.loc 1 155 4 view .LVU147
	.loc 1 155 11 is_stmt 0 view .LVU148
	mvn	r0, #11
.LVL36:
	.loc 1 155 11 view .LVU149
	b	.L3
.LVL37:
.L17:
	.loc 1 155 11 view .LVU150
.LBE454:
.LBB455:
.LBB440:
	.loc 6 420 5 is_stmt 1 view .LVU151
.LBB414:
.LBI414:
	.loc 6 360 20 view .LVU152
.LBB415:
	.loc 6 360 81 view .LVU153
.LBB416:
.LBI416:
	.loc 6 243 29 view .LVU154
.LBB417:
	.loc 6 245 2 view .LVU155
	.loc 6 245 13 is_stmt 0 view .LVU156
	ldr	r2, [r4]
.LVL38:
	.loc 6 245 13 view .LVU157
.LBE417:
.LBE416:
.LBB418:
.LBI418:
	.loc 6 218 20 is_stmt 1 view .LVU158
.LBB419:
	.loc 6 221 2 view .LVU159
.LBB420:
.LBI420:
	.loc 6 270 23 view .LVU160
.LBB421:
	.loc 6 272 2 view .LVU161
	.loc 6 272 13 is_stmt 0 view .LVU162
	ldr	r3, [r5]
	.loc 6 272 30 view .LVU163
	and	r3, r3, #3
.LVL39:
	.loc 6 272 30 view .LVU164
.LBE421:
.LBE420:
	.loc 6 223 2 is_stmt 1 view .LVU165
	.loc 6 223 37 is_stmt 0 view .LVU166
	orrs	r3, r3, r2
.LVL40:
	.loc 6 223 25 view .LVU167
	str	r3, [r5]
.LVL41:
	.loc 6 223 25 view .LVU168
.LBE419:
.LBE418:
	.loc 6 360 134 is_stmt 1 view .LVU169
.LBB422:
.LBI422:
	.loc 6 226 20 view .LVU170
.LBB423:
	.loc 6 228 2 view .LVU171
	.loc 6 228 13 is_stmt 0 view .LVU172
	str	r5, [r4]
.LVL42:
	.loc 6 228 13 view .LVU173
.LBE423:
.LBE422:
	.loc 6 360 165 is_stmt 1 view .LVU174
.LBB424:
.LBI424:
	.loc 6 255 29 view .LVU175
.LBB425:
	.loc 6 257 2 view .LVU176
	.loc 6 257 13 is_stmt 0 view .LVU177
	ldr	r3, [r4, #4]
.LVL43:
	.loc 6 257 13 view .LVU178
.LBE425:
.LBE424:
	.loc 6 360 168 view .LVU179
	cbnz	r3, .L11
	.loc 6 360 5 is_stmt 1 view .LVU180
.LVL44:
	.loc 6 360 5 is_stmt 0 view .LVU181
.LBE415:
.LBE414:
.LBE440:
.LBE455:
	.loc 6 245 2 is_stmt 1 view .LVU182
.LBB456:
.LBB441:
.LBB429:
.LBB428:
.LBB426:
.LBI426:
	.loc 6 231 20 view .LVU183
.LBB427:
	.loc 6 233 2 view .LVU184
	.loc 6 233 13 is_stmt 0 view .LVU185
	str	r5, [r4, #4]
	.loc 6 234 1 view .LVU186
	b	.L11
.LVL45:
.L18:
	.loc 6 234 1 view .LVU187
.LBE427:
.LBE426:
.LBE428:
.LBE429:
.LBB430:
.LBB412:
	.loc 6 373 5 is_stmt 1 view .LVU188
.LBB407:
.LBI407:
	.loc 6 231 20 view .LVU189
.LBB408:
	.loc 6 233 2 view .LVU190
	.loc 6 233 13 is_stmt 0 view .LVU191
	str	r5, [r4, #4]
.LVL46:
	.loc 6 233 13 view .LVU192
.LBE408:
.LBE407:
	.loc 6 373 36 is_stmt 1 view .LVU193
.LBB409:
.LBI409:
	.loc 6 226 20 view .LVU194
.LBB410:
	.loc 6 228 2 view .LVU195
	.loc 6 228 13 is_stmt 0 view .LVU196
	str	r5, [r4]
	.loc 6 229 1 view .LVU197
	b	.L11
.LVL47:
.L12:
	.loc 6 229 1 view .LVU198
.LBE410:
.LBE409:
.LBE412:
.LBE430:
	.loc 6 420 45 is_stmt 1 view .LVU199
	.loc 6 420 45 is_stmt 0 view .LVU200
.LBE441:
.LBE456:
	.loc 6 213 2 is_stmt 1 view .LVU201
.LBB457:
.LBB442:
.LBB431:
.LBI431:
	.loc 6 218 20 view .LVU202
.LBB432:
	.loc 6 221 2 view .LVU203
.LBB433:
.LBI433:
	.loc 6 270 23 view .LVU204
.LBB434:
	.loc 6 272 2 view .LVU205
	.loc 6 272 13 is_stmt 0 view .LVU206
	ldr	r2, [r5]
	.loc 6 272 30 view .LVU207
	and	r2, r2, #3
.LVL48:
	.loc 6 272 30 view .LVU208
.LBE434:
.LBE433:
	.loc 6 223 2 is_stmt 1 view .LVU209
	.loc 6 223 37 is_stmt 0 view .LVU210
	orrs	r3, r3, r2
.LVL49:
	.loc 6 223 25 view .LVU211
	str	r3, [r5]
.LVL50:
	.loc 6 223 25 view .LVU212
.LBE432:
.LBE431:
	.loc 6 420 96 is_stmt 1 view .LVU213
.LBB435:
.LBI435:
	.loc 6 218 20 view .LVU214
.LBB436:
	.loc 6 221 2 view .LVU215
.LBB437:
.LBI437:
	.loc 6 270 23 view .LVU216
.LBB438:
	.loc 6 272 2 view .LVU217
	.loc 6 272 13 is_stmt 0 view .LVU218
	ldr	r3, [r7]
	.loc 6 272 30 view .LVU219
	and	r3, r3, #3
.LVL51:
	.loc 6 272 30 view .LVU220
.LBE438:
.LBE437:
	.loc 6 223 2 is_stmt 1 view .LVU221
	.loc 6 223 37 is_stmt 0 view .LVU222
	orrs	r5, r5, r3
.LVL52:
	.loc 6 223 25 view .LVU223
	str	r5, [r7]
.LVL53:
.L11:
	.loc 6 223 25 view .LVU224
.LBE436:
.LBE435:
.LBE442:
.LBE457:
	.loc 1 167 2 is_stmt 1 view .LVU225
.LBB458:
.LBI458:
	.loc 1 87 20 view .LVU226
.LBB459:
	.loc 1 90 2 view .LVU227
	movs	r1, #4
	add	r0, r4, #20
	bl	z_handle_obj_poll_events
.LVL54:
	.loc 1 90 2 is_stmt 0 view .LVU228
.LBE459:
.LBE458:
	.loc 1 168 2 is_stmt 1 view .LVU229
	mov	r1, r8
	mov	r0, r9
	bl	z_reschedule
.LVL55:
	.loc 1 170 2 view .LVU230
	.loc 1 170 7 view .LVU231
	.loc 1 170 15 view .LVU232
	.loc 1 172 2 view .LVU233
	.loc 1 172 9 is_stmt 0 view .LVU234
	movs	r0, #0
.L3:
	.loc 1 173 1 view .LVU235
	pop	{r3, r4, r5, r6, r7, r8, r9, pc}
	.loc 1 173 1 view .LVU236
	.cfi_endproc
.LFE558:
	.size	queue_insert, .-queue_insert
	.section	.text.z_queue_node_peek,"ax",%progbits
	.align	1
	.global	z_queue_node_peek
	.syntax unified
	.thumb
	.thumb_func
	.fpu fpv4-sp-d16
	.type	z_queue_node_peek, %function
z_queue_node_peek:
.LVL56:
.LFB553:
	.loc 1 31 1 is_stmt 1 view -0
	.cfi_startproc
	@ args = 0, pretend = 0, frame = 0
	@ frame_needed = 0, uses_anonymous_args = 0
	.loc 1 32 2 view .LVU238
	.loc 1 34 2 view .LVU239
	.loc 1 34 5 is_stmt 0 view .LVU240
	cbz	r0, .L24
.LVL57:
.LBB460:
.LBI460:
	.loc 6 270 23 is_stmt 1 view .LVU241
.LBB461:
	.loc 6 272 2 view .LVU242
	.loc 6 272 13 is_stmt 0 view .LVU243
	ldr	r3, [r0]
.LVL58:
	.loc 6 272 13 view .LVU244
.LBE461:
.LBE460:
	.loc 1 34 20 view .LVU245
	tst	r3, #3
	beq	.L24
	.loc 1 31 1 view .LVU246
	push	{r4, lr}
	.cfi_def_cfa_offset 8
	.cfi_offset 4, -8
	.cfi_offset 14, -4
.LBB462:
	.loc 1 40 3 is_stmt 1 view .LVU247
	.loc 1 42 3 view .LVU248
.LVL59:
	.loc 1 43 3 view .LVU249
	.loc 1 43 7 is_stmt 0 view .LVU250
	ldr	r4, [r0, #4]
.LVL60:
	.loc 1 44 3 is_stmt 1 view .LVU251
	.loc 1 44 6 is_stmt 0 view .LVU252
	cbnz	r1, .L27
	.loc 1 43 7 view .LVU253
	mov	r0, r4
.LVL61:
.L21:
	.loc 1 43 7 view .LVU254
.LBE462:
	.loc 1 55 2 is_stmt 1 view .LVU255
	.loc 1 56 1 is_stmt 0 view .LVU256
	pop	{r4, pc}
.LVL62:
.L27:
.LBB463:
	.loc 1 45 4 is_stmt 1 view .LVU257
	bl	k_free
.LVL63:
	.loc 1 43 7 is_stmt 0 view .LVU258
	mov	r0, r4
	b	.L21
.LVL64:
.L24:
	.cfi_def_cfa_offset 0
	.cfi_restore 4
	.cfi_restore 14
	.loc 1 43 7 view .LVU259
.LBE463:
	.loc 1 55 2 is_stmt 1 view .LVU260
	.loc 1 56 1 is_stmt 0 view .LVU261
	bx	lr
	.cfi_endproc
.LFE553:
	.size	z_queue_node_peek, .-z_queue_node_peek
	.section	.text.z_impl_k_queue_init,"ax",%progbits
	.align	1
	.global	z_impl_k_queue_init
	.syntax unified
	.thumb
	.thumb_func
	.fpu fpv4-sp-d16
	.type	z_impl_k_queue_init, %function
z_impl_k_queue_init:
.LVL65:
.LFB554:
	.loc 1 59 1 is_stmt 1 view -0
	.cfi_startproc
	@ args = 0, pretend = 0, frame = 0
	@ frame_needed = 0, uses_anonymous_args = 0
	@ link register save eliminated.
	.loc 1 60 2 view .LVU263
.LBB464:
.LBI464:
	.loc 6 202 20 view .LVU264
.LBB465:
	.loc 6 204 2 view .LVU265
	.loc 6 204 13 is_stmt 0 view .LVU266
	movs	r3, #0
	str	r3, [r0]
	.loc 6 205 2 is_stmt 1 view .LVU267
	.loc 6 205 13 is_stmt 0 view .LVU268
	str	r3, [r0, #4]
.LVL66:
	.loc 6 205 13 view .LVU269
.LBE465:
.LBE464:
	.loc 1 61 2 is_stmt 1 view .LVU270
	.loc 1 61 14 is_stmt 0 view .LVU271
	strb	r3, [r0, #8]
	.loc 1 62 2 is_stmt 1 view .LVU272
.LVL67:
.LBB466:
.LBI466:
	.file 7 "/home/sebin/thesis/zephyrproject/zephyr/include/wait_q.h"
	.loc 7 47 20 view .LVU273
.LBB467:
	.loc 7 49 2 view .LVU274
	add	r3, r0, #12
.LVL68:
.LBB468:
.LBI468:
	.file 8 "/home/sebin/thesis/zephyrproject/zephyr/include/sys/dlist.h"
	.loc 8 197 20 view .LVU275
.LBB469:
	.loc 8 199 2 view .LVU276
	.loc 8 199 13 is_stmt 0 view .LVU277
	str	r3, [r0, #12]
	.loc 8 200 2 is_stmt 1 view .LVU278
	.loc 8 200 13 is_stmt 0 view .LVU279
	str	r3, [r0, #16]
.LVL69:
	.loc 8 200 13 view .LVU280
.LBE469:
.LBE468:
.LBE467:
.LBE466:
	.loc 1 64 2 is_stmt 1 view .LVU281
	add	r3, r0, #20
.LVL70:
.LBB470:
.LBI470:
	.loc 8 197 20 view .LVU282
.LBB471:
	.loc 8 199 2 view .LVU283
	.loc 8 199 13 is_stmt 0 view .LVU284
	str	r3, [r0, #20]
	.loc 8 200 2 is_stmt 1 view .LVU285
	.loc 8 200 13 is_stmt 0 view .LVU286
	str	r3, [r0, #24]
.LVL71:
	.loc 8 200 13 view .LVU287
.LBE471:
.LBE470:
	.loc 1 67 2 is_stmt 1 view .LVU288
	.loc 1 67 7 view .LVU289
	.loc 1 67 15 view .LVU290
	.loc 1 69 2 view .LVU291
	.file 9 "/home/sebin/thesis/zephyrproject/zephyr/include/sys/kobject.h"
	.loc 9 202 2 view .LVU292
	.loc 1 70 1 is_stmt 0 view .LVU293
	bx	lr
	.cfi_endproc
.LFE554:
	.size	z_impl_k_queue_init, .-z_impl_k_queue_init
	.section	.text.z_impl_k_queue_cancel_wait,"ax",%progbits
	.align	1
	.global	z_impl_k_queue_cancel_wait
	.syntax unified
	.thumb
	.thumb_func
	.fpu fpv4-sp-d16
	.type	z_impl_k_queue_cancel_wait, %function
z_impl_k_queue_cancel_wait:
.LVL72:
.LFB557:
	.loc 1 95 1 is_stmt 1 view -0
	.cfi_startproc
	@ args = 0, pretend = 0, frame = 0
	@ frame_needed = 0, uses_anonymous_args = 0
	.loc 1 95 1 is_stmt 0 view .LVU295
	push	{r4, r5, r6, lr}
	.cfi_def_cfa_offset 16
	.cfi_offset 4, -16
	.cfi_offset 5, -12
	.cfi_offset 6, -8
	.cfi_offset 14, -4
	mov	r4, r0
	.loc 1 96 2 is_stmt 1 view .LVU296
	.loc 1 96 7 view .LVU297
	.loc 1 96 15 view .LVU298
	.loc 1 98 2 view .LVU299
	.loc 1 98 25 is_stmt 0 view .LVU300
	add	r5, r0, #8
.LVL73:
.LBB472:
.LBI472:
	.loc 4 130 63 is_stmt 1 view .LVU301
.LBB473:
	.loc 4 132 2 view .LVU302
	.loc 4 133 2 view .LVU303
	.loc 4 139 2 view .LVU304
.LBB474:
.LBI474:
	.loc 5 43 59 view .LVU305
.LBB475:
	.loc 5 45 2 view .LVU306
	.loc 5 54 2 view .LVU307
	.loc 5 56 2 view .LVU308
	.syntax unified
@ 56 "/home/sebin/thesis/zephyrproject/zephyr/include/arch/arm/aarch32/asm_inline_gcc.h" 1
	mov r3, #4;mrs r6, BASEPRI;msr BASEPRI_MAX, r3;isb;
@ 0 "" 2
.LVL74:
	.loc 5 76 2 view .LVU309
	.loc 5 76 2 is_stmt 0 view .LVU310
	.thumb
	.syntax unified
.LBE475:
.LBE474:
	.loc 4 156 2 is_stmt 1 view .LVU311
	.loc 4 156 2 is_stmt 0 view .LVU312
.LBE473:
.LBE472:
	.loc 1 99 2 is_stmt 1 view .LVU313
	.loc 1 101 2 view .LVU314
	.loc 1 101 25 is_stmt 0 view .LVU315
	adds	r0, r0, #12
.LVL75:
	.loc 1 101 25 view .LVU316
	bl	z_unpend_first_thread
.LVL76:
	.loc 1 103 2 is_stmt 1 view .LVU317
	.loc 1 103 5 is_stmt 0 view .LVU318
	cbz	r0, .L30
	.loc 1 104 3 is_stmt 1 view .LVU319
	movs	r1, #0
	bl	prepare_thread_to_run
.LVL77:
.L30:
	.loc 1 107 2 view .LVU320
.LBB476:
.LBI476:
	.loc 1 87 20 view .LVU321
.LBB477:
	.loc 1 90 2 view .LVU322
	movs	r1, #8
	add	r0, r4, #20
	bl	z_handle_obj_poll_events
.LVL78:
	.loc 1 90 2 is_stmt 0 view .LVU323
.LBE477:
.LBE476:
	.loc 1 108 2 is_stmt 1 view .LVU324
	mov	r1, r6
	mov	r0, r5
	bl	z_reschedule
.LVL79:
	.loc 1 109 1 is_stmt 0 view .LVU325
	pop	{r4, r5, r6, pc}
	.loc 1 109 1 view .LVU326
	.cfi_endproc
.LFE557:
	.size	z_impl_k_queue_cancel_wait, .-z_impl_k_queue_cancel_wait
	.section	.text.k_queue_insert,"ax",%progbits
	.align	1
	.global	k_queue_insert
	.syntax unified
	.thumb
	.thumb_func
	.fpu fpv4-sp-d16
	.type	k_queue_insert, %function
k_queue_insert:
.LVL80:
.LFB559:
	.loc 1 176 1 is_stmt 1 view -0
	.cfi_startproc
	@ args = 0, pretend = 0, frame = 0
	@ frame_needed = 0, uses_anonymous_args = 0
	.loc 1 176 1 is_stmt 0 view .LVU328
	push	{lr}
	.cfi_def_cfa_offset 4
	.cfi_offset 14, -4
	sub	sp, sp, #12
	.cfi_def_cfa_offset 16
	.loc 1 177 2 is_stmt 1 view .LVU329
	.loc 1 177 7 view .LVU330
	.loc 1 177 15 view .LVU331
	.loc 1 179 2 view .LVU332
	.loc 1 179 8 is_stmt 0 view .LVU333
	movs	r3, #0
	str	r3, [sp]
	bl	queue_insert
.LVL81:
	.loc 1 181 2 is_stmt 1 view .LVU334
	.loc 1 181 7 view .LVU335
	.loc 1 181 15 view .LVU336
	.loc 1 182 1 is_stmt 0 view .LVU337
	add	sp, sp, #12
	.cfi_def_cfa_offset 4
	@ sp needed
	ldr	pc, [sp], #4
	.cfi_endproc
.LFE559:
	.size	k_queue_insert, .-k_queue_insert
	.section	.text.k_queue_append,"ax",%progbits
	.align	1
	.global	k_queue_append
	.syntax unified
	.thumb
	.thumb_func
	.fpu fpv4-sp-d16
	.type	k_queue_append, %function
k_queue_append:
.LVL82:
.LFB560:
	.loc 1 185 1 is_stmt 1 view -0
	.cfi_startproc
	@ args = 0, pretend = 0, frame = 0
	@ frame_needed = 0, uses_anonymous_args = 0
	.loc 1 185 1 is_stmt 0 view .LVU339
	push	{lr}
	.cfi_def_cfa_offset 4
	.cfi_offset 14, -4
	sub	sp, sp, #12
	.cfi_def_cfa_offset 16
	mov	r2, r1
	.loc 1 186 2 is_stmt 1 view .LVU340
	.loc 1 186 7 view .LVU341
	.loc 1 186 15 view .LVU342
	.loc 1 188 2 view .LVU343
	.loc 1 188 8 is_stmt 0 view .LVU344
	movs	r3, #1
	str	r3, [sp]
	movs	r3, #0
	mov	r1, r3
.LVL83:
	.loc 1 188 8 view .LVU345
	bl	queue_insert
.LVL84:
	.loc 1 190 2 is_stmt 1 view .LVU346
	.loc 1 190 7 view .LVU347
	.loc 1 190 15 view .LVU348
	.loc 1 191 1 is_stmt 0 view .LVU349
	add	sp, sp, #12
	.cfi_def_cfa_offset 4
	@ sp needed
	ldr	pc, [sp], #4
	.cfi_endproc
.LFE560:
	.size	k_queue_append, .-k_queue_append
	.section	.text.k_queue_prepend,"ax",%progbits
	.align	1
	.global	k_queue_prepend
	.syntax unified
	.thumb
	.thumb_func
	.fpu fpv4-sp-d16
	.type	k_queue_prepend, %function
k_queue_prepend:
.LVL85:
.LFB561:
	.loc 1 194 1 is_stmt 1 view -0
	.cfi_startproc
	@ args = 0, pretend = 0, frame = 0
	@ frame_needed = 0, uses_anonymous_args = 0
	.loc 1 194 1 is_stmt 0 view .LVU351
	push	{lr}
	.cfi_def_cfa_offset 4
	.cfi_offset 14, -4
	sub	sp, sp, #12
	.cfi_def_cfa_offset 16
	mov	r2, r1
	.loc 1 195 2 is_stmt 1 view .LVU352
	.loc 1 195 7 view .LVU353
	.loc 1 195 15 view .LVU354
	.loc 1 197 2 view .LVU355
	.loc 1 197 8 is_stmt 0 view .LVU356
	movs	r1, #0
.LVL86:
	.loc 1 197 8 view .LVU357
	str	r1, [sp]
	mov	r3, r1
	bl	queue_insert
.LVL87:
	.loc 1 199 2 is_stmt 1 view .LVU358
	.loc 1 199 7 view .LVU359
	.loc 1 199 15 view .LVU360
	.loc 1 200 1 is_stmt 0 view .LVU361
	add	sp, sp, #12
	.cfi_def_cfa_offset 4
	@ sp needed
	ldr	pc, [sp], #4
	.cfi_endproc
.LFE561:
	.size	k_queue_prepend, .-k_queue_prepend
	.section	.text.z_impl_k_queue_alloc_append,"ax",%progbits
	.align	1
	.global	z_impl_k_queue_alloc_append
	.syntax unified
	.thumb
	.thumb_func
	.fpu fpv4-sp-d16
	.type	z_impl_k_queue_alloc_append, %function
z_impl_k_queue_alloc_append:
.LVL88:
.LFB562:
	.loc 1 203 1 is_stmt 1 view -0
	.cfi_startproc
	@ args = 0, pretend = 0, frame = 0
	@ frame_needed = 0, uses_anonymous_args = 0
	.loc 1 203 1 is_stmt 0 view .LVU363
	push	{lr}
	.cfi_def_cfa_offset 4
	.cfi_offset 14, -4
	sub	sp, sp, #12
	.cfi_def_cfa_offset 16
	mov	r2, r1
	.loc 1 204 2 is_stmt 1 view .LVU364
	.loc 1 204 7 view .LVU365
	.loc 1 204 15 view .LVU366
	.loc 1 206 2 view .LVU367
	.loc 1 206 16 is_stmt 0 view .LVU368
	movs	r3, #1
	str	r3, [sp]
	movs	r1, #0
.LVL89:
	.loc 1 206 16 view .LVU369
	bl	queue_insert
.LVL90:
	.loc 1 208 2 is_stmt 1 view .LVU370
	.loc 1 208 7 view .LVU371
	.loc 1 208 15 view .LVU372
	.loc 1 210 2 view .LVU373
	.loc 1 211 1 is_stmt 0 view .LVU374
	add	sp, sp, #12
	.cfi_def_cfa_offset 4
	@ sp needed
	ldr	pc, [sp], #4
	.cfi_endproc
.LFE562:
	.size	z_impl_k_queue_alloc_append, .-z_impl_k_queue_alloc_append
	.section	.text.z_impl_k_queue_alloc_prepend,"ax",%progbits
	.align	1
	.global	z_impl_k_queue_alloc_prepend
	.syntax unified
	.thumb
	.thumb_func
	.fpu fpv4-sp-d16
	.type	z_impl_k_queue_alloc_prepend, %function
z_impl_k_queue_alloc_prepend:
.LVL91:
.LFB563:
	.loc 1 224 1 is_stmt 1 view -0
	.cfi_startproc
	@ args = 0, pretend = 0, frame = 0
	@ frame_needed = 0, uses_anonymous_args = 0
	.loc 1 224 1 is_stmt 0 view .LVU376
	push	{lr}
	.cfi_def_cfa_offset 4
	.cfi_offset 14, -4
	sub	sp, sp, #12
	.cfi_def_cfa_offset 16
	mov	r2, r1
	.loc 1 225 2 is_stmt 1 view .LVU377
	.loc 1 225 7 view .LVU378
	.loc 1 225 15 view .LVU379
	.loc 1 227 2 view .LVU380
	.loc 1 227 16 is_stmt 0 view .LVU381
	movs	r1, #0
.LVL92:
	.loc 1 227 16 view .LVU382
	str	r1, [sp]
	movs	r3, #1
	bl	queue_insert
.LVL93:
	.loc 1 229 2 is_stmt 1 view .LVU383
	.loc 1 229 7 view .LVU384
	.loc 1 229 15 view .LVU385
	.loc 1 231 2 view .LVU386
	.loc 1 232 1 is_stmt 0 view .LVU387
	add	sp, sp, #12
	.cfi_def_cfa_offset 4
	@ sp needed
	ldr	pc, [sp], #4
	.cfi_endproc
.LFE563:
	.size	z_impl_k_queue_alloc_prepend, .-z_impl_k_queue_alloc_prepend
	.section	.text.k_queue_append_list,"ax",%progbits
	.align	1
	.global	k_queue_append_list
	.syntax unified
	.thumb
	.thumb_func
	.fpu fpv4-sp-d16
	.type	k_queue_append_list, %function
k_queue_append_list:
.LVL94:
.LFB564:
	.loc 1 245 1 is_stmt 1 view -0
	.cfi_startproc
	@ args = 0, pretend = 0, frame = 0
	@ frame_needed = 0, uses_anonymous_args = 0
	.loc 1 246 2 view .LVU389
	.loc 1 246 7 view .LVU390
	.loc 1 246 15 view .LVU391
	.loc 1 249 2 view .LVU392
	.loc 1 249 5 is_stmt 0 view .LVU393
	cmp	r1, #0
	beq	.L50
	.loc 1 245 1 discriminator 1 view .LVU394
	push	{r3, r4, r5, r6, r7, r8, r9, lr}
	.cfi_def_cfa_offset 32
	.cfi_offset 3, -32
	.cfi_offset 4, -28
	.cfi_offset 5, -24
	.cfi_offset 6, -20
	.cfi_offset 7, -16
	.cfi_offset 8, -12
	.cfi_offset 9, -8
	.cfi_offset 14, -4
	mov	r6, r0
	mov	r7, r2
	mov	r4, r1
	.loc 1 249 1 discriminator 1 view .LVU395
	cbz	r2, .L51
	.loc 1 255 2 is_stmt 1 view .LVU396
	.loc 1 255 25 is_stmt 0 view .LVU397
	add	r8, r0, #8
.LVL95:
.LBB478:
.LBI478:
	.loc 4 130 63 is_stmt 1 view .LVU398
.LBB479:
	.loc 4 132 2 view .LVU399
	.loc 4 133 2 view .LVU400
	.loc 4 139 2 view .LVU401
.LBB480:
.LBI480:
	.loc 5 43 59 view .LVU402
.LBB481:
	.loc 5 45 2 view .LVU403
	.loc 5 54 2 view .LVU404
	.loc 5 56 2 view .LVU405
	.syntax unified
@ 56 "/home/sebin/thesis/zephyrproject/zephyr/include/arch/arm/aarch32/asm_inline_gcc.h" 1
	mov r3, #4;mrs r9, BASEPRI;msr BASEPRI_MAX, r3;isb;
@ 0 "" 2
.LVL96:
	.loc 5 76 2 view .LVU406
	.loc 5 76 2 is_stmt 0 view .LVU407
	.thumb
	.syntax unified
.LBE481:
.LBE480:
	.loc 4 156 2 is_stmt 1 view .LVU408
	.loc 4 156 2 is_stmt 0 view .LVU409
.LBE479:
.LBE478:
	.loc 1 256 2 is_stmt 1 view .LVU410
	.loc 1 258 2 view .LVU411
	.loc 1 259 3 view .LVU412
	.loc 1 259 12 is_stmt 0 view .LVU413
	add	r5, r0, #12
	mov	r0, r5
.LVL97:
	.loc 1 259 12 view .LVU414
	bl	z_unpend_first_thread
.LVL98:
	.loc 1 259 12 view .LVU415
	b	.L44
.L46:
	.loc 1 263 3 is_stmt 1 view .LVU416
	mov	r1, r4
	bl	prepare_thread_to_run
.LVL99:
	.loc 1 264 3 view .LVU417
	.loc 1 264 8 is_stmt 0 view .LVU418
	ldr	r4, [r4]
.LVL100:
	.loc 1 265 3 is_stmt 1 view .LVU419
	.loc 1 265 12 is_stmt 0 view .LVU420
	mov	r0, r5
	bl	z_unpend_first_thread
.LVL101:
.L44:
	.loc 1 262 8 is_stmt 1 view .LVU421
	cbz	r4, .L45
	.loc 1 262 23 is_stmt 0 discriminator 1 view .LVU422
	cmp	r0, #0
	bne	.L46
.L45:
	.loc 1 268 2 is_stmt 1 view .LVU423
	.loc 1 268 5 is_stmt 0 view .LVU424
	cbz	r4, .L47
	.loc 1 269 3 is_stmt 1 view .LVU425
.LVL102:
.LBB482:
.LBI482:
	.loc 6 391 20 view .LVU426
.LBB483:
	.loc 6 391 89 view .LVU427
.LBB484:
.LBI484:
	.loc 6 255 29 view .LVU428
.LBB485:
	.loc 6 257 2 view .LVU429
	.loc 6 257 13 is_stmt 0 view .LVU430
	ldr	r2, [r6, #4]
.LVL103:
	.loc 6 257 13 view .LVU431
.LBE485:
.LBE484:
	.loc 6 391 92 view .LVU432
	cbz	r2, .L56
	.loc 6 391 61 is_stmt 1 view .LVU433
.LVL104:
	.loc 6 391 61 is_stmt 0 view .LVU434
.LBE483:
.LBE482:
	.loc 6 257 2 is_stmt 1 view .LVU435
.LBB496:
.LBB494:
.LBB486:
.LBI486:
	.loc 6 218 20 view .LVU436
.LBB487:
	.loc 6 221 2 view .LVU437
.LBB488:
.LBI488:
	.loc 6 270 23 view .LVU438
.LBB489:
	.loc 6 272 2 view .LVU439
	.loc 6 272 13 is_stmt 0 view .LVU440
	ldr	r3, [r2]
	.loc 6 272 30 view .LVU441
	and	r3, r3, #3
.LVL105:
	.loc 6 272 30 view .LVU442
.LBE489:
.LBE488:
	.loc 6 223 2 is_stmt 1 view .LVU443
	.loc 6 223 37 is_stmt 0 view .LVU444
	orrs	r4, r4, r3
.LVL106:
	.loc 6 223 25 view .LVU445
	str	r4, [r2]
.LVL107:
.L49:
	.loc 6 223 25 view .LVU446
.LBE487:
.LBE486:
	.loc 6 391 133 is_stmt 1 view .LVU447
.LBB490:
.LBI490:
	.loc 6 231 20 view .LVU448
.LBB491:
	.loc 6 233 2 view .LVU449
	.loc 6 233 13 is_stmt 0 view .LVU450
	str	r7, [r6, #4]
.LVL108:
.L47:
	.loc 6 233 13 view .LVU451
.LBE491:
.LBE490:
.LBE494:
.LBE496:
	.loc 1 272 2 is_stmt 1 view .LVU452
	.loc 1 272 7 view .LVU453
	.loc 1 272 15 view .LVU454
	.loc 1 274 2 view .LVU455
.LBB497:
.LBI497:
	.loc 1 87 20 view .LVU456
.LBB498:
	.loc 1 90 2 view .LVU457
	movs	r1, #4
	add	r0, r6, #20
.LVL109:
	.loc 1 90 2 is_stmt 0 view .LVU458
	bl	z_handle_obj_poll_events
.LVL110:
	.loc 1 90 2 view .LVU459
.LBE498:
.LBE497:
	.loc 1 275 2 is_stmt 1 view .LVU460
	mov	r1, r9
	mov	r0, r8
	bl	z_reschedule
.LVL111:
	.loc 1 276 2 view .LVU461
	.loc 1 276 9 is_stmt 0 view .LVU462
	movs	r0, #0
.L42:
	.loc 1 277 1 view .LVU463
	pop	{r3, r4, r5, r6, r7, r8, r9, pc}
.LVL112:
.L56:
.LBB499:
.LBB495:
	.loc 6 391 5 is_stmt 1 view .LVU464
.LBB492:
.LBI492:
	.loc 6 226 20 view .LVU465
.LBB493:
	.loc 6 228 2 view .LVU466
	.loc 6 228 13 is_stmt 0 view .LVU467
	str	r4, [r6]
	.loc 6 229 1 view .LVU468
	b	.L49
.LVL113:
.L50:
	.cfi_def_cfa_offset 0
	.cfi_restore 3
	.cfi_restore 4
	.cfi_restore 5
	.cfi_restore 6
	.cfi_restore 7
	.cfi_restore 8
	.cfi_restore 9
	.cfi_restore 14
	.loc 6 229 1 view .LVU469
.LBE493:
.LBE492:
.LBE495:
.LBE499:
	.loc 1 252 10 view .LVU470
	mvn	r0, #21
.LVL114:
	.loc 1 277 1 view .LVU471
	bx	lr
.LVL115:
.L51:
	.cfi_def_cfa_offset 32
	.cfi_offset 3, -32
	.cfi_offset 4, -28
	.cfi_offset 5, -24
	.cfi_offset 6, -20
	.cfi_offset 7, -16
	.cfi_offset 8, -12
	.cfi_offset 9, -8
	.cfi_offset 14, -4
	.loc 1 252 10 view .LVU472
	mvn	r0, #21
.LVL116:
	.loc 1 252 10 view .LVU473
	b	.L42
	.cfi_endproc
.LFE564:
	.size	k_queue_append_list, .-k_queue_append_list
	.section	.text.k_queue_merge_slist,"ax",%progbits
	.align	1
	.global	k_queue_merge_slist
	.syntax unified
	.thumb
	.thumb_func
	.fpu fpv4-sp-d16
	.type	k_queue_merge_slist, %function
k_queue_merge_slist:
.LVL117:
.LFB565:
	.loc 1 280 1 is_stmt 1 view -0
	.cfi_startproc
	@ args = 0, pretend = 0, frame = 0
	@ frame_needed = 0, uses_anonymous_args = 0
	.loc 1 280 1 is_stmt 0 view .LVU475
	push	{r4, lr}
	.cfi_def_cfa_offset 8
	.cfi_offset 4, -8
	.cfi_offset 14, -4
	mov	r4, r1
	.loc 1 281 2 is_stmt 1 view .LVU476
	.loc 1 283 2 view .LVU477
	.loc 1 283 7 view .LVU478
	.loc 1 283 15 view .LVU479
	.loc 1 286 2 view .LVU480
.LVL118:
.LBB500:
.LBI500:
	.file 10 "/home/sebin/thesis/zephyrproject/zephyr/include/sys/slist.h"
	.loc 10 261 1 view .LVU481
.LBE500:
	.loc 10 261 41 view .LVU482
.LBB503:
.LBB501:
.LBI501:
	.loc 10 231 28 view .LVU483
.LBB502:
	.loc 10 233 2 view .LVU484
	.loc 10 233 13 is_stmt 0 view .LVU485
	ldr	r1, [r1]
.LVL119:
	.loc 10 233 13 view .LVU486
.LBE502:
.LBE501:
.LBE503:
	.loc 1 286 5 view .LVU487
	cbz	r1, .L59
	.loc 1 301 2 is_stmt 1 view .LVU488
	.loc 1 301 8 is_stmt 0 view .LVU489
	ldr	r2, [r4, #4]
	bl	k_queue_append_list
.LVL120:
	.loc 1 302 2 is_stmt 1 view .LVU490
	.loc 1 302 5 is_stmt 0 view .LVU491
	cbnz	r0, .L57
	.loc 1 307 2 is_stmt 1 view .LVU492
.LVL121:
.LBB504:
.LBI504:
	.loc 10 196 20 view .LVU493
.LBB505:
	.loc 10 198 2 view .LVU494
	.loc 10 198 13 is_stmt 0 view .LVU495
	str	r0, [r4]
	.loc 10 199 2 is_stmt 1 view .LVU496
	.loc 10 199 13 is_stmt 0 view .LVU497
	str	r0, [r4, #4]
.LVL122:
	.loc 10 199 13 view .LVU498
.LBE505:
.LBE504:
	.loc 1 309 2 is_stmt 1 view .LVU499
	.loc 1 309 7 view .LVU500
	.loc 1 309 15 view .LVU501
	.loc 1 311 2 view .LVU502
.L57:
	.loc 1 312 1 is_stmt 0 view .LVU503
	pop	{r4, pc}
.LVL123:
.L59:
	.loc 1 289 10 view .LVU504
	mvn	r0, #21
.LVL124:
	.loc 1 289 10 view .LVU505
	b	.L57
	.cfi_endproc
.LFE565:
	.size	k_queue_merge_slist, .-k_queue_merge_slist
	.section	.text.z_impl_k_queue_get,"ax",%progbits
	.align	1
	.global	z_impl_k_queue_get
	.syntax unified
	.thumb
	.thumb_func
	.fpu fpv4-sp-d16
	.type	z_impl_k_queue_get, %function
z_impl_k_queue_get:
.LVL125:
.LFB566:
	.loc 1 315 1 is_stmt 1 view -0
	.cfi_startproc
	@ args = 0, pretend = 0, frame = 0
	@ frame_needed = 0, uses_anonymous_args = 0
	.loc 1 315 1 is_stmt 0 view .LVU507
	push	{r4, r6, r7, lr}
	.cfi_def_cfa_offset 16
	.cfi_offset 4, -16
	.cfi_offset 6, -12
	.cfi_offset 7, -8
	.cfi_offset 14, -4
	sub	sp, sp, #8
	.cfi_def_cfa_offset 24
	mov	r1, r0
	mov	r6, r2
.LVL126:
	.loc 1 315 1 view .LVU508
	mov	r7, r3
	.loc 1 316 2 is_stmt 1 view .LVU509
	.loc 1 316 25 is_stmt 0 view .LVU510
	mov	r3, r0
.LVL127:
.LBB506:
.LBI506:
	.loc 4 130 63 is_stmt 1 view .LVU511
.LBB507:
	.loc 4 132 2 view .LVU512
	.loc 4 133 2 view .LVU513
	.loc 4 139 2 view .LVU514
.LBB508:
.LBI508:
	.loc 5 43 59 view .LVU515
.LBB509:
	.loc 5 45 2 view .LVU516
	.loc 5 54 2 view .LVU517
	.loc 5 56 2 view .LVU518
	.syntax unified
@ 56 "/home/sebin/thesis/zephyrproject/zephyr/include/arch/arm/aarch32/asm_inline_gcc.h" 1
	mov r2, #4;mrs r4, BASEPRI;msr BASEPRI_MAX, r2;isb;
@ 0 "" 2
.LVL128:
	.loc 5 76 2 view .LVU519
	.loc 5 76 2 is_stmt 0 view .LVU520
	.thumb
	.syntax unified
.LBE509:
.LBE508:
	.loc 4 156 2 is_stmt 1 view .LVU521
	.loc 4 156 2 is_stmt 0 view .LVU522
.LBE507:
.LBE506:
	.loc 1 317 2 is_stmt 1 view .LVU523
	.loc 1 319 2 view .LVU524
	.loc 1 319 7 view .LVU525
	.loc 1 319 15 view .LVU526
	.loc 1 321 2 view .LVU527
.LBB510:
.LBI510:
	.loc 6 323 1 view .LVU528
.LBE510:
	.loc 6 323 43 view .LVU529
.LBB513:
.LBB511:
.LBI511:
	.loc 6 243 29 view .LVU530
.LBB512:
	.loc 6 245 2 view .LVU531
	.loc 6 245 13 is_stmt 0 view .LVU532
	ldr	r0, [r3], #8
.LVL129:
	.loc 6 245 13 view .LVU533
.LBE512:
.LBE511:
.LBE513:
	.loc 1 321 5 view .LVU534
	cbz	r0, .L62
.LBB514:
	.loc 1 322 3 is_stmt 1 view .LVU535
	.loc 1 324 3 view .LVU536
.LVL130:
.LBB515:
.LBI515:
	.loc 6 434 30 view .LVU537
.LBB516:
	.loc 6 434 77 view .LVU538
	.loc 6 434 77 is_stmt 0 view .LVU539
.LBE516:
.LBE515:
.LBE514:
	.loc 6 245 2 is_stmt 1 view .LVU540
.LBB535:
.LBB528:
.LBB525:
	.loc 6 434 126 view .LVU541
.LBB517:
.LBI517:
	.loc 6 211 29 view .LVU542
.LBB518:
	.loc 6 213 2 view .LVU543
	.loc 6 213 30 is_stmt 0 view .LVU544
	ldr	r3, [r0]
	.loc 6 213 47 view .LVU545
	bic	r3, r3, #3
.LVL131:
	.loc 6 213 47 view .LVU546
.LBE518:
.LBE517:
.LBB519:
.LBI519:
	.loc 6 226 20 is_stmt 1 view .LVU547
.LBB520:
	.loc 6 228 2 view .LVU548
	.loc 6 228 13 is_stmt 0 view .LVU549
	str	r3, [r1]
.LVL132:
	.loc 6 228 13 view .LVU550
.LBE520:
.LBE519:
	.loc 6 434 177 is_stmt 1 view .LVU551
.LBB521:
.LBI521:
	.loc 6 255 29 view .LVU552
.LBB522:
	.loc 6 257 2 view .LVU553
	.loc 6 257 13 is_stmt 0 view .LVU554
	ldr	r2, [r1, #4]
.LVL133:
	.loc 6 257 13 view .LVU555
.LBE522:
.LBE521:
	.loc 6 434 180 view .LVU556
	cmp	r0, r2
	beq	.L68
.L63:
	.loc 6 434 274 is_stmt 1 view .LVU557
.LVL134:
	.loc 6 434 274 is_stmt 0 view .LVU558
.LBE525:
.LBE528:
	.loc 1 325 3 is_stmt 1 view .LVU559
	.loc 1 325 10 is_stmt 0 view .LVU560
	movs	r1, #1
.LVL135:
	.loc 1 325 10 view .LVU561
	bl	z_queue_node_peek
.LVL136:
	.loc 1 326 3 is_stmt 1 view .LVU562
.LBB529:
.LBI529:
	.loc 4 180 51 view .LVU563
.LBE529:
.LBE535:
	.loc 4 183 2 view .LVU564
	.loc 4 198 2 view .LVU565
.LBB536:
.LBB532:
.LBB530:
.LBI530:
	.loc 5 84 51 view .LVU566
.LBB531:
	.loc 5 95 2 view .LVU567
	.syntax unified
@ 95 "/home/sebin/thesis/zephyrproject/zephyr/include/arch/arm/aarch32/asm_inline_gcc.h" 1
	msr BASEPRI, r4;isb;
@ 0 "" 2
.LVL137:
	.loc 5 95 2 is_stmt 0 view .LVU568
	.thumb
	.syntax unified
.LBE531:
.LBE530:
.LBE532:
	.loc 1 328 3 is_stmt 1 view .LVU569
	.loc 1 328 8 view .LVU570
	.loc 1 328 16 view .LVU571
	.loc 1 330 3 view .LVU572
.L61:
	.loc 1 330 3 is_stmt 0 view .LVU573
.LBE536:
	.loc 1 349 1 view .LVU574
	add	sp, sp, #8
	.cfi_remember_state
	.cfi_def_cfa_offset 16
	@ sp needed
	pop	{r4, r6, r7, pc}
.LVL138:
.L68:
	.cfi_restore_state
.LBB537:
.LBB533:
.LBB526:
	.loc 6 434 219 is_stmt 1 view .LVU575
	.loc 6 434 219 is_stmt 0 view .LVU576
.LBE526:
.LBE533:
.LBE537:
	.loc 6 245 2 is_stmt 1 view .LVU577
.LBB538:
.LBB534:
.LBB527:
.LBB523:
.LBI523:
	.loc 6 231 20 view .LVU578
.LBB524:
	.loc 6 233 2 view .LVU579
	.loc 6 233 13 is_stmt 0 view .LVU580
	str	r3, [r1, #4]
	.loc 6 234 1 view .LVU581
	b	.L63
.LVL139:
.L62:
	.loc 6 234 1 view .LVU582
.LBE524:
.LBE523:
.LBE527:
.LBE534:
.LBE538:
	.loc 1 333 2 is_stmt 1 view .LVU583
	.loc 1 333 7 view .LVU584
	.loc 1 333 15 view .LVU585
	.loc 1 335 2 view .LVU586
.LBB539:
	.loc 1 335 5 is_stmt 0 view .LVU587
	orrs	r2, r6, r7
	beq	.L69
.LBE539:
	.loc 1 343 2 is_stmt 1 view .LVU588
	.loc 1 343 12 is_stmt 0 view .LVU589
	strd	r6, [sp]
	add	r2, r1, #12
	mov	r1, r4
.LVL140:
	.loc 1 343 12 view .LVU590
	mov	r0, r3
	bl	z_pend_curr
.LVL141:
	.loc 1 345 2 is_stmt 1 view .LVU591
	.loc 1 345 7 view .LVU592
	.loc 1 345 15 view .LVU593
	.loc 1 348 2 view .LVU594
	.loc 1 348 26 is_stmt 0 view .LVU595
	cbnz	r0, .L66
	.loc 1 348 43 discriminator 1 view .LVU596
	ldr	r3, .L70
	ldr	r3, [r3, #8]
	.loc 1 348 26 discriminator 1 view .LVU597
	ldr	r0, [r3, #20]
.LVL142:
	.loc 1 348 26 discriminator 1 view .LVU598
	b	.L61
.LVL143:
.L69:
.LBB544:
	.loc 1 336 3 is_stmt 1 view .LVU599
.LBB540:
.LBI540:
	.loc 4 180 51 view .LVU600
.LBE540:
.LBE544:
	.loc 4 183 2 view .LVU601
	.loc 4 198 2 view .LVU602
.LBB545:
.LBB543:
.LBB541:
.LBI541:
	.loc 5 84 51 view .LVU603
.LBB542:
	.loc 5 95 2 view .LVU604
	.syntax unified
@ 95 "/home/sebin/thesis/zephyrproject/zephyr/include/arch/arm/aarch32/asm_inline_gcc.h" 1
	msr BASEPRI, r4;isb;
@ 0 "" 2
.LVL144:
	.loc 5 95 2 is_stmt 0 view .LVU605
	.thumb
	.syntax unified
.LBE542:
.LBE541:
.LBE543:
	.loc 1 338 3 is_stmt 1 view .LVU606
	.loc 1 338 8 view .LVU607
	.loc 1 338 16 view .LVU608
	.loc 1 340 3 view .LVU609
	.loc 1 340 9 is_stmt 0 view .LVU610
	movs	r0, #0
	b	.L61
.LVL145:
.L66:
	.loc 1 340 9 view .LVU611
.LBE545:
	.loc 1 348 26 view .LVU612
	movs	r0, #0
.LVL146:
	.loc 1 348 26 view .LVU613
	b	.L61
.L71:
	.align	2
.L70:
	.word	_kernel
	.cfi_endproc
.LFE566:
	.size	z_impl_k_queue_get, .-z_impl_k_queue_get
	.section	.text.k_queue_remove,"ax",%progbits
	.align	1
	.global	k_queue_remove
	.syntax unified
	.thumb
	.thumb_func
	.fpu fpv4-sp-d16
	.type	k_queue_remove, %function
k_queue_remove:
.LVL147:
.LFB567:
	.loc 1 352 1 is_stmt 1 view -0
	.cfi_startproc
	@ args = 0, pretend = 0, frame = 0
	@ frame_needed = 0, uses_anonymous_args = 0
	@ link register save eliminated.
	.loc 1 353 2 view .LVU615
	.loc 1 353 7 view .LVU616
	.loc 1 353 15 view .LVU617
	.loc 1 355 1 view .LVU618
.LBB578:
.LBI578:
	.loc 6 478 1 view .LVU619
.LBB579:
	.loc 6 478 70 view .LVU620
	.loc 6 478 3 view .LVU621
	.loc 6 478 23 view .LVU622
.LBB580:
.LBI580:
	.loc 6 243 29 view .LVU623
.LBB581:
	.loc 6 245 2 view .LVU624
	.loc 6 245 13 is_stmt 0 view .LVU625
	ldr	r3, [r0]
.LVL148:
	.loc 6 245 13 view .LVU626
.LBE581:
.LBE580:
	.loc 6 478 84 view .LVU627
	movs	r2, #0
.LVL149:
	.loc 6 478 63 is_stmt 1 view .LVU628
	.loc 6 478 23 is_stmt 0 view .LVU629
	cbz	r3, .L84
.LBE579:
.LBE578:
	.loc 1 352 1 view .LVU630
	push	{r4}
	.cfi_def_cfa_offset 4
	.cfi_offset 4, -4
.L78:
.LBB622:
.LBB617:
	.loc 6 478 40 is_stmt 1 view .LVU631
	.loc 6 478 43 is_stmt 0 view .LVU632
	cmp	r1, r3
	beq	.L85
	.loc 6 478 5 is_stmt 1 view .LVU633
.LVL150:
	.loc 6 478 3 view .LVU634
.LBB582:
.LBI582:
	.loc 6 347 30 view .LVU635
.LBE582:
.LBE617:
.LBE622:
	.loc 6 347 73 view .LVU636
.LBB623:
.LBB618:
.LBB587:
.LBB583:
.LBI583:
	.loc 6 336 30 view .LVU637
.LBE583:
.LBE587:
.LBE618:
.LBE623:
	.loc 6 336 82 view .LVU638
.LBB624:
.LBB619:
.LBB588:
.LBB586:
.LBB584:
.LBI584:
	.loc 6 211 29 view .LVU639
.LBB585:
	.loc 6 213 2 view .LVU640
	.loc 6 213 30 is_stmt 0 view .LVU641
	ldr	r4, [r3]
.LVL151:
	.loc 6 213 30 view .LVU642
.LBE585:
.LBE584:
.LBE586:
.LBE588:
	.loc 6 478 10 view .LVU643
	mov	r2, r3
	.loc 6 478 10 view .LVU644
	bic	r3, r4, #3
.LVL152:
	.loc 6 478 63 is_stmt 1 view .LVU645
	.loc 6 478 23 is_stmt 0 view .LVU646
	cmp	r3, #0
	bne	.L78
	.loc 6 478 1 view .LVU647
	movs	r0, #0
.LVL153:
	.loc 6 478 1 view .LVU648
	b	.L77
.LVL154:
.L85:
	.loc 6 478 60 is_stmt 1 view .LVU649
.LBB589:
.LBI589:
	.loc 6 463 20 view .LVU650
.LBB590:
	.loc 6 463 105 view .LVU651
	.loc 6 463 108 is_stmt 0 view .LVU652
	cbz	r2, .L86
	.loc 6 463 162 is_stmt 1 view .LVU653
.LVL155:
.LBB591:
.LBI591:
	.loc 6 211 29 view .LVU654
.LBB592:
	.loc 6 213 2 view .LVU655
	.loc 6 213 30 is_stmt 0 view .LVU656
	ldr	r3, [r1]
.LVL156:
	.loc 6 213 47 view .LVU657
	bic	r4, r3, #3
.LVL157:
	.loc 6 213 47 view .LVU658
.LBE592:
.LBE591:
.LBB593:
.LBI593:
	.loc 6 218 20 is_stmt 1 view .LVU659
.LBB594:
	.loc 6 221 2 view .LVU660
.LBB595:
.LBI595:
	.loc 6 270 23 view .LVU661
.LBB596:
	.loc 6 272 2 view .LVU662
	.loc 6 272 13 is_stmt 0 view .LVU663
	ldr	r3, [r2]
	.loc 6 272 30 view .LVU664
	and	r3, r3, #3
.LVL158:
	.loc 6 272 30 view .LVU665
.LBE596:
.LBE595:
	.loc 6 223 2 is_stmt 1 view .LVU666
	.loc 6 223 37 is_stmt 0 view .LVU667
	orrs	r3, r3, r4
.LVL159:
	.loc 6 223 25 view .LVU668
	str	r3, [r2]
.LVL160:
	.loc 6 223 25 view .LVU669
.LBE594:
.LBE593:
	.loc 6 463 218 is_stmt 1 view .LVU670
.LBB597:
.LBI597:
	.loc 6 255 29 view .LVU671
.LBB598:
	.loc 6 257 2 view .LVU672
	.loc 6 257 13 is_stmt 0 view .LVU673
	ldr	r3, [r0, #4]
.LVL161:
	.loc 6 257 13 view .LVU674
.LBE598:
.LBE597:
	.loc 6 463 221 view .LVU675
	cmp	r1, r3
	beq	.L87
.LVL162:
.L76:
	.loc 6 463 300 is_stmt 1 view .LVU676
.LBB599:
.LBI599:
	.loc 6 218 20 view .LVU677
.LBB600:
	.loc 6 221 2 view .LVU678
.LBB601:
.LBI601:
	.loc 6 270 23 view .LVU679
.LBB602:
	.loc 6 272 2 view .LVU680
	.loc 6 272 13 is_stmt 0 view .LVU681
	ldr	r3, [r1]
	.loc 6 272 30 view .LVU682
	and	r3, r3, #3
.LVL163:
	.loc 6 272 30 view .LVU683
.LBE602:
.LBE601:
	.loc 6 223 2 is_stmt 1 view .LVU684
	.loc 6 223 25 is_stmt 0 view .LVU685
	str	r3, [r1]
.LVL164:
	.loc 6 223 25 view .LVU686
.LBE600:
.LBE599:
.LBE590:
.LBE589:
	.loc 6 478 97 is_stmt 1 view .LVU687
	.loc 6 478 1 is_stmt 0 view .LVU688
	movs	r0, #1
.LVL165:
.L77:
	.loc 6 478 1 view .LVU689
.LBE619:
.LBE624:
	.loc 1 357 2 is_stmt 1 view .LVU690
	.loc 1 357 7 view .LVU691
	.loc 1 357 15 view .LVU692
	.loc 1 359 2 view .LVU693
	.loc 1 360 1 is_stmt 0 view .LVU694
	ldr	r4, [sp], #4
	.cfi_remember_state
	.cfi_restore 4
	.cfi_def_cfa_offset 0
	bx	lr
.LVL166:
.L86:
	.cfi_restore_state
.LBB625:
.LBB620:
.LBB615:
.LBB613:
	.loc 6 463 5 is_stmt 1 view .LVU695
.LBB603:
.LBI603:
	.loc 6 211 29 view .LVU696
.LBB604:
	.loc 6 213 2 view .LVU697
	.loc 6 213 30 is_stmt 0 view .LVU698
	ldr	r3, [r1]
.LVL167:
	.loc 6 213 47 view .LVU699
	bic	r3, r3, #3
.LVL168:
	.loc 6 213 47 view .LVU700
.LBE604:
.LBE603:
.LBB605:
.LBI605:
	.loc 6 226 20 is_stmt 1 view .LVU701
.LBB606:
	.loc 6 228 2 view .LVU702
	.loc 6 228 13 is_stmt 0 view .LVU703
	str	r3, [r0]
.LVL169:
	.loc 6 228 13 view .LVU704
.LBE606:
.LBE605:
	.loc 6 463 56 is_stmt 1 view .LVU705
.LBB607:
.LBI607:
	.loc 6 255 29 view .LVU706
.LBB608:
	.loc 6 257 2 view .LVU707
	.loc 6 257 13 is_stmt 0 view .LVU708
	ldr	r2, [r0, #4]
.LVL170:
	.loc 6 257 13 view .LVU709
.LBE608:
.LBE607:
	.loc 6 463 59 view .LVU710
	cmp	r1, r2
	bne	.L76
	.loc 6 463 98 is_stmt 1 view .LVU711
.LVL171:
	.loc 6 463 98 is_stmt 0 view .LVU712
.LBE613:
.LBE615:
.LBE620:
.LBE625:
	.loc 6 245 2 is_stmt 1 view .LVU713
.LBB626:
.LBB621:
.LBB616:
.LBB614:
.LBB609:
.LBI609:
	.loc 6 231 20 view .LVU714
.LBB610:
	.loc 6 233 2 view .LVU715
	.loc 6 233 13 is_stmt 0 view .LVU716
	str	r3, [r0, #4]
	.loc 6 234 1 view .LVU717
	b	.L76
.LVL172:
.L87:
	.loc 6 234 1 view .LVU718
.LBE610:
.LBE609:
	.loc 6 463 260 is_stmt 1 view .LVU719
.LBB611:
.LBI611:
	.loc 6 231 20 view .LVU720
.LBB612:
	.loc 6 233 2 view .LVU721
	.loc 6 233 13 is_stmt 0 view .LVU722
	str	r2, [r0, #4]
	.loc 6 234 1 view .LVU723
	b	.L76
.LVL173:
.L84:
	.cfi_def_cfa_offset 0
	.cfi_restore 4
	.loc 6 234 1 view .LVU724
.LBE612:
.LBE611:
.LBE614:
.LBE616:
	.loc 6 478 1 view .LVU725
	movs	r0, #0
.LVL174:
	.loc 6 478 1 view .LVU726
.LBE621:
.LBE626:
	.loc 1 357 2 is_stmt 1 view .LVU727
	.loc 1 357 7 view .LVU728
	.loc 1 357 15 view .LVU729
	.loc 1 359 2 view .LVU730
	.loc 1 360 1 is_stmt 0 view .LVU731
	bx	lr
	.cfi_endproc
.LFE567:
	.size	k_queue_remove, .-k_queue_remove
	.section	.text.k_queue_unique_append,"ax",%progbits
	.align	1
	.global	k_queue_unique_append
	.syntax unified
	.thumb
	.thumb_func
	.fpu fpv4-sp-d16
	.type	k_queue_unique_append, %function
k_queue_unique_append:
.LVL175:
.LFB568:
	.loc 1 363 1 is_stmt 1 view -0
	.cfi_startproc
	@ args = 0, pretend = 0, frame = 0
	@ frame_needed = 0, uses_anonymous_args = 0
	.loc 1 363 1 is_stmt 0 view .LVU733
	push	{r3, lr}
	.cfi_def_cfa_offset 8
	.cfi_offset 3, -8
	.cfi_offset 14, -4
	.loc 1 364 2 is_stmt 1 view .LVU734
	.loc 1 364 7 view .LVU735
	.loc 1 364 15 view .LVU736
	.loc 1 366 2 view .LVU737
	.loc 1 368 2 view .LVU738
.LVL176:
.LBB627:
.LBI627:
	.loc 6 243 29 view .LVU739
.LBB628:
	.loc 6 245 2 view .LVU740
	.loc 6 245 13 is_stmt 0 view .LVU741
	ldr	r3, [r0]
.LVL177:
.L89:
	.loc 6 245 13 view .LVU742
.LBE628:
.LBE627:
	.loc 1 368 52 is_stmt 1 discriminator 1 view .LVU743
	.loc 1 368 2 is_stmt 0 discriminator 1 view .LVU744
	cbz	r3, .L94
	.loc 1 369 3 is_stmt 1 view .LVU745
	.loc 1 369 6 is_stmt 0 view .LVU746
	cmp	r3, r1
	beq	.L92
	.loc 1 368 3 is_stmt 1 view .LVU747
.LVL178:
.LBB629:
.LBI629:
	.loc 6 347 30 view .LVU748
.LBB630:
	.loc 6 347 73 view .LVU749
.LBB631:
.LBI631:
	.loc 6 336 30 view .LVU750
.LBE631:
.LBE630:
.LBE629:
	.loc 6 336 82 view .LVU751
.LBB636:
.LBB635:
.LBB634:
.LBB632:
.LBI632:
	.loc 6 211 29 view .LVU752
.LBB633:
	.loc 6 213 2 view .LVU753
	.loc 6 213 30 is_stmt 0 view .LVU754
	ldr	r3, [r3]
.LVL179:
	.loc 6 213 47 view .LVU755
	bic	r3, r3, #3
.LVL180:
	.loc 6 213 47 view .LVU756
	b	.L89
.L94:
	.loc 6 213 47 view .LVU757
.LBE633:
.LBE632:
.LBE634:
.LBE635:
.LBE636:
	.loc 1 376 2 is_stmt 1 view .LVU758
	bl	k_queue_append
.LVL181:
	.loc 1 378 2 view .LVU759
	.loc 1 378 7 view .LVU760
	.loc 1 378 15 view .LVU761
	.loc 1 380 2 view .LVU762
	.loc 1 380 8 is_stmt 0 view .LVU763
	movs	r0, #1
.L90:
	.loc 1 381 1 view .LVU764
	pop	{r3, pc}
.LVL182:
.L92:
	.loc 1 372 10 view .LVU765
	movs	r0, #0
.LVL183:
	.loc 1 372 10 view .LVU766
	b	.L90
	.cfi_endproc
.LFE568:
	.size	k_queue_unique_append, .-k_queue_unique_append
	.section	.text.z_impl_k_queue_peek_head,"ax",%progbits
	.align	1
	.global	z_impl_k_queue_peek_head
	.syntax unified
	.thumb
	.thumb_func
	.fpu fpv4-sp-d16
	.type	z_impl_k_queue_peek_head, %function
z_impl_k_queue_peek_head:
.LVL184:
.LFB569:
	.loc 1 384 1 is_stmt 1 view -0
	.cfi_startproc
	@ args = 0, pretend = 0, frame = 0
	@ frame_needed = 0, uses_anonymous_args = 0
	.loc 1 384 1 is_stmt 0 view .LVU768
	push	{r3, lr}
	.cfi_def_cfa_offset 8
	.cfi_offset 3, -8
	.cfi_offset 14, -4
	.loc 1 385 2 is_stmt 1 view .LVU769
.LVL185:
.LBB637:
.LBI637:
	.loc 6 243 29 view .LVU770
.LBB638:
	.loc 6 245 2 view .LVU771
	.loc 6 245 2 is_stmt 0 view .LVU772
.LBE638:
.LBE637:
	.loc 1 385 14 view .LVU773
	movs	r1, #0
	ldr	r0, [r0]
.LVL186:
	.loc 1 385 14 view .LVU774
	bl	z_queue_node_peek
.LVL187:
	.loc 1 387 2 is_stmt 1 view .LVU775
	.loc 1 387 7 view .LVU776
	.loc 1 387 15 view .LVU777
	.loc 1 389 2 view .LVU778
	.loc 1 390 1 is_stmt 0 view .LVU779
	pop	{r3, pc}
	.cfi_endproc
.LFE569:
	.size	z_impl_k_queue_peek_head, .-z_impl_k_queue_peek_head
	.section	.text.z_impl_k_queue_peek_tail,"ax",%progbits
	.align	1
	.global	z_impl_k_queue_peek_tail
	.syntax unified
	.thumb
	.thumb_func
	.fpu fpv4-sp-d16
	.type	z_impl_k_queue_peek_tail, %function
z_impl_k_queue_peek_tail:
.LVL188:
.LFB570:
	.loc 1 393 1 is_stmt 1 view -0
	.cfi_startproc
	@ args = 0, pretend = 0, frame = 0
	@ frame_needed = 0, uses_anonymous_args = 0
	.loc 1 393 1 is_stmt 0 view .LVU781
	push	{r3, lr}
	.cfi_def_cfa_offset 8
	.cfi_offset 3, -8
	.cfi_offset 14, -4
	.loc 1 394 2 is_stmt 1 view .LVU782
.LVL189:
.LBB639:
.LBI639:
	.loc 6 255 29 view .LVU783
.LBB640:
	.loc 6 257 2 view .LVU784
	.loc 6 257 2 is_stmt 0 view .LVU785
.LBE640:
.LBE639:
	.loc 1 394 14 view .LVU786
	movs	r1, #0
	ldr	r0, [r0, #4]
.LVL190:
	.loc 1 394 14 view .LVU787
	bl	z_queue_node_peek
.LVL191:
	.loc 1 396 2 is_stmt 1 view .LVU788
	.loc 1 396 7 view .LVU789
	.loc 1 396 15 view .LVU790
	.loc 1 398 2 view .LVU791
	.loc 1 399 1 is_stmt 0 view .LVU792
	pop	{r3, pc}
	.cfi_endproc
.LFE570:
	.size	z_impl_k_queue_peek_tail, .-z_impl_k_queue_peek_tail
	.text
.Letext0:
	.file 11 "/home/sebin/LIOT/gcc-arm-none-eabi-9-2019-q4-major/lib/gcc/arm-none-eabi/9.2.1/include/stddef.h"
	.file 12 "/home/sebin/LIOT/gcc-arm-none-eabi-9-2019-q4-major/arm-none-eabi/include/machine/_default_types.h"
	.file 13 "/home/sebin/LIOT/gcc-arm-none-eabi-9-2019-q4-major/arm-none-eabi/include/sys/_stdint.h"
	.file 14 "/home/sebin/thesis/zephyrproject/zephyr/include/sys/rb.h"
	.file 15 "/home/sebin/thesis/zephyrproject/zephyr/include/sys/sys_heap.h"
	.file 16 "/home/sebin/thesis/zephyrproject/zephyr/include/kernel_structs.h"
	.file 17 "/home/sebin/thesis/zephyrproject/zephyr/include/kernel/thread.h"
	.file 18 "/home/sebin/thesis/zephyrproject/zephyr/include/kernel.h"
	.file 19 "/home/sebin/thesis/zephyrproject/zephyr/include/kernel/thread_stack.h"
	.file 20 "/home/sebin/thesis/zephyrproject/zephyr/include/arch/arm/aarch32/thread.h"
	.file 21 "/home/sebin/thesis/zephyrproject/zephyr/include/arch/arm/aarch32/exc.h"
	.file 22 "/home/sebin/thesis/zephyrproject/zephyr/include/sw_isr_table.h"
	.file 23 "/home/sebin/thesis/zephyrproject/modules/hal/infineon/XMCLib/devices/XMC4500/Include/system_XMC4500.h"
	.file 24 "/home/sebin/thesis/zephyrproject/modules/hal/cmsis/CMSIS/Core/Include/core_cm4.h"
	.file 25 "/home/sebin/thesis/zephyrproject/zephyr/include/arch/arm/aarch32/mpu/arm_mpu_v7m.h"
	.file 26 "/home/sebin/thesis/zephyrproject/zephyr/include/arch/arm/aarch32/mpu/arm_mpu.h"
	.file 27 "/home/sebin/thesis/zephyrproject/zephyr/include/sys_clock.h"
	.file 28 "/home/sebin/LIOT/gcc-arm-none-eabi-9-2019-q4-major/arm-none-eabi/include/sys/lock.h"
	.file 29 "/home/sebin/LIOT/gcc-arm-none-eabi-9-2019-q4-major/arm-none-eabi/include/sys/_types.h"
	.file 30 "/home/sebin/LIOT/gcc-arm-none-eabi-9-2019-q4-major/arm-none-eabi/include/sys/reent.h"
	.file 31 "/home/sebin/LIOT/gcc-arm-none-eabi-9-2019-q4-major/arm-none-eabi/include/sys/errno.h"
	.file 32 "/home/sebin/thesis/zephyrproject/zephyr/arch/arm/include/aarch32/cortex_m/stack.h"
	.file 33 "/home/sebin/thesis/zephyrproject/zephyr/kernel/include/ksched.h"
	.file 34 "/home/sebin/thesis/zephyrproject/zephyr/include/arch/structs.h"