	.cpu cortex-m4
	.eabi_attribute 27, 1
	.eabi_attribute 28, 1
	.eabi_attribute 20, 1
	.eabi_attribute 21, 1
	.eabi_attribute 23, 3
	.eabi_attribute 24, 1
	.eabi_attribute 25, 1
	.eabi_attribute 26, 1
	.eabi_attribute 30, 1
	.eabi_attribute 34, 1
	.eabi_attribute 38, 1
	.eabi_attribute 18, 4
	.file	"sched.c"
	.text
.Ltext0:
	.cfi_sections	.debug_frame
	.section	.text.thread_active_elsewhere,"ax",%progbits
	.align	1
	.arch armv7e-m
	.syntax unified
	.thumb
	.thumb_func
	.fpu fpv4-sp-d16
	.type	thread_active_elsewhere, %function
thread_active_elsewhere:
.LVL0:
.LFB623:
	.file 1 "/home/sebin/thesis/zephyrproject/zephyr/kernel/sched.c"
	.loc 1 514 1 view -0
	.cfi_startproc
	@ args = 0, pretend = 0, frame = 0
	@ frame_needed = 0, uses_anonymous_args = 0
	@ link register save eliminated.
	.loc 1 529 2 view .LVU1
	.loc 1 530 1 is_stmt 0 view .LVU2
	movs	r0, #0
.LVL1:
	.loc 1 530 1 view .LVU3
	bx	lr
	.cfi_endproc
.LFE623:
	.size	thread_active_elsewhere, .-thread_active_elsewhere
	.section	.text.pended_on_thread,"ax",%progbits
	.align	1
	.syntax unified
	.thumb
	.thumb_func
	.fpu fpv4-sp-d16
	.type	pended_on_thread, %function
pended_on_thread:
.LVL2:
.LFB630:
	.loc 1 642 1 is_stmt 1 view -0
	.cfi_startproc
	@ args = 0, pretend = 0, frame = 0
	@ frame_needed = 0, uses_anonymous_args = 0
	@ link register save eliminated.
	.loc 1 643 4 view .LVU5
	.loc 1 643 5 view .LVU6
	.loc 1 645 2 view .LVU7
	.loc 1 646 1 is_stmt 0 view .LVU8
	ldr	r0, [r0, #8]
.LVL3:
	.loc 1 646 1 view .LVU9
	bx	lr
	.cfi_endproc
.LFE630:
	.size	pended_on_thread, .-pended_on_thread
	.section	.text.add_thread_timeout,"ax",%progbits
	.align	1
	.syntax unified
	.thumb
	.thumb_func
	.fpu fpv4-sp-d16
	.type	add_thread_timeout, %function
add_thread_timeout:
.LVL4:
.LFB633:
	.loc 1 671 1 is_stmt 1 view -0
	.cfi_startproc
	@ args = 0, pretend = 0, frame = 0
	@ frame_needed = 0, uses_anonymous_args = 0
	.loc 1 671 1 is_stmt 0 view .LVU11
	push	{r3, r4, r5, lr}
	.cfi_def_cfa_offset 16
	.cfi_offset 3, -16
	.cfi_offset 4, -12
	.cfi_offset 5, -8
	.cfi_offset 14, -4
	.loc 1 672 2 is_stmt 1 view .LVU12
.LBB911:
	.loc 1 672 5 is_stmt 0 view .LVU13
	cmp	r3, #-1
	it	eq
	cmpeq	r2, #-1
	bne	.L6
.LVL5:
.L3:
	.loc 1 672 5 view .LVU14
.LBE911:
	.loc 1 675 1 view .LVU15
	pop	{r3, r4, r5, pc}
.LVL6:
.L6:
.LBB914:
	.loc 1 673 3 is_stmt 1 view .LVU16
.LBB912:
.LBI912:
	.file 2 "/home/sebin/thesis/zephyrproject/zephyr/include/timeout_q.h"
	.loc 2 47 20 view .LVU17
.LBB913:
	.loc 2 49 2 view .LVU18
	ldr	r1, .L7
	adds	r0, r0, #24
.LVL7:
	.loc 2 49 2 is_stmt 0 view .LVU19
	bl	z_add_timeout
.LVL8:
	.loc 2 49 2 view .LVU20
.LBE913:
.LBE912:
.LBE914:
	.loc 1 675 1 view .LVU21
	b	.L3
.L8:
	.align	2
.L7:
	.word	z_thread_timeout
	.cfi_endproc
.LFE633:
	.size	add_thread_timeout, .-add_thread_timeout
	.section	.text.z_sched_prio_cmp,"ax",%progbits
	.align	1
	.global	z_sched_prio_cmp
	.syntax unified
	.thumb
	.thumb_func
	.fpu fpv4-sp-d16
	.type	z_sched_prio_cmp, %function
z_sched_prio_cmp:
.LVL9:
.LFB604:
	.loc 1 95 1 is_stmt 1 view -0
	.cfi_startproc
	@ args = 0, pretend = 0, frame = 0
	@ frame_needed = 0, uses_anonymous_args = 0
	@ link register save eliminated.
	.loc 1 97 2 view .LVU23
	.loc 1 97 29 is_stmt 0 view .LVU24
	ldrsb	r3, [r0, #14]
.LVL10:
	.loc 1 98 2 is_stmt 1 view .LVU25
	.loc 1 98 29 is_stmt 0 view .LVU26
	ldrsb	r0, [r1, #14]
.LVL11:
	.loc 1 100 2 is_stmt 1 view .LVU27
	.loc 1 100 5 is_stmt 0 view .LVU28
	cmp	r3, r0
	beq	.L11
	.loc 1 101 3 is_stmt 1 view .LVU29
	.loc 1 101 13 is_stmt 0 view .LVU30
	subs	r0, r0, r3
.LVL12:
	.loc 1 101 13 view .LVU31
	bx	lr
.LVL13:
.L11:
	.loc 1 124 9 view .LVU32
	movs	r0, #0
.LVL14:
	.loc 1 125 1 view .LVU33
	bx	lr
	.cfi_endproc
.LFE604:
	.size	z_sched_prio_cmp, .-z_sched_prio_cmp
	.section	.text.z_reset_time_slice,"ax",%progbits
	.align	1
	.global	z_reset_time_slice
	.syntax unified
	.thumb
	.thumb_func
	.fpu fpv4-sp-d16
	.type	z_reset_time_slice, %function
z_reset_time_slice:
.LFB617:
	.loc 1 397 1 is_stmt 1 view -0
	.cfi_startproc
	@ args = 0, pretend = 0, frame = 0
	@ frame_needed = 0, uses_anonymous_args = 0
	push	{r3, lr}
	.cfi_def_cfa_offset 8
	.cfi_offset 3, -8
	.cfi_offset 14, -4
	.loc 1 402 2 view .LVU35
	.loc 1 402 17 is_stmt 0 view .LVU36
	ldr	r3, .L16
	ldr	r3, [r3]
	.loc 1 402 5 view .LVU37
	cbnz	r3, .L15
.L12:
	.loc 1 406 1 view .LVU38
	pop	{r3, pc}
.L15:
	.loc 1 403 3 is_stmt 1 view .LVU39
	.loc 1 403 50 is_stmt 0 view .LVU40
	bl	sys_clock_elapsed
.LVL15:
	mov	r3, r0
	.loc 1 403 48 view .LVU41
	ldr	r2, .L16
	ldr	r0, [r2]
	add	r3, r3, r0
	.loc 1 403 35 view .LVU42
	ldr	r2, .L16+4
	str	r3, [r2, #16]
	.loc 1 404 3 is_stmt 1 view .LVU43
	movs	r1, #0
	bl	z_set_timeout_expiry
.LVL16:
	.loc 1 406 1 is_stmt 0 view .LVU44
	b	.L12
.L17:
	.align	2
.L16:
	.word	.LANCHOR0
	.word	_kernel
	.cfi_endproc
.LFE617:
	.size	z_reset_time_slice, .-z_reset_time_slice
	.section	.text.k_sched_time_slice_set,"ax",%progbits
	.align	1
	.global	k_sched_time_slice_set
	.syntax unified
	.thumb
	.thumb_func
	.fpu fpv4-sp-d16
	.type	k_sched_time_slice_set, %function
k_sched_time_slice_set:
.LVL17:
.LFB618:
	.loc 1 409 1 is_stmt 1 view -0
	.cfi_startproc
	@ args = 0, pretend = 0, frame = 0
	@ frame_needed = 0, uses_anonymous_args = 0
	.loc 1 409 1 is_stmt 0 view .LVU46
	push	{r4, r5, r6, lr}
	.cfi_def_cfa_offset 16
	.cfi_offset 4, -16
	.cfi_offset 5, -12
	.cfi_offset 6, -8
	.cfi_offset 14, -4
	mov	r4, r0
	mov	r6, r1
	.loc 1 410 2 is_stmt 1 view .LVU47
.LBB915:
	.loc 1 410 7 view .LVU48
	.loc 1 410 24 is_stmt 0 view .LVU49
	movs	r3, #0
.LVL18:
.LBB916:
.LBI916:
	.file 3 "/home/sebin/thesis/zephyrproject/zephyr/include/spinlock.h"
	.loc 3 130 63 is_stmt 1 view .LVU50
.LBB917:
	.loc 3 132 2 view .LVU51
	.loc 3 133 2 view .LVU52
	.loc 3 139 2 view .LVU53
.LBB918:
.LBI918:
	.file 4 "/home/sebin/thesis/zephyrproject/zephyr/include/arch/arm/aarch32/asm_inline_gcc.h"
	.loc 4 43 59 view .LVU54
.LBB919:
	.loc 4 45 2 view .LVU55
	.loc 4 54 2 view .LVU56
	.loc 4 56 2 view .LVU57
	.syntax unified
@ 56 "/home/sebin/thesis/zephyrproject/zephyr/include/arch/arm/aarch32/asm_inline_gcc.h" 1
	mov r2, #4;mrs r5, BASEPRI;msr BASEPRI_MAX, r2;isb;
@ 0 "" 2
.LVL19:
	.loc 4 76 2 view .LVU58
	.loc 4 76 2 is_stmt 0 view .LVU59
	.thumb
	.syntax unified
.LBE919:
.LBE918:
	.loc 3 156 2 is_stmt 1 view .LVU60
	.loc 3 156 9 is_stmt 0 view .LVU61
	b	.L19
.LVL20:
.L20:
	.loc 3 156 9 view .LVU62
.LBE917:
.LBE916:
	.loc 1 419 3 is_stmt 1 discriminator 2 view .LVU63
	.loc 1 419 18 is_stmt 0 discriminator 2 view .LVU64
	ldr	r3, .L24
	str	r6, [r3]
	.loc 1 420 3 is_stmt 1 discriminator 2 view .LVU65
	bl	z_reset_time_slice
.LVL21:
	.loc 1 410 82 discriminator 2 view .LVU66
.LBB920:
.LBI920:
	.loc 3 180 51 discriminator 2 view .LVU67
.LBB921:
	.loc 3 183 2 discriminator 2 view .LVU68
	.loc 3 198 2 discriminator 2 view .LVU69
.LBB922:
.LBI922:
	.loc 4 84 51 discriminator 2 view .LVU70
.LBB923:
	.loc 4 95 2 discriminator 2 view .LVU71
	.syntax unified
@ 95 "/home/sebin/thesis/zephyrproject/zephyr/include/arch/arm/aarch32/asm_inline_gcc.h" 1
	msr BASEPRI, r5;isb;
@ 0 "" 2
.LVL22:
	.loc 4 95 2 is_stmt 0 discriminator 2 view .LVU72
	.thumb
	.syntax unified
.LBE923:
.LBE922:
.LBE921:
.LBE920:
	.loc 1 410 129 discriminator 2 view .LVU73
	movs	r3, #1
.L19:
	.loc 1 410 72 is_stmt 1 discriminator 1 view .LVU74
.LVL23:
	.loc 1 410 2 is_stmt 0 discriminator 1 view .LVU75
	cbnz	r3, .L23
	.loc 1 411 3 is_stmt 1 view .LVU76
	.loc 1 411 35 is_stmt 0 view .LVU77
	ldr	r3, .L24+4
.LVL24:
	.loc 1 411 35 view .LVU78
	movs	r2, #0
	str	r2, [r3, #16]
	.loc 1 412 3 is_stmt 1 view .LVU79
.LVL25:
.LBB924:
.LBI924:
	.file 5 "/home/sebin/thesis/zephyrproject/zephyr/include/sys/time_units.h"
	.loc 5 388 24 view .LVU80
.LBE924:
.LBE915:
	.loc 5 391 2 view .LVU81
.LBB928:
.LBB927:
.LBB925:
.LBI925:
	.loc 5 101 55 view .LVU82
.LBB926:
	.loc 5 106 1 view .LVU83
	.loc 5 108 1 view .LVU84
	.loc 5 111 2 view .LVU85
	.loc 5 115 2 view .LVU86
	.loc 5 117 2 view .LVU87
	.loc 5 133 2 view .LVU88
	.loc 5 140 9 view .LVU89
	.loc 5 141 3 view .LVU90
	.loc 5 142 4 view .LVU91
	.loc 5 142 25 is_stmt 0 view .LVU92
	add	r3, r4, r4, lsl #2
	lsls	r3, r3, #1
.LVL26:
	.loc 5 142 25 view .LVU93
.LBE926:
.LBE925:
.LBE927:
	.loc 1 412 14 view .LVU94
	ldr	r2, .L24+8
	str	r3, [r2]
	.loc 1 413 3 is_stmt 1 view .LVU95
	.loc 1 413 6 is_stmt 0 view .LVU96
	cmp	r4, #0
	ble	.L20
	.loc 1 417 4 is_stmt 1 view .LVU97
	.loc 1 417 45 is_stmt 0 view .LVU98
	cmp	r3, #2
	it	lt
	movlt	r3, #2
	.loc 1 417 15 view .LVU99
	str	r3, [r2]
	b	.L20
.LVL27:
.L23:
	.loc 1 417 15 view .LVU100
.LBE928:
	.loc 1 422 1 view .LVU101
	pop	{r4, r5, r6, pc}
.LVL28:
.L25:
	.loc 1 422 1 view .LVU102
	.align	2
.L24:
	.word	.LANCHOR1
	.word	_kernel
	.word	.LANCHOR0
	.cfi_endproc
.LFE618:
	.size	k_sched_time_slice_set, .-k_sched_time_slice_set
	.section	.text.z_unpend_thread_no_timeout,"ax",%progbits
	.align	1
	.global	z_unpend_thread_no_timeout
	.syntax unified
	.thumb
	.thumb_func
	.fpu fpv4-sp-d16
	.type	z_unpend_thread_no_timeout, %function
z_unpend_thread_no_timeout:
.LVL29:
.LFB637:
	.loc 1 706 1 is_stmt 1 view -0
	.cfi_startproc
	@ args = 0, pretend = 0, frame = 0
	@ frame_needed = 0, uses_anonymous_args = 0
	.loc 1 706 1 is_stmt 0 view .LVU104
	push	{r3, r4, r5, lr}
	.cfi_def_cfa_offset 16
	.cfi_offset 3, -16
	.cfi_offset 4, -12
	.cfi_offset 5, -8
	.cfi_offset 14, -4
	mov	r4, r0
	.loc 1 707 2 is_stmt 1 view .LVU105
.LBB942:
	.loc 1 707 7 view .LVU106
	.loc 1 707 24 is_stmt 0 view .LVU107
	movs	r3, #0
.LVL30:
.LBB943:
.LBI943:
	.loc 3 130 63 is_stmt 1 view .LVU108
.LBB944:
	.loc 3 132 2 view .LVU109
	.loc 3 133 2 view .LVU110
	.loc 3 139 2 view .LVU111
.LBB945:
.LBI945:
	.loc 4 43 59 view .LVU112
.LBB946:
	.loc 4 45 2 view .LVU113
	.loc 4 54 2 view .LVU114
	.loc 4 56 2 view .LVU115
	.syntax unified
@ 56 "/home/sebin/thesis/zephyrproject/zephyr/include/arch/arm/aarch32/asm_inline_gcc.h" 1
	mov r2, #4;mrs r5, BASEPRI;msr BASEPRI_MAX, r2;isb;
@ 0 "" 2
.LVL31:
	.loc 4 76 2 view .LVU116
	.loc 4 76 2 is_stmt 0 view .LVU117
	.thumb
	.syntax unified
.LBE946:
.LBE945:
	.loc 3 156 2 is_stmt 1 view .LVU118
.L27:
	.loc 3 156 2 is_stmt 0 view .LVU119
.LBE944:
.LBE943:
	.loc 1 707 72 is_stmt 1 discriminator 1 view .LVU120
	.loc 1 707 2 is_stmt 0 discriminator 1 view .LVU121
	cbnz	r3, .L30
	.loc 1 708 3 is_stmt 1 view .LVU122
.LVL32:
.LBB947:
.LBI947:
	.loc 1 698 20 view .LVU123
.LBB948:
	.loc 1 700 2 view .LVU124
	.loc 1 700 22 is_stmt 0 view .LVU125
	mov	r0, r4
	bl	pended_on_thread
.LVL33:
	.loc 1 700 2 view .LVU126
	mov	r1, r4
	bl	z_priq_dumb_remove
.LVL34:
	.loc 1 701 2 is_stmt 1 view .LVU127
.LBB949:
.LBI949:
	.file 6 "/home/sebin/thesis/zephyrproject/zephyr/kernel/include/ksched.h"
	.loc 6 165 20 view .LVU128
.LBB950:
	.loc 6 167 2 view .LVU129
	.loc 6 167 28 is_stmt 0 view .LVU130
	ldrb	r3, [r4, #13]	@ zero_extendqisi2
	bic	r3, r3, #2
	strb	r3, [r4, #13]
.LVL35:
	.loc 6 167 28 view .LVU131
.LBE950:
.LBE949:
	.loc 1 702 2 is_stmt 1 view .LVU132
	.loc 1 702 25 is_stmt 0 view .LVU133
	movs	r3, #0
	str	r3, [r4, #8]
.LVL36:
	.loc 1 702 25 view .LVU134
.LBE948:
.LBE947:
	.loc 1 707 82 is_stmt 1 view .LVU135
.LBB951:
.LBI951:
	.loc 3 180 51 view .LVU136
.LBB952:
	.loc 3 183 2 view .LVU137
	.loc 3 198 2 view .LVU138
.LBB953:
.LBI953:
	.loc 4 84 51 view .LVU139
.LBB954:
	.loc 4 95 2 view .LVU140
	.syntax unified
@ 95 "/home/sebin/thesis/zephyrproject/zephyr/include/arch/arm/aarch32/asm_inline_gcc.h" 1
	msr BASEPRI, r5;isb;
@ 0 "" 2
.LVL37:
	.loc 4 95 2 is_stmt 0 view .LVU141
	.thumb
	.syntax unified
.LBE954:
.LBE953:
.LBE952:
.LBE951:
	.loc 1 707 129 view .LVU142
	movs	r3, #1
	.loc 1 707 129 view .LVU143
	b	.L27
.LVL38:
.L30:
	.loc 1 707 129 view .LVU144
.LBE942:
	.loc 1 710 1 view .LVU145
	pop	{r3, r4, r5, pc}
	.loc 1 710 1 view .LVU146
	.cfi_endproc
.LFE637:
	.size	z_unpend_thread_no_timeout, .-z_unpend_thread_no_timeout
	.section	.text.z_reschedule,"ax",%progbits
	.align	1
	.global	z_reschedule
	.syntax unified
	.thumb
	.thumb_func
	.fpu fpv4-sp-d16
	.type	z_reschedule, %function
z_reschedule:
.LVL39:
.LFB648:
	.loc 1 872 1 is_stmt 1 view -0
	.cfi_startproc
	@ args = 0, pretend = 0, frame = 0
	@ frame_needed = 0, uses_anonymous_args = 0
	.loc 1 872 1 is_stmt 0 view .LVU148
	push	{r3, lr}
	.cfi_def_cfa_offset 8
	.cfi_offset 3, -8
	.cfi_offset 14, -4
	.loc 1 873 2 is_stmt 1 view .LVU149
	.loc 1 873 6 is_stmt 0 view .LVU150
	mov	r0, r1
.LVL40:
.LBB955:
.LBI955:
	.loc 1 844 19 is_stmt 1 view .LVU151
.LBB956:
	.loc 1 850 2 view .LVU152
	.loc 1 850 2 is_stmt 0 view .LVU153
.LBE956:
.LBE955:
	.loc 4 114 2 is_stmt 1 view .LVU154
.LBB963:
.LBB961:
	.loc 1 850 32 is_stmt 0 view .LVU155
	cbnz	r1, .L35
.LBB957:
.LBI957:
	.file 7 "/home/sebin/thesis/zephyrproject/zephyr/arch/arm/include/aarch32/cortex_m/exc.h"
	.loc 7 46 26 is_stmt 1 view .LVU156
.LBE957:
.LBE961:
.LBE963:
	.loc 7 48 2 view .LVU157
.LBB964:
.LBB962:
.LBB960:
.LBB958:
.LBI958:
	.file 8 "/home/sebin/thesis/zephyrproject/modules/hal/cmsis/CMSIS/Core/Include/cmsis_gcc.h"
	.loc 8 1027 55 view .LVU158
.LBB959:
	.loc 8 1029 3 view .LVU159
	.loc 8 1031 3 view .LVU160
	.syntax unified
@ 1031 "/home/sebin/thesis/zephyrproject/modules/hal/cmsis/CMSIS/Core/Include/cmsis_gcc.h" 1
	MRS r3, ipsr
@ 0 "" 2
.LVL41:
	.loc 8 1032 3 view .LVU161
	.loc 8 1032 3 is_stmt 0 view .LVU162
	.thumb
	.syntax unified
.LBE959:
.LBE958:
.LBE960:
	.loc 1 850 32 view .LVU163
	cbnz	r3, .L32
	movs	r1, #1
	b	.L32
.L35:
	.loc 1 850 32 view .LVU164
	movs	r1, #0
.L32:
.LVL42:
	.loc 1 850 32 view .LVU165
.LBE962:
.LBE964:
	.loc 1 873 5 view .LVU166
	tst	r1, #1
	beq	.L33
.LBB965:
.LBI965:
	.loc 1 857 19 is_stmt 1 view .LVU167
.LBB966:
	.loc 1 863 2 view .LVU168
	.loc 1 866 2 view .LVU169
	.loc 1 866 13 is_stmt 0 view .LVU170
	ldr	r3, .L37
	ldr	r2, [r3, #24]
.LVL43:
	.loc 1 867 2 is_stmt 1 view .LVU171
	.loc 1 867 38 is_stmt 0 view .LVU172
	ldr	r3, [r3, #8]
.LVL44:
	.loc 1 867 38 view .LVU173
.LBE966:
.LBE965:
	.loc 1 873 23 view .LVU174
	cmp	r2, r3
	beq	.L33
	.loc 1 874 3 is_stmt 1 view .LVU175
.LVL45:
.LBB967:
.LBI967:
	.file 9 "/home/sebin/thesis/zephyrproject/zephyr/kernel/include/kswap.h"
	.loc 9 192 50 view .LVU176
.LBE967:
	.loc 9 194 2 view .LVU177
	.loc 3 206 2 view .LVU178
	.loc 9 195 2 view .LVU179
.LBB970:
.LBB968:
.LBI968:
	.loc 9 180 19 view .LVU180
.LBB969:
	.loc 9 182 2 view .LVU181
	.loc 9 183 2 view .LVU182
	.loc 9 184 2 view .LVU183
	.loc 9 184 8 is_stmt 0 view .LVU184
	bl	arch_swap
.LVL46:
	.loc 9 185 2 is_stmt 1 view .LVU185
	.loc 9 185 2 is_stmt 0 view .LVU186
.LBE969:
.LBE968:
.LBE970:
	.loc 1 874 3 view .LVU187
	b	.L31
.L33:
	.loc 1 876 3 is_stmt 1 view .LVU188
.LVL47:
.LBB971:
.LBI971:
	.loc 3 180 51 view .LVU189
.LBE971:
	.loc 3 183 2 view .LVU190
	.loc 3 198 2 view .LVU191
.LBB974:
.LBB972:
.LBI972:
	.loc 4 84 51 view .LVU192
.LBB973:
	.loc 4 95 2 view .LVU193
	.syntax unified
@ 95 "/home/sebin/thesis/zephyrproject/zephyr/include/arch/arm/aarch32/asm_inline_gcc.h" 1
	msr BASEPRI, r0;isb;
@ 0 "" 2
.LVL48:
	.thumb
	.syntax unified
.L31:
	.loc 4 95 2 is_stmt 0 view .LVU194
.LBE973:
.LBE972:
.LBE974:
	.loc 1 878 1 view .LVU195
	pop	{r3, pc}
.L38:
	.align	2
.L37:
	.word	_kernel
	.cfi_endproc
.LFE648:
	.size	z_reschedule, .-z_reschedule
	.section	.text.z_reschedule_irqlock,"ax",%progbits
	.align	1
	.global	z_reschedule_irqlock
	.syntax unified
	.thumb
	.thumb_func
	.fpu fpv4-sp-d16
	.type	z_reschedule_irqlock, %function
z_reschedule_irqlock:
.LVL49:
.LFB649:
	.loc 1 881 1 is_stmt 1 view -0
	.cfi_startproc
	@ args = 0, pretend = 0, frame = 0
	@ frame_needed = 0, uses_anonymous_args = 0
	.loc 1 881 1 is_stmt 0 view .LVU197
	push	{r3, lr}
	.cfi_def_cfa_offset 8
	.cfi_offset 3, -8
	.cfi_offset 14, -4
	.loc 1 882 2 is_stmt 1 view .LVU198
.LVL50:
.LBB975:
.LBI975:
	.loc 1 844 19 view .LVU199
.LBB976:
	.loc 1 850 2 view .LVU200
	.loc 1 850 2 is_stmt 0 view .LVU201
.LBE976:
.LBE975:
	.loc 4 114 2 is_stmt 1 view .LVU202
.LBB984:
.LBB981:
	.loc 1 850 32 is_stmt 0 view .LVU203
	mov	r3, r0
	cbnz	r0, .L43
.LBB977:
.LBI977:
	.loc 7 46 26 is_stmt 1 view .LVU204
.LBE977:
.LBE981:
.LBE984:
	.loc 7 48 2 view .LVU205
.LBB985:
.LBB982:
.LBB980:
.LBB978:
.LBI978:
	.loc 8 1027 55 view .LVU206
.LBB979:
	.loc 8 1029 3 view .LVU207
	.loc 8 1031 3 view .LVU208
	.syntax unified
@ 1031 "/home/sebin/thesis/zephyrproject/modules/hal/cmsis/CMSIS/Core/Include/cmsis_gcc.h" 1
	MRS r2, ipsr
@ 0 "" 2
.LVL51:
	.loc 8 1032 3 view .LVU209
	.loc 8 1032 3 is_stmt 0 view .LVU210
	.thumb
	.syntax unified
.LBE979:
.LBE978:
.LBE980:
	.loc 1 850 32 view .LVU211
	cbnz	r2, .L44
	movs	r2, #1
	b	.L40
.L43:
	movs	r2, #0
.L40:
.LVL52:
	.loc 1 850 32 view .LVU212
.LBE982:
.LBE985:
	.loc 1 882 5 view .LVU213
	cbnz	r2, .L46
	.loc 1 885 3 is_stmt 1 view .LVU214
.LVL53:
.LBB986:
.LBI986:
	.loc 4 84 51 view .LVU215
.LBB987:
	.loc 4 95 2 view .LVU216
	.syntax unified
@ 95 "/home/sebin/thesis/zephyrproject/zephyr/include/arch/arm/aarch32/asm_inline_gcc.h" 1
	msr BASEPRI, r3;isb;
@ 0 "" 2
.LVL54:
	.thumb
	.syntax unified
.L39:
	.loc 4 95 2 is_stmt 0 view .LVU217
.LBE987:
.LBE986:
	.loc 1 887 1 view .LVU218
	pop	{r3, pc}
.LVL55:
.L44:
.LBB988:
.LBB983:
	.loc 1 850 32 view .LVU219
	movs	r2, #0
	b	.L40
.LVL56:
.L46:
	.loc 1 850 32 view .LVU220
.LBE983:
.LBE988:
	.loc 1 883 3 is_stmt 1 view .LVU221
.LBB989:
.LBI989:
	.loc 9 180 19 view .LVU222
.LBB990:
	.loc 9 182 2 view .LVU223
	.loc 9 183 2 view .LVU224
	.loc 9 184 2 view .LVU225
	.loc 9 184 8 is_stmt 0 view .LVU226
	mov	r0, r3
.LVL57:
	.loc 9 184 8 view .LVU227
	bl	arch_swap
.LVL58:
	.loc 9 185 2 is_stmt 1 view .LVU228
	.loc 9 185 9 is_stmt 0 view .LVU229
	b	.L39
.LBE990:
.LBE989:
	.cfi_endproc
.LFE649:
	.size	z_reschedule_irqlock, .-z_reschedule_irqlock
	.section	.text.k_sched_lock,"ax",%progbits
	.align	1
	.global	k_sched_lock
	.syntax unified
	.thumb
	.thumb_func
	.fpu fpv4-sp-d16
	.type	k_sched_lock, %function
k_sched_lock:
.LFB650:
	.loc 1 890 1 is_stmt 1 view -0
	.cfi_startproc
	@ args = 0, pretend = 0, frame = 0
	@ frame_needed = 0, uses_anonymous_args = 0
	@ link register save eliminated.
	.loc 1 891 2 view .LVU231
.LBB991:
	.loc 1 891 7 view .LVU232
	.loc 1 891 24 is_stmt 0 view .LVU233
	movs	r3, #0
.LVL59:
.LBB992:
.LBI992:
	.loc 3 130 63 is_stmt 1 view .LVU234
.LBB993:
	.loc 3 132 2 view .LVU235
	.loc 3 133 2 view .LVU236
	.loc 3 139 2 view .LVU237
.LBB994:
.LBI994:
	.loc 4 43 59 view .LVU238
.LBB995:
	.loc 4 45 2 view .LVU239
	.loc 4 54 2 view .LVU240
	.loc 4 56 2 view .LVU241
	.syntax unified
@ 56 "/home/sebin/thesis/zephyrproject/zephyr/include/arch/arm/aarch32/asm_inline_gcc.h" 1
	mov r2, #4;mrs r1, BASEPRI;msr BASEPRI_MAX, r2;isb;
@ 0 "" 2
.LVL60:
	.loc 4 76 2 view .LVU242
	.loc 4 76 2 is_stmt 0 view .LVU243
	.thumb
	.syntax unified
.LBE995:
.LBE994:
	.loc 3 156 2 is_stmt 1 view .LVU244
.L48:
	.loc 3 156 2 is_stmt 0 view .LVU245
.LBE993:
.LBE992:
	.loc 1 891 72 is_stmt 1 discriminator 1 view .LVU246
	.loc 1 891 2 is_stmt 0 discriminator 1 view .LVU247
	cbnz	r3, .L50
	.loc 1 892 3 is_stmt 1 view .LVU248
	.loc 1 892 8 view .LVU249
	.loc 1 892 16 view .LVU250
	.loc 1 894 3 view .LVU251
.LBB996:
.LBI996:
	.loc 6 251 20 view .LVU252
.LBB997:
	.loc 6 253 4 view .LVU253
	.loc 6 253 5 view .LVU254
	.loc 6 254 4 view .LVU255
	.loc 6 254 5 view .LVU256
	.loc 6 256 2 view .LVU257
	.loc 6 256 19 is_stmt 0 view .LVU258
	ldr	r3, .L51
.LVL61:
	.loc 6 256 19 view .LVU259
	ldr	r2, [r3, #8]
	.loc 6 256 33 view .LVU260
	ldrb	r3, [r2, #15]	@ zero_extendqisi2
	.loc 6 256 2 view .LVU261
	subs	r3, r3, #1
	strb	r3, [r2, #15]
	.loc 6 258 2 is_stmt 1 view .LVU262
	.loc 6 258 7 view .LVU263
	.loc 6 258 55 view .LVU264
.LBE997:
.LBE996:
	.loc 1 891 82 view .LVU265
.LVL62:
.LBB998:
.LBI998:
	.loc 3 180 51 view .LVU266
.LBB999:
	.loc 3 183 2 view .LVU267
	.loc 3 198 2 view .LVU268
.LBB1000:
.LBI1000:
	.loc 4 84 51 view .LVU269
.LBB1001:
	.loc 4 95 2 view .LVU270
	.syntax unified
@ 95 "/home/sebin/thesis/zephyrproject/zephyr/include/arch/arm/aarch32/asm_inline_gcc.h" 1
	msr BASEPRI, r1;isb;
@ 0 "" 2
.LVL63:
	.loc 4 95 2 is_stmt 0 view .LVU271
	.thumb
	.syntax unified
.LBE1001:
.LBE1000:
.LBE999:
.LBE998:
	.loc 1 891 129 view .LVU272
	movs	r3, #1
	.loc 1 891 129 view .LVU273
	b	.L48
.LVL64:
.L50:
	.loc 1 891 129 view .LVU274
.LBE991:
	.loc 1 896 1 view .LVU275
	bx	lr
.L52:
	.align	2
.L51:
	.word	_kernel
	.cfi_endproc
.LFE650:
	.size	k_sched_lock, .-k_sched_lock
	.section	.text.z_swap_next_thread,"ax",%progbits
	.align	1
	.global	z_swap_next_thread
	.syntax unified
	.thumb
	.thumb_func
	.fpu fpv4-sp-d16
	.type	z_swap_next_thread, %function
z_swap_next_thread:
.LFB652:
	.loc 1 917 1 is_stmt 1 view -0
	.cfi_startproc
	@ args = 0, pretend = 0, frame = 0
	@ frame_needed = 0, uses_anonymous_args = 0
	@ link register save eliminated.
	.loc 1 921 2 view .LVU277
	.loc 1 923 1 is_stmt 0 view .LVU278
	ldr	r3, .L54
	ldr	r0, [r3, #24]
	bx	lr
.L55:
	.align	2
.L54:
	.word	_kernel
	.cfi_endproc
.LFE652:
	.size	z_swap_next_thread, .-z_swap_next_thread
	.section	.text.z_priq_dumb_remove,"ax",%progbits
	.align	1
	.global	z_priq_dumb_remove
	.syntax unified
	.thumb
	.thumb_func
	.fpu fpv4-sp-d16
	.type	z_priq_dumb_remove, %function
z_priq_dumb_remove:
.LVL65:
.LFB653:
	.loc 1 998 1 is_stmt 1 view -0
	.cfi_startproc
	@ args = 0, pretend = 0, frame = 0
	@ frame_needed = 0, uses_anonymous_args = 0
	@ link register save eliminated.
	.loc 1 999 4 view .LVU280
	.loc 1 999 5 view .LVU281
	.loc 1 1001 2 view .LVU282
.LBB1002:
.LBI1002:
	.file 10 "/home/sebin/thesis/zephyrproject/zephyr/include/sys/dlist.h"
	.loc 10 496 20 view .LVU283
.LBB1003:
	.loc 10 498 2 view .LVU284
	.loc 10 498 21 is_stmt 0 view .LVU285
	ldr	r2, [r1, #4]
.LVL66:
	.loc 10 499 2 is_stmt 1 view .LVU286
	.loc 10 499 21 is_stmt 0 view .LVU287
	ldr	r3, [r1]
.LVL67:
	.loc 10 501 2 is_stmt 1 view .LVU288
	.loc 10 501 13 is_stmt 0 view .LVU289
	str	r3, [r2]
	.loc 10 502 2 is_stmt 1 view .LVU290
	.loc 10 502 13 is_stmt 0 view .LVU291
	str	r2, [r3, #4]
	.loc 10 503 2 is_stmt 1 view .LVU292
.LVL68:
.LBB1004:
.LBI1004:
	.loc 10 211 20 view .LVU293
.LBB1005:
	.loc 10 213 2 view .LVU294
	.loc 10 213 13 is_stmt 0 view .LVU295
	movs	r3, #0
.LVL69:
	.loc 10 213 13 view .LVU296
	str	r3, [r1]
	.loc 10 214 2 is_stmt 1 view .LVU297
	.loc 10 214 13 is_stmt 0 view .LVU298
	str	r3, [r1, #4]
.LVL70:
	.loc 10 214 13 view .LVU299
.LBE1005:
.LBE1004:
.LBE1003:
.LBE1002:
	.loc 1 1002 1 view .LVU300
	bx	lr
	.cfi_endproc
.LFE653:
	.size	z_priq_dumb_remove, .-z_priq_dumb_remove
	.section	.text.z_unpend_thread,"ax",%progbits
	.align	1
	.global	z_unpend_thread
	.syntax unified
	.thumb
	.thumb_func
	.fpu fpv4-sp-d16
	.type	z_unpend_thread, %function
z_unpend_thread:
.LVL71:
.LFB643:
	.loc 1 796 1 is_stmt 1 view -0
	.cfi_startproc
	@ args = 0, pretend = 0, frame = 0
	@ frame_needed = 0, uses_anonymous_args = 0
	.loc 1 796 1 is_stmt 0 view .LVU302
	push	{r3, r4, r5, lr}
	.cfi_def_cfa_offset 16
	.cfi_offset 3, -16
	.cfi_offset 4, -12
	.cfi_offset 5, -8
	.cfi_offset 14, -4
	mov	r4, r0
	.loc 1 797 2 is_stmt 1 view .LVU303
.LVL72:
.LBB1022:
.LBI1022:
	.loc 1 705 44 view .LVU304
.LBE1022:
	.loc 1 707 2 view .LVU305
.LBB1036:
.LBB1023:
	.loc 1 707 7 view .LVU306
	.loc 1 707 24 is_stmt 0 view .LVU307
	movs	r3, #0
.LVL73:
.LBB1024:
.LBI1024:
	.loc 3 130 63 is_stmt 1 view .LVU308
.LBB1025:
	.loc 3 132 2 view .LVU309
	.loc 3 133 2 view .LVU310
	.loc 3 139 2 view .LVU311
.LBB1026:
.LBI1026:
	.loc 4 43 59 view .LVU312
.LBB1027:
	.loc 4 45 2 view .LVU313
	.loc 4 54 2 view .LVU314
	.loc 4 56 2 view .LVU315
	.syntax unified
@ 56 "/home/sebin/thesis/zephyrproject/zephyr/include/arch/arm/aarch32/asm_inline_gcc.h" 1
	mov r2, #4;mrs r5, BASEPRI;msr BASEPRI_MAX, r2;isb;
@ 0 "" 2
.LVL74:
	.loc 4 76 2 view .LVU316
	.loc 4 76 2 is_stmt 0 view .LVU317
	.thumb
	.syntax unified
.LBE1027:
.LBE1026:
	.loc 3 156 2 is_stmt 1 view .LVU318
.L58:
	.loc 3 156 2 is_stmt 0 view .LVU319
.LBE1025:
.LBE1024:
	.loc 1 707 72 is_stmt 1 view .LVU320
	.loc 1 707 2 is_stmt 0 view .LVU321
	cbnz	r3, .L61
	.loc 1 708 3 is_stmt 1 view .LVU322
.LVL75:
.LBB1028:
.LBI1028:
	.loc 1 698 20 view .LVU323
.LBB1029:
	.loc 1 700 2 view .LVU324
	.loc 1 700 22 is_stmt 0 view .LVU325
	mov	r0, r4
	bl	pended_on_thread
.LVL76:
	.loc 1 700 2 view .LVU326
	mov	r1, r4
	bl	z_priq_dumb_remove
.LVL77:
	.loc 1 701 2 is_stmt 1 view .LVU327
.LBB1030:
.LBI1030:
	.loc 6 165 20 view .LVU328
.LBB1031:
	.loc 6 167 2 view .LVU329
	.loc 6 167 28 is_stmt 0 view .LVU330
	ldrb	r3, [r4, #13]	@ zero_extendqisi2
	bic	r3, r3, #2
	strb	r3, [r4, #13]
.LVL78:
	.loc 6 167 28 view .LVU331
.LBE1031:
.LBE1030:
	.loc 1 702 2 is_stmt 1 view .LVU332
	.loc 1 702 25 is_stmt 0 view .LVU333
	movs	r3, #0
	str	r3, [r4, #8]
.LVL79:
	.loc 1 702 25 view .LVU334
.LBE1029:
.LBE1028:
	.loc 1 707 82 is_stmt 1 view .LVU335
.LBB1032:
.LBI1032:
	.loc 3 180 51 view .LVU336
.LBB1033:
	.loc 3 183 2 view .LVU337
	.loc 3 198 2 view .LVU338
.LBB1034:
.LBI1034:
	.loc 4 84 51 view .LVU339
.LBB1035:
	.loc 4 95 2 view .LVU340
	.syntax unified
@ 95 "/home/sebin/thesis/zephyrproject/zephyr/include/arch/arm/aarch32/asm_inline_gcc.h" 1
	msr BASEPRI, r5;isb;
@ 0 "" 2
.LVL80:
	.loc 4 95 2 is_stmt 0 view .LVU341
	.thumb
	.syntax unified
.LBE1035:
.LBE1034:
.LBE1033:
.LBE1032:
	.loc 1 707 129 view .LVU342
	movs	r3, #1
	.loc 1 707 129 view .LVU343
	b	.L58
.LVL81:
.L61:
	.loc 1 707 129 view .LVU344
.LBE1023:
.LBE1036:
	.loc 1 798 2 is_stmt 1 view .LVU345
.LBB1037:
.LBI1037:
	.loc 2 52 19 view .LVU346
.LBB1038:
	.loc 2 54 2 view .LVU347
	.loc 2 54 9 is_stmt 0 view .LVU348
	add	r0, r4, #24
	bl	z_abort_timeout
.LVL82:
	.loc 2 54 9 view .LVU349
.LBE1038:
.LBE1037:
	.loc 1 799 1 view .LVU350
	pop	{r3, r4, r5, pc}
	.loc 1 799 1 view .LVU351
	.cfi_endproc
.LFE643:
	.size	z_unpend_thread, .-z_unpend_thread
	.section	.text.z_priq_dumb_best,"ax",%progbits
	.align	1
	.global	z_priq_dumb_best
	.syntax unified
	.thumb
	.thumb_func
	.fpu fpv4-sp-d16
	.type	z_priq_dumb_best, %function
z_priq_dumb_best:
.LVL83:
.LFB654:
	.loc 1 1005 1 is_stmt 1 view -0
	.cfi_startproc
	@ args = 0, pretend = 0, frame = 0
	@ frame_needed = 0, uses_anonymous_args = 0
	@ link register save eliminated.
	.loc 1 1005 1 is_stmt 0 view .LVU353
	mov	r3, r0
	.loc 1 1006 2 is_stmt 1 view .LVU354
.LVL84:
	.loc 1 1007 2 view .LVU355
.LBB1039:
.LBI1039:
	.loc 10 294 28 view .LVU356
.LBB1040:
	.loc 10 296 2 view .LVU357
.LBB1041:
.LBI1041:
	.loc 10 266 19 view .LVU358
.LBB1042:
	.loc 10 268 2 view .LVU359
	.loc 10 268 13 is_stmt 0 view .LVU360
	ldr	r0, [r0]
.LVL85:
	.loc 10 268 13 view .LVU361
.LBE1042:
.LBE1041:
	.loc 10 296 40 view .LVU362
	cmp	r3, r0
	beq	.L65
.LVL86:
.L62:
	.loc 10 296 40 view .LVU363
.LBE1040:
.LBE1039:
	.loc 1 1013 1 view .LVU364
	bx	lr
.LVL87:
.L65:
	.loc 1 1006 19 view .LVU365
	movs	r0, #0
.LVL88:
	.loc 1 1012 2 is_stmt 1 view .LVU366
	.loc 1 1012 9 is_stmt 0 view .LVU367
	b	.L62
	.cfi_endproc
.LFE654:
	.size	z_priq_dumb_best, .-z_priq_dumb_best
	.section	.text.update_cache,"ax",%progbits
	.align	1
	.syntax unified
	.thumb
	.thumb_func
	.fpu fpv4-sp-d16
	.type	update_cache, %function
update_cache:
.LVL89:
.LFB622:
	.loc 1 486 1 is_stmt 1 view -0
	.cfi_startproc
	@ args = 0, pretend = 0, frame = 0
	@ frame_needed = 0, uses_anonymous_args = 0
	.loc 1 486 1 is_stmt 0 view .LVU369
	push	{r3, r4, r5, lr}
	.cfi_def_cfa_offset 16
	.cfi_offset 3, -16
	.cfi_offset 4, -12
	.cfi_offset 5, -8
	.cfi_offset 14, -4
	mov	r4, r0
	.loc 1 488 2 is_stmt 1 view .LVU370
.LBB1043:
.LBI1043:
	.loc 1 292 63 view .LVU371
.LBB1044:
	.loc 1 294 2 view .LVU372
.LBB1045:
.LBI1045:
	.loc 1 237 63 view .LVU373
.LBB1046:
	.loc 1 239 2 view .LVU374
.LBB1047:
.LBI1047:
	.loc 1 218 52 view .LVU375
.LBE1047:
.LBE1046:
.LBE1045:
.LBE1044:
.LBE1043:
	.loc 1 223 2 view .LVU376
.LBB1052:
.LBB1050:
.LBB1049:
.LBB1048:
	.loc 1 239 9 is_stmt 0 view .LVU377
	ldr	r0, .L73
.LVL90:
	.loc 1 239 9 view .LVU378
	bl	z_priq_dumb_best
.LVL91:
	.loc 1 239 9 view .LVU379
.LBE1048:
.LBE1049:
	.loc 1 320 2 is_stmt 1 view .LVU380
	.loc 1 320 34 is_stmt 0 view .LVU381
	mov	r5, r0
	cbz	r0, .L72
.L67:
.LVL92:
	.loc 1 320 34 view .LVU382
.LBE1050:
.LBE1052:
	.loc 1 490 2 is_stmt 1 view .LVU383
.LBB1053:
.LBI1053:
	.loc 1 127 26 view .LVU384
.LBB1054:
	.loc 1 133 2 view .LVU385
	.loc 1 133 5 is_stmt 0 view .LVU386
	cbnz	r4, .L68
	.loc 1 137 4 is_stmt 1 view .LVU387
	.loc 1 137 5 view .LVU388
	.loc 1 140 2 view .LVU389
	.loc 1 140 6 is_stmt 0 view .LVU390
	ldr	r3, .L73+4
	ldr	r3, [r3, #8]
.LVL93:
.LBB1055:
.LBI1055:
	.loc 6 106 19 is_stmt 1 view .LVU391
.LBB1056:
	.loc 6 108 2 view .LVU392
	.loc 6 108 10 is_stmt 0 view .LVU393
	ldrb	r2, [r3, #13]	@ zero_extendqisi2
.LVL94:
	.loc 6 110 2 is_stmt 1 view .LVU394
	.loc 6 110 2 is_stmt 0 view .LVU395
.LBE1056:
.LBE1055:
	.loc 1 140 5 view .LVU396
	tst	r2, #31
	bne	.L68
	.loc 1 149 2 is_stmt 1 view .LVU397
.LVL95:
.LBB1057:
.LBI1057:
	.loc 6 115 19 view .LVU398
.LBE1057:
.LBE1054:
.LBE1053:
	.loc 6 117 2 view .LVU399
.LBB1068:
.LBB1066:
.LBB1062:
.LBB1058:
.LBI1058:
	.loc 2 35 19 view .LVU400
.LBE1058:
.LBE1062:
.LBE1066:
.LBE1068:
	.loc 2 37 2 view .LVU401
.LBB1069:
.LBB1067:
.LBB1063:
.LBB1061:
.LBB1059:
.LBI1059:
	.loc 10 225 19 view .LVU402
.LBB1060:
	.loc 10 227 2 view .LVU403
	.loc 10 227 13 is_stmt 0 view .LVU404
	ldr	r2, [r5, #24]
.LVL96:
	.loc 10 227 13 view .LVU405
.LBE1060:
.LBE1059:
.LBE1061:
.LBE1063:
	.loc 1 149 5 view .LVU406
	cbnz	r2, .L68
	.loc 1 157 2 is_stmt 1 view .LVU407
.LVL97:
.LBB1064:
.LBI1064:
	.loc 1 62 19 view .LVU408
.LBB1065:
	.loc 1 65 2 view .LVU409
	.loc 1 65 21 is_stmt 0 view .LVU410
	ldrh	r2, [r3, #14]
.LVL98:
	.loc 1 65 21 view .LVU411
.LBE1065:
.LBE1064:
	.loc 1 157 5 view .LVU412
	cmp	r2, #127
	bls	.L68
.LVL99:
	.loc 1 157 5 view .LVU413
.LBE1067:
.LBE1069:
	.loc 1 499 3 is_stmt 1 view .LVU414
	.loc 1 499 25 is_stmt 0 view .LVU415
	ldr	r2, .L73+4
	str	r3, [r2, #24]
	b	.L66
.LVL100:
.L72:
.LBB1070:
.LBB1051:
	.loc 1 320 34 view .LVU416
	ldr	r3, .L73+4
	ldr	r5, [r3, #12]
	b	.L67
.LVL101:
.L68:
	.loc 1 320 34 view .LVU417
.LBE1051:
.LBE1070:
	.loc 1 492 3 is_stmt 1 view .LVU418
	.loc 1 492 32 is_stmt 0 view .LVU419
	ldr	r3, .L73+4
	ldr	r3, [r3, #8]
	.loc 1 492 6 view .LVU420
	cmp	r3, r5
	beq	.L70
	.loc 1 493 4 is_stmt 1 view .LVU421
	bl	z_reset_time_slice
.LVL102:
.L70:
	.loc 1 496 3 view .LVU422
	.loc 1 497 3 view .LVU423
	.loc 1 497 25 is_stmt 0 view .LVU424
	ldr	r3, .L73+4
	str	r5, [r3, #24]
.L66:
	.loc 1 511 1 view .LVU425
	pop	{r3, r4, r5, pc}
.LVL103:
.L74:
	.loc 1 511 1 view .LVU426
	.align	2
.L73:
	.word	_kernel+28
	.word	_kernel
	.cfi_endproc
.LFE622:
	.size	update_cache, .-update_cache
	.section	.text.move_thread_to_end_of_prio_q,"ax",%progbits
	.align	1
	.syntax unified
	.thumb
	.thumb_func
	.fpu fpv4-sp-d16
	.type	move_thread_to_end_of_prio_q, %function
move_thread_to_end_of_prio_q:
.LVL104:
.LFB616:
	.loc 1 374 1 is_stmt 1 view -0
	.cfi_startproc
	@ args = 0, pretend = 0, frame = 0
	@ frame_needed = 0, uses_anonymous_args = 0
	.loc 1 374 1 is_stmt 0 view .LVU428
	push	{r3, r4, r5, lr}
	.cfi_def_cfa_offset 16
	.cfi_offset 3, -16
	.cfi_offset 4, -12
	.cfi_offset 5, -8
	.cfi_offset 14, -4
	mov	r5, r0
	.loc 1 375 2 is_stmt 1 view .LVU429
.LVL105:
.LBB1071:
.LBI1071:
	.loc 6 136 19 view .LVU430
.LBE1071:
	.loc 6 138 2 view .LVU431
.LBB1074:
.LBB1072:
.LBI1072:
	.loc 6 131 19 view .LVU432
.LBB1073:
	.loc 6 133 2 view .LVU433
	.loc 6 133 22 is_stmt 0 view .LVU434
	ldrb	r2, [r0, #13]	@ zero_extendqisi2
.LVL106:
	.loc 6 133 22 view .LVU435
.LBE1073:
.LBE1072:
.LBE1074:
	.loc 1 375 5 view .LVU436
	ldrsb	r3, [r0, #13]
	cmp	r3, #0
	blt	.L85
.LVL107:
.L76:
	.loc 1 378 2 is_stmt 1 view .LVU437
.LBB1075:
.LBI1075:
	.loc 1 250 51 view .LVU438
.LBB1076:
	.loc 1 252 2 view .LVU439
	.loc 1 252 28 is_stmt 0 view .LVU440
	ldrb	r3, [r5, #13]	@ zero_extendqisi2
	orn	r3, r3, #127
	strb	r3, [r5, #13]
	.loc 1 253 2 is_stmt 1 view .LVU441
.LVL108:
	.loc 1 253 2 is_stmt 0 view .LVU442
.LBE1076:
.LBE1075:
	.loc 1 247 2 is_stmt 1 view .LVU443
.LBB1102:
.LBB1098:
	.loc 1 254 3 view .LVU444
.LBB1077:
.LBI1077:
	.loc 1 227 51 view .LVU445
.LBE1077:
.LBE1098:
.LBE1102:
	.loc 1 229 2 view .LVU446
.LBB1103:
.LBB1099:
.LBB1095:
.LBB1078:
.LBI1078:
	.loc 1 199 52 view .LVU447
.LBE1078:
.LBE1095:
.LBE1099:
.LBE1103:
	.loc 1 214 2 view .LVU448
.LBB1104:
.LBB1100:
.LBB1096:
.LBB1079:
.LBI1079:
	.loc 1 181 51 view .LVU449
.LBB1080:
	.loc 1 184 2 view .LVU450
	.loc 1 186 4 view .LVU451
	.loc 1 186 5 view .LVU452
	.loc 1 188 2 view .LVU453
.LBB1081:
.LBI1081:
	.loc 10 294 28 view .LVU454
.LBB1082:
	.loc 10 296 2 view .LVU455
.LBB1083:
.LBI1083:
	.loc 10 266 19 view .LVU456
.LBB1084:
	.loc 10 268 2 view .LVU457
	.loc 10 268 13 is_stmt 0 view .LVU458
	ldr	r3, .L88
	ldr	r4, [r3, #28]!
.LVL109:
	.loc 10 268 13 view .LVU459
.LBE1084:
.LBE1083:
	.loc 10 296 40 view .LVU460
	cmp	r4, r3
	beq	.L86
.LVL110:
.L81:
	.loc 10 296 40 view .LVU461
.LBE1082:
.LBE1081:
	.loc 1 188 4 is_stmt 1 view .LVU462
	.loc 1 188 2 is_stmt 0 view .LVU463
	cbz	r4, .L80
	.loc 1 189 3 is_stmt 1 view .LVU464
	.loc 1 189 7 is_stmt 0 view .LVU465
	mov	r1, r4
	mov	r0, r5
	bl	z_sched_prio_cmp
.LVL111:
	.loc 1 189 6 view .LVU466
	cmp	r0, #0
	bgt	.L87
	.loc 1 188 3 is_stmt 1 view .LVU467
.LVL112:
.LBB1085:
.LBI1085:
	.loc 10 341 28 view .LVU468
.LBB1086:
	.loc 10 344 2 view .LVU469
	.loc 10 344 66 is_stmt 0 view .LVU470
	cbz	r4, .L80
.LVL113:
.LBB1087:
.LBI1087:
	.loc 10 325 28 is_stmt 1 view .LVU471
.LBB1088:
	.loc 10 328 2 view .LVU472
	.loc 10 328 22 is_stmt 0 view .LVU473
	ldr	r3, .L88
	ldr	r3, [r3, #32]
	.loc 10 328 36 view .LVU474
	cmp	r4, r3
	beq	.L80
	ldr	r4, [r4]
.LVL114:
	.loc 10 328 36 view .LVU475
.LBE1088:
.LBE1087:
.LBE1086:
.LBE1085:
	.loc 1 188 4 view .LVU476
	cmp	r4, #0
	bne	.L81
.L80:
	.loc 1 196 2 is_stmt 1 view .LVU477
.LVL115:
.LBB1089:
.LBI1089:
	.loc 10 404 20 view .LVU478
.LBB1090:
	.loc 10 406 2 view .LVU479
	.loc 10 406 21 is_stmt 0 view .LVU480
	ldr	r3, .L88
	ldr	r2, [r3, #32]
.LVL116:
	.loc 10 408 2 is_stmt 1 view .LVU481
	.loc 10 408 13 is_stmt 0 view .LVU482
	add	r1, r3, #28
	str	r1, [r5]
	.loc 10 409 2 is_stmt 1 view .LVU483
	.loc 10 409 13 is_stmt 0 view .LVU484
	str	r2, [r5, #4]
	.loc 10 411 2 is_stmt 1 view .LVU485
	.loc 10 411 13 is_stmt 0 view .LVU486
	str	r5, [r2]
	.loc 10 412 2 is_stmt 1 view .LVU487
	.loc 10 412 13 is_stmt 0 view .LVU488
	str	r5, [r3, #32]
.LVL117:
.L79:
	.loc 10 412 13 view .LVU489
.LBE1090:
.LBE1089:
.LBE1080:
.LBE1079:
.LBE1096:
.LBE1100:
.LBE1104:
	.loc 1 379 2 is_stmt 1 view .LVU490
	.loc 1 379 40 is_stmt 0 view .LVU491
	ldr	r3, .L88
	ldr	r0, [r3, #8]
	.loc 1 379 2 view .LVU492
	cmp	r0, r5
	ite	ne
	movne	r0, #0
	moveq	r0, #1
	bl	update_cache
.LVL118:
	.loc 1 380 1 view .LVU493
	pop	{r3, r4, r5, pc}
.LVL119:
.L85:
	.loc 1 376 3 is_stmt 1 view .LVU494
.LBB1105:
.LBI1105:
	.loc 1 264 51 view .LVU495
.LBB1106:
	.loc 1 266 2 view .LVU496
	.loc 1 266 28 is_stmt 0 view .LVU497
	and	r2, r2, #127
	strb	r2, [r0, #13]
	.loc 1 267 2 is_stmt 1 view .LVU498
.LVL120:
	.loc 1 267 2 is_stmt 0 view .LVU499
.LBE1106:
.LBE1105:
	.loc 1 247 2 is_stmt 1 view .LVU500
.LBB1114:
.LBB1112:
	.loc 1 268 3 view .LVU501
.LBB1107:
.LBI1107:
	.loc 1 232 51 view .LVU502
.LBB1108:
	.loc 1 234 2 view .LVU503
.LBB1109:
.LBI1109:
	.loc 1 199 52 view .LVU504
.LBE1109:
.LBE1108:
.LBE1107:
.LBE1112:
.LBE1114:
	.loc 1 214 2 view .LVU505
.LBB1115:
.LBB1113:
.LBB1111:
.LBB1110:
	.loc 1 234 2 is_stmt 0 view .LVU506
	mov	r1, r0
	ldr	r0, .L88+4
.LVL121:
	.loc 1 234 2 view .LVU507
	bl	z_priq_dumb_remove
.LVL122:
	.loc 1 234 2 view .LVU508
.LBE1110:
.LBE1111:
	.loc 1 270 1 view .LVU509
	b	.L76
.LVL123:
.L87:
	.loc 1 270 1 view .LVU510
.LBE1113:
.LBE1115:
.LBB1116:
.LBB1101:
.LBB1097:
.LBB1094:
.LBB1093:
	.loc 1 190 4 is_stmt 1 view .LVU511
.LBB1091:
.LBI1091:
	.loc 10 443 20 view .LVU512
.LBB1092:
	.loc 10 445 2 view .LVU513
	.loc 10 445 21 is_stmt 0 view .LVU514
	ldr	r3, [r4, #4]
.LVL124:
	.loc 10 447 2 is_stmt 1 view .LVU515
	.loc 10 447 13 is_stmt 0 view .LVU516
	str	r3, [r5, #4]
	.loc 10 448 2 is_stmt 1 view .LVU517
	.loc 10 448 13 is_stmt 0 view .LVU518
	str	r4, [r5]
	.loc 10 449 2 is_stmt 1 view .LVU519
	.loc 10 449 13 is_stmt 0 view .LVU520
	str	r5, [r3]
	.loc 10 450 2 is_stmt 1 view .LVU521
	.loc 10 450 18 is_stmt 0 view .LVU522
	str	r5, [r4, #4]
	.loc 10 451 1 view .LVU523
	b	.L79
.LVL125:
.L86:
	.loc 10 451 1 view .LVU524
.LBE1092:
.LBE1091:
	.loc 1 188 4 view .LVU525
	movs	r4, #0
	b	.L81
.L89:
	.align	2
.L88:
	.word	_kernel
	.word	_kernel+28
.LBE1093:
.LBE1094:
.LBE1097:
.LBE1101:
.LBE1116:
	.cfi_endproc
.LFE616:
	.size	move_thread_to_end_of_prio_q, .-move_thread_to_end_of_prio_q
	.section	.text.z_time_slice,"ax",%progbits
	.align	1
	.global	z_time_slice
	.syntax unified
	.thumb
	.thumb_func
	.fpu fpv4-sp-d16
	.type	z_time_slice, %function
z_time_slice:
.LVL126:
.LFB620:
	.loc 1 434 1 is_stmt 1 view -0
	.cfi_startproc
	@ args = 0, pretend = 0, frame = 0
	@ frame_needed = 0, uses_anonymous_args = 0
	.loc 1 434 1 is_stmt 0 view .LVU527
	push	{r4, lr}
	.cfi_def_cfa_offset 8
	.cfi_offset 4, -8
	.cfi_offset 14, -4
	.loc 1 442 2 is_stmt 1 view .LVU528
.LVL127:
.LBB1117:
.LBI1117:
	.loc 3 130 63 view .LVU529
.LBB1118:
	.loc 3 132 2 view .LVU530
	.loc 3 133 2 view .LVU531
	.loc 3 139 2 view .LVU532
.LBB1119:
.LBI1119:
	.loc 4 43 59 view .LVU533
.LBB1120:
	.loc 4 45 2 view .LVU534
	.loc 4 54 2 view .LVU535
	.loc 4 56 2 view .LVU536
	.syntax unified
@ 56 "/home/sebin/thesis/zephyrproject/zephyr/include/arch/arm/aarch32/asm_inline_gcc.h" 1
	mov r3, #4;mrs r4, BASEPRI;msr BASEPRI_MAX, r3;isb;
@ 0 "" 2
.LVL128:
	.loc 4 76 2 view .LVU537
	.loc 4 76 2 is_stmt 0 view .LVU538
	.thumb
	.syntax unified
.LBE1120:
.LBE1119:
	.loc 3 156 2 is_stmt 1 view .LVU539
	.loc 3 156 2 is_stmt 0 view .LVU540
.LBE1118:
.LBE1117:
	.loc 1 445 2 is_stmt 1 view .LVU541
	.loc 1 445 40 is_stmt 0 view .LVU542
	ldr	r3, .L99
	ldr	r3, [r3, #8]
	.loc 1 445 22 view .LVU543
	ldr	r2, .L99+4
	ldr	r2, [r2]
	.loc 1 445 5 view .LVU544
	cmp	r3, r2
	beq	.L97
	.loc 1 450 2 is_stmt 1 view .LVU545
	.loc 1 450 18 is_stmt 0 view .LVU546
	ldr	r2, .L99+4
	movs	r1, #0
	str	r1, [r2]
	.loc 1 453 2 is_stmt 1 view .LVU547
	.loc 1 453 6 is_stmt 0 view .LVU548
	ldr	r2, .L99+8
	ldr	r2, [r2]
	.loc 1 453 5 view .LVU549
	cbz	r2, .L93
.LVL129:
.LBB1121:
.LBI1121:
	.loc 1 424 19 is_stmt 1 discriminator 1 view .LVU550
.LBB1122:
	.loc 1 426 2 discriminator 1 view .LVU551
.LBB1123:
.LBI1123:
	.loc 1 62 19 discriminator 1 view .LVU552
.LBB1124:
	.loc 1 65 2 discriminator 1 view .LVU553
	.loc 1 65 21 is_stmt 0 discriminator 1 view .LVU554
	ldrh	r2, [r3, #14]
.LVL130:
	.loc 1 65 21 discriminator 1 view .LVU555
.LBE1124:
.LBE1123:
	.loc 1 429 3 discriminator 1 view .LVU556
	cmp	r2, #127
	bhi	.L93
.LVL131:
.LBB1125:
.LBI1125:
	.loc 6 106 19 is_stmt 1 view .LVU557
.LBB1126:
	.loc 6 108 2 view .LVU558
	.loc 6 108 10 is_stmt 0 view .LVU559
	ldrb	r2, [r3, #13]	@ zero_extendqisi2
.LVL132:
	.loc 6 110 2 is_stmt 1 view .LVU560
	.loc 6 110 2 is_stmt 0 view .LVU561
.LBE1126:
.LBE1125:
	.loc 1 427 3 view .LVU562
	tst	r2, #31
	bne	.L93
	.loc 1 428 36 view .LVU563
	ldrsb	r1, [r3, #14]
	.loc 1 428 7 view .LVU564
	ldr	r2, .L99+12
	ldr	r2, [r2]
.LVL133:
	.loc 1 428 7 view .LVU565
.LBE1122:
.LBE1121:
	.loc 6 213 2 is_stmt 1 view .LVU566
	.loc 6 208 2 view .LVU567
.LBB1130:
.LBB1128:
	.loc 1 428 3 is_stmt 0 view .LVU568
	cmp	r1, r2
	blt	.L93
.LVL134:
.LBB1127:
.LBI1127:
	.loc 6 83 19 is_stmt 1 view .LVU569
.LBE1127:
.LBE1128:
.LBE1130:
	.loc 6 89 2 view .LVU570
.LBB1131:
.LBB1129:
	.loc 1 429 3 is_stmt 0 view .LVU571
	ldr	r2, .L99+16
	cmp	r3, r2
	beq	.L93
.LVL135:
	.loc 1 429 3 view .LVU572
.LBE1129:
.LBE1131:
	.loc 1 454 3 is_stmt 1 view .LVU573
	.loc 1 454 34 is_stmt 0 view .LVU574
	ldr	r2, .L99
	ldr	r2, [r2, #16]
	.loc 1 454 6 view .LVU575
	cmp	r2, r0
	ble	.L98
	.loc 1 458 4 is_stmt 1 view .LVU576
	.loc 1 458 36 is_stmt 0 view .LVU577
	subs	r0, r2, r0
.LVL136:
	.loc 1 458 36 view .LVU578
	ldr	r3, .L99
	str	r0, [r3, #16]
	b	.L95
.LVL137:
.L97:
	.loc 1 446 3 is_stmt 1 view .LVU579
	bl	z_reset_time_slice
.LVL138:
	.loc 1 447 3 view .LVU580
.LBB1132:
.LBI1132:
	.loc 3 180 51 view .LVU581
.LBE1132:
	.loc 3 183 2 view .LVU582
	.loc 3 198 2 view .LVU583
.LBB1135:
.LBB1133:
.LBI1133:
	.loc 4 84 51 view .LVU584
.LBB1134:
	.loc 4 95 2 view .LVU585
	.syntax unified
@ 95 "/home/sebin/thesis/zephyrproject/zephyr/include/arch/arm/aarch32/asm_inline_gcc.h" 1
	msr BASEPRI, r4;isb;
@ 0 "" 2
.LVL139:
	.loc 4 95 2 is_stmt 0 view .LVU586
	.thumb
	.syntax unified
.LBE1134:
.LBE1133:
.LBE1135:
	.loc 1 448 3 is_stmt 1 view .LVU587
	b	.L90
.LVL140:
.L98:
	.loc 1 455 4 view .LVU588
	mov	r0, r3
.LVL141:
	.loc 1 455 4 is_stmt 0 view .LVU589
	bl	move_thread_to_end_of_prio_q
.LVL142:
	.loc 1 456 4 is_stmt 1 view .LVU590
	bl	z_reset_time_slice
.LVL143:
	b	.L95
.LVL144:
.L93:
	.loc 1 461 3 view .LVU591
	.loc 1 461 35 is_stmt 0 view .LVU592
	ldr	r3, .L99
	movs	r2, #0
	str	r2, [r3, #16]
.LVL145:
.L95:
	.loc 1 463 2 is_stmt 1 discriminator 1 view .LVU593
.LBB1136:
.LBI1136:
	.loc 3 180 51 discriminator 1 view .LVU594
.LBE1136:
	.loc 3 183 2 discriminator 1 view .LVU595
	.loc 3 198 2 discriminator 1 view .LVU596
.LBB1139:
.LBB1137:
.LBI1137:
	.loc 4 84 51 discriminator 1 view .LVU597
.LBB1138:
	.loc 4 95 2 discriminator 1 view .LVU598
	.syntax unified
@ 95 "/home/sebin/thesis/zephyrproject/zephyr/include/arch/arm/aarch32/asm_inline_gcc.h" 1
	msr BASEPRI, r4;isb;
@ 0 "" 2
.LVL146:
	.thumb
	.syntax unified
.L90:
	.loc 4 95 2 is_stmt 0 discriminator 1 view .LVU599
.LBE1138:
.LBE1137:
.LBE1139:
	.loc 1 464 1 view .LVU600
	pop	{r4, pc}
.L100:
	.align	2
.L99:
	.word	_kernel
	.word	.LANCHOR2
	.word	.LANCHOR0
	.word	.LANCHOR1
	.word	z_idle_threads
	.cfi_endproc
.LFE620:
	.size	z_time_slice, .-z_time_slice
	.section	.text.z_move_thread_to_end_of_prio_q,"ax",%progbits
	.align	1
	.global	z_move_thread_to_end_of_prio_q
	.syntax unified
	.thumb
	.thumb_func
	.fpu fpv4-sp-d16
	.type	z_move_thread_to_end_of_prio_q, %function
z_move_thread_to_end_of_prio_q:
.LVL147:
.LFB626:
	.loc 1 562 1 is_stmt 1 view -0
	.cfi_startproc
	@ args = 0, pretend = 0, frame = 0
	@ frame_needed = 0, uses_anonymous_args = 0
	.loc 1 562 1 is_stmt 0 view .LVU602
	push	{r3, r4, r5, lr}
	.cfi_def_cfa_offset 16
	.cfi_offset 3, -16
	.cfi_offset 4, -12
	.cfi_offset 5, -8
	.cfi_offset 14, -4
	mov	r5, r0
	.loc 1 563 2 is_stmt 1 view .LVU603
.LBB1140:
	.loc 1 563 7 view .LVU604
	.loc 1 563 24 is_stmt 0 view .LVU605
	movs	r3, #0
.LVL148:
.LBB1141:
.LBI1141:
	.loc 3 130 63 is_stmt 1 view .LVU606
.LBB1142:
	.loc 3 132 2 view .LVU607
	.loc 3 133 2 view .LVU608
	.loc 3 139 2 view .LVU609
.LBB1143:
.LBI1143:
	.loc 4 43 59 view .LVU610
.LBB1144:
	.loc 4 45 2 view .LVU611
	.loc 4 54 2 view .LVU612
	.loc 4 56 2 view .LVU613
	.syntax unified
@ 56 "/home/sebin/thesis/zephyrproject/zephyr/include/arch/arm/aarch32/asm_inline_gcc.h" 1
	mov r2, #4;mrs r4, BASEPRI;msr BASEPRI_MAX, r2;isb;
@ 0 "" 2
.LVL149:
	.loc 4 76 2 view .LVU614
	.loc 4 76 2 is_stmt 0 view .LVU615
	.thumb
	.syntax unified
.LBE1144:
.LBE1143:
	.loc 3 156 2 is_stmt 1 view .LVU616
.L102:
	.loc 3 156 2 is_stmt 0 view .LVU617
.LBE1142:
.LBE1141:
	.loc 1 563 72 is_stmt 1 discriminator 1 view .LVU618
	.loc 1 563 2 is_stmt 0 discriminator 1 view .LVU619
	cbnz	r3, .L105
	.loc 1 564 3 is_stmt 1 discriminator 3 view .LVU620
	mov	r0, r5
	bl	move_thread_to_end_of_prio_q
.LVL150:
	.loc 1 563 82 discriminator 3 view .LVU621
.LBB1145:
.LBI1145:
	.loc 3 180 51 discriminator 3 view .LVU622
.LBB1146:
	.loc 3 183 2 discriminator 3 view .LVU623
	.loc 3 198 2 discriminator 3 view .LVU624
.LBB1147:
.LBI1147:
	.loc 4 84 51 discriminator 3 view .LVU625
.LBB1148:
	.loc 4 95 2 discriminator 3 view .LVU626
	.syntax unified
@ 95 "/home/sebin/thesis/zephyrproject/zephyr/include/arch/arm/aarch32/asm_inline_gcc.h" 1
	msr BASEPRI, r4;isb;
@ 0 "" 2
.LVL151:
	.loc 4 95 2 is_stmt 0 discriminator 3 view .LVU627
	.thumb
	.syntax unified
.LBE1148:
.LBE1147:
.LBE1146:
.LBE1145:
	.loc 1 563 129 discriminator 3 view .LVU628
	movs	r3, #1
	.loc 1 563 129 discriminator 3 view .LVU629
	b	.L102
.LVL152:
.L105:
	.loc 1 563 129 discriminator 3 view .LVU630
.LBE1140:
	.loc 1 566 1 view .LVU631
	pop	{r3, r4, r5, pc}
	.loc 1 566 1 view .LVU632
	.cfi_endproc
.LFE626:
	.size	z_move_thread_to_end_of_prio_q, .-z_move_thread_to_end_of_prio_q
	.section	.text.ready_thread,"ax",%progbits
	.align	1
	.syntax unified
	.thumb
	.thumb_func
	.fpu fpv4-sp-d16
	.type	ready_thread, %function
ready_thread:
.LVL153:
.LFB624:
	.loc 1 533 1 is_stmt 1 view -0
	.cfi_startproc
	@ args = 0, pretend = 0, frame = 0
	@ frame_needed = 0, uses_anonymous_args = 0
	.loc 1 533 1 is_stmt 0 view .LVU634
	push	{r3, r4, r5, lr}
	.cfi_def_cfa_offset 16
	.cfi_offset 3, -16
	.cfi_offset 4, -12
	.cfi_offset 5, -8
	.cfi_offset 14, -4
	.loc 1 541 2 is_stmt 1 view .LVU635
.LVL154:
.LBB1149:
.LBI1149:
	.loc 6 136 19 view .LVU636
.LBE1149:
	.loc 6 138 2 view .LVU637
.LBB1152:
.LBB1150:
.LBI1150:
	.loc 6 131 19 view .LVU638
.LBB1151:
	.loc 6 133 2 view .LVU639
	.loc 6 133 22 is_stmt 0 view .LVU640
	ldrb	r3, [r0, #13]	@ zero_extendqisi2
.LVL155:
	.loc 6 133 22 view .LVU641
.LBE1151:
.LBE1150:
.LBE1152:
	.loc 1 541 5 view .LVU642
	ldrsb	r2, [r0, #13]
	cmp	r2, #0
	blt	.L106
	mov	r4, r0
.LVL156:
.LBB1153:
.LBI1153:
	.loc 6 120 19 is_stmt 1 view .LVU643
.LBB1154:
	.loc 6 122 2 view .LVU644
	.loc 6 122 2 is_stmt 0 view .LVU645
.LBE1154:
.LBE1153:
	.loc 6 108 2 is_stmt 1 view .LVU646
	.loc 6 110 2 view .LVU647
.LBB1165:
.LBB1162:
	.loc 6 122 9 is_stmt 0 view .LVU648
	tst	r3, #31
	bne	.L115
.LVL157:
.LBB1155:
.LBI1155:
	.loc 6 115 19 is_stmt 1 view .LVU649
.LBE1155:
.LBE1162:
.LBE1165:
	.loc 6 117 2 view .LVU650
.LBB1166:
.LBB1163:
.LBB1160:
.LBB1156:
.LBI1156:
	.loc 2 35 19 view .LVU651
.LBE1156:
.LBE1160:
.LBE1163:
.LBE1166:
	.loc 2 37 2 view .LVU652
.LBB1167:
.LBB1164:
.LBB1161:
.LBB1159:
.LBB1157:
.LBI1157:
	.loc 10 225 19 view .LVU653
.LBB1158:
	.loc 10 227 2 view .LVU654
	.loc 10 227 13 is_stmt 0 view .LVU655
	ldr	r2, [r0, #24]
.LVL158:
	.loc 10 227 13 view .LVU656
.LBE1158:
.LBE1157:
.LBE1159:
.LBE1161:
	.loc 6 122 9 view .LVU657
	cbz	r2, .L119
	movs	r2, #0
	b	.L108
.L119:
	movs	r2, #1
	b	.L108
.L115:
	movs	r2, #0
.L108:
.LVL159:
	.loc 6 122 9 view .LVU658
.LBE1164:
.LBE1167:
	.loc 1 541 34 view .LVU659
	cbz	r2, .L106
	.loc 1 542 3 is_stmt 1 view .LVU660
	.loc 1 542 8 view .LVU661
	.loc 1 542 16 view .LVU662
	.loc 1 544 3 view .LVU663
.LVL160:
.LBB1168:
.LBI1168:
	.loc 1 250 51 view .LVU664
.LBB1169:
	.loc 1 252 2 view .LVU665
	.loc 1 252 28 is_stmt 0 view .LVU666
	orn	r3, r3, #127
	strb	r3, [r4, #13]
	.loc 1 253 2 is_stmt 1 view .LVU667
.LVL161:
	.loc 1 253 2 is_stmt 0 view .LVU668
.LBE1169:
.LBE1168:
	.loc 1 247 2 is_stmt 1 view .LVU669
.LBB1195:
.LBB1191:
	.loc 1 254 3 view .LVU670
.LBB1170:
.LBI1170:
	.loc 1 227 51 view .LVU671
.LBE1170:
.LBE1191:
.LBE1195:
	.loc 1 229 2 view .LVU672
.LBB1196:
.LBB1192:
.LBB1188:
.LBB1171:
.LBI1171:
	.loc 1 199 52 view .LVU673
.LBE1171:
.LBE1188:
.LBE1192:
.LBE1196:
	.loc 1 214 2 view .LVU674
.LBB1197:
.LBB1193:
.LBB1189:
.LBB1172:
.LBI1172:
	.loc 1 181 51 view .LVU675
.LBB1173:
	.loc 1 184 2 view .LVU676
	.loc 1 186 4 view .LVU677
	.loc 1 186 5 view .LVU678
	.loc 1 188 2 view .LVU679
.LBB1174:
.LBI1174:
	.loc 10 294 28 view .LVU680
.LBB1175:
	.loc 10 296 2 view .LVU681
.LBB1176:
.LBI1176:
	.loc 10 266 19 view .LVU682
.LBB1177:
	.loc 10 268 2 view .LVU683
	.loc 10 268 13 is_stmt 0 view .LVU684
	ldr	r3, .L122
	ldr	r5, [r3, #28]!
.LVL162:
	.loc 10 268 13 view .LVU685
.LBE1177:
.LBE1176:
	.loc 10 296 40 view .LVU686
	cmp	r5, r3
	beq	.L120
.LVL163:
.L113:
	.loc 10 296 40 view .LVU687
.LBE1175:
.LBE1174:
	.loc 1 188 4 is_stmt 1 view .LVU688
	.loc 1 188 2 is_stmt 0 view .LVU689
	cbz	r5, .L112
	.loc 1 189 3 is_stmt 1 view .LVU690
	.loc 1 189 7 is_stmt 0 view .LVU691
	mov	r1, r5
	mov	r0, r4
	bl	z_sched_prio_cmp
.LVL164:
	.loc 1 189 6 view .LVU692
	cmp	r0, #0
	bgt	.L121
	.loc 1 188 3 is_stmt 1 view .LVU693
.LVL165:
.LBB1178:
.LBI1178:
	.loc 10 341 28 view .LVU694
.LBB1179:
	.loc 10 344 2 view .LVU695
	.loc 10 344 66 is_stmt 0 view .LVU696
	cbz	r5, .L112
.LVL166:
.LBB1180:
.LBI1180:
	.loc 10 325 28 is_stmt 1 view .LVU697
.LBB1181:
	.loc 10 328 2 view .LVU698
	.loc 10 328 22 is_stmt 0 view .LVU699
	ldr	r3, .L122
	ldr	r3, [r3, #32]
	.loc 10 328 36 view .LVU700
	cmp	r5, r3
	beq	.L112
	ldr	r5, [r5]
.LVL167:
	.loc 10 328 36 view .LVU701
.LBE1181:
.LBE1180:
.LBE1179:
.LBE1178:
	.loc 1 188 4 view .LVU702
	cmp	r5, #0
	bne	.L113
.L112:
	.loc 1 196 2 is_stmt 1 view .LVU703
.LVL168:
.LBB1182:
.LBI1182:
	.loc 10 404 20 view .LVU704
.LBB1183:
	.loc 10 406 2 view .LVU705
	.loc 10 406 21 is_stmt 0 view .LVU706
	ldr	r3, .L122
	ldr	r2, [r3, #32]
.LVL169:
	.loc 10 408 2 is_stmt 1 view .LVU707
	.loc 10 408 13 is_stmt 0 view .LVU708
	add	r1, r3, #28
	str	r1, [r4]
	.loc 10 409 2 is_stmt 1 view .LVU709
	.loc 10 409 13 is_stmt 0 view .LVU710
	str	r2, [r4, #4]
	.loc 10 411 2 is_stmt 1 view .LVU711
	.loc 10 411 13 is_stmt 0 view .LVU712
	str	r4, [r2]
	.loc 10 412 2 is_stmt 1 view .LVU713
	.loc 10 412 13 is_stmt 0 view .LVU714
	str	r4, [r3, #32]
.LVL170:
.L111:
	.loc 10 412 13 view .LVU715
.LBE1183:
.LBE1182:
.LBE1173:
.LBE1172:
.LBE1189:
.LBE1193:
.LBE1197:
	.loc 1 545 3 is_stmt 1 view .LVU716
	movs	r0, #0
	bl	update_cache
.LVL171:
.L106:
	.loc 1 550 1 is_stmt 0 view .LVU717
	pop	{r3, r4, r5, pc}
.LVL172:
.L121:
.LBB1198:
.LBB1194:
.LBB1190:
.LBB1187:
.LBB1186:
	.loc 1 190 4 is_stmt 1 view .LVU718
.LBB1184:
.LBI1184:
	.loc 10 443 20 view .LVU719
.LBB1185:
	.loc 10 445 2 view .LVU720
	.loc 10 445 21 is_stmt 0 view .LVU721
	ldr	r3, [r5, #4]
.LVL173:
	.loc 10 447 2 is_stmt 1 view .LVU722
	.loc 10 447 13 is_stmt 0 view .LVU723
	str	r3, [r4, #4]
	.loc 10 448 2 is_stmt 1 view .LVU724
	.loc 10 448 13 is_stmt 0 view .LVU725
	str	r5, [r4]
	.loc 10 449 2 is_stmt 1 view .LVU726
	.loc 10 449 13 is_stmt 0 view .LVU727
	str	r4, [r3]
	.loc 10 450 2 is_stmt 1 view .LVU728
	.loc 10 450 18 is_stmt 0 view .LVU729
	str	r4, [r5, #4]
	.loc 10 451 1 view .LVU730
	b	.L111
.LVL174:
.L120:
	.loc 10 451 1 view .LVU731
.LBE1185:
.LBE1184:
	.loc 1 188 4 view .LVU732
	movs	r5, #0
	b	.L113
.L123:
	.align	2
.L122:
	.word	_kernel
.LBE1186:
.LBE1187:
.LBE1190:
.LBE1194:
.LBE1198:
	.cfi_endproc
.LFE624:
	.size	ready_thread, .-ready_thread
	.section	.text.z_ready_thread,"ax",%progbits
	.align	1
	.global	z_ready_thread
	.syntax unified
	.thumb
	.thumb_func
	.fpu fpv4-sp-d16
	.type	z_ready_thread, %function
z_ready_thread:
.LVL175:
.LFB625:
	.loc 1 553 1 is_stmt 1 view -0
	.cfi_startproc
	@ args = 0, pretend = 0, frame = 0
	@ frame_needed = 0, uses_anonymous_args = 0
	.loc 1 553 1 is_stmt 0 view .LVU734
	push	{r3, r4, r5, lr}
	.cfi_def_cfa_offset 16
	.cfi_offset 3, -16
	.cfi_offset 4, -12
	.cfi_offset 5, -8
	.cfi_offset 14, -4
	mov	r4, r0
	.loc 1 554 2 is_stmt 1 view .LVU735
.LBB1199:
	.loc 1 554 7 view .LVU736
	.loc 1 554 24 is_stmt 0 view .LVU737
	movs	r3, #0
.LVL176:
.LBB1200:
.LBI1200:
	.loc 3 130 63 is_stmt 1 view .LVU738
.LBB1201:
	.loc 3 132 2 view .LVU739
	.loc 3 133 2 view .LVU740
	.loc 3 139 2 view .LVU741
.LBB1202:
.LBI1202:
	.loc 4 43 59 view .LVU742
.LBB1203:
	.loc 4 45 2 view .LVU743
	.loc 4 54 2 view .LVU744
	.loc 4 56 2 view .LVU745
	.syntax unified
@ 56 "/home/sebin/thesis/zephyrproject/zephyr/include/arch/arm/aarch32/asm_inline_gcc.h" 1
	mov r2, #4;mrs r5, BASEPRI;msr BASEPRI_MAX, r2;isb;
@ 0 "" 2
.LVL177:
	.loc 4 76 2 view .LVU746
	.loc 4 76 2 is_stmt 0 view .LVU747
	.thumb
	.syntax unified
.LBE1203:
.LBE1202:
	.loc 3 156 2 is_stmt 1 view .LVU748
	.loc 3 156 9 is_stmt 0 view .LVU749
	b	.L125
.LVL178:
.L130:
	.loc 3 156 9 view .LVU750
.LBE1201:
.LBE1200:
	.loc 1 556 4 is_stmt 1 view .LVU751
	mov	r0, r4
	bl	ready_thread
.LVL179:
.L126:
	.loc 1 554 82 discriminator 2 view .LVU752
.LBB1204:
.LBI1204:
	.loc 3 180 51 discriminator 2 view .LVU753
.LBB1205:
	.loc 3 183 2 discriminator 2 view .LVU754
	.loc 3 198 2 discriminator 2 view .LVU755
.LBB1206:
.LBI1206:
	.loc 4 84 51 discriminator 2 view .LVU756
.LBB1207:
	.loc 4 95 2 discriminator 2 view .LVU757
	.syntax unified
@ 95 "/home/sebin/thesis/zephyrproject/zephyr/include/arch/arm/aarch32/asm_inline_gcc.h" 1
	msr BASEPRI, r5;isb;
@ 0 "" 2
.LVL180:
	.loc 4 95 2 is_stmt 0 discriminator 2 view .LVU758
	.thumb
	.syntax unified
.LBE1207:
.LBE1206:
.LBE1205:
.LBE1204:
	.loc 1 554 129 discriminator 2 view .LVU759
	movs	r3, #1
.L125:
	.loc 1 554 72 is_stmt 1 discriminator 1 view .LVU760
.LVL181:
	.loc 1 554 2 is_stmt 0 discriminator 1 view .LVU761
	cbnz	r3, .L129
	.loc 1 555 3 is_stmt 1 view .LVU762
	.loc 1 555 8 is_stmt 0 view .LVU763
	mov	r0, r4
	bl	thread_active_elsewhere
.LVL182:
	.loc 1 555 6 view .LVU764
	cmp	r0, #0
	bne	.L126
	b	.L130
.LVL183:
.L129:
	.loc 1 555 6 view .LVU765
.LBE1199:
	.loc 1 559 1 view .LVU766
	pop	{r3, r4, r5, pc}
	.loc 1 559 1 view .LVU767
	.cfi_endproc
.LFE625:
	.size	z_ready_thread, .-z_ready_thread
	.section	.text.z_sched_start,"ax",%progbits
	.align	1
	.global	z_sched_start
	.syntax unified
	.thumb
	.thumb_func
	.fpu fpv4-sp-d16
	.type	z_sched_start, %function
z_sched_start:
.LVL184:
.LFB627:
	.loc 1 569 1 is_stmt 1 view -0
	.cfi_startproc
	@ args = 0, pretend = 0, frame = 0
	@ frame_needed = 0, uses_anonymous_args = 0
	.loc 1 569 1 is_stmt 0 view .LVU769
	push	{r4, lr}
	.cfi_def_cfa_offset 8
	.cfi_offset 4, -8
	.cfi_offset 14, -4
	.loc 1 570 2 is_stmt 1 view .LVU770
.LVL185:
.LBB1208:
.LBI1208:
	.loc 3 130 63 view .LVU771
.LBB1209:
	.loc 3 132 2 view .LVU772
	.loc 3 133 2 view .LVU773
	.loc 3 139 2 view .LVU774
.LBB1210:
.LBI1210:
	.loc 4 43 59 view .LVU775
.LBB1211:
	.loc 4 45 2 view .LVU776
	.loc 4 54 2 view .LVU777
	.loc 4 56 2 view .LVU778
	.syntax unified
@ 56 "/home/sebin/thesis/zephyrproject/zephyr/include/arch/arm/aarch32/asm_inline_gcc.h" 1
	mov r3, #4;mrs r4, BASEPRI;msr BASEPRI_MAX, r3;isb;
@ 0 "" 2
.LVL186:
	.loc 4 76 2 view .LVU779
	.loc 4 76 2 is_stmt 0 view .LVU780
	.thumb
	.syntax unified
.LBE1211:
.LBE1210:
	.loc 3 156 2 is_stmt 1 view .LVU781
	.loc 3 156 2 is_stmt 0 view .LVU782
.LBE1209:
.LBE1208:
	.loc 1 572 2 is_stmt 1 view .LVU783
.LBB1212:
.LBI1212:
	.loc 6 126 19 view .LVU784
.LBB1213:
	.loc 6 128 2 view .LVU785
	.loc 6 128 22 is_stmt 0 view .LVU786
	ldrb	r3, [r0, #13]	@ zero_extendqisi2
.LVL187:
	.loc 6 128 22 view .LVU787
.LBE1213:
.LBE1212:
	.loc 1 572 5 view .LVU788
	tst	r3, #4
	bne	.L132
	.loc 1 573 3 is_stmt 1 view .LVU789
.LVL188:
.LBB1214:
.LBI1214:
	.loc 3 180 51 view .LVU790
.LBE1214:
	.loc 3 183 2 view .LVU791
	.loc 3 198 2 view .LVU792
.LBB1217:
.LBB1215:
.LBI1215:
	.loc 4 84 51 view .LVU793
.LBB1216:
	.loc 4 95 2 view .LVU794
	.syntax unified
@ 95 "/home/sebin/thesis/zephyrproject/zephyr/include/arch/arm/aarch32/asm_inline_gcc.h" 1
	msr BASEPRI, r4;isb;
@ 0 "" 2
.LVL189:
	.loc 4 95 2 is_stmt 0 view .LVU795
	.thumb
	.syntax unified
.LBE1216:
.LBE1215:
.LBE1217:
	.loc 1 574 3 is_stmt 1 view .LVU796
.L131:
	.loc 1 580 1 is_stmt 0 view .LVU797
	pop	{r4, pc}
.LVL190:
.L132:
	.loc 1 577 2 is_stmt 1 view .LVU798
.LBB1218:
.LBI1218:
	.loc 6 155 20 view .LVU799
.LBB1219:
	.loc 6 157 2 view .LVU800
	.loc 6 157 28 is_stmt 0 view .LVU801
	bic	r3, r3, #4
	strb	r3, [r0, #13]
.LVL191:
	.loc 6 157 28 view .LVU802
.LBE1219:
.LBE1218:
	.loc 1 578 2 is_stmt 1 view .LVU803
	bl	ready_thread
.LVL192:
	.loc 1 579 2 view .LVU804
	mov	r1, r4
	ldr	r0, .L135
	bl	z_reschedule
.LVL193:
	b	.L131
.L136:
	.align	2
.L135:
	.word	.LANCHOR3
	.cfi_endproc
.LFE627:
	.size	z_sched_start, .-z_sched_start
	.section	.text.z_impl_k_thread_resume,"ax",%progbits
	.align	1
	.global	z_impl_k_thread_resume
	.syntax unified
	.thumb
	.thumb_func
	.fpu fpv4-sp-d16
	.type	z_impl_k_thread_resume, %function
z_impl_k_thread_resume:
.LVL194:
.LFB629:
	.loc 1 613 1 view -0
	.cfi_startproc
	@ args = 0, pretend = 0, frame = 0
	@ frame_needed = 0, uses_anonymous_args = 0
	.loc 1 613 1 is_stmt 0 view .LVU806
	push	{r4, lr}
	.cfi_def_cfa_offset 8
	.cfi_offset 4, -8
	.cfi_offset 14, -4
	.loc 1 614 2 is_stmt 1 view .LVU807
	.loc 1 614 7 view .LVU808
	.loc 1 614 15 view .LVU809
	.loc 1 616 2 view .LVU810
.LVL195:
.LBB1220:
.LBI1220:
	.loc 3 130 63 view .LVU811
.LBB1221:
	.loc 3 132 2 view .LVU812
	.loc 3 133 2 view .LVU813
	.loc 3 139 2 view .LVU814
.LBB1222:
.LBI1222:
	.loc 4 43 59 view .LVU815
.LBB1223:
	.loc 4 45 2 view .LVU816
	.loc 4 54 2 view .LVU817
	.loc 4 56 2 view .LVU818
	.syntax unified
@ 56 "/home/sebin/thesis/zephyrproject/zephyr/include/arch/arm/aarch32/asm_inline_gcc.h" 1
	mov r3, #4;mrs r4, BASEPRI;msr BASEPRI_MAX, r3;isb;
@ 0 "" 2
.LVL196:
	.loc 4 76 2 view .LVU819
	.loc 4 76 2 is_stmt 0 view .LVU820
	.thumb
	.syntax unified
.LBE1223:
.LBE1222:
	.loc 3 156 2 is_stmt 1 view .LVU821
	.loc 3 156 2 is_stmt 0 view .LVU822
.LBE1221:
.LBE1220:
	.loc 1 619 2 is_stmt 1 view .LVU823
.LBB1224:
.LBI1224:
	.loc 6 96 19 view .LVU824
.LBB1225:
	.loc 6 98 2 view .LVU825
	.loc 6 98 22 is_stmt 0 view .LVU826
	ldrb	r3, [r0, #13]	@ zero_extendqisi2
.LVL197:
	.loc 6 98 22 view .LVU827
.LBE1225:
.LBE1224:
	.loc 1 619 5 view .LVU828
	tst	r3, #16
	bne	.L138
	.loc 1 620 3 is_stmt 1 view .LVU829
.LVL198:
.LBB1226:
.LBI1226:
	.loc 3 180 51 view .LVU830
.LBE1226:
	.loc 3 183 2 view .LVU831
	.loc 3 198 2 view .LVU832
.LBB1229:
.LBB1227:
.LBI1227:
	.loc 4 84 51 view .LVU833
.LBB1228:
	.loc 4 95 2 view .LVU834
	.syntax unified
@ 95 "/home/sebin/thesis/zephyrproject/zephyr/include/arch/arm/aarch32/asm_inline_gcc.h" 1
	msr BASEPRI, r4;isb;
@ 0 "" 2
.LVL199:
	.loc 4 95 2 is_stmt 0 view .LVU835
	.thumb
	.syntax unified
.LBE1228:
.LBE1227:
.LBE1229:
	.loc 1 621 3 is_stmt 1 view .LVU836
.L137:
	.loc 1 630 1 is_stmt 0 view .LVU837
	pop	{r4, pc}
.LVL200:
.L138:
	.loc 1 624 2 is_stmt 1 view .LVU838
.LBB1230:
.LBI1230:
	.loc 6 148 20 view .LVU839
.LBB1231:
	.loc 6 150 2 view .LVU840
	.loc 6 150 28 is_stmt 0 view .LVU841
	bic	r3, r3, #16
	strb	r3, [r0, #13]
	.loc 6 152 2 is_stmt 1 view .LVU842
	.loc 6 152 7 view .LVU843
	.loc 6 152 15 view .LVU844
.LVL201:
	.loc 6 152 15 is_stmt 0 view .LVU845
.LBE1231:
.LBE1230:
	.loc 1 625 2 is_stmt 1 view .LVU846
	bl	ready_thread
.LVL202:
	.loc 1 627 2 view .LVU847
	mov	r1, r4
	ldr	r0, .L141
	bl	z_reschedule
.LVL203:
	.loc 1 629 2 view .LVU848
	.loc 1 629 7 view .LVU849
	.loc 1 629 15 view .LVU850
	b	.L137
.L142:
	.align	2
.L141:
	.word	.LANCHOR3
	.cfi_endproc
.LFE629:
	.size	z_impl_k_thread_resume, .-z_impl_k_thread_resume
	.section	.text.z_thread_timeout,"ax",%progbits
	.align	1
	.global	z_thread_timeout
	.syntax unified
	.thumb
	.thumb_func
	.fpu fpv4-sp-d16
	.type	z_thread_timeout, %function
z_thread_timeout:
.LVL204:
.LFB638:
	.loc 1 715 1 view -0
	.cfi_startproc
	@ args = 0, pretend = 0, frame = 0
	@ frame_needed = 0, uses_anonymous_args = 0
	.loc 1 715 1 is_stmt 0 view .LVU852
	push	{r4, r5, r6, lr}
	.cfi_def_cfa_offset 16
	.cfi_offset 4, -16
	.cfi_offset 5, -12
	.cfi_offset 6, -8
	.cfi_offset 14, -4
	mov	r4, r0
	.loc 1 716 2 is_stmt 1 view .LVU853
	.loc 1 716 19 is_stmt 0 view .LVU854
	sub	r5, r0, #24
.LVL205:
	.loc 1 719 2 is_stmt 1 view .LVU855
.LBB1250:
	.loc 1 719 7 view .LVU856
	.loc 1 719 24 is_stmt 0 view .LVU857
	movs	r3, #0
.LVL206:
.LBB1251:
.LBI1251:
	.loc 3 130 63 is_stmt 1 view .LVU858
.LBB1252:
	.loc 3 132 2 view .LVU859
	.loc 3 133 2 view .LVU860
	.loc 3 139 2 view .LVU861
.LBB1253:
.LBI1253:
	.loc 4 43 59 view .LVU862
.LBB1254:
	.loc 4 45 2 view .LVU863
	.loc 4 54 2 view .LVU864
	.loc 4 56 2 view .LVU865
	.syntax unified
@ 56 "/home/sebin/thesis/zephyrproject/zephyr/include/arch/arm/aarch32/asm_inline_gcc.h" 1
	mov r2, #4;mrs r6, BASEPRI;msr BASEPRI_MAX, r2;isb;
@ 0 "" 2
.LVL207:
	.loc 4 76 2 view .LVU866
	.loc 4 76 2 is_stmt 0 view .LVU867
	.thumb
	.syntax unified
.LBE1254:
.LBE1253:
	.loc 3 156 2 is_stmt 1 view .LVU868
	.loc 3 156 9 is_stmt 0 view .LVU869
	b	.L144
.LVL208:
.L150:
	.loc 3 156 9 view .LVU870
.LBE1252:
.LBE1251:
.LBB1255:
	.loc 1 725 5 is_stmt 1 view .LVU871
.LBB1256:
.LBI1256:
	.loc 1 698 20 view .LVU872
.LBB1257:
	.loc 1 700 2 view .LVU873
	.loc 1 700 22 is_stmt 0 view .LVU874
	mov	r0, r5
	bl	pended_on_thread
.LVL209:
	.loc 1 700 2 view .LVU875
	mov	r1, r5
	bl	z_priq_dumb_remove
.LVL210:
	.loc 1 701 2 is_stmt 1 view .LVU876
.LBB1258:
.LBI1258:
	.loc 6 165 20 view .LVU877
.LBB1259:
	.loc 6 167 2 view .LVU878
	.loc 6 167 28 is_stmt 0 view .LVU879
	ldrb	r3, [r5, #13]	@ zero_extendqisi2
	bic	r3, r3, #2
	strb	r3, [r5, #13]
.LVL211:
	.loc 6 167 28 view .LVU880
.LBE1259:
.LBE1258:
	.loc 1 702 2 is_stmt 1 view .LVU881
	.loc 1 702 25 is_stmt 0 view .LVU882
	movs	r3, #0
	str	r3, [r5, #8]
.LVL212:
.L146:
	.loc 1 702 25 view .LVU883
.LBE1257:
.LBE1256:
	.loc 1 727 4 is_stmt 1 view .LVU884
.LBB1260:
.LBI1260:
	.loc 6 155 20 view .LVU885
.LBB1261:
	.loc 6 157 2 view .LVU886
	.loc 6 157 28 is_stmt 0 view .LVU887
	ldrb	r3, [r4, #-11]	@ zero_extendqisi2
.LVL213:
	.loc 6 157 28 view .LVU888
.LBE1261:
.LBE1260:
	.loc 1 728 4 is_stmt 1 view .LVU889
.LBB1262:
.LBI1262:
	.loc 6 148 20 view .LVU890
.LBB1263:
	.loc 6 150 2 view .LVU891
	.loc 6 150 28 is_stmt 0 view .LVU892
	and	r3, r3, #235
	strb	r3, [r4, #-11]
	.loc 6 152 2 is_stmt 1 view .LVU893
	.loc 6 152 7 view .LVU894
	.loc 6 152 15 view .LVU895
.LVL214:
	.loc 6 152 15 is_stmt 0 view .LVU896
.LBE1263:
.LBE1262:
	.loc 1 729 4 is_stmt 1 view .LVU897
	mov	r0, r5
	bl	ready_thread
.LVL215:
.L145:
	.loc 1 729 4 is_stmt 0 view .LVU898
.LBE1255:
	.loc 1 719 82 is_stmt 1 discriminator 2 view .LVU899
.LBB1264:
.LBI1264:
	.loc 3 180 51 discriminator 2 view .LVU900
.LBB1265:
	.loc 3 183 2 discriminator 2 view .LVU901
	.loc 3 198 2 discriminator 2 view .LVU902
.LBB1266:
.LBI1266:
	.loc 4 84 51 discriminator 2 view .LVU903
.LBB1267:
	.loc 4 95 2 discriminator 2 view .LVU904
	.syntax unified
@ 95 "/home/sebin/thesis/zephyrproject/zephyr/include/arch/arm/aarch32/asm_inline_gcc.h" 1
	msr BASEPRI, r6;isb;
@ 0 "" 2
.LVL216:
	.loc 4 95 2 is_stmt 0 discriminator 2 view .LVU905
	.thumb
	.syntax unified
.LBE1267:
.LBE1266:
.LBE1265:
.LBE1264:
	.loc 1 719 129 discriminator 2 view .LVU906
	movs	r3, #1
.L144:
	.loc 1 719 72 is_stmt 1 discriminator 1 view .LVU907
.LVL217:
	.loc 1 719 2 is_stmt 0 discriminator 1 view .LVU908
	cbnz	r3, .L149
.LBB1268:
	.loc 1 720 2 is_stmt 1 view .LVU909
	.loc 1 720 30 is_stmt 0 view .LVU910
	ldrb	r3, [r4, #-11]	@ zero_extendqisi2
.LVL218:
	.loc 1 723 3 is_stmt 1 view .LVU911
	.loc 1 723 6 is_stmt 0 view .LVU912
	tst	r3, #40
	bne	.L145
	.loc 1 724 4 is_stmt 1 view .LVU913
	.loc 1 724 20 is_stmt 0 view .LVU914
	ldr	r3, [r4, #-16]
.LVL219:
	.loc 1 724 7 view .LVU915
	cmp	r3, #0
	bne	.L150
	b	.L146
.LVL220:
.L149:
	.loc 1 724 7 view .LVU916
.LBE1268:
.LBE1250:
	.loc 1 732 1 view .LVU917
	pop	{r4, r5, r6, pc}
	.loc 1 732 1 view .LVU918
	.cfi_endproc
.LFE638:
	.size	z_thread_timeout, .-z_thread_timeout
	.section	.text.unready_thread,"ax",%progbits
	.align	1
	.syntax unified
	.thumb
	.thumb_func
	.fpu fpv4-sp-d16
	.type	unready_thread, %function
unready_thread:
.LVL221:
.LFB631:
	.loc 1 649 1 is_stmt 1 view -0
	.cfi_startproc
	@ args = 0, pretend = 0, frame = 0
	@ frame_needed = 0, uses_anonymous_args = 0
	.loc 1 649 1 is_stmt 0 view .LVU920
	push	{r4, lr}
	.cfi_def_cfa_offset 8
	.cfi_offset 4, -8
	.cfi_offset 14, -4
	mov	r4, r0
	.loc 1 650 2 is_stmt 1 view .LVU921
.LVL222:
.LBB1269:
.LBI1269:
	.loc 6 136 19 view .LVU922
.LBE1269:
	.loc 6 138 2 view .LVU923
.LBB1272:
.LBB1270:
.LBI1270:
	.loc 6 131 19 view .LVU924
.LBB1271:
	.loc 6 133 2 view .LVU925
	.loc 6 133 22 is_stmt 0 view .LVU926
	ldrb	r2, [r0, #13]	@ zero_extendqisi2
.LVL223:
	.loc 6 133 22 view .LVU927
.LBE1271:
.LBE1270:
.LBE1272:
	.loc 1 650 5 view .LVU928
	ldrsb	r3, [r0, #13]
	cmp	r3, #0
	blt	.L154
.LVL224:
.L152:
	.loc 1 653 2 is_stmt 1 view .LVU929
	.loc 1 653 40 is_stmt 0 view .LVU930
	ldr	r3, .L155
	ldr	r0, [r3, #8]
	.loc 1 653 2 view .LVU931
	cmp	r0, r4
	ite	ne
	movne	r0, #0
	moveq	r0, #1
	bl	update_cache
.LVL225:
	.loc 1 654 1 view .LVU932
	pop	{r4, pc}
.LVL226:
.L154:
	.loc 1 651 3 is_stmt 1 view .LVU933
.LBB1273:
.LBI1273:
	.loc 1 264 51 view .LVU934
.LBB1274:
	.loc 1 266 2 view .LVU935
	.loc 1 266 28 is_stmt 0 view .LVU936
	and	r2, r2, #127
	strb	r2, [r0, #13]
	.loc 1 267 2 is_stmt 1 view .LVU937
.LVL227:
	.loc 1 267 2 is_stmt 0 view .LVU938
.LBE1274:
.LBE1273:
	.loc 1 247 2 is_stmt 1 view .LVU939
.LBB1282:
.LBB1280:
	.loc 1 268 3 view .LVU940
.LBB1275:
.LBI1275:
	.loc 1 232 51 view .LVU941
.LBB1276:
	.loc 1 234 2 view .LVU942
.LBB1277:
.LBI1277:
	.loc 1 199 52 view .LVU943
.LBE1277:
.LBE1276:
.LBE1275:
.LBE1280:
.LBE1282:
	.loc 1 214 2 view .LVU944
.LBB1283:
.LBB1281:
.LBB1279:
.LBB1278:
	.loc 1 234 2 is_stmt 0 view .LVU945
	mov	r1, r0
	ldr	r0, .L155+4
.LVL228:
	.loc 1 234 2 view .LVU946
	bl	z_priq_dumb_remove
.LVL229:
	.loc 1 234 2 view .LVU947
.LBE1278:
.LBE1279:
	.loc 1 270 1 view .LVU948
	b	.L152
.L156:
	.align	2
.L155:
	.word	_kernel
	.word	_kernel+28
.LBE1281:
.LBE1283:
	.cfi_endproc
.LFE631:
	.size	unready_thread, .-unready_thread
	.section	.text.add_to_waitq_locked,"ax",%progbits
	.align	1
	.syntax unified
	.thumb
	.thumb_func
	.fpu fpv4-sp-d16
	.type	add_to_waitq_locked, %function
add_to_waitq_locked:
.LVL230:
.LFB632:
	.loc 1 658 1 is_stmt 1 view -0
	.cfi_startproc
	@ args = 0, pretend = 0, frame = 0
	@ frame_needed = 0, uses_anonymous_args = 0
	.loc 1 658 1 is_stmt 0 view .LVU950
	push	{r4, r5, r6, lr}
	.cfi_def_cfa_offset 16
	.cfi_offset 4, -16
	.cfi_offset 5, -12
	.cfi_offset 6, -8
	.cfi_offset 14, -4
	mov	r5, r0
	mov	r6, r1
	.loc 1 659 2 is_stmt 1 view .LVU951
	bl	unready_thread
.LVL231:
	.loc 1 660 2 view .LVU952
.LBB1284:
.LBI1284:
	.loc 6 160 20 view .LVU953
.LBB1285:
	.loc 6 162 2 view .LVU954
	.loc 6 162 28 is_stmt 0 view .LVU955
	ldrb	r3, [r5, #13]	@ zero_extendqisi2
	orr	r3, r3, #2
	strb	r3, [r5, #13]
.LVL232:
	.loc 6 162 28 view .LVU956
.LBE1285:
.LBE1284:
	.loc 1 662 2 is_stmt 1 view .LVU957
	.loc 1 662 7 view .LVU958
	.loc 1 662 15 view .LVU959
	.loc 1 664 2 view .LVU960
	.loc 1 664 5 is_stmt 0 view .LVU961
	cbz	r6, .L157
	.loc 1 665 3 is_stmt 1 view .LVU962
	.loc 1 665 26 is_stmt 0 view .LVU963
	str	r6, [r5, #8]
	.loc 1 666 3 is_stmt 1 view .LVU964
.LVL233:
.LBB1286:
.LBI1286:
	.loc 1 181 51 view .LVU965
.LBB1287:
	.loc 1 184 2 view .LVU966
	.loc 1 186 4 view .LVU967
	.loc 1 186 5 view .LVU968
	.loc 1 188 2 view .LVU969
.LBB1288:
.LBI1288:
	.loc 10 294 28 view .LVU970
.LBB1289:
	.loc 10 296 2 view .LVU971
.LBB1290:
.LBI1290:
	.loc 10 266 19 view .LVU972
.LBB1291:
	.loc 10 268 2 view .LVU973
	.loc 10 268 13 is_stmt 0 view .LVU974
	ldr	r4, [r6]
.LVL234:
	.loc 10 268 13 view .LVU975
.LBE1291:
.LBE1290:
	.loc 10 296 40 view .LVU976
	cmp	r6, r4
	beq	.L166
.LVL235:
.L162:
	.loc 10 296 40 view .LVU977
.LBE1289:
.LBE1288:
	.loc 1 188 4 is_stmt 1 view .LVU978
	.loc 1 188 2 is_stmt 0 view .LVU979
	cbz	r4, .L161
	.loc 1 189 3 is_stmt 1 view .LVU980
	.loc 1 189 7 is_stmt 0 view .LVU981
	mov	r1, r4
	mov	r0, r5
	bl	z_sched_prio_cmp
.LVL236:
	.loc 1 189 6 view .LVU982
	cmp	r0, #0
	bgt	.L167
	.loc 1 188 3 is_stmt 1 view .LVU983
.LVL237:
.LBB1292:
.LBI1292:
	.loc 10 341 28 view .LVU984
.LBB1293:
	.loc 10 344 2 view .LVU985
	.loc 10 344 66 is_stmt 0 view .LVU986
	cbz	r4, .L161
.LVL238:
.LBB1294:
.LBI1294:
	.loc 10 325 28 is_stmt 1 view .LVU987
.LBB1295:
	.loc 10 328 2 view .LVU988
	.loc 10 328 22 is_stmt 0 view .LVU989
	ldr	r3, [r6, #4]
	.loc 10 328 36 view .LVU990
	cmp	r4, r3
	beq	.L161
	ldr	r4, [r4]
.LVL239:
	.loc 10 328 36 view .LVU991
.LBE1295:
.LBE1294:
.LBE1293:
.LBE1292:
	.loc 1 188 4 view .LVU992
	cmp	r4, #0
	bne	.L162
.L161:
	.loc 1 196 2 is_stmt 1 view .LVU993
.LVL240:
.LBB1296:
.LBI1296:
	.loc 10 404 20 view .LVU994
.LBB1297:
	.loc 10 406 2 view .LVU995
	.loc 10 406 21 is_stmt 0 view .LVU996
	ldr	r3, [r6, #4]
.LVL241:
	.loc 10 408 2 is_stmt 1 view .LVU997
	.loc 10 408 13 is_stmt 0 view .LVU998
	str	r6, [r5]
	.loc 10 409 2 is_stmt 1 view .LVU999
	.loc 10 409 13 is_stmt 0 view .LVU1000
	str	r3, [r5, #4]
	.loc 10 411 2 is_stmt 1 view .LVU1001
	.loc 10 411 13 is_stmt 0 view .LVU1002
	str	r5, [r3]
	.loc 10 412 2 is_stmt 1 view .LVU1003
	.loc 10 412 13 is_stmt 0 view .LVU1004
	str	r5, [r6, #4]
.LVL242:
.L157:
	.loc 10 412 13 view .LVU1005
.LBE1297:
.LBE1296:
.LBE1287:
.LBE1286:
	.loc 1 668 1 view .LVU1006
	pop	{r4, r5, r6, pc}
.LVL243:
.L167:
.LBB1301:
.LBB1300:
	.loc 1 190 4 is_stmt 1 view .LVU1007
.LBB1298:
.LBI1298:
	.loc 10 443 20 view .LVU1008
.LBB1299:
	.loc 10 445 2 view .LVU1009
	.loc 10 445 21 is_stmt 0 view .LVU1010
	ldr	r3, [r4, #4]
.LVL244:
	.loc 10 447 2 is_stmt 1 view .LVU1011
	.loc 10 447 13 is_stmt 0 view .LVU1012
	str	r3, [r5, #4]
	.loc 10 448 2 is_stmt 1 view .LVU1013
	.loc 10 448 13 is_stmt 0 view .LVU1014
	str	r4, [r5]
	.loc 10 449 2 is_stmt 1 view .LVU1015
	.loc 10 449 13 is_stmt 0 view .LVU1016
	str	r5, [r3]
	.loc 10 450 2 is_stmt 1 view .LVU1017
	.loc 10 450 18 is_stmt 0 view .LVU1018
	str	r5, [r4, #4]
	.loc 10 451 1 view .LVU1019
	b	.L157
.LVL245:
.L166:
	.loc 10 451 1 view .LVU1020
.LBE1299:
.LBE1298:
	.loc 1 188 4 view .LVU1021
	movs	r4, #0
	b	.L162
.LBE1300:
.LBE1301:
	.cfi_endproc
.LFE632:
	.size	add_to_waitq_locked, .-add_to_waitq_locked
	.section	.text.pend,"ax",%progbits
	.align	1
	.syntax unified
	.thumb
	.thumb_func
	.fpu fpv4-sp-d16
	.type	pend, %function
pend:
.LVL246:
.LFB634:
	.loc 1 679 1 is_stmt 1 view -0
	.cfi_startproc
	@ args = 0, pretend = 0, frame = 0
	@ frame_needed = 0, uses_anonymous_args = 0
	.loc 1 679 1 is_stmt 0 view .LVU1023
	push	{r3, r4, r5, r6, r7, r8, r9, lr}
	.cfi_def_cfa_offset 32
	.cfi_offset 3, -32
	.cfi_offset 4, -28
	.cfi_offset 5, -24
	.cfi_offset 6, -20
	.cfi_offset 7, -16
	.cfi_offset 8, -12
	.cfi_offset 9, -8
	.cfi_offset 14, -4
	mov	r5, r0
	mov	r7, r1
	mov	r9, r2
.LVL247:
	.loc 1 679 1 view .LVU1024
	mov	r8, r3
	.loc 1 684 2 is_stmt 1 view .LVU1025
.LBB1302:
	.loc 1 684 7 view .LVU1026
	.loc 1 684 24 is_stmt 0 view .LVU1027
	movs	r4, #0
.LVL248:
.LBB1303:
.LBI1303:
	.loc 3 130 63 is_stmt 1 view .LVU1028
.LBB1304:
	.loc 3 132 2 view .LVU1029
	.loc 3 133 2 view .LVU1030
	.loc 3 139 2 view .LVU1031
.LBB1305:
.LBI1305:
	.loc 4 43 59 view .LVU1032
.LBB1306:
	.loc 4 45 2 view .LVU1033
	.loc 4 54 2 view .LVU1034
	.loc 4 56 2 view .LVU1035
	.syntax unified
@ 56 "/home/sebin/thesis/zephyrproject/zephyr/include/arch/arm/aarch32/asm_inline_gcc.h" 1
	mov r3, #4;mrs r6, BASEPRI;msr BASEPRI_MAX, r3;isb;
@ 0 "" 2
.LVL249:
	.loc 4 76 2 view .LVU1036
	.loc 4 76 2 is_stmt 0 view .LVU1037
	.thumb
	.syntax unified
.LBE1306:
.LBE1305:
	.loc 3 156 2 is_stmt 1 view .LVU1038
.L169:
	.loc 3 156 2 is_stmt 0 view .LVU1039
.LBE1304:
.LBE1303:
	.loc 1 684 72 is_stmt 1 discriminator 1 view .LVU1040
	.loc 1 684 2 is_stmt 0 discriminator 1 view .LVU1041
	cbnz	r4, .L172
	.loc 1 685 3 is_stmt 1 discriminator 3 view .LVU1042
	mov	r1, r7
	mov	r0, r5
	bl	add_to_waitq_locked
.LVL250:
	.loc 1 684 82 discriminator 3 view .LVU1043
.LBB1307:
.LBI1307:
	.loc 3 180 51 discriminator 3 view .LVU1044
.LBB1308:
	.loc 3 183 2 discriminator 3 view .LVU1045
	.loc 3 198 2 discriminator 3 view .LVU1046
.LBB1309:
.LBI1309:
	.loc 4 84 51 discriminator 3 view .LVU1047
.LBB1310:
	.loc 4 95 2 discriminator 3 view .LVU1048
	.syntax unified
@ 95 "/home/sebin/thesis/zephyrproject/zephyr/include/arch/arm/aarch32/asm_inline_gcc.h" 1
	msr BASEPRI, r6;isb;
@ 0 "" 2
.LVL251:
	.loc 4 95 2 is_stmt 0 discriminator 3 view .LVU1049
	.thumb
	.syntax unified
.LBE1310:
.LBE1309:
.LBE1308:
.LBE1307:
	.loc 1 684 129 discriminator 3 view .LVU1050
	movs	r4, #1
.LVL252:
	.loc 1 684 129 discriminator 3 view .LVU1051
	b	.L169
.LVL253:
.L172:
	.loc 1 684 129 discriminator 3 view .LVU1052
.LBE1302:
	.loc 1 688 2 is_stmt 1 view .LVU1053
	.loc 1 688 2 is_stmt 0 view .LVU1054
	mov	r2, r9
.LVL254:
	.loc 1 688 2 view .LVU1055
	mov	r3, r8
	mov	r0, r5
	bl	add_thread_timeout
.LVL255:
	.loc 1 689 1 view .LVU1056
	pop	{r3, r4, r5, r6, r7, r8, r9, pc}
	.loc 1 689 1 view .LVU1057
	.cfi_endproc
.LFE634:
	.size	pend, .-pend
	.section	.text.z_pend_thread,"ax",%progbits
	.align	1
	.global	z_pend_thread
	.syntax unified
	.thumb
	.thumb_func
	.fpu fpv4-sp-d16
	.type	z_pend_thread, %function
z_pend_thread:
.LVL256:
.LFB635:
	.loc 1 693 1 is_stmt 1 view -0
	.cfi_startproc
	@ args = 0, pretend = 0, frame = 0
	@ frame_needed = 0, uses_anonymous_args = 0
	.loc 1 693 1 is_stmt 0 view .LVU1059
	push	{r3, lr}
	.cfi_def_cfa_offset 8
	.cfi_offset 3, -8
	.cfi_offset 14, -4
	.loc 1 694 4 is_stmt 1 view .LVU1060
	.loc 1 694 5 view .LVU1061
	.loc 1 695 2 view .LVU1062
	bl	pend
.LVL257:
	.loc 1 696 1 is_stmt 0 view .LVU1063
	pop	{r3, pc}
	.cfi_endproc
.LFE635:
	.size	z_pend_thread, .-z_pend_thread
	.section	.text.z_pend_curr_irqlock,"ax",%progbits
	.align	1
	.global	z_pend_curr_irqlock
	.syntax unified
	.thumb
	.thumb_func
	.fpu fpv4-sp-d16
	.type	z_pend_curr_irqlock, %function
z_pend_curr_irqlock:
.LVL258:
.LFB639:
	.loc 1 736 1 is_stmt 1 view -0
	.cfi_startproc
	@ args = 0, pretend = 0, frame = 0
	@ frame_needed = 0, uses_anonymous_args = 0
	.loc 1 736 1 is_stmt 0 view .LVU1065
	push	{r3, r4, r5, lr}
	.cfi_def_cfa_offset 16
	.cfi_offset 3, -16
	.cfi_offset 4, -12
	.cfi_offset 5, -8
	.cfi_offset 14, -4
	mov	r4, r0
	.loc 1 737 2 is_stmt 1 view .LVU1066
	ldr	r5, .L182
	ldr	r0, [r5, #8]
.LVL259:
	.loc 1 737 2 is_stmt 0 view .LVU1067
	bl	pend
.LVL260:
	.loc 1 740 2 is_stmt 1 view .LVU1068
	.loc 1 740 35 is_stmt 0 view .LVU1069
	ldr	r2, [r5, #8]
	.loc 1 740 18 view .LVU1070
	ldr	r3, .L182+4
	str	r2, [r3]
	.loc 1 742 2 is_stmt 1 view .LVU1071
.LVL261:
.LBB1311:
.LBI1311:
	.loc 9 180 19 view .LVU1072
.LBB1312:
	.loc 9 182 2 view .LVU1073
	.loc 9 183 2 view .LVU1074
	.loc 9 184 2 view .LVU1075
	.loc 9 184 8 is_stmt 0 view .LVU1076
	mov	r0, r4
	bl	arch_swap
.LVL262:
	.loc 9 185 2 is_stmt 1 view .LVU1077
	.loc 9 185 2 is_stmt 0 view .LVU1078
.LBE1312:
.LBE1311:
	.loc 1 743 2 is_stmt 1 view .LVU1079
.LBB1313:
	.loc 1 743 7 view .LVU1080
	.loc 1 743 24 is_stmt 0 view .LVU1081
	movs	r3, #0
.LVL263:
.LBB1314:
.LBI1314:
	.loc 3 130 63 is_stmt 1 view .LVU1082
.LBB1315:
	.loc 3 132 2 view .LVU1083
	.loc 3 133 2 view .LVU1084
	.loc 3 139 2 view .LVU1085
.LBB1316:
.LBI1316:
	.loc 4 43 59 view .LVU1086
.LBB1317:
	.loc 4 45 2 view .LVU1087
	.loc 4 54 2 view .LVU1088
	.loc 4 56 2 view .LVU1089
	.syntax unified
@ 56 "/home/sebin/thesis/zephyrproject/zephyr/include/arch/arm/aarch32/asm_inline_gcc.h" 1
	mov r2, #4;mrs r1, BASEPRI;msr BASEPRI_MAX, r2;isb;
@ 0 "" 2
.LVL264:
	.loc 4 76 2 view .LVU1090
	.loc 4 76 2 is_stmt 0 view .LVU1091
	.thumb
	.syntax unified
.LBE1317:
.LBE1316:
	.loc 3 156 2 is_stmt 1 view .LVU1092
	.loc 3 156 9 is_stmt 0 view .LVU1093
	b	.L176
.LVL265:
.L181:
	.loc 3 156 9 view .LVU1094
.LBE1315:
.LBE1314:
	.loc 1 745 4 is_stmt 1 view .LVU1095
	.loc 1 745 20 is_stmt 0 view .LVU1096
	ldr	r3, .L182+4
	movs	r2, #0
	str	r2, [r3]
.L177:
	.loc 1 743 82 is_stmt 1 discriminator 2 view .LVU1097
.LVL266:
.LBB1318:
.LBI1318:
	.loc 3 180 51 discriminator 2 view .LVU1098
.LBB1319:
	.loc 3 183 2 discriminator 2 view .LVU1099
	.loc 3 198 2 discriminator 2 view .LVU1100
.LBB1320:
.LBI1320:
	.loc 4 84 51 discriminator 2 view .LVU1101
.LBB1321:
	.loc 4 95 2 discriminator 2 view .LVU1102
	.syntax unified
@ 95 "/home/sebin/thesis/zephyrproject/zephyr/include/arch/arm/aarch32/asm_inline_gcc.h" 1
	msr BASEPRI, r1;isb;
@ 0 "" 2
.LVL267:
	.loc 4 95 2 is_stmt 0 discriminator 2 view .LVU1103
	.thumb
	.syntax unified
.LBE1321:
.LBE1320:
.LBE1319:
.LBE1318:
	.loc 1 743 129 discriminator 2 view .LVU1104
	movs	r3, #1
.L176:
	.loc 1 743 72 is_stmt 1 discriminator 1 view .LVU1105
.LVL268:
	.loc 1 743 2 is_stmt 0 discriminator 1 view .LVU1106
	cbnz	r3, .L180
	.loc 1 744 3 is_stmt 1 view .LVU1107
	.loc 1 744 41 is_stmt 0 view .LVU1108
	ldr	r3, .L182
.LVL269:
	.loc 1 744 41 view .LVU1109
	ldr	r2, [r3, #8]
	.loc 1 744 23 view .LVU1110
	ldr	r3, .L182+4
	ldr	r3, [r3]
	.loc 1 744 6 view .LVU1111
	cmp	r2, r3
	bne	.L177
	b	.L181
.LVL270:
.L180:
	.loc 1 744 6 view .LVU1112
.LBE1313:
	.loc 1 752 1 view .LVU1113
	pop	{r3, r4, r5, pc}
.LVL271:
.L183:
	.loc 1 752 1 view .LVU1114
	.align	2
.L182:
	.word	_kernel
	.word	.LANCHOR2
	.cfi_endproc
.LFE639:
	.size	z_pend_curr_irqlock, .-z_pend_curr_irqlock
	.section	.text.z_pend_curr,"ax",%progbits
	.align	1
	.global	z_pend_curr
	.syntax unified
	.thumb
	.thumb_func
	.fpu fpv4-sp-d16
	.type	z_pend_curr, %function
z_pend_curr:
.LVL272:
.LFB640:
	.loc 1 756 1 is_stmt 1 view -0
	.cfi_startproc
	@ args = 8, pretend = 0, frame = 0
	@ frame_needed = 0, uses_anonymous_args = 0
	.loc 1 756 1 is_stmt 0 view .LVU1116
	push	{r4, lr}
	.cfi_def_cfa_offset 8
	.cfi_offset 4, -8
	.cfi_offset 14, -4
	mov	r4, r1
.LVL273:
	.loc 1 756 1 view .LVU1117
	mov	r1, r2
	.loc 1 758 2 is_stmt 1 view .LVU1118
	.loc 1 758 35 is_stmt 0 view .LVU1119
	ldr	r3, .L186
	ldr	r0, [r3, #8]
.LVL274:
	.loc 1 758 18 view .LVU1120
	ldr	r3, .L186+4
	str	r0, [r3]
	.loc 1 760 2 is_stmt 1 view .LVU1121
	ldrd	r2, [sp, #8]
.LVL275:
	.loc 1 760 2 is_stmt 0 view .LVU1122
	bl	pend
.LVL276:
	.loc 1 761 2 is_stmt 1 view .LVU1123
.LBB1322:
.LBI1322:
	.loc 9 192 50 view .LVU1124
.LBB1323:
	.loc 9 194 2 view .LVU1125
	.loc 9 194 2 is_stmt 0 view .LVU1126
.LBE1323:
.LBE1322:
	.loc 3 206 2 is_stmt 1 view .LVU1127
.LBB1327:
.LBB1326:
	.loc 9 195 2 view .LVU1128
.LBB1324:
.LBI1324:
	.loc 9 180 19 view .LVU1129
.LBB1325:
	.loc 9 182 2 view .LVU1130
	.loc 9 183 2 view .LVU1131
	.loc 9 184 2 view .LVU1132
	.loc 9 184 8 is_stmt 0 view .LVU1133
	mov	r0, r4
	bl	arch_swap
.LVL277:
	.loc 9 185 2 is_stmt 1 view .LVU1134
	.loc 9 185 2 is_stmt 0 view .LVU1135
.LBE1325:
.LBE1324:
.LBE1326:
.LBE1327:
	.loc 1 762 1 view .LVU1136
	pop	{r4, pc}
.LVL278:
.L187:
	.loc 1 762 1 view .LVU1137
	.align	2
.L186:
	.word	_kernel
	.word	.LANCHOR2
	.cfi_endproc
.LFE640:
	.size	z_pend_curr, .-z_pend_curr
	.section	.text.z_set_prio,"ax",%progbits
	.align	1
	.global	z_set_prio
	.syntax unified
	.thumb
	.thumb_func
	.fpu fpv4-sp-d16
	.type	z_set_prio, %function
z_set_prio:
.LVL279:
.LFB644:
	.loc 1 805 1 is_stmt 1 view -0
	.cfi_startproc
	@ args = 0, pretend = 0, frame = 0
	@ frame_needed = 0, uses_anonymous_args = 0
	.loc 1 805 1 is_stmt 0 view .LVU1139
	push	{r3, r4, r5, r6, r7, r8, r9, lr}
	.cfi_def_cfa_offset 32
	.cfi_offset 3, -32
	.cfi_offset 4, -28
	.cfi_offset 5, -24
	.cfi_offset 6, -20
	.cfi_offset 7, -16
	.cfi_offset 8, -12
	.cfi_offset 9, -8
	.cfi_offset 14, -4
	mov	r4, r0
	mov	r7, r1
	.loc 1 806 1 is_stmt 1 view .LVU1140
.LVL280:
	.loc 1 808 2 view .LVU1141
.LBB1328:
	.loc 1 808 7 view .LVU1142
	.loc 1 808 24 is_stmt 0 view .LVU1143
	movs	r3, #0
.LVL281:
.LBB1329:
.LBI1329:
	.loc 3 130 63 is_stmt 1 view .LVU1144
.LBB1330:
	.loc 3 132 2 view .LVU1145
	.loc 3 133 2 view .LVU1146
	.loc 3 139 2 view .LVU1147
.LBB1331:
.LBI1331:
	.loc 4 43 59 view .LVU1148
.LBB1332:
	.loc 4 45 2 view .LVU1149
	.loc 4 54 2 view .LVU1150
	.loc 4 56 2 view .LVU1151
	.syntax unified
@ 56 "/home/sebin/thesis/zephyrproject/zephyr/include/arch/arm/aarch32/asm_inline_gcc.h" 1
	mov r2, #4;mrs r6, BASEPRI;msr BASEPRI_MAX, r2;isb;
@ 0 "" 2
.LVL282:
	.loc 4 76 2 view .LVU1152
	.loc 4 76 2 is_stmt 0 view .LVU1153
	.thumb
	.syntax unified
.LBE1332:
.LBE1331:
	.loc 3 156 2 is_stmt 1 view .LVU1154
	.loc 3 156 2 is_stmt 0 view .LVU1155
.LBE1330:
.LBE1329:
.LBE1328:
	.loc 1 806 6 view .LVU1156
	mov	r8, r3
.LBB1396:
.LBB1334:
.LBB1333:
	.loc 3 156 9 view .LVU1157
	b	.L189
.LVL283:
.L190:
	.loc 3 156 9 view .LVU1158
.LBE1333:
.LBE1334:
	.loc 1 811 3 is_stmt 1 view .LVU1159
	.loc 1 811 6 is_stmt 0 view .LVU1160
	ands	r8, r2, #1
	bne	.L202
	.loc 1 822 4 is_stmt 1 view .LVU1161
	.loc 1 822 22 is_stmt 0 view .LVU1162
	strb	r7, [r4, #14]
.LVL284:
.L198:
	.loc 1 808 82 is_stmt 1 discriminator 2 view .LVU1163
.LBB1335:
.LBI1335:
	.loc 3 180 51 discriminator 2 view .LVU1164
.LBB1336:
	.loc 3 183 2 discriminator 2 view .LVU1165
	.loc 3 198 2 discriminator 2 view .LVU1166
.LBB1337:
.LBI1337:
	.loc 4 84 51 discriminator 2 view .LVU1167
.LBB1338:
	.loc 4 95 2 discriminator 2 view .LVU1168
	.syntax unified
@ 95 "/home/sebin/thesis/zephyrproject/zephyr/include/arch/arm/aarch32/asm_inline_gcc.h" 1
	msr BASEPRI, r6;isb;
@ 0 "" 2
.LVL285:
	.loc 4 95 2 is_stmt 0 discriminator 2 view .LVU1169
	.thumb
	.syntax unified
.LBE1338:
.LBE1337:
.LBE1336:
.LBE1335:
	.loc 1 808 129 discriminator 2 view .LVU1170
	movs	r3, #1
.LVL286:
.L189:
	.loc 1 808 72 is_stmt 1 discriminator 1 view .LVU1171
	.loc 1 808 76 is_stmt 0 discriminator 1 view .LVU1172
	mov	r2, r3
	.loc 1 808 2 discriminator 1 view .LVU1173
	cmp	r3, #0
	bne	.L203
	.loc 1 809 3 is_stmt 1 view .LVU1174
.LVL287:
.LBB1339:
.LBI1339:
	.loc 6 120 19 view .LVU1175
.LBB1340:
	.loc 6 122 2 view .LVU1176
.LBB1341:
.LBI1341:
	.loc 6 106 19 view .LVU1177
.LBB1342:
	.loc 6 108 2 view .LVU1178
	.loc 6 108 10 is_stmt 0 view .LVU1179
	ldrb	r3, [r4, #13]	@ zero_extendqisi2
.LVL288:
	.loc 6 110 2 is_stmt 1 view .LVU1180
	.loc 6 110 2 is_stmt 0 view .LVU1181
.LBE1342:
.LBE1341:
	.loc 6 122 9 view .LVU1182
	tst	r3, #31
	bne	.L190
.LVL289:
.LBB1343:
.LBI1343:
	.loc 6 115 19 is_stmt 1 view .LVU1183
.LBE1343:
.LBE1340:
.LBE1339:
.LBE1396:
	.loc 6 117 2 view .LVU1184
.LBB1397:
.LBB1352:
.LBB1350:
.LBB1348:
.LBB1344:
.LBI1344:
	.loc 2 35 19 view .LVU1185
.LBE1344:
.LBE1348:
.LBE1350:
.LBE1352:
.LBE1397:
	.loc 2 37 2 view .LVU1186
.LBB1398:
.LBB1353:
.LBB1351:
.LBB1349:
.LBB1347:
.LBB1345:
.LBI1345:
	.loc 10 225 19 view .LVU1187
.LBB1346:
	.loc 10 227 2 view .LVU1188
	.loc 10 227 13 is_stmt 0 view .LVU1189
	ldr	r1, [r4, #24]
.LVL290:
	.loc 10 227 13 view .LVU1190
.LBE1346:
.LBE1345:
.LBE1347:
.LBE1349:
	.loc 6 122 9 view .LVU1191
	cmp	r1, #0
	bne	.L190
	movs	r2, #1
	b	.L190
.LVL291:
.L202:
	.loc 6 122 9 view .LVU1192
.LBE1351:
.LBE1353:
	.loc 1 813 4 is_stmt 1 view .LVU1193
	.loc 1 814 5 view .LVU1194
.LBB1354:
.LBI1354:
	.loc 1 264 51 view .LVU1195
.LBB1355:
	.loc 1 266 2 view .LVU1196
	.loc 1 266 28 is_stmt 0 view .LVU1197
	and	r3, r3, #127
	strb	r3, [r4, #13]
	.loc 1 267 2 is_stmt 1 view .LVU1198
.LVL292:
	.loc 1 267 2 is_stmt 0 view .LVU1199
.LBE1355:
.LBE1354:
.LBE1398:
	.loc 1 247 2 is_stmt 1 view .LVU1200
.LBB1399:
.LBB1363:
.LBB1361:
	.loc 1 268 3 view .LVU1201
.LBB1356:
.LBI1356:
	.loc 1 232 51 view .LVU1202
.LBB1357:
	.loc 1 234 2 view .LVU1203
.LBB1358:
.LBI1358:
	.loc 1 199 52 view .LVU1204
.LBE1358:
.LBE1357:
.LBE1356:
.LBE1361:
.LBE1363:
.LBE1399:
	.loc 1 214 2 view .LVU1205
.LBB1400:
.LBB1364:
.LBB1362:
.LBB1360:
.LBB1359:
	.loc 1 234 2 is_stmt 0 view .LVU1206
	ldr	r9, .L206+4
	mov	r1, r4
	mov	r0, r9
	bl	z_priq_dumb_remove
.LVL293:
	.loc 1 234 2 view .LVU1207
.LBE1359:
.LBE1360:
.LBE1362:
.LBE1364:
	.loc 1 815 5 is_stmt 1 view .LVU1208
	.loc 1 815 23 is_stmt 0 view .LVU1209
	strb	r7, [r4, #14]
	.loc 1 816 5 is_stmt 1 view .LVU1210
.LVL294:
.LBB1365:
.LBI1365:
	.loc 1 250 51 view .LVU1211
.LBB1366:
	.loc 1 252 2 view .LVU1212
	.loc 1 252 28 is_stmt 0 view .LVU1213
	ldrb	r3, [r4, #13]	@ zero_extendqisi2
	orn	r3, r3, #127
	strb	r3, [r4, #13]
	.loc 1 253 2 is_stmt 1 view .LVU1214
.LVL295:
	.loc 1 253 2 is_stmt 0 view .LVU1215
.LBE1366:
.LBE1365:
.LBE1400:
	.loc 1 247 2 is_stmt 1 view .LVU1216
.LBB1401:
.LBB1392:
.LBB1388:
	.loc 1 254 3 view .LVU1217
.LBB1367:
.LBI1367:
	.loc 1 227 51 view .LVU1218
.LBE1367:
.LBE1388:
.LBE1392:
.LBE1401:
	.loc 1 229 2 view .LVU1219
.LBB1402:
.LBB1393:
.LBB1389:
.LBB1385:
.LBB1368:
.LBI1368:
	.loc 1 199 52 view .LVU1220
.LBE1368:
.LBE1385:
.LBE1389:
.LBE1393:
.LBE1402:
	.loc 1 214 2 view .LVU1221
.LBB1403:
.LBB1394:
.LBB1390:
.LBB1386:
.LBB1369:
.LBI1369:
	.loc 1 181 51 view .LVU1222
.LBB1370:
	.loc 1 184 2 view .LVU1223
	.loc 1 186 4 view .LVU1224
	.loc 1 186 5 view .LVU1225
	.loc 1 188 2 view .LVU1226
.LBB1371:
.LBI1371:
	.loc 10 294 28 view .LVU1227
.LBB1372:
	.loc 10 296 2 view .LVU1228
.LBB1373:
.LBI1373:
	.loc 10 266 19 view .LVU1229
.LBB1374:
	.loc 10 268 2 view .LVU1230
	.loc 10 268 13 is_stmt 0 view .LVU1231
	ldr	r5, [r9]
.LVL296:
	.loc 10 268 13 view .LVU1232
.LBE1374:
.LBE1373:
	.loc 10 296 40 view .LVU1233
	cmp	r5, r9
	beq	.L204
.LVL297:
.L196:
	.loc 10 296 40 view .LVU1234
.LBE1372:
.LBE1371:
	.loc 1 188 4 is_stmt 1 view .LVU1235
	.loc 1 188 2 is_stmt 0 view .LVU1236
	cbz	r5, .L195
	.loc 1 189 3 is_stmt 1 view .LVU1237
	.loc 1 189 7 is_stmt 0 view .LVU1238
	mov	r1, r5
	mov	r0, r4
	bl	z_sched_prio_cmp
.LVL298:
	.loc 1 189 6 view .LVU1239
	cmp	r0, #0
	bgt	.L205
	.loc 1 188 3 is_stmt 1 view .LVU1240
.LVL299:
.LBB1375:
.LBI1375:
	.loc 10 341 28 view .LVU1241
.LBB1376:
	.loc 10 344 2 view .LVU1242
	.loc 10 344 66 is_stmt 0 view .LVU1243
	cbz	r5, .L195
.LVL300:
.LBB1377:
.LBI1377:
	.loc 10 325 28 is_stmt 1 view .LVU1244
.LBB1378:
	.loc 10 328 2 view .LVU1245
	.loc 10 328 22 is_stmt 0 view .LVU1246
	ldr	r3, .L206
	ldr	r3, [r3, #32]
	.loc 10 328 36 view .LVU1247
	cmp	r5, r3
	beq	.L195
	ldr	r5, [r5]
.LVL301:
	.loc 10 328 36 view .LVU1248
.LBE1378:
.LBE1377:
.LBE1376:
.LBE1375:
	.loc 1 188 4 view .LVU1249
	cmp	r5, #0
	bne	.L196
.L195:
	.loc 1 196 2 is_stmt 1 view .LVU1250
.LVL302:
.LBB1379:
.LBI1379:
	.loc 10 404 20 view .LVU1251
.LBB1380:
	.loc 10 406 2 view .LVU1252
	.loc 10 406 21 is_stmt 0 view .LVU1253
	ldr	r3, .L206
	ldr	r2, [r3, #32]
.LVL303:
	.loc 10 408 2 is_stmt 1 view .LVU1254
	.loc 10 408 13 is_stmt 0 view .LVU1255
	add	r1, r3, #28
	str	r1, [r4]
	.loc 10 409 2 is_stmt 1 view .LVU1256
	.loc 10 409 13 is_stmt 0 view .LVU1257
	str	r2, [r4, #4]
	.loc 10 411 2 is_stmt 1 view .LVU1258
	.loc 10 411 13 is_stmt 0 view .LVU1259
	str	r4, [r2]
	.loc 10 412 2 is_stmt 1 view .LVU1260
	.loc 10 412 13 is_stmt 0 view .LVU1261
	str	r4, [r3, #32]
.LVL304:
.L194:
	.loc 10 412 13 view .LVU1262
.LBE1380:
.LBE1379:
.LBE1370:
.LBE1369:
.LBE1386:
.LBE1390:
.LBE1394:
	.loc 1 820 4 is_stmt 1 view .LVU1263
	movs	r0, #1
	bl	update_cache
.LVL305:
	b	.L198
.LVL306:
.L205:
.LBB1395:
.LBB1391:
.LBB1387:
.LBB1384:
.LBB1383:
	.loc 1 190 4 view .LVU1264
.LBB1381:
.LBI1381:
	.loc 10 443 20 view .LVU1265
.LBB1382:
	.loc 10 445 2 view .LVU1266
	.loc 10 445 21 is_stmt 0 view .LVU1267
	ldr	r3, [r5, #4]
.LVL307:
	.loc 10 447 2 is_stmt 1 view .LVU1268
	.loc 10 447 13 is_stmt 0 view .LVU1269
	str	r3, [r4, #4]
	.loc 10 448 2 is_stmt 1 view .LVU1270
	.loc 10 448 13 is_stmt 0 view .LVU1271
	str	r5, [r4]
	.loc 10 449 2 is_stmt 1 view .LVU1272
	.loc 10 449 13 is_stmt 0 view .LVU1273
	str	r4, [r3]
	.loc 10 450 2 is_stmt 1 view .LVU1274
	.loc 10 450 18 is_stmt 0 view .LVU1275
	str	r4, [r5, #4]
	.loc 10 451 1 view .LVU1276
	b	.L194
.LVL308:
.L204:
	.loc 10 451 1 view .LVU1277
.LBE1382:
.LBE1381:
	.loc 1 188 4 view .LVU1278
	movs	r5, #0
	b	.L196
.LVL309:
.L203:
	.loc 1 188 4 view .LVU1279
.LBE1383:
.LBE1384:
.LBE1387:
.LBE1391:
.LBE1395:
.LBE1403:
	.loc 1 826 2 is_stmt 1 view .LVU1280
	.loc 1 826 7 view .LVU1281
	.loc 1 826 15 view .LVU1282
	.loc 1 828 2 view .LVU1283
	.loc 1 829 1 is_stmt 0 view .LVU1284
	mov	r0, r8
	pop	{r3, r4, r5, r6, r7, r8, r9, pc}
.LVL310:
.L207:
	.loc 1 829 1 view .LVU1285
	.align	2
.L206:
	.word	_kernel
	.word	_kernel+28
	.cfi_endproc
.LFE644:
	.size	z_set_prio, .-z_set_prio
	.section	.text.z_thread_priority_set,"ax",%progbits
	.align	1
	.global	z_thread_priority_set
	.syntax unified
	.thumb
	.thumb_func
	.fpu fpv4-sp-d16
	.type	z_thread_priority_set, %function
z_thread_priority_set:
.LVL311:
.LFB645:
	.loc 1 832 1 is_stmt 1 view -0
	.cfi_startproc
	@ args = 0, pretend = 0, frame = 0
	@ frame_needed = 0, uses_anonymous_args = 0
	.loc 1 832 1 is_stmt 0 view .LVU1287
	push	{r3, lr}
	.cfi_def_cfa_offset 8
	.cfi_offset 3, -8
	.cfi_offset 14, -4
	.loc 1 833 1 is_stmt 1 view .LVU1288
	.loc 1 833 19 is_stmt 0 view .LVU1289
	bl	z_set_prio
.LVL312:
	.loc 1 839 2 is_stmt 1 view .LVU1290
	.loc 1 839 5 is_stmt 0 view .LVU1291
	cbz	r0, .L208
	.loc 1 839 35 discriminator 1 view .LVU1292
	ldr	r3, .L212
	ldr	r3, [r3, #8]
	.loc 1 839 49 discriminator 1 view .LVU1293
	ldrb	r3, [r3, #15]	@ zero_extendqisi2
	.loc 1 839 17 discriminator 1 view .LVU1294
	cbz	r3, .L211
.LVL313:
.L208:
	.loc 1 842 1 view .LVU1295
	pop	{r3, pc}
.LVL314:
.L211:
	.loc 1 840 3 is_stmt 1 view .LVU1296
.LBB1404:
.LBI1404:
	.loc 6 73 20 view .LVU1297
.LBB1405:
	.loc 6 75 2 view .LVU1298
.LBB1406:
.LBI1406:
	.loc 4 43 59 view .LVU1299
.LBB1407:
	.loc 4 45 2 view .LVU1300
	.loc 4 54 2 view .LVU1301
	.loc 4 56 2 view .LVU1302
	.syntax unified
@ 56 "/home/sebin/thesis/zephyrproject/zephyr/include/arch/arm/aarch32/asm_inline_gcc.h" 1
	mov r3, #4;mrs r0, BASEPRI;msr BASEPRI_MAX, r3;isb;
@ 0 "" 2
.LVL315:
	.loc 4 76 2 view .LVU1303
	.loc 4 76 2 is_stmt 0 view .LVU1304
	.thumb
	.syntax unified
.LBE1407:
.LBE1406:
	.loc 6 75 2 view .LVU1305
	bl	z_reschedule_irqlock
.LVL316:
.LBE1405:
.LBE1404:
	.loc 1 842 1 view .LVU1306
	b	.L208
.L213:
	.align	2
.L212:
	.word	_kernel
	.cfi_endproc
.LFE645:
	.size	z_thread_priority_set, .-z_thread_priority_set
	.section	.text.z_impl_k_thread_suspend,"ax",%progbits
	.align	1
	.global	z_impl_k_thread_suspend
	.syntax unified
	.thumb
	.thumb_func
	.fpu fpv4-sp-d16
	.type	z_impl_k_thread_suspend, %function
z_impl_k_thread_suspend:
.LVL317:
.LFB628:
	.loc 1 583 1 is_stmt 1 view -0
	.cfi_startproc
	@ args = 0, pretend = 0, frame = 0
	@ frame_needed = 0, uses_anonymous_args = 0
	.loc 1 583 1 is_stmt 0 view .LVU1308
	push	{r3, r4, r5, lr}
	.cfi_def_cfa_offset 16
	.cfi_offset 3, -16
	.cfi_offset 4, -12
	.cfi_offset 5, -8
	.cfi_offset 14, -4
	mov	r4, r0
	.loc 1 584 2 is_stmt 1 view .LVU1309
	.loc 1 584 7 view .LVU1310
	.loc 1 584 15 view .LVU1311
	.loc 1 586 2 view .LVU1312
.LVL318:
.LBB1408:
.LBI1408:
	.loc 2 52 19 view .LVU1313
.LBB1409:
	.loc 2 54 2 view .LVU1314
	.loc 2 54 9 is_stmt 0 view .LVU1315
	adds	r0, r0, #24
.LVL319:
	.loc 2 54 9 view .LVU1316
	bl	z_abort_timeout
.LVL320:
	.loc 2 54 9 view .LVU1317
.LBE1409:
.LBE1408:
	.loc 1 588 2 is_stmt 1 view .LVU1318
.LBB1410:
	.loc 1 588 7 view .LVU1319
	.loc 1 588 24 is_stmt 0 view .LVU1320
	movs	r3, #0
.LVL321:
.LBB1411:
.LBI1411:
	.loc 3 130 63 is_stmt 1 view .LVU1321
.LBB1412:
	.loc 3 132 2 view .LVU1322
	.loc 3 133 2 view .LVU1323
	.loc 3 139 2 view .LVU1324
.LBB1413:
.LBI1413:
	.loc 4 43 59 view .LVU1325
.LBB1414:
	.loc 4 45 2 view .LVU1326
	.loc 4 54 2 view .LVU1327
	.loc 4 56 2 view .LVU1328
	.syntax unified
@ 56 "/home/sebin/thesis/zephyrproject/zephyr/include/arch/arm/aarch32/asm_inline_gcc.h" 1
	mov r2, #4;mrs r5, BASEPRI;msr BASEPRI_MAX, r2;isb;
@ 0 "" 2
.LVL322:
	.loc 4 76 2 view .LVU1329
	.loc 4 76 2 is_stmt 0 view .LVU1330
	.thumb
	.syntax unified
.LBE1414:
.LBE1413:
	.loc 3 156 2 is_stmt 1 view .LVU1331
	.loc 3 156 9 is_stmt 0 view .LVU1332
	b	.L215
.LVL323:
.L216:
	.loc 3 156 9 view .LVU1333
.LBE1412:
.LBE1411:
	.loc 1 592 3 is_stmt 1 discriminator 2 view .LVU1334
.LBB1415:
.LBI1415:
	.loc 6 141 20 discriminator 2 view .LVU1335
.LBB1416:
	.loc 6 143 2 discriminator 2 view .LVU1336
	.loc 6 143 28 is_stmt 0 discriminator 2 view .LVU1337
	ldrb	r3, [r4, #13]	@ zero_extendqisi2
	orr	r3, r3, #16
	strb	r3, [r4, #13]
	.loc 6 145 2 is_stmt 1 discriminator 2 view .LVU1338
	.loc 6 145 7 discriminator 2 view .LVU1339
	.loc 6 145 15 discriminator 2 view .LVU1340
.LVL324:
	.loc 6 145 15 is_stmt 0 discriminator 2 view .LVU1341
.LBE1416:
.LBE1415:
	.loc 1 593 3 is_stmt 1 discriminator 2 view .LVU1342
	.loc 1 593 41 is_stmt 0 discriminator 2 view .LVU1343
	ldr	r3, .L222
	ldr	r0, [r3, #8]
	.loc 1 593 3 discriminator 2 view .LVU1344
	cmp	r0, r4
	ite	ne
	movne	r0, #0
	moveq	r0, #1
	bl	update_cache
.LVL325:
	.loc 1 588 82 is_stmt 1 discriminator 2 view .LVU1345
.LBB1417:
.LBI1417:
	.loc 3 180 51 discriminator 2 view .LVU1346
.LBB1418:
	.loc 3 183 2 discriminator 2 view .LVU1347
	.loc 3 198 2 discriminator 2 view .LVU1348
.LBB1419:
.LBI1419:
	.loc 4 84 51 discriminator 2 view .LVU1349
.LBB1420:
	.loc 4 95 2 discriminator 2 view .LVU1350
	.syntax unified
@ 95 "/home/sebin/thesis/zephyrproject/zephyr/include/arch/arm/aarch32/asm_inline_gcc.h" 1
	msr BASEPRI, r5;isb;
@ 0 "" 2
.LVL326:
	.loc 4 95 2 is_stmt 0 discriminator 2 view .LVU1351
	.thumb
	.syntax unified
.LBE1420:
.LBE1419:
.LBE1418:
.LBE1417:
	.loc 1 588 129 discriminator 2 view .LVU1352
	movs	r3, #1
.L215:
	.loc 1 588 72 is_stmt 1 discriminator 1 view .LVU1353
.LVL327:
	.loc 1 588 2 is_stmt 0 discriminator 1 view .LVU1354
	cbnz	r3, .L220
	.loc 1 589 3 is_stmt 1 view .LVU1355
.LVL328:
.LBB1421:
.LBI1421:
	.loc 6 136 19 view .LVU1356
.LBE1421:
.LBE1410:
	.loc 6 138 2 view .LVU1357
.LBB1436:
.LBB1424:
.LBB1422:
.LBI1422:
	.loc 6 131 19 view .LVU1358
.LBB1423:
	.loc 6 133 2 view .LVU1359
	.loc 6 133 22 is_stmt 0 view .LVU1360
	ldrb	r2, [r4, #13]	@ zero_extendqisi2
.LVL329:
	.loc 6 133 22 view .LVU1361
.LBE1423:
.LBE1422:
.LBE1424:
	.loc 1 589 6 view .LVU1362
	ldrsb	r3, [r4, #13]
.LVL330:
	.loc 1 589 6 view .LVU1363
	cmp	r3, #0
	bge	.L216
	.loc 1 590 4 is_stmt 1 view .LVU1364
.LVL331:
.LBB1425:
.LBI1425:
	.loc 1 264 51 view .LVU1365
.LBB1426:
	.loc 1 266 2 view .LVU1366
	.loc 1 266 28 is_stmt 0 view .LVU1367
	and	r2, r2, #127
	strb	r2, [r4, #13]
	.loc 1 267 2 is_stmt 1 view .LVU1368
.LVL332:
	.loc 1 267 2 is_stmt 0 view .LVU1369
.LBE1426:
.LBE1425:
.LBE1436:
	.loc 1 247 2 is_stmt 1 view .LVU1370
.LBB1437:
.LBB1434:
.LBB1432:
	.loc 1 268 3 view .LVU1371
.LBB1427:
.LBI1427:
	.loc 1 232 51 view .LVU1372
.LBB1428:
	.loc 1 234 2 view .LVU1373
.LBB1429:
.LBI1429:
	.loc 1 199 52 view .LVU1374
.LBE1429:
.LBE1428:
.LBE1427:
.LBE1432:
.LBE1434:
.LBE1437:
	.loc 1 214 2 view .LVU1375
.LBB1438:
.LBB1435:
.LBB1433:
.LBB1431:
.LBB1430:
	.loc 1 234 2 is_stmt 0 view .LVU1376
	mov	r1, r4
	ldr	r0, .L222+4
	bl	z_priq_dumb_remove
.LVL333:
	.loc 1 234 2 view .LVU1377
.LBE1430:
.LBE1431:
	.loc 1 270 1 view .LVU1378
	b	.L216
.LVL334:
.L220:
	.loc 1 270 1 view .LVU1379
.LBE1433:
.LBE1435:
.LBE1438:
	.loc 1 596 2 is_stmt 1 view .LVU1380
	.loc 1 596 31 is_stmt 0 view .LVU1381
	ldr	r3, .L222
.LVL335:
	.loc 1 596 31 view .LVU1382
	ldr	r3, [r3, #8]
	.loc 1 596 5 view .LVU1383
	cmp	r3, r4
	beq	.L221
.L214:
	.loc 1 601 1 view .LVU1384
	pop	{r3, r4, r5, pc}
.LVL336:
.L221:
	.loc 1 597 3 is_stmt 1 view .LVU1385
.LBB1439:
.LBI1439:
	.loc 6 73 20 view .LVU1386
.LBB1440:
	.loc 6 75 2 view .LVU1387
.LBB1441:
.LBI1441:
	.loc 4 43 59 view .LVU1388
.LBB1442:
	.loc 4 45 2 view .LVU1389
	.loc 4 54 2 view .LVU1390
	.loc 4 56 2 view .LVU1391
	.syntax unified
@ 56 "/home/sebin/thesis/zephyrproject/zephyr/include/arch/arm/aarch32/asm_inline_gcc.h" 1
	mov r3, #4;mrs r0, BASEPRI;msr BASEPRI_MAX, r3;isb;
@ 0 "" 2
.LVL337:
	.loc 4 76 2 view .LVU1392
	.loc 4 76 2 is_stmt 0 view .LVU1393
	.thumb
	.syntax unified
.LBE1442:
.LBE1441:
	.loc 6 75 2 view .LVU1394
	bl	z_reschedule_irqlock
.LVL338:
.LBE1440:
.LBE1439:
	.loc 1 600 2 is_stmt 1 view .LVU1395
	.loc 1 600 7 view .LVU1396
	.loc 1 600 15 view .LVU1397
	.loc 1 601 1 is_stmt 0 view .LVU1398
	b	.L214
.L223:
	.align	2
.L222:
	.word	_kernel
	.word	_kernel+28
	.cfi_endproc
.LFE628:
	.size	z_impl_k_thread_suspend, .-z_impl_k_thread_suspend
	.section	.text.k_sched_unlock,"ax",%progbits
	.align	1
	.global	k_sched_unlock
	.syntax unified
	.thumb
	.thumb_func
	.fpu fpv4-sp-d16
	.type	k_sched_unlock, %function
k_sched_unlock:
.LFB651:
	.loc 1 899 1 is_stmt 1 view -0
	.cfi_startproc
	@ args = 0, pretend = 0, frame = 0
	@ frame_needed = 0, uses_anonymous_args = 0
	push	{r4, lr}
	.cfi_def_cfa_offset 8
	.cfi_offset 4, -8
	.cfi_offset 14, -4
	.loc 1 900 2 view .LVU1400
.LBB1443:
	.loc 1 900 7 view .LVU1401
	.loc 1 900 24 is_stmt 0 view .LVU1402
	movs	r3, #0
.LVL339:
.LBB1444:
.LBI1444:
	.loc 3 130 63 is_stmt 1 view .LVU1403
.LBB1445:
	.loc 3 132 2 view .LVU1404
	.loc 3 133 2 view .LVU1405
	.loc 3 139 2 view .LVU1406
.LBB1446:
.LBI1446:
	.loc 4 43 59 view .LVU1407
.LBB1447:
	.loc 4 45 2 view .LVU1408
	.loc 4 54 2 view .LVU1409
	.loc 4 56 2 view .LVU1410
	.syntax unified
@ 56 "/home/sebin/thesis/zephyrproject/zephyr/include/arch/arm/aarch32/asm_inline_gcc.h" 1
	mov r2, #4;mrs r4, BASEPRI;msr BASEPRI_MAX, r2;isb;
@ 0 "" 2
.LVL340:
	.loc 4 76 2 view .LVU1411
	.loc 4 76 2 is_stmt 0 view .LVU1412
	.thumb
	.syntax unified
.LBE1447:
.LBE1446:
	.loc 3 156 2 is_stmt 1 view .LVU1413
.L225:
	.loc 3 156 2 is_stmt 0 view .LVU1414
.LBE1445:
.LBE1444:
	.loc 1 900 72 is_stmt 1 discriminator 1 view .LVU1415
	.loc 1 900 2 is_stmt 0 discriminator 1 view .LVU1416
	cbnz	r3, .L228
	.loc 1 901 5 is_stmt 1 discriminator 3 view .LVU1417
	.loc 1 901 6 discriminator 3 view .LVU1418
	.loc 1 902 5 discriminator 3 view .LVU1419
	.loc 1 902 6 discriminator 3 view .LVU1420
	.loc 1 904 3 discriminator 3 view .LVU1421
	.loc 1 904 20 is_stmt 0 discriminator 3 view .LVU1422
	ldr	r3, .L229
.LVL341:
	.loc 1 904 20 discriminator 3 view .LVU1423
	ldr	r2, [r3, #8]
	.loc 1 904 34 discriminator 3 view .LVU1424
	ldrb	r3, [r2, #15]	@ zero_extendqisi2
	.loc 1 904 3 discriminator 3 view .LVU1425
	adds	r3, r3, #1
	strb	r3, [r2, #15]
	.loc 1 905 3 is_stmt 1 discriminator 3 view .LVU1426
	movs	r0, #0
	bl	update_cache
.LVL342:
	.loc 1 900 82 discriminator 3 view .LVU1427
.LBB1448:
.LBI1448:
	.loc 3 180 51 discriminator 3 view .LVU1428
.LBB1449:
	.loc 3 183 2 discriminator 3 view .LVU1429
	.loc 3 198 2 discriminator 3 view .LVU1430
.LBB1450:
.LBI1450:
	.loc 4 84 51 discriminator 3 view .LVU1431
.LBB1451:
	.loc 4 95 2 discriminator 3 view .LVU1432
	.syntax unified
@ 95 "/home/sebin/thesis/zephyrproject/zephyr/include/arch/arm/aarch32/asm_inline_gcc.h" 1
	msr BASEPRI, r4;isb;
@ 0 "" 2
.LVL343:
	.loc 4 95 2 is_stmt 0 discriminator 3 view .LVU1433
	.thumb
	.syntax unified
.LBE1451:
.LBE1450:
.LBE1449:
.LBE1448:
	.loc 1 900 129 discriminator 3 view .LVU1434
	movs	r3, #1
	.loc 1 900 129 discriminator 3 view .LVU1435
	b	.L225
.LVL344:
.L228:
	.loc 1 900 129 discriminator 3 view .LVU1436
.LBE1443:
	.loc 1 908 2 is_stmt 1 view .LVU1437
.LBB1452:
	.loc 1 908 7 view .LVU1438
.LBE1452:
	.loc 1 908 140 view .LVU1439
	.loc 1 911 2 view .LVU1440
	.loc 1 911 7 view .LVU1441
	.loc 1 911 15 view .LVU1442
	.loc 1 913 2 view .LVU1443
.LBB1453:
.LBI1453:
	.loc 6 73 20 view .LVU1444
.LBB1454:
	.loc 6 75 2 view .LVU1445
.LBB1455:
.LBI1455:
	.loc 4 43 59 view .LVU1446
.LBB1456:
	.loc 4 45 2 view .LVU1447
	.loc 4 54 2 view .LVU1448
	.loc 4 56 2 view .LVU1449
	.syntax unified
@ 56 "/home/sebin/thesis/zephyrproject/zephyr/include/arch/arm/aarch32/asm_inline_gcc.h" 1
	mov r3, #4;mrs r0, BASEPRI;msr BASEPRI_MAX, r3;isb;
@ 0 "" 2
.LVL345:
	.loc 4 76 2 view .LVU1450
	.loc 4 76 2 is_stmt 0 view .LVU1451
	.thumb
	.syntax unified
.LBE1456:
.LBE1455:
	.loc 6 75 2 view .LVU1452
	bl	z_reschedule_irqlock
.LVL346:
.LBE1454:
.LBE1453:
	.loc 1 914 1 view .LVU1453
	pop	{r4, pc}
.LVL347:
.L230:
	.loc 1 914 1 view .LVU1454
	.align	2
.L229:
	.word	_kernel
	.cfi_endproc
.LFE651:
	.size	k_sched_unlock, .-k_sched_unlock
	.section	.text.end_thread,"ax",%progbits
	.align	1
	.syntax unified
	.thumb
	.thumb_func
	.fpu fpv4-sp-d16
	.type	end_thread, %function
end_thread:
.LVL348:
.LFB673:
	.loc 1 1534 1 is_stmt 1 view -0
	.cfi_startproc
	@ args = 0, pretend = 0, frame = 0
	@ frame_needed = 0, uses_anonymous_args = 0
	.loc 1 1538 2 view .LVU1456
	.loc 1 1538 19 is_stmt 0 view .LVU1457
	ldrb	r3, [r0, #13]	@ zero_extendqisi2
	.loc 1 1538 5 view .LVU1458
	tst	r3, #8
	bne	.L239
	.loc 1 1534 1 view .LVU1459
	push	{r4, r5, r6, lr}
	.cfi_def_cfa_offset 16
	.cfi_offset 4, -16
	.cfi_offset 5, -12
	.cfi_offset 6, -8
	.cfi_offset 14, -4
	mov	r5, r0
	.loc 1 1539 3 is_stmt 1 view .LVU1460
	.loc 1 1539 29 is_stmt 0 view .LVU1461
	orr	r3, r3, #8
	.loc 1 1540 3 is_stmt 1 view .LVU1462
	.loc 1 1540 29 is_stmt 0 view .LVU1463
	and	r3, r3, #223
	strb	r3, [r0, #13]
	.loc 1 1541 3 is_stmt 1 view .LVU1464
.LVL349:
	.loc 6 138 2 view .LVU1465
	.loc 6 133 2 view .LVU1466
	.loc 1 1541 6 is_stmt 0 view .LVU1467
	tst	r3, #128
	bne	.L242
.LVL350:
.L233:
	.loc 1 1544 3 is_stmt 1 view .LVU1468
	.loc 1 1544 19 is_stmt 0 view .LVU1469
	ldr	r3, [r5, #8]
	.loc 1 1544 6 view .LVU1470
	cbz	r3, .L234
	.loc 1 1545 4 is_stmt 1 view .LVU1471
.LVL351:
.LBB1484:
.LBI1484:
	.loc 1 698 20 view .LVU1472
.LBB1485:
	.loc 1 700 2 view .LVU1473
	.loc 1 700 22 is_stmt 0 view .LVU1474
	mov	r0, r5
	bl	pended_on_thread
.LVL352:
	.loc 1 700 2 view .LVU1475
	mov	r1, r5
	bl	z_priq_dumb_remove
.LVL353:
	.loc 1 701 2 is_stmt 1 view .LVU1476
.LBB1486:
.LBI1486:
	.loc 6 165 20 view .LVU1477
.LBB1487:
	.loc 6 167 2 view .LVU1478
	.loc 6 167 28 is_stmt 0 view .LVU1479
	ldrb	r3, [r5, #13]	@ zero_extendqisi2
	bic	r3, r3, #2
	strb	r3, [r5, #13]
.LVL354:
	.loc 6 167 28 view .LVU1480
.LBE1487:
.LBE1486:
	.loc 1 702 2 is_stmt 1 view .LVU1481
	.loc 1 702 25 is_stmt 0 view .LVU1482
	movs	r3, #0
	str	r3, [r5, #8]
.LVL355:
.L234:
	.loc 1 702 25 view .LVU1483
.LBE1485:
.LBE1484:
	.loc 1 1547 3 is_stmt 1 view .LVU1484
.LBB1488:
.LBI1488:
	.loc 2 52 19 view .LVU1485
.LBB1489:
	.loc 2 54 2 view .LVU1486
	.loc 2 54 9 is_stmt 0 view .LVU1487
	add	r0, r5, #24
	bl	z_abort_timeout
.LVL356:
	.loc 2 54 9 view .LVU1488
.LBE1489:
.LBE1488:
	.loc 1 1548 3 is_stmt 1 view .LVU1489
	adds	r5, r5, #88
.LVL357:
.LBB1490:
.LBI1490:
	.loc 1 1517 20 view .LVU1490
.LBB1491:
	.loc 1 1519 2 view .LVU1491
	.loc 1 1521 2 view .LVU1492
	.loc 1 1521 8 is_stmt 0 view .LVU1493
	b	.L235
.LVL358:
.L242:
	.loc 1 1521 8 view .LVU1494
.LBE1491:
.LBE1490:
	.loc 1 1542 4 is_stmt 1 view .LVU1495
.LBB1507:
.LBI1507:
	.loc 1 264 51 view .LVU1496
.LBB1508:
	.loc 1 266 2 view .LVU1497
	.loc 1 266 28 is_stmt 0 view .LVU1498
	and	r3, r3, #127
	strb	r3, [r0, #13]
	.loc 1 267 2 is_stmt 1 view .LVU1499
.LVL359:
	.loc 1 267 2 is_stmt 0 view .LVU1500
.LBE1508:
.LBE1507:
	.loc 1 247 2 is_stmt 1 view .LVU1501
.LBB1516:
.LBB1514:
	.loc 1 268 3 view .LVU1502
.LBB1509:
.LBI1509:
	.loc 1 232 51 view .LVU1503
.LBB1510:
	.loc 1 234 2 view .LVU1504
.LBB1511:
.LBI1511:
	.loc 1 199 52 view .LVU1505
.LBE1511:
.LBE1510:
.LBE1509:
.LBE1514:
.LBE1516:
	.loc 1 214 2 view .LVU1506
.LBB1517:
.LBB1515:
.LBB1513:
.LBB1512:
	.loc 1 234 2 is_stmt 0 view .LVU1507
	mov	r1, r0
	ldr	r0, .L243
.LVL360:
	.loc 1 234 2 view .LVU1508
	bl	z_priq_dumb_remove
.LVL361:
	.loc 1 234 2 view .LVU1509
.LBE1512:
.LBE1513:
	.loc 1 270 1 view .LVU1510
	b	.L233
.LVL362:
.L237:
	.loc 1 270 1 view .LVU1511
.LBE1515:
.LBE1517:
.LBB1518:
.LBB1506:
	.loc 1 1522 3 is_stmt 1 view .LVU1512
.LBB1492:
.LBI1492:
	.loc 1 698 20 view .LVU1513
.LBB1493:
	.loc 1 700 2 view .LVU1514
	.loc 1 700 22 is_stmt 0 view .LVU1515
	mov	r0, r4
	bl	pended_on_thread
.LVL363:
	.loc 1 700 2 view .LVU1516
	mov	r1, r4
	bl	z_priq_dumb_remove
.LVL364:
	.loc 1 701 2 is_stmt 1 view .LVU1517
.LBB1494:
.LBI1494:
	.loc 6 165 20 view .LVU1518
.LBB1495:
	.loc 6 167 2 view .LVU1519
	.loc 6 167 28 is_stmt 0 view .LVU1520
	ldrb	r3, [r4, #13]	@ zero_extendqisi2
	bic	r3, r3, #2
	strb	r3, [r4, #13]
.LVL365:
	.loc 6 167 28 view .LVU1521
.LBE1495:
.LBE1494:
	.loc 1 702 2 is_stmt 1 view .LVU1522
	.loc 1 702 25 is_stmt 0 view .LVU1523
	movs	r6, #0
	str	r6, [r4, #8]
.LVL366:
	.loc 1 702 25 view .LVU1524
.LBE1493:
.LBE1492:
	.loc 1 1523 3 is_stmt 1 view .LVU1525
.LBB1496:
.LBI1496:
	.loc 2 52 19 view .LVU1526
.LBB1497:
	.loc 2 54 2 view .LVU1527
	.loc 2 54 9 is_stmt 0 view .LVU1528
	add	r0, r4, #24
	bl	z_abort_timeout
.LVL367:
	.loc 2 54 9 view .LVU1529
.LBE1497:
.LBE1496:
	.loc 1 1524 3 is_stmt 1 view .LVU1530
.LBB1498:
.LBI1498:
	.file 11 "/home/sebin/thesis/zephyrproject/zephyr/arch/arm/include/aarch32/kernel_arch_func.h"
	.loc 11 65 1 view .LVU1531
.LBB1499:
	.loc 11 67 2 view .LVU1532
	.loc 11 67 33 is_stmt 0 view .LVU1533
	str	r6, [r4, #156]
.LVL368:
	.loc 11 67 33 view .LVU1534
.LBE1499:
.LBE1498:
	.loc 1 1525 3 is_stmt 1 view .LVU1535
	mov	r0, r4
	bl	ready_thread
.LVL369:
.L235:
	.loc 1 1521 8 view .LVU1536
.LBB1500:
.LBI1500:
	.file 12 "/home/sebin/thesis/zephyrproject/zephyr/include/wait_q.h"
	.loc 12 52 32 view .LVU1537
.LBB1501:
	.loc 12 54 2 view .LVU1538
.LBB1502:
.LBI1502:
	.loc 10 294 28 view .LVU1539
.LBB1503:
	.loc 10 296 2 view .LVU1540
.LBB1504:
.LBI1504:
	.loc 10 266 19 view .LVU1541
.LBB1505:
	.loc 10 268 2 view .LVU1542
	.loc 10 268 13 is_stmt 0 view .LVU1543
	ldr	r4, [r5]
.LVL370:
	.loc 10 268 13 view .LVU1544
.LBE1505:
.LBE1504:
	.loc 10 296 40 view .LVU1545
	cmp	r4, r5
	beq	.L236
.LVL371:
	.loc 10 296 40 view .LVU1546
.LBE1503:
.LBE1502:
.LBE1501:
.LBE1500:
	.loc 1 1521 8 view .LVU1547
	cmp	r4, #0
	bne	.L237
.LVL372:
.L236:
	.loc 1 1521 8 view .LVU1548
.LBE1506:
.LBE1518:
	.loc 1 1549 3 is_stmt 1 view .LVU1549
	movs	r0, #1
	bl	update_cache
.LVL373:
	.loc 1 1551 3 view .LVU1550
	.loc 1 1551 8 view .LVU1551
	.loc 1 1551 16 view .LVU1552
	.loc 1 1553 3 view .LVU1553
	.loc 1 1553 8 view .LVU1554
	.loc 1 1553 16 view .LVU1555
	.loc 1 1566 1 is_stmt 0 view .LVU1556
	pop	{r4, r5, r6, pc}
.LVL374:
.L239:
	.cfi_def_cfa_offset 0
	.cfi_restore 4
	.cfi_restore 5
	.cfi_restore 6
	.cfi_restore 14
	.loc 1 1566 1 view .LVU1557
	bx	lr
.L244:
	.align	2
.L243:
	.word	_kernel+28
	.cfi_endproc
.LFE673:
	.size	end_thread, .-end_thread
	.section	.text.z_unpend1_no_timeout,"ax",%progbits
	.align	1
	.global	z_unpend1_no_timeout
	.syntax unified
	.thumb
	.thumb_func
	.fpu fpv4-sp-d16
	.type	z_unpend1_no_timeout, %function
z_unpend1_no_timeout:
.LVL375:
.LFB641:
	.loc 1 765 1 is_stmt 1 view -0
	.cfi_startproc
	@ args = 0, pretend = 0, frame = 0
	@ frame_needed = 0, uses_anonymous_args = 0
	.loc 1 765 1 is_stmt 0 view .LVU1559
	push	{r4, r5, r6, lr}
	.cfi_def_cfa_offset 16
	.cfi_offset 4, -16
	.cfi_offset 5, -12
	.cfi_offset 6, -8
	.cfi_offset 14, -4
	mov	r6, r0
	.loc 1 766 2 is_stmt 1 view .LVU1560
.LVL376:
	.loc 1 768 2 view .LVU1561
.LBB1532:
	.loc 1 768 7 view .LVU1562
	.loc 1 768 24 is_stmt 0 view .LVU1563
	movs	r3, #0
.LVL377:
.LBB1533:
.LBI1533:
	.loc 3 130 63 is_stmt 1 view .LVU1564
.LBB1534:
	.loc 3 132 2 view .LVU1565
	.loc 3 133 2 view .LVU1566
	.loc 3 139 2 view .LVU1567
.LBB1535:
.LBI1535:
	.loc 4 43 59 view .LVU1568
.LBB1536:
	.loc 4 45 2 view .LVU1569
	.loc 4 54 2 view .LVU1570
	.loc 4 56 2 view .LVU1571
	.syntax unified
@ 56 "/home/sebin/thesis/zephyrproject/zephyr/include/arch/arm/aarch32/asm_inline_gcc.h" 1
	mov r2, #4;mrs r5, BASEPRI;msr BASEPRI_MAX, r2;isb;
@ 0 "" 2
.LVL378:
	.loc 4 76 2 view .LVU1572
	.loc 4 76 2 is_stmt 0 view .LVU1573
	.thumb
	.syntax unified
.LBE1536:
.LBE1535:
	.loc 3 156 2 is_stmt 1 view .LVU1574
	.loc 3 156 2 is_stmt 0 view .LVU1575
.LBE1534:
.LBE1533:
.LBE1532:
	.loc 1 766 19 view .LVU1576
	mov	r4, r3
.LBB1547:
.LBB1538:
.LBB1537:
	.loc 3 156 9 view .LVU1577
	b	.L246
.LVL379:
.L251:
	.loc 3 156 9 view .LVU1578
.LBE1537:
.LBE1538:
	.loc 1 772 4 is_stmt 1 view .LVU1579
.LBB1539:
.LBI1539:
	.loc 1 698 20 view .LVU1580
.LBB1540:
	.loc 1 700 2 view .LVU1581
	.loc 1 700 22 is_stmt 0 view .LVU1582
	bl	pended_on_thread
.LVL380:
	.loc 1 700 2 view .LVU1583
	mov	r1, r4
	bl	z_priq_dumb_remove
.LVL381:
	.loc 1 701 2 is_stmt 1 view .LVU1584
.LBB1541:
.LBI1541:
	.loc 6 165 20 view .LVU1585
.LBB1542:
	.loc 6 167 2 view .LVU1586
	.loc 6 167 28 is_stmt 0 view .LVU1587
	ldrb	r3, [r4, #13]	@ zero_extendqisi2
	bic	r3, r3, #2
	strb	r3, [r4, #13]
.LVL382:
	.loc 6 167 28 view .LVU1588
.LBE1542:
.LBE1541:
	.loc 1 702 2 is_stmt 1 view .LVU1589
	.loc 1 702 25 is_stmt 0 view .LVU1590
	movs	r3, #0
	str	r3, [r4, #8]
.LVL383:
.L247:
	.loc 1 702 25 view .LVU1591
.LBE1540:
.LBE1539:
	.loc 1 768 82 is_stmt 1 discriminator 2 view .LVU1592
.LBB1543:
.LBI1543:
	.loc 3 180 51 discriminator 2 view .LVU1593
.LBB1544:
	.loc 3 183 2 discriminator 2 view .LVU1594
	.loc 3 198 2 discriminator 2 view .LVU1595
.LBB1545:
.LBI1545:
	.loc 4 84 51 discriminator 2 view .LVU1596
.LBB1546:
	.loc 4 95 2 discriminator 2 view .LVU1597
	.syntax unified
@ 95 "/home/sebin/thesis/zephyrproject/zephyr/include/arch/arm/aarch32/asm_inline_gcc.h" 1
	msr BASEPRI, r5;isb;
@ 0 "" 2
.LVL384:
	.loc 4 95 2 is_stmt 0 discriminator 2 view .LVU1598
	.thumb
	.syntax unified
.LBE1546:
.LBE1545:
.LBE1544:
.LBE1543:
	.loc 1 768 129 discriminator 2 view .LVU1599
	movs	r3, #1
.LVL385:
.L246:
	.loc 1 768 72 is_stmt 1 discriminator 1 view .LVU1600
	.loc 1 768 2 is_stmt 0 discriminator 1 view .LVU1601
	cbnz	r3, .L250
	.loc 1 769 3 is_stmt 1 view .LVU1602
	.loc 1 769 12 is_stmt 0 view .LVU1603
	mov	r0, r6
	bl	z_priq_dumb_best
.LVL386:
	.loc 1 771 3 is_stmt 1 view .LVU1604
	.loc 1 771 6 is_stmt 0 view .LVU1605
	mov	r4, r0
	cmp	r0, #0
	bne	.L251
	b	.L247
.LVL387:
.L250:
	.loc 1 771 6 view .LVU1606
.LBE1547:
	.loc 1 776 2 is_stmt 1 view .LVU1607
	.loc 1 777 1 is_stmt 0 view .LVU1608
	mov	r0, r4
	pop	{r4, r5, r6, pc}
	.loc 1 777 1 view .LVU1609
	.cfi_endproc
.LFE641:
	.size	z_unpend1_no_timeout, .-z_unpend1_no_timeout
	.section	.text.z_unpend_first_thread,"ax",%progbits
	.align	1
	.global	z_unpend_first_thread
	.syntax unified
	.thumb
	.thumb_func
	.fpu fpv4-sp-d16
	.type	z_unpend_first_thread, %function
z_unpend_first_thread:
.LVL388:
.LFB642:
	.loc 1 780 1 is_stmt 1 view -0
	.cfi_startproc
	@ args = 0, pretend = 0, frame = 0
	@ frame_needed = 0, uses_anonymous_args = 0
	.loc 1 780 1 is_stmt 0 view .LVU1611
	push	{r4, r5, r6, lr}
	.cfi_def_cfa_offset 16
	.cfi_offset 4, -16
	.cfi_offset 5, -12
	.cfi_offset 6, -8
	.cfi_offset 14, -4
	mov	r6, r0
	.loc 1 781 2 is_stmt 1 view .LVU1612
.LVL389:
	.loc 1 783 2 view .LVU1613
.LBB1563:
	.loc 1 783 7 view .LVU1614
	.loc 1 783 24 is_stmt 0 view .LVU1615
	movs	r3, #0
.LVL390:
.LBB1564:
.LBI1564:
	.loc 3 130 63 is_stmt 1 view .LVU1616
.LBB1565:
	.loc 3 132 2 view .LVU1617
	.loc 3 133 2 view .LVU1618
	.loc 3 139 2 view .LVU1619
.LBB1566:
.LBI1566:
	.loc 4 43 59 view .LVU1620
.LBB1567:
	.loc 4 45 2 view .LVU1621
	.loc 4 54 2 view .LVU1622
	.loc 4 56 2 view .LVU1623
	.syntax unified
@ 56 "/home/sebin/thesis/zephyrproject/zephyr/include/arch/arm/aarch32/asm_inline_gcc.h" 1
	mov r2, #4;mrs r5, BASEPRI;msr BASEPRI_MAX, r2;isb;
@ 0 "" 2
.LVL391:
	.loc 4 76 2 view .LVU1624
	.loc 4 76 2 is_stmt 0 view .LVU1625
	.thumb
	.syntax unified
.LBE1567:
.LBE1566:
	.loc 3 156 2 is_stmt 1 view .LVU1626
	.loc 3 156 2 is_stmt 0 view .LVU1627
.LBE1565:
.LBE1564:
.LBE1563:
	.loc 1 781 19 view .LVU1628
	mov	r4, r3
.LBB1580:
.LBB1569:
.LBB1568:
	.loc 3 156 9 view .LVU1629
	b	.L253
.LVL392:
.L258:
	.loc 3 156 9 view .LVU1630
.LBE1568:
.LBE1569:
	.loc 1 787 4 is_stmt 1 view .LVU1631
.LBB1570:
.LBI1570:
	.loc 1 698 20 view .LVU1632
.LBB1571:
	.loc 1 700 2 view .LVU1633
	.loc 1 700 22 is_stmt 0 view .LVU1634
	bl	pended_on_thread
.LVL393:
	.loc 1 700 2 view .LVU1635
	mov	r1, r4
	bl	z_priq_dumb_remove
.LVL394:
	.loc 1 701 2 is_stmt 1 view .LVU1636
.LBB1572:
.LBI1572:
	.loc 6 165 20 view .LVU1637
.LBB1573:
	.loc 6 167 2 view .LVU1638
	.loc 6 167 28 is_stmt 0 view .LVU1639
	ldrb	r3, [r4, #13]	@ zero_extendqisi2
	bic	r3, r3, #2
	strb	r3, [r4, #13]
.LVL395:
	.loc 6 167 28 view .LVU1640
.LBE1573:
.LBE1572:
	.loc 1 702 2 is_stmt 1 view .LVU1641
	.loc 1 702 25 is_stmt 0 view .LVU1642
	movs	r3, #0
	str	r3, [r4, #8]
.LVL396:
	.loc 1 702 25 view .LVU1643
.LBE1571:
.LBE1570:
	.loc 1 788 4 is_stmt 1 view .LVU1644
.LBB1574:
.LBI1574:
	.loc 2 52 19 view .LVU1645
.LBB1575:
	.loc 2 54 2 view .LVU1646
	.loc 2 54 9 is_stmt 0 view .LVU1647
	add	r0, r4, #24
	bl	z_abort_timeout
.LVL397:
.L254:
	.loc 2 54 9 view .LVU1648
.LBE1575:
.LBE1574:
	.loc 1 783 82 is_stmt 1 discriminator 2 view .LVU1649
.LBB1576:
.LBI1576:
	.loc 3 180 51 discriminator 2 view .LVU1650
.LBB1577:
	.loc 3 183 2 discriminator 2 view .LVU1651
	.loc 3 198 2 discriminator 2 view .LVU1652
.LBB1578:
.LBI1578:
	.loc 4 84 51 discriminator 2 view .LVU1653
.LBB1579:
	.loc 4 95 2 discriminator 2 view .LVU1654
	.syntax unified
@ 95 "/home/sebin/thesis/zephyrproject/zephyr/include/arch/arm/aarch32/asm_inline_gcc.h" 1
	msr BASEPRI, r5;isb;
@ 0 "" 2
.LVL398:
	.loc 4 95 2 is_stmt 0 discriminator 2 view .LVU1655
	.thumb
	.syntax unified
.LBE1579:
.LBE1578:
.LBE1577:
.LBE1576:
	.loc 1 783 129 discriminator 2 view .LVU1656
	movs	r3, #1
.LVL399:
.L253:
	.loc 1 783 72 is_stmt 1 discriminator 1 view .LVU1657
	.loc 1 783 2 is_stmt 0 discriminator 1 view .LVU1658
	cbnz	r3, .L257
	.loc 1 784 3 is_stmt 1 view .LVU1659
	.loc 1 784 12 is_stmt 0 view .LVU1660
	mov	r0, r6
	bl	z_priq_dumb_best
.LVL400:
	.loc 1 786 3 is_stmt 1 view .LVU1661
	.loc 1 786 6 is_stmt 0 view .LVU1662
	mov	r4, r0
	cmp	r0, #0
	bne	.L258
	b	.L254
.LVL401:
.L257:
	.loc 1 786 6 view .LVU1663
.LBE1580:
	.loc 1 792 2 is_stmt 1 view .LVU1664
	.loc 1 793 1 is_stmt 0 view .LVU1665
	mov	r0, r4
	pop	{r4, r5, r6, pc}
	.loc 1 793 1 view .LVU1666
	.cfi_endproc
.LFE642:
	.size	z_unpend_first_thread, .-z_unpend_first_thread
	.section	.text.z_priq_rb_lessthan,"ax",%progbits
	.align	1
	.global	z_priq_rb_lessthan
	.syntax unified
	.thumb
	.thumb_func
	.fpu fpv4-sp-d16
	.type	z_priq_rb_lessthan, %function
z_priq_rb_lessthan:
.LVL402:
.LFB655:
	.loc 1 1016 1 is_stmt 1 view -0
	.cfi_startproc
	@ args = 0, pretend = 0, frame = 0
	@ frame_needed = 0, uses_anonymous_args = 0
	.loc 1 1016 1 is_stmt 0 view .LVU1668
	push	{r3, r4, r5, lr}
	.cfi_def_cfa_offset 16
	.cfi_offset 3, -16
	.cfi_offset 4, -12
	.cfi_offset 5, -8
	.cfi_offset 14, -4
	mov	r5, r0
	mov	r4, r1
	.loc 1 1017 2 is_stmt 1 view .LVU1669
	.loc 1 1018 2 view .LVU1670
	.loc 1 1020 2 view .LVU1671
.LVL403:
	.loc 1 1021 2 view .LVU1672
	.loc 1 1023 2 view .LVU1673
	.loc 1 1023 8 is_stmt 0 view .LVU1674
	bl	z_sched_prio_cmp
.LVL404:
	.loc 1 1025 2 is_stmt 1 view .LVU1675
	.loc 1 1025 5 is_stmt 0 view .LVU1676
	cmp	r0, #0
	.loc 1 1025 5 view .LVU1677
	bgt	.L261
	.loc 1 1027 9 is_stmt 1 view .LVU1678
	.loc 1 1027 12 is_stmt 0 view .LVU1679
	blt	.L262
	.loc 1 1030 3 is_stmt 1 view .LVU1680
	.loc 1 1030 24 is_stmt 0 view .LVU1681
	ldr	r0, [r5, #16]
.LVL405:
	.loc 1 1030 51 view .LVU1682
	ldr	r3, [r4, #16]
	.loc 1 1031 8 view .LVU1683
	cmp	r0, r3
	ite	cs
	movcs	r0, #0
	movcc	r0, #1
	b	.L260
.LVL406:
.L261:
	.loc 1 1026 9 view .LVU1684
	movs	r0, #1
.LVL407:
.L260:
	.loc 1 1033 1 view .LVU1685
	pop	{r3, r4, r5, pc}
.LVL408:
.L262:
	.loc 1 1028 9 view .LVU1686
	movs	r0, #0
.LVL409:
	.loc 1 1028 9 view .LVU1687
	b	.L260
	.cfi_endproc
.LFE655:
	.size	z_priq_rb_lessthan, .-z_priq_rb_lessthan
	.section	.text.z_priq_rb_add,"ax",%progbits
	.align	1
	.global	z_priq_rb_add
	.syntax unified
	.thumb
	.thumb_func
	.fpu fpv4-sp-d16
	.type	z_priq_rb_add, %function
z_priq_rb_add:
.LVL410:
.LFB656:
	.loc 1 1036 1 is_stmt 1 view -0
	.cfi_startproc
	@ args = 0, pretend = 0, frame = 16
	@ frame_needed = 1, uses_anonymous_args = 0
	.loc 1 1036 1 is_stmt 0 view .LVU1689
	push	{r4, r5, r7, lr}
	.cfi_def_cfa_offset 16
	.cfi_offset 4, -16
	.cfi_offset 5, -12
	.cfi_offset 7, -8
	.cfi_offset 14, -4
	sub	sp, sp, #16
	.cfi_def_cfa_offset 32
	add	r7, sp, #0
	.cfi_def_cfa_register 7
	mov	r4, r0
	mov	r5, r1
	.loc 1 1037 2 is_stmt 1 view .LVU1690
	.loc 1 1039 4 view .LVU1691
	.loc 1 1039 5 view .LVU1692
	.loc 1 1041 2 view .LVU1693
	.loc 1 1041 29 is_stmt 0 view .LVU1694
	ldr	r3, [r0, #12]
	.loc 1 1041 45 view .LVU1695
	adds	r2, r3, #1
	str	r2, [r0, #12]
	.loc 1 1041 25 view .LVU1696
	str	r3, [r1, #16]
	.loc 1 1049 2 is_stmt 1 view .LVU1697
	.loc 1 1049 9 is_stmt 0 view .LVU1698
	ldr	r3, [r0, #12]
	.loc 1 1049 5 view .LVU1699
	cbnz	r3, .L265
	.loc 1 1050 3 is_stmt 1 view .LVU1700
.LBB1581:
	.loc 1 1050 8 view .LVU1701
	.loc 1 1050 91 is_stmt 0 view .LVU1702
	ldr	r3, [r0, #8]
	.loc 1 1050 63 view .LVU1703
	lsls	r2, r3, #2
	adds	r2, r2, #7
	bic	r2, r2, #7
	sub	sp, sp, r2
	.loc 1 1050 27 view .LVU1704
	str	sp, [r7, #4]
	.loc 1 1050 153 view .LVU1705
	adds	r3, r3, #7
	bic	r3, r3, #7
	sub	sp, sp, r3
	.loc 1 1050 27 view .LVU1706
	str	sp, [r7, #8]
	mov	r3, #-1
	str	r3, [r7, #12]
.LVL411:
.L266:
	.loc 1 1050 226 is_stmt 1 discriminator 1 view .LVU1707
.LBB1582:
	.loc 1 1050 228 discriminator 1 view .LVU1708
	.loc 1 1050 247 is_stmt 0 discriminator 1 view .LVU1709
	adds	r1, r7, #4
	mov	r0, r4
	bl	z_rb_foreach_next
.LVL412:
	.loc 1 1050 283 is_stmt 1 discriminator 1 view .LVU1710
	.loc 1 1050 283 is_stmt 0 discriminator 1 view .LVU1711
.LBE1582:
	.loc 1 1050 3 discriminator 1 view .LVU1712
	mov	r2, r0
	cbz	r0, .L265
	.loc 1 1051 4 is_stmt 1 view .LVU1713
	.loc 1 1051 26 is_stmt 0 view .LVU1714
	ldr	r3, [r4, #12]
	.loc 1 1051 42 view .LVU1715
	adds	r0, r3, #1
.LVL413:
	.loc 1 1051 42 view .LVU1716
	str	r0, [r4, #12]
	.loc 1 1051 22 view .LVU1717
	str	r3, [r2, #16]
	b	.L266
.LVL414:
.L265:
	.loc 1 1051 22 view .LVU1718
.LBE1581:
	.loc 1 1055 2 is_stmt 1 view .LVU1719
	mov	r1, r5
	mov	r0, r4
	bl	rb_insert
.LVL415:
	.loc 1 1056 1 is_stmt 0 view .LVU1720
	adds	r7, r7, #16
	.cfi_def_cfa_offset 16
	mov	sp, r7
	.cfi_def_cfa_register 13
	@ sp needed
	pop	{r4, r5, r7, pc}
	.loc 1 1056 1 view .LVU1721
	.cfi_endproc
.LFE656:
	.size	z_priq_rb_add, .-z_priq_rb_add
	.section	.text.z_priq_rb_remove,"ax",%progbits
	.align	1
	.global	z_priq_rb_remove
	.syntax unified
	.thumb
	.thumb_func
	.fpu fpv4-sp-d16
	.type	z_priq_rb_remove, %function
z_priq_rb_remove:
.LVL416:
.LFB657:
	.loc 1 1059 1 is_stmt 1 view -0
	.cfi_startproc
	@ args = 0, pretend = 0, frame = 0
	@ frame_needed = 0, uses_anonymous_args = 0
	.loc 1 1059 1 is_stmt 0 view .LVU1723
	push	{r4, lr}
	.cfi_def_cfa_offset 8
	.cfi_offset 4, -8
	.cfi_offset 14, -4
	mov	r4, r0
	.loc 1 1060 4 is_stmt 1 view .LVU1724
	.loc 1 1060 5 view .LVU1725
	.loc 1 1062 2 view .LVU1726
	bl	rb_remove
.LVL417:
	.loc 1 1064 2 view .LVU1727
	.loc 1 1064 15 is_stmt 0 view .LVU1728
	ldr	r3, [r4]
	.loc 1 1064 5 view .LVU1729
	cbz	r3, .L272
.L269:
	.loc 1 1067 1 view .LVU1730
	pop	{r4, pc}
.LVL418:
.L272:
	.loc 1 1065 3 is_stmt 1 view .LVU1731
	.loc 1 1065 22 is_stmt 0 view .LVU1732
	str	r3, [r4, #12]
	.loc 1 1067 1 view .LVU1733
	b	.L269
	.cfi_endproc
.LFE657:
	.size	z_priq_rb_remove, .-z_priq_rb_remove
	.section	.text.z_priq_rb_best,"ax",%progbits
	.align	1
	.global	z_priq_rb_best
	.syntax unified
	.thumb
	.thumb_func
	.fpu fpv4-sp-d16
	.type	z_priq_rb_best, %function
z_priq_rb_best:
.LVL419:
.LFB658:
	.loc 1 1070 1 is_stmt 1 view -0
	.cfi_startproc
	@ args = 0, pretend = 0, frame = 0
	@ frame_needed = 0, uses_anonymous_args = 0
	.loc 1 1070 1 is_stmt 0 view .LVU1735
	push	{r3, lr}
	.cfi_def_cfa_offset 8
	.cfi_offset 3, -8
	.cfi_offset 14, -4
	.loc 1 1071 2 is_stmt 1 view .LVU1736
.LVL420:
	.loc 1 1072 2 view .LVU1737
.LBB1583:
.LBI1583:
	.file 13 "/home/sebin/thesis/zephyrproject/zephyr/include/sys/rb.h"
	.loc 13 115 30 view .LVU1738
.LBB1584:
	.loc 13 117 2 view .LVU1739
	.loc 13 117 9 is_stmt 0 view .LVU1740
	movs	r1, #0
	bl	z_rb_get_minmax
.LVL421:
	.loc 13 117 9 view .LVU1741
.LBE1584:
.LBE1583:
	.loc 1 1074 2 is_stmt 1 view .LVU1742
	.loc 1 1077 2 view .LVU1743
	.loc 1 1078 1 is_stmt 0 view .LVU1744
	pop	{r3, pc}
	.cfi_endproc
.LFE658:
	.size	z_priq_rb_best, .-z_priq_rb_best
	.section	.text.z_priq_mq_best,"ax",%progbits
	.align	1
	.global	z_priq_mq_best
	.syntax unified
	.thumb
	.thumb_func
	.fpu fpv4-sp-d16
	.type	z_priq_mq_best, %function
z_priq_mq_best:
.LVL422:
.LFB659:
	.loc 1 1107 1 is_stmt 1 view -0
	.cfi_startproc
	@ args = 0, pretend = 0, frame = 0
	@ frame_needed = 0, uses_anonymous_args = 0
	@ link register save eliminated.
	.loc 1 1108 2 view .LVU1746
	.loc 1 1108 9 is_stmt 0 view .LVU1747
	ldr	r3, [r0, #256]
	.loc 1 1108 5 view .LVU1748
	cbz	r3, .L277
	.loc 1 1112 2 is_stmt 1 view .LVU1749
.LVL423:
	.loc 1 1113 2 view .LVU1750
	.loc 1 1113 31 is_stmt 0 view .LVU1751
	rbit	r3, r3
	clz	r3, r3
	.loc 1 1113 15 view .LVU1752
	add	r2, r0, r3, lsl #3
.LVL424:
	.loc 1 1114 2 is_stmt 1 view .LVU1753
.LBB1585:
.LBI1585:
	.loc 10 294 28 view .LVU1754
.LBB1586:
	.loc 10 296 2 view .LVU1755
.LBB1587:
.LBI1587:
	.loc 10 266 19 view .LVU1756
.LBB1588:
	.loc 10 268 2 view .LVU1757
	.loc 10 268 13 is_stmt 0 view .LVU1758
	ldr	r0, [r0, r3, lsl #3]
.LVL425:
	.loc 10 268 13 view .LVU1759
.LBE1588:
.LBE1587:
	.loc 10 296 40 view .LVU1760
	cmp	r2, r0
	beq	.L279
.LVL426:
.L275:
	.loc 10 296 40 view .LVU1761
.LBE1586:
.LBE1585:
	.loc 1 1120 1 view .LVU1762
	bx	lr
.LVL427:
.L277:
	.loc 1 1109 9 view .LVU1763
	movs	r0, #0
.LVL428:
	.loc 1 1109 9 view .LVU1764
	bx	lr
.LVL429:
.L279:
	.loc 1 1112 19 view .LVU1765
	movs	r0, #0
.LVL430:
	.loc 1 1112 19 view .LVU1766
	b	.L275
	.cfi_endproc
.LFE659:
	.size	z_priq_mq_best, .-z_priq_mq_best
	.section	.text.z_unpend_all,"ax",%progbits
	.align	1
	.global	z_unpend_all
	.syntax unified
	.thumb
	.thumb_func
	.fpu fpv4-sp-d16
	.type	z_unpend_all, %function
z_unpend_all:
.LVL431:
.LFB660:
	.loc 1 1123 1 is_stmt 1 view -0
	.cfi_startproc
	@ args = 0, pretend = 0, frame = 0
	@ frame_needed = 0, uses_anonymous_args = 0
	.loc 1 1123 1 is_stmt 0 view .LVU1768
	push	{r3, r4, r5, lr}
	.cfi_def_cfa_offset 16
	.cfi_offset 3, -16
	.cfi_offset 4, -12
	.cfi_offset 5, -8
	.cfi_offset 14, -4
	mov	r5, r0
	.loc 1 1124 2 is_stmt 1 view .LVU1769
.LVL432:
	.loc 1 1125 2 view .LVU1770
	.loc 1 1127 2 view .LVU1771
	.loc 1 1124 6 is_stmt 0 view .LVU1772
	movs	r0, #0
.LVL433:
	.loc 1 1127 8 view .LVU1773
	b	.L281
.LVL434:
.L283:
	.loc 1 1128 3 is_stmt 1 view .LVU1774
	mov	r0, r4
.LVL435:
	.loc 1 1128 3 is_stmt 0 view .LVU1775
	bl	z_unpend_thread
.LVL436:
	.loc 1 1129 3 is_stmt 1 view .LVU1776
	mov	r0, r4
	bl	z_ready_thread
.LVL437:
	.loc 1 1130 3 view .LVU1777
	.loc 1 1130 14 is_stmt 0 view .LVU1778
	movs	r0, #1
.LVL438:
.L281:
	.loc 1 1127 8 is_stmt 1 view .LVU1779
.LBB1589:
.LBI1589:
	.loc 12 52 32 view .LVU1780
.LBB1590:
	.loc 12 54 2 view .LVU1781
.LBB1591:
.LBI1591:
	.loc 10 294 28 view .LVU1782
.LBB1592:
	.loc 10 296 2 view .LVU1783
.LBB1593:
.LBI1593:
	.loc 10 266 19 view .LVU1784
.LBB1594:
	.loc 10 268 2 view .LVU1785
	.loc 10 268 13 is_stmt 0 view .LVU1786
	ldr	r4, [r5]
.LVL439:
	.loc 10 268 13 view .LVU1787
.LBE1594:
.LBE1593:
	.loc 10 296 40 view .LVU1788
	cmp	r5, r4
	beq	.L280
.LVL440:
	.loc 10 296 40 view .LVU1789
.LBE1592:
.LBE1591:
.LBE1590:
.LBE1589:
	.loc 1 1127 8 view .LVU1790
	cmp	r4, #0
	bne	.L283
.LVL441:
.L280:
	.loc 1 1134 1 view .LVU1791
	pop	{r3, r4, r5, pc}
	.loc 1 1134 1 view .LVU1792
	.cfi_endproc
.LFE660:
	.size	z_unpend_all, .-z_unpend_all
	.section	.text.init_ready_q,"ax",%progbits
	.align	1
	.global	init_ready_q
	.syntax unified
	.thumb
	.thumb_func
	.fpu fpv4-sp-d16
	.type	init_ready_q, %function
init_ready_q:
.LVL442:
.LFB661:
	.loc 1 1137 1 is_stmt 1 view -0
	.cfi_startproc
	@ args = 0, pretend = 0, frame = 0
	@ frame_needed = 0, uses_anonymous_args = 0
	@ link register save eliminated.
	.loc 1 1149 2 view .LVU1794
	adds	r3, r0, #4
.LVL443:
.LBB1595:
.LBI1595:
	.loc 10 197 20 view .LVU1795
.LBB1596:
	.loc 10 199 2 view .LVU1796
	.loc 10 199 13 is_stmt 0 view .LVU1797
	str	r3, [r0, #4]
	.loc 10 200 2 is_stmt 1 view .LVU1798
	.loc 10 200 13 is_stmt 0 view .LVU1799
	str	r3, [r0, #8]
.LVL444:
	.loc 10 200 13 view .LVU1800
.LBE1596:
.LBE1595:
	.loc 1 1151 1 view .LVU1801
	bx	lr
	.cfi_endproc
.LFE661:
	.size	init_ready_q, .-init_ready_q
	.section	.text.z_sched_init,"ax",%progbits
	.align	1
	.global	z_sched_init
	.syntax unified
	.thumb
	.thumb_func
	.fpu fpv4-sp-d16
	.type	z_sched_init, %function
z_sched_init:
.LFB662:
	.loc 1 1154 1 is_stmt 1 view -0
	.cfi_startproc
	@ args = 0, pretend = 0, frame = 0
	@ frame_needed = 0, uses_anonymous_args = 0
	push	{r3, lr}
	.cfi_def_cfa_offset 8
	.cfi_offset 3, -8
	.cfi_offset 14, -4
	.loc 1 1160 2 view .LVU1803
	ldr	r0, .L288
	bl	init_ready_q
.LVL445:
	.loc 1 1164 2 view .LVU1804
	movs	r1, #0
	mov	r0, r1
	bl	k_sched_time_slice_set
.LVL446:
	.loc 1 1167 1 is_stmt 0 view .LVU1805
	pop	{r3, pc}
.L289:
	.align	2
.L288:
	.word	_kernel+24
	.cfi_endproc
.LFE662:
	.size	z_sched_init, .-z_sched_init
	.section	.text.z_impl_k_thread_priority_get,"ax",%progbits
	.align	1
	.global	z_impl_k_thread_priority_get
	.syntax unified
	.thumb
	.thumb_func
	.fpu fpv4-sp-d16
	.type	z_impl_k_thread_priority_get, %function
z_impl_k_thread_priority_get:
.LVL447:
.LFB663:
	.loc 1 1170 1 is_stmt 1 view -0
	.cfi_startproc
	@ args = 0, pretend = 0, frame = 0
	@ frame_needed = 0, uses_anonymous_args = 0
	@ link register save eliminated.
	.loc 1 1171 2 view .LVU1807
	.loc 1 1172 1 is_stmt 0 view .LVU1808
	ldrsb	r0, [r0, #14]
.LVL448:
	.loc 1 1172 1 view .LVU1809
	bx	lr
	.cfi_endproc
.LFE663:
	.size	z_impl_k_thread_priority_get, .-z_impl_k_thread_priority_get
	.section	.text.z_impl_k_thread_priority_set,"ax",%progbits
	.align	1
	.global	z_impl_k_thread_priority_set
	.syntax unified
	.thumb
	.thumb_func
	.fpu fpv4-sp-d16
	.type	z_impl_k_thread_priority_set, %function
z_impl_k_thread_priority_set:
.LVL449:
.LFB664:
	.loc 1 1184 1 is_stmt 1 view -0
	.cfi_startproc
	@ args = 0, pretend = 0, frame = 0
	@ frame_needed = 0, uses_anonymous_args = 0
	.loc 1 1184 1 is_stmt 0 view .LVU1811
	push	{r3, lr}
	.cfi_def_cfa_offset 8
	.cfi_offset 3, -8
	.cfi_offset 14, -4
	.loc 1 1189 2 is_stmt 1 view .LVU1812
	.loc 1 1189 9 view .LVU1813
	.loc 1 1189 10 view .LVU1814
	.loc 1 1189 20 view .LVU1815
	.loc 1 1190 4 view .LVU1816
	.loc 1 1190 5 view .LVU1817
	.loc 1 1192 2 view .LVU1818
.LVL450:
	.loc 1 1194 2 view .LVU1819
	bl	z_thread_priority_set
.LVL451:
	.loc 1 1195 1 is_stmt 0 view .LVU1820
	pop	{r3, pc}
	.cfi_endproc
.LFE664:
	.size	z_impl_k_thread_priority_set, .-z_impl_k_thread_priority_set
	.section	.text.z_impl_k_yield,"ax",%progbits
	.align	1
	.global	z_impl_k_yield
	.syntax unified
	.thumb
	.thumb_func
	.fpu fpv4-sp-d16
	.type	z_impl_k_yield, %function
z_impl_k_yield:
.LFB665:
	.loc 1 1243 1 is_stmt 1 view -0
	.cfi_startproc
	@ args = 0, pretend = 0, frame = 0
	@ frame_needed = 0, uses_anonymous_args = 0
	push	{r3, r4, r5, r6, r7, lr}
	.cfi_def_cfa_offset 24
	.cfi_offset 3, -24
	.cfi_offset 4, -20
	.cfi_offset 5, -16
	.cfi_offset 6, -12
	.cfi_offset 7, -8
	.cfi_offset 14, -4
	.loc 1 1244 4 view .LVU1822
	.loc 1 1244 5 view .LVU1823
	.loc 1 1246 2 view .LVU1824
	.loc 1 1246 7 view .LVU1825
	.loc 1 1246 15 view .LVU1826
	.loc 1 1248 2 view .LVU1827
.LVL452:
.LBB1597:
.LBI1597:
	.loc 3 130 63 view .LVU1828
.LBB1598:
	.loc 3 132 2 view .LVU1829
	.loc 3 133 2 view .LVU1830
	.loc 3 139 2 view .LVU1831
.LBB1599:
.LBI1599:
	.loc 4 43 59 view .LVU1832
.LBB1600:
	.loc 4 45 2 view .LVU1833
	.loc 4 54 2 view .LVU1834
	.loc 4 56 2 view .LVU1835
	.syntax unified
@ 56 "/home/sebin/thesis/zephyrproject/zephyr/include/arch/arm/aarch32/asm_inline_gcc.h" 1
	mov r3, #4;mrs r6, BASEPRI;msr BASEPRI_MAX, r3;isb;
@ 0 "" 2
.LVL453:
	.loc 4 76 2 view .LVU1836
	.loc 4 76 2 is_stmt 0 view .LVU1837
	.thumb
	.syntax unified
.LBE1600:
.LBE1599:
	.loc 3 156 2 is_stmt 1 view .LVU1838
	.loc 3 156 2 is_stmt 0 view .LVU1839
.LBE1598:
.LBE1597:
	.loc 1 1250 2 is_stmt 1 view .LVU1840
	.loc 1 1252 3 view .LVU1841
	ldr	r4, .L304
	ldr	r1, [r4, #8]
.LVL454:
.LBB1601:
.LBI1601:
	.loc 1 264 51 view .LVU1842
.LBB1602:
	.loc 1 266 2 view .LVU1843
	.loc 1 266 28 is_stmt 0 view .LVU1844
	ldrb	r3, [r1, #13]	@ zero_extendqisi2
	and	r3, r3, #127
	strb	r3, [r1, #13]
	.loc 1 267 2 is_stmt 1 view .LVU1845
.LVL455:
	.loc 1 267 2 is_stmt 0 view .LVU1846
.LBE1602:
.LBE1601:
	.loc 1 247 2 is_stmt 1 view .LVU1847
.LBB1610:
.LBB1608:
	.loc 1 268 3 view .LVU1848
.LBB1603:
.LBI1603:
	.loc 1 232 51 view .LVU1849
.LBB1604:
	.loc 1 234 2 view .LVU1850
.LBB1605:
.LBI1605:
	.loc 1 199 52 view .LVU1851
.LBE1605:
.LBE1604:
.LBE1603:
.LBE1608:
.LBE1610:
	.loc 1 214 2 view .LVU1852
.LBB1611:
.LBB1609:
.LBB1607:
.LBB1606:
	.loc 1 234 2 is_stmt 0 view .LVU1853
	add	r7, r4, #28
	mov	r0, r7
	bl	z_priq_dumb_remove
.LVL456:
	.loc 1 234 2 view .LVU1854
.LBE1606:
.LBE1607:
.LBE1609:
.LBE1611:
	.loc 1 1254 2 is_stmt 1 view .LVU1855
	ldr	r5, [r4, #8]
.LVL457:
.LBB1612:
.LBI1612:
	.loc 1 250 51 view .LVU1856
.LBB1613:
	.loc 1 252 2 view .LVU1857
	.loc 1 252 28 is_stmt 0 view .LVU1858
	ldrb	r3, [r5, #13]	@ zero_extendqisi2
	orn	r3, r3, #127
	strb	r3, [r5, #13]
	.loc 1 253 2 is_stmt 1 view .LVU1859
.LVL458:
	.loc 1 253 2 is_stmt 0 view .LVU1860
.LBE1613:
.LBE1612:
	.loc 1 247 2 is_stmt 1 view .LVU1861
.LBB1639:
.LBB1635:
	.loc 1 254 3 view .LVU1862
.LBB1614:
.LBI1614:
	.loc 1 227 51 view .LVU1863
.LBE1614:
.LBE1635:
.LBE1639:
	.loc 1 229 2 view .LVU1864
.LBB1640:
.LBB1636:
.LBB1632:
.LBB1615:
.LBI1615:
	.loc 1 199 52 view .LVU1865
.LBE1615:
.LBE1632:
.LBE1636:
.LBE1640:
	.loc 1 214 2 view .LVU1866
.LBB1641:
.LBB1637:
.LBB1633:
.LBB1616:
.LBI1616:
	.loc 1 181 51 view .LVU1867
.LBB1617:
	.loc 1 184 2 view .LVU1868
	.loc 1 186 4 view .LVU1869
	.loc 1 186 5 view .LVU1870
	.loc 1 188 2 view .LVU1871
.LBB1618:
.LBI1618:
	.loc 10 294 28 view .LVU1872
.LBB1619:
	.loc 10 296 2 view .LVU1873
.LBB1620:
.LBI1620:
	.loc 10 266 19 view .LVU1874
.LBB1621:
	.loc 10 268 2 view .LVU1875
	.loc 10 268 13 is_stmt 0 view .LVU1876
	ldr	r4, [r4, #28]
.LVL459:
	.loc 10 268 13 view .LVU1877
.LBE1621:
.LBE1620:
	.loc 10 296 40 view .LVU1878
	cmp	r4, r7
	beq	.L302
.LVL460:
.L298:
	.loc 10 296 40 view .LVU1879
.LBE1619:
.LBE1618:
	.loc 1 188 4 is_stmt 1 view .LVU1880
	.loc 1 188 2 is_stmt 0 view .LVU1881
	cbz	r4, .L297
	.loc 1 189 3 is_stmt 1 view .LVU1882
	.loc 1 189 7 is_stmt 0 view .LVU1883
	mov	r1, r4
	mov	r0, r5
	bl	z_sched_prio_cmp
.LVL461:
	.loc 1 189 6 view .LVU1884
	cmp	r0, #0
	bgt	.L303
	.loc 1 188 3 is_stmt 1 view .LVU1885
.LVL462:
.LBB1622:
.LBI1622:
	.loc 10 341 28 view .LVU1886
.LBB1623:
	.loc 10 344 2 view .LVU1887
	.loc 10 344 66 is_stmt 0 view .LVU1888
	cbz	r4, .L297
.LVL463:
.LBB1624:
.LBI1624:
	.loc 10 325 28 is_stmt 1 view .LVU1889
.LBB1625:
	.loc 10 328 2 view .LVU1890
	.loc 10 328 22 is_stmt 0 view .LVU1891
	ldr	r3, .L304
	ldr	r3, [r3, #32]
	.loc 10 328 36 view .LVU1892
	cmp	r4, r3
	beq	.L297
	ldr	r4, [r4]
.LVL464:
	.loc 10 328 36 view .LVU1893
.LBE1625:
.LBE1624:
.LBE1623:
.LBE1622:
	.loc 1 188 4 view .LVU1894
	cmp	r4, #0
	bne	.L298
.L297:
	.loc 1 196 2 is_stmt 1 view .LVU1895
.LVL465:
.LBB1626:
.LBI1626:
	.loc 10 404 20 view .LVU1896
.LBB1627:
	.loc 10 406 2 view .LVU1897
	.loc 10 406 21 is_stmt 0 view .LVU1898
	ldr	r3, .L304
	ldr	r2, [r3, #32]
.LVL466:
	.loc 10 408 2 is_stmt 1 view .LVU1899
	.loc 10 408 13 is_stmt 0 view .LVU1900
	add	r1, r3, #28
	str	r1, [r5]
	.loc 10 409 2 is_stmt 1 view .LVU1901
	.loc 10 409 13 is_stmt 0 view .LVU1902
	str	r2, [r5, #4]
	.loc 10 411 2 is_stmt 1 view .LVU1903
	.loc 10 411 13 is_stmt 0 view .LVU1904
	str	r5, [r2]
	.loc 10 412 2 is_stmt 1 view .LVU1905
	.loc 10 412 13 is_stmt 0 view .LVU1906
	str	r5, [r3, #32]
.LVL467:
.L296:
	.loc 10 412 13 view .LVU1907
.LBE1627:
.LBE1626:
.LBE1617:
.LBE1616:
.LBE1633:
.LBE1637:
.LBE1641:
	.loc 1 1255 2 is_stmt 1 view .LVU1908
	movs	r0, #1
	bl	update_cache
.LVL468:
	.loc 1 1256 2 view .LVU1909
.LBB1642:
.LBI1642:
	.loc 9 192 50 view .LVU1910
.LBB1643:
	.loc 9 194 2 view .LVU1911
	.loc 9 194 2 is_stmt 0 view .LVU1912
.LBE1643:
.LBE1642:
	.loc 3 206 2 is_stmt 1 view .LVU1913
.LBB1647:
.LBB1646:
	.loc 9 195 2 view .LVU1914
.LBB1644:
.LBI1644:
	.loc 9 180 19 view .LVU1915
.LBB1645:
	.loc 9 182 2 view .LVU1916
	.loc 9 183 2 view .LVU1917
	.loc 9 184 2 view .LVU1918
	.loc 9 184 8 is_stmt 0 view .LVU1919
	mov	r0, r6
	bl	arch_swap
.LVL469:
	.loc 9 185 2 is_stmt 1 view .LVU1920
	.loc 9 185 2 is_stmt 0 view .LVU1921
.LBE1645:
.LBE1644:
.LBE1646:
.LBE1647:
	.loc 1 1257 1 view .LVU1922
	pop	{r3, r4, r5, r6, r7, pc}
.LVL470:
.L303:
.LBB1648:
.LBB1638:
.LBB1634:
.LBB1631:
.LBB1630:
	.loc 1 190 4 is_stmt 1 view .LVU1923
.LBB1628:
.LBI1628:
	.loc 10 443 20 view .LVU1924
.LBB1629:
	.loc 10 445 2 view .LVU1925
	.loc 10 445 21 is_stmt 0 view .LVU1926
	ldr	r3, [r4, #4]
.LVL471:
	.loc 10 447 2 is_stmt 1 view .LVU1927
	.loc 10 447 13 is_stmt 0 view .LVU1928
	str	r3, [r5, #4]
	.loc 10 448 2 is_stmt 1 view .LVU1929
	.loc 10 448 13 is_stmt 0 view .LVU1930
	str	r4, [r5]
	.loc 10 449 2 is_stmt 1 view .LVU1931
	.loc 10 449 13 is_stmt 0 view .LVU1932
	str	r5, [r3]
	.loc 10 450 2 is_stmt 1 view .LVU1933
	.loc 10 450 18 is_stmt 0 view .LVU1934
	str	r5, [r4, #4]
	.loc 10 451 1 view .LVU1935
	b	.L296
.LVL472:
.L302:
	.loc 10 451 1 view .LVU1936
.LBE1629:
.LBE1628:
	.loc 1 188 4 view .LVU1937
	movs	r4, #0
	b	.L298
.L305:
	.align	2
.L304:
	.word	_kernel
.LBE1630:
.LBE1631:
.LBE1634:
.LBE1638:
.LBE1648:
	.cfi_endproc
.LFE665:
	.size	z_impl_k_yield, .-z_impl_k_yield
	.section	.text.z_tick_sleep,"ax",%progbits
	.align	1
	.syntax unified
	.thumb
	.thumb_func
	.fpu fpv4-sp-d16
	.type	z_tick_sleep, %function
z_tick_sleep:
.LVL473:
.LFB666:
	.loc 1 1268 1 is_stmt 1 view -0
	.cfi_startproc
	@ args = 0, pretend = 0, frame = 0
	@ frame_needed = 0, uses_anonymous_args = 0
	.loc 1 1268 1 is_stmt 0 view .LVU1939
	push	{r4, r5, r6, r7, r8, lr}
	.cfi_def_cfa_offset 24
	.cfi_offset 4, -24
	.cfi_offset 5, -20
	.cfi_offset 6, -16
	.cfi_offset 7, -12
	.cfi_offset 8, -8
	.cfi_offset 14, -4
	mov	r4, r0
	mov	r5, r1
	.loc 1 1270 2 is_stmt 1 view .LVU1940
	.loc 1 1272 4 view .LVU1941
	.loc 1 1272 5 view .LVU1942
	.loc 1 1282 2 view .LVU1943
	.loc 1 1282 5 is_stmt 0 view .LVU1944
	orrs	r1, r4, r5
	beq	.L313
	.loc 1 1287 2 is_stmt 1 view .LVU1945
	.loc 1 1288 2 view .LVU1946
	.loc 1 1288 28 is_stmt 0 view .LVU1947
	mvn	r1, #1
	subs	r2, r1, r0
	mov	r1, #-1
	sbc	r3, r1, r5
	.loc 1 1288 5 view .LVU1948
	cmp	r2, #1
	sbcs	r3, r3, #0
	blt	.L314
	.loc 1 1291 3 is_stmt 1 view .LVU1949
	.loc 1 1291 25 is_stmt 0 view .LVU1950
	mvn	r6, #1
	subs	r6, r6, r0
.LVL474:
.L310:
	.loc 1 1294 2 is_stmt 1 view .LVU1951
.LBB1649:
.LBI1649:
	.loc 3 130 63 view .LVU1952
.LBB1650:
	.loc 3 132 2 view .LVU1953
	.loc 3 133 2 view .LVU1954
	.loc 3 139 2 view .LVU1955
.LBB1651:
.LBI1651:
	.loc 4 43 59 view .LVU1956
.LBB1652:
	.loc 4 45 2 view .LVU1957
	.loc 4 54 2 view .LVU1958
	.loc 4 56 2 view .LVU1959
	.syntax unified
@ 56 "/home/sebin/thesis/zephyrproject/zephyr/include/arch/arm/aarch32/asm_inline_gcc.h" 1
	mov r3, #4;mrs r8, BASEPRI;msr BASEPRI_MAX, r3;isb;
@ 0 "" 2
.LVL475:
	.loc 4 76 2 view .LVU1960
	.loc 4 76 2 is_stmt 0 view .LVU1961
	.thumb
	.syntax unified
.LBE1652:
.LBE1651:
	.loc 3 156 2 is_stmt 1 view .LVU1962
	.loc 3 156 2 is_stmt 0 view .LVU1963
.LBE1650:
.LBE1649:
	.loc 1 1297 2 is_stmt 1 view .LVU1964
	.loc 1 1297 35 is_stmt 0 view .LVU1965
	ldr	r7, .L316
	ldr	r0, [r7, #8]
	.loc 1 1297 18 view .LVU1966
	ldr	r3, .L316+4
	str	r0, [r3]
	.loc 1 1299 2 is_stmt 1 view .LVU1967
	bl	unready_thread
.LVL476:
	.loc 1 1300 2 view .LVU1968
	ldr	r0, [r7, #8]
.LVL477:
.LBB1653:
.LBI1653:
	.loc 2 47 20 view .LVU1969
.LBB1654:
	.loc 2 49 2 view .LVU1970
	mov	r2, r4
	mov	r3, r5
	ldr	r1, .L316+8
	adds	r0, r0, #24
.LVL478:
	.loc 2 49 2 is_stmt 0 view .LVU1971
	bl	z_add_timeout
.LVL479:
	.loc 2 49 2 view .LVU1972
.LBE1654:
.LBE1653:
	.loc 1 1301 2 is_stmt 1 view .LVU1973
	ldr	r2, [r7, #8]
.LVL480:
.LBB1655:
.LBI1655:
	.loc 6 141 20 view .LVU1974
.LBB1656:
	.loc 6 143 2 view .LVU1975
	.loc 6 143 28 is_stmt 0 view .LVU1976
	ldrb	r3, [r2, #13]	@ zero_extendqisi2
	orr	r3, r3, #16
	strb	r3, [r2, #13]
	.loc 6 145 2 is_stmt 1 view .LVU1977
	.loc 6 145 7 view .LVU1978
	.loc 6 145 15 view .LVU1979
.LVL481:
	.loc 6 145 15 is_stmt 0 view .LVU1980
.LBE1656:
.LBE1655:
	.loc 1 1303 2 is_stmt 1 view .LVU1981
.LBB1657:
.LBI1657:
	.loc 9 192 50 view .LVU1982
.LBE1657:
	.loc 9 194 2 view .LVU1983
	.loc 3 206 2 view .LVU1984
	.loc 9 195 2 view .LVU1985
.LBB1660:
.LBB1658:
.LBI1658:
	.loc 9 180 19 view .LVU1986
.LBB1659:
	.loc 9 182 2 view .LVU1987
	.loc 9 183 2 view .LVU1988
	.loc 9 184 2 view .LVU1989
	.loc 9 184 8 is_stmt 0 view .LVU1990
	mov	r0, r8
	bl	arch_swap
.LVL482:
	.loc 9 185 2 is_stmt 1 view .LVU1991
	.loc 9 185 2 is_stmt 0 view .LVU1992
.LBE1659:
.LBE1658:
.LBE1660:
	.loc 1 1305 4 is_stmt 1 view .LVU1993
	.loc 1 1305 5 view .LVU1994
	.loc 1 1307 2 view .LVU1995
	.loc 1 1307 10 is_stmt 0 view .LVU1996
	movs	r5, #0
	.loc 1 1307 45 view .LVU1997
	bl	sys_clock_tick_get_32
.LVL483:
	.loc 1 1307 8 view .LVU1998
	subs	r4, r6, r0
	sbc	r5, r5, #0
.LVL484:
	.loc 1 1308 2 is_stmt 1 view .LVU1999
	.loc 1 1308 5 is_stmt 0 view .LVU2000
	cmp	r4, #1
	sbcs	r3, r5, #0
	bge	.L315
	.loc 1 1313 9 view .LVU2001
	movs	r0, #0
.LVL485:
.L308:
	.loc 1 1314 1 view .LVU2002
	pop	{r4, r5, r6, r7, r8, pc}
.LVL486:
.L313:
	.loc 1 1283 3 is_stmt 1 view .LVU2003
.LBB1661:
.LBI1661:
	.file 14 "/home/sebin/thesis/dmz/zephyr_xmc_template/build/zephyr/include/generated/syscalls/kernel.h"
	.loc 14 146 20 view .LVU2004
.LBB1662:
	.loc 14 155 2 view .LVU2005
	.loc 14 155 7 view .LVU2006
	.loc 14 155 55 view .LVU2007
	.loc 14 156 2 view .LVU2008
	bl	z_impl_k_yield
.LVL487:
	.loc 14 156 2 is_stmt 0 view .LVU2009
.LBE1662:
.LBE1661:
	.loc 1 1284 3 is_stmt 1 view .LVU2010
	.loc 1 1284 10 is_stmt 0 view .LVU2011
	movs	r0, #0
	b	.L308
.LVL488:
.L314:
	.loc 1 1289 3 is_stmt 1 view .LVU2012
	.loc 1 1289 35 is_stmt 0 view .LVU2013
	bl	sys_clock_tick_get_32
.LVL489:
	.loc 1 1289 25 view .LVU2014
	adds	r6, r0, r4
.LVL490:
	.loc 1 1289 25 view .LVU2015
	b	.L310
.LVL491:
.L315:
	.loc 1 1309 3 is_stmt 1 view .LVU2016
	.loc 1 1309 10 is_stmt 0 view .LVU2017
	mov	r0, r4
	b	.L308
.L317:
	.align	2
.L316:
	.word	_kernel
	.word	.LANCHOR2
	.word	z_thread_timeout
	.cfi_endproc
.LFE666:
	.size	z_tick_sleep, .-z_tick_sleep
	.global	__aeabi_uldivmod
	.section	.text.z_impl_k_sleep,"ax",%progbits
	.align	1
	.global	z_impl_k_sleep
	.syntax unified
	.thumb
	.thumb_func
	.fpu fpv4-sp-d16
	.type	z_impl_k_sleep, %function
z_impl_k_sleep:
.LVL492:
.LFB667:
	.loc 1 1317 1 is_stmt 1 view -0
	.cfi_startproc
	@ args = 0, pretend = 0, frame = 0
	@ frame_needed = 0, uses_anonymous_args = 0
	.loc 1 1317 1 is_stmt 0 view .LVU2019
	push	{r3, lr}
	.cfi_def_cfa_offset 8
	.cfi_offset 3, -8
	.cfi_offset 14, -4
	.loc 1 1318 2 is_stmt 1 view .LVU2020
	.loc 1 1320 4 view .LVU2021
	.loc 1 1320 5 view .LVU2022
	.loc 1 1322 2 view .LVU2023
	.loc 1 1322 7 view .LVU2024
	.loc 1 1322 15 view .LVU2025
	.loc 1 1325 2 view .LVU2026
.LBB1663:
	.loc 1 1325 5 is_stmt 0 view .LVU2027
	cmp	r1, #-1
	it	eq
	cmpeq	r0, #-1
	beq	.L322
.LBE1663:
	.loc 1 1333 2 is_stmt 1 view .LVU2028
	.loc 1 1335 2 view .LVU2029
	.loc 1 1335 10 is_stmt 0 view .LVU2030
	bl	z_tick_sleep
.LVL493:
	.loc 1 1337 2 is_stmt 1 view .LVU2031
.LBB1666:
.LBI1666:
	.loc 5 1102 24 view .LVU2032
.LBE1666:
	.loc 5 1105 2 view .LVU2033
.LBB1671:
.LBB1667:
.LBI1667:
	.loc 5 101 55 view .LVU2034
.LBB1668:
	.loc 5 106 1 view .LVU2035
	.loc 5 108 1 view .LVU2036
	.loc 5 111 2 view .LVU2037
	.loc 5 115 2 view .LVU2038
	.loc 5 117 2 view .LVU2039
.LBE1668:
.LBE1667:
.LBE1671:
	.loc 5 118 3 view .LVU2040
	.loc 5 120 3 view .LVU2041
	.loc 5 123 3 view .LVU2042
.LBB1672:
.LBB1670:
.LBB1669:
	.loc 5 133 2 view .LVU2043
	.loc 5 134 3 view .LVU2044
	.loc 5 135 3 view .LVU2045
	.loc 5 138 4 view .LVU2046
	.loc 5 138 13 is_stmt 0 view .LVU2047
	movs	r2, #10
	movs	r3, #0
	asrs	r1, r0, #31
	bl	__aeabi_uldivmod
.LVL494:
	.loc 5 138 13 view .LVU2048
.LBE1669:
.LBE1670:
.LBE1672:
	.loc 1 1339 2 is_stmt 1 view .LVU2049
	.loc 1 1339 7 view .LVU2050
	.loc 1 1339 15 view .LVU2051
	.loc 1 1341 2 view .LVU2052
.L318:
	.loc 1 1342 1 is_stmt 0 view .LVU2053
	pop	{r3, pc}
.LVL495:
.L322:
.LBB1673:
	.loc 1 1326 3 is_stmt 1 view .LVU2054
	ldr	r3, .L323
	ldr	r0, [r3, #8]
.LVL496:
.LBB1664:
.LBI1664:
	.loc 14 312 20 view .LVU2055
.LBB1665:
	.loc 14 321 2 view .LVU2056
	.loc 14 321 7 view .LVU2057
	.loc 14 321 55 view .LVU2058
	.loc 14 322 2 view .LVU2059
	bl	z_impl_k_thread_suspend
.LVL497:
	.loc 14 322 2 is_stmt 0 view .LVU2060
.LBE1665:
.LBE1664:
	.loc 1 1328 3 is_stmt 1 view .LVU2061
	.loc 1 1328 8 view .LVU2062
	.loc 1 1328 16 view .LVU2063
	.loc 1 1330 3 view .LVU2064
	.loc 1 1330 10 is_stmt 0 view .LVU2065
	mov	r0, #-1
	b	.L318
.L324:
	.align	2
.L323:
	.word	_kernel
.LBE1673:
	.cfi_endproc
.LFE667:
	.size	z_impl_k_sleep, .-z_impl_k_sleep
	.section	.text.z_impl_k_usleep,"ax",%progbits
	.align	1
	.global	z_impl_k_usleep
	.syntax unified
	.thumb
	.thumb_func
	.fpu fpv4-sp-d16
	.type	z_impl_k_usleep, %function
z_impl_k_usleep:
.LVL498:
.LFB668:
	.loc 1 1353 1 is_stmt 1 view -0
	.cfi_startproc
	@ args = 0, pretend = 0, frame = 0
	@ frame_needed = 0, uses_anonymous_args = 0
	.loc 1 1353 1 is_stmt 0 view .LVU2067
	push	{r3, r4, r5, lr}
	.cfi_def_cfa_offset 16
	.cfi_offset 3, -16
	.cfi_offset 4, -12
	.cfi_offset 5, -8
	.cfi_offset 14, -4
	.loc 1 1354 2 is_stmt 1 view .LVU2068
	.loc 1 1356 2 view .LVU2069
	.loc 1 1356 7 view .LVU2070
	.loc 1 1356 15 view .LVU2071
	.loc 1 1358 2 view .LVU2072
	.loc 1 1358 10 is_stmt 0 view .LVU2073
	asrs	r5, r0, #31
.LBB1674:
.LBI1674:
	.loc 5 570 24 is_stmt 1 view .LVU2074
.LBE1674:
	.loc 5 573 2 view .LVU2075
.LVL499:
.LBB1679:
.LBB1675:
.LBI1675:
	.loc 5 101 55 view .LVU2076
.LBB1676:
	.loc 5 106 1 view .LVU2077
	.loc 5 108 1 view .LVU2078
	.loc 5 111 2 view .LVU2079
	.loc 5 115 2 view .LVU2080
	.loc 5 117 2 view .LVU2081
.LBE1676:
.LBE1675:
.LBE1679:
	.loc 5 118 3 view .LVU2082
	.loc 5 120 3 view .LVU2083
	.loc 5 121 4 view .LVU2084
	.loc 5 123 3 view .LVU2085
.LBB1680:
.LBB1678:
.LBB1677:
	.loc 5 133 2 view .LVU2086
	.loc 5 134 3 view .LVU2087
	.loc 5 135 3 view .LVU2088
	.loc 5 138 4 view .LVU2089
	.loc 5 138 13 is_stmt 0 view .LVU2090
	movs	r2, #100
	movs	r3, #0
	adds	r0, r0, #99
.LVL500:
	.loc 5 138 13 view .LVU2091
	adc	r1, r5, #0
	bl	__aeabi_uldivmod
.LVL501:
	.loc 5 138 13 view .LVU2092
.LBE1677:
.LBE1678:
.LBE1680:
	.loc 1 1359 2 is_stmt 1 view .LVU2093
	.loc 1 1359 10 is_stmt 0 view .LVU2094
	asrs	r1, r0, #31
	bl	z_tick_sleep
.LVL502:
	.loc 1 1361 2 is_stmt 1 view .LVU2095
	.loc 1 1361 7 view .LVU2096
	.loc 1 1361 15 view .LVU2097
	.loc 1 1363 2 view .LVU2098
.LBB1681:
.LBI1681:
	.loc 5 1186 24 view .LVU2099
.LBE1681:
	.loc 5 1189 2 view .LVU2100
.LBB1684:
.LBB1682:
.LBI1682:
	.loc 5 101 55 view .LVU2101
.LBB1683:
	.loc 5 106 1 view .LVU2102
	.loc 5 108 1 view .LVU2103
	.loc 5 111 2 view .LVU2104
	.loc 5 115 2 view .LVU2105
	.loc 5 117 2 view .LVU2106
	.loc 5 133 2 view .LVU2107
	.loc 5 140 9 view .LVU2108
	.loc 5 141 3 view .LVU2109
	.loc 5 144 4 view .LVU2110
	.loc 5 144 13 is_stmt 0 view .LVU2111
	adds	r3, r0, r0
	adds	r3, r3, r0
	lsls	r2, r3, #5
	adds	r3, r3, r2
.LVL503:
	.loc 5 144 13 view .LVU2112
.LBE1683:
.LBE1682:
.LBE1684:
	.loc 1 1364 1 view .LVU2113
	add	r0, r0, r3
.LVL504:
	.loc 1 1364 1 view .LVU2114
	pop	{r3, r4, r5, pc}
	.cfi_endproc
.LFE668:
	.size	z_impl_k_usleep, .-z_impl_k_usleep
	.section	.text.z_impl_k_wakeup,"ax",%progbits
	.align	1
	.global	z_impl_k_wakeup
	.syntax unified
	.thumb
	.thumb_func
	.fpu fpv4-sp-d16
	.type	z_impl_k_wakeup, %function
z_impl_k_wakeup:
.LVL505:
.LFB669:
	.loc 1 1375 1 is_stmt 1 view -0
	.cfi_startproc
	@ args = 0, pretend = 0, frame = 0
	@ frame_needed = 0, uses_anonymous_args = 0
	.loc 1 1376 2 view .LVU2116
	.loc 1 1376 7 view .LVU2117
	.loc 1 1376 15 view .LVU2118
	.loc 1 1378 2 view .LVU2119
.LBB1685:
.LBI1685:
	.loc 6 101 19 view .LVU2120
.LBB1686:
	.loc 6 103 2 view .LVU2121
	.loc 6 103 22 is_stmt 0 view .LVU2122
	ldrb	r3, [r0, #13]	@ zero_extendqisi2
.LVL506:
	.loc 6 103 22 view .LVU2123
.LBE1686:
.LBE1685:
	.loc 1 1378 5 view .LVU2124
	tst	r3, #2
	beq	.L334
	bx	lr
.L334:
	.loc 1 1375 1 view .LVU2125
	push	{r4, lr}
	.cfi_def_cfa_offset 8
	.cfi_offset 4, -8
	.cfi_offset 14, -4
	mov	r4, r0
	.loc 1 1382 2 is_stmt 1 view .LVU2126
.LVL507:
.LBB1687:
.LBI1687:
	.loc 2 52 19 view .LVU2127
.LBB1688:
	.loc 2 54 2 view .LVU2128
	.loc 2 54 9 is_stmt 0 view .LVU2129
	adds	r0, r0, #24
.LVL508:
	.loc 2 54 9 view .LVU2130
	bl	z_abort_timeout
.LVL509:
	.loc 2 54 9 view .LVU2131
.LBE1688:
.LBE1687:
	.loc 1 1382 5 view .LVU2132
	cmp	r0, #0
	bge	.L329
	.loc 1 1384 3 is_stmt 1 view .LVU2133
	.loc 1 1384 19 is_stmt 0 view .LVU2134
	ldrb	r3, [r4, #13]	@ zero_extendqisi2
	.loc 1 1384 6 view .LVU2135
	cmp	r3, #16
	bne	.L327
.L329:
	.loc 1 1389 2 is_stmt 1 view .LVU2136
.LVL510:
.LBB1689:
.LBI1689:
	.loc 6 148 20 view .LVU2137
.LBB1690:
	.loc 6 150 2 view .LVU2138
	.loc 6 150 28 is_stmt 0 view .LVU2139
	ldrb	r3, [r4, #13]	@ zero_extendqisi2
	bic	r3, r3, #16
	strb	r3, [r4, #13]
	.loc 6 152 2 is_stmt 1 view .LVU2140
	.loc 6 152 7 view .LVU2141
	.loc 6 152 15 view .LVU2142
.LVL511:
	.loc 6 152 15 is_stmt 0 view .LVU2143
.LBE1690:
.LBE1689:
	.loc 1 1390 2 is_stmt 1 view .LVU2144
	mov	r0, r4
	bl	z_ready_thread
.LVL512:
	.loc 1 1396 2 view .LVU2145
.LBB1691:
.LBI1691:
	.loc 7 46 26 view .LVU2146
.LBE1691:
	.loc 7 48 2 view .LVU2147
.LBB1694:
.LBB1692:
.LBI1692:
	.loc 8 1027 55 view .LVU2148
.LBB1693:
	.loc 8 1029 3 view .LVU2149
	.loc 8 1031 3 view .LVU2150
	.syntax unified
@ 1031 "/home/sebin/thesis/zephyrproject/modules/hal/cmsis/CMSIS/Core/Include/cmsis_gcc.h" 1
	MRS r3, ipsr
@ 0 "" 2
.LVL513:
	.loc 8 1032 3 view .LVU2151
	.loc 8 1032 3 is_stmt 0 view .LVU2152
	.thumb
	.syntax unified
.LBE1693:
.LBE1692:
.LBE1694:
	.loc 1 1396 5 view .LVU2153
	cbz	r3, .L335
.L327:
	.loc 1 1399 1 view .LVU2154
	pop	{r4, pc}
.LVL514:
.L335:
	.loc 1 1397 3 is_stmt 1 view .LVU2155
.LBB1695:
.LBI1695:
	.loc 6 73 20 view .LVU2156
.LBB1696:
	.loc 6 75 2 view .LVU2157
.LBB1697:
.LBI1697:
	.loc 4 43 59 view .LVU2158
.LBB1698:
	.loc 4 45 2 view .LVU2159
	.loc 4 54 2 view .LVU2160
	.loc 4 56 2 view .LVU2161
	.syntax unified
@ 56 "/home/sebin/thesis/zephyrproject/zephyr/include/arch/arm/aarch32/asm_inline_gcc.h" 1
	mov r3, #4;mrs r0, BASEPRI;msr BASEPRI_MAX, r3;isb;
@ 0 "" 2
.LVL515:
	.loc 4 76 2 view .LVU2162
	.loc 4 76 2 is_stmt 0 view .LVU2163
	.thumb
	.syntax unified
.LBE1698:
.LBE1697:
	.loc 6 75 2 view .LVU2164
	bl	z_reschedule_irqlock
.LVL516:
	.loc 6 76 1 view .LVU2165
	b	.L327
.LBE1696:
.LBE1695:
	.cfi_endproc
.LFE669:
	.size	z_impl_k_wakeup, .-z_impl_k_wakeup
	.section	.text.z_impl_z_current_get,"ax",%progbits
	.align	1
	.global	z_impl_z_current_get
	.syntax unified
	.thumb
	.thumb_func
	.fpu fpv4-sp-d16
	.type	z_impl_z_current_get, %function
z_impl_z_current_get:
.LFB670:
	.loc 1 1427 1 is_stmt 1 view -0
	.cfi_startproc
	@ args = 0, pretend = 0, frame = 0
	@ frame_needed = 0, uses_anonymous_args = 0
	@ link register save eliminated.
	.loc 1 1436 2 view .LVU2167
.LVL517:
	.loc 1 1441 2 view .LVU2168
	.loc 1 1442 1 is_stmt 0 view .LVU2169
	ldr	r3, .L337
	ldr	r0, [r3, #8]
	bx	lr
.L338:
	.align	2
.L337:
	.word	_kernel
	.cfi_endproc
.LFE670:
	.size	z_impl_z_current_get, .-z_impl_z_current_get
	.section	.text.z_impl_k_is_preempt_thread,"ax",%progbits
	.align	1
	.global	z_impl_k_is_preempt_thread
	.syntax unified
	.thumb
	.thumb_func
	.fpu fpv4-sp-d16
	.type	z_impl_k_is_preempt_thread, %function
z_impl_k_is_preempt_thread:
.LFB671:
	.loc 1 1453 1 is_stmt 1 view -0
	.cfi_startproc
	@ args = 0, pretend = 0, frame = 0
	@ frame_needed = 0, uses_anonymous_args = 0
	@ link register save eliminated.
	.loc 1 1454 2 view .LVU2171
.LBB1699:
.LBI1699:
	.loc 7 46 26 view .LVU2172
.LBE1699:
	.loc 7 48 2 view .LVU2173
.LBB1702:
.LBB1700:
.LBI1700:
	.loc 8 1027 55 view .LVU2174
.LBB1701:
	.loc 8 1029 3 view .LVU2175
	.loc 8 1031 3 view .LVU2176
	.syntax unified
@ 1031 "/home/sebin/thesis/zephyrproject/modules/hal/cmsis/CMSIS/Core/Include/cmsis_gcc.h" 1
	MRS r3, ipsr
@ 0 "" 2
.LVL518:
	.loc 8 1032 3 view .LVU2177
	.loc 8 1032 3 is_stmt 0 view .LVU2178
	.thumb
	.syntax unified
.LBE1701:
.LBE1700:
.LBE1702:
	.loc 1 1454 27 view .LVU2179
	cbnz	r3, .L341
	.loc 1 1454 30 discriminator 1 view .LVU2180
	ldr	r3, .L343
	ldr	r3, [r3, #8]
.LVL519:
.LBB1703:
.LBI1703:
	.loc 1 62 19 is_stmt 1 discriminator 1 view .LVU2181
.LBB1704:
	.loc 1 65 2 discriminator 1 view .LVU2182
	.loc 1 65 21 is_stmt 0 discriminator 1 view .LVU2183
	ldrh	r3, [r3, #14]
.LVL520:
	.loc 1 65 21 discriminator 1 view .LVU2184
.LBE1704:
.LBE1703:
	.loc 1 1454 27 discriminator 1 view .LVU2185
	cmp	r3, #127
	bhi	.L342
	.loc 1 1454 27 view .LVU2186
	movs	r0, #1
	bx	lr
.L341:
	movs	r0, #0
	bx	lr
.L342:
	movs	r0, #0
	.loc 1 1455 1 view .LVU2187
	bx	lr
.L344:
	.align	2
.L343:
	.word	_kernel
	.cfi_endproc
.LFE671:
	.size	z_impl_k_is_preempt_thread, .-z_impl_k_is_preempt_thread
	.section	.text.z_thread_abort,"ax",%progbits
	.align	1
	.global	z_thread_abort
	.syntax unified
	.thumb
	.thumb_func
	.fpu fpv4-sp-d16
	.type	z_thread_abort, %function
z_thread_abort:
.LVL521:
.LFB674:
	.loc 1 1569 1 is_stmt 1 view -0
	.cfi_startproc
	@ args = 0, pretend = 0, frame = 0
	@ frame_needed = 0, uses_anonymous_args = 0
	.loc 1 1569 1 is_stmt 0 view .LVU2189
	push	{r3, r4, r5, lr}
	.cfi_def_cfa_offset 16
	.cfi_offset 3, -16
	.cfi_offset 4, -12
	.cfi_offset 5, -8
	.cfi_offset 14, -4
	.loc 1 1570 2 is_stmt 1 view .LVU2190
.LVL522:
.LBB1705:
.LBI1705:
	.loc 3 130 63 view .LVU2191
.LBB1706:
	.loc 3 132 2 view .LVU2192
	.loc 3 133 2 view .LVU2193
	.loc 3 139 2 view .LVU2194
.LBB1707:
.LBI1707:
	.loc 4 43 59 view .LVU2195
.LBB1708:
	.loc 4 45 2 view .LVU2196
	.loc 4 54 2 view .LVU2197
	.loc 4 56 2 view .LVU2198
	.syntax unified
@ 56 "/home/sebin/thesis/zephyrproject/zephyr/include/arch/arm/aarch32/asm_inline_gcc.h" 1
	mov r3, #4;mrs r5, BASEPRI;msr BASEPRI_MAX, r3;isb;
@ 0 "" 2
.LVL523:
	.loc 4 76 2 view .LVU2199
	.loc 4 76 2 is_stmt 0 view .LVU2200
	.thumb
	.syntax unified
.LBE1708:
.LBE1707:
	.loc 3 156 2 is_stmt 1 view .LVU2201
	.loc 3 156 2 is_stmt 0 view .LVU2202
.LBE1706:
.LBE1705:
	.loc 1 1572 2 is_stmt 1 view .LVU2203
	.loc 1 1572 19 is_stmt 0 view .LVU2204
	ldrb	r3, [r0, #13]	@ zero_extendqisi2
	.loc 1 1572 5 view .LVU2205
	tst	r3, #8
	beq	.L346
	.loc 1 1573 3 is_stmt 1 view .LVU2206
.LVL524:
.LBB1709:
.LBI1709:
	.loc 3 180 51 view .LVU2207
.LBE1709:
	.loc 3 183 2 view .LVU2208
	.loc 3 198 2 view .LVU2209
.LBB1712:
.LBB1710:
.LBI1710:
	.loc 4 84 51 view .LVU2210
.LBB1711:
	.loc 4 95 2 view .LVU2211
	.syntax unified
@ 95 "/home/sebin/thesis/zephyrproject/zephyr/include/arch/arm/aarch32/asm_inline_gcc.h" 1
	msr BASEPRI, r5;isb;
@ 0 "" 2
.LVL525:
	.loc 4 95 2 is_stmt 0 view .LVU2212
	.thumb
	.syntax unified
.LBE1711:
.LBE1710:
.LBE1712:
	.loc 1 1574 3 is_stmt 1 view .LVU2213
.L345:
	.loc 1 1614 1 is_stmt 0 view .LVU2214
	pop	{r3, r4, r5, pc}
.LVL526:
.L346:
	.loc 1 1614 1 view .LVU2215
	mov	r4, r0
	.loc 1 1608 2 is_stmt 1 view .LVU2216
	bl	end_thread
.LVL527:
	.loc 1 1609 2 view .LVU2217
	.loc 1 1609 31 is_stmt 0 view .LVU2218
	ldr	r3, .L351
	ldr	r3, [r3, #8]
	.loc 1 1609 5 view .LVU2219
	cmp	r3, r4
	beq	.L350
.L348:
	.loc 1 1611 5 is_stmt 1 view .LVU2220
	.loc 1 1611 6 view .LVU2221
	.loc 1 1613 2 view .LVU2222
.LVL528:
.LBB1713:
.LBI1713:
	.loc 3 180 51 view .LVU2223
.LBE1713:
	.loc 3 183 2 view .LVU2224
	.loc 3 198 2 view .LVU2225
.LBB1716:
.LBB1714:
.LBI1714:
	.loc 4 84 51 view .LVU2226
.LBB1715:
	.loc 4 95 2 view .LVU2227
	.syntax unified
@ 95 "/home/sebin/thesis/zephyrproject/zephyr/include/arch/arm/aarch32/asm_inline_gcc.h" 1
	msr BASEPRI, r5;isb;
@ 0 "" 2
.LVL529:
	.loc 4 95 2 is_stmt 0 view .LVU2228
	.thumb
	.syntax unified
.LBE1715:
.LBE1714:
.LBE1716:
	b	.L345
.L350:
.LBB1717:
.LBI1717:
	.loc 7 46 26 is_stmt 1 view .LVU2229
.LBE1717:
	.loc 7 48 2 view .LVU2230
.LBB1720:
.LBB1718:
.LBI1718:
	.loc 8 1027 55 view .LVU2231
.LBB1719:
	.loc 8 1029 3 view .LVU2232
	.loc 8 1031 3 view .LVU2233
	.syntax unified
@ 1031 "/home/sebin/thesis/zephyrproject/modules/hal/cmsis/CMSIS/Core/Include/cmsis_gcc.h" 1
	MRS r3, ipsr
@ 0 "" 2
.LVL530:
	.loc 8 1032 3 view .LVU2234
	.loc 8 1032 3 is_stmt 0 view .LVU2235
	.thumb
	.syntax unified
.LBE1719:
.LBE1718:
.LBE1720:
	.loc 1 1609 40 view .LVU2236
	cmp	r3, #0
	bne	.L348
	.loc 1 1610 3 is_stmt 1 view .LVU2237
.LVL531:
.LBB1721:
.LBI1721:
	.loc 9 192 50 view .LVU2238
.LBE1721:
	.loc 9 194 2 view .LVU2239
	.loc 3 206 2 view .LVU2240
	.loc 9 195 2 view .LVU2241
.LBB1724:
.LBB1722:
.LBI1722:
	.loc 9 180 19 view .LVU2242
.LBB1723:
	.loc 9 182 2 view .LVU2243
	.loc 9 183 2 view .LVU2244
	.loc 9 184 2 view .LVU2245
	.loc 9 184 8 is_stmt 0 view .LVU2246
	mov	r0, r5
	bl	arch_swap
.LVL532:
	.loc 9 185 2 is_stmt 1 view .LVU2247
	.loc 9 185 2 is_stmt 0 view .LVU2248
	b	.L348
.L352:
	.align	2
.L351:
	.word	_kernel
.LBE1723:
.LBE1722:
.LBE1724:
	.cfi_endproc
.LFE674:
	.size	z_thread_abort, .-z_thread_abort
	.section	.text.z_impl_k_thread_join,"ax",%progbits
	.align	1
	.global	z_impl_k_thread_join
	.syntax unified
	.thumb
	.thumb_func
	.fpu fpv4-sp-d16
	.type	z_impl_k_thread_join, %function
z_impl_k_thread_join:
.LVL533:
.LFB675:
	.loc 1 1628 1 is_stmt 1 view -0
	.cfi_startproc
	@ args = 0, pretend = 0, frame = 0
	@ frame_needed = 0, uses_anonymous_args = 0
	.loc 1 1628 1 is_stmt 0 view .LVU2250
	push	{r4, r5, r6, lr}
	.cfi_def_cfa_offset 16
	.cfi_offset 4, -16
	.cfi_offset 5, -12
	.cfi_offset 6, -8
	.cfi_offset 14, -4
	mov	r5, r3
	.loc 1 1629 2 is_stmt 1 view .LVU2251
.LVL534:
.LBB1725:
.LBI1725:
	.loc 3 130 63 view .LVU2252
.LBB1726:
	.loc 3 132 2 view .LVU2253
	.loc 3 133 2 view .LVU2254
	.loc 3 139 2 view .LVU2255
.LBB1727:
.LBI1727:
	.loc 4 43 59 view .LVU2256
.LBB1728:
	.loc 4 45 2 view .LVU2257
	.loc 4 54 2 view .LVU2258
	.loc 4 56 2 view .LVU2259
	.syntax unified
@ 56 "/home/sebin/thesis/zephyrproject/zephyr/include/arch/arm/aarch32/asm_inline_gcc.h" 1
	mov r3, #4;mrs r6, BASEPRI;msr BASEPRI_MAX, r3;isb;
@ 0 "" 2
.LVL535:
	.loc 4 76 2 view .LVU2260
	.loc 4 76 2 is_stmt 0 view .LVU2261
	.thumb
	.syntax unified
.LBE1728:
.LBE1727:
	.loc 3 156 2 is_stmt 1 view .LVU2262
	.loc 3 156 2 is_stmt 0 view .LVU2263
.LBE1726:
.LBE1725:
	.loc 1 1630 2 is_stmt 1 view .LVU2264
	.loc 1 1632 2 view .LVU2265
	.loc 1 1632 7 view .LVU2266
	.loc 1 1632 15 view .LVU2267
	.loc 1 1634 2 view .LVU2268
	.loc 1 1634 19 is_stmt 0 view .LVU2269
	ldrb	r3, [r0, #13]	@ zero_extendqisi2
	.loc 1 1634 5 view .LVU2270
	tst	r3, #8
	bne	.L357
	mov	r4, r2
.LVL536:
	.loc 1 1636 9 is_stmt 1 view .LVU2271
.LBB1729:
	.loc 1 1636 12 is_stmt 0 view .LVU2272
	orrs	r3, r4, r5
	beq	.L358
	.loc 1 1638 9 is_stmt 1 view .LVU2273
	.loc 1 1638 39 is_stmt 0 view .LVU2274
	ldr	r3, .L363
	ldr	r3, [r3, #8]
	.loc 1 1638 12 view .LVU2275
	cmp	r3, r0
	beq	.L359
	.loc 1 1639 19 discriminator 1 view .LVU2276
	ldr	r1, [r0, #8]
	.loc 1 1639 33 discriminator 1 view .LVU2277
	add	r2, r3, #88
	.loc 1 1638 49 discriminator 1 view .LVU2278
	cmp	r1, r2
	bne	.L362
	.loc 1 1640 7 view .LVU2279
	mvn	r0, #44
.LVL537:
	.loc 1 1640 7 view .LVU2280
	b	.L354
.LVL538:
.L362:
	.loc 1 1642 5 is_stmt 1 view .LVU2281
	.loc 1 1642 6 view .LVU2282
	.loc 1 1643 3 view .LVU2283
	add	r1, r0, #88
	mov	r0, r3
.LVL539:
	.loc 1 1643 3 is_stmt 0 view .LVU2284
	bl	add_to_waitq_locked
.LVL540:
	.loc 1 1644 3 is_stmt 1 view .LVU2285
	mov	r2, r4
	.loc 1 1644 3 is_stmt 0 view .LVU2286
	mov	r3, r5
	ldr	r1, .L363
	ldr	r0, [r1, #8]
	bl	add_thread_timeout
.LVL541:
	.loc 1 1646 3 is_stmt 1 view .LVU2287
	.loc 1 1646 8 view .LVU2288
	.loc 1 1646 16 view .LVU2289
	.loc 1 1647 3 view .LVU2290
.LBB1730:
.LBI1730:
	.loc 9 192 50 view .LVU2291
.LBE1730:
.LBE1729:
	.loc 9 194 2 view .LVU2292
	.loc 3 206 2 view .LVU2293
	.loc 9 195 2 view .LVU2294
.LBB1734:
.LBB1733:
.LBB1731:
.LBI1731:
	.loc 9 180 19 view .LVU2295
.LBB1732:
	.loc 9 182 2 view .LVU2296
	.loc 9 183 2 view .LVU2297
	.loc 9 184 2 view .LVU2298
	.loc 9 184 8 is_stmt 0 view .LVU2299
	mov	r0, r6
	bl	arch_swap
.LVL542:
	.loc 9 185 2 is_stmt 1 view .LVU2300
	.loc 9 185 2 is_stmt 0 view .LVU2301
.LBE1732:
.LBE1731:
.LBE1733:
	.loc 1 1648 3 is_stmt 1 view .LVU2302
	.loc 1 1648 8 view .LVU2303
	.loc 1 1648 16 view .LVU2304
	.loc 1 1650 3 view .LVU2305
	b	.L353
.LVL543:
.L358:
	.loc 1 1637 7 is_stmt 0 view .LVU2306
	mvn	r0, #15
.LVL544:
	.loc 1 1637 7 view .LVU2307
	b	.L354
.LVL545:
.L359:
	.loc 1 1640 7 view .LVU2308
	mvn	r0, #44
.LVL546:
	.loc 1 1640 7 view .LVU2309
	b	.L354
.LVL547:
.L357:
	.loc 1 1640 7 view .LVU2310
.LBE1734:
	.loc 1 1635 7 view .LVU2311
	movs	r0, #0
.LVL548:
.L354:
	.loc 1 1653 2 is_stmt 1 view .LVU2312
	.loc 1 1653 7 view .LVU2313
	.loc 1 1653 15 view .LVU2314
	.loc 1 1655 2 view .LVU2315
.LBB1735:
.LBI1735:
	.loc 3 180 51 view .LVU2316
.LBE1735:
	.loc 3 183 2 view .LVU2317
	.loc 3 198 2 view .LVU2318
.LBB1738:
.LBB1736:
.LBI1736:
	.loc 4 84 51 view .LVU2319
.LBB1737:
	.loc 4 95 2 view .LVU2320
	.syntax unified
@ 95 "/home/sebin/thesis/zephyrproject/zephyr/include/arch/arm/aarch32/asm_inline_gcc.h" 1
	msr BASEPRI, r6;isb;
@ 0 "" 2
.LVL549:
	.loc 4 95 2 is_stmt 0 view .LVU2321
	.thumb
	.syntax unified
.LBE1737:
.LBE1736:
.LBE1738:
	.loc 1 1656 2 is_stmt 1 view .LVU2322
.L353:
	.loc 1 1657 1 is_stmt 0 view .LVU2323
	pop	{r4, r5, r6, pc}
.LVL550:
.L364:
	.loc 1 1657 1 view .LVU2324
	.align	2
.L363:
	.word	_kernel
	.cfi_endproc
.LFE675:
	.size	z_impl_k_thread_join, .-z_impl_k_thread_join
	.section	.text.z_sched_wake,"ax",%progbits
	.align	1
	.global	z_sched_wake
	.syntax unified
	.thumb
	.thumb_func
	.fpu fpv4-sp-d16
	.type	z_sched_wake, %function
z_sched_wake:
.LVL551:
.LFB676:
	.loc 1 1716 1 is_stmt 1 view -0
	.cfi_startproc
	@ args = 0, pretend = 0, frame = 0
	@ frame_needed = 0, uses_anonymous_args = 0
	.loc 1 1716 1 is_stmt 0 view .LVU2326
	push	{r3, r4, r5, r6, r7, r8, r9, lr}
	.cfi_def_cfa_offset 32
	.cfi_offset 3, -32
	.cfi_offset 4, -28
	.cfi_offset 5, -24
	.cfi_offset 6, -20
	.cfi_offset 7, -16
	.cfi_offset 8, -12
	.cfi_offset 9, -8
	.cfi_offset 14, -4
	mov	r6, r0
	mov	r8, r1
	mov	r7, r2
	.loc 1 1717 2 is_stmt 1 view .LVU2327
	.loc 1 1718 1 view .LVU2328
.LVL552:
	.loc 1 1720 2 view .LVU2329
.LBB1758:
	.loc 1 1720 7 view .LVU2330
	.loc 1 1720 24 is_stmt 0 view .LVU2331
	movs	r3, #0
.LVL553:
.LBB1759:
.LBI1759:
	.loc 3 130 63 is_stmt 1 view .LVU2332
.LBB1760:
	.loc 3 132 2 view .LVU2333
	.loc 3 133 2 view .LVU2334
	.loc 3 139 2 view .LVU2335
.LBB1761:
.LBI1761:
	.loc 4 43 59 view .LVU2336
.LBB1762:
	.loc 4 45 2 view .LVU2337
	.loc 4 54 2 view .LVU2338
	.loc 4 56 2 view .LVU2339
	.syntax unified
@ 56 "/home/sebin/thesis/zephyrproject/zephyr/include/arch/arm/aarch32/asm_inline_gcc.h" 1
	mov r2, #4;mrs r5, BASEPRI;msr BASEPRI_MAX, r2;isb;
@ 0 "" 2
.LVL554:
	.loc 4 76 2 view .LVU2340
	.loc 4 76 2 is_stmt 0 view .LVU2341
	.thumb
	.syntax unified
.LBE1762:
.LBE1761:
	.loc 3 156 2 is_stmt 1 view .LVU2342
	.loc 3 156 2 is_stmt 0 view .LVU2343
.LBE1760:
.LBE1759:
.LBE1758:
	.loc 1 1718 6 view .LVU2344
	mov	r9, r3
.LBB1779:
.LBB1764:
.LBB1763:
	.loc 3 156 9 view .LVU2345
	b	.L366
.LVL555:
.L371:
	.loc 3 156 9 view .LVU2346
.LBE1763:
.LBE1764:
	.loc 1 1724 4 is_stmt 1 view .LVU2347
.LBB1765:
.LBI1765:
	.file 15 "/home/sebin/thesis/zephyrproject/zephyr/kernel/include/kernel_internal.h"
	.loc 15 131 1 view .LVU2348
.LBB1766:
	.loc 15 135 2 view .LVU2349
.LBB1767:
.LBI1767:
	.loc 11 65 1 view .LVU2350
.LBB1768:
	.loc 11 67 2 view .LVU2351
	.loc 11 67 33 is_stmt 0 view .LVU2352
	str	r8, [r0, #156]
.LVL556:
	.loc 11 67 33 view .LVU2353
.LBE1768:
.LBE1767:
	.loc 15 136 2 is_stmt 1 view .LVU2354
	.loc 15 136 25 is_stmt 0 view .LVU2355
	str	r7, [r0, #20]
.LVL557:
	.loc 15 136 25 view .LVU2356
.LBE1766:
.LBE1765:
	.loc 1 1727 4 is_stmt 1 view .LVU2357
.LBB1769:
.LBI1769:
	.loc 1 698 20 view .LVU2358
.LBB1770:
	.loc 1 700 2 view .LVU2359
	.loc 1 700 22 is_stmt 0 view .LVU2360
	bl	pended_on_thread
.LVL558:
	.loc 1 700 2 view .LVU2361
	mov	r1, r4
	bl	z_priq_dumb_remove
.LVL559:
	.loc 1 701 2 is_stmt 1 view .LVU2362
.LBB1771:
.LBI1771:
	.loc 6 165 20 view .LVU2363
.LBB1772:
	.loc 6 167 2 view .LVU2364
	.loc 6 167 28 is_stmt 0 view .LVU2365
	ldrb	r3, [r4, #13]	@ zero_extendqisi2
	bic	r3, r3, #2
	strb	r3, [r4, #13]
.LVL560:
	.loc 6 167 28 view .LVU2366
.LBE1772:
.LBE1771:
	.loc 1 702 2 is_stmt 1 view .LVU2367
	.loc 1 702 25 is_stmt 0 view .LVU2368
	movs	r3, #0
	str	r3, [r4, #8]
.LVL561:
	.loc 1 702 25 view .LVU2369
.LBE1770:
.LBE1769:
	.loc 1 1728 4 is_stmt 1 view .LVU2370
.LBB1773:
.LBI1773:
	.loc 2 52 19 view .LVU2371
.LBB1774:
	.loc 2 54 2 view .LVU2372
	.loc 2 54 9 is_stmt 0 view .LVU2373
	add	r0, r4, #24
	bl	z_abort_timeout
.LVL562:
	.loc 2 54 9 view .LVU2374
.LBE1774:
.LBE1773:
	.loc 1 1729 4 is_stmt 1 view .LVU2375
	mov	r0, r4
	bl	ready_thread
.LVL563:
	.loc 1 1730 4 view .LVU2376
	.loc 1 1730 8 is_stmt 0 view .LVU2377
	mov	r9, #1
.LVL564:
.L367:
	.loc 1 1720 82 is_stmt 1 discriminator 2 view .LVU2378
.LBB1775:
.LBI1775:
	.loc 3 180 51 discriminator 2 view .LVU2379
.LBB1776:
	.loc 3 183 2 discriminator 2 view .LVU2380
	.loc 3 198 2 discriminator 2 view .LVU2381
.LBB1777:
.LBI1777:
	.loc 4 84 51 discriminator 2 view .LVU2382
.LBB1778:
	.loc 4 95 2 discriminator 2 view .LVU2383
	.syntax unified
@ 95 "/home/sebin/thesis/zephyrproject/zephyr/include/arch/arm/aarch32/asm_inline_gcc.h" 1
	msr BASEPRI, r5;isb;
@ 0 "" 2
.LVL565:
	.loc 4 95 2 is_stmt 0 discriminator 2 view .LVU2384
	.thumb
	.syntax unified
.LBE1778:
.LBE1777:
.LBE1776:
.LBE1775:
	.loc 1 1720 129 discriminator 2 view .LVU2385
	movs	r3, #1
.LVL566:
.L366:
	.loc 1 1720 72 is_stmt 1 discriminator 1 view .LVU2386
	.loc 1 1720 2 is_stmt 0 discriminator 1 view .LVU2387
	cbnz	r3, .L370
	.loc 1 1721 3 is_stmt 1 view .LVU2388
	.loc 1 1721 12 is_stmt 0 view .LVU2389
	mov	r0, r6
	bl	z_priq_dumb_best
.LVL567:
	.loc 1 1723 3 is_stmt 1 view .LVU2390
	.loc 1 1723 6 is_stmt 0 view .LVU2391
	mov	r4, r0
	cmp	r0, #0
	bne	.L371
	b	.L367
.LVL568:
.L370:
	.loc 1 1723 6 view .LVU2392
.LBE1779:
	.loc 1 1734 2 is_stmt 1 view .LVU2393
	.loc 1 1735 1 is_stmt 0 view .LVU2394
	mov	r0, r9
	pop	{r3, r4, r5, r6, r7, r8, r9, pc}
	.loc 1 1735 1 view .LVU2395
	.cfi_endproc
.LFE676:
	.size	z_sched_wake, .-z_sched_wake
	.section	.text.z_sched_wait,"ax",%progbits
	.align	1
	.global	z_sched_wait
	.syntax unified
	.thumb
	.thumb_func
	.fpu fpv4-sp-d16
	.type	z_sched_wait, %function
z_sched_wait:
.LVL569:
.LFB677:
	.loc 1 1739 1 is_stmt 1 view -0
	.cfi_startproc
	@ args = 12, pretend = 0, frame = 0
	@ frame_needed = 0, uses_anonymous_args = 0
	.loc 1 1739 1 is_stmt 0 view .LVU2397
	push	{r4, r6, r7, lr}
	.cfi_def_cfa_offset 16
	.cfi_offset 4, -16
	.cfi_offset 6, -12
	.cfi_offset 7, -8
	.cfi_offset 14, -4
	sub	sp, sp, #8
	.cfi_def_cfa_offset 24
	ldr	r4, [sp, #32]
	.loc 1 1740 2 is_stmt 1 view .LVU2398
	.loc 1 1740 12 is_stmt 0 view .LVU2399
	ldrd	r6, [sp, #24]
	strd	r6, [sp]
	bl	z_pend_curr
.LVL570:
	.loc 1 1742 2 is_stmt 1 view .LVU2400
	.loc 1 1742 5 is_stmt 0 view .LVU2401
	cbz	r4, .L372
	.loc 1 1743 3 is_stmt 1 view .LVU2402
	.loc 1 1743 26 is_stmt 0 view .LVU2403
	ldr	r3, .L375
	ldr	r3, [r3, #8]
	.loc 1 1743 40 view .LVU2404
	ldr	r3, [r3, #20]
	.loc 1 1743 9 view .LVU2405
	str	r3, [r4]
	.loc 1 1745 2 is_stmt 1 view .LVU2406
.L372:
	.loc 1 1746 1 is_stmt 0 view .LVU2407
	add	sp, sp, #8
	.cfi_def_cfa_offset 16
	@ sp needed
	pop	{r4, r6, r7, pc}
.LVL571:
.L376:
	.loc 1 1746 1 view .LVU2408
	.align	2
.L375:
	.word	_kernel
	.cfi_endproc
.LFE677:
	.size	z_sched_wait, .-z_sched_wait
	.global	sched_spinlock
	.section	.bss.pending_current,"aw",%nobits
	.align	2
	.set	.LANCHOR2,. + 0
	.type	pending_current, %object
	.size	pending_current, 4
pending_current:
	.space	4
	.section	.bss.sched_spinlock,"aw",%nobits
	.align	2
	.set	.LANCHOR3,. + 0
	.type	sched_spinlock, %object
	.size	sched_spinlock, 1
sched_spinlock:
	.space	1
	.section	.bss.slice_max_prio,"aw",%nobits
	.align	2
	.set	.LANCHOR1,. + 0
	.type	slice_max_prio, %object
	.size	slice_max_prio, 4
slice_max_prio:
	.space	4
	.section	.bss.slice_time,"aw",%nobits
	.align	2
	.set	.LANCHOR0,. + 0
	.type	slice_time, %object
	.size	slice_time, 4
slice_time:
	.space	4
	.text
.Letext0:
	.file 16 "/home/sebin/LIOT/gcc-arm-none-eabi-9-2019-q4-major/lib/gcc/arm-none-eabi/9.2.1/include/stddef.h"
	.file 17 "/home/sebin/LIOT/gcc-arm-none-eabi-9-2019-q4-major/arm-none-eabi/include/machine/_default_types.h"
	.file 18 "/home/sebin/LIOT/gcc-arm-none-eabi-9-2019-q4-major/arm-none-eabi/include/sys/_stdint.h"
	.file 19 "/home/sebin/thesis/zephyrproject/zephyr/include/kernel/sched_priq.h"
	.file 20 "/home/sebin/thesis/zephyrproject/zephyr/include/sys/slist.h"
	.file 21 "/home/sebin/thesis/zephyrproject/zephyr/include/sys/sys_heap.h"
	.file 22 "/home/sebin/thesis/zephyrproject/zephyr/include/kernel_structs.h"
	.file 23 "/home/sebin/thesis/zephyrproject/zephyr/include/kernel/thread.h"
	.file 24 "/home/sebin/thesis/zephyrproject/zephyr/include/kernel.h"
	.file 25 "/home/sebin/thesis/zephyrproject/zephyr/include/kernel/thread_stack.h"
	.file 26 "/home/sebin/thesis/zephyrproject/zephyr/include/arch/arm/aarch32/thread.h"
	.file 27 "/home/sebin/thesis/zephyrproject/zephyr/include/arch/arm/aarch32/exc.h"
	.file 28 "/home/sebin/thesis/zephyrproject/zephyr/include/sw_isr_table.h"
	.file 29 "/home/sebin/thesis/zephyrproject/modules/hal/infineon/XMCLib/devices/XMC4500/Include/system_XMC4500.h"
	.file 30 "/home/sebin/thesis/zephyrproject/modules/hal/cmsis/CMSIS/Core/Include/core_cm4.h"
	.file 31 "/home/sebin/thesis/zephyrproject/zephyr/include/arch/arm/aarch32/mpu/arm_mpu_v7m.h"
	.file 32 "/home/sebin/thesis/zephyrproject/zephyr/include/arch/arm/aarch32/mpu/arm_mpu.h"
	.file 33 "/home/sebin/thesis/zephyrproject/zephyr/include/sys_clock.h"
	.file 34 "/home/sebin/LIOT/gcc-arm-none-eabi-9-2019-q4-major/arm-none-eabi/include/sys/lock.h"
	.file 35 "/home/sebin/LIOT/gcc-arm-none-eabi-9-2019-q4-major/arm-none-eabi/include/sys/_types.h"
	.file 36 "/home/sebin/LIOT/gcc-arm-none-eabi-9-2019-q4-major/arm-none-eabi/include/sys/reent.h"
	.file 37 "/home/sebin/LIOT/gcc-arm-none-eabi-9-2019-q4-major/arm-none-eabi/include/sys/errno.h"
	.file 38 "/home/sebin/thesis/zephyrproject/zephyr/arch/arm/include/aarch32/cortex_m/stack.h"
	.file 39 "/home/sebin/thesis/zephyrproject/zephyr/include/logging/log_instance.h"
	.file 40 "/home/sebin/thesis/zephyrproject/zephyr/include/sys/cbprintf_internal.h"
	.file 41 "/home/sebin/thesis/zephyrproject/zephyr/include/logging/log_msg2.h"
	.file 42 "/home/sebin/thesis/zephyrproject/zephyr/include/logging/log_msg.h"
	.file 43 "/home/sebin/thesis/zephyrproject/zephyr/include/logging/log_core.h"
	.file 44 "/home/sebin/thesis/zephyrproject/zephyr/include/drivers/timer/system_timer.h"
	.file 45 "/home/sebin/thesis/zephyrproject/zephyr/include/arch/structs.h"