	.cpu cortex-m4
	.eabi_attribute 27, 1
	.eabi_attribute 28, 1
	.eabi_attribute 20, 1
	.eabi_attribute 21, 1
	.eabi_attribute 23, 3
	.eabi_attribute 24, 1
	.eabi_attribute 25, 1
	.eabi_attribute 26, 1
	.eabi_attribute 30, 1
	.eabi_attribute 34, 1
	.eabi_attribute 38, 1
	.eabi_attribute 18, 4
	.file	"sem.c"
	.text
.Ltext0:
	.cfi_sections	.debug_frame
	.section	.text.z_impl_k_sem_init,"ax",%progbits
	.align	1
	.global	z_impl_k_sem_init
	.arch armv7e-m
	.syntax unified
	.thumb
	.thumb_func
	.fpu fpv4-sp-d16
	.type	z_impl_k_sem_init, %function
z_impl_k_sem_init:
.LVL0:
.LFB553:
	.file 1 "/home/sebin/thesis/zephyrproject/zephyr/kernel/sem.c"
	.loc 1 43 1 view -0
	.cfi_startproc
	@ args = 0, pretend = 0, frame = 0
	@ frame_needed = 0, uses_anonymous_args = 0
	@ link register save eliminated.
	.loc 1 47 2 view .LVU1
	.loc 1 47 5 is_stmt 0 view .LVU2
	cbz	r2, .L3
	.loc 1 47 1 discriminator 1 view .LVU3
	cmp	r2, r1
	bcc	.L4
	.loc 1 53 2 is_stmt 1 view .LVU4
	.loc 1 53 13 is_stmt 0 view .LVU5
	str	r1, [r0, #8]
	.loc 1 54 2 is_stmt 1 view .LVU6
	.loc 1 54 13 is_stmt 0 view .LVU7
	str	r2, [r0, #12]
	.loc 1 56 2 is_stmt 1 view .LVU8
	.loc 1 56 7 view .LVU9
	.loc 1 56 15 view .LVU10
	.loc 1 58 2 view .LVU11
.LVL1:
.LBB57:
.LBI57:
	.file 2 "/home/sebin/thesis/zephyrproject/zephyr/include/wait_q.h"
	.loc 2 47 20 view .LVU12
.LBB58:
	.loc 2 49 2 view .LVU13
.LBB59:
.LBI59:
	.file 3 "/home/sebin/thesis/zephyrproject/zephyr/include/sys/dlist.h"
	.loc 3 197 20 view .LVU14
.LBB60:
	.loc 3 199 2 view .LVU15
	.loc 3 199 13 is_stmt 0 view .LVU16
	str	r0, [r0]
	.loc 3 200 2 is_stmt 1 view .LVU17
	.loc 3 200 13 is_stmt 0 view .LVU18
	str	r0, [r0, #4]
.LVL2:
	.loc 3 200 13 view .LVU19
.LBE60:
.LBE59:
.LBE58:
.LBE57:
	.loc 1 60 2 is_stmt 1 view .LVU20
	add	r3, r0, #16
.LVL3:
.LBB61:
.LBI61:
	.loc 3 197 20 view .LVU21
.LBB62:
	.loc 3 199 2 view .LVU22
	.loc 3 199 13 is_stmt 0 view .LVU23
	str	r3, [r0, #16]
	.loc 3 200 2 is_stmt 1 view .LVU24
	.loc 3 200 13 is_stmt 0 view .LVU25
	str	r3, [r0, #20]
.LVL4:
	.loc 3 200 13 view .LVU26
.LBE62:
.LBE61:
	.loc 1 62 2 is_stmt 1 view .LVU27
	.file 4 "/home/sebin/thesis/zephyrproject/zephyr/include/sys/kobject.h"
	.loc 4 202 2 view .LVU28
	.loc 1 64 2 view .LVU29
	.loc 1 64 9 is_stmt 0 view .LVU30
	movs	r0, #0
.LVL5:
	.loc 1 64 9 view .LVU31
	bx	lr
.LVL6:
.L3:
	.loc 1 50 10 view .LVU32
	mvn	r0, #21
.LVL7:
	.loc 1 50 10 view .LVU33
	bx	lr
.LVL8:
.L4:
	.loc 1 50 10 view .LVU34
	mvn	r0, #21
.LVL9:
	.loc 1 65 1 view .LVU35
	bx	lr
	.cfi_endproc
.LFE553:
	.size	z_impl_k_sem_init, .-z_impl_k_sem_init
	.section	.text.z_impl_k_sem_give,"ax",%progbits
	.align	1
	.global	z_impl_k_sem_give
	.syntax unified
	.thumb
	.thumb_func
	.fpu fpv4-sp-d16
	.type	z_impl_k_sem_give, %function
z_impl_k_sem_give:
.LVL10:
.LFB555:
	.loc 1 87 1 is_stmt 1 view -0
	.cfi_startproc
	@ args = 0, pretend = 0, frame = 0
	@ frame_needed = 0, uses_anonymous_args = 0
	.loc 1 87 1 is_stmt 0 view .LVU37
	push	{r3, r4, r5, lr}
	.cfi_def_cfa_offset 16
	.cfi_offset 3, -16
	.cfi_offset 4, -12
	.cfi_offset 5, -8
	.cfi_offset 14, -4
	mov	r4, r0
	.loc 1 88 2 is_stmt 1 view .LVU38
.LVL11:
.LBB63:
.LBI63:
	.file 5 "/home/sebin/thesis/zephyrproject/zephyr/include/spinlock.h"
	.loc 5 130 63 view .LVU39
.LBB64:
	.loc 5 132 2 view .LVU40
	.loc 5 133 2 view .LVU41
	.loc 5 139 2 view .LVU42
.LBB65:
.LBI65:
	.file 6 "/home/sebin/thesis/zephyrproject/zephyr/include/arch/arm/aarch32/asm_inline_gcc.h"
	.loc 6 43 59 view .LVU43
.LBB66:
	.loc 6 45 2 view .LVU44
	.loc 6 54 2 view .LVU45
	.loc 6 56 2 view .LVU46
	.syntax unified
@ 56 "/home/sebin/thesis/zephyrproject/zephyr/include/arch/arm/aarch32/asm_inline_gcc.h" 1
	mov r3, #4;mrs r5, BASEPRI;msr BASEPRI_MAX, r3;isb;
@ 0 "" 2
.LVL12:
	.loc 6 76 2 view .LVU47
	.loc 6 76 2 is_stmt 0 view .LVU48
	.thumb
	.syntax unified
.LBE66:
.LBE65:
	.loc 5 156 2 is_stmt 1 view .LVU49
	.loc 5 156 2 is_stmt 0 view .LVU50
.LBE64:
.LBE63:
	.loc 1 89 2 is_stmt 1 view .LVU51
	.loc 1 91 2 view .LVU52
	.loc 1 91 7 view .LVU53
	.loc 1 91 15 view .LVU54
	.loc 1 93 2 view .LVU55
	.loc 1 93 11 is_stmt 0 view .LVU56
	bl	z_unpend_first_thread
.LVL13:
	.loc 1 95 2 is_stmt 1 view .LVU57
	.loc 1 95 5 is_stmt 0 view .LVU58
	cbz	r0, .L6
	.loc 1 96 3 is_stmt 1 view .LVU59
.LVL14:
.LBB67:
.LBI67:
	.file 7 "/home/sebin/thesis/zephyrproject/zephyr/arch/arm/include/aarch32/kernel_arch_func.h"
	.loc 7 65 1 view .LVU60
.LBB68:
	.loc 7 67 2 view .LVU61
	.loc 7 67 33 is_stmt 0 view .LVU62
	movs	r2, #0
	str	r2, [r0, #156]
.LVL15:
	.loc 7 67 33 view .LVU63
.LBE68:
.LBE67:
	.loc 1 97 3 is_stmt 1 view .LVU64
	bl	z_ready_thread
.LVL16:
.L7:
	.loc 1 103 2 view .LVU65
	mov	r1, r5
	ldr	r0, .L11
	bl	z_reschedule
.LVL17:
	.loc 1 105 2 view .LVU66
	.loc 1 105 7 view .LVU67
	.loc 1 105 15 view .LVU68
	.loc 1 106 1 is_stmt 0 view .LVU69
	pop	{r3, r4, r5, pc}
.LVL18:
.L6:
	.loc 1 99 3 is_stmt 1 view .LVU70
	.loc 1 99 14 is_stmt 0 view .LVU71
	ldr	r3, [r4, #8]
	.loc 1 99 35 view .LVU72
	ldr	r2, [r4, #12]
	.loc 1 99 49 view .LVU73
	cmp	r3, r2
	beq	.L9
	movs	r2, #1
.L8:
	.loc 1 99 14 discriminator 4 view .LVU74
	add	r3, r3, r2
	str	r3, [r4, #8]
	.loc 1 100 3 is_stmt 1 discriminator 4 view .LVU75
.LVL19:
.LBB69:
.LBI69:
	.loc 1 77 20 discriminator 4 view .LVU76
.LBB70:
	.loc 1 80 2 discriminator 4 view .LVU77
	movs	r1, #2
	add	r0, r4, #16
.LVL20:
	.loc 1 80 2 is_stmt 0 discriminator 4 view .LVU78
	bl	z_handle_obj_poll_events
.LVL21:
	.loc 1 84 1 discriminator 4 view .LVU79
	b	.L7
.LVL22:
.L9:
	.loc 1 84 1 discriminator 4 view .LVU80
.LBE70:
.LBE69:
	.loc 1 99 49 view .LVU81
	movs	r2, #0
	b	.L8
.L12:
	.align	2
.L11:
	.word	.LANCHOR0
	.cfi_endproc
.LFE555:
	.size	z_impl_k_sem_give, .-z_impl_k_sem_give
	.section	.text.z_impl_k_sem_take,"ax",%progbits
	.align	1
	.global	z_impl_k_sem_take
	.syntax unified
	.thumb
	.thumb_func
	.fpu fpv4-sp-d16
	.type	z_impl_k_sem_take, %function
z_impl_k_sem_take:
.LVL23:
.LFB556:
	.loc 1 118 1 is_stmt 1 view -0
	.cfi_startproc
	@ args = 0, pretend = 0, frame = 0
	@ frame_needed = 0, uses_anonymous_args = 0
	.loc 1 118 1 is_stmt 0 view .LVU83
	push	{r4, r5, lr}
	.cfi_def_cfa_offset 12
	.cfi_offset 4, -12
	.cfi_offset 5, -8
	.cfi_offset 14, -4
	sub	sp, sp, #12
	.cfi_def_cfa_offset 24
	mov	r5, r3
	.loc 1 119 2 is_stmt 1 view .LVU84
.LVL24:
	.loc 1 121 4 view .LVU85
	.loc 1 122 43 view .LVU86
	.loc 1 124 2 view .LVU87
.LBB71:
.LBI71:
	.loc 5 130 63 view .LVU88
.LBB72:
	.loc 5 132 2 view .LVU89
	.loc 5 133 2 view .LVU90
	.loc 5 139 2 view .LVU91
.LBB73:
.LBI73:
	.loc 6 43 59 view .LVU92
.LBB74:
	.loc 6 45 2 view .LVU93
	.loc 6 54 2 view .LVU94
	.loc 6 56 2 view .LVU95
	.syntax unified
@ 56 "/home/sebin/thesis/zephyrproject/zephyr/include/arch/arm/aarch32/asm_inline_gcc.h" 1
	mov r3, #4;mrs r1, BASEPRI;msr BASEPRI_MAX, r3;isb;
@ 0 "" 2
.LVL25:
	.loc 6 76 2 view .LVU96
	.loc 6 76 2 is_stmt 0 view .LVU97
	.thumb
	.syntax unified
.LBE74:
.LBE73:
	.loc 5 156 2 is_stmt 1 view .LVU98
	.loc 5 156 2 is_stmt 0 view .LVU99
.LBE72:
.LBE71:
	.loc 1 126 2 is_stmt 1 view .LVU100
	.loc 1 126 7 view .LVU101
	.loc 1 126 15 view .LVU102
	.loc 1 128 2 view .LVU103
	.loc 1 128 12 is_stmt 0 view .LVU104
	ldr	r3, [r0, #8]
	.loc 1 128 5 view .LVU105
	cbz	r3, .L14
	.loc 1 129 3 is_stmt 1 view .LVU106
	.loc 1 129 13 is_stmt 0 view .LVU107
	subs	r3, r3, #1
	str	r3, [r0, #8]
	.loc 1 130 3 is_stmt 1 view .LVU108
.LVL26:
.LBB75:
.LBI75:
	.loc 5 180 51 view .LVU109
.LBE75:
	.loc 5 183 2 view .LVU110
	.loc 5 198 2 view .LVU111
.LBB78:
.LBB76:
.LBI76:
	.loc 6 84 51 view .LVU112
.LBB77:
	.loc 6 95 2 view .LVU113
	.syntax unified
@ 95 "/home/sebin/thesis/zephyrproject/zephyr/include/arch/arm/aarch32/asm_inline_gcc.h" 1
	msr BASEPRI, r1;isb;
@ 0 "" 2
.LVL27:
	.loc 6 95 2 is_stmt 0 view .LVU114
	.thumb
	.syntax unified
.LBE77:
.LBE76:
.LBE78:
	.loc 1 131 3 is_stmt 1 view .LVU115
	.loc 1 132 3 view .LVU116
	.loc 1 131 7 is_stmt 0 view .LVU117
	movs	r0, #0
.LVL28:
.L13:
	.loc 1 149 1 view .LVU118
	add	sp, sp, #12
	.cfi_remember_state
	.cfi_def_cfa_offset 12
	@ sp needed
	pop	{r4, r5, pc}
.LVL29:
.L14:
	.cfi_restore_state
	.loc 1 149 1 view .LVU119
	mov	r4, r2
.LVL30:
	.loc 1 135 2 is_stmt 1 view .LVU120
.LBB79:
	.loc 1 135 5 is_stmt 0 view .LVU121
	orrs	r3, r4, r5
	beq	.L18
.LBE79:
	.loc 1 141 2 is_stmt 1 view .LVU122
	.loc 1 141 7 view .LVU123
	.loc 1 141 15 view .LVU124
	.loc 1 143 2 view .LVU125
	.loc 1 143 8 is_stmt 0 view .LVU126
	strd	r4, [sp]
	mov	r2, r0
	ldr	r0, .L19
.LVL31:
	.loc 1 143 8 view .LVU127
	bl	z_pend_curr
.LVL32:
.L15:
	.loc 1 146 2 is_stmt 1 view .LVU128
	.loc 1 146 7 view .LVU129
	.loc 1 146 15 view .LVU130
	.loc 1 148 2 view .LVU131
	.loc 1 148 9 is_stmt 0 view .LVU132
	b	.L13
.LVL33:
.L18:
.LBB84:
	.loc 1 136 3 is_stmt 1 view .LVU133
.LBB80:
.LBI80:
	.loc 5 180 51 view .LVU134
.LBE80:
.LBE84:
	.loc 5 183 2 view .LVU135
	.loc 5 198 2 view .LVU136
.LBB85:
.LBB83:
.LBB81:
.LBI81:
	.loc 6 84 51 view .LVU137
.LBB82:
	.loc 6 95 2 view .LVU138
	.syntax unified
@ 95 "/home/sebin/thesis/zephyrproject/zephyr/include/arch/arm/aarch32/asm_inline_gcc.h" 1
	msr BASEPRI, r1;isb;
@ 0 "" 2
.LVL34:
	.loc 6 95 2 is_stmt 0 view .LVU139
	.thumb
	.syntax unified
.LBE82:
.LBE81:
.LBE83:
	.loc 1 137 3 is_stmt 1 view .LVU140
	.loc 1 138 3 view .LVU141
	.loc 1 137 7 is_stmt 0 view .LVU142
	mvn	r0, #15
.LVL35:
	.loc 1 137 7 view .LVU143
	b	.L13
.L20:
	.align	2
.L19:
	.word	.LANCHOR0
.LBE85:
	.cfi_endproc
.LFE556:
	.size	z_impl_k_sem_take, .-z_impl_k_sem_take
	.section	.text.z_impl_k_sem_reset,"ax",%progbits
	.align	1
	.global	z_impl_k_sem_reset
	.syntax unified
	.thumb
	.thumb_func
	.fpu fpv4-sp-d16
	.type	z_impl_k_sem_reset, %function
z_impl_k_sem_reset:
.LVL36:
.LFB557:
	.loc 1 152 1 is_stmt 1 view -0
	.cfi_startproc
	@ args = 0, pretend = 0, frame = 0
	@ frame_needed = 0, uses_anonymous_args = 0
	.loc 1 152 1 is_stmt 0 view .LVU145
	push	{r3, r4, r5, lr}
	.cfi_def_cfa_offset 16
	.cfi_offset 3, -16
	.cfi_offset 4, -12
	.cfi_offset 5, -8
	.cfi_offset 14, -4
	mov	r4, r0
	.loc 1 153 2 is_stmt 1 view .LVU146
	.loc 1 154 2 view .LVU147
.LVL37:
.LBB86:
.LBI86:
	.loc 5 130 63 view .LVU148
.LBB87:
	.loc 5 132 2 view .LVU149
	.loc 5 133 2 view .LVU150
	.loc 5 139 2 view .LVU151
.LBB88:
.LBI88:
	.loc 6 43 59 view .LVU152
.LBB89:
	.loc 6 45 2 view .LVU153
	.loc 6 54 2 view .LVU154
	.loc 6 56 2 view .LVU155
	.syntax unified
@ 56 "/home/sebin/thesis/zephyrproject/zephyr/include/arch/arm/aarch32/asm_inline_gcc.h" 1
	mov r3, #4;mrs r5, BASEPRI;msr BASEPRI_MAX, r3;isb;
@ 0 "" 2
.LVL38:
	.loc 6 76 2 view .LVU156
	.loc 6 76 2 is_stmt 0 view .LVU157
	.thumb
	.syntax unified
.LBE89:
.LBE88:
	.loc 5 156 2 is_stmt 1 view .LVU158
.L23:
	.loc 5 156 2 is_stmt 0 view .LVU159
.LBE87:
.LBE86:
	.loc 1 156 2 is_stmt 1 view .LVU160
	.loc 1 157 3 view .LVU161
	.loc 1 157 12 is_stmt 0 view .LVU162
	mov	r0, r4
	bl	z_unpend_first_thread
.LVL39:
	.loc 1 158 3 is_stmt 1 view .LVU163
	.loc 1 158 6 is_stmt 0 view .LVU164
	cbz	r0, .L22
	.loc 1 161 3 is_stmt 1 view .LVU165
.LVL40:
.LBB90:
.LBI90:
	.loc 7 65 1 view .LVU166
.LBB91:
	.loc 7 67 2 view .LVU167
	.loc 7 67 33 is_stmt 0 view .LVU168
	mvn	r2, #10
	str	r2, [r0, #156]
.LVL41:
	.loc 7 67 33 view .LVU169
.LBE91:
.LBE90:
	.loc 1 162 3 is_stmt 1 view .LVU170
	bl	z_ready_thread
.LVL42:
	.loc 1 156 8 view .LVU171
	.loc 1 157 10 is_stmt 0 view .LVU172
	b	.L23
.LVL43:
.L22:
	.loc 1 164 2 is_stmt 1 view .LVU173
	.loc 1 164 13 is_stmt 0 view .LVU174
	movs	r3, #0
	str	r3, [r4, #8]
	.loc 1 166 2 is_stmt 1 view .LVU175
	.loc 1 166 7 view .LVU176
	.loc 1 166 15 view .LVU177
	.loc 1 168 2 view .LVU178
.LVL44:
.LBB92:
.LBI92:
	.loc 1 77 20 view .LVU179
.LBB93:
	.loc 1 80 2 view .LVU180
	movs	r1, #2
	add	r0, r4, #16
.LVL45:
	.loc 1 80 2 is_stmt 0 view .LVU181
	bl	z_handle_obj_poll_events
.LVL46:
	.loc 1 80 2 view .LVU182
.LBE93:
.LBE92:
	.loc 1 170 2 is_stmt 1 view .LVU183
	mov	r1, r5
	ldr	r0, .L25
	bl	z_reschedule
.LVL47:
	.loc 1 171 1 is_stmt 0 view .LVU184
	pop	{r3, r4, r5, pc}
.LVL48:
.L26:
	.loc 1 171 1 view .LVU185
	.align	2
.L25:
	.word	.LANCHOR0
	.cfi_endproc
.LFE557:
	.size	z_impl_k_sem_reset, .-z_impl_k_sem_reset
	.section	.bss.lock,"aw",%nobits
	.align	2
	.set	.LANCHOR0,. + 0
	.type	lock, %object
	.size	lock, 1
lock:
	.space	1
	.text
.Letext0:
	.file 8 "/home/sebin/LIOT/gcc-arm-none-eabi-9-2019-q4-major/lib/gcc/arm-none-eabi/9.2.1/include/stddef.h"
	.file 9 "/home/sebin/LIOT/gcc-arm-none-eabi-9-2019-q4-major/arm-none-eabi/include/machine/_default_types.h"
	.file 10 "/home/sebin/LIOT/gcc-arm-none-eabi-9-2019-q4-major/arm-none-eabi/include/sys/_stdint.h"
	.file 11 "/home/sebin/thesis/zephyrproject/zephyr/include/sys/rb.h"
	.file 12 "/home/sebin/thesis/zephyrproject/zephyr/include/sys/slist.h"
	.file 13 "/home/sebin/thesis/zephyrproject/zephyr/include/sys/sys_heap.h"
	.file 14 "/home/sebin/thesis/zephyrproject/zephyr/include/kernel_structs.h"
	.file 15 "/home/sebin/thesis/zephyrproject/zephyr/include/kernel/thread.h"
	.file 16 "/home/sebin/thesis/zephyrproject/zephyr/include/kernel.h"
	.file 17 "/home/sebin/thesis/zephyrproject/zephyr/include/kernel/thread_stack.h"
	.file 18 "/home/sebin/thesis/zephyrproject/zephyr/include/arch/arm/aarch32/thread.h"
	.file 19 "/home/sebin/thesis/zephyrproject/zephyr/include/arch/arm/aarch32/exc.h"
	.file 20 "/home/sebin/thesis/zephyrproject/zephyr/include/sw_isr_table.h"
	.file 21 "/home/sebin/thesis/zephyrproject/modules/hal/infineon/XMCLib/devices/XMC4500/Include/system_XMC4500.h"
	.file 22 "/home/sebin/thesis/zephyrproject/modules/hal/cmsis/CMSIS/Core/Include/core_cm4.h"
	.file 23 "/home/sebin/thesis/zephyrproject/zephyr/include/arch/arm/aarch32/mpu/arm_mpu_v7m.h"
	.file 24 "/home/sebin/thesis/zephyrproject/zephyr/include/arch/arm/aarch32/mpu/arm_mpu.h"
	.file 25 "/home/sebin/thesis/zephyrproject/zephyr/include/sys_clock.h"
	.file 26 "/home/sebin/LIOT/gcc-arm-none-eabi-9-2019-q4-major/arm-none-eabi/include/sys/lock.h"
	.file 27 "/home/sebin/LIOT/gcc-arm-none-eabi-9-2019-q4-major/arm-none-eabi/include/sys/_types.h"
	.file 28 "/home/sebin/LIOT/gcc-arm-none-eabi-9-2019-q4-major/arm-none-eabi/include/sys/reent.h"
	.file 29 "/home/sebin/LIOT/gcc-arm-none-eabi-9-2019-q4-major/arm-none-eabi/include/sys/errno.h"
	.file 30 "/home/sebin/thesis/zephyrproject/zephyr/arch/arm/include/aarch32/cortex_m/stack.h"
	.file 31 "/home/sebin/thesis/zephyrproject/zephyr/kernel/include/kernel_internal.h"
	.file 32 "/home/sebin/thesis/zephyrproject/zephyr/kernel/include/ksched.h"
	.file 33 "/home/sebin/thesis/zephyrproject/zephyr/include/arch/structs.h"