	.cpu cortex-m4
	.eabi_attribute 27, 1
	.eabi_attribute 28, 1
	.eabi_attribute 20, 1
	.eabi_attribute 21, 1
	.eabi_attribute 23, 3
	.eabi_attribute 24, 1
	.eabi_attribute 25, 1
	.eabi_attribute 26, 1
	.eabi_attribute 30, 1
	.eabi_attribute 34, 1
	.eabi_attribute 38, 1
	.eabi_attribute 18, 4
	.file	"thread.c"
	.text
.Ltext0:
	.cfi_sections	.debug_frame
	.section	.text.setup_thread_stack,"ax",%progbits
	.align	1
	.arch armv7e-m
	.syntax unified
	.thumb
	.thumb_func
	.fpu fpv4-sp-d16
	.type	setup_thread_stack, %function
setup_thread_stack:
.LVL0:
.LFB617:
	.file 1 "/home/sebin/thesis/zephyrproject/zephyr/kernel/thread.c"
	.loc 1 426 1 view -0
	.cfi_startproc
	@ args = 0, pretend = 0, frame = 0
	@ frame_needed = 0, uses_anonymous_args = 0
	.loc 1 426 1 is_stmt 0 view .LVU1
	push	{r3, r4, r5, r6, r7, lr}
	.cfi_def_cfa_offset 24
	.cfi_offset 3, -24
	.cfi_offset 4, -20
	.cfi_offset 5, -16
	.cfi_offset 6, -12
	.cfi_offset 7, -8
	.cfi_offset 14, -4
	mov	r6, r0
	.loc 1 427 2 is_stmt 1 view .LVU2
	.loc 1 428 2 view .LVU3
	.loc 1 429 2 view .LVU4
.LVL1:
	.loc 1 440 3 view .LVU5
	.loc 1 440 51 is_stmt 0 view .LVU6
	adds	r4, r2, #7
	.loc 1 440 79 view .LVU7
	bic	r4, r4, #7
	.loc 1 440 18 view .LVU8
	add	r5, r4, #32
.LVL2:
	.loc 1 441 3 is_stmt 1 view .LVU9
.LBB62:
.LBI62:
	.file 2 "/home/sebin/thesis/zephyrproject/zephyr/include/kernel/thread_stack.h"
	.loc 2 292 21 view .LVU10
.LBB63:
	.loc 2 294 2 view .LVU11
	.loc 2 294 21 is_stmt 0 view .LVU12
	add	r7, r1, #32
.LVL3:
	.loc 2 294 21 view .LVU13
.LBE63:
.LBE62:
	.loc 1 442 3 is_stmt 1 view .LVU14
	.loc 1 448 2 view .LVU15
	.loc 1 448 12 is_stmt 0 view .LVU16
	add	r5, r5, r1
.LVL4:
	.loc 1 450 2 is_stmt 1 view .LVU17
.LBB64:
	.loc 1 450 7 view .LVU18
.LBE64:
	.loc 1 450 203 view .LVU19
	.loc 1 456 1 view .LVU20
.LBB65:
.LBI65:
	.file 3 "/home/sebin/LIOT/gcc-arm-none-eabi-9-2019-q4-major/arm-none-eabi/include/ssp/string.h"
	.loc 3 86 189 view .LVU21
.LBB66:
	.loc 3 86 238 view .LVU22
	.loc 3 86 245 is_stmt 0 view .LVU23
	mov	r2, r4
.LVL5:
	.loc 3 86 245 view .LVU24
	movs	r1, #170
.LVL6:
	.loc 3 86 245 view .LVU25
	mov	r0, r7
.LVL7:
	.loc 3 86 245 view .LVU26
	bl	memset
.LVL8:
	.loc 3 86 245 view .LVU27
.LBE66:
.LBE65:
	.loc 1 480 2 is_stmt 1 view .LVU28
	.loc 1 489 2 view .LVU29
	.loc 1 489 31 is_stmt 0 view .LVU30
	str	r7, [r6, #136]
	.loc 1 490 2 is_stmt 1 view .LVU31
	.loc 1 490 30 is_stmt 0 view .LVU32
	str	r4, [r6, #140]
	.loc 1 491 2 is_stmt 1 view .LVU33
	.loc 1 491 31 is_stmt 0 view .LVU34
	movs	r3, #0
	str	r3, [r6, #144]
	.loc 1 493 2 is_stmt 1 view .LVU35
	.loc 1 495 2 view .LVU36
	.loc 1 496 1 is_stmt 0 view .LVU37
	mov	r0, r5
	pop	{r3, r4, r5, r6, r7, pc}
	.loc 1 496 1 view .LVU38
	.cfi_endproc
.LFE617:
	.size	setup_thread_stack, .-setup_thread_stack
	.section	.text.k_thread_foreach,"ax",%progbits
	.align	1
	.global	k_thread_foreach
	.syntax unified
	.thumb
	.thumb_func
	.fpu fpv4-sp-d16
	.type	k_thread_foreach, %function
k_thread_foreach:
.LVL9:
.LFB605:
	.loc 1 46 1 is_stmt 1 view -0
	.cfi_startproc
	@ args = 0, pretend = 0, frame = 0
	@ frame_needed = 0, uses_anonymous_args = 0
	@ link register save eliminated.
	.loc 1 71 1 view .LVU40
	bx	lr
	.cfi_endproc
.LFE605:
	.size	k_thread_foreach, .-k_thread_foreach
	.section	.text.k_thread_foreach_unlocked,"ax",%progbits
	.align	1
	.global	k_thread_foreach_unlocked
	.syntax unified
	.thumb
	.thumb_func
	.fpu fpv4-sp-d16
	.type	k_thread_foreach_unlocked, %function
k_thread_foreach_unlocked:
.LVL10:
.LFB606:
	.loc 1 74 1 view -0
	.cfi_startproc
	@ args = 0, pretend = 0, frame = 0
	@ frame_needed = 0, uses_anonymous_args = 0
	@ link register save eliminated.
	.loc 1 95 1 view .LVU42
	bx	lr
	.cfi_endproc
.LFE606:
	.size	k_thread_foreach_unlocked, .-k_thread_foreach_unlocked
	.section	.text.k_is_in_isr,"ax",%progbits
	.align	1
	.global	k_is_in_isr
	.syntax unified
	.thumb
	.thumb_func
	.fpu fpv4-sp-d16
	.type	k_is_in_isr, %function
k_is_in_isr:
.LFB607:
	.loc 1 98 1 view -0
	.cfi_startproc
	@ args = 0, pretend = 0, frame = 0
	@ frame_needed = 0, uses_anonymous_args = 0
	@ link register save eliminated.
	.loc 1 99 2 view .LVU44
.LBB67:
.LBI67:
	.file 4 "/home/sebin/thesis/zephyrproject/zephyr/arch/arm/include/aarch32/cortex_m/exc.h"
	.loc 4 46 26 view .LVU45
.LBB68:
	.loc 4 48 2 view .LVU46
.LBB69:
.LBI69:
	.file 5 "/home/sebin/thesis/zephyrproject/modules/hal/cmsis/CMSIS/Core/Include/cmsis_gcc.h"
	.loc 5 1027 55 view .LVU47
.LBB70:
	.loc 5 1029 3 view .LVU48
	.loc 5 1031 3 view .LVU49
	.syntax unified
@ 1031 "/home/sebin/thesis/zephyrproject/modules/hal/cmsis/CMSIS/Core/Include/cmsis_gcc.h" 1
	MRS r0, ipsr
@ 0 "" 2
.LVL11:
	.loc 5 1032 3 view .LVU50
	.loc 5 1032 3 is_stmt 0 view .LVU51
	.thumb
	.syntax unified
.LBE70:
.LBE69:
.LBE68:
.LBE67:
	.loc 1 100 1 view .LVU52
	subs	r0, r0, #0
	it	ne
	movne	r0, #1
	bx	lr
	.cfi_endproc
.LFE607:
	.size	k_is_in_isr, .-k_is_in_isr
	.section	.text.z_thread_essential_set,"ax",%progbits
	.align	1
	.global	z_thread_essential_set
	.syntax unified
	.thumb
	.thumb_func
	.fpu fpv4-sp-d16
	.type	z_thread_essential_set, %function
z_thread_essential_set:
.LFB608:
	.loc 1 107 1 is_stmt 1 view -0
	.cfi_startproc
	@ args = 0, pretend = 0, frame = 0
	@ frame_needed = 0, uses_anonymous_args = 0
	@ link register save eliminated.
	.loc 1 108 2 view .LVU54
	.loc 1 108 17 is_stmt 0 view .LVU55
	ldr	r3, .L7
	ldr	r2, [r3, #8]
	.loc 1 108 45 view .LVU56
	ldrb	r3, [r2, #12]	@ zero_extendqisi2
	orr	r3, r3, #1
	strb	r3, [r2, #12]
	.loc 1 109 1 view .LVU57
	bx	lr
.L8:
	.align	2
.L7:
	.word	_kernel
	.cfi_endproc
.LFE608:
	.size	z_thread_essential_set, .-z_thread_essential_set
	.section	.text.z_thread_essential_clear,"ax",%progbits
	.align	1
	.global	z_thread_essential_clear
	.syntax unified
	.thumb
	.thumb_func
	.fpu fpv4-sp-d16
	.type	z_thread_essential_clear, %function
z_thread_essential_clear:
.LFB609:
	.loc 1 117 1 is_stmt 1 view -0
	.cfi_startproc
	@ args = 0, pretend = 0, frame = 0
	@ frame_needed = 0, uses_anonymous_args = 0
	@ link register save eliminated.
	.loc 1 118 2 view .LVU59
	.loc 1 118 17 is_stmt 0 view .LVU60
	ldr	r3, .L10
	ldr	r2, [r3, #8]
	.loc 1 118 45 view .LVU61
	ldrb	r3, [r2, #12]	@ zero_extendqisi2
	bic	r3, r3, #1
	strb	r3, [r2, #12]
	.loc 1 119 1 view .LVU62
	bx	lr
.L11:
	.align	2
.L10:
	.word	_kernel
	.cfi_endproc
.LFE609:
	.size	z_thread_essential_clear, .-z_thread_essential_clear
	.section	.text.z_is_thread_essential,"ax",%progbits
	.align	1
	.global	z_is_thread_essential
	.syntax unified
	.thumb
	.thumb_func
	.fpu fpv4-sp-d16
	.type	z_is_thread_essential, %function
z_is_thread_essential:
.LFB610:
	.loc 1 127 1 is_stmt 1 view -0
	.cfi_startproc
	@ args = 0, pretend = 0, frame = 0
	@ frame_needed = 0, uses_anonymous_args = 0
	@ link register save eliminated.
	.loc 1 128 2 view .LVU64
	.loc 1 128 25 is_stmt 0 view .LVU65
	ldr	r3, .L13
	ldr	r3, [r3, #8]
	.loc 1 128 39 view .LVU66
	ldrb	r0, [r3, #12]	@ zero_extendqisi2
	.loc 1 129 1 view .LVU67
	and	r0, r0, #1
	bx	lr
.L14:
	.align	2
.L13:
	.word	_kernel
	.cfi_endproc
.LFE610:
	.size	z_is_thread_essential, .-z_is_thread_essential
	.section	.text.z_impl_k_thread_name_set,"ax",%progbits
	.align	1
	.global	z_impl_k_thread_name_set
	.syntax unified
	.thumb
	.thumb_func
	.fpu fpv4-sp-d16
	.type	z_impl_k_thread_name_set, %function
z_impl_k_thread_name_set:
.LVL12:
.LFB611:
	.loc 1 188 1 is_stmt 1 view -0
	.cfi_startproc
	@ args = 0, pretend = 0, frame = 0
	@ frame_needed = 0, uses_anonymous_args = 0
	.loc 1 188 1 is_stmt 0 view .LVU69
	push	{r4, lr}
	.cfi_def_cfa_offset 8
	.cfi_offset 4, -8
	.cfi_offset 14, -4
	.loc 1 190 2 is_stmt 1 view .LVU70
	.loc 1 190 5 is_stmt 0 view .LVU71
	mov	r4, r0
	cbz	r0, .L18
.LVL13:
.L16:
	.loc 1 194 1 is_stmt 1 view .LVU72
.LBB71:
.LBI71:
	.loc 3 93 217 view .LVU73
.LBB72:
	.loc 3 93 294 view .LVU74
	.loc 3 93 301 is_stmt 0 view .LVU75
	movs	r2, #32
	add	r0, r4, #98
.LVL14:
	.loc 3 93 301 view .LVU76
	bl	strncpy
.LVL15:
	.loc 3 93 301 view .LVU77
.LBE72:
.LBE71:
	.loc 1 195 2 is_stmt 1 view .LVU78
	.loc 1 195 23 is_stmt 0 view .LVU79
	movs	r0, #0
	strb	r0, [r4, #129]
	.loc 1 197 2 is_stmt 1 view .LVU80
	.loc 1 197 7 view .LVU81
	.loc 1 197 15 view .LVU82
	.loc 1 199 2 view .LVU83
	.loc 1 208 1 is_stmt 0 view .LVU84
	pop	{r4, pc}
.LVL16:
.L18:
	.loc 1 191 3 is_stmt 1 view .LVU85
	.loc 1 191 10 is_stmt 0 view .LVU86
	ldr	r3, .L19
	ldr	r4, [r3, #8]
.LVL17:
	.loc 1 191 10 view .LVU87
	b	.L16
.L20:
	.align	2
.L19:
	.word	_kernel
	.cfi_endproc
.LFE611:
	.size	z_impl_k_thread_name_set, .-z_impl_k_thread_name_set
	.section	.text.k_thread_name_get,"ax",%progbits
	.align	1
	.global	k_thread_name_get
	.syntax unified
	.thumb
	.thumb_func
	.fpu fpv4-sp-d16
	.type	k_thread_name_get, %function
k_thread_name_get:
.LVL18:
.LFB612:
	.loc 1 239 1 is_stmt 1 view -0
	.cfi_startproc
	@ args = 0, pretend = 0, frame = 0
	@ frame_needed = 0, uses_anonymous_args = 0
	@ link register save eliminated.
	.loc 1 241 2 view .LVU89
	.loc 1 246 1 is_stmt 0 view .LVU90
	adds	r0, r0, #98
.LVL19:
	.loc 1 246 1 view .LVU91
	bx	lr
	.cfi_endproc
.LFE612:
	.size	k_thread_name_get, .-k_thread_name_get
	.section	.text.z_impl_k_thread_name_copy,"ax",%progbits
	.align	1
	.global	z_impl_k_thread_name_copy
	.syntax unified
	.thumb
	.thumb_func
	.fpu fpv4-sp-d16
	.type	z_impl_k_thread_name_copy, %function
z_impl_k_thread_name_copy:
.LVL20:
.LFB613:
	.loc 1 249 1 is_stmt 1 view -0
	.cfi_startproc
	@ args = 0, pretend = 0, frame = 0
	@ frame_needed = 0, uses_anonymous_args = 0
	.loc 1 249 1 is_stmt 0 view .LVU93
	push	{r3, lr}
	.cfi_def_cfa_offset 8
	.cfi_offset 3, -8
	.cfi_offset 14, -4
	mov	r3, r1
	.loc 1 251 1 is_stmt 1 view .LVU94
.LVL21:
.LBB73:
.LBI73:
	.loc 3 93 217 view .LVU95
.LBB74:
	.loc 3 93 294 view .LVU96
	.loc 3 93 301 is_stmt 0 view .LVU97
	add	r1, r0, #98
.LVL22:
	.loc 3 93 301 view .LVU98
	mov	r0, r3
.LVL23:
	.loc 3 93 301 view .LVU99
	bl	strncpy
.LVL24:
	.loc 3 93 301 view .LVU100
.LBE74:
.LBE73:
	.loc 1 252 2 is_stmt 1 view .LVU101
	.loc 1 259 1 is_stmt 0 view .LVU102
	movs	r0, #0
	pop	{r3, pc}
	.cfi_endproc
.LFE613:
	.size	z_impl_k_thread_name_copy, .-z_impl_k_thread_name_copy
	.section	.rodata.k_thread_state_str.str1.4,"aMS",%progbits,1
	.align	2
.LC0:
	.ascii	"unknown\000"
	.align	2
.LC1:
	.ascii	"dummy\000"
	.align	2
.LC2:
	.ascii	"pending\000"
	.align	2
.LC3:
	.ascii	"prestart\000"
	.align	2
.LC4:
	.ascii	"dead\000"
	.align	2
.LC5:
	.ascii	"suspended\000"
	.align	2
.LC6:
	.ascii	"aborting\000"
	.align	2
.LC7:
	.ascii	"\000"
	.align	2
.LC8:
	.ascii	"queued\000"
	.section	.text.k_thread_state_str,"ax",%progbits
	.align	1
	.global	k_thread_state_str
	.syntax unified
	.thumb
	.thumb_func
	.fpu fpv4-sp-d16
	.type	k_thread_state_str, %function
k_thread_state_str:
.LVL25:
.LFB614:
	.loc 1 262 1 is_stmt 1 view -0
	.cfi_startproc
	@ args = 0, pretend = 0, frame = 0
	@ frame_needed = 0, uses_anonymous_args = 0
	@ link register save eliminated.
	.loc 1 263 2 view .LVU104
	.loc 1 263 25 is_stmt 0 view .LVU105
	ldrb	r3, [r0, #13]	@ zero_extendqisi2
	.loc 1 263 2 view .LVU106
	cmp	r3, #32
	bhi	.L25
	cmp	r3, #32
	bhi	.L26
	tbb	[pc, r3]
.L28:
	.byte	(.L34-.L28)/2
	.byte	(.L35-.L28)/2
	.byte	(.L32-.L28)/2
	.byte	(.L26-.L28)/2
	.byte	(.L31-.L28)/2
	.byte	(.L26-.L28)/2
	.byte	(.L26-.L28)/2
	.byte	(.L26-.L28)/2
	.byte	(.L30-.L28)/2
	.byte	(.L26-.L28)/2
	.byte	(.L26-.L28)/2
	.byte	(.L26-.L28)/2
	.byte	(.L26-.L28)/2
	.byte	(.L26-.L28)/2
	.byte	(.L26-.L28)/2
	.byte	(.L26-.L28)/2
	.byte	(.L29-.L28)/2
	.byte	(.L26-.L28)/2
	.byte	(.L26-.L28)/2
	.byte	(.L26-.L28)/2
	.byte	(.L26-.L28)/2
	.byte	(.L26-.L28)/2
	.byte	(.L26-.L28)/2
	.byte	(.L26-.L28)/2
	.byte	(.L26-.L28)/2
	.byte	(.L26-.L28)/2
	.byte	(.L26-.L28)/2
	.byte	(.L26-.L28)/2
	.byte	(.L26-.L28)/2
	.byte	(.L26-.L28)/2
	.byte	(.L26-.L28)/2
	.byte	(.L26-.L28)/2
	.byte	(.L27-.L28)/2
	.p2align 1
.L34:
	ldr	r0, .L37
.LVL26:
	.loc 1 263 2 view .LVU107
	bx	lr
.LVL27:
.L25:
	.loc 1 263 2 view .LVU108
	cmp	r3, #128
	bne	.L36
	.loc 1 279 10 view .LVU109
	ldr	r0, .L37+4
.LVL28:
	.loc 1 279 10 view .LVU110
	bx	lr
.LVL29:
.L32:
	.loc 1 269 3 is_stmt 1 view .LVU111
	.loc 1 269 10 is_stmt 0 view .LVU112
	ldr	r0, .L37+8
.LVL30:
	.loc 1 269 10 view .LVU113
	bx	lr
.LVL31:
.L31:
	.loc 1 271 3 is_stmt 1 view .LVU114
	.loc 1 271 10 is_stmt 0 view .LVU115
	ldr	r0, .L37+12
.LVL32:
	.loc 1 271 10 view .LVU116
	bx	lr
.LVL33:
.L30:
	.loc 1 273 3 is_stmt 1 view .LVU117
	.loc 1 273 10 is_stmt 0 view .LVU118
	ldr	r0, .L37+16
.LVL34:
	.loc 1 273 10 view .LVU119
	bx	lr
.LVL35:
.L29:
	.loc 1 275 3 is_stmt 1 view .LVU120
	.loc 1 275 10 is_stmt 0 view .LVU121
	ldr	r0, .L37+20
.LVL36:
	.loc 1 275 10 view .LVU122
	bx	lr
.LVL37:
.L27:
	.loc 1 277 3 is_stmt 1 view .LVU123
	.loc 1 277 10 is_stmt 0 view .LVU124
	ldr	r0, .L37+24
.LVL38:
	.loc 1 277 10 view .LVU125
	bx	lr
.LVL39:
.L26:
	.loc 1 286 9 view .LVU126
	ldr	r0, .L37+28
.LVL40:
	.loc 1 286 9 view .LVU127
	bx	lr
.LVL41:
.L35:
	.loc 1 267 10 view .LVU128
	ldr	r0, .L37+32
.LVL42:
	.loc 1 267 10 view .LVU129
	bx	lr
.LVL43:
.L36:
	.loc 1 286 9 view .LVU130
	ldr	r0, .L37+28
.LVL44:
	.loc 1 287 1 view .LVU131
	bx	lr
.L38:
	.align	2
.L37:
	.word	.LC7
	.word	.LC8
	.word	.LC2
	.word	.LC3
	.word	.LC4
	.word	.LC5
	.word	.LC6
	.word	.LC0
	.word	.LC1
	.cfi_endproc
.LFE614:
	.size	k_thread_state_str, .-k_thread_state_str
	.section	.text.z_impl_k_thread_start,"ax",%progbits
	.align	1
	.global	z_impl_k_thread_start
	.syntax unified
	.thumb
	.thumb_func
	.fpu fpv4-sp-d16
	.type	z_impl_k_thread_start, %function
z_impl_k_thread_start:
.LVL45:
.LFB615:
	.loc 1 359 1 is_stmt 1 view -0
	.cfi_startproc
	@ args = 0, pretend = 0, frame = 0
	@ frame_needed = 0, uses_anonymous_args = 0
	.loc 1 359 1 is_stmt 0 view .LVU133
	push	{r3, lr}
	.cfi_def_cfa_offset 8
	.cfi_offset 3, -8
	.cfi_offset 14, -4
	.loc 1 360 2 is_stmt 1 view .LVU134
	.loc 1 360 7 view .LVU135
	.loc 1 360 15 view .LVU136
	.loc 1 362 2 view .LVU137
	bl	z_sched_start
.LVL46:
	.loc 1 363 1 is_stmt 0 view .LVU138
	pop	{r3, pc}
	.cfi_endproc
.LFE615:
	.size	z_impl_k_thread_start, .-z_impl_k_thread_start
	.section	.text.schedule_new_thread,"ax",%progbits
	.align	1
	.syntax unified
	.thumb
	.thumb_func
	.fpu fpv4-sp-d16
	.type	schedule_new_thread, %function
schedule_new_thread:
.LVL47:
.LFB616:
	.loc 1 377 1 is_stmt 1 view -0
	.cfi_startproc
	@ args = 0, pretend = 0, frame = 0
	@ frame_needed = 0, uses_anonymous_args = 0
	.loc 1 377 1 is_stmt 0 view .LVU140
	push	{r3, r4, r5, lr}
	.cfi_def_cfa_offset 16
	.cfi_offset 3, -16
	.cfi_offset 4, -12
	.cfi_offset 5, -8
	.cfi_offset 14, -4
	mov	r4, r2
.LVL48:
	.loc 1 377 1 view .LVU141
	mov	r5, r3
	.loc 1 379 2 is_stmt 1 view .LVU142
.LVL49:
.LBB75:
	.loc 1 379 5 is_stmt 0 view .LVU143
	orrs	r3, r4, r5
	bne	.L42
	.loc 1 380 3 is_stmt 1 view .LVU144
.LVL50:
.LBB76:
.LBI76:
	.file 6 "/home/sebin/thesis/dmz/zephyr_xmc_template/build/zephyr/include/generated/syscalls/kernel.h"
	.loc 6 213 20 view .LVU145
.LBB77:
	.loc 6 222 2 view .LVU146
	.loc 6 222 7 view .LVU147
	.loc 6 222 55 view .LVU148
	.loc 6 223 2 view .LVU149
	bl	z_impl_k_thread_start
.LVL51:
.L41:
	.loc 6 223 2 is_stmt 0 view .LVU150
.LBE77:
.LBE76:
.LBE75:
	.loc 1 388 1 view .LVU151
	pop	{r3, r4, r5, pc}
.LVL52:
.L42:
.LBB80:
	.loc 1 382 3 is_stmt 1 view .LVU152
.LBB78:
.LBI78:
	.file 7 "/home/sebin/thesis/zephyrproject/zephyr/include/timeout_q.h"
	.loc 7 47 20 view .LVU153
.LBB79:
	.loc 7 49 2 view .LVU154
	.loc 7 49 2 is_stmt 0 view .LVU155
	mov	r3, r5
	ldr	r1, .L45
	adds	r0, r0, #24
.LVL53:
	.loc 7 49 2 view .LVU156
	bl	z_add_timeout
.LVL54:
	.loc 7 49 2 view .LVU157
.LBE79:
.LBE78:
.LBE80:
	.loc 1 388 1 view .LVU158
	b	.L41
.L46:
	.align	2
.L45:
	.word	z_thread_timeout
	.cfi_endproc
.LFE616:
	.size	schedule_new_thread, .-schedule_new_thread
	.section	.text.z_init_thread_base,"ax",%progbits
	.align	1
	.global	z_init_thread_base
	.syntax unified
	.thumb
	.thumb_func
	.fpu fpv4-sp-d16
	.type	z_init_thread_base, %function
z_init_thread_base:
.LVL55:
.LFB621:
	.loc 1 768 1 is_stmt 1 view -0
	.cfi_startproc
	@ args = 0, pretend = 0, frame = 0
	@ frame_needed = 0, uses_anonymous_args = 0
	@ link register save eliminated.
	.loc 1 768 1 is_stmt 0 view .LVU160
	push	{r4}
	.cfi_def_cfa_offset 4
	.cfi_offset 4, -4
	.loc 1 770 2 is_stmt 1 view .LVU161
	.loc 1 770 25 is_stmt 0 view .LVU162
	movs	r4, #0
	str	r4, [r0, #8]
	.loc 1 771 2 is_stmt 1 view .LVU163
	.loc 1 771 28 is_stmt 0 view .LVU164
	strb	r3, [r0, #12]
	.loc 1 772 2 is_stmt 1 view .LVU165
	.loc 1 772 28 is_stmt 0 view .LVU166
	strb	r2, [r0, #13]
	.loc 1 774 2 is_stmt 1 view .LVU167
	.loc 1 774 20 is_stmt 0 view .LVU168
	strb	r1, [r0, #14]
	.loc 1 776 2 is_stmt 1 view .LVU169
	.loc 1 776 28 is_stmt 0 view .LVU170
	strb	r4, [r0, #15]
	.loc 1 784 2 is_stmt 1 view .LVU171
.LVL56:
.LBB81:
.LBI81:
	.loc 7 40 20 view .LVU172
.LBE81:
	.loc 7 42 2 view .LVU173
.LBB86:
.LBB82:
.LBI82:
	.loc 7 25 20 view .LVU174
.LBE82:
.LBE86:
	.loc 7 27 2 view .LVU175
.LBB87:
.LBB85:
.LBB83:
.LBI83:
	.file 8 "/home/sebin/thesis/zephyrproject/zephyr/include/sys/dlist.h"
	.loc 8 211 20 view .LVU176
.LBB84:
	.loc 8 213 2 view .LVU177
	.loc 8 213 13 is_stmt 0 view .LVU178
	str	r4, [r0, #24]
	.loc 8 214 2 is_stmt 1 view .LVU179
	.loc 8 214 13 is_stmt 0 view .LVU180
	str	r4, [r0, #28]
.LVL57:
	.loc 8 214 13 view .LVU181
.LBE84:
.LBE83:
.LBE85:
.LBE87:
	.loc 1 785 1 view .LVU182
	ldr	r4, [sp], #4
	.cfi_restore 4
	.cfi_def_cfa_offset 0
	bx	lr
	.cfi_endproc
.LFE621:
	.size	z_init_thread_base, .-z_init_thread_base
	.section	.text.z_setup_new_thread,"ax",%progbits
	.align	1
	.global	z_setup_new_thread
	.syntax unified
	.thumb
	.thumb_func
	.fpu fpv4-sp-d16
	.type	z_setup_new_thread, %function
z_setup_new_thread:
.LVL58:
.LFB618:
	.loc 1 508 1 is_stmt 1 view -0
	.cfi_startproc
	@ args = 24, pretend = 0, frame = 0
	@ frame_needed = 0, uses_anonymous_args = 0
	.loc 1 508 1 is_stmt 0 view .LVU184
	push	{r4, r5, r6, r7, r8, lr}
	.cfi_def_cfa_offset 24
	.cfi_offset 4, -24
	.cfi_offset 5, -20
	.cfi_offset 6, -16
	.cfi_offset 7, -12
	.cfi_offset 8, -8
	.cfi_offset 14, -4
	sub	sp, sp, #16
	.cfi_def_cfa_offset 40
	mov	r4, r0
	mov	r6, r1
	mov	r5, r2
	mov	r7, r3
	ldr	r8, [sp, #60]
	.loc 1 509 2 is_stmt 1 view .LVU185
	.loc 1 511 2 view .LVU186
	.loc 1 511 9 view .LVU187
	.loc 1 511 10 view .LVU188
	.loc 1 511 20 view .LVU189
	.loc 1 525 2 view .LVU190
.LVL59:
.LBB88:
.LBI88:
	.file 9 "/home/sebin/thesis/zephyrproject/zephyr/include/wait_q.h"
	.loc 9 47 20 view .LVU191
.LBB89:
	.loc 9 49 2 view .LVU192
	add	r3, r0, #88
.LVL60:
.LBB90:
.LBI90:
	.loc 8 197 20 view .LVU193
.LBB91:
	.loc 8 199 2 view .LVU194
	.loc 8 199 13 is_stmt 0 view .LVU195
	str	r3, [r0, #88]
	.loc 8 200 2 is_stmt 1 view .LVU196
	.loc 8 200 13 is_stmt 0 view .LVU197
	str	r3, [r0, #92]
.LVL61:
	.loc 8 200 13 view .LVU198
.LBE91:
.LBE90:
.LBE89:
.LBE88:
	.loc 1 528 2 is_stmt 1 view .LVU199
	ldr	r3, [sp, #56]
	movs	r2, #4
.LVL62:
	.loc 1 528 2 is_stmt 0 view .LVU200
	ldr	r1, [sp, #52]
.LVL63:
	.loc 1 528 2 view .LVU201
	bl	z_init_thread_base
.LVL64:
	.loc 1 529 2 is_stmt 1 view .LVU202
	.loc 1 529 14 is_stmt 0 view .LVU203
	mov	r2, r5
	mov	r1, r6
	mov	r0, r4
	bl	setup_thread_stack
.LVL65:
	mov	r5, r0
.LVL66:
	.loc 1 539 2 is_stmt 1 view .LVU204
	ldr	r3, [sp, #48]
	str	r3, [sp, #8]
	ldr	r3, [sp, #44]
	str	r3, [sp, #4]
	ldr	r3, [sp, #40]
	str	r3, [sp]
	mov	r3, r7
	mov	r2, r0
	mov	r1, r6
	mov	r0, r4
.LVL67:
	.loc 1 539 2 is_stmt 0 view .LVU205
	bl	arch_new_thread
.LVL68:
	.loc 1 542 2 is_stmt 1 view .LVU206
	.loc 1 542 24 is_stmt 0 view .LVU207
	movs	r3, #0
	str	r3, [r4, #84]
	.loc 1 569 2 is_stmt 1 view .LVU208
	.loc 1 569 5 is_stmt 0 view .LVU209
	cmp	r8, #0
	beq	.L50
	.loc 1 570 2 is_stmt 1 view .LVU210
.LVL69:
.LBB92:
.LBI92:
	.loc 3 93 217 view .LVU211
.LBB93:
	.loc 3 93 294 view .LVU212
	.loc 3 93 301 is_stmt 0 view .LVU213
	movs	r2, #31
	mov	r1, r8
	add	r0, r4, #98
.LVL70:
	.loc 3 93 301 view .LVU214
	bl	strncpy
.LVL71:
	.loc 3 93 301 view .LVU215
.LBE93:
.LBE92:
	.loc 1 573 3 is_stmt 1 view .LVU216
	.loc 1 573 28 is_stmt 0 view .LVU217
	movs	r3, #0
	strb	r3, [r4, #129]
.L51:
	.loc 1 587 2 is_stmt 1 view .LVU218
	.loc 1 587 22 is_stmt 0 view .LVU219
	ldr	r3, .L56
	ldr	r3, [r3, #8]
	.loc 1 587 5 view .LVU220
	cbz	r3, .L55
	.loc 1 602 2 is_stmt 1 view .LVU221
	.loc 1 602 53 is_stmt 0 view .LVU222
	ldr	r3, [r3, #148]
	.loc 1 602 28 view .LVU223
	str	r3, [r4, #148]
	.loc 1 610 2 is_stmt 1 view .LVU224
	.loc 1 610 7 view .LVU225
	.loc 1 610 15 view .LVU226
	.loc 1 612 2 view .LVU227
.L49:
	.loc 1 613 1 is_stmt 0 view .LVU228
	mov	r0, r5
	add	sp, sp, #16
	.cfi_remember_state
	.cfi_def_cfa_offset 24
	@ sp needed
	pop	{r4, r5, r6, r7, r8, pc}
.LVL72:
.L50:
	.cfi_restore_state
	.loc 1 575 3 is_stmt 1 view .LVU229
	.loc 1 575 23 is_stmt 0 view .LVU230
	movs	r3, #0
	strb	r3, [r4, #98]
	b	.L51
.L55:
	.loc 1 588 3 is_stmt 1 view .LVU231
	.loc 1 588 29 is_stmt 0 view .LVU232
	str	r3, [r4, #148]
	.loc 1 589 3 is_stmt 1 view .LVU233
	.loc 1 589 10 is_stmt 0 view .LVU234
	b	.L49
.L57:
	.align	2
.L56:
	.word	_kernel
	.cfi_endproc
.LFE618:
	.size	z_setup_new_thread, .-z_setup_new_thread
	.section	.text.z_impl_k_thread_create,"ax",%progbits
	.align	1
	.global	z_impl_k_thread_create
	.syntax unified
	.thumb
	.thumb_func
	.fpu fpv4-sp-d16
	.type	z_impl_k_thread_create, %function
z_impl_k_thread_create:
.LVL73:
.LFB619:
	.loc 1 621 1 is_stmt 1 view -0
	.cfi_startproc
	@ args = 32, pretend = 0, frame = 0
	@ frame_needed = 0, uses_anonymous_args = 0
	.loc 1 621 1 is_stmt 0 view .LVU236
	push	{r4, r5, r6, r7, lr}
	.cfi_def_cfa_offset 20
	.cfi_offset 4, -20
	.cfi_offset 5, -16
	.cfi_offset 6, -12
	.cfi_offset 7, -8
	.cfi_offset 14, -4
	sub	sp, sp, #28
	.cfi_def_cfa_offset 48
	mov	r4, r0
	ldrd	r6, [sp, #72]
.LVL74:
	.loc 1 622 4 is_stmt 1 view .LVU237
	.loc 1 622 5 view .LVU238
	.loc 1 624 2 view .LVU239
	movs	r5, #0
	str	r5, [sp, #20]
	ldr	r5, [sp, #64]
	str	r5, [sp, #16]
	ldr	r5, [sp, #60]
	str	r5, [sp, #12]
	ldr	r5, [sp, #56]
	str	r5, [sp, #8]
	ldr	r5, [sp, #52]
	str	r5, [sp, #4]
	ldr	r5, [sp, #48]
	str	r5, [sp]
	bl	z_setup_new_thread
.LVL75:
	.loc 1 627 2 view .LVU240
.LBB94:
	.loc 1 627 5 is_stmt 0 view .LVU241
	cmp	r7, #-1
.LVL76:
	.loc 1 627 5 view .LVU242
	it	eq
	cmpeq	r6, #-1
	bne	.L61
.L59:
.LBE94:
	.loc 1 631 2 is_stmt 1 view .LVU243
	.loc 1 632 1 is_stmt 0 view .LVU244
	mov	r0, r4
	add	sp, sp, #28
	.cfi_remember_state
	.cfi_def_cfa_offset 20
	@ sp needed
	pop	{r4, r5, r6, r7, pc}
.LVL77:
.L61:
	.cfi_restore_state
.LBB95:
	.loc 1 628 3 is_stmt 1 view .LVU245
	mov	r2, r6
	mov	r3, r7
	mov	r0, r4
	bl	schedule_new_thread
.LVL78:
	b	.L59
.LBE95:
	.cfi_endproc
.LFE619:
	.size	z_impl_k_thread_create, .-z_impl_k_thread_create
	.section	.text.z_init_static_threads,"ax",%progbits
	.align	1
	.global	z_init_static_threads
	.syntax unified
	.thumb
	.thumb_func
	.fpu fpv4-sp-d16
	.type	z_init_static_threads, %function
z_init_static_threads:
.LFB620:
	.loc 1 724 1 view -0
	.cfi_startproc
	@ args = 0, pretend = 0, frame = 0
	@ frame_needed = 0, uses_anonymous_args = 0
	push	{r4, r6, r7, lr}
	.cfi_def_cfa_offset 16
	.cfi_offset 4, -16
	.cfi_offset 6, -12
	.cfi_offset 7, -8
	.cfi_offset 14, -4
	sub	sp, sp, #24
	.cfi_def_cfa_offset 40
	.loc 1 725 2 view .LVU247
	.loc 1 725 71 view .LVU248
	.loc 1 725 138 view .LVU249
.LBB96:
	.loc 1 725 143 view .LVU250
.LVL79:
	.loc 1 725 171 is_stmt 0 view .LVU251
	ldr	r4, .L72
.LVL80:
.L63:
	.loc 1 725 218 is_stmt 1 discriminator 1 view .LVU252
.LBE96:
	.loc 1 725 223 discriminator 1 view .LVU253
	.loc 1 725 224 discriminator 1 view .LVU254
	.loc 1 725 226 discriminator 1 view .LVU255
.LBB97:
	.loc 1 725 138 is_stmt 0 discriminator 1 view .LVU256
	ldr	r3, .L72+4
	cmp	r4, r3
	bcs	.L69
	.loc 1 726 3 is_stmt 1 discriminator 3 view .LVU257
	ldr	r3, [r4, #44]
	str	r3, [sp, #20]
	ldr	r3, [r4, #32]
	str	r3, [sp, #16]
	ldr	r3, [r4, #28]
	str	r3, [sp, #12]
	ldr	r3, [r4, #24]
	str	r3, [sp, #8]
	ldr	r3, [r4, #20]
	str	r3, [sp, #4]
	ldr	r3, [r4, #16]
	str	r3, [sp]
	ldr	r3, [r4, #12]
	ldr	r2, [r4, #8]
	ldr	r1, [r4, #4]
	ldr	r0, [r4]
	bl	z_setup_new_thread
.LVL81:
	.loc 1 738 3 discriminator 3 view .LVU258
	.loc 1 738 14 is_stmt 0 discriminator 3 view .LVU259
	ldr	r3, [r4]
	.loc 1 738 39 discriminator 3 view .LVU260
	str	r4, [r3, #84]
	.loc 1 725 275 is_stmt 1 discriminator 3 view .LVU261
	.loc 1 725 286 is_stmt 0 discriminator 3 view .LVU262
	adds	r4, r4, #48
.LVL82:
	.loc 1 725 286 discriminator 3 view .LVU263
	b	.L63
.L69:
	.loc 1 725 286 discriminator 3 view .LVU264
.LBE97:
	.loc 1 755 2 is_stmt 1 view .LVU265
	bl	k_sched_lock
.LVL83:
	.loc 1 756 2 view .LVU266
	.loc 1 756 71 view .LVU267
	.loc 1 756 138 view .LVU268
.LBB98:
	.loc 1 756 143 view .LVU269
	.loc 1 756 171 is_stmt 0 view .LVU270
	ldr	r4, .L72
.LVL84:
	.loc 1 756 138 view .LVU271
	b	.L65
.LVL85:
.L71:
.LBB99:
	.loc 1 758 4 is_stmt 1 view .LVU272
	.loc 1 759 132 is_stmt 0 view .LVU273
	bic	r3, r3, r3, asr #31
	.loc 1 759 48 view .LVU274
	asrs	r7, r3, #31
.LBB100:
.LBI100:
	.file 10 "/home/sebin/thesis/zephyrproject/zephyr/include/sys/time_units.h"
	.loc 10 402 24 is_stmt 1 view .LVU275
.LBE100:
.LBE99:
.LBE98:
	.loc 10 405 2 view .LVU276
.LVL86:
.LBB105:
.LBB104:
.LBB103:
.LBB101:
.LBI101:
	.loc 10 101 55 view .LVU277
.LBB102:
	.loc 10 106 1 view .LVU278
	.loc 10 108 1 view .LVU279
	.loc 10 111 2 view .LVU280
	.loc 10 115 2 view .LVU281
	.loc 10 117 2 view .LVU282
	.loc 10 133 2 view .LVU283
	.loc 10 140 9 view .LVU284
	.loc 10 141 3 view .LVU285
	.loc 10 144 4 view .LVU286
	.loc 10 144 13 is_stmt 0 view .LVU287
	lsls	r2, r7, #2
	lsls	r1, r3, #2
	orr	r0, r2, r3, lsr #30
	adds	r1, r1, r3
	adc	r0, r7, r0
	adds	r2, r1, r1
	adc	r3, r0, r0
.LVL87:
	.loc 10 144 13 view .LVU288
.LBE102:
.LBE101:
.LBE103:
	.loc 1 758 4 view .LVU289
	ldr	r0, [r4]
	bl	schedule_new_thread
.LVL88:
.L66:
	.loc 1 758 4 view .LVU290
.LBE104:
	.loc 1 756 275 is_stmt 1 discriminator 2 view .LVU291
	.loc 1 756 286 is_stmt 0 discriminator 2 view .LVU292
	adds	r4, r4, #48
.LVL89:
.L65:
	.loc 1 756 218 is_stmt 1 discriminator 1 view .LVU293
.LBE105:
	.loc 1 756 223 discriminator 1 view .LVU294
	.loc 1 756 224 discriminator 1 view .LVU295
	.loc 1 756 226 discriminator 1 view .LVU296
.LBB106:
	.loc 1 756 138 is_stmt 0 discriminator 1 view .LVU297
	ldr	r3, .L72+4
	cmp	r4, r3
	bcs	.L70
	.loc 1 757 3 is_stmt 1 view .LVU298
	.loc 1 757 18 is_stmt 0 view .LVU299
	ldr	r3, [r4, #36]
	.loc 1 757 6 view .LVU300
	cmp	r3, #-1
	beq	.L66
	b	.L71
.L70:
.LBE106:
	.loc 1 762 2 is_stmt 1 view .LVU301
	bl	k_sched_unlock
.LVL90:
	.loc 1 763 1 is_stmt 0 view .LVU302
	add	sp, sp, #24
	.cfi_def_cfa_offset 16
	@ sp needed
	pop	{r4, r6, r7, pc}
.LVL91:
.L73:
	.loc 1 763 1 view .LVU303
	.align	2
.L72:
	.word	__static_thread_data_list_start
	.word	__static_thread_data_list_end
	.cfi_endproc
.LFE620:
	.size	z_init_static_threads, .-z_init_static_threads
	.section	.text.k_thread_user_mode_enter,"ax",%progbits
	.align	1
	.global	k_thread_user_mode_enter
	.syntax unified
	.thumb
	.thumb_func
	.fpu fpv4-sp-d16
	.type	k_thread_user_mode_enter, %function
k_thread_user_mode_enter:
.LVL92:
.LFB622:
	.loc 1 789 1 is_stmt 1 view -0
	.cfi_startproc
	@ Volatile: function does not return.
	@ args = 0, pretend = 0, frame = 0
	@ frame_needed = 0, uses_anonymous_args = 0
	.loc 1 789 1 is_stmt 0 view .LVU305
	push	{r7, lr}
	.cfi_def_cfa_offset 8
	.cfi_offset 7, -8
	.cfi_offset 14, -4
	mov	r4, r0
	mov	r5, r1
	mov	r6, r2
	mov	r7, r3
	.loc 1 790 2 is_stmt 1 view .LVU306
	.loc 1 790 7 view .LVU307
	.loc 1 790 15 view .LVU308
	.loc 1 792 2 view .LVU309
	.loc 1 792 17 is_stmt 0 view .LVU310
	ldr	r3, .L76
.LVL93:
	.loc 1 792 17 view .LVU311
	ldr	r2, [r3, #8]
.LVL94:
	.loc 1 792 45 view .LVU312
	ldrb	r3, [r2, #12]	@ zero_extendqisi2
	orr	r3, r3, #4
	strb	r3, [r2, #12]
	.loc 1 793 2 is_stmt 1 view .LVU313
	bl	z_thread_essential_clear
.LVL95:
	.loc 1 815 2 view .LVU314
	mov	r3, r7
	mov	r2, r6
	mov	r1, r5
	mov	r0, r4
	bl	z_thread_entry
.LVL96:
.L77:
	.align	2
.L76:
	.word	_kernel
	.cfi_endproc
.LFE622:
	.size	k_thread_user_mode_enter, .-k_thread_user_mode_enter
	.section	.text.z_impl_k_float_disable,"ax",%progbits
	.align	1
	.global	z_impl_k_float_disable
	.syntax unified
	.thumb
	.thumb_func
	.fpu fpv4-sp-d16
	.type	z_impl_k_float_disable, %function
z_impl_k_float_disable:
.LVL97:
.LFB623:
	.loc 1 859 1 view -0
	.cfi_startproc
	@ args = 0, pretend = 0, frame = 0
	@ frame_needed = 0, uses_anonymous_args = 0
	.loc 1 859 1 is_stmt 0 view .LVU316
	push	{r3, lr}
	.cfi_def_cfa_offset 8
	.cfi_offset 3, -8
	.cfi_offset 14, -4
	.loc 1 861 2 is_stmt 1 view .LVU317
	.loc 1 861 9 is_stmt 0 view .LVU318
	bl	arch_float_disable
.LVL98:
	.loc 1 865 1 view .LVU319
	pop	{r3, pc}
	.cfi_endproc
.LFE623:
	.size	z_impl_k_float_disable, .-z_impl_k_float_disable
	.section	.text.z_impl_k_float_enable,"ax",%progbits
	.align	1
	.global	z_impl_k_float_enable
	.syntax unified
	.thumb
	.thumb_func
	.fpu fpv4-sp-d16
	.type	z_impl_k_float_enable, %function
z_impl_k_float_enable:
.LVL99:
.LFB624:
	.loc 1 868 1 is_stmt 1 view -0
	.cfi_startproc
	@ args = 0, pretend = 0, frame = 0
	@ frame_needed = 0, uses_anonymous_args = 0
	.loc 1 868 1 is_stmt 0 view .LVU321
	push	{r3, lr}
	.cfi_def_cfa_offset 8
	.cfi_offset 3, -8
	.cfi_offset 14, -4
	.loc 1 870 2 is_stmt 1 view .LVU322
	.loc 1 870 9 is_stmt 0 view .LVU323
	bl	arch_float_enable
.LVL100:
	.loc 1 874 1 view .LVU324
	pop	{r3, pc}
	.cfi_endproc
.LFE624:
	.size	z_impl_k_float_enable, .-z_impl_k_float_enable
	.section	.text.z_impl_k_thread_stack_space_get,"ax",%progbits
	.align	1
	.global	z_impl_k_thread_stack_space_get
	.syntax unified
	.thumb
	.thumb_func
	.fpu fpv4-sp-d16
	.type	z_impl_k_thread_stack_space_get, %function
z_impl_k_thread_stack_space_get:
.LVL101:
.LFB625:
	.loc 1 906 1 is_stmt 1 view -0
	.cfi_startproc
	@ args = 0, pretend = 0, frame = 0
	@ frame_needed = 0, uses_anonymous_args = 0
	@ link register save eliminated.
	.loc 1 906 1 is_stmt 0 view .LVU326
	push	{r4, r5}
	.cfi_def_cfa_offset 8
	.cfi_offset 4, -8
	.cfi_offset 5, -4
	.loc 1 907 2 is_stmt 1 view .LVU327
	.loc 1 907 54 is_stmt 0 view .LVU328
	ldr	r5, [r0, #136]
.LVL102:
	.loc 1 908 2 is_stmt 1 view .LVU329
	.loc 1 908 9 is_stmt 0 view .LVU330
	ldr	r4, [r0, #140]
.LVL103:
	.loc 1 909 2 is_stmt 1 view .LVU331
	.loc 1 910 2 view .LVU332
	.loc 1 915 2 view .LVU333
	.loc 1 924 2 view .LVU334
	.loc 1 933 2 view .LVU335
	.loc 1 945 2 view .LVU336
.LBB107:
	.loc 1 945 7 view .LVU337
	.loc 1 945 14 is_stmt 0 view .LVU338
	movs	r3, #0
.LBE107:
	.loc 1 909 9 view .LVU339
	mov	r2, r3
.LVL104:
.L83:
.LBB108:
	.loc 1 945 21 is_stmt 1 discriminator 1 view .LVU340
	.loc 1 945 2 is_stmt 0 discriminator 1 view .LVU341
	cmp	r3, r4
	bcs	.L84
	.loc 1 946 3 is_stmt 1 view .LVU342
	.loc 1 946 21 is_stmt 0 view .LVU343
	ldrb	r0, [r5, r3]	@ zero_extendqisi2
	.loc 1 946 6 view .LVU344
	cmp	r0, #170
	bne	.L84
	.loc 1 947 4 is_stmt 1 discriminator 2 view .LVU345
	.loc 1 947 10 is_stmt 0 discriminator 2 view .LVU346
	adds	r2, r2, #1
.LVL105:
	.loc 1 945 31 is_stmt 1 discriminator 2 view .LVU347
	.loc 1 945 32 is_stmt 0 discriminator 2 view .LVU348
	adds	r3, r3, #1
.LVL106:
	.loc 1 945 32 discriminator 2 view .LVU349
	b	.L83
.L84:
	.loc 1 945 32 discriminator 2 view .LVU350
.LBE108:
	.loc 1 953 2 is_stmt 1 view .LVU351
	.loc 1 953 14 is_stmt 0 view .LVU352
	str	r2, [r1]
	.loc 1 955 2 is_stmt 1 view .LVU353
.LVL107:
	.loc 1 956 1 is_stmt 0 view .LVU354
	movs	r0, #0
	pop	{r4, r5}
	.cfi_restore 5
	.cfi_restore 4
	.cfi_def_cfa_offset 0
.LVL108:
	.loc 1 956 1 view .LVU355
	bx	lr
	.cfi_endproc
.LFE625:
	.size	z_impl_k_thread_stack_space_get, .-z_impl_k_thread_stack_space_get
	.section	.text.k_thread_runtime_stats_get,"ax",%progbits
	.align	1
	.global	k_thread_runtime_stats_get
	.syntax unified
	.thumb
	.thumb_func
	.fpu fpv4-sp-d16
	.type	k_thread_runtime_stats_get, %function
k_thread_runtime_stats_get:
.LVL109:
.LFB626:
	.loc 1 1030 1 is_stmt 1 view -0
	.cfi_startproc
	@ args = 0, pretend = 0, frame = 0
	@ frame_needed = 0, uses_anonymous_args = 0
	@ link register save eliminated.
	.loc 1 1031 2 view .LVU357
	.loc 1 1031 5 is_stmt 0 view .LVU358
	cbz	r0, .L89
	.loc 1 1031 22 discriminator 1 view .LVU359
	cbz	r1, .L90
	.loc 1 1038 2 is_stmt 1 view .LVU360
	.loc 1 1041 2 view .LVU361
	.loc 1 1041 9 is_stmt 0 view .LVU362
	movs	r0, #0
.LVL110:
	.loc 1 1041 9 view .LVU363
	bx	lr
.LVL111:
.L89:
	.loc 1 1032 10 view .LVU364
	mvn	r0, #21
.LVL112:
	.loc 1 1032 10 view .LVU365
	bx	lr
.LVL113:
.L90:
	.loc 1 1032 10 view .LVU366
	mvn	r0, #21
.LVL114:
	.loc 1 1042 1 view .LVU367
	bx	lr
	.cfi_endproc
.LFE626:
	.size	k_thread_runtime_stats_get, .-k_thread_runtime_stats_get
	.section	.text.k_thread_runtime_stats_all_get,"ax",%progbits
	.align	1
	.global	k_thread_runtime_stats_all_get
	.syntax unified
	.thumb
	.thumb_func
	.fpu fpv4-sp-d16
	.type	k_thread_runtime_stats_all_get, %function
k_thread_runtime_stats_all_get:
.LVL115:
.LFB627:
	.loc 1 1045 1 is_stmt 1 view -0
	.cfi_startproc
	@ args = 0, pretend = 0, frame = 0
	@ frame_needed = 0, uses_anonymous_args = 0
	@ link register save eliminated.
	.loc 1 1050 2 view .LVU369
	.loc 1 1050 5 is_stmt 0 view .LVU370
	cbz	r0, .L93
	.loc 1 1054 2 is_stmt 1 view .LVU371
	.loc 1 1072 2 view .LVU372
	.loc 1 1072 9 is_stmt 0 view .LVU373
	movs	r0, #0
.LVL116:
	.loc 1 1072 9 view .LVU374
	bx	lr
.LVL117:
.L93:
	.loc 1 1051 10 view .LVU375
	mvn	r0, #21
.LVL118:
	.loc 1 1073 1 view .LVU376
	bx	lr
	.cfi_endproc
.LFE627:
	.size	k_thread_runtime_stats_all_get, .-k_thread_runtime_stats_all_get
	.text
.Letext0:
	.file 11 "/home/sebin/LIOT/gcc-arm-none-eabi-9-2019-q4-major/lib/gcc/arm-none-eabi/9.2.1/include/stddef.h"
	.file 12 "/home/sebin/LIOT/gcc-arm-none-eabi-9-2019-q4-major/arm-none-eabi/include/machine/_default_types.h"
	.file 13 "/home/sebin/LIOT/gcc-arm-none-eabi-9-2019-q4-major/arm-none-eabi/include/sys/_stdint.h"
	.file 14 "/home/sebin/thesis/zephyrproject/zephyr/include/sys/rb.h"
	.file 15 "/home/sebin/thesis/zephyrproject/zephyr/include/sys/slist.h"
	.file 16 "/home/sebin/thesis/zephyrproject/zephyr/include/sys/sys_heap.h"
	.file 17 "/home/sebin/thesis/zephyrproject/zephyr/include/kernel_structs.h"
	.file 18 "/home/sebin/thesis/zephyrproject/zephyr/include/kernel/thread.h"
	.file 19 "/home/sebin/thesis/zephyrproject/zephyr/include/kernel.h"
	.file 20 "/home/sebin/thesis/zephyrproject/zephyr/include/sys/arch_interface.h"
	.file 21 "/home/sebin/thesis/zephyrproject/zephyr/include/arch/arm/aarch32/thread.h"
	.file 22 "/home/sebin/thesis/zephyrproject/zephyr/include/arch/arm/aarch32/exc.h"
	.file 23 "/home/sebin/thesis/zephyrproject/zephyr/include/sw_isr_table.h"
	.file 24 "/home/sebin/thesis/zephyrproject/modules/hal/infineon/XMCLib/devices/XMC4500/Include/system_XMC4500.h"
	.file 25 "/home/sebin/thesis/zephyrproject/modules/hal/cmsis/CMSIS/Core/Include/core_cm4.h"
	.file 26 "/home/sebin/thesis/zephyrproject/zephyr/include/arch/arm/aarch32/mpu/arm_mpu_v7m.h"
	.file 27 "/home/sebin/thesis/zephyrproject/zephyr/include/arch/arm/aarch32/mpu/arm_mpu.h"
	.file 28 "/home/sebin/thesis/zephyrproject/zephyr/include/sys_clock.h"
	.file 29 "/home/sebin/thesis/zephyrproject/zephyr/include/spinlock.h"
	.file 30 "/home/sebin/thesis/zephyrproject/zephyr/include/arch/structs.h"
	.file 31 "/home/sebin/LIOT/gcc-arm-none-eabi-9-2019-q4-major/arm-none-eabi/include/sys/lock.h"
	.file 32 "/home/sebin/LIOT/gcc-arm-none-eabi-9-2019-q4-major/arm-none-eabi/include/sys/_types.h"
	.file 33 "/home/sebin/LIOT/gcc-arm-none-eabi-9-2019-q4-major/arm-none-eabi/include/sys/reent.h"
	.file 34 "/home/sebin/LIOT/gcc-arm-none-eabi-9-2019-q4-major/arm-none-eabi/include/sys/errno.h"
	.file 35 "/home/sebin/thesis/zephyrproject/zephyr/arch/arm/include/aarch32/cortex_m/stack.h"
	.file 36 "/home/sebin/thesis/zephyrproject/zephyr/kernel/include/kernel_internal.h"
	.file 37 "/home/sebin/thesis/zephyrproject/zephyr/kernel/include/kswap.h"
	.file 38 "/home/sebin/thesis/zephyrproject/zephyr/include/logging/log_instance.h"
	.file 39 "/home/sebin/thesis/zephyrproject/zephyr/include/sys/cbprintf_internal.h"
	.file 40 "/home/sebin/thesis/zephyrproject/zephyr/include/logging/log_msg2.h"
	.file 41 "/home/sebin/thesis/zephyrproject/zephyr/include/logging/log_msg.h"
	.file 42 "/home/sebin/thesis/zephyrproject/zephyr/include/logging/log_core.h"
	.file 43 "/home/sebin/thesis/zephyrproject/zephyr/kernel/include/kernel_arch_interface.h"
	.file 44 "<built-in>"
	.file 45 "/home/sebin/thesis/zephyrproject/zephyr/kernel/include/ksched.h"